; ModuleID = '/local/mnt2/workspace2/mnadeem/llvm/llvm-test-suite/MultiSource/Benchmarks/DOE-ProxyApps-C++/PENNANT/ExportGold.cc'
source_filename = "/local/mnt2/workspace2/mnadeem/llvm/llvm-test-suite/MultiSource/Benchmarks/DOE-ProxyApps-C++/PENNANT/ExportGold.cc"
target datalayout = "e-m:e-p270:32:32-p271:32:32-p272:64:64-i64:64-f80:128-n8:16:32:64-S128"
target triple = "x86_64-unknown-linux-gnu"

%"class.std::__1::basic_ostream" = type { ptr, %"class.std::__1::basic_ios.base" }
%"class.std::__1::basic_ios.base" = type <{ %"class.std::__1::ios_base", ptr, i32 }>
%"class.std::__1::ios_base" = type { ptr, i32, i64, i64, i32, i32, ptr, ptr, ptr, ptr, i64, i64, ptr, i64, i64, ptr, i64, i64 }
%"class.std::__1::locale::id" = type <{ %"struct.std::__1::once_flag", i32, [4 x i8] }>
%"struct.std::__1::once_flag" = type { i64 }
%class.ExportGold = type <{ ptr, %"class.std::__1::vector.1", %"class.std::__1::vector.1", %"class.std::__1::vector.1", %"class.std::__1::vector.1", %"class.std::__1::vector.1", %"class.std::__1::vector.1", %"class.std::__1::vector.1", i32, i32, i32, [4 x i8] }>
%"class.std::__1::vector.1" = type { ptr, ptr, %"class.std::__1::__compressed_pair.2" }
%"class.std::__1::__compressed_pair.2" = type { %"struct.std::__1::__compressed_pair_elem.3" }
%"struct.std::__1::__compressed_pair_elem.3" = type { ptr }
%"class.std::__1::basic_string" = type { %"class.std::__1::__compressed_pair.8" }
%"class.std::__1::__compressed_pair.8" = type { %"struct.std::__1::__compressed_pair_elem.9" }
%"struct.std::__1::__compressed_pair_elem.9" = type { %"struct.std::__1::basic_string<char>::__rep" }
%"struct.std::__1::basic_string<char>::__rep" = type { %union.anon }
%union.anon = type { %"struct.std::__1::basic_string<char>::__long" }
%"struct.std::__1::basic_string<char>::__long" = type { %struct.anon, i64, ptr }
%struct.anon = type { i64 }
%"struct.std::__1::basic_string<char>::__short" = type { %struct.anon.10, [0 x i8], [23 x i8] }
%struct.anon.10 = type { i8 }
%"class.std::__1::locale" = type { ptr }
%"class.std::__1::basic_ofstream" = type { %"class.std::__1::basic_ostream.base", %"class.std::__1::basic_filebuf", %"class.std::__1::basic_ios.base" }
%"class.std::__1::basic_ostream.base" = type { ptr }
%"class.std::__1::basic_filebuf" = type <{ %"class.std::__1::basic_streambuf", ptr, ptr, ptr, [8 x i8], i64, ptr, i64, ptr, ptr, %struct.__mbstate_t, %struct.__mbstate_t, i32, i32, i8, i8, i8, [5 x i8] }>
%"class.std::__1::basic_streambuf" = type { ptr, %"class.std::__1::locale", ptr, ptr, ptr, ptr, ptr, ptr }
%struct.__mbstate_t = type { i32, %union.anon.15 }
%union.anon.15 = type { i32 }
%class.Mesh = type { ptr, ptr, ptr, i32, %"class.std::__1::vector", i8, i8, i32, i32, i32, i32, i32, i32, ptr, ptr, ptr, ptr, ptr, ptr, ptr, ptr, i32, i32, i32, i32, ptr, ptr, ptr, ptr, ptr, ptr, ptr, ptr, ptr, ptr, ptr, ptr, ptr, ptr, ptr, ptr, ptr, ptr, ptr, ptr, ptr, ptr, ptr, ptr, ptr, ptr, ptr, ptr, ptr, i32, %"class.std::__1::vector.1", %"class.std::__1::vector.1", %"class.std::__1::vector.1", %"class.std::__1::vector.1", i32, %"class.std::__1::vector.1", %"class.std::__1::vector.1", i32, %"class.std::__1::vector.1", %"class.std::__1::vector.1" }
%"class.std::__1::vector" = type { ptr, ptr, %"class.std::__1::__compressed_pair" }
%"class.std::__1::__compressed_pair" = type { %"struct.std::__1::__compressed_pair_elem" }
%"struct.std::__1::__compressed_pair_elem" = type { ptr }
%"class.std::__1::vector.16" = type { ptr, ptr, %"class.std::__1::__compressed_pair.17" }
%"class.std::__1::__compressed_pair.17" = type { %"struct.std::__1::__compressed_pair_elem.18" }
%"struct.std::__1::__compressed_pair_elem.18" = type { ptr }
%struct.double2 = type { double, double }
%"class.std::__1::basic_ostream<char>::sentry" = type { i8, ptr }
%"class.std::__1::basic_ios" = type <{ %"class.std::__1::ios_base", ptr, i32, [4 x i8] }>

$_ZNSt3__1lsB7v170000IcNS_11char_traitsIcEENS_9allocatorIcEEEERNS_13basic_ostreamIT_T0_EES9_RKNS_12basic_stringIS6_S7_T1_EE = comdat any

$_ZNSt3__14endlB7v170000IcNS_11char_traitsIcEEEERNS_13basic_ostreamIT_T0_EES7_ = comdat any

$_ZNSt3__114basic_ofstreamIcNS_11char_traitsIcEEED1Ev = comdat any

$_ZTv0_n24_NSt3__114basic_ofstreamIcNS_11char_traitsIcEEED1Ev = comdat any

$_ZNSt3__114basic_ofstreamIcNS_11char_traitsIcEEED0Ev = comdat any

$_ZTv0_n24_NSt3__114basic_ofstreamIcNS_11char_traitsIcEEED0Ev = comdat any

$_ZNSt3__113basic_filebufIcNS_11char_traitsIcEEED2Ev = comdat any

$__clang_call_terminate = comdat any

$_ZNSt3__113basic_filebufIcNS_11char_traitsIcEEED0Ev = comdat any

$_ZNSt3__113basic_filebufIcNS_11char_traitsIcEEE5imbueERKNS_6localeE = comdat any

$_ZNSt3__113basic_filebufIcNS_11char_traitsIcEEE6setbufEPcl = comdat any

$_ZNSt3__113basic_filebufIcNS_11char_traitsIcEEE7seekoffExNS_8ios_base7seekdirEj = comdat any

$_ZNSt3__113basic_filebufIcNS_11char_traitsIcEEE7seekposENS_4fposI11__mbstate_tEEj = comdat any

$_ZNSt3__113basic_filebufIcNS_11char_traitsIcEEE4syncEv = comdat any

$_ZNSt3__113basic_filebufIcNS_11char_traitsIcEEE9underflowEv = comdat any

$_ZNSt3__113basic_filebufIcNS_11char_traitsIcEEE9pbackfailEi = comdat any

$_ZNSt3__113basic_filebufIcNS_11char_traitsIcEEE8overflowEi = comdat any

$_ZNSt3__116__throw_bad_castB7v170000Ev = comdat any

$_ZNKSt3__112basic_stringIcNS_11char_traitsIcEENS_9allocatorIcEEE20__throw_length_errorB7v170000Ev = comdat any

$_ZNSt3__120__throw_length_errorB7v170000EPKc = comdat any

$_ZNSt12length_errorC2B7v170000EPKc = comdat any

$_ZSt28__throw_bad_array_new_lengthB7v170000v = comdat any

$_ZNSt3__113basic_filebufIcNS_11char_traitsIcEEEC2Ev = comdat any

$_ZNSt3__124__put_character_sequenceB7v170000IcNS_11char_traitsIcEEEERNS_13basic_ostreamIT_T0_EES7_PKS4_m = comdat any

$_ZNSt3__116__pad_and_outputB7v170000IcNS_11char_traitsIcEEEENS_19ostreambuf_iteratorIT_T0_EES6_PKS4_S8_S8_RNS_8ios_baseES4_ = comdat any

$_ZNKSt3__16vectorIiNS_9allocatorIiEEE20__throw_length_errorB7v170000Ev = comdat any

$_ZNKSt3__16vectorI7double2NS_9allocatorIS1_EEE20__throw_length_errorB7v170000Ev = comdat any

$_ZNSt3__16vectorIiNS_9allocatorIiEEE8__appendEm = comdat any

$_ZNKSt3__16vectorIdNS_9allocatorIdEEE20__throw_length_errorB7v170000Ev = comdat any

$_ZTVNSt3__114basic_ofstreamIcNS_11char_traitsIcEEEE = comdat any

$_ZTTNSt3__114basic_ofstreamIcNS_11char_traitsIcEEEE = comdat any

$_ZTCNSt3__114basic_ofstreamIcNS_11char_traitsIcEEEE0_NS_13basic_ostreamIcS2_EE = comdat any

$_ZTSNSt3__114basic_ofstreamIcNS_11char_traitsIcEEEE = comdat any

$_ZTINSt3__114basic_ofstreamIcNS_11char_traitsIcEEEE = comdat any

$_ZTVNSt3__113basic_filebufIcNS_11char_traitsIcEEEE = comdat any

$_ZTSNSt3__113basic_filebufIcNS_11char_traitsIcEEEE = comdat any

$_ZTINSt3__113basic_filebufIcNS_11char_traitsIcEEEE = comdat any

@.str = private unnamed_addr constant [3 x i8] c"zr\00", align 1
@.str.1 = private unnamed_addr constant [3 x i8] c"ze\00", align 1
@.str.2 = private unnamed_addr constant [3 x i8] c"zp\00", align 1
@_ZN8Parallel4mypeE = external local_unnamed_addr global i32, align 4
@.str.3 = private unnamed_addr constant [6 x i8] c".case\00", align 1
@_ZNSt3__14cerrE = external global %"class.std::__1::basic_ostream", align 8
@.str.4 = private unnamed_addr constant [18 x i8] c"Cannot open file \00", align 1
@.str.5 = private unnamed_addr constant [13 x i8] c" for writing\00", align 1
@.str.6 = private unnamed_addr constant [2 x i8] c"#\00", align 1
@.str.7 = private unnamed_addr constant [21 x i8] c"# Created by PENNANT\00", align 1
@.str.8 = private unnamed_addr constant [7 x i8] c"FORMAT\00", align 1
@.str.9 = private unnamed_addr constant [19 x i8] c"type: ensight gold\00", align 1
@.str.10 = private unnamed_addr constant [9 x i8] c"GEOMETRY\00", align 1
@.str.11 = private unnamed_addr constant [8 x i8] c"model: \00", align 1
@.str.12 = private unnamed_addr constant [5 x i8] c".geo\00", align 1
@.str.13 = private unnamed_addr constant [9 x i8] c"VARIABLE\00", align 1
@.str.14 = private unnamed_addr constant [24 x i8] c"scalar per element: zr \00", align 1
@.str.15 = private unnamed_addr constant [4 x i8] c".zr\00", align 1
@.str.16 = private unnamed_addr constant [24 x i8] c"scalar per element: ze \00", align 1
@.str.17 = private unnamed_addr constant [4 x i8] c".ze\00", align 1
@.str.18 = private unnamed_addr constant [24 x i8] c"scalar per element: zp \00", align 1
@.str.19 = private unnamed_addr constant [4 x i8] c".zp\00", align 1
@.str.20 = private unnamed_addr constant [9 x i8] c"cycle = \00", align 1
@.str.21 = private unnamed_addr constant [5 x i8] c"t = \00", align 1
@.str.22 = private unnamed_addr constant [15 x i8] c"node id assign\00", align 1
@.str.23 = private unnamed_addr constant [17 x i8] c"element id given\00", align 1
@.str.24 = private unnamed_addr constant [5 x i8] c"part\00", align 1
@.str.25 = private unnamed_addr constant [9 x i8] c"universe\00", align 1
@_ZN8Parallel5numpeE = external local_unnamed_addr global i32, align 4
@.str.26 = private unnamed_addr constant [12 x i8] c"coordinates\00", align 1
@.str.27 = private unnamed_addr constant [6 x i8] c"tria3\00", align 1
@.str.28 = private unnamed_addr constant [6 x i8] c"quad4\00", align 1
@.str.29 = private unnamed_addr constant [7 x i8] c"nsided\00", align 1
@.str.30 = private unnamed_addr constant [2 x i8] c".\00", align 1
@_ZTVNSt3__114basic_ofstreamIcNS_11char_traitsIcEEEE = linkonce_odr dso_local unnamed_addr constant { [5 x ptr], [5 x ptr] } { [5 x ptr] [ptr inttoptr (i64 176 to ptr), ptr null, ptr @_ZTINSt3__114basic_ofstreamIcNS_11char_traitsIcEEEE, ptr @_ZNSt3__114basic_ofstreamIcNS_11char_traitsIcEEED1Ev, ptr @_ZNSt3__114basic_ofstreamIcNS_11char_traitsIcEEED0Ev], [5 x ptr] [ptr inttoptr (i64 -176 to ptr), ptr inttoptr (i64 -176 to ptr), ptr @_ZTINSt3__114basic_ofstreamIcNS_11char_traitsIcEEEE, ptr @_ZTv0_n24_NSt3__114basic_ofstreamIcNS_11char_traitsIcEEED1Ev, ptr @_ZTv0_n24_NSt3__114basic_ofstreamIcNS_11char_traitsIcEEED0Ev] }, comdat, align 8
@_ZTTNSt3__114basic_ofstreamIcNS_11char_traitsIcEEEE = linkonce_odr dso_local unnamed_addr constant [4 x ptr] [ptr getelementptr inbounds ({ [5 x ptr], [5 x ptr] }, ptr @_ZTVNSt3__114basic_ofstreamIcNS_11char_traitsIcEEEE, i32 0, inrange i32 0, i32 3), ptr getelementptr inbounds ({ [5 x ptr], [5 x ptr] }, ptr @_ZTCNSt3__114basic_ofstreamIcNS_11char_traitsIcEEEE0_NS_13basic_ostreamIcS2_EE, i32 0, inrange i32 0, i32 3), ptr getelementptr inbounds ({ [5 x ptr], [5 x ptr] }, ptr @_ZTCNSt3__114basic_ofstreamIcNS_11char_traitsIcEEEE0_NS_13basic_ostreamIcS2_EE, i32 0, inrange i32 1, i32 3), ptr getelementptr inbounds ({ [5 x ptr], [5 x ptr] }, ptr @_ZTVNSt3__114basic_ofstreamIcNS_11char_traitsIcEEEE, i32 0, inrange i32 1, i32 3)], comdat, align 8
@_ZTCNSt3__114basic_ofstreamIcNS_11char_traitsIcEEEE0_NS_13basic_ostreamIcS2_EE = linkonce_odr dso_local unnamed_addr constant { [5 x ptr], [5 x ptr] } { [5 x ptr] [ptr inttoptr (i64 176 to ptr), ptr null, ptr @_ZTINSt3__113basic_ostreamIcNS_11char_traitsIcEEEE, ptr @_ZNSt3__113basic_ostreamIcNS_11char_traitsIcEEED1Ev, ptr @_ZNSt3__113basic_ostreamIcNS_11char_traitsIcEEED0Ev], [5 x ptr] [ptr inttoptr (i64 -176 to ptr), ptr inttoptr (i64 -176 to ptr), ptr @_ZTINSt3__113basic_ostreamIcNS_11char_traitsIcEEEE, ptr @_ZTv0_n24_NSt3__113basic_ostreamIcNS_11char_traitsIcEEED1Ev, ptr @_ZTv0_n24_NSt3__113basic_ostreamIcNS_11char_traitsIcEEED0Ev] }, comdat, align 8
@_ZTINSt3__113basic_ostreamIcNS_11char_traitsIcEEEE = external constant ptr
@_ZTVN10__cxxabiv120__si_class_type_infoE = external global ptr
@_ZTSNSt3__114basic_ofstreamIcNS_11char_traitsIcEEEE = linkonce_odr dso_local constant [48 x i8] c"NSt3__114basic_ofstreamIcNS_11char_traitsIcEEEE\00", comdat, align 1
@_ZTINSt3__114basic_ofstreamIcNS_11char_traitsIcEEEE = linkonce_odr dso_local constant { ptr, ptr, ptr } { ptr getelementptr inbounds (ptr, ptr @_ZTVN10__cxxabiv120__si_class_type_infoE, i64 2), ptr @_ZTSNSt3__114basic_ofstreamIcNS_11char_traitsIcEEEE, ptr @_ZTINSt3__113basic_ostreamIcNS_11char_traitsIcEEEE }, comdat, align 8
@_ZTVNSt3__113basic_filebufIcNS_11char_traitsIcEEEE = linkonce_odr dso_local unnamed_addr constant { [16 x ptr] } { [16 x ptr] [ptr null, ptr @_ZTINSt3__113basic_filebufIcNS_11char_traitsIcEEEE, ptr @_ZNSt3__113basic_filebufIcNS_11char_traitsIcEEED2Ev, ptr @_ZNSt3__113basic_filebufIcNS_11char_traitsIcEEED0Ev, ptr @_ZNSt3__113basic_filebufIcNS_11char_traitsIcEEE5imbueERKNS_6localeE, ptr @_ZNSt3__113basic_filebufIcNS_11char_traitsIcEEE6setbufEPcl, ptr @_ZNSt3__113basic_filebufIcNS_11char_traitsIcEEE7seekoffExNS_8ios_base7seekdirEj, ptr @_ZNSt3__113basic_filebufIcNS_11char_traitsIcEEE7seekposENS_4fposI11__mbstate_tEEj, ptr @_ZNSt3__113basic_filebufIcNS_11char_traitsIcEEE4syncEv, ptr @_ZNSt3__115basic_streambufIcNS_11char_traitsIcEEE9showmanycEv, ptr @_ZNSt3__115basic_streambufIcNS_11char_traitsIcEEE6xsgetnEPcl, ptr @_ZNSt3__113basic_filebufIcNS_11char_traitsIcEEE9underflowEv, ptr @_ZNSt3__115basic_streambufIcNS_11char_traitsIcEEE5uflowEv, ptr @_ZNSt3__113basic_filebufIcNS_11char_traitsIcEEE9pbackfailEi, ptr @_ZNSt3__115basic_streambufIcNS_11char_traitsIcEEE6xsputnEPKcl, ptr @_ZNSt3__113basic_filebufIcNS_11char_traitsIcEEE8overflowEi] }, comdat, align 8
@_ZTSNSt3__113basic_filebufIcNS_11char_traitsIcEEEE = linkonce_odr dso_local constant [47 x i8] c"NSt3__113basic_filebufIcNS_11char_traitsIcEEEE\00", comdat, align 1
@_ZTINSt3__115basic_streambufIcNS_11char_traitsIcEEEE = external constant ptr
@_ZTINSt3__113basic_filebufIcNS_11char_traitsIcEEEE = linkonce_odr dso_local constant { ptr, ptr, ptr } { ptr getelementptr inbounds (ptr, ptr @_ZTVN10__cxxabiv120__si_class_type_infoE, i64 2), ptr @_ZTSNSt3__113basic_filebufIcNS_11char_traitsIcEEEE, ptr @_ZTINSt3__115basic_streambufIcNS_11char_traitsIcEEEE }, comdat, align 8
@_ZNSt3__17codecvtIcc11__mbstate_tE2idE = external global %"class.std::__1::locale::id", align 8
@_ZTISt8bad_cast = external constant ptr
@.str.31 = private unnamed_addr constant [13 x i8] c"basic_string\00", align 1
@_ZTISt12length_error = external constant ptr
@_ZTVSt12length_error = external unnamed_addr constant { [5 x ptr] }, align 8
@_ZTISt20bad_array_new_length = external constant ptr
@.str.32 = private unnamed_addr constant [2 x i8] c"w\00", align 1
@_ZNSt3__15ctypeIcE2idE = external global %"class.std::__1::locale::id", align 8
@.str.44 = private unnamed_addr constant [7 x i8] c"vector\00", align 1

@_ZN10ExportGoldC1EP4Mesh = dso_local unnamed_addr alias void (ptr, ptr), ptr @_ZN10ExportGoldC2EP4Mesh
@_ZN10ExportGoldD1Ev = dso_local unnamed_addr alias void (ptr), ptr @_ZN10ExportGoldD2Ev

; Function Attrs: mustprogress nofree nosync nounwind willreturn memory(argmem: write) uwtable
define dso_local void @_ZN10ExportGoldC2EP4Mesh(ptr nocapture noundef nonnull writeonly align 8 dereferenceable(188) %this, ptr noundef %m) unnamed_addr #0 align 2 personality ptr @__gxx_personality_v0 {
entry:
  store ptr %m, ptr %this, align 8, !tbaa !5
  %tris = getelementptr inbounds %class.ExportGold, ptr %this, i64 0, i32 1
  tail call void @llvm.memset.p0.i64(ptr noundef nonnull align 8 dereferenceable(168) %tris, i8 0, i64 168, i1 false)
  ret void
}

; Function Attrs: nounwind uwtable
define dso_local void @_ZN10ExportGoldD2Ev(ptr nocapture noundef nonnull align 8 dereferenceable(188) %this) unnamed_addr #1 align 2 personality ptr @__gxx_personality_v0 {
entry:
  %penothers = getelementptr inbounds %class.ExportGold, ptr %this, i64 0, i32 7
  %0 = load ptr, ptr %penothers, align 8, !tbaa !14
  %cmp.not.i.i = icmp eq ptr %0, null
  br i1 %cmp.not.i.i, label %_ZNSt3__16vectorIiNS_9allocatorIiEEED2B7v170000Ev.exit, label %if.then.i.i

if.then.i.i:                                      ; preds = %entry
  %__end_.i.i.i.i = getelementptr inbounds %class.ExportGold, ptr %this, i64 0, i32 7, i32 1
  store ptr %0, ptr %__end_.i.i.i.i, align 8, !tbaa !15
  tail call void @_ZdlPv(ptr noundef nonnull %0) #22
  br label %_ZNSt3__16vectorIiNS_9allocatorIiEEED2B7v170000Ev.exit

_ZNSt3__16vectorIiNS_9allocatorIiEEED2B7v170000Ev.exit: ; preds = %entry, %if.then.i.i
  %penquads = getelementptr inbounds %class.ExportGold, ptr %this, i64 0, i32 6
  %1 = load ptr, ptr %penquads, align 8, !tbaa !14
  %cmp.not.i.i2 = icmp eq ptr %1, null
  br i1 %cmp.not.i.i2, label %_ZNSt3__16vectorIiNS_9allocatorIiEEED2B7v170000Ev.exit5, label %if.then.i.i4

if.then.i.i4:                                     ; preds = %_ZNSt3__16vectorIiNS_9allocatorIiEEED2B7v170000Ev.exit
  %__end_.i.i.i.i3 = getelementptr inbounds %class.ExportGold, ptr %this, i64 0, i32 6, i32 1
  store ptr %1, ptr %__end_.i.i.i.i3, align 8, !tbaa !15
  tail call void @_ZdlPv(ptr noundef nonnull %1) #22
  br label %_ZNSt3__16vectorIiNS_9allocatorIiEEED2B7v170000Ev.exit5

_ZNSt3__16vectorIiNS_9allocatorIiEEED2B7v170000Ev.exit5: ; preds = %_ZNSt3__16vectorIiNS_9allocatorIiEEED2B7v170000Ev.exit, %if.then.i.i4
  %pentris = getelementptr inbounds %class.ExportGold, ptr %this, i64 0, i32 5
  %2 = load ptr, ptr %pentris, align 8, !tbaa !14
  %cmp.not.i.i6 = icmp eq ptr %2, null
  br i1 %cmp.not.i.i6, label %_ZNSt3__16vectorIiNS_9allocatorIiEEED2B7v170000Ev.exit9, label %if.then.i.i8

if.then.i.i8:                                     ; preds = %_ZNSt3__16vectorIiNS_9allocatorIiEEED2B7v170000Ev.exit5
  %__end_.i.i.i.i7 = getelementptr inbounds %class.ExportGold, ptr %this, i64 0, i32 5, i32 1
  store ptr %2, ptr %__end_.i.i.i.i7, align 8, !tbaa !15
  tail call void @_ZdlPv(ptr noundef nonnull %2) #22
  br label %_ZNSt3__16vectorIiNS_9allocatorIiEEED2B7v170000Ev.exit9

_ZNSt3__16vectorIiNS_9allocatorIiEEED2B7v170000Ev.exit9: ; preds = %_ZNSt3__16vectorIiNS_9allocatorIiEEED2B7v170000Ev.exit5, %if.then.i.i8
  %mapzs = getelementptr inbounds %class.ExportGold, ptr %this, i64 0, i32 4
  %3 = load ptr, ptr %mapzs, align 8, !tbaa !14
  %cmp.not.i.i10 = icmp eq ptr %3, null
  br i1 %cmp.not.i.i10, label %_ZNSt3__16vectorIiNS_9allocatorIiEEED2B7v170000Ev.exit13, label %if.then.i.i12

if.then.i.i12:                                    ; preds = %_ZNSt3__16vectorIiNS_9allocatorIiEEED2B7v170000Ev.exit9
  %__end_.i.i.i.i11 = getelementptr inbounds %class.ExportGold, ptr %this, i64 0, i32 4, i32 1
  store ptr %3, ptr %__end_.i.i.i.i11, align 8, !tbaa !15
  tail call void @_ZdlPv(ptr noundef nonnull %3) #22
  br label %_ZNSt3__16vectorIiNS_9allocatorIiEEED2B7v170000Ev.exit13

_ZNSt3__16vectorIiNS_9allocatorIiEEED2B7v170000Ev.exit13: ; preds = %_ZNSt3__16vectorIiNS_9allocatorIiEEED2B7v170000Ev.exit9, %if.then.i.i12
  %others = getelementptr inbounds %class.ExportGold, ptr %this, i64 0, i32 3
  %4 = load ptr, ptr %others, align 8, !tbaa !14
  %cmp.not.i.i14 = icmp eq ptr %4, null
  br i1 %cmp.not.i.i14, label %_ZNSt3__16vectorIiNS_9allocatorIiEEED2B7v170000Ev.exit17, label %if.then.i.i16

if.then.i.i16:                                    ; preds = %_ZNSt3__16vectorIiNS_9allocatorIiEEED2B7v170000Ev.exit13
  %__end_.i.i.i.i15 = getelementptr inbounds %class.ExportGold, ptr %this, i64 0, i32 3, i32 1
  store ptr %4, ptr %__end_.i.i.i.i15, align 8, !tbaa !15
  tail call void @_ZdlPv(ptr noundef nonnull %4) #22
  br label %_ZNSt3__16vectorIiNS_9allocatorIiEEED2B7v170000Ev.exit17

_ZNSt3__16vectorIiNS_9allocatorIiEEED2B7v170000Ev.exit17: ; preds = %_ZNSt3__16vectorIiNS_9allocatorIiEEED2B7v170000Ev.exit13, %if.then.i.i16
  %quads = getelementptr inbounds %class.ExportGold, ptr %this, i64 0, i32 2
  %5 = load ptr, ptr %quads, align 8, !tbaa !14
  %cmp.not.i.i18 = icmp eq ptr %5, null
  br i1 %cmp.not.i.i18, label %_ZNSt3__16vectorIiNS_9allocatorIiEEED2B7v170000Ev.exit21, label %if.then.i.i20

if.then.i.i20:                                    ; preds = %_ZNSt3__16vectorIiNS_9allocatorIiEEED2B7v170000Ev.exit17
  %__end_.i.i.i.i19 = getelementptr inbounds %class.ExportGold, ptr %this, i64 0, i32 2, i32 1
  store ptr %5, ptr %__end_.i.i.i.i19, align 8, !tbaa !15
  tail call void @_ZdlPv(ptr noundef nonnull %5) #22
  br label %_ZNSt3__16vectorIiNS_9allocatorIiEEED2B7v170000Ev.exit21

_ZNSt3__16vectorIiNS_9allocatorIiEEED2B7v170000Ev.exit21: ; preds = %_ZNSt3__16vectorIiNS_9allocatorIiEEED2B7v170000Ev.exit17, %if.then.i.i20
  %tris = getelementptr inbounds %class.ExportGold, ptr %this, i64 0, i32 1
  %6 = load ptr, ptr %tris, align 8, !tbaa !14
  %cmp.not.i.i22 = icmp eq ptr %6, null
  br i1 %cmp.not.i.i22, label %_ZNSt3__16vectorIiNS_9allocatorIiEEED2B7v170000Ev.exit25, label %if.then.i.i24

if.then.i.i24:                                    ; preds = %_ZNSt3__16vectorIiNS_9allocatorIiEEED2B7v170000Ev.exit21
  %__end_.i.i.i.i23 = getelementptr inbounds %class.ExportGold, ptr %this, i64 0, i32 1, i32 1
  store ptr %6, ptr %__end_.i.i.i.i23, align 8, !tbaa !15
  tail call void @_ZdlPv(ptr noundef nonnull %6) #22
  br label %_ZNSt3__16vectorIiNS_9allocatorIiEEED2B7v170000Ev.exit25

_ZNSt3__16vectorIiNS_9allocatorIiEEED2B7v170000Ev.exit25: ; preds = %_ZNSt3__16vectorIiNS_9allocatorIiEEED2B7v170000Ev.exit21, %if.then.i.i24
  ret void
}

; Function Attrs: uwtable
define dso_local void @_ZN10ExportGold5writeERKNSt3__112basic_stringIcNS0_11char_traitsIcEENS0_9allocatorIcEEEEidPKdSA_SA_(ptr noundef nonnull align 8 dereferenceable(188) %this, ptr noundef nonnull align 8 dereferenceable(24) %basename, i32 noundef %cycle, double noundef %time, ptr nocapture noundef readonly %zr, ptr nocapture noundef readonly %ze, ptr nocapture noundef readonly %zp) local_unnamed_addr #2 align 2 personality ptr @__gxx_personality_v0 {
entry:
  %ref.tmp = alloca %"class.std::__1::basic_string", align 8
  %ref.tmp2 = alloca %"class.std::__1::basic_string", align 8
  %ref.tmp5 = alloca %"class.std::__1::basic_string", align 8
  tail call void @_ZN10ExportGold13writeCaseFileERKNSt3__112basic_stringIcNS0_11char_traitsIcEENS0_9allocatorIcEEEE(ptr nonnull align 8 poison, ptr noundef nonnull align 8 dereferenceable(24) %basename)
  tail call void @_ZN10ExportGold9sortZonesEv(ptr noundef nonnull align 8 dereferenceable(188) %this)
  tail call void @_ZN10ExportGold12writeGeoFileERKNSt3__112basic_stringIcNS0_11char_traitsIcEENS0_9allocatorIcEEEEid(ptr noundef nonnull align 8 dereferenceable(188) %this, ptr noundef nonnull align 8 dereferenceable(24) %basename, i32 noundef %cycle, double noundef %time)
  call void @llvm.lifetime.start.p0(i64 24, ptr nonnull %ref.tmp) #23
  store i8 4, ptr %ref.tmp, align 8
  %__data_.i.i.i = getelementptr inbounds %"struct.std::__1::basic_string<char>::__short", ptr %ref.tmp, i64 0, i32 2
  %cmp.i24.i.i = icmp ugt ptr %__data_.i.i.i, @.str
  %add.ptr.i.i.i = getelementptr inbounds %"struct.std::__1::basic_string<char>::__short", ptr %ref.tmp, i64 0, i32 2, i64 2
  %cmp1.i.i.i = icmp ule ptr %add.ptr.i.i.i, @.str
  %0 = or i1 %cmp.i24.i.i, %cmp1.i.i.i
  call void @llvm.assume(i1 %0)
  store i16 29306, ptr %__data_.i.i.i, align 1
  store i8 0, ptr %add.ptr.i.i.i, align 1, !tbaa !16
  invoke void @_ZN10ExportGold12writeVarFileERKNSt3__112basic_stringIcNS0_11char_traitsIcEENS0_9allocatorIcEEEES8_PKd(ptr noundef nonnull align 8 dereferenceable(188) %this, ptr noundef nonnull align 8 dereferenceable(24) %basename, ptr noundef nonnull align 8 dereferenceable(24) %ref.tmp, ptr noundef %zr)
          to label %invoke.cont unwind label %lpad

invoke.cont:                                      ; preds = %entry
  %bf.load.i.i = load i8, ptr %ref.tmp, align 8
  %bf.clear.i.i = and i8 %bf.load.i.i, 1
  %tobool.i.not.i = icmp eq i8 %bf.clear.i.i, 0
  br i1 %tobool.i.not.i, label %_ZNSt3__112basic_stringIcNS_11char_traitsIcEENS_9allocatorIcEEED2Ev.exit, label %if.then.i

if.then.i:                                        ; preds = %invoke.cont
  %__data_.i.i = getelementptr inbounds %"struct.std::__1::basic_string<char>::__long", ptr %ref.tmp, i64 0, i32 2
  %1 = load ptr, ptr %__data_.i.i, align 8, !tbaa !16
  call void @_ZdlPv(ptr noundef %1) #22
  br label %_ZNSt3__112basic_stringIcNS_11char_traitsIcEENS_9allocatorIcEEED2Ev.exit

_ZNSt3__112basic_stringIcNS_11char_traitsIcEENS_9allocatorIcEEED2Ev.exit: ; preds = %invoke.cont, %if.then.i
  call void @llvm.lifetime.end.p0(i64 24, ptr nonnull %ref.tmp) #23
  call void @llvm.lifetime.start.p0(i64 24, ptr nonnull %ref.tmp2) #23
  store i8 4, ptr %ref.tmp2, align 8
  %__data_.i.i.i21 = getelementptr inbounds %"struct.std::__1::basic_string<char>::__short", ptr %ref.tmp2, i64 0, i32 2
  %cmp.i24.i.i31 = icmp ugt ptr %__data_.i.i.i21, @.str.1
  %add.ptr.i.i.i32 = getelementptr inbounds %"struct.std::__1::basic_string<char>::__short", ptr %ref.tmp2, i64 0, i32 2, i64 2
  %cmp1.i.i.i33 = icmp ule ptr %add.ptr.i.i.i32, @.str.1
  %2 = or i1 %cmp.i24.i.i31, %cmp1.i.i.i33
  call void @llvm.assume(i1 %2)
  store i16 25978, ptr %__data_.i.i.i21, align 1
  store i8 0, ptr %add.ptr.i.i.i32, align 1, !tbaa !16
  invoke void @_ZN10ExportGold12writeVarFileERKNSt3__112basic_stringIcNS0_11char_traitsIcEENS0_9allocatorIcEEEES8_PKd(ptr noundef nonnull align 8 dereferenceable(188) %this, ptr noundef nonnull align 8 dereferenceable(24) %basename, ptr noundef nonnull align 8 dereferenceable(24) %ref.tmp2, ptr noundef %ze)
          to label %invoke.cont4 unwind label %lpad3

invoke.cont4:                                     ; preds = %_ZNSt3__112basic_stringIcNS_11char_traitsIcEENS_9allocatorIcEEED2Ev.exit
  %bf.load.i.i35 = load i8, ptr %ref.tmp2, align 8
  %bf.clear.i.i36 = and i8 %bf.load.i.i35, 1
  %tobool.i.not.i37 = icmp eq i8 %bf.clear.i.i36, 0
  br i1 %tobool.i.not.i37, label %_ZNSt3__112basic_stringIcNS_11char_traitsIcEENS_9allocatorIcEEED2Ev.exit40, label %if.then.i39

if.then.i39:                                      ; preds = %invoke.cont4
  %__data_.i.i38 = getelementptr inbounds %"struct.std::__1::basic_string<char>::__long", ptr %ref.tmp2, i64 0, i32 2
  %3 = load ptr, ptr %__data_.i.i38, align 8, !tbaa !16
  call void @_ZdlPv(ptr noundef %3) #22
  br label %_ZNSt3__112basic_stringIcNS_11char_traitsIcEENS_9allocatorIcEEED2Ev.exit40

_ZNSt3__112basic_stringIcNS_11char_traitsIcEENS_9allocatorIcEEED2Ev.exit40: ; preds = %invoke.cont4, %if.then.i39
  call void @llvm.lifetime.end.p0(i64 24, ptr nonnull %ref.tmp2) #23
  call void @llvm.lifetime.start.p0(i64 24, ptr nonnull %ref.tmp5) #23
  store i8 4, ptr %ref.tmp5, align 8
  %__data_.i.i.i48 = getelementptr inbounds %"struct.std::__1::basic_string<char>::__short", ptr %ref.tmp5, i64 0, i32 2
  %cmp.i24.i.i58 = icmp ugt ptr %__data_.i.i.i48, @.str.2
  %add.ptr.i.i.i59 = getelementptr inbounds %"struct.std::__1::basic_string<char>::__short", ptr %ref.tmp5, i64 0, i32 2, i64 2
  %cmp1.i.i.i60 = icmp ule ptr %add.ptr.i.i.i59, @.str.2
  %4 = or i1 %cmp.i24.i.i58, %cmp1.i.i.i60
  call void @llvm.assume(i1 %4)
  store i16 28794, ptr %__data_.i.i.i48, align 1
  store i8 0, ptr %add.ptr.i.i.i59, align 1, !tbaa !16
  invoke void @_ZN10ExportGold12writeVarFileERKNSt3__112basic_stringIcNS0_11char_traitsIcEENS0_9allocatorIcEEEES8_PKd(ptr noundef nonnull align 8 dereferenceable(188) %this, ptr noundef nonnull align 8 dereferenceable(24) %basename, ptr noundef nonnull align 8 dereferenceable(24) %ref.tmp5, ptr noundef %zp)
          to label %invoke.cont7 unwind label %lpad6

invoke.cont7:                                     ; preds = %_ZNSt3__112basic_stringIcNS_11char_traitsIcEENS_9allocatorIcEEED2Ev.exit40
  %bf.load.i.i62 = load i8, ptr %ref.tmp5, align 8
  %bf.clear.i.i63 = and i8 %bf.load.i.i62, 1
  %tobool.i.not.i64 = icmp eq i8 %bf.clear.i.i63, 0
  br i1 %tobool.i.not.i64, label %_ZNSt3__112basic_stringIcNS_11char_traitsIcEENS_9allocatorIcEEED2Ev.exit67, label %if.then.i66

if.then.i66:                                      ; preds = %invoke.cont7
  %__data_.i.i65 = getelementptr inbounds %"struct.std::__1::basic_string<char>::__long", ptr %ref.tmp5, i64 0, i32 2
  %5 = load ptr, ptr %__data_.i.i65, align 8, !tbaa !16
  call void @_ZdlPv(ptr noundef %5) #22
  br label %_ZNSt3__112basic_stringIcNS_11char_traitsIcEENS_9allocatorIcEEED2Ev.exit67

_ZNSt3__112basic_stringIcNS_11char_traitsIcEENS_9allocatorIcEEED2Ev.exit67: ; preds = %invoke.cont7, %if.then.i66
  call void @llvm.lifetime.end.p0(i64 24, ptr nonnull %ref.tmp5) #23
  ret void

lpad:                                             ; preds = %entry
  %6 = landingpad { ptr, i32 }
          cleanup
  %bf.load.i.i68 = load i8, ptr %ref.tmp, align 8
  %bf.clear.i.i69 = and i8 %bf.load.i.i68, 1
  %tobool.i.not.i70 = icmp eq i8 %bf.clear.i.i69, 0
  br i1 %tobool.i.not.i70, label %_ZNSt3__112basic_stringIcNS_11char_traitsIcEENS_9allocatorIcEEED2Ev.exit73, label %if.then.i72

if.then.i72:                                      ; preds = %lpad
  %__data_.i.i71 = getelementptr inbounds %"struct.std::__1::basic_string<char>::__long", ptr %ref.tmp, i64 0, i32 2
  %7 = load ptr, ptr %__data_.i.i71, align 8, !tbaa !16
  call void @_ZdlPv(ptr noundef %7) #22
  br label %_ZNSt3__112basic_stringIcNS_11char_traitsIcEENS_9allocatorIcEEED2Ev.exit73

_ZNSt3__112basic_stringIcNS_11char_traitsIcEENS_9allocatorIcEEED2Ev.exit73: ; preds = %lpad, %if.then.i72
  call void @llvm.lifetime.end.p0(i64 24, ptr nonnull %ref.tmp) #23
  br label %eh.resume

lpad3:                                            ; preds = %_ZNSt3__112basic_stringIcNS_11char_traitsIcEENS_9allocatorIcEEED2Ev.exit
  %8 = landingpad { ptr, i32 }
          cleanup
  %bf.load.i.i74 = load i8, ptr %ref.tmp2, align 8
  %bf.clear.i.i75 = and i8 %bf.load.i.i74, 1
  %tobool.i.not.i76 = icmp eq i8 %bf.clear.i.i75, 0
  br i1 %tobool.i.not.i76, label %_ZNSt3__112basic_stringIcNS_11char_traitsIcEENS_9allocatorIcEEED2Ev.exit79, label %if.then.i78

if.then.i78:                                      ; preds = %lpad3
  %__data_.i.i77 = getelementptr inbounds %"struct.std::__1::basic_string<char>::__long", ptr %ref.tmp2, i64 0, i32 2
  %9 = load ptr, ptr %__data_.i.i77, align 8, !tbaa !16
  call void @_ZdlPv(ptr noundef %9) #22
  br label %_ZNSt3__112basic_stringIcNS_11char_traitsIcEENS_9allocatorIcEEED2Ev.exit79

_ZNSt3__112basic_stringIcNS_11char_traitsIcEENS_9allocatorIcEEED2Ev.exit79: ; preds = %lpad3, %if.then.i78
  call void @llvm.lifetime.end.p0(i64 24, ptr nonnull %ref.tmp2) #23
  br label %eh.resume

lpad6:                                            ; preds = %_ZNSt3__112basic_stringIcNS_11char_traitsIcEENS_9allocatorIcEEED2Ev.exit40
  %10 = landingpad { ptr, i32 }
          cleanup
  %bf.load.i.i80 = load i8, ptr %ref.tmp5, align 8
  %bf.clear.i.i81 = and i8 %bf.load.i.i80, 1
  %tobool.i.not.i82 = icmp eq i8 %bf.clear.i.i81, 0
  br i1 %tobool.i.not.i82, label %_ZNSt3__112basic_stringIcNS_11char_traitsIcEENS_9allocatorIcEEED2Ev.exit85, label %if.then.i84

if.then.i84:                                      ; preds = %lpad6
  %__data_.i.i83 = getelementptr inbounds %"struct.std::__1::basic_string<char>::__long", ptr %ref.tmp5, i64 0, i32 2
  %11 = load ptr, ptr %__data_.i.i83, align 8, !tbaa !16
  call void @_ZdlPv(ptr noundef %11) #22
  br label %_ZNSt3__112basic_stringIcNS_11char_traitsIcEENS_9allocatorIcEEED2Ev.exit85

_ZNSt3__112basic_stringIcNS_11char_traitsIcEENS_9allocatorIcEEED2Ev.exit85: ; preds = %lpad6, %if.then.i84
  call void @llvm.lifetime.end.p0(i64 24, ptr nonnull %ref.tmp5) #23
  br label %eh.resume

eh.resume:                                        ; preds = %_ZNSt3__112basic_stringIcNS_11char_traitsIcEENS_9allocatorIcEEED2Ev.exit85, %_ZNSt3__112basic_stringIcNS_11char_traitsIcEENS_9allocatorIcEEED2Ev.exit79, %_ZNSt3__112basic_stringIcNS_11char_traitsIcEENS_9allocatorIcEEED2Ev.exit73
  %.pn = phi { ptr, i32 } [ %10, %_ZNSt3__112basic_stringIcNS_11char_traitsIcEENS_9allocatorIcEEED2Ev.exit85 ], [ %8, %_ZNSt3__112basic_stringIcNS_11char_traitsIcEENS_9allocatorIcEEED2Ev.exit79 ], [ %6, %_ZNSt3__112basic_stringIcNS_11char_traitsIcEENS_9allocatorIcEEED2Ev.exit73 ]
  resume { ptr, i32 } %.pn
}

; Function Attrs: uwtable
define dso_local void @_ZN10ExportGold13writeCaseFileERKNSt3__112basic_stringIcNS0_11char_traitsIcEENS0_9allocatorIcEEEE(ptr nocapture nonnull readnone align 8 %this, ptr noundef nonnull align 8 dereferenceable(24) %basename) local_unnamed_addr #2 align 2 personality ptr @__gxx_personality_v0 {
entry:
  %ref.tmp.i.i421 = alloca %"class.std::__1::locale", align 8
  %ref.tmp.i.i402 = alloca %"class.std::__1::locale", align 8
  %ref.tmp.i.i383 = alloca %"class.std::__1::locale", align 8
  %ref.tmp.i.i364 = alloca %"class.std::__1::locale", align 8
  %ref.tmp.i.i345 = alloca %"class.std::__1::locale", align 8
  %ref.tmp.i.i326 = alloca %"class.std::__1::locale", align 8
  %ref.tmp.i.i307 = alloca %"class.std::__1::locale", align 8
  %ref.tmp.i.i288 = alloca %"class.std::__1::locale", align 8
  %ref.tmp.i.i269 = alloca %"class.std::__1::locale", align 8
  %ref.tmp.i.i250 = alloca %"class.std::__1::locale", align 8
  %ref.tmp.i.i = alloca %"class.std::__1::locale", align 8
  %filename = alloca %"class.std::__1::basic_string", align 8
  %ofs = alloca %"class.std::__1::basic_ofstream", align 8
  %0 = load i32, ptr @_ZN8Parallel4mypeE, align 4, !tbaa !17
  %cmp = icmp sgt i32 %0, 0
  br i1 %cmp, label %return, label %if.end

if.end:                                           ; preds = %entry
  call void @llvm.lifetime.start.p0(i64 24, ptr nonnull %filename) #23
  tail call void @llvm.experimental.noalias.scope.decl(metadata !18)
  %bf.load.i.i.i = load i8, ptr %basename, align 8, !noalias !18
  %bf.clear.i.i.i = and i8 %bf.load.i.i.i, 1
  %tobool.i.not.i.i = icmp eq i8 %bf.clear.i.i.i, 0
  %__size_.i.i.i = getelementptr inbounds %"struct.std::__1::basic_string<char>::__long", ptr %basename, i64 0, i32 1
  %1 = load i64, ptr %__size_.i.i.i, align 8, !noalias !18
  %bf.lshr.i.i.i = lshr i8 %bf.load.i.i.i, 1
  %conv.i.i.i = zext i8 %bf.lshr.i.i.i to i64
  %cond.i.i = select i1 %tobool.i.not.i.i, i64 %conv.i.i.i, i64 %1
  %add.i = add i64 %cond.i.i, 5
  %cmp.i.i = icmp ugt i64 %add.i, -17
  br i1 %cmp.i.i, label %if.then.i.i, label %if.end.i.i

if.then.i.i:                                      ; preds = %if.end
  call void @_ZNKSt3__112basic_stringIcNS_11char_traitsIcEENS_9allocatorIcEEE20__throw_length_errorB7v170000Ev(ptr noundef nonnull align 8 dereferenceable(24) %filename) #24
  unreachable

if.end.i.i:                                       ; preds = %if.end
  %cmp.i.i.i = icmp ult i64 %add.i, 23
  br i1 %cmp.i.i.i, label %if.then3.i.i, label %if.else.i.i

if.then3.i.i:                                     ; preds = %if.end.i.i
  call void @llvm.memset.p0.i64(ptr noundef nonnull align 8 dereferenceable(24) %filename, i8 0, i64 24, i1 false), !alias.scope !18
  %conv.i.i22.i = trunc i64 %add.i to i8
  %bf.shl.i.i.i = shl nuw nsw i8 %conv.i.i22.i, 1
  store i8 %bf.shl.i.i.i, ptr %filename, align 8, !alias.scope !18
  br label %_ZNSt3__1plB7v170000IcNS_11char_traitsIcEENS_9allocatorIcEEEENS_12basic_stringIT_T0_T1_EERKS9_PKS6_.exit

if.else.i.i:                                      ; preds = %if.end.i.i
  %sub.i.i.i = or i64 %add.i, 15
  %add.i.i = add i64 %sub.i.i.i, 1
  %call.i5.i.i.i.i.i = tail call noalias noundef nonnull ptr @_Znwm(i64 noundef %add.i.i) #25, !noalias !18
  %bf.set6.i.i.i = or i64 %add.i.i, 1
  store i64 %bf.set6.i.i.i, ptr %filename, align 8, !alias.scope !18
  %__data_.i.i.i = getelementptr inbounds %"struct.std::__1::basic_string<char>::__long", ptr %filename, i64 0, i32 2
  store ptr %call.i5.i.i.i.i.i, ptr %__data_.i.i.i, align 8, !tbaa !16, !alias.scope !18
  %__size_.i.i23.i = getelementptr inbounds %"struct.std::__1::basic_string<char>::__long", ptr %filename, i64 0, i32 1
  store i64 %add.i, ptr %__size_.i.i23.i, align 8, !tbaa !16, !alias.scope !18
  %2 = trunc i64 %bf.set6.i.i.i to i8
  br label %_ZNSt3__1plB7v170000IcNS_11char_traitsIcEENS_9allocatorIcEEEENS_12basic_stringIT_T0_T1_EERKS9_PKS6_.exit

_ZNSt3__1plB7v170000IcNS_11char_traitsIcEENS_9allocatorIcEEEENS_12basic_stringIT_T0_T1_EERKS9_PKS6_.exit: ; preds = %if.then3.i.i, %if.else.i.i
  %3 = phi ptr [ null, %if.then3.i.i ], [ %call.i5.i.i.i.i.i, %if.else.i.i ]
  %bf.load.i.i24.i = phi i8 [ %bf.shl.i.i.i, %if.then3.i.i ], [ %2, %if.else.i.i ]
  %bf.clear.i.i25.i = and i8 %bf.load.i.i24.i, 1
  %tobool.i.not.i26.i = icmp eq i8 %bf.clear.i.i25.i, 0
  %__data_.i4.i.i = getelementptr inbounds %"struct.std::__1::basic_string<char>::__short", ptr %filename, i64 0, i32 2
  %cond.i28.i = select i1 %tobool.i.not.i26.i, ptr %__data_.i4.i.i, ptr %3
  %__data_.i.i.i.i = getelementptr inbounds %"struct.std::__1::basic_string<char>::__long", ptr %basename, i64 0, i32 2
  %4 = load ptr, ptr %__data_.i.i.i.i, align 8, !noalias !18
  %__data_.i4.i.i.i = getelementptr inbounds %"struct.std::__1::basic_string<char>::__short", ptr %basename, i64 0, i32 2
  %cond.i.i.i = select i1 %tobool.i.not.i.i, ptr %__data_.i4.i.i.i, ptr %4
  %cmp.i29.i = icmp ult ptr %cond.i.i.i, %cond.i28.i
  %add.ptr.i.i = getelementptr inbounds i8, ptr %cond.i28.i, i64 %cond.i.i
  %cmp1.i.i = icmp ule ptr %add.ptr.i.i, %cond.i.i.i
  %5 = or i1 %cmp.i29.i, %cmp1.i.i
  call void @llvm.assume(i1 %5)
  call void @llvm.memmove.p0.p0.i64(ptr align 1 %cond.i28.i, ptr align 1 %cond.i.i.i, i64 %cond.i.i, i1 false)
  %cmp.i30.i = icmp ugt ptr %add.ptr.i.i, @.str.3
  %add.ptr.i31.i = getelementptr inbounds i8, ptr %add.ptr.i.i, i64 5
  %cmp1.i32.i = icmp ule ptr %add.ptr.i31.i, @.str.3
  %6 = or i1 %cmp.i30.i, %cmp1.i32.i
  call void @llvm.assume(i1 %6)
  call void @llvm.memcpy.p0.p0.i64(ptr noundef nonnull align 1 dereferenceable(5) %add.ptr.i.i, ptr noundef nonnull align 1 dereferenceable(5) @.str.3, i64 5, i1 false)
  store i8 0, ptr %add.ptr.i31.i, align 1
  call void @llvm.lifetime.start.p0(i64 328, ptr nonnull %ofs) #23
  %bf.load.i.i.i.i = load i8, ptr %filename, align 8
  %bf.clear.i.i.i.i = and i8 %bf.load.i.i.i.i, 1
  %tobool.i.not.i.i.i = icmp eq i8 %bf.clear.i.i.i.i, 0
  %__data_.i.i.i.i84 = getelementptr inbounds %"struct.std::__1::basic_string<char>::__long", ptr %filename, i64 0, i32 2
  %7 = load ptr, ptr %__data_.i.i.i.i84, align 8
  %cond.i.i.i86 = select i1 %tobool.i.not.i.i.i, ptr %__data_.i4.i.i, ptr %7
  %8 = getelementptr inbounds i8, ptr %ofs, i64 176
  %__sb_.i = getelementptr inbounds %"class.std::__1::basic_ofstream", ptr %ofs, i64 0, i32 1
  store ptr getelementptr inbounds ({ [5 x ptr], [5 x ptr] }, ptr @_ZTCNSt3__114basic_ofstreamIcNS_11char_traitsIcEEEE0_NS_13basic_ostreamIcS2_EE, i64 0, inrange i32 0, i64 3), ptr %ofs, align 8, !tbaa !21
  store ptr getelementptr inbounds ({ [5 x ptr], [5 x ptr] }, ptr @_ZTCNSt3__114basic_ofstreamIcNS_11char_traitsIcEEEE0_NS_13basic_ostreamIcS2_EE, i64 0, inrange i32 1, i64 3), ptr %8, align 8, !tbaa !21
  invoke void @_ZNSt3__18ios_base4initEPv(ptr noundef nonnull align 8 dereferenceable(136) %8, ptr noundef nonnull %__sb_.i)
          to label %invoke.cont.i unwind label %lpad.i

invoke.cont.i:                                    ; preds = %_ZNSt3__1plB7v170000IcNS_11char_traitsIcEENS_9allocatorIcEEEENS_12basic_stringIT_T0_T1_EERKS9_PKS6_.exit
  %__tie_.i.i.i = getelementptr inbounds i8, ptr %ofs, i64 312
  store ptr null, ptr %__tie_.i.i.i, align 8, !tbaa !23
  %__fill_.i.i.i = getelementptr inbounds i8, ptr %ofs, i64 320
  store i32 -1, ptr %__fill_.i.i.i, align 8, !tbaa !27
  store ptr getelementptr inbounds ({ [5 x ptr], [5 x ptr] }, ptr @_ZTVNSt3__114basic_ofstreamIcNS_11char_traitsIcEEEE, i64 0, inrange i32 0, i64 3), ptr %ofs, align 8, !tbaa !21
  store ptr getelementptr inbounds ({ [5 x ptr], [5 x ptr] }, ptr @_ZTVNSt3__114basic_ofstreamIcNS_11char_traitsIcEEEE, i64 0, inrange i32 1, i64 3), ptr %8, align 8, !tbaa !21
  invoke void @_ZNSt3__113basic_filebufIcNS_11char_traitsIcEEEC2Ev(ptr noundef nonnull align 8 dereferenceable(163) %__sb_.i)
          to label %invoke.cont5.i unwind label %lpad4.i

invoke.cont5.i:                                   ; preds = %invoke.cont.i
  %__file_.i = getelementptr inbounds %"class.std::__1::basic_ofstream", ptr %ofs, i64 0, i32 1, i32 8
  %9 = load ptr, ptr %__file_.i, align 8, !tbaa !28
  %cmp.i238 = icmp eq ptr %9, null
  br i1 %cmp.i238, label %if.then.i239, label %if.then.i

if.then.i239:                                     ; preds = %invoke.cont5.i
  %call3.i = call ptr @fopen(ptr noundef %cond.i.i.i86, ptr noundef nonnull @.str.32)
  store ptr %call3.i, ptr %__file_.i, align 8, !tbaa !28
  %tobool6.not.i = icmp eq ptr %call3.i, null
  br i1 %tobool6.not.i, label %if.then.i, label %invoke.cont8.i

invoke.cont8.i:                                   ; preds = %if.then.i239
  %__om_.i = getelementptr inbounds %"class.std::__1::basic_ofstream", ptr %ofs, i64 0, i32 1, i32 12
  store i32 16, ptr %__om_.i, align 8, !tbaa !34
  br label %invoke.cont3

if.then.i:                                        ; preds = %invoke.cont5.i, %if.then.i239
  %vtable.i = load ptr, ptr %ofs, align 8, !tbaa !21
  %vbase.offset.ptr.i = getelementptr i8, ptr %vtable.i, i64 -24
  %vbase.offset.i = load i64, ptr %vbase.offset.ptr.i, align 8
  %add.ptr9.i = getelementptr inbounds i8, ptr %ofs, i64 %vbase.offset.i
  %__rdstate_.i.i.i = getelementptr inbounds %"class.std::__1::ios_base", ptr %add.ptr9.i, i64 0, i32 4
  %10 = load i32, ptr %__rdstate_.i.i.i, align 8, !tbaa !35
  %or.i.i.i = or i32 %10, 4
  invoke void @_ZNSt3__18ios_base5clearEj(ptr noundef nonnull align 8 dereferenceable(136) %add.ptr9.i, i32 noundef %or.i.i.i)
          to label %invoke.cont3 unwind label %lpad7.i

lpad.i:                                           ; preds = %_ZNSt3__1plB7v170000IcNS_11char_traitsIcEENS_9allocatorIcEEEENS_12basic_stringIT_T0_T1_EERKS9_PKS6_.exit
  %11 = landingpad { ptr, i32 }
          cleanup
  br label %ehcleanup11.i

lpad4.i:                                          ; preds = %invoke.cont.i
  %12 = landingpad { ptr, i32 }
          cleanup
  br label %ehcleanup.i

lpad7.i:                                          ; preds = %if.then.i
  %13 = landingpad { ptr, i32 }
          cleanup
  call void @_ZNSt3__113basic_filebufIcNS_11char_traitsIcEEED2Ev(ptr noundef nonnull align 8 dereferenceable(163) %__sb_.i) #23
  br label %ehcleanup.i

ehcleanup.i:                                      ; preds = %lpad7.i, %lpad4.i
  %.pn.i = phi { ptr, i32 } [ %13, %lpad7.i ], [ %12, %lpad4.i ]
  call void @_ZNSt3__113basic_ostreamIcNS_11char_traitsIcEEED2Ev(ptr noundef nonnull align 8 dereferenceable(8) %ofs, ptr noundef nonnull getelementptr inbounds ([4 x ptr], ptr @_ZTTNSt3__114basic_ofstreamIcNS_11char_traitsIcEEEE, i64 0, i64 1)) #23
  br label %ehcleanup11.i

ehcleanup11.i:                                    ; preds = %ehcleanup.i, %lpad.i
  %.pn.pn.i = phi { ptr, i32 } [ %.pn.i, %ehcleanup.i ], [ %11, %lpad.i ]
  call void @_ZNSt3__19basic_iosIcNS_11char_traitsIcEEED2Ev(ptr noundef nonnull align 8 dereferenceable(148) %8) #23
  br label %ehcleanup

invoke.cont3:                                     ; preds = %invoke.cont8.i, %if.then.i
  %vtable = load ptr, ptr %ofs, align 8, !tbaa !21
  %vbase.offset.ptr = getelementptr i8, ptr %vtable, i64 -24
  %vbase.offset = load i64, ptr %vbase.offset.ptr, align 8
  %add.ptr = getelementptr inbounds i8, ptr %ofs, i64 %vbase.offset
  %__rdstate_.i.i = getelementptr inbounds %"class.std::__1::ios_base", ptr %add.ptr, i64 0, i32 4
  %14 = load i32, ptr %__rdstate_.i.i, align 8, !tbaa !35
  %cmp.i.i87 = icmp eq i32 %14, 0
  br i1 %cmp.i.i87, label %if.end14, label %if.then5

if.then5:                                         ; preds = %invoke.cont3
  %call1.i89 = invoke noundef nonnull align 8 dereferenceable(8) ptr @_ZNSt3__124__put_character_sequenceB7v170000IcNS_11char_traitsIcEEEERNS_13basic_ostreamIT_T0_EES7_PKS4_m(ptr noundef nonnull align 8 dereferenceable(8) @_ZNSt3__14cerrE, ptr noundef nonnull @.str.4, i64 noundef 17)
          to label %invoke.cont6 unwind label %lpad2

invoke.cont6:                                     ; preds = %if.then5
  %call9 = invoke noundef nonnull align 8 dereferenceable(8) ptr @_ZNSt3__1lsB7v170000IcNS_11char_traitsIcEENS_9allocatorIcEEEERNS_13basic_ostreamIT_T0_EES9_RKNS_12basic_stringIS6_S7_T1_EE(ptr noundef nonnull align 8 dereferenceable(8) %call1.i89, ptr noundef nonnull align 8 dereferenceable(24) %filename)
          to label %invoke.cont8 unwind label %lpad2

invoke.cont8:                                     ; preds = %invoke.cont6
  %call1.i91 = invoke noundef nonnull align 8 dereferenceable(8) ptr @_ZNSt3__124__put_character_sequenceB7v170000IcNS_11char_traitsIcEEEERNS_13basic_ostreamIT_T0_EES7_PKS4_m(ptr noundef nonnull align 8 dereferenceable(8) %call9, ptr noundef nonnull @.str.5, i64 noundef 12)
          to label %invoke.cont10 unwind label %lpad2

invoke.cont10:                                    ; preds = %invoke.cont8
  %call.i9394 = invoke noundef nonnull align 8 dereferenceable(8) ptr @_ZNSt3__14endlB7v170000IcNS_11char_traitsIcEEEERNS_13basic_ostreamIT_T0_EES7_(ptr noundef nonnull align 8 dereferenceable(8) %call1.i91)
          to label %invoke.cont12 unwind label %lpad2

invoke.cont12:                                    ; preds = %invoke.cont10
  call void @exit(i32 noundef 1) #26
  unreachable

lpad2:                                            ; preds = %call1.i.noexc436, %_ZNKSt3__19basic_iosIcNS_11char_traitsIcEEE5widenB7v170000Ec.exit.i432, %invoke.cont71, %call1.i.noexc417, %_ZNKSt3__19basic_iosIcNS_11char_traitsIcEEE5widenB7v170000Ec.exit.i413, %invoke.cont63, %call1.i.noexc398, %_ZNKSt3__19basic_iosIcNS_11char_traitsIcEEE5widenB7v170000Ec.exit.i394, %invoke.cont55, %call1.i.noexc379, %_ZNKSt3__19basic_iosIcNS_11char_traitsIcEEE5widenB7v170000Ec.exit.i375, %invoke.cont47, %call1.i.noexc360, %_ZNKSt3__19basic_iosIcNS_11char_traitsIcEEE5widenB7v170000Ec.exit.i356, %invoke.cont43, %call1.i.noexc341, %_ZNKSt3__19basic_iosIcNS_11char_traitsIcEEE5widenB7v170000Ec.exit.i337, %invoke.cont35, %call1.i.noexc322, %_ZNKSt3__19basic_iosIcNS_11char_traitsIcEEE5widenB7v170000Ec.exit.i318, %invoke.cont31, %call1.i.noexc303, %_ZNKSt3__19basic_iosIcNS_11char_traitsIcEEE5widenB7v170000Ec.exit.i299, %invoke.cont27, %call1.i.noexc284, %_ZNKSt3__19basic_iosIcNS_11char_traitsIcEEE5widenB7v170000Ec.exit.i280, %invoke.cont23, %call1.i.noexc265, %_ZNKSt3__19basic_iosIcNS_11char_traitsIcEEE5widenB7v170000Ec.exit.i261, %invoke.cont19, %call1.i.noexc, %_ZNKSt3__19basic_iosIcNS_11char_traitsIcEEE5widenB7v170000Ec.exit.i, %invoke.cont15, %if.then.i227, %invoke.cont.i.i, %invoke.cont69, %invoke.cont67, %invoke.cont65, %invoke.cont61, %invoke.cont59, %invoke.cont57, %invoke.cont53, %invoke.cont51, %invoke.cont49, %invoke.cont45, %invoke.cont41, %invoke.cont39, %invoke.cont37, %invoke.cont33, %invoke.cont29, %invoke.cont25, %invoke.cont21, %invoke.cont17, %if.end14, %invoke.cont10, %invoke.cont8, %if.then5, %invoke.cont6
  %15 = landingpad { ptr, i32 }
          cleanup
  br label %lpad2.body

lpad2.body:                                       ; preds = %lpad.i.i, %lpad.i.i279, %lpad.i.i317, %lpad.i.i355, %lpad.i.i393, %lpad2, %lpad.i.i431, %lpad.i.i412, %lpad.i.i374, %lpad.i.i336, %lpad.i.i298, %lpad.i.i260, %if.then.i.i.i.i
  %eh.lpad-body229 = phi { ptr, i32 } [ %51, %if.then.i.i.i.i ], [ %17, %lpad.i.i ], [ %19, %lpad.i.i260 ], [ %21, %lpad.i.i279 ], [ %23, %lpad.i.i298 ], [ %25, %lpad.i.i317 ], [ %27, %lpad.i.i336 ], [ %31, %lpad.i.i355 ], [ %33, %lpad.i.i374 ], [ %37, %lpad.i.i393 ], [ %41, %lpad.i.i412 ], [ %15, %lpad2 ], [ %45, %lpad.i.i431 ]
  call void @_ZNSt3__114basic_ofstreamIcNS_11char_traitsIcEEED1Ev(ptr noundef nonnull align 8 dereferenceable(176) %ofs) #23
  br label %ehcleanup

if.end14:                                         ; preds = %invoke.cont3
  %call1.i96 = invoke noundef nonnull align 8 dereferenceable(8) ptr @_ZNSt3__124__put_character_sequenceB7v170000IcNS_11char_traitsIcEEEERNS_13basic_ostreamIT_T0_EES7_PKS4_m(ptr noundef nonnull align 8 dereferenceable(8) %ofs, ptr noundef nonnull @.str.6, i64 noundef 1)
          to label %invoke.cont15 unwind label %lpad2

invoke.cont15:                                    ; preds = %if.end14
  %vtable.i240 = load ptr, ptr %call1.i96, align 8, !tbaa !21
  %vbase.offset.ptr.i241 = getelementptr i8, ptr %vtable.i240, i64 -24
  %vbase.offset.i242 = load i64, ptr %vbase.offset.ptr.i241, align 8
  %add.ptr.i243 = getelementptr inbounds i8, ptr %call1.i96, i64 %vbase.offset.i242
  call void @llvm.lifetime.start.p0(i64 8, ptr nonnull %ref.tmp.i.i) #23
  invoke void @_ZNKSt3__18ios_base6getlocEv(ptr nonnull sret(%"class.std::__1::locale") align 8 %ref.tmp.i.i, ptr noundef nonnull align 8 dereferenceable(136) %add.ptr.i243)
          to label %.noexc245 unwind label %lpad2

.noexc245:                                        ; preds = %invoke.cont15
  %call.i5.i.i = invoke noundef ptr @_ZNKSt3__16locale9use_facetERNS0_2idE(ptr noundef nonnull align 8 dereferenceable(8) %ref.tmp.i.i, ptr noundef nonnull align 8 dereferenceable(12) @_ZNSt3__15ctypeIcE2idE)
          to label %invoke.cont.i.i244 unwind label %lpad.i.i

invoke.cont.i.i244:                               ; preds = %.noexc245
  %vtable.i.i.i = load ptr, ptr %call.i5.i.i, align 8, !tbaa !21
  %vfn.i.i.i = getelementptr inbounds ptr, ptr %vtable.i.i.i, i64 7
  %16 = load ptr, ptr %vfn.i.i.i, align 8
  %call.i6.i.i = invoke noundef signext i8 %16(ptr noundef nonnull align 8 dereferenceable(25) %call.i5.i.i, i8 noundef signext 10)
          to label %_ZNKSt3__19basic_iosIcNS_11char_traitsIcEEE5widenB7v170000Ec.exit.i unwind label %lpad.i.i

lpad.i.i:                                         ; preds = %invoke.cont.i.i244, %.noexc245
  %17 = landingpad { ptr, i32 }
          cleanup
  call void @_ZNSt3__16localeD1Ev(ptr noundef nonnull align 8 dereferenceable(8) %ref.tmp.i.i) #23
  call void @llvm.lifetime.end.p0(i64 8, ptr nonnull %ref.tmp.i.i) #23
  br label %lpad2.body

_ZNKSt3__19basic_iosIcNS_11char_traitsIcEEE5widenB7v170000Ec.exit.i: ; preds = %invoke.cont.i.i244
  call void @_ZNSt3__16localeD1Ev(ptr noundef nonnull align 8 dereferenceable(8) %ref.tmp.i.i) #23
  call void @llvm.lifetime.end.p0(i64 8, ptr nonnull %ref.tmp.i.i) #23
  %call1.i248 = invoke noundef nonnull align 8 dereferenceable(8) ptr @_ZNSt3__113basic_ostreamIcNS_11char_traitsIcEEE3putEc(ptr noundef nonnull align 8 dereferenceable(8) %call1.i96, i8 noundef signext %call.i6.i.i)
          to label %call1.i.noexc unwind label %lpad2

call1.i.noexc:                                    ; preds = %_ZNKSt3__19basic_iosIcNS_11char_traitsIcEEE5widenB7v170000Ec.exit.i
  %call2.i249 = invoke noundef nonnull align 8 dereferenceable(8) ptr @_ZNSt3__113basic_ostreamIcNS_11char_traitsIcEEE5flushEv(ptr noundef nonnull align 8 dereferenceable(8) %call1.i96)
          to label %invoke.cont17 unwind label %lpad2

invoke.cont17:                                    ; preds = %call1.i.noexc
  %call1.i102 = invoke noundef nonnull align 8 dereferenceable(8) ptr @_ZNSt3__124__put_character_sequenceB7v170000IcNS_11char_traitsIcEEEERNS_13basic_ostreamIT_T0_EES7_PKS4_m(ptr noundef nonnull align 8 dereferenceable(8) %ofs, ptr noundef nonnull @.str.7, i64 noundef 20)
          to label %invoke.cont19 unwind label %lpad2

invoke.cont19:                                    ; preds = %invoke.cont17
  %vtable.i251 = load ptr, ptr %call1.i102, align 8, !tbaa !21
  %vbase.offset.ptr.i252 = getelementptr i8, ptr %vtable.i251, i64 -24
  %vbase.offset.i253 = load i64, ptr %vbase.offset.ptr.i252, align 8
  %add.ptr.i254 = getelementptr inbounds i8, ptr %call1.i102, i64 %vbase.offset.i253
  call void @llvm.lifetime.start.p0(i64 8, ptr nonnull %ref.tmp.i.i250) #23
  invoke void @_ZNKSt3__18ios_base6getlocEv(ptr nonnull sret(%"class.std::__1::locale") align 8 %ref.tmp.i.i250, ptr noundef nonnull align 8 dereferenceable(136) %add.ptr.i254)
          to label %.noexc262 unwind label %lpad2

.noexc262:                                        ; preds = %invoke.cont19
  %call.i5.i.i255 = invoke noundef ptr @_ZNKSt3__16locale9use_facetERNS0_2idE(ptr noundef nonnull align 8 dereferenceable(8) %ref.tmp.i.i250, ptr noundef nonnull align 8 dereferenceable(12) @_ZNSt3__15ctypeIcE2idE)
          to label %invoke.cont.i.i259 unwind label %lpad.i.i260

invoke.cont.i.i259:                               ; preds = %.noexc262
  %vtable.i.i.i256 = load ptr, ptr %call.i5.i.i255, align 8, !tbaa !21
  %vfn.i.i.i257 = getelementptr inbounds ptr, ptr %vtable.i.i.i256, i64 7
  %18 = load ptr, ptr %vfn.i.i.i257, align 8
  %call.i6.i.i258 = invoke noundef signext i8 %18(ptr noundef nonnull align 8 dereferenceable(25) %call.i5.i.i255, i8 noundef signext 10)
          to label %_ZNKSt3__19basic_iosIcNS_11char_traitsIcEEE5widenB7v170000Ec.exit.i261 unwind label %lpad.i.i260

lpad.i.i260:                                      ; preds = %invoke.cont.i.i259, %.noexc262
  %19 = landingpad { ptr, i32 }
          cleanup
  call void @_ZNSt3__16localeD1Ev(ptr noundef nonnull align 8 dereferenceable(8) %ref.tmp.i.i250) #23
  call void @llvm.lifetime.end.p0(i64 8, ptr nonnull %ref.tmp.i.i250) #23
  br label %lpad2.body

_ZNKSt3__19basic_iosIcNS_11char_traitsIcEEE5widenB7v170000Ec.exit.i261: ; preds = %invoke.cont.i.i259
  call void @_ZNSt3__16localeD1Ev(ptr noundef nonnull align 8 dereferenceable(8) %ref.tmp.i.i250) #23
  call void @llvm.lifetime.end.p0(i64 8, ptr nonnull %ref.tmp.i.i250) #23
  %call1.i266 = invoke noundef nonnull align 8 dereferenceable(8) ptr @_ZNSt3__113basic_ostreamIcNS_11char_traitsIcEEE3putEc(ptr noundef nonnull align 8 dereferenceable(8) %call1.i102, i8 noundef signext %call.i6.i.i258)
          to label %call1.i.noexc265 unwind label %lpad2

call1.i.noexc265:                                 ; preds = %_ZNKSt3__19basic_iosIcNS_11char_traitsIcEEE5widenB7v170000Ec.exit.i261
  %call2.i267 = invoke noundef nonnull align 8 dereferenceable(8) ptr @_ZNSt3__113basic_ostreamIcNS_11char_traitsIcEEE5flushEv(ptr noundef nonnull align 8 dereferenceable(8) %call1.i102)
          to label %invoke.cont21 unwind label %lpad2

invoke.cont21:                                    ; preds = %call1.i.noexc265
  %call1.i108 = invoke noundef nonnull align 8 dereferenceable(8) ptr @_ZNSt3__124__put_character_sequenceB7v170000IcNS_11char_traitsIcEEEERNS_13basic_ostreamIT_T0_EES7_PKS4_m(ptr noundef nonnull align 8 dereferenceable(8) %ofs, ptr noundef nonnull @.str.6, i64 noundef 1)
          to label %invoke.cont23 unwind label %lpad2

invoke.cont23:                                    ; preds = %invoke.cont21
  %vtable.i270 = load ptr, ptr %call1.i108, align 8, !tbaa !21
  %vbase.offset.ptr.i271 = getelementptr i8, ptr %vtable.i270, i64 -24
  %vbase.offset.i272 = load i64, ptr %vbase.offset.ptr.i271, align 8
  %add.ptr.i273 = getelementptr inbounds i8, ptr %call1.i108, i64 %vbase.offset.i272
  call void @llvm.lifetime.start.p0(i64 8, ptr nonnull %ref.tmp.i.i269) #23
  invoke void @_ZNKSt3__18ios_base6getlocEv(ptr nonnull sret(%"class.std::__1::locale") align 8 %ref.tmp.i.i269, ptr noundef nonnull align 8 dereferenceable(136) %add.ptr.i273)
          to label %.noexc281 unwind label %lpad2

.noexc281:                                        ; preds = %invoke.cont23
  %call.i5.i.i274 = invoke noundef ptr @_ZNKSt3__16locale9use_facetERNS0_2idE(ptr noundef nonnull align 8 dereferenceable(8) %ref.tmp.i.i269, ptr noundef nonnull align 8 dereferenceable(12) @_ZNSt3__15ctypeIcE2idE)
          to label %invoke.cont.i.i278 unwind label %lpad.i.i279

invoke.cont.i.i278:                               ; preds = %.noexc281
  %vtable.i.i.i275 = load ptr, ptr %call.i5.i.i274, align 8, !tbaa !21
  %vfn.i.i.i276 = getelementptr inbounds ptr, ptr %vtable.i.i.i275, i64 7
  %20 = load ptr, ptr %vfn.i.i.i276, align 8
  %call.i6.i.i277 = invoke noundef signext i8 %20(ptr noundef nonnull align 8 dereferenceable(25) %call.i5.i.i274, i8 noundef signext 10)
          to label %_ZNKSt3__19basic_iosIcNS_11char_traitsIcEEE5widenB7v170000Ec.exit.i280 unwind label %lpad.i.i279

lpad.i.i279:                                      ; preds = %invoke.cont.i.i278, %.noexc281
  %21 = landingpad { ptr, i32 }
          cleanup
  call void @_ZNSt3__16localeD1Ev(ptr noundef nonnull align 8 dereferenceable(8) %ref.tmp.i.i269) #23
  call void @llvm.lifetime.end.p0(i64 8, ptr nonnull %ref.tmp.i.i269) #23
  br label %lpad2.body

_ZNKSt3__19basic_iosIcNS_11char_traitsIcEEE5widenB7v170000Ec.exit.i280: ; preds = %invoke.cont.i.i278
  call void @_ZNSt3__16localeD1Ev(ptr noundef nonnull align 8 dereferenceable(8) %ref.tmp.i.i269) #23
  call void @llvm.lifetime.end.p0(i64 8, ptr nonnull %ref.tmp.i.i269) #23
  %call1.i285 = invoke noundef nonnull align 8 dereferenceable(8) ptr @_ZNSt3__113basic_ostreamIcNS_11char_traitsIcEEE3putEc(ptr noundef nonnull align 8 dereferenceable(8) %call1.i108, i8 noundef signext %call.i6.i.i277)
          to label %call1.i.noexc284 unwind label %lpad2

call1.i.noexc284:                                 ; preds = %_ZNKSt3__19basic_iosIcNS_11char_traitsIcEEE5widenB7v170000Ec.exit.i280
  %call2.i286 = invoke noundef nonnull align 8 dereferenceable(8) ptr @_ZNSt3__113basic_ostreamIcNS_11char_traitsIcEEE5flushEv(ptr noundef nonnull align 8 dereferenceable(8) %call1.i108)
          to label %invoke.cont25 unwind label %lpad2

invoke.cont25:                                    ; preds = %call1.i.noexc284
  %call1.i114 = invoke noundef nonnull align 8 dereferenceable(8) ptr @_ZNSt3__124__put_character_sequenceB7v170000IcNS_11char_traitsIcEEEERNS_13basic_ostreamIT_T0_EES7_PKS4_m(ptr noundef nonnull align 8 dereferenceable(8) %ofs, ptr noundef nonnull @.str.8, i64 noundef 6)
          to label %invoke.cont27 unwind label %lpad2

invoke.cont27:                                    ; preds = %invoke.cont25
  %vtable.i289 = load ptr, ptr %call1.i114, align 8, !tbaa !21
  %vbase.offset.ptr.i290 = getelementptr i8, ptr %vtable.i289, i64 -24
  %vbase.offset.i291 = load i64, ptr %vbase.offset.ptr.i290, align 8
  %add.ptr.i292 = getelementptr inbounds i8, ptr %call1.i114, i64 %vbase.offset.i291
  call void @llvm.lifetime.start.p0(i64 8, ptr nonnull %ref.tmp.i.i288) #23
  invoke void @_ZNKSt3__18ios_base6getlocEv(ptr nonnull sret(%"class.std::__1::locale") align 8 %ref.tmp.i.i288, ptr noundef nonnull align 8 dereferenceable(136) %add.ptr.i292)
          to label %.noexc300 unwind label %lpad2

.noexc300:                                        ; preds = %invoke.cont27
  %call.i5.i.i293 = invoke noundef ptr @_ZNKSt3__16locale9use_facetERNS0_2idE(ptr noundef nonnull align 8 dereferenceable(8) %ref.tmp.i.i288, ptr noundef nonnull align 8 dereferenceable(12) @_ZNSt3__15ctypeIcE2idE)
          to label %invoke.cont.i.i297 unwind label %lpad.i.i298

invoke.cont.i.i297:                               ; preds = %.noexc300
  %vtable.i.i.i294 = load ptr, ptr %call.i5.i.i293, align 8, !tbaa !21
  %vfn.i.i.i295 = getelementptr inbounds ptr, ptr %vtable.i.i.i294, i64 7
  %22 = load ptr, ptr %vfn.i.i.i295, align 8
  %call.i6.i.i296 = invoke noundef signext i8 %22(ptr noundef nonnull align 8 dereferenceable(25) %call.i5.i.i293, i8 noundef signext 10)
          to label %_ZNKSt3__19basic_iosIcNS_11char_traitsIcEEE5widenB7v170000Ec.exit.i299 unwind label %lpad.i.i298

lpad.i.i298:                                      ; preds = %invoke.cont.i.i297, %.noexc300
  %23 = landingpad { ptr, i32 }
          cleanup
  call void @_ZNSt3__16localeD1Ev(ptr noundef nonnull align 8 dereferenceable(8) %ref.tmp.i.i288) #23
  call void @llvm.lifetime.end.p0(i64 8, ptr nonnull %ref.tmp.i.i288) #23
  br label %lpad2.body

_ZNKSt3__19basic_iosIcNS_11char_traitsIcEEE5widenB7v170000Ec.exit.i299: ; preds = %invoke.cont.i.i297
  call void @_ZNSt3__16localeD1Ev(ptr noundef nonnull align 8 dereferenceable(8) %ref.tmp.i.i288) #23
  call void @llvm.lifetime.end.p0(i64 8, ptr nonnull %ref.tmp.i.i288) #23
  %call1.i304 = invoke noundef nonnull align 8 dereferenceable(8) ptr @_ZNSt3__113basic_ostreamIcNS_11char_traitsIcEEE3putEc(ptr noundef nonnull align 8 dereferenceable(8) %call1.i114, i8 noundef signext %call.i6.i.i296)
          to label %call1.i.noexc303 unwind label %lpad2

call1.i.noexc303:                                 ; preds = %_ZNKSt3__19basic_iosIcNS_11char_traitsIcEEE5widenB7v170000Ec.exit.i299
  %call2.i305 = invoke noundef nonnull align 8 dereferenceable(8) ptr @_ZNSt3__113basic_ostreamIcNS_11char_traitsIcEEE5flushEv(ptr noundef nonnull align 8 dereferenceable(8) %call1.i114)
          to label %invoke.cont29 unwind label %lpad2

invoke.cont29:                                    ; preds = %call1.i.noexc303
  %call1.i120 = invoke noundef nonnull align 8 dereferenceable(8) ptr @_ZNSt3__124__put_character_sequenceB7v170000IcNS_11char_traitsIcEEEERNS_13basic_ostreamIT_T0_EES7_PKS4_m(ptr noundef nonnull align 8 dereferenceable(8) %ofs, ptr noundef nonnull @.str.9, i64 noundef 18)
          to label %invoke.cont31 unwind label %lpad2

invoke.cont31:                                    ; preds = %invoke.cont29
  %vtable.i308 = load ptr, ptr %call1.i120, align 8, !tbaa !21
  %vbase.offset.ptr.i309 = getelementptr i8, ptr %vtable.i308, i64 -24
  %vbase.offset.i310 = load i64, ptr %vbase.offset.ptr.i309, align 8
  %add.ptr.i311 = getelementptr inbounds i8, ptr %call1.i120, i64 %vbase.offset.i310
  call void @llvm.lifetime.start.p0(i64 8, ptr nonnull %ref.tmp.i.i307) #23
  invoke void @_ZNKSt3__18ios_base6getlocEv(ptr nonnull sret(%"class.std::__1::locale") align 8 %ref.tmp.i.i307, ptr noundef nonnull align 8 dereferenceable(136) %add.ptr.i311)
          to label %.noexc319 unwind label %lpad2

.noexc319:                                        ; preds = %invoke.cont31
  %call.i5.i.i312 = invoke noundef ptr @_ZNKSt3__16locale9use_facetERNS0_2idE(ptr noundef nonnull align 8 dereferenceable(8) %ref.tmp.i.i307, ptr noundef nonnull align 8 dereferenceable(12) @_ZNSt3__15ctypeIcE2idE)
          to label %invoke.cont.i.i316 unwind label %lpad.i.i317

invoke.cont.i.i316:                               ; preds = %.noexc319
  %vtable.i.i.i313 = load ptr, ptr %call.i5.i.i312, align 8, !tbaa !21
  %vfn.i.i.i314 = getelementptr inbounds ptr, ptr %vtable.i.i.i313, i64 7
  %24 = load ptr, ptr %vfn.i.i.i314, align 8
  %call.i6.i.i315 = invoke noundef signext i8 %24(ptr noundef nonnull align 8 dereferenceable(25) %call.i5.i.i312, i8 noundef signext 10)
          to label %_ZNKSt3__19basic_iosIcNS_11char_traitsIcEEE5widenB7v170000Ec.exit.i318 unwind label %lpad.i.i317

lpad.i.i317:                                      ; preds = %invoke.cont.i.i316, %.noexc319
  %25 = landingpad { ptr, i32 }
          cleanup
  call void @_ZNSt3__16localeD1Ev(ptr noundef nonnull align 8 dereferenceable(8) %ref.tmp.i.i307) #23
  call void @llvm.lifetime.end.p0(i64 8, ptr nonnull %ref.tmp.i.i307) #23
  br label %lpad2.body

_ZNKSt3__19basic_iosIcNS_11char_traitsIcEEE5widenB7v170000Ec.exit.i318: ; preds = %invoke.cont.i.i316
  call void @_ZNSt3__16localeD1Ev(ptr noundef nonnull align 8 dereferenceable(8) %ref.tmp.i.i307) #23
  call void @llvm.lifetime.end.p0(i64 8, ptr nonnull %ref.tmp.i.i307) #23
  %call1.i323 = invoke noundef nonnull align 8 dereferenceable(8) ptr @_ZNSt3__113basic_ostreamIcNS_11char_traitsIcEEE3putEc(ptr noundef nonnull align 8 dereferenceable(8) %call1.i120, i8 noundef signext %call.i6.i.i315)
          to label %call1.i.noexc322 unwind label %lpad2

call1.i.noexc322:                                 ; preds = %_ZNKSt3__19basic_iosIcNS_11char_traitsIcEEE5widenB7v170000Ec.exit.i318
  %call2.i324 = invoke noundef nonnull align 8 dereferenceable(8) ptr @_ZNSt3__113basic_ostreamIcNS_11char_traitsIcEEE5flushEv(ptr noundef nonnull align 8 dereferenceable(8) %call1.i120)
          to label %invoke.cont33 unwind label %lpad2

invoke.cont33:                                    ; preds = %call1.i.noexc322
  %call1.i126 = invoke noundef nonnull align 8 dereferenceable(8) ptr @_ZNSt3__124__put_character_sequenceB7v170000IcNS_11char_traitsIcEEEERNS_13basic_ostreamIT_T0_EES7_PKS4_m(ptr noundef nonnull align 8 dereferenceable(8) %ofs, ptr noundef nonnull @.str.10, i64 noundef 8)
          to label %invoke.cont35 unwind label %lpad2

invoke.cont35:                                    ; preds = %invoke.cont33
  %vtable.i327 = load ptr, ptr %call1.i126, align 8, !tbaa !21
  %vbase.offset.ptr.i328 = getelementptr i8, ptr %vtable.i327, i64 -24
  %vbase.offset.i329 = load i64, ptr %vbase.offset.ptr.i328, align 8
  %add.ptr.i330 = getelementptr inbounds i8, ptr %call1.i126, i64 %vbase.offset.i329
  call void @llvm.lifetime.start.p0(i64 8, ptr nonnull %ref.tmp.i.i326) #23
  invoke void @_ZNKSt3__18ios_base6getlocEv(ptr nonnull sret(%"class.std::__1::locale") align 8 %ref.tmp.i.i326, ptr noundef nonnull align 8 dereferenceable(136) %add.ptr.i330)
          to label %.noexc338 unwind label %lpad2

.noexc338:                                        ; preds = %invoke.cont35
  %call.i5.i.i331 = invoke noundef ptr @_ZNKSt3__16locale9use_facetERNS0_2idE(ptr noundef nonnull align 8 dereferenceable(8) %ref.tmp.i.i326, ptr noundef nonnull align 8 dereferenceable(12) @_ZNSt3__15ctypeIcE2idE)
          to label %invoke.cont.i.i335 unwind label %lpad.i.i336

invoke.cont.i.i335:                               ; preds = %.noexc338
  %vtable.i.i.i332 = load ptr, ptr %call.i5.i.i331, align 8, !tbaa !21
  %vfn.i.i.i333 = getelementptr inbounds ptr, ptr %vtable.i.i.i332, i64 7
  %26 = load ptr, ptr %vfn.i.i.i333, align 8
  %call.i6.i.i334 = invoke noundef signext i8 %26(ptr noundef nonnull align 8 dereferenceable(25) %call.i5.i.i331, i8 noundef signext 10)
          to label %_ZNKSt3__19basic_iosIcNS_11char_traitsIcEEE5widenB7v170000Ec.exit.i337 unwind label %lpad.i.i336

lpad.i.i336:                                      ; preds = %invoke.cont.i.i335, %.noexc338
  %27 = landingpad { ptr, i32 }
          cleanup
  call void @_ZNSt3__16localeD1Ev(ptr noundef nonnull align 8 dereferenceable(8) %ref.tmp.i.i326) #23
  call void @llvm.lifetime.end.p0(i64 8, ptr nonnull %ref.tmp.i.i326) #23
  br label %lpad2.body

_ZNKSt3__19basic_iosIcNS_11char_traitsIcEEE5widenB7v170000Ec.exit.i337: ; preds = %invoke.cont.i.i335
  call void @_ZNSt3__16localeD1Ev(ptr noundef nonnull align 8 dereferenceable(8) %ref.tmp.i.i326) #23
  call void @llvm.lifetime.end.p0(i64 8, ptr nonnull %ref.tmp.i.i326) #23
  %call1.i342 = invoke noundef nonnull align 8 dereferenceable(8) ptr @_ZNSt3__113basic_ostreamIcNS_11char_traitsIcEEE3putEc(ptr noundef nonnull align 8 dereferenceable(8) %call1.i126, i8 noundef signext %call.i6.i.i334)
          to label %call1.i.noexc341 unwind label %lpad2

call1.i.noexc341:                                 ; preds = %_ZNKSt3__19basic_iosIcNS_11char_traitsIcEEE5widenB7v170000Ec.exit.i337
  %call2.i343 = invoke noundef nonnull align 8 dereferenceable(8) ptr @_ZNSt3__113basic_ostreamIcNS_11char_traitsIcEEE5flushEv(ptr noundef nonnull align 8 dereferenceable(8) %call1.i126)
          to label %invoke.cont37 unwind label %lpad2

invoke.cont37:                                    ; preds = %call1.i.noexc341
  %call1.i132 = invoke noundef nonnull align 8 dereferenceable(8) ptr @_ZNSt3__124__put_character_sequenceB7v170000IcNS_11char_traitsIcEEEERNS_13basic_ostreamIT_T0_EES7_PKS4_m(ptr noundef nonnull align 8 dereferenceable(8) %ofs, ptr noundef nonnull @.str.11, i64 noundef 7)
          to label %invoke.cont39 unwind label %lpad2

invoke.cont39:                                    ; preds = %invoke.cont37
  %bf.load.i.i.i.i134 = load i8, ptr %basename, align 8
  %bf.clear.i.i.i.i135 = and i8 %bf.load.i.i.i.i134, 1
  %tobool.i.not.i.i.i136 = icmp eq i8 %bf.clear.i.i.i.i135, 0
  %28 = load ptr, ptr %__data_.i.i.i.i, align 8
  %cond.i.i.i139 = select i1 %tobool.i.not.i.i.i136, ptr %__data_.i4.i.i.i, ptr %28
  %29 = load i64, ptr %__size_.i.i.i, align 8
  %bf.lshr.i.i.i141 = lshr i8 %bf.load.i.i.i.i134, 1
  %conv.i.i.i142 = zext i8 %bf.lshr.i.i.i141 to i64
  %cond.i.i143 = select i1 %tobool.i.not.i.i.i136, i64 %conv.i.i.i142, i64 %29
  %call2.i144 = invoke noundef nonnull align 8 dereferenceable(8) ptr @_ZNSt3__124__put_character_sequenceB7v170000IcNS_11char_traitsIcEEEERNS_13basic_ostreamIT_T0_EES7_PKS4_m(ptr noundef nonnull align 8 dereferenceable(8) %call1.i132, ptr noundef %cond.i.i.i139, i64 noundef %cond.i.i143)
          to label %invoke.cont41 unwind label %lpad2

invoke.cont41:                                    ; preds = %invoke.cont39
  %call1.i146 = invoke noundef nonnull align 8 dereferenceable(8) ptr @_ZNSt3__124__put_character_sequenceB7v170000IcNS_11char_traitsIcEEEERNS_13basic_ostreamIT_T0_EES7_PKS4_m(ptr noundef nonnull align 8 dereferenceable(8) %call2.i144, ptr noundef nonnull @.str.12, i64 noundef 4)
          to label %invoke.cont43 unwind label %lpad2

invoke.cont43:                                    ; preds = %invoke.cont41
  %vtable.i346 = load ptr, ptr %call1.i146, align 8, !tbaa !21
  %vbase.offset.ptr.i347 = getelementptr i8, ptr %vtable.i346, i64 -24
  %vbase.offset.i348 = load i64, ptr %vbase.offset.ptr.i347, align 8
  %add.ptr.i349 = getelementptr inbounds i8, ptr %call1.i146, i64 %vbase.offset.i348
  call void @llvm.lifetime.start.p0(i64 8, ptr nonnull %ref.tmp.i.i345) #23
  invoke void @_ZNKSt3__18ios_base6getlocEv(ptr nonnull sret(%"class.std::__1::locale") align 8 %ref.tmp.i.i345, ptr noundef nonnull align 8 dereferenceable(136) %add.ptr.i349)
          to label %.noexc357 unwind label %lpad2

.noexc357:                                        ; preds = %invoke.cont43
  %call.i5.i.i350 = invoke noundef ptr @_ZNKSt3__16locale9use_facetERNS0_2idE(ptr noundef nonnull align 8 dereferenceable(8) %ref.tmp.i.i345, ptr noundef nonnull align 8 dereferenceable(12) @_ZNSt3__15ctypeIcE2idE)
          to label %invoke.cont.i.i354 unwind label %lpad.i.i355

invoke.cont.i.i354:                               ; preds = %.noexc357
  %vtable.i.i.i351 = load ptr, ptr %call.i5.i.i350, align 8, !tbaa !21
  %vfn.i.i.i352 = getelementptr inbounds ptr, ptr %vtable.i.i.i351, i64 7
  %30 = load ptr, ptr %vfn.i.i.i352, align 8
  %call.i6.i.i353 = invoke noundef signext i8 %30(ptr noundef nonnull align 8 dereferenceable(25) %call.i5.i.i350, i8 noundef signext 10)
          to label %_ZNKSt3__19basic_iosIcNS_11char_traitsIcEEE5widenB7v170000Ec.exit.i356 unwind label %lpad.i.i355

lpad.i.i355:                                      ; preds = %invoke.cont.i.i354, %.noexc357
  %31 = landingpad { ptr, i32 }
          cleanup
  call void @_ZNSt3__16localeD1Ev(ptr noundef nonnull align 8 dereferenceable(8) %ref.tmp.i.i345) #23
  call void @llvm.lifetime.end.p0(i64 8, ptr nonnull %ref.tmp.i.i345) #23
  br label %lpad2.body

_ZNKSt3__19basic_iosIcNS_11char_traitsIcEEE5widenB7v170000Ec.exit.i356: ; preds = %invoke.cont.i.i354
  call void @_ZNSt3__16localeD1Ev(ptr noundef nonnull align 8 dereferenceable(8) %ref.tmp.i.i345) #23
  call void @llvm.lifetime.end.p0(i64 8, ptr nonnull %ref.tmp.i.i345) #23
  %call1.i361 = invoke noundef nonnull align 8 dereferenceable(8) ptr @_ZNSt3__113basic_ostreamIcNS_11char_traitsIcEEE3putEc(ptr noundef nonnull align 8 dereferenceable(8) %call1.i146, i8 noundef signext %call.i6.i.i353)
          to label %call1.i.noexc360 unwind label %lpad2

call1.i.noexc360:                                 ; preds = %_ZNKSt3__19basic_iosIcNS_11char_traitsIcEEE5widenB7v170000Ec.exit.i356
  %call2.i362 = invoke noundef nonnull align 8 dereferenceable(8) ptr @_ZNSt3__113basic_ostreamIcNS_11char_traitsIcEEE5flushEv(ptr noundef nonnull align 8 dereferenceable(8) %call1.i146)
          to label %invoke.cont45 unwind label %lpad2

invoke.cont45:                                    ; preds = %call1.i.noexc360
  %call1.i152 = invoke noundef nonnull align 8 dereferenceable(8) ptr @_ZNSt3__124__put_character_sequenceB7v170000IcNS_11char_traitsIcEEEERNS_13basic_ostreamIT_T0_EES7_PKS4_m(ptr noundef nonnull align 8 dereferenceable(8) %ofs, ptr noundef nonnull @.str.13, i64 noundef 8)
          to label %invoke.cont47 unwind label %lpad2

invoke.cont47:                                    ; preds = %invoke.cont45
  %vtable.i365 = load ptr, ptr %call1.i152, align 8, !tbaa !21
  %vbase.offset.ptr.i366 = getelementptr i8, ptr %vtable.i365, i64 -24
  %vbase.offset.i367 = load i64, ptr %vbase.offset.ptr.i366, align 8
  %add.ptr.i368 = getelementptr inbounds i8, ptr %call1.i152, i64 %vbase.offset.i367
  call void @llvm.lifetime.start.p0(i64 8, ptr nonnull %ref.tmp.i.i364) #23
  invoke void @_ZNKSt3__18ios_base6getlocEv(ptr nonnull sret(%"class.std::__1::locale") align 8 %ref.tmp.i.i364, ptr noundef nonnull align 8 dereferenceable(136) %add.ptr.i368)
          to label %.noexc376 unwind label %lpad2

.noexc376:                                        ; preds = %invoke.cont47
  %call.i5.i.i369 = invoke noundef ptr @_ZNKSt3__16locale9use_facetERNS0_2idE(ptr noundef nonnull align 8 dereferenceable(8) %ref.tmp.i.i364, ptr noundef nonnull align 8 dereferenceable(12) @_ZNSt3__15ctypeIcE2idE)
          to label %invoke.cont.i.i373 unwind label %lpad.i.i374

invoke.cont.i.i373:                               ; preds = %.noexc376
  %vtable.i.i.i370 = load ptr, ptr %call.i5.i.i369, align 8, !tbaa !21
  %vfn.i.i.i371 = getelementptr inbounds ptr, ptr %vtable.i.i.i370, i64 7
  %32 = load ptr, ptr %vfn.i.i.i371, align 8
  %call.i6.i.i372 = invoke noundef signext i8 %32(ptr noundef nonnull align 8 dereferenceable(25) %call.i5.i.i369, i8 noundef signext 10)
          to label %_ZNKSt3__19basic_iosIcNS_11char_traitsIcEEE5widenB7v170000Ec.exit.i375 unwind label %lpad.i.i374

lpad.i.i374:                                      ; preds = %invoke.cont.i.i373, %.noexc376
  %33 = landingpad { ptr, i32 }
          cleanup
  call void @_ZNSt3__16localeD1Ev(ptr noundef nonnull align 8 dereferenceable(8) %ref.tmp.i.i364) #23
  call void @llvm.lifetime.end.p0(i64 8, ptr nonnull %ref.tmp.i.i364) #23
  br label %lpad2.body

_ZNKSt3__19basic_iosIcNS_11char_traitsIcEEE5widenB7v170000Ec.exit.i375: ; preds = %invoke.cont.i.i373
  call void @_ZNSt3__16localeD1Ev(ptr noundef nonnull align 8 dereferenceable(8) %ref.tmp.i.i364) #23
  call void @llvm.lifetime.end.p0(i64 8, ptr nonnull %ref.tmp.i.i364) #23
  %call1.i380 = invoke noundef nonnull align 8 dereferenceable(8) ptr @_ZNSt3__113basic_ostreamIcNS_11char_traitsIcEEE3putEc(ptr noundef nonnull align 8 dereferenceable(8) %call1.i152, i8 noundef signext %call.i6.i.i372)
          to label %call1.i.noexc379 unwind label %lpad2

call1.i.noexc379:                                 ; preds = %_ZNKSt3__19basic_iosIcNS_11char_traitsIcEEE5widenB7v170000Ec.exit.i375
  %call2.i381 = invoke noundef nonnull align 8 dereferenceable(8) ptr @_ZNSt3__113basic_ostreamIcNS_11char_traitsIcEEE5flushEv(ptr noundef nonnull align 8 dereferenceable(8) %call1.i152)
          to label %invoke.cont49 unwind label %lpad2

invoke.cont49:                                    ; preds = %call1.i.noexc379
  %call1.i158 = invoke noundef nonnull align 8 dereferenceable(8) ptr @_ZNSt3__124__put_character_sequenceB7v170000IcNS_11char_traitsIcEEEERNS_13basic_ostreamIT_T0_EES7_PKS4_m(ptr noundef nonnull align 8 dereferenceable(8) %ofs, ptr noundef nonnull @.str.14, i64 noundef 23)
          to label %invoke.cont51 unwind label %lpad2

invoke.cont51:                                    ; preds = %invoke.cont49
  %bf.load.i.i.i.i160 = load i8, ptr %basename, align 8
  %bf.clear.i.i.i.i161 = and i8 %bf.load.i.i.i.i160, 1
  %tobool.i.not.i.i.i162 = icmp eq i8 %bf.clear.i.i.i.i161, 0
  %34 = load ptr, ptr %__data_.i.i.i.i, align 8
  %cond.i.i.i165 = select i1 %tobool.i.not.i.i.i162, ptr %__data_.i4.i.i.i, ptr %34
  %35 = load i64, ptr %__size_.i.i.i, align 8
  %bf.lshr.i.i.i167 = lshr i8 %bf.load.i.i.i.i160, 1
  %conv.i.i.i168 = zext i8 %bf.lshr.i.i.i167 to i64
  %cond.i.i169 = select i1 %tobool.i.not.i.i.i162, i64 %conv.i.i.i168, i64 %35
  %call2.i170 = invoke noundef nonnull align 8 dereferenceable(8) ptr @_ZNSt3__124__put_character_sequenceB7v170000IcNS_11char_traitsIcEEEERNS_13basic_ostreamIT_T0_EES7_PKS4_m(ptr noundef nonnull align 8 dereferenceable(8) %call1.i158, ptr noundef %cond.i.i.i165, i64 noundef %cond.i.i169)
          to label %invoke.cont53 unwind label %lpad2

invoke.cont53:                                    ; preds = %invoke.cont51
  %call1.i173 = invoke noundef nonnull align 8 dereferenceable(8) ptr @_ZNSt3__124__put_character_sequenceB7v170000IcNS_11char_traitsIcEEEERNS_13basic_ostreamIT_T0_EES7_PKS4_m(ptr noundef nonnull align 8 dereferenceable(8) %call2.i170, ptr noundef nonnull @.str.15, i64 noundef 3)
          to label %invoke.cont55 unwind label %lpad2

invoke.cont55:                                    ; preds = %invoke.cont53
  %vtable.i384 = load ptr, ptr %call1.i173, align 8, !tbaa !21
  %vbase.offset.ptr.i385 = getelementptr i8, ptr %vtable.i384, i64 -24
  %vbase.offset.i386 = load i64, ptr %vbase.offset.ptr.i385, align 8
  %add.ptr.i387 = getelementptr inbounds i8, ptr %call1.i173, i64 %vbase.offset.i386
  call void @llvm.lifetime.start.p0(i64 8, ptr nonnull %ref.tmp.i.i383) #23
  invoke void @_ZNKSt3__18ios_base6getlocEv(ptr nonnull sret(%"class.std::__1::locale") align 8 %ref.tmp.i.i383, ptr noundef nonnull align 8 dereferenceable(136) %add.ptr.i387)
          to label %.noexc395 unwind label %lpad2

.noexc395:                                        ; preds = %invoke.cont55
  %call.i5.i.i388 = invoke noundef ptr @_ZNKSt3__16locale9use_facetERNS0_2idE(ptr noundef nonnull align 8 dereferenceable(8) %ref.tmp.i.i383, ptr noundef nonnull align 8 dereferenceable(12) @_ZNSt3__15ctypeIcE2idE)
          to label %invoke.cont.i.i392 unwind label %lpad.i.i393

invoke.cont.i.i392:                               ; preds = %.noexc395
  %vtable.i.i.i389 = load ptr, ptr %call.i5.i.i388, align 8, !tbaa !21
  %vfn.i.i.i390 = getelementptr inbounds ptr, ptr %vtable.i.i.i389, i64 7
  %36 = load ptr, ptr %vfn.i.i.i390, align 8
  %call.i6.i.i391 = invoke noundef signext i8 %36(ptr noundef nonnull align 8 dereferenceable(25) %call.i5.i.i388, i8 noundef signext 10)
          to label %_ZNKSt3__19basic_iosIcNS_11char_traitsIcEEE5widenB7v170000Ec.exit.i394 unwind label %lpad.i.i393

lpad.i.i393:                                      ; preds = %invoke.cont.i.i392, %.noexc395
  %37 = landingpad { ptr, i32 }
          cleanup
  call void @_ZNSt3__16localeD1Ev(ptr noundef nonnull align 8 dereferenceable(8) %ref.tmp.i.i383) #23
  call void @llvm.lifetime.end.p0(i64 8, ptr nonnull %ref.tmp.i.i383) #23
  br label %lpad2.body

_ZNKSt3__19basic_iosIcNS_11char_traitsIcEEE5widenB7v170000Ec.exit.i394: ; preds = %invoke.cont.i.i392
  call void @_ZNSt3__16localeD1Ev(ptr noundef nonnull align 8 dereferenceable(8) %ref.tmp.i.i383) #23
  call void @llvm.lifetime.end.p0(i64 8, ptr nonnull %ref.tmp.i.i383) #23
  %call1.i399 = invoke noundef nonnull align 8 dereferenceable(8) ptr @_ZNSt3__113basic_ostreamIcNS_11char_traitsIcEEE3putEc(ptr noundef nonnull align 8 dereferenceable(8) %call1.i173, i8 noundef signext %call.i6.i.i391)
          to label %call1.i.noexc398 unwind label %lpad2

call1.i.noexc398:                                 ; preds = %_ZNKSt3__19basic_iosIcNS_11char_traitsIcEEE5widenB7v170000Ec.exit.i394
  %call2.i400 = invoke noundef nonnull align 8 dereferenceable(8) ptr @_ZNSt3__113basic_ostreamIcNS_11char_traitsIcEEE5flushEv(ptr noundef nonnull align 8 dereferenceable(8) %call1.i173)
          to label %invoke.cont57 unwind label %lpad2

invoke.cont57:                                    ; preds = %call1.i.noexc398
  %call1.i179 = invoke noundef nonnull align 8 dereferenceable(8) ptr @_ZNSt3__124__put_character_sequenceB7v170000IcNS_11char_traitsIcEEEERNS_13basic_ostreamIT_T0_EES7_PKS4_m(ptr noundef nonnull align 8 dereferenceable(8) %ofs, ptr noundef nonnull @.str.16, i64 noundef 23)
          to label %invoke.cont59 unwind label %lpad2

invoke.cont59:                                    ; preds = %invoke.cont57
  %bf.load.i.i.i.i181 = load i8, ptr %basename, align 8
  %bf.clear.i.i.i.i182 = and i8 %bf.load.i.i.i.i181, 1
  %tobool.i.not.i.i.i183 = icmp eq i8 %bf.clear.i.i.i.i182, 0
  %38 = load ptr, ptr %__data_.i.i.i.i, align 8
  %cond.i.i.i186 = select i1 %tobool.i.not.i.i.i183, ptr %__data_.i4.i.i.i, ptr %38
  %39 = load i64, ptr %__size_.i.i.i, align 8
  %bf.lshr.i.i.i188 = lshr i8 %bf.load.i.i.i.i181, 1
  %conv.i.i.i189 = zext i8 %bf.lshr.i.i.i188 to i64
  %cond.i.i190 = select i1 %tobool.i.not.i.i.i183, i64 %conv.i.i.i189, i64 %39
  %call2.i191 = invoke noundef nonnull align 8 dereferenceable(8) ptr @_ZNSt3__124__put_character_sequenceB7v170000IcNS_11char_traitsIcEEEERNS_13basic_ostreamIT_T0_EES7_PKS4_m(ptr noundef nonnull align 8 dereferenceable(8) %call1.i179, ptr noundef %cond.i.i.i186, i64 noundef %cond.i.i190)
          to label %invoke.cont61 unwind label %lpad2

invoke.cont61:                                    ; preds = %invoke.cont59
  %call1.i194 = invoke noundef nonnull align 8 dereferenceable(8) ptr @_ZNSt3__124__put_character_sequenceB7v170000IcNS_11char_traitsIcEEEERNS_13basic_ostreamIT_T0_EES7_PKS4_m(ptr noundef nonnull align 8 dereferenceable(8) %call2.i191, ptr noundef nonnull @.str.17, i64 noundef 3)
          to label %invoke.cont63 unwind label %lpad2

invoke.cont63:                                    ; preds = %invoke.cont61
  %vtable.i403 = load ptr, ptr %call1.i194, align 8, !tbaa !21
  %vbase.offset.ptr.i404 = getelementptr i8, ptr %vtable.i403, i64 -24
  %vbase.offset.i405 = load i64, ptr %vbase.offset.ptr.i404, align 8
  %add.ptr.i406 = getelementptr inbounds i8, ptr %call1.i194, i64 %vbase.offset.i405
  call void @llvm.lifetime.start.p0(i64 8, ptr nonnull %ref.tmp.i.i402) #23
  invoke void @_ZNKSt3__18ios_base6getlocEv(ptr nonnull sret(%"class.std::__1::locale") align 8 %ref.tmp.i.i402, ptr noundef nonnull align 8 dereferenceable(136) %add.ptr.i406)
          to label %.noexc414 unwind label %lpad2

.noexc414:                                        ; preds = %invoke.cont63
  %call.i5.i.i407 = invoke noundef ptr @_ZNKSt3__16locale9use_facetERNS0_2idE(ptr noundef nonnull align 8 dereferenceable(8) %ref.tmp.i.i402, ptr noundef nonnull align 8 dereferenceable(12) @_ZNSt3__15ctypeIcE2idE)
          to label %invoke.cont.i.i411 unwind label %lpad.i.i412

invoke.cont.i.i411:                               ; preds = %.noexc414
  %vtable.i.i.i408 = load ptr, ptr %call.i5.i.i407, align 8, !tbaa !21
  %vfn.i.i.i409 = getelementptr inbounds ptr, ptr %vtable.i.i.i408, i64 7
  %40 = load ptr, ptr %vfn.i.i.i409, align 8
  %call.i6.i.i410 = invoke noundef signext i8 %40(ptr noundef nonnull align 8 dereferenceable(25) %call.i5.i.i407, i8 noundef signext 10)
          to label %_ZNKSt3__19basic_iosIcNS_11char_traitsIcEEE5widenB7v170000Ec.exit.i413 unwind label %lpad.i.i412

lpad.i.i412:                                      ; preds = %invoke.cont.i.i411, %.noexc414
  %41 = landingpad { ptr, i32 }
          cleanup
  call void @_ZNSt3__16localeD1Ev(ptr noundef nonnull align 8 dereferenceable(8) %ref.tmp.i.i402) #23
  call void @llvm.lifetime.end.p0(i64 8, ptr nonnull %ref.tmp.i.i402) #23
  br label %lpad2.body

_ZNKSt3__19basic_iosIcNS_11char_traitsIcEEE5widenB7v170000Ec.exit.i413: ; preds = %invoke.cont.i.i411
  call void @_ZNSt3__16localeD1Ev(ptr noundef nonnull align 8 dereferenceable(8) %ref.tmp.i.i402) #23
  call void @llvm.lifetime.end.p0(i64 8, ptr nonnull %ref.tmp.i.i402) #23
  %call1.i418 = invoke noundef nonnull align 8 dereferenceable(8) ptr @_ZNSt3__113basic_ostreamIcNS_11char_traitsIcEEE3putEc(ptr noundef nonnull align 8 dereferenceable(8) %call1.i194, i8 noundef signext %call.i6.i.i410)
          to label %call1.i.noexc417 unwind label %lpad2

call1.i.noexc417:                                 ; preds = %_ZNKSt3__19basic_iosIcNS_11char_traitsIcEEE5widenB7v170000Ec.exit.i413
  %call2.i419 = invoke noundef nonnull align 8 dereferenceable(8) ptr @_ZNSt3__113basic_ostreamIcNS_11char_traitsIcEEE5flushEv(ptr noundef nonnull align 8 dereferenceable(8) %call1.i194)
          to label %invoke.cont65 unwind label %lpad2

invoke.cont65:                                    ; preds = %call1.i.noexc417
  %call1.i200 = invoke noundef nonnull align 8 dereferenceable(8) ptr @_ZNSt3__124__put_character_sequenceB7v170000IcNS_11char_traitsIcEEEERNS_13basic_ostreamIT_T0_EES7_PKS4_m(ptr noundef nonnull align 8 dereferenceable(8) %ofs, ptr noundef nonnull @.str.18, i64 noundef 23)
          to label %invoke.cont67 unwind label %lpad2

invoke.cont67:                                    ; preds = %invoke.cont65
  %bf.load.i.i.i.i202 = load i8, ptr %basename, align 8
  %bf.clear.i.i.i.i203 = and i8 %bf.load.i.i.i.i202, 1
  %tobool.i.not.i.i.i204 = icmp eq i8 %bf.clear.i.i.i.i203, 0
  %42 = load ptr, ptr %__data_.i.i.i.i, align 8
  %cond.i.i.i207 = select i1 %tobool.i.not.i.i.i204, ptr %__data_.i4.i.i.i, ptr %42
  %43 = load i64, ptr %__size_.i.i.i, align 8
  %bf.lshr.i.i.i209 = lshr i8 %bf.load.i.i.i.i202, 1
  %conv.i.i.i210 = zext i8 %bf.lshr.i.i.i209 to i64
  %cond.i.i211 = select i1 %tobool.i.not.i.i.i204, i64 %conv.i.i.i210, i64 %43
  %call2.i212 = invoke noundef nonnull align 8 dereferenceable(8) ptr @_ZNSt3__124__put_character_sequenceB7v170000IcNS_11char_traitsIcEEEERNS_13basic_ostreamIT_T0_EES7_PKS4_m(ptr noundef nonnull align 8 dereferenceable(8) %call1.i200, ptr noundef %cond.i.i.i207, i64 noundef %cond.i.i211)
          to label %invoke.cont69 unwind label %lpad2

invoke.cont69:                                    ; preds = %invoke.cont67
  %call1.i215 = invoke noundef nonnull align 8 dereferenceable(8) ptr @_ZNSt3__124__put_character_sequenceB7v170000IcNS_11char_traitsIcEEEERNS_13basic_ostreamIT_T0_EES7_PKS4_m(ptr noundef nonnull align 8 dereferenceable(8) %call2.i212, ptr noundef nonnull @.str.19, i64 noundef 3)
          to label %invoke.cont71 unwind label %lpad2

invoke.cont71:                                    ; preds = %invoke.cont69
  %vtable.i422 = load ptr, ptr %call1.i215, align 8, !tbaa !21
  %vbase.offset.ptr.i423 = getelementptr i8, ptr %vtable.i422, i64 -24
  %vbase.offset.i424 = load i64, ptr %vbase.offset.ptr.i423, align 8
  %add.ptr.i425 = getelementptr inbounds i8, ptr %call1.i215, i64 %vbase.offset.i424
  call void @llvm.lifetime.start.p0(i64 8, ptr nonnull %ref.tmp.i.i421) #23
  invoke void @_ZNKSt3__18ios_base6getlocEv(ptr nonnull sret(%"class.std::__1::locale") align 8 %ref.tmp.i.i421, ptr noundef nonnull align 8 dereferenceable(136) %add.ptr.i425)
          to label %.noexc433 unwind label %lpad2

.noexc433:                                        ; preds = %invoke.cont71
  %call.i5.i.i426 = invoke noundef ptr @_ZNKSt3__16locale9use_facetERNS0_2idE(ptr noundef nonnull align 8 dereferenceable(8) %ref.tmp.i.i421, ptr noundef nonnull align 8 dereferenceable(12) @_ZNSt3__15ctypeIcE2idE)
          to label %invoke.cont.i.i430 unwind label %lpad.i.i431

invoke.cont.i.i430:                               ; preds = %.noexc433
  %vtable.i.i.i427 = load ptr, ptr %call.i5.i.i426, align 8, !tbaa !21
  %vfn.i.i.i428 = getelementptr inbounds ptr, ptr %vtable.i.i.i427, i64 7
  %44 = load ptr, ptr %vfn.i.i.i428, align 8
  %call.i6.i.i429 = invoke noundef signext i8 %44(ptr noundef nonnull align 8 dereferenceable(25) %call.i5.i.i426, i8 noundef signext 10)
          to label %_ZNKSt3__19basic_iosIcNS_11char_traitsIcEEE5widenB7v170000Ec.exit.i432 unwind label %lpad.i.i431

lpad.i.i431:                                      ; preds = %invoke.cont.i.i430, %.noexc433
  %45 = landingpad { ptr, i32 }
          cleanup
  call void @_ZNSt3__16localeD1Ev(ptr noundef nonnull align 8 dereferenceable(8) %ref.tmp.i.i421) #23
  call void @llvm.lifetime.end.p0(i64 8, ptr nonnull %ref.tmp.i.i421) #23
  br label %lpad2.body

_ZNKSt3__19basic_iosIcNS_11char_traitsIcEEE5widenB7v170000Ec.exit.i432: ; preds = %invoke.cont.i.i430
  call void @_ZNSt3__16localeD1Ev(ptr noundef nonnull align 8 dereferenceable(8) %ref.tmp.i.i421) #23
  call void @llvm.lifetime.end.p0(i64 8, ptr nonnull %ref.tmp.i.i421) #23
  %call1.i437 = invoke noundef nonnull align 8 dereferenceable(8) ptr @_ZNSt3__113basic_ostreamIcNS_11char_traitsIcEEE3putEc(ptr noundef nonnull align 8 dereferenceable(8) %call1.i215, i8 noundef signext %call.i6.i.i429)
          to label %call1.i.noexc436 unwind label %lpad2

call1.i.noexc436:                                 ; preds = %_ZNKSt3__19basic_iosIcNS_11char_traitsIcEEE5widenB7v170000Ec.exit.i432
  %call2.i438 = invoke noundef nonnull align 8 dereferenceable(8) ptr @_ZNSt3__113basic_ostreamIcNS_11char_traitsIcEEE5flushEv(ptr noundef nonnull align 8 dereferenceable(8) %call1.i215)
          to label %invoke.cont73 unwind label %lpad2

invoke.cont73:                                    ; preds = %call1.i.noexc436
  %46 = load ptr, ptr %__file_.i, align 8, !tbaa !28
  %tobool.not.i.i = icmp eq ptr %46, null
  br i1 %tobool.not.i.i, label %if.then.i227, label %if.then.i.i221

if.then.i.i221:                                   ; preds = %invoke.cont73
  %vtable.i.i = load ptr, ptr %__sb_.i, align 8, !tbaa !21
  %vfn.i.i = getelementptr inbounds ptr, ptr %vtable.i.i, i64 6
  %47 = load ptr, ptr %vfn.i.i, align 8
  %call.i.i = invoke noundef i32 %47(ptr noundef nonnull align 8 dereferenceable(163) %__sb_.i)
          to label %invoke.cont.i.i unwind label %if.then.i.i.i.i

invoke.cont.i.i:                                  ; preds = %if.then.i.i221
  %call7.i.i = call i32 @fclose(ptr noundef nonnull %46)
  store ptr null, ptr %__file_.i, align 8, !tbaa !28
  %vtable12.i.i = load ptr, ptr %__sb_.i, align 8, !tbaa !21
  %vfn13.i.i = getelementptr inbounds ptr, ptr %vtable12.i.i, i64 3
  %48 = load ptr, ptr %vfn13.i.i, align 8
  %call15.i.i228 = invoke noundef ptr %48(ptr noundef nonnull align 8 dereferenceable(163) %__sb_.i, ptr noundef null, i64 noundef 0)
          to label %call15.i.i.noexc unwind label %lpad2

call15.i.i.noexc:                                 ; preds = %invoke.cont.i.i
  %49 = or i32 %call7.i.i, %call.i.i
  %50 = icmp eq i32 %49, 0
  br i1 %50, label %invoke.cont75, label %if.then.i227

if.then.i.i.i.i:                                  ; preds = %if.then.i.i221
  %51 = landingpad { ptr, i32 }
          cleanup
  %call6.i.i.i.i = call noundef i32 @fclose(ptr noundef nonnull %46)
  br label %lpad2.body

if.then.i227:                                     ; preds = %call15.i.i.noexc, %invoke.cont73
  %vtable.i222 = load ptr, ptr %ofs, align 8, !tbaa !21
  %vbase.offset.ptr.i223 = getelementptr i8, ptr %vtable.i222, i64 -24
  %vbase.offset.i224 = load i64, ptr %vbase.offset.ptr.i223, align 8
  %add.ptr.i = getelementptr inbounds i8, ptr %ofs, i64 %vbase.offset.i224
  %__rdstate_.i.i.i225 = getelementptr inbounds %"class.std::__1::ios_base", ptr %add.ptr.i, i64 0, i32 4
  %52 = load i32, ptr %__rdstate_.i.i.i225, align 8, !tbaa !35
  %or.i.i.i226 = or i32 %52, 4
  invoke void @_ZNSt3__18ios_base5clearEj(ptr noundef nonnull align 8 dereferenceable(136) %add.ptr.i, i32 noundef %or.i.i.i226)
          to label %invoke.cont75 unwind label %lpad2

invoke.cont75:                                    ; preds = %call15.i.i.noexc, %if.then.i227
  store ptr getelementptr inbounds ({ [5 x ptr], [5 x ptr] }, ptr @_ZTVNSt3__114basic_ofstreamIcNS_11char_traitsIcEEEE, i64 0, inrange i32 0, i64 3), ptr %ofs, align 8, !tbaa !21
  store ptr getelementptr inbounds ({ [5 x ptr], [5 x ptr] }, ptr @_ZTVNSt3__114basic_ofstreamIcNS_11char_traitsIcEEEE, i64 0, inrange i32 1, i64 3), ptr %8, align 8, !tbaa !21
  call void @_ZNSt3__113basic_filebufIcNS_11char_traitsIcEEED2Ev(ptr noundef nonnull align 8 dereferenceable(163) %__sb_.i) #23
  call void @_ZNSt3__113basic_ostreamIcNS_11char_traitsIcEEED2Ev(ptr noundef nonnull align 8 dereferenceable(8) %ofs, ptr noundef nonnull getelementptr inbounds ([4 x ptr], ptr @_ZTTNSt3__114basic_ofstreamIcNS_11char_traitsIcEEEE, i64 0, i64 1)) #23
  call void @_ZNSt3__19basic_iosIcNS_11char_traitsIcEEED2Ev(ptr noundef nonnull align 8 dereferenceable(148) %8) #23
  call void @llvm.lifetime.end.p0(i64 328, ptr nonnull %ofs) #23
  %bf.load.i.i = load i8, ptr %filename, align 8
  %bf.clear.i.i = and i8 %bf.load.i.i, 1
  %tobool.i.not.i = icmp eq i8 %bf.clear.i.i, 0
  br i1 %tobool.i.not.i, label %_ZNSt3__112basic_stringIcNS_11char_traitsIcEENS_9allocatorIcEEED2Ev.exit, label %if.then.i231

if.then.i231:                                     ; preds = %invoke.cont75
  %53 = load ptr, ptr %__data_.i.i.i.i84, align 8, !tbaa !16
  call void @_ZdlPv(ptr noundef %53) #22
  br label %_ZNSt3__112basic_stringIcNS_11char_traitsIcEENS_9allocatorIcEEED2Ev.exit

_ZNSt3__112basic_stringIcNS_11char_traitsIcEENS_9allocatorIcEEED2Ev.exit: ; preds = %invoke.cont75, %if.then.i231
  call void @llvm.lifetime.end.p0(i64 24, ptr nonnull %filename) #23
  br label %return

return:                                           ; preds = %entry, %_ZNSt3__112basic_stringIcNS_11char_traitsIcEENS_9allocatorIcEEED2Ev.exit
  ret void

ehcleanup:                                        ; preds = %ehcleanup11.i, %lpad2.body
  %.pn = phi { ptr, i32 } [ %eh.lpad-body229, %lpad2.body ], [ %.pn.pn.i, %ehcleanup11.i ]
  call void @llvm.lifetime.end.p0(i64 328, ptr nonnull %ofs) #23
  %bf.load.i.i232 = load i8, ptr %filename, align 8
  %bf.clear.i.i233 = and i8 %bf.load.i.i232, 1
  %tobool.i.not.i234 = icmp eq i8 %bf.clear.i.i233, 0
  br i1 %tobool.i.not.i234, label %_ZNSt3__112basic_stringIcNS_11char_traitsIcEENS_9allocatorIcEEED2Ev.exit237, label %if.then.i236

if.then.i236:                                     ; preds = %ehcleanup
  %54 = load ptr, ptr %__data_.i.i.i.i84, align 8, !tbaa !16
  call void @_ZdlPv(ptr noundef %54) #22
  br label %_ZNSt3__112basic_stringIcNS_11char_traitsIcEENS_9allocatorIcEEED2Ev.exit237

_ZNSt3__112basic_stringIcNS_11char_traitsIcEENS_9allocatorIcEEED2Ev.exit237: ; preds = %ehcleanup, %if.then.i236
  call void @llvm.lifetime.end.p0(i64 24, ptr nonnull %filename) #23
  resume { ptr, i32 } %.pn
}

; Function Attrs: uwtable
define dso_local void @_ZN10ExportGold9sortZonesEv(ptr noundef nonnull align 8 dereferenceable(188) %this) local_unnamed_addr #2 align 2 personality ptr @__gxx_personality_v0 {
entry:
  %0 = load ptr, ptr %this, align 8, !tbaa !5
  %numz2 = getelementptr inbounds %class.Mesh, ptr %0, i64 0, i32 9
  %1 = load i32, ptr %numz2, align 4, !tbaa !36
  %znump4 = getelementptr inbounds %class.Mesh, ptr %0, i64 0, i32 33
  %2 = load ptr, ptr %znump4, align 8, !tbaa !41
  %mapzs = getelementptr inbounds %class.ExportGold, ptr %this, i64 0, i32 4
  %conv = sext i32 %1 to i64
  %__end_.i.i = getelementptr inbounds %class.ExportGold, ptr %this, i64 0, i32 4, i32 1
  %3 = load ptr, ptr %__end_.i.i, align 8, !tbaa !15
  %4 = load ptr, ptr %mapzs, align 8, !tbaa !14
  %sub.ptr.lhs.cast.i.i = ptrtoint ptr %3 to i64
  %sub.ptr.rhs.cast.i.i = ptrtoint ptr %4 to i64
  %sub.ptr.sub.i.i = sub i64 %sub.ptr.lhs.cast.i.i, %sub.ptr.rhs.cast.i.i
  %sub.ptr.div.i.i = ashr exact i64 %sub.ptr.sub.i.i, 2
  %cmp.i = icmp ult i64 %sub.ptr.div.i.i, %conv
  br i1 %cmp.i, label %if.then.i, label %if.else.i

if.then.i:                                        ; preds = %entry
  %sub.i = sub nsw i64 %conv, %sub.ptr.div.i.i
  tail call void @_ZNSt3__16vectorIiNS_9allocatorIiEEE8__appendEm(ptr noundef nonnull align 8 dereferenceable(24) %mapzs, i64 noundef %sub.i)
  br label %_ZNSt3__16vectorIiNS_9allocatorIiEEE6resizeEm.exit

if.else.i:                                        ; preds = %entry
  %cmp2.i = icmp ugt i64 %sub.ptr.div.i.i, %conv
  br i1 %cmp2.i, label %if.then3.i, label %_ZNSt3__16vectorIiNS_9allocatorIiEEE6resizeEm.exit

if.then3.i:                                       ; preds = %if.else.i
  %add.ptr.i = getelementptr inbounds i32, ptr %4, i64 %conv
  store ptr %add.ptr.i, ptr %__end_.i.i, align 8, !tbaa !15
  br label %_ZNSt3__16vectorIiNS_9allocatorIiEEE6resizeEm.exit

_ZNSt3__16vectorIiNS_9allocatorIiEEE6resizeEm.exit: ; preds = %if.then.i, %if.else.i, %if.then3.i
  %cmp113 = icmp sgt i32 %1, 0
  br i1 %cmp113, label %for.body.lr.ph, label %for.cond.cleanup

for.body.lr.ph:                                   ; preds = %_ZNSt3__16vectorIiNS_9allocatorIiEEE6resizeEm.exit
  %quads = getelementptr inbounds %class.ExportGold, ptr %this, i64 0, i32 2
  %__end_.i19 = getelementptr inbounds %class.ExportGold, ptr %this, i64 0, i32 2, i32 1
  %__end_cap_.i.i20 = getelementptr inbounds %class.ExportGold, ptr %this, i64 0, i32 2, i32 2
  %tris = getelementptr inbounds %class.ExportGold, ptr %this, i64 0, i32 1
  %__end_.i = getelementptr inbounds %class.ExportGold, ptr %this, i64 0, i32 1, i32 1
  %__end_cap_.i.i = getelementptr inbounds %class.ExportGold, ptr %this, i64 0, i32 1, i32 2
  %others = getelementptr inbounds %class.ExportGold, ptr %this, i64 0, i32 3
  %__end_.i61 = getelementptr inbounds %class.ExportGold, ptr %this, i64 0, i32 3, i32 1
  %__end_cap_.i.i62 = getelementptr inbounds %class.ExportGold, ptr %this, i64 0, i32 3, i32 2
  %wide.trip.count = zext i32 %1 to i64
  br label %for.body

for.cond.cleanup:                                 ; preds = %if.end9, %_ZNSt3__16vectorIiNS_9allocatorIiEEE6resizeEm.exit
  ret void

for.body:                                         ; preds = %for.body.lr.ph, %if.end9
  %indvars.iv = phi i64 [ 0, %for.body.lr.ph ], [ %indvars.iv.next, %if.end9 ]
  %scount.0115 = phi i32 [ 0, %for.body.lr.ph ], [ %add, %if.end9 ]
  %arrayidx = getelementptr inbounds i32, ptr %2, i64 %indvars.iv
  %5 = load i32, ptr %arrayidx, align 4, !tbaa !17
  switch i32 %5, label %if.else8 [
    i32 3, label %if.then
    i32 4, label %if.then7
  ]

if.then:                                          ; preds = %for.body
  %6 = load ptr, ptr %__end_.i, align 8, !tbaa !15
  %7 = load ptr, ptr %__end_cap_.i.i, align 8, !tbaa !42
  %cmp.not.i = icmp eq ptr %6, %7
  br i1 %cmp.not.i, label %if.else.i18, label %if.then.i17

if.then.i17:                                      ; preds = %if.then
  %8 = trunc i64 %indvars.iv to i32
  store i32 %8, ptr %6, align 4, !tbaa !17
  %incdec.ptr.i.i = getelementptr inbounds i32, ptr %6, i64 1
  store ptr %incdec.ptr.i.i, ptr %__end_.i, align 8, !tbaa !15
  br label %if.end9

if.else.i18:                                      ; preds = %if.then
  %9 = load ptr, ptr %tris, align 8, !tbaa !14
  %sub.ptr.lhs.cast.i.i.i = ptrtoint ptr %6 to i64
  %sub.ptr.rhs.cast.i.i.i = ptrtoint ptr %9 to i64
  %sub.ptr.sub.i.i.i = sub i64 %sub.ptr.lhs.cast.i.i.i, %sub.ptr.rhs.cast.i.i.i
  %sub.ptr.div.i.i.i = ashr exact i64 %sub.ptr.sub.i.i.i, 2
  %add.i.i = add nsw i64 %sub.ptr.div.i.i.i, 1
  %cmp.i.i.i = icmp ugt i64 %add.i.i, 4611686018427387903
  br i1 %cmp.i.i.i, label %if.then.i.i.i, label %_ZNKSt3__16vectorIiNS_9allocatorIiEEE11__recommendB7v170000Em.exit.i.i

if.then.i.i.i:                                    ; preds = %if.else.i18
  tail call void @_ZNKSt3__16vectorIiNS_9allocatorIiEEE20__throw_length_errorB7v170000Ev(ptr noundef nonnull align 8 dereferenceable(24) %tris) #24
  unreachable

_ZNKSt3__16vectorIiNS_9allocatorIiEEE11__recommendB7v170000Em.exit.i.i: ; preds = %if.else.i18
  %cmp3.not.i.i.i = icmp ult i64 %sub.ptr.sub.i.i.i, 9223372036854775804
  %mul.i.i.i = lshr exact i64 %sub.ptr.sub.i.i.i, 1
  %.sroa.speculated.i.i.i = tail call i64 @llvm.umax.i64(i64 %mul.i.i.i, i64 %add.i.i)
  %retval.0.i.i.i = select i1 %cmp3.not.i.i.i, i64 %.sroa.speculated.i.i.i, i64 4611686018427387903
  %cmp.i16.i.i = icmp eq i64 %retval.0.i.i.i, 0
  br i1 %cmp.i16.i.i, label %invoke.cont.i.i, label %if.else.i.i.i

if.else.i.i.i:                                    ; preds = %_ZNKSt3__16vectorIiNS_9allocatorIiEEE11__recommendB7v170000Em.exit.i.i
  %cmp.i.i.i.i.i = icmp ugt i64 %retval.0.i.i.i, 4611686018427387903
  br i1 %cmp.i.i.i.i.i, label %if.then.i.i.i.i.i, label %_ZNSt3__119__allocate_at_leastB7v170000INS_9allocatorIiEEEENS_19__allocation_resultINS_16allocator_traitsIT_E7pointerEEERS5_m.exit.i.i.i

if.then.i.i.i.i.i:                                ; preds = %if.else.i.i.i
  tail call void @_ZSt28__throw_bad_array_new_lengthB7v170000v() #24
  unreachable

_ZNSt3__119__allocate_at_leastB7v170000INS_9allocatorIiEEEENS_19__allocation_resultINS_16allocator_traitsIT_E7pointerEEERS5_m.exit.i.i.i: ; preds = %if.else.i.i.i
  %mul.i.i.i.i.i = shl nuw i64 %retval.0.i.i.i, 2
  %call.i5.i.i.i.i.i.i = tail call noalias noundef nonnull ptr @_Znwm(i64 noundef %mul.i.i.i.i.i) #25
  br label %invoke.cont.i.i

invoke.cont.i.i:                                  ; preds = %_ZNSt3__119__allocate_at_leastB7v170000INS_9allocatorIiEEEENS_19__allocation_resultINS_16allocator_traitsIT_E7pointerEEERS5_m.exit.i.i.i, %_ZNKSt3__16vectorIiNS_9allocatorIiEEE11__recommendB7v170000Em.exit.i.i
  %storemerge.i.i.i = phi ptr [ %call.i5.i.i.i.i.i.i, %_ZNSt3__119__allocate_at_leastB7v170000INS_9allocatorIiEEEENS_19__allocation_resultINS_16allocator_traitsIT_E7pointerEEERS5_m.exit.i.i.i ], [ null, %_ZNKSt3__16vectorIiNS_9allocatorIiEEE11__recommendB7v170000Em.exit.i.i ]
  %storemerge.i.i.i137 = ptrtoint ptr %storemerge.i.i.i to i64
  %add.ptr.i.i.i = getelementptr inbounds i32, ptr %storemerge.i.i.i, i64 %sub.ptr.div.i.i.i
  %add.ptr6.i.i.i = getelementptr inbounds i32, ptr %storemerge.i.i.i, i64 %retval.0.i.i.i
  %10 = trunc i64 %indvars.iv to i32
  store i32 %10, ptr %add.ptr.i.i.i, align 4, !tbaa !17
  %incdec.ptr.i4.i = getelementptr inbounds i32, ptr %add.ptr.i.i.i, i64 1
  %cmp.i.not13.i.i.i.i.i.i.i.i.i = icmp eq ptr %6, %9
  br i1 %cmp.i.not13.i.i.i.i.i.i.i.i.i, label %_ZNSt3__114__split_bufferIiRNS_9allocatorIiEEE5clearB7v170000Ev.exit.i.i.i, label %while.body.i.i.i.i.i.i.i.i.i.preheader

while.body.i.i.i.i.i.i.i.i.i.preheader:           ; preds = %invoke.cont.i.i
  %11 = add i64 %sub.ptr.lhs.cast.i.i.i, -4
  %12 = sub i64 %11, %sub.ptr.rhs.cast.i.i.i
  %13 = lshr i64 %12, 2
  %14 = add nuw nsw i64 %13, 1
  %min.iters.check141 = icmp ult i64 %12, 76
  br i1 %min.iters.check141, label %while.body.i.i.i.i.i.i.i.i.i.preheader191, label %vector.memcheck136

vector.memcheck136:                               ; preds = %while.body.i.i.i.i.i.i.i.i.i.preheader
  %15 = add i64 %sub.ptr.lhs.cast.i.i.i, -4
  %16 = add i64 %storemerge.i.i.i137, -4
  %17 = add i64 %16, %sub.ptr.sub.i.i.i
  %18 = sub i64 %15, %17
  %diff.check138 = icmp ult i64 %18, 32
  br i1 %diff.check138, label %while.body.i.i.i.i.i.i.i.i.i.preheader191, label %vector.ph142

vector.ph142:                                     ; preds = %vector.memcheck136
  %n.vec144 = and i64 %14, -8
  %19 = mul i64 %n.vec144, -4
  %ind.end145 = getelementptr i8, ptr %add.ptr.i.i.i, i64 %19
  %20 = mul i64 %n.vec144, -4
  %ind.end147 = getelementptr i8, ptr %6, i64 %20
  br label %vector.body150

vector.body150:                                   ; preds = %vector.body150, %vector.ph142
  %index151 = phi i64 [ 0, %vector.ph142 ], [ %index.next162, %vector.body150 ]
  %21 = mul i64 %index151, -4
  %next.gep152 = getelementptr i8, ptr %add.ptr.i.i.i, i64 %21
  %22 = mul i64 %index151, -4
  %next.gep154 = getelementptr i8, ptr %6, i64 %22
  %23 = getelementptr inbounds i32, ptr %next.gep154, i64 -1
  %24 = getelementptr inbounds i32, ptr %23, i64 -3
  %wide.load156 = load <4 x i32>, ptr %24, align 4, !tbaa !17, !noalias !43
  %25 = getelementptr inbounds i32, ptr %23, i64 -4
  %26 = getelementptr inbounds i32, ptr %25, i64 -3
  %wide.load158 = load <4 x i32>, ptr %26, align 4, !tbaa !17, !noalias !43
  %27 = getelementptr inbounds i32, ptr %next.gep152, i64 -1
  %28 = getelementptr inbounds i32, ptr %27, i64 -3
  store <4 x i32> %wide.load156, ptr %28, align 4, !tbaa !17, !noalias !43
  %29 = getelementptr inbounds i32, ptr %27, i64 -4
  %30 = getelementptr inbounds i32, ptr %29, i64 -3
  store <4 x i32> %wide.load158, ptr %30, align 4, !tbaa !17, !noalias !43
  %index.next162 = add nuw i64 %index151, 8
  %31 = icmp eq i64 %index.next162, %n.vec144
  br i1 %31, label %middle.block139, label %vector.body150, !llvm.loop !52

middle.block139:                                  ; preds = %vector.body150
  %cmp.n149 = icmp eq i64 %14, %n.vec144
  br i1 %cmp.n149, label %_ZNSt3__114__split_bufferIiRNS_9allocatorIiEEE5clearB7v170000Ev.exit.i.i.i, label %while.body.i.i.i.i.i.i.i.i.i.preheader191

while.body.i.i.i.i.i.i.i.i.i.preheader191:        ; preds = %vector.memcheck136, %while.body.i.i.i.i.i.i.i.i.i.preheader, %middle.block139
  %incdec.ptr.i15.i.i.i.i.i.i.i.i.i.ph = phi ptr [ %add.ptr.i.i.i, %vector.memcheck136 ], [ %add.ptr.i.i.i, %while.body.i.i.i.i.i.i.i.i.i.preheader ], [ %ind.end145, %middle.block139 ]
  %__first.sroa.2.014.i.i.i.i.i.i.i.i.i.ph = phi ptr [ %6, %vector.memcheck136 ], [ %6, %while.body.i.i.i.i.i.i.i.i.i.preheader ], [ %ind.end147, %middle.block139 ]
  br label %while.body.i.i.i.i.i.i.i.i.i

while.body.i.i.i.i.i.i.i.i.i:                     ; preds = %while.body.i.i.i.i.i.i.i.i.i.preheader191, %while.body.i.i.i.i.i.i.i.i.i
  %incdec.ptr.i15.i.i.i.i.i.i.i.i.i = phi ptr [ %incdec.ptr.i.i.i.i.i.i.i.i.i.i, %while.body.i.i.i.i.i.i.i.i.i ], [ %incdec.ptr.i15.i.i.i.i.i.i.i.i.i.ph, %while.body.i.i.i.i.i.i.i.i.i.preheader191 ]
  %__first.sroa.2.014.i.i.i.i.i.i.i.i.i = phi ptr [ %incdec.ptr.i.i.i.i.i.i.i.i.i.i.i, %while.body.i.i.i.i.i.i.i.i.i ], [ %__first.sroa.2.014.i.i.i.i.i.i.i.i.i.ph, %while.body.i.i.i.i.i.i.i.i.i.preheader191 ]
  %incdec.ptr.i.i.i.i.i.i.i.i.i.i.i = getelementptr inbounds i32, ptr %__first.sroa.2.014.i.i.i.i.i.i.i.i.i, i64 -1
  %32 = load i32, ptr %incdec.ptr.i.i.i.i.i.i.i.i.i.i.i, align 4, !tbaa !17, !noalias !43
  %incdec.ptr.i.i.i.i.i.i.i.i.i.i = getelementptr inbounds i32, ptr %incdec.ptr.i15.i.i.i.i.i.i.i.i.i, i64 -1
  store i32 %32, ptr %incdec.ptr.i.i.i.i.i.i.i.i.i.i, align 4, !tbaa !17, !noalias !43
  %cmp.i.not.i.i.i.i.i.i.i.i.i = icmp eq ptr %incdec.ptr.i.i.i.i.i.i.i.i.i.i.i, %9
  br i1 %cmp.i.not.i.i.i.i.i.i.i.i.i, label %_ZNSt3__114__split_bufferIiRNS_9allocatorIiEEE5clearB7v170000Ev.exit.i.i.i, label %while.body.i.i.i.i.i.i.i.i.i, !llvm.loop !56

_ZNSt3__114__split_bufferIiRNS_9allocatorIiEEE5clearB7v170000Ev.exit.i.i.i: ; preds = %while.body.i.i.i.i.i.i.i.i.i, %middle.block139, %invoke.cont.i.i
  %storemerge.i.i = phi ptr [ %add.ptr.i.i.i, %invoke.cont.i.i ], [ %ind.end145, %middle.block139 ], [ %incdec.ptr.i.i.i.i.i.i.i.i.i.i, %while.body.i.i.i.i.i.i.i.i.i ]
  store ptr %storemerge.i.i, ptr %tris, align 8, !tbaa !42
  store ptr %incdec.ptr.i4.i, ptr %__end_.i, align 8, !tbaa !42
  store ptr %add.ptr6.i.i.i, ptr %__end_cap_.i.i, align 8, !tbaa !42
  %tobool.not.i.i.i = icmp eq ptr %9, null
  br i1 %tobool.not.i.i.i, label %if.end9, label %if.then.i19.i.i

if.then.i19.i.i:                                  ; preds = %_ZNSt3__114__split_bufferIiRNS_9allocatorIiEEE5clearB7v170000Ev.exit.i.i.i
  tail call void @_ZdlPv(ptr noundef nonnull %9) #22
  br label %if.end9

if.then7:                                         ; preds = %for.body
  %33 = load ptr, ptr %__end_.i19, align 8, !tbaa !15
  %34 = load ptr, ptr %__end_cap_.i.i20, align 8, !tbaa !42
  %cmp.not.i21 = icmp eq ptr %33, %34
  br i1 %cmp.not.i21, label %if.else.i30, label %if.then.i23

if.then.i23:                                      ; preds = %if.then7
  %35 = trunc i64 %indvars.iv to i32
  store i32 %35, ptr %33, align 4, !tbaa !17
  %incdec.ptr.i.i22 = getelementptr inbounds i32, ptr %33, i64 1
  store ptr %incdec.ptr.i.i22, ptr %__end_.i19, align 8, !tbaa !15
  br label %if.end9

if.else.i30:                                      ; preds = %if.then7
  %36 = load ptr, ptr %quads, align 8, !tbaa !14
  %sub.ptr.lhs.cast.i.i.i24 = ptrtoint ptr %33 to i64
  %sub.ptr.rhs.cast.i.i.i25 = ptrtoint ptr %36 to i64
  %sub.ptr.sub.i.i.i26 = sub i64 %sub.ptr.lhs.cast.i.i.i24, %sub.ptr.rhs.cast.i.i.i25
  %sub.ptr.div.i.i.i27 = ashr exact i64 %sub.ptr.sub.i.i.i26, 2
  %add.i.i28 = add nsw i64 %sub.ptr.div.i.i.i27, 1
  %cmp.i.i.i29 = icmp ugt i64 %add.i.i28, 4611686018427387903
  br i1 %cmp.i.i.i29, label %if.then.i.i.i31, label %_ZNKSt3__16vectorIiNS_9allocatorIiEEE11__recommendB7v170000Em.exit.i.i37

if.then.i.i.i31:                                  ; preds = %if.else.i30
  tail call void @_ZNKSt3__16vectorIiNS_9allocatorIiEEE20__throw_length_errorB7v170000Ev(ptr noundef nonnull align 8 dereferenceable(24) %quads) #24
  unreachable

_ZNKSt3__16vectorIiNS_9allocatorIiEEE11__recommendB7v170000Em.exit.i.i37: ; preds = %if.else.i30
  %cmp3.not.i.i.i32 = icmp ult i64 %sub.ptr.sub.i.i.i26, 9223372036854775804
  %mul.i.i.i33 = lshr exact i64 %sub.ptr.sub.i.i.i26, 1
  %.sroa.speculated.i.i.i34 = tail call i64 @llvm.umax.i64(i64 %mul.i.i.i33, i64 %add.i.i28)
  %retval.0.i.i.i35 = select i1 %cmp3.not.i.i.i32, i64 %.sroa.speculated.i.i.i34, i64 4611686018427387903
  %cmp.i16.i.i36 = icmp eq i64 %retval.0.i.i.i35, 0
  br i1 %cmp.i16.i.i36, label %invoke.cont.i.i49, label %if.else.i.i.i39

if.else.i.i.i39:                                  ; preds = %_ZNKSt3__16vectorIiNS_9allocatorIiEEE11__recommendB7v170000Em.exit.i.i37
  %cmp.i.i.i.i.i38 = icmp ugt i64 %retval.0.i.i.i35, 4611686018427387903
  br i1 %cmp.i.i.i.i.i38, label %if.then.i.i.i.i.i40, label %_ZNSt3__119__allocate_at_leastB7v170000INS_9allocatorIiEEEENS_19__allocation_resultINS_16allocator_traitsIT_E7pointerEEERS5_m.exit.i.i.i43

if.then.i.i.i.i.i40:                              ; preds = %if.else.i.i.i39
  tail call void @_ZSt28__throw_bad_array_new_lengthB7v170000v() #24
  unreachable

_ZNSt3__119__allocate_at_leastB7v170000INS_9allocatorIiEEEENS_19__allocation_resultINS_16allocator_traitsIT_E7pointerEEERS5_m.exit.i.i.i43: ; preds = %if.else.i.i.i39
  %mul.i.i.i.i.i41 = shl nuw i64 %retval.0.i.i.i35, 2
  %call.i5.i.i.i.i.i.i42 = tail call noalias noundef nonnull ptr @_Znwm(i64 noundef %mul.i.i.i.i.i41) #25
  br label %invoke.cont.i.i49

invoke.cont.i.i49:                                ; preds = %_ZNSt3__119__allocate_at_leastB7v170000INS_9allocatorIiEEEENS_19__allocation_resultINS_16allocator_traitsIT_E7pointerEEERS5_m.exit.i.i.i43, %_ZNKSt3__16vectorIiNS_9allocatorIiEEE11__recommendB7v170000Em.exit.i.i37
  %storemerge.i.i.i44 = phi ptr [ %call.i5.i.i.i.i.i.i42, %_ZNSt3__119__allocate_at_leastB7v170000INS_9allocatorIiEEEENS_19__allocation_resultINS_16allocator_traitsIT_E7pointerEEERS5_m.exit.i.i.i43 ], [ null, %_ZNKSt3__16vectorIiNS_9allocatorIiEEE11__recommendB7v170000Em.exit.i.i37 ]
  %storemerge.i.i.i44164 = ptrtoint ptr %storemerge.i.i.i44 to i64
  %add.ptr.i.i.i45 = getelementptr inbounds i32, ptr %storemerge.i.i.i44, i64 %sub.ptr.div.i.i.i27
  %add.ptr6.i.i.i46 = getelementptr inbounds i32, ptr %storemerge.i.i.i44, i64 %retval.0.i.i.i35
  %37 = trunc i64 %indvars.iv to i32
  store i32 %37, ptr %add.ptr.i.i.i45, align 4, !tbaa !17
  %incdec.ptr.i4.i47 = getelementptr inbounds i32, ptr %add.ptr.i.i.i45, i64 1
  %cmp.i.not13.i.i.i.i.i.i.i.i.i48 = icmp eq ptr %33, %36
  br i1 %cmp.i.not13.i.i.i.i.i.i.i.i.i48, label %_ZNSt3__114__split_bufferIiRNS_9allocatorIiEEE5clearB7v170000Ev.exit.i.i.i58, label %while.body.i.i.i.i.i.i.i.i.i55.preheader

while.body.i.i.i.i.i.i.i.i.i55.preheader:         ; preds = %invoke.cont.i.i49
  %38 = add i64 %sub.ptr.lhs.cast.i.i.i24, -4
  %39 = sub i64 %38, %sub.ptr.rhs.cast.i.i.i25
  %40 = lshr i64 %39, 2
  %41 = add nuw nsw i64 %40, 1
  %min.iters.check168 = icmp ult i64 %39, 76
  br i1 %min.iters.check168, label %while.body.i.i.i.i.i.i.i.i.i55.preheader192, label %vector.memcheck163

vector.memcheck163:                               ; preds = %while.body.i.i.i.i.i.i.i.i.i55.preheader
  %42 = add i64 %sub.ptr.lhs.cast.i.i.i24, -4
  %43 = add i64 %storemerge.i.i.i44164, -4
  %44 = add i64 %43, %sub.ptr.sub.i.i.i26
  %45 = sub i64 %42, %44
  %diff.check165 = icmp ult i64 %45, 32
  br i1 %diff.check165, label %while.body.i.i.i.i.i.i.i.i.i55.preheader192, label %vector.ph169

vector.ph169:                                     ; preds = %vector.memcheck163
  %n.vec171 = and i64 %41, -8
  %46 = mul i64 %n.vec171, -4
  %ind.end172 = getelementptr i8, ptr %add.ptr.i.i.i45, i64 %46
  %47 = mul i64 %n.vec171, -4
  %ind.end174 = getelementptr i8, ptr %33, i64 %47
  br label %vector.body177

vector.body177:                                   ; preds = %vector.body177, %vector.ph169
  %index178 = phi i64 [ 0, %vector.ph169 ], [ %index.next189, %vector.body177 ]
  %48 = mul i64 %index178, -4
  %next.gep179 = getelementptr i8, ptr %add.ptr.i.i.i45, i64 %48
  %49 = mul i64 %index178, -4
  %next.gep181 = getelementptr i8, ptr %33, i64 %49
  %50 = getelementptr inbounds i32, ptr %next.gep181, i64 -1
  %51 = getelementptr inbounds i32, ptr %50, i64 -3
  %wide.load183 = load <4 x i32>, ptr %51, align 4, !tbaa !17, !noalias !57
  %52 = getelementptr inbounds i32, ptr %50, i64 -4
  %53 = getelementptr inbounds i32, ptr %52, i64 -3
  %wide.load185 = load <4 x i32>, ptr %53, align 4, !tbaa !17, !noalias !57
  %54 = getelementptr inbounds i32, ptr %next.gep179, i64 -1
  %55 = getelementptr inbounds i32, ptr %54, i64 -3
  store <4 x i32> %wide.load183, ptr %55, align 4, !tbaa !17, !noalias !57
  %56 = getelementptr inbounds i32, ptr %54, i64 -4
  %57 = getelementptr inbounds i32, ptr %56, i64 -3
  store <4 x i32> %wide.load185, ptr %57, align 4, !tbaa !17, !noalias !57
  %index.next189 = add nuw i64 %index178, 8
  %58 = icmp eq i64 %index.next189, %n.vec171
  br i1 %58, label %middle.block166, label %vector.body177, !llvm.loop !66

middle.block166:                                  ; preds = %vector.body177
  %cmp.n176 = icmp eq i64 %41, %n.vec171
  br i1 %cmp.n176, label %_ZNSt3__114__split_bufferIiRNS_9allocatorIiEEE5clearB7v170000Ev.exit.i.i.i58, label %while.body.i.i.i.i.i.i.i.i.i55.preheader192

while.body.i.i.i.i.i.i.i.i.i55.preheader192:      ; preds = %vector.memcheck163, %while.body.i.i.i.i.i.i.i.i.i55.preheader, %middle.block166
  %incdec.ptr.i15.i.i.i.i.i.i.i.i.i50.ph = phi ptr [ %add.ptr.i.i.i45, %vector.memcheck163 ], [ %add.ptr.i.i.i45, %while.body.i.i.i.i.i.i.i.i.i55.preheader ], [ %ind.end172, %middle.block166 ]
  %__first.sroa.2.014.i.i.i.i.i.i.i.i.i51.ph = phi ptr [ %33, %vector.memcheck163 ], [ %33, %while.body.i.i.i.i.i.i.i.i.i55.preheader ], [ %ind.end174, %middle.block166 ]
  br label %while.body.i.i.i.i.i.i.i.i.i55

while.body.i.i.i.i.i.i.i.i.i55:                   ; preds = %while.body.i.i.i.i.i.i.i.i.i55.preheader192, %while.body.i.i.i.i.i.i.i.i.i55
  %incdec.ptr.i15.i.i.i.i.i.i.i.i.i50 = phi ptr [ %incdec.ptr.i.i.i.i.i.i.i.i.i.i53, %while.body.i.i.i.i.i.i.i.i.i55 ], [ %incdec.ptr.i15.i.i.i.i.i.i.i.i.i50.ph, %while.body.i.i.i.i.i.i.i.i.i55.preheader192 ]
  %__first.sroa.2.014.i.i.i.i.i.i.i.i.i51 = phi ptr [ %incdec.ptr.i.i.i.i.i.i.i.i.i.i.i52, %while.body.i.i.i.i.i.i.i.i.i55 ], [ %__first.sroa.2.014.i.i.i.i.i.i.i.i.i51.ph, %while.body.i.i.i.i.i.i.i.i.i55.preheader192 ]
  %incdec.ptr.i.i.i.i.i.i.i.i.i.i.i52 = getelementptr inbounds i32, ptr %__first.sroa.2.014.i.i.i.i.i.i.i.i.i51, i64 -1
  %59 = load i32, ptr %incdec.ptr.i.i.i.i.i.i.i.i.i.i.i52, align 4, !tbaa !17, !noalias !57
  %incdec.ptr.i.i.i.i.i.i.i.i.i.i53 = getelementptr inbounds i32, ptr %incdec.ptr.i15.i.i.i.i.i.i.i.i.i50, i64 -1
  store i32 %59, ptr %incdec.ptr.i.i.i.i.i.i.i.i.i.i53, align 4, !tbaa !17, !noalias !57
  %cmp.i.not.i.i.i.i.i.i.i.i.i54 = icmp eq ptr %incdec.ptr.i.i.i.i.i.i.i.i.i.i.i52, %36
  br i1 %cmp.i.not.i.i.i.i.i.i.i.i.i54, label %_ZNSt3__114__split_bufferIiRNS_9allocatorIiEEE5clearB7v170000Ev.exit.i.i.i58, label %while.body.i.i.i.i.i.i.i.i.i55, !llvm.loop !67

_ZNSt3__114__split_bufferIiRNS_9allocatorIiEEE5clearB7v170000Ev.exit.i.i.i58: ; preds = %while.body.i.i.i.i.i.i.i.i.i55, %middle.block166, %invoke.cont.i.i49
  %storemerge.i.i56 = phi ptr [ %add.ptr.i.i.i45, %invoke.cont.i.i49 ], [ %ind.end172, %middle.block166 ], [ %incdec.ptr.i.i.i.i.i.i.i.i.i.i53, %while.body.i.i.i.i.i.i.i.i.i55 ]
  store ptr %storemerge.i.i56, ptr %quads, align 8, !tbaa !42
  store ptr %incdec.ptr.i4.i47, ptr %__end_.i19, align 8, !tbaa !42
  store ptr %add.ptr6.i.i.i46, ptr %__end_cap_.i.i20, align 8, !tbaa !42
  %tobool.not.i.i.i57 = icmp eq ptr %36, null
  br i1 %tobool.not.i.i.i57, label %if.end9, label %if.then.i19.i.i59

if.then.i19.i.i59:                                ; preds = %_ZNSt3__114__split_bufferIiRNS_9allocatorIiEEE5clearB7v170000Ev.exit.i.i.i58
  tail call void @_ZdlPv(ptr noundef nonnull %36) #22
  br label %if.end9

if.else8:                                         ; preds = %for.body
  %60 = load ptr, ptr %__end_.i61, align 8, !tbaa !15
  %61 = load ptr, ptr %__end_cap_.i.i62, align 8, !tbaa !42
  %cmp.not.i63 = icmp eq ptr %60, %61
  br i1 %cmp.not.i63, label %if.else.i72, label %if.then.i65

if.then.i65:                                      ; preds = %if.else8
  %62 = trunc i64 %indvars.iv to i32
  store i32 %62, ptr %60, align 4, !tbaa !17
  %incdec.ptr.i.i64 = getelementptr inbounds i32, ptr %60, i64 1
  store ptr %incdec.ptr.i.i64, ptr %__end_.i61, align 8, !tbaa !15
  br label %if.end9

if.else.i72:                                      ; preds = %if.else8
  %63 = load ptr, ptr %others, align 8, !tbaa !14
  %sub.ptr.lhs.cast.i.i.i66 = ptrtoint ptr %60 to i64
  %sub.ptr.rhs.cast.i.i.i67 = ptrtoint ptr %63 to i64
  %sub.ptr.sub.i.i.i68 = sub i64 %sub.ptr.lhs.cast.i.i.i66, %sub.ptr.rhs.cast.i.i.i67
  %sub.ptr.div.i.i.i69 = ashr exact i64 %sub.ptr.sub.i.i.i68, 2
  %add.i.i70 = add nsw i64 %sub.ptr.div.i.i.i69, 1
  %cmp.i.i.i71 = icmp ugt i64 %add.i.i70, 4611686018427387903
  br i1 %cmp.i.i.i71, label %if.then.i.i.i73, label %_ZNKSt3__16vectorIiNS_9allocatorIiEEE11__recommendB7v170000Em.exit.i.i79

if.then.i.i.i73:                                  ; preds = %if.else.i72
  tail call void @_ZNKSt3__16vectorIiNS_9allocatorIiEEE20__throw_length_errorB7v170000Ev(ptr noundef nonnull align 8 dereferenceable(24) %others) #24
  unreachable

_ZNKSt3__16vectorIiNS_9allocatorIiEEE11__recommendB7v170000Em.exit.i.i79: ; preds = %if.else.i72
  %cmp3.not.i.i.i74 = icmp ult i64 %sub.ptr.sub.i.i.i68, 9223372036854775804
  %mul.i.i.i75 = lshr exact i64 %sub.ptr.sub.i.i.i68, 1
  %.sroa.speculated.i.i.i76 = tail call i64 @llvm.umax.i64(i64 %mul.i.i.i75, i64 %add.i.i70)
  %retval.0.i.i.i77 = select i1 %cmp3.not.i.i.i74, i64 %.sroa.speculated.i.i.i76, i64 4611686018427387903
  %cmp.i16.i.i78 = icmp eq i64 %retval.0.i.i.i77, 0
  br i1 %cmp.i16.i.i78, label %invoke.cont.i.i91, label %if.else.i.i.i81

if.else.i.i.i81:                                  ; preds = %_ZNKSt3__16vectorIiNS_9allocatorIiEEE11__recommendB7v170000Em.exit.i.i79
  %cmp.i.i.i.i.i80 = icmp ugt i64 %retval.0.i.i.i77, 4611686018427387903
  br i1 %cmp.i.i.i.i.i80, label %if.then.i.i.i.i.i82, label %_ZNSt3__119__allocate_at_leastB7v170000INS_9allocatorIiEEEENS_19__allocation_resultINS_16allocator_traitsIT_E7pointerEEERS5_m.exit.i.i.i85

if.then.i.i.i.i.i82:                              ; preds = %if.else.i.i.i81
  tail call void @_ZSt28__throw_bad_array_new_lengthB7v170000v() #24
  unreachable

_ZNSt3__119__allocate_at_leastB7v170000INS_9allocatorIiEEEENS_19__allocation_resultINS_16allocator_traitsIT_E7pointerEEERS5_m.exit.i.i.i85: ; preds = %if.else.i.i.i81
  %mul.i.i.i.i.i83 = shl nuw i64 %retval.0.i.i.i77, 2
  %call.i5.i.i.i.i.i.i84 = tail call noalias noundef nonnull ptr @_Znwm(i64 noundef %mul.i.i.i.i.i83) #25
  br label %invoke.cont.i.i91

invoke.cont.i.i91:                                ; preds = %_ZNSt3__119__allocate_at_leastB7v170000INS_9allocatorIiEEEENS_19__allocation_resultINS_16allocator_traitsIT_E7pointerEEERS5_m.exit.i.i.i85, %_ZNKSt3__16vectorIiNS_9allocatorIiEEE11__recommendB7v170000Em.exit.i.i79
  %storemerge.i.i.i86 = phi ptr [ %call.i5.i.i.i.i.i.i84, %_ZNSt3__119__allocate_at_leastB7v170000INS_9allocatorIiEEEENS_19__allocation_resultINS_16allocator_traitsIT_E7pointerEEERS5_m.exit.i.i.i85 ], [ null, %_ZNKSt3__16vectorIiNS_9allocatorIiEEE11__recommendB7v170000Em.exit.i.i79 ]
  %storemerge.i.i.i86126 = ptrtoint ptr %storemerge.i.i.i86 to i64
  %add.ptr.i.i.i87 = getelementptr inbounds i32, ptr %storemerge.i.i.i86, i64 %sub.ptr.div.i.i.i69
  %add.ptr6.i.i.i88 = getelementptr inbounds i32, ptr %storemerge.i.i.i86, i64 %retval.0.i.i.i77
  %64 = trunc i64 %indvars.iv to i32
  store i32 %64, ptr %add.ptr.i.i.i87, align 4, !tbaa !17
  %incdec.ptr.i4.i89 = getelementptr inbounds i32, ptr %add.ptr.i.i.i87, i64 1
  %cmp.i.not13.i.i.i.i.i.i.i.i.i90 = icmp eq ptr %60, %63
  br i1 %cmp.i.not13.i.i.i.i.i.i.i.i.i90, label %_ZNSt3__114__split_bufferIiRNS_9allocatorIiEEE5clearB7v170000Ev.exit.i.i.i100, label %while.body.i.i.i.i.i.i.i.i.i97.preheader

while.body.i.i.i.i.i.i.i.i.i97.preheader:         ; preds = %invoke.cont.i.i91
  %65 = add i64 %sub.ptr.lhs.cast.i.i.i66, -4
  %66 = sub i64 %65, %sub.ptr.rhs.cast.i.i.i67
  %67 = lshr i64 %66, 2
  %68 = add nuw nsw i64 %67, 1
  %min.iters.check = icmp ult i64 %66, 76
  br i1 %min.iters.check, label %while.body.i.i.i.i.i.i.i.i.i97.preheader190, label %vector.memcheck

vector.memcheck:                                  ; preds = %while.body.i.i.i.i.i.i.i.i.i97.preheader
  %69 = add i64 %sub.ptr.lhs.cast.i.i.i66, -4
  %70 = add i64 %storemerge.i.i.i86126, -4
  %71 = add i64 %70, %sub.ptr.sub.i.i.i68
  %72 = sub i64 %69, %71
  %diff.check = icmp ult i64 %72, 32
  br i1 %diff.check, label %while.body.i.i.i.i.i.i.i.i.i97.preheader190, label %vector.ph

vector.ph:                                        ; preds = %vector.memcheck
  %n.vec = and i64 %68, -8
  %73 = mul i64 %n.vec, -4
  %ind.end = getelementptr i8, ptr %add.ptr.i.i.i87, i64 %73
  %74 = mul i64 %n.vec, -4
  %ind.end127 = getelementptr i8, ptr %60, i64 %74
  br label %vector.body

vector.body:                                      ; preds = %vector.body, %vector.ph
  %index = phi i64 [ 0, %vector.ph ], [ %index.next, %vector.body ]
  %75 = mul i64 %index, -4
  %next.gep = getelementptr i8, ptr %add.ptr.i.i.i87, i64 %75
  %76 = mul i64 %index, -4
  %next.gep130 = getelementptr i8, ptr %60, i64 %76
  %77 = getelementptr inbounds i32, ptr %next.gep130, i64 -1
  %78 = getelementptr inbounds i32, ptr %77, i64 -3
  %wide.load = load <4 x i32>, ptr %78, align 4, !tbaa !17, !noalias !68
  %79 = getelementptr inbounds i32, ptr %77, i64 -4
  %80 = getelementptr inbounds i32, ptr %79, i64 -3
  %wide.load132 = load <4 x i32>, ptr %80, align 4, !tbaa !17, !noalias !68
  %81 = getelementptr inbounds i32, ptr %next.gep, i64 -1
  %82 = getelementptr inbounds i32, ptr %81, i64 -3
  store <4 x i32> %wide.load, ptr %82, align 4, !tbaa !17, !noalias !68
  %83 = getelementptr inbounds i32, ptr %81, i64 -4
  %84 = getelementptr inbounds i32, ptr %83, i64 -3
  store <4 x i32> %wide.load132, ptr %84, align 4, !tbaa !17, !noalias !68
  %index.next = add nuw i64 %index, 8
  %85 = icmp eq i64 %index.next, %n.vec
  br i1 %85, label %middle.block, label %vector.body, !llvm.loop !77

middle.block:                                     ; preds = %vector.body
  %cmp.n = icmp eq i64 %68, %n.vec
  br i1 %cmp.n, label %_ZNSt3__114__split_bufferIiRNS_9allocatorIiEEE5clearB7v170000Ev.exit.i.i.i100, label %while.body.i.i.i.i.i.i.i.i.i97.preheader190

while.body.i.i.i.i.i.i.i.i.i97.preheader190:      ; preds = %vector.memcheck, %while.body.i.i.i.i.i.i.i.i.i97.preheader, %middle.block
  %incdec.ptr.i15.i.i.i.i.i.i.i.i.i92.ph = phi ptr [ %add.ptr.i.i.i87, %vector.memcheck ], [ %add.ptr.i.i.i87, %while.body.i.i.i.i.i.i.i.i.i97.preheader ], [ %ind.end, %middle.block ]
  %__first.sroa.2.014.i.i.i.i.i.i.i.i.i93.ph = phi ptr [ %60, %vector.memcheck ], [ %60, %while.body.i.i.i.i.i.i.i.i.i97.preheader ], [ %ind.end127, %middle.block ]
  br label %while.body.i.i.i.i.i.i.i.i.i97

while.body.i.i.i.i.i.i.i.i.i97:                   ; preds = %while.body.i.i.i.i.i.i.i.i.i97.preheader190, %while.body.i.i.i.i.i.i.i.i.i97
  %incdec.ptr.i15.i.i.i.i.i.i.i.i.i92 = phi ptr [ %incdec.ptr.i.i.i.i.i.i.i.i.i.i95, %while.body.i.i.i.i.i.i.i.i.i97 ], [ %incdec.ptr.i15.i.i.i.i.i.i.i.i.i92.ph, %while.body.i.i.i.i.i.i.i.i.i97.preheader190 ]
  %__first.sroa.2.014.i.i.i.i.i.i.i.i.i93 = phi ptr [ %incdec.ptr.i.i.i.i.i.i.i.i.i.i.i94, %while.body.i.i.i.i.i.i.i.i.i97 ], [ %__first.sroa.2.014.i.i.i.i.i.i.i.i.i93.ph, %while.body.i.i.i.i.i.i.i.i.i97.preheader190 ]
  %incdec.ptr.i.i.i.i.i.i.i.i.i.i.i94 = getelementptr inbounds i32, ptr %__first.sroa.2.014.i.i.i.i.i.i.i.i.i93, i64 -1
  %86 = load i32, ptr %incdec.ptr.i.i.i.i.i.i.i.i.i.i.i94, align 4, !tbaa !17, !noalias !68
  %incdec.ptr.i.i.i.i.i.i.i.i.i.i95 = getelementptr inbounds i32, ptr %incdec.ptr.i15.i.i.i.i.i.i.i.i.i92, i64 -1
  store i32 %86, ptr %incdec.ptr.i.i.i.i.i.i.i.i.i.i95, align 4, !tbaa !17, !noalias !68
  %cmp.i.not.i.i.i.i.i.i.i.i.i96 = icmp eq ptr %incdec.ptr.i.i.i.i.i.i.i.i.i.i.i94, %63
  br i1 %cmp.i.not.i.i.i.i.i.i.i.i.i96, label %_ZNSt3__114__split_bufferIiRNS_9allocatorIiEEE5clearB7v170000Ev.exit.i.i.i100, label %while.body.i.i.i.i.i.i.i.i.i97, !llvm.loop !78

_ZNSt3__114__split_bufferIiRNS_9allocatorIiEEE5clearB7v170000Ev.exit.i.i.i100: ; preds = %while.body.i.i.i.i.i.i.i.i.i97, %middle.block, %invoke.cont.i.i91
  %storemerge.i.i98 = phi ptr [ %add.ptr.i.i.i87, %invoke.cont.i.i91 ], [ %ind.end, %middle.block ], [ %incdec.ptr.i.i.i.i.i.i.i.i.i.i95, %while.body.i.i.i.i.i.i.i.i.i97 ]
  store ptr %storemerge.i.i98, ptr %others, align 8, !tbaa !42
  store ptr %incdec.ptr.i4.i89, ptr %__end_.i61, align 8, !tbaa !42
  store ptr %add.ptr6.i.i.i88, ptr %__end_cap_.i.i62, align 8, !tbaa !42
  %tobool.not.i.i.i99 = icmp eq ptr %63, null
  br i1 %tobool.not.i.i.i99, label %if.end9, label %if.then.i19.i.i101

if.then.i19.i.i101:                               ; preds = %_ZNSt3__114__split_bufferIiRNS_9allocatorIiEEE5clearB7v170000Ev.exit.i.i.i100
  tail call void @_ZdlPv(ptr noundef nonnull %63) #22
  br label %if.end9

if.end9:                                          ; preds = %if.then.i19.i.i101, %_ZNSt3__114__split_bufferIiRNS_9allocatorIiEEE5clearB7v170000Ev.exit.i.i.i100, %if.then.i65, %if.then.i19.i.i59, %_ZNSt3__114__split_bufferIiRNS_9allocatorIiEEE5clearB7v170000Ev.exit.i.i.i58, %if.then.i23, %if.then.i19.i.i, %_ZNSt3__114__split_bufferIiRNS_9allocatorIiEEE5clearB7v170000Ev.exit.i.i.i, %if.then.i17
  %87 = load ptr, ptr %mapzs, align 8, !tbaa !14
  %arrayidx.i = getelementptr inbounds i32, ptr %87, i64 %indvars.iv
  store i32 %scount.0115, ptr %arrayidx.i, align 4, !tbaa !17
  %add = add nsw i32 %5, %scount.0115
  %indvars.iv.next = add nuw nsw i64 %indvars.iv, 1
  %exitcond.not = icmp eq i64 %indvars.iv.next, %wide.trip.count
  br i1 %exitcond.not, label %for.cond.cleanup, label %for.body, !llvm.loop !79
}

; Function Attrs: uwtable
define dso_local void @_ZN10ExportGold12writeGeoFileERKNSt3__112basic_stringIcNS0_11char_traitsIcEENS0_9allocatorIcEEEEid(ptr noundef nonnull align 8 dereferenceable(188) %this, ptr noundef nonnull readonly align 8 dereferenceable(24) %basename, i32 noundef %cycle, double noundef %time) local_unnamed_addr #2 align 2 personality ptr @__gxx_personality_v0 {
entry:
  %ref.tmp.i.i2125 = alloca %"class.std::__1::locale", align 8
  %ref.tmp.i.i2107 = alloca %"class.std::__1::locale", align 8
  %ref.tmp.i.i2089 = alloca %"class.std::__1::locale", align 8
  %ref.tmp.i.i2071 = alloca %"class.std::__1::locale", align 8
  %ref.tmp.i.i2052 = alloca %"class.std::__1::locale", align 8
  %ref.tmp.i.i2034 = alloca %"class.std::__1::locale", align 8
  %ref.tmp.i.i2016 = alloca %"class.std::__1::locale", align 8
  %ref.tmp.i.i1998 = alloca %"class.std::__1::locale", align 8
  %ref.tmp.i.i1980 = alloca %"class.std::__1::locale", align 8
  %ref.tmp.i.i1962 = alloca %"class.std::__1::locale", align 8
  %ref.tmp.i.i1944 = alloca %"class.std::__1::locale", align 8
  %ref.tmp.i.i1926 = alloca %"class.std::__1::locale", align 8
  %ref.tmp.i.i1908 = alloca %"class.std::__1::locale", align 8
  %ref.tmp.i.i1890 = alloca %"class.std::__1::locale", align 8
  %ref.tmp.i.i1872 = alloca %"class.std::__1::locale", align 8
  %ref.tmp.i.i1854 = alloca %"class.std::__1::locale", align 8
  %ref.tmp.i.i1836 = alloca %"class.std::__1::locale", align 8
  %ref.tmp.i.i1818 = alloca %"class.std::__1::locale", align 8
  %ref.tmp.i.i1799 = alloca %"class.std::__1::locale", align 8
  %ref.tmp.i.i1781 = alloca %"class.std::__1::locale", align 8
  %ref.tmp.i.i1762 = alloca %"class.std::__1::locale", align 8
  %ref.tmp.i.i1743 = alloca %"class.std::__1::locale", align 8
  %ref.tmp.i.i1725 = alloca %"class.std::__1::locale", align 8
  %ref.tmp.i.i1707 = alloca %"class.std::__1::locale", align 8
  %ref.tmp.i.i = alloca %"class.std::__1::locale", align 8
  %ofs = alloca %"class.std::__1::basic_ofstream", align 8
  %filename = alloca %"class.std::__1::basic_string", align 8
  %gnump = alloca i32, align 4
  %penump = alloca %"class.std::__1::vector.1", align 8
  %peoffset = alloca %"class.std::__1::vector.1", align 8
  %offset = alloca i32, align 4
  %gpx = alloca %"class.std::__1::vector.16", align 8
  %pesizes = alloca %"class.std::__1::vector.1", align 8
  %trip = alloca %"class.std::__1::vector.1", align 8
  %gtris = alloca %"class.std::__1::vector.1", align 8
  %quadp = alloca %"class.std::__1::vector.1", align 8
  %gquads = alloca %"class.std::__1::vector.1", align 8
  %othernump = alloca %"class.std::__1::vector.1", align 8
  %otherp = alloca %"class.std::__1::vector.1", align 8
  %gothers = alloca %"class.std::__1::vector.1", align 8
  %gotherp = alloca %"class.std::__1::vector.1", align 8
  call void @llvm.lifetime.start.p0(i64 328, ptr nonnull %ofs) #23
  %0 = getelementptr inbounds i8, ptr %ofs, i64 176
  %__sb_.i = getelementptr inbounds %"class.std::__1::basic_ofstream", ptr %ofs, i64 0, i32 1
  store ptr getelementptr inbounds ({ [5 x ptr], [5 x ptr] }, ptr @_ZTCNSt3__114basic_ofstreamIcNS_11char_traitsIcEEEE0_NS_13basic_ostreamIcS2_EE, i64 0, inrange i32 0, i64 3), ptr %ofs, align 8, !tbaa !21
  store ptr getelementptr inbounds ({ [5 x ptr], [5 x ptr] }, ptr @_ZTCNSt3__114basic_ofstreamIcNS_11char_traitsIcEEEE0_NS_13basic_ostreamIcS2_EE, i64 0, inrange i32 1, i64 3), ptr %0, align 8, !tbaa !21
  invoke void @_ZNSt3__18ios_base4initEPv(ptr noundef nonnull align 8 dereferenceable(136) %0, ptr noundef nonnull %__sb_.i)
          to label %invoke.cont.i unwind label %lpad.i

invoke.cont.i:                                    ; preds = %entry
  %__tie_.i.i.i = getelementptr inbounds i8, ptr %ofs, i64 312
  store ptr null, ptr %__tie_.i.i.i, align 8, !tbaa !23
  %__fill_.i.i.i = getelementptr inbounds i8, ptr %ofs, i64 320
  store i32 -1, ptr %__fill_.i.i.i, align 8, !tbaa !27
  store ptr getelementptr inbounds ({ [5 x ptr], [5 x ptr] }, ptr @_ZTVNSt3__114basic_ofstreamIcNS_11char_traitsIcEEEE, i64 0, inrange i32 0, i64 3), ptr %ofs, align 8, !tbaa !21
  store ptr getelementptr inbounds ({ [5 x ptr], [5 x ptr] }, ptr @_ZTVNSt3__114basic_ofstreamIcNS_11char_traitsIcEEEE, i64 0, inrange i32 1, i64 3), ptr %0, align 8, !tbaa !21
  invoke void @_ZNSt3__113basic_filebufIcNS_11char_traitsIcEEEC2Ev(ptr noundef nonnull align 8 dereferenceable(163) %__sb_.i)
          to label %_ZNSt3__114basic_ofstreamIcNS_11char_traitsIcEEEC1Ev.exit unwind label %lpad4.i

lpad.i:                                           ; preds = %entry
  %1 = landingpad { ptr, i32 }
          cleanup
  br label %ehcleanup.i

lpad4.i:                                          ; preds = %invoke.cont.i
  %2 = landingpad { ptr, i32 }
          cleanup
  call void @_ZNSt3__113basic_ostreamIcNS_11char_traitsIcEEED2Ev(ptr noundef nonnull align 8 dereferenceable(8) %ofs, ptr noundef nonnull getelementptr inbounds ([4 x ptr], ptr @_ZTTNSt3__114basic_ofstreamIcNS_11char_traitsIcEEEE, i64 0, i64 1)) #23
  br label %ehcleanup.i

common.resume:                                    ; preds = %ehcleanup844, %ehcleanup.i
  %common.resume.op = phi { ptr, i32 } [ %.pn.i, %ehcleanup.i ], [ %.pn936.pn.pn.pn.pn.pn.pn.pn, %ehcleanup844 ]
  resume { ptr, i32 } %common.resume.op

ehcleanup.i:                                      ; preds = %lpad4.i, %lpad.i
  %.pn.i = phi { ptr, i32 } [ %2, %lpad4.i ], [ %1, %lpad.i ]
  call void @_ZNSt3__19basic_iosIcNS_11char_traitsIcEEED2Ev(ptr noundef nonnull align 8 dereferenceable(148) %0) #23
  br label %common.resume

_ZNSt3__114basic_ofstreamIcNS_11char_traitsIcEEEC1Ev.exit: ; preds = %invoke.cont.i
  %3 = load i32, ptr @_ZN8Parallel4mypeE, align 4, !tbaa !17
  %cmp = icmp eq i32 %3, 0
  br i1 %cmp, label %if.then, label %if.end83

if.then:                                          ; preds = %_ZNSt3__114basic_ofstreamIcNS_11char_traitsIcEEEC1Ev.exit
  call void @llvm.lifetime.start.p0(i64 24, ptr nonnull %filename) #23
  call void @llvm.experimental.noalias.scope.decl(metadata !80)
  %bf.load.i.i.i = load i8, ptr %basename, align 8, !noalias !80
  %bf.clear.i.i.i = and i8 %bf.load.i.i.i, 1
  %tobool.i.not.i.i = icmp eq i8 %bf.clear.i.i.i, 0
  %__size_.i.i.i = getelementptr inbounds %"struct.std::__1::basic_string<char>::__long", ptr %basename, i64 0, i32 1
  %4 = load i64, ptr %__size_.i.i.i, align 8, !noalias !80
  %bf.lshr.i.i.i = lshr i8 %bf.load.i.i.i, 1
  %conv.i.i.i = zext i8 %bf.lshr.i.i.i to i64
  %cond.i.i = select i1 %tobool.i.not.i.i, i64 %conv.i.i.i, i64 %4
  %add.i = add i64 %cond.i.i, 4
  %cmp.i.i = icmp ugt i64 %add.i, -17
  br i1 %cmp.i.i, label %if.then.i.i, label %if.end.i.i

if.then.i.i:                                      ; preds = %if.then
  invoke void @_ZNKSt3__112basic_stringIcNS_11char_traitsIcEENS_9allocatorIcEEE20__throw_length_errorB7v170000Ev(ptr noundef nonnull align 8 dereferenceable(24) %filename) #24
          to label %.noexc unwind label %lpad

.noexc:                                           ; preds = %if.then.i.i
  unreachable

if.end.i.i:                                       ; preds = %if.then
  %cmp.i.i.i = icmp ult i64 %add.i, 23
  br i1 %cmp.i.i.i, label %if.then3.i.i, label %if.else.i.i

if.then3.i.i:                                     ; preds = %if.end.i.i
  call void @llvm.memset.p0.i64(ptr noundef nonnull align 8 dereferenceable(24) %filename, i8 0, i64 24, i1 false), !alias.scope !80
  %conv.i.i22.i = trunc i64 %add.i to i8
  %bf.shl.i.i.i = shl nuw nsw i8 %conv.i.i22.i, 1
  store i8 %bf.shl.i.i.i, ptr %filename, align 8, !alias.scope !80
  br label %invoke.cont

if.else.i.i:                                      ; preds = %if.end.i.i
  %sub.i.i.i = or i64 %add.i, 15
  %add.i.i = add i64 %sub.i.i.i, 1
  %call.i5.i.i.i.i.i956 = invoke noalias noundef nonnull ptr @_Znwm(i64 noundef %add.i.i) #25
          to label %call.i5.i.i.i.i.i.noexc unwind label %lpad

call.i5.i.i.i.i.i.noexc:                          ; preds = %if.else.i.i
  %bf.set6.i.i.i = or i64 %add.i.i, 1
  store i64 %bf.set6.i.i.i, ptr %filename, align 8, !alias.scope !80
  %__data_.i.i.i = getelementptr inbounds %"struct.std::__1::basic_string<char>::__long", ptr %filename, i64 0, i32 2
  store ptr %call.i5.i.i.i.i.i956, ptr %__data_.i.i.i, align 8, !tbaa !16, !alias.scope !80
  %__size_.i.i23.i = getelementptr inbounds %"struct.std::__1::basic_string<char>::__long", ptr %filename, i64 0, i32 1
  store i64 %add.i, ptr %__size_.i.i23.i, align 8, !tbaa !16, !alias.scope !80
  %5 = trunc i64 %bf.set6.i.i.i to i8
  br label %invoke.cont

invoke.cont:                                      ; preds = %call.i5.i.i.i.i.i.noexc, %if.then3.i.i
  %6 = phi ptr [ null, %if.then3.i.i ], [ %call.i5.i.i.i.i.i956, %call.i5.i.i.i.i.i.noexc ]
  %bf.load.i.i24.i = phi i8 [ %bf.shl.i.i.i, %if.then3.i.i ], [ %5, %call.i5.i.i.i.i.i.noexc ]
  %bf.clear.i.i25.i = and i8 %bf.load.i.i24.i, 1
  %tobool.i.not.i26.i = icmp eq i8 %bf.clear.i.i25.i, 0
  %__data_.i4.i.i = getelementptr inbounds %"struct.std::__1::basic_string<char>::__short", ptr %filename, i64 0, i32 2
  %cond.i28.i = select i1 %tobool.i.not.i26.i, ptr %__data_.i4.i.i, ptr %6
  %__data_.i.i.i.i = getelementptr inbounds %"struct.std::__1::basic_string<char>::__long", ptr %basename, i64 0, i32 2
  %7 = load ptr, ptr %__data_.i.i.i.i, align 8, !noalias !80
  %__data_.i4.i.i.i = getelementptr inbounds %"struct.std::__1::basic_string<char>::__short", ptr %basename, i64 0, i32 2
  %cond.i.i.i = select i1 %tobool.i.not.i.i, ptr %__data_.i4.i.i.i, ptr %7
  %cmp.i29.i = icmp ult ptr %cond.i.i.i, %cond.i28.i
  %add.ptr.i.i = getelementptr inbounds i8, ptr %cond.i28.i, i64 %cond.i.i
  %cmp1.i.i = icmp ule ptr %add.ptr.i.i, %cond.i.i.i
  %8 = or i1 %cmp.i29.i, %cmp1.i.i
  call void @llvm.assume(i1 %8)
  call void @llvm.memmove.p0.p0.i64(ptr align 1 %cond.i28.i, ptr align 1 %cond.i.i.i, i64 %cond.i.i, i1 false)
  %cmp.i30.i = icmp ugt ptr %add.ptr.i.i, @.str.12
  %add.ptr.i31.i = getelementptr inbounds i8, ptr %add.ptr.i.i, i64 4
  %cmp1.i32.i = icmp ule ptr %add.ptr.i31.i, @.str.12
  %9 = or i1 %cmp.i30.i, %cmp1.i32.i
  call void @llvm.assume(i1 %9)
  store i32 1868916526, ptr %add.ptr.i.i, align 1
  store i8 0, ptr %add.ptr.i31.i, align 1
  %__data_.i.i.i.i957 = getelementptr inbounds %"struct.std::__1::basic_string<char>::__long", ptr %filename, i64 0, i32 2
  %__file_.i = getelementptr inbounds %"class.std::__1::basic_ofstream", ptr %ofs, i64 0, i32 1, i32 8
  %10 = load ptr, ptr %__file_.i, align 8, !tbaa !28
  %cmp.i1696 = icmp eq ptr %10, null
  br i1 %cmp.i1696, label %if.then.i1697, label %if.else.i

if.then.i1697:                                    ; preds = %invoke.cont
  %bf.load.i.i.i.i = load i8, ptr %filename, align 8
  %bf.clear.i.i.i.i = and i8 %bf.load.i.i.i.i, 1
  %tobool.i.not.i.i.i = icmp eq i8 %bf.clear.i.i.i.i, 0
  %11 = load ptr, ptr %__data_.i.i.i.i957, align 8
  %cond.i.i.i959 = select i1 %tobool.i.not.i.i.i, ptr %__data_.i4.i.i, ptr %11
  %call3.i = call ptr @fopen(ptr noundef %cond.i.i.i959, ptr noundef nonnull @.str.32)
  store ptr %call3.i, ptr %__file_.i, align 8, !tbaa !28
  %tobool6.not.i = icmp eq ptr %call3.i, null
  br i1 %tobool6.not.i, label %if.else.i, label %call.i.noexc

call.i.noexc:                                     ; preds = %if.then.i1697
  %__om_.i = getelementptr inbounds %"class.std::__1::basic_ofstream", ptr %ofs, i64 0, i32 1, i32 12
  store i32 16, ptr %__om_.i, align 8, !tbaa !34
  %vtable2.i = load ptr, ptr %ofs, align 8, !tbaa !21
  %vbase.offset.ptr3.i = getelementptr i8, ptr %vtable2.i, i64 -24
  %vbase.offset4.i = load i64, ptr %vbase.offset.ptr3.i, align 8
  %add.ptr5.i = getelementptr inbounds i8, ptr %ofs, i64 %vbase.offset4.i
  br label %if.end.i

if.else.i:                                        ; preds = %invoke.cont, %if.then.i1697
  %vtable2.i2146 = load ptr, ptr %ofs, align 8, !tbaa !21
  %vbase.offset.ptr3.i2147 = getelementptr i8, ptr %vtable2.i2146, i64 -24
  %vbase.offset4.i2148 = load i64, ptr %vbase.offset.ptr3.i2147, align 8
  %add.ptr5.i2149 = getelementptr inbounds i8, ptr %ofs, i64 %vbase.offset4.i2148
  %__rdstate_.i.i.i = getelementptr inbounds %"class.std::__1::ios_base", ptr %add.ptr5.i2149, i64 0, i32 4
  %12 = load i32, ptr %__rdstate_.i.i.i, align 8, !tbaa !35
  %or.i.i.i = or i32 %12, 4
  br label %if.end.i

if.end.i:                                         ; preds = %call.i.noexc, %if.else.i
  %add.ptr5.i2151 = phi ptr [ %add.ptr5.i2149, %if.else.i ], [ %add.ptr5.i, %call.i.noexc ]
  %or.i.i.sink.i = phi i32 [ %or.i.i.i, %if.else.i ], [ 0, %call.i.noexc ]
  invoke void @_ZNSt3__18ios_base5clearEj(ptr noundef nonnull align 8 dereferenceable(136) %add.ptr5.i2151, i32 noundef %or.i.i.sink.i)
          to label %invoke.cont4 unwind label %lpad2

invoke.cont4:                                     ; preds = %if.end.i
  %vtable = load ptr, ptr %ofs, align 8, !tbaa !21
  %vbase.offset.ptr = getelementptr i8, ptr %vtable, i64 -24
  %vbase.offset = load i64, ptr %vbase.offset.ptr, align 8
  %add.ptr = getelementptr inbounds i8, ptr %ofs, i64 %vbase.offset
  %__rdstate_.i.i = getelementptr inbounds %"class.std::__1::ios_base", ptr %add.ptr, i64 0, i32 4
  %13 = load i32, ptr %__rdstate_.i.i, align 8, !tbaa !35
  %cmp.i.i963 = icmp eq i32 %13, 0
  br i1 %cmp.i.i963, label %if.end, label %if.then6

if.then6:                                         ; preds = %invoke.cont4
  %call1.i965 = invoke noundef nonnull align 8 dereferenceable(8) ptr @_ZNSt3__124__put_character_sequenceB7v170000IcNS_11char_traitsIcEEEERNS_13basic_ostreamIT_T0_EES7_PKS4_m(ptr noundef nonnull align 8 dereferenceable(8) @_ZNSt3__14cerrE, ptr noundef nonnull @.str.4, i64 noundef 17)
          to label %invoke.cont7 unwind label %lpad2

invoke.cont7:                                     ; preds = %if.then6
  %call10 = invoke noundef nonnull align 8 dereferenceable(8) ptr @_ZNSt3__1lsB7v170000IcNS_11char_traitsIcEENS_9allocatorIcEEEERNS_13basic_ostreamIT_T0_EES9_RKNS_12basic_stringIS6_S7_T1_EE(ptr noundef nonnull align 8 dereferenceable(8) %call1.i965, ptr noundef nonnull align 8 dereferenceable(24) %filename)
          to label %invoke.cont9 unwind label %lpad2

invoke.cont9:                                     ; preds = %invoke.cont7
  %call1.i967 = invoke noundef nonnull align 8 dereferenceable(8) ptr @_ZNSt3__124__put_character_sequenceB7v170000IcNS_11char_traitsIcEEEERNS_13basic_ostreamIT_T0_EES7_PKS4_m(ptr noundef nonnull align 8 dereferenceable(8) %call10, ptr noundef nonnull @.str.5, i64 noundef 12)
          to label %invoke.cont11 unwind label %lpad2

invoke.cont11:                                    ; preds = %invoke.cont9
  %call.i970 = invoke noundef nonnull align 8 dereferenceable(8) ptr @_ZNSt3__14endlB7v170000IcNS_11char_traitsIcEEEERNS_13basic_ostreamIT_T0_EES7_(ptr noundef nonnull align 8 dereferenceable(8) %call1.i967)
          to label %invoke.cont13 unwind label %lpad2

invoke.cont13:                                    ; preds = %invoke.cont11
  call void @exit(i32 noundef 1) #26
  unreachable

lpad:                                             ; preds = %if.else.i.i, %if.then.i.i
  %14 = landingpad { ptr, i32 }
          cleanup
  br label %ehcleanup

lpad2:                                            ; preds = %invoke.cont11, %invoke.cont9, %if.then6, %if.end.i, %invoke.cont7
  %15 = landingpad { ptr, i32 }
          cleanup
  %bf.load.i.i = load i8, ptr %filename, align 8
  %bf.clear.i.i = and i8 %bf.load.i.i, 1
  %tobool.i.not.i = icmp eq i8 %bf.clear.i.i, 0
  br i1 %tobool.i.not.i, label %ehcleanup, label %if.then.i

if.then.i:                                        ; preds = %lpad2
  %16 = load ptr, ptr %__data_.i.i.i.i957, align 8, !tbaa !16
  call void @_ZdlPv(ptr noundef %16) #22
  br label %ehcleanup

if.end:                                           ; preds = %invoke.cont4
  %bf.load.i.i972 = load i8, ptr %filename, align 8
  %bf.clear.i.i973 = and i8 %bf.load.i.i972, 1
  %tobool.i.not.i974 = icmp eq i8 %bf.clear.i.i973, 0
  br i1 %tobool.i.not.i974, label %if.end15, label %if.then.i976

if.then.i976:                                     ; preds = %if.end
  %17 = load ptr, ptr %__data_.i.i.i.i957, align 8, !tbaa !16
  call void @_ZdlPv(ptr noundef %17) #22
  br label %if.end15

ehcleanup:                                        ; preds = %if.then.i, %lpad2, %lpad
  %.pn951 = phi { ptr, i32 } [ %14, %lpad ], [ %15, %lpad2 ], [ %15, %if.then.i ]
  call void @llvm.lifetime.end.p0(i64 24, ptr nonnull %filename) #23
  br label %ehcleanup844

if.end15:                                         ; preds = %if.then.i976, %if.end
  call void @llvm.lifetime.end.p0(i64 24, ptr nonnull %filename) #23
  %.pr = load i32, ptr @_ZN8Parallel4mypeE, align 4, !tbaa !17
  %cmp16 = icmp eq i32 %.pr, 0
  br i1 %cmp16, label %invoke.cont19, label %if.end83

invoke.cont19:                                    ; preds = %if.end15
  %vtable.i = load ptr, ptr %ofs, align 8, !tbaa !21
  %vbase.offset.ptr.i = getelementptr i8, ptr %vtable.i, i64 -24
  %vbase.offset.i = load i64, ptr %vbase.offset.ptr.i, align 8
  %add.ptr.i = getelementptr inbounds i8, ptr %ofs, i64 %vbase.offset.i
  %__fmtflags_.i.i = getelementptr inbounds %"class.std::__1::ios_base", ptr %add.ptr.i, i64 0, i32 1
  %18 = load i32, ptr %__fmtflags_.i.i, align 8, !tbaa !83
  %and.i.i.i = and i32 %18, -261
  %or.i.i = or i32 %and.i.i.i, 256
  store i32 %or.i.i, ptr %__fmtflags_.i.i, align 8, !tbaa !83
  %call1.i982 = invoke noundef nonnull align 8 dereferenceable(8) ptr @_ZNSt3__124__put_character_sequenceB7v170000IcNS_11char_traitsIcEEEERNS_13basic_ostreamIT_T0_EES7_PKS4_m(ptr noundef nonnull align 8 dereferenceable(8) %ofs, ptr noundef nonnull @.str.20, i64 noundef 8)
          to label %invoke.cont24 unwind label %lpad18

invoke.cont24:                                    ; preds = %invoke.cont19
  %vtable.i984 = load ptr, ptr %call1.i982, align 8, !tbaa !21
  %vbase.offset.ptr.i985 = getelementptr i8, ptr %vtable.i984, i64 -24
  %vbase.offset.i986 = load i64, ptr %vbase.offset.ptr.i985, align 8
  %add.ptr.i987 = getelementptr inbounds i8, ptr %call1.i982, i64 %vbase.offset.i986
  %__width_.i.i = getelementptr inbounds %"class.std::__1::ios_base", ptr %add.ptr.i987, i64 0, i32 3
  store i64 8, ptr %__width_.i.i, align 8, !tbaa !84
  %call29 = invoke noundef nonnull align 8 dereferenceable(8) ptr @_ZNSt3__113basic_ostreamIcNS_11char_traitsIcEEElsEi(ptr noundef nonnull align 8 dereferenceable(8) %call1.i982, i32 noundef %cycle)
          to label %invoke.cont28 unwind label %lpad23

invoke.cont28:                                    ; preds = %invoke.cont24
  %vtable.i1698 = load ptr, ptr %call29, align 8, !tbaa !21
  %vbase.offset.ptr.i1699 = getelementptr i8, ptr %vtable.i1698, i64 -24
  %vbase.offset.i1700 = load i64, ptr %vbase.offset.ptr.i1699, align 8
  %add.ptr.i1701 = getelementptr inbounds i8, ptr %call29, i64 %vbase.offset.i1700
  call void @llvm.lifetime.start.p0(i64 8, ptr nonnull %ref.tmp.i.i) #23
  invoke void @_ZNKSt3__18ios_base6getlocEv(ptr nonnull sret(%"class.std::__1::locale") align 8 %ref.tmp.i.i, ptr noundef nonnull align 8 dereferenceable(136) %add.ptr.i1701)
          to label %.noexc1703 unwind label %lpad23

.noexc1703:                                       ; preds = %invoke.cont28
  %call.i5.i.i = invoke noundef ptr @_ZNKSt3__16locale9use_facetERNS0_2idE(ptr noundef nonnull align 8 dereferenceable(8) %ref.tmp.i.i, ptr noundef nonnull align 8 dereferenceable(12) @_ZNSt3__15ctypeIcE2idE)
          to label %invoke.cont.i.i1702 unwind label %lpad.i.i

invoke.cont.i.i1702:                              ; preds = %.noexc1703
  %vtable.i.i.i = load ptr, ptr %call.i5.i.i, align 8, !tbaa !21
  %vfn.i.i.i = getelementptr inbounds ptr, ptr %vtable.i.i.i, i64 7
  %19 = load ptr, ptr %vfn.i.i.i, align 8
  %call.i6.i.i = invoke noundef signext i8 %19(ptr noundef nonnull align 8 dereferenceable(25) %call.i5.i.i, i8 noundef signext 10)
          to label %_ZNKSt3__19basic_iosIcNS_11char_traitsIcEEE5widenB7v170000Ec.exit.i unwind label %lpad.i.i

lpad.i.i:                                         ; preds = %invoke.cont.i.i1702, %.noexc1703
  %20 = landingpad { ptr, i32 }
          cleanup
  call void @_ZNSt3__16localeD1Ev(ptr noundef nonnull align 8 dereferenceable(8) %ref.tmp.i.i) #23
  call void @llvm.lifetime.end.p0(i64 8, ptr nonnull %ref.tmp.i.i) #23
  br label %ehcleanup844

_ZNKSt3__19basic_iosIcNS_11char_traitsIcEEE5widenB7v170000Ec.exit.i: ; preds = %invoke.cont.i.i1702
  call void @_ZNSt3__16localeD1Ev(ptr noundef nonnull align 8 dereferenceable(8) %ref.tmp.i.i) #23
  call void @llvm.lifetime.end.p0(i64 8, ptr nonnull %ref.tmp.i.i) #23
  %call1.i1705 = invoke noundef nonnull align 8 dereferenceable(8) ptr @_ZNSt3__113basic_ostreamIcNS_11char_traitsIcEEE3putEc(ptr noundef nonnull align 8 dereferenceable(8) %call29, i8 noundef signext %call.i6.i.i)
          to label %call1.i.noexc unwind label %lpad23

call1.i.noexc:                                    ; preds = %_ZNKSt3__19basic_iosIcNS_11char_traitsIcEEE5widenB7v170000Ec.exit.i
  %call2.i1706 = invoke noundef nonnull align 8 dereferenceable(8) ptr @_ZNSt3__113basic_ostreamIcNS_11char_traitsIcEEE5flushEv(ptr noundef nonnull align 8 dereferenceable(8) %call29)
          to label %invoke.cont38 unwind label %lpad23

invoke.cont38:                                    ; preds = %call1.i.noexc
  %vtable.i991 = load ptr, ptr %ofs, align 8, !tbaa !21
  %vbase.offset.ptr.i992 = getelementptr i8, ptr %vtable.i991, i64 -24
  %vbase.offset.i993 = load i64, ptr %vbase.offset.ptr.i992, align 8
  %add.ptr.i994 = getelementptr inbounds i8, ptr %ofs, i64 %vbase.offset.i993
  %__precision_.i.i = getelementptr inbounds %"class.std::__1::ios_base", ptr %add.ptr.i994, i64 0, i32 2
  store i64 8, ptr %__precision_.i.i, align 8, !tbaa !85
  %call1.i997 = invoke noundef nonnull align 8 dereferenceable(8) ptr @_ZNSt3__124__put_character_sequenceB7v170000IcNS_11char_traitsIcEEEERNS_13basic_ostreamIT_T0_EES7_PKS4_m(ptr noundef nonnull align 8 dereferenceable(8) %ofs, ptr noundef nonnull @.str.21, i64 noundef 4)
          to label %invoke.cont45 unwind label %lpad18

invoke.cont45:                                    ; preds = %invoke.cont38
  %vtable.i999 = load ptr, ptr %call1.i997, align 8, !tbaa !21
  %vbase.offset.ptr.i1000 = getelementptr i8, ptr %vtable.i999, i64 -24
  %vbase.offset.i1001 = load i64, ptr %vbase.offset.ptr.i1000, align 8
  %add.ptr.i1002 = getelementptr inbounds i8, ptr %call1.i997, i64 %vbase.offset.i1001
  %__width_.i.i1004 = getelementptr inbounds %"class.std::__1::ios_base", ptr %add.ptr.i1002, i64 0, i32 3
  store i64 15, ptr %__width_.i.i1004, align 8, !tbaa !84
  %call51 = invoke noundef nonnull align 8 dereferenceable(8) ptr @_ZNSt3__113basic_ostreamIcNS_11char_traitsIcEEElsEd(ptr noundef nonnull align 8 dereferenceable(8) %call1.i997, double noundef %time)
          to label %invoke.cont50 unwind label %lpad44

invoke.cont50:                                    ; preds = %invoke.cont45
  %vtable.i1708 = load ptr, ptr %call51, align 8, !tbaa !21
  %vbase.offset.ptr.i1709 = getelementptr i8, ptr %vtable.i1708, i64 -24
  %vbase.offset.i1710 = load i64, ptr %vbase.offset.ptr.i1709, align 8
  %add.ptr.i1711 = getelementptr inbounds i8, ptr %call51, i64 %vbase.offset.i1710
  call void @llvm.lifetime.start.p0(i64 8, ptr nonnull %ref.tmp.i.i1707) #23
  invoke void @_ZNKSt3__18ios_base6getlocEv(ptr nonnull sret(%"class.std::__1::locale") align 8 %ref.tmp.i.i1707, ptr noundef nonnull align 8 dereferenceable(136) %add.ptr.i1711)
          to label %.noexc1719 unwind label %lpad44

.noexc1719:                                       ; preds = %invoke.cont50
  %call.i5.i.i1712 = invoke noundef ptr @_ZNKSt3__16locale9use_facetERNS0_2idE(ptr noundef nonnull align 8 dereferenceable(8) %ref.tmp.i.i1707, ptr noundef nonnull align 8 dereferenceable(12) @_ZNSt3__15ctypeIcE2idE)
          to label %invoke.cont.i.i1716 unwind label %lpad.i.i1717

invoke.cont.i.i1716:                              ; preds = %.noexc1719
  %vtable.i.i.i1713 = load ptr, ptr %call.i5.i.i1712, align 8, !tbaa !21
  %vfn.i.i.i1714 = getelementptr inbounds ptr, ptr %vtable.i.i.i1713, i64 7
  %21 = load ptr, ptr %vfn.i.i.i1714, align 8
  %call.i6.i.i1715 = invoke noundef signext i8 %21(ptr noundef nonnull align 8 dereferenceable(25) %call.i5.i.i1712, i8 noundef signext 10)
          to label %_ZNKSt3__19basic_iosIcNS_11char_traitsIcEEE5widenB7v170000Ec.exit.i1718 unwind label %lpad.i.i1717

lpad.i.i1717:                                     ; preds = %invoke.cont.i.i1716, %.noexc1719
  %22 = landingpad { ptr, i32 }
          cleanup
  call void @_ZNSt3__16localeD1Ev(ptr noundef nonnull align 8 dereferenceable(8) %ref.tmp.i.i1707) #23
  call void @llvm.lifetime.end.p0(i64 8, ptr nonnull %ref.tmp.i.i1707) #23
  br label %ehcleanup844

_ZNKSt3__19basic_iosIcNS_11char_traitsIcEEE5widenB7v170000Ec.exit.i1718: ; preds = %invoke.cont.i.i1716
  call void @_ZNSt3__16localeD1Ev(ptr noundef nonnull align 8 dereferenceable(8) %ref.tmp.i.i1707) #23
  call void @llvm.lifetime.end.p0(i64 8, ptr nonnull %ref.tmp.i.i1707) #23
  %call1.i1722 = invoke noundef nonnull align 8 dereferenceable(8) ptr @_ZNSt3__113basic_ostreamIcNS_11char_traitsIcEEE3putEc(ptr noundef nonnull align 8 dereferenceable(8) %call51, i8 noundef signext %call.i6.i.i1715)
          to label %call1.i.noexc1721 unwind label %lpad44

call1.i.noexc1721:                                ; preds = %_ZNKSt3__19basic_iosIcNS_11char_traitsIcEEE5widenB7v170000Ec.exit.i1718
  %call2.i1723 = invoke noundef nonnull align 8 dereferenceable(8) ptr @_ZNSt3__113basic_ostreamIcNS_11char_traitsIcEEE5flushEv(ptr noundef nonnull align 8 dereferenceable(8) %call51)
          to label %invoke.cont52 unwind label %lpad44

invoke.cont52:                                    ; preds = %call1.i.noexc1721
  %call1.i1009 = invoke noundef nonnull align 8 dereferenceable(8) ptr @_ZNSt3__124__put_character_sequenceB7v170000IcNS_11char_traitsIcEEEERNS_13basic_ostreamIT_T0_EES7_PKS4_m(ptr noundef nonnull align 8 dereferenceable(8) %ofs, ptr noundef nonnull @.str.22, i64 noundef 14)
          to label %invoke.cont55 unwind label %lpad18

invoke.cont55:                                    ; preds = %invoke.cont52
  %vtable.i1726 = load ptr, ptr %call1.i1009, align 8, !tbaa !21
  %vbase.offset.ptr.i1727 = getelementptr i8, ptr %vtable.i1726, i64 -24
  %vbase.offset.i1728 = load i64, ptr %vbase.offset.ptr.i1727, align 8
  %add.ptr.i1729 = getelementptr inbounds i8, ptr %call1.i1009, i64 %vbase.offset.i1728
  call void @llvm.lifetime.start.p0(i64 8, ptr nonnull %ref.tmp.i.i1725) #23
  invoke void @_ZNKSt3__18ios_base6getlocEv(ptr nonnull sret(%"class.std::__1::locale") align 8 %ref.tmp.i.i1725, ptr noundef nonnull align 8 dereferenceable(136) %add.ptr.i1729)
          to label %.noexc1737 unwind label %lpad18

.noexc1737:                                       ; preds = %invoke.cont55
  %call.i5.i.i1730 = invoke noundef ptr @_ZNKSt3__16locale9use_facetERNS0_2idE(ptr noundef nonnull align 8 dereferenceable(8) %ref.tmp.i.i1725, ptr noundef nonnull align 8 dereferenceable(12) @_ZNSt3__15ctypeIcE2idE)
          to label %invoke.cont.i.i1734 unwind label %lpad.i.i1735

invoke.cont.i.i1734:                              ; preds = %.noexc1737
  %vtable.i.i.i1731 = load ptr, ptr %call.i5.i.i1730, align 8, !tbaa !21
  %vfn.i.i.i1732 = getelementptr inbounds ptr, ptr %vtable.i.i.i1731, i64 7
  %23 = load ptr, ptr %vfn.i.i.i1732, align 8
  %call.i6.i.i1733 = invoke noundef signext i8 %23(ptr noundef nonnull align 8 dereferenceable(25) %call.i5.i.i1730, i8 noundef signext 10)
          to label %_ZNKSt3__19basic_iosIcNS_11char_traitsIcEEE5widenB7v170000Ec.exit.i1736 unwind label %lpad.i.i1735

lpad.i.i1735:                                     ; preds = %invoke.cont.i.i1734, %.noexc1737
  %24 = landingpad { ptr, i32 }
          cleanup
  call void @_ZNSt3__16localeD1Ev(ptr noundef nonnull align 8 dereferenceable(8) %ref.tmp.i.i1725) #23
  call void @llvm.lifetime.end.p0(i64 8, ptr nonnull %ref.tmp.i.i1725) #23
  br label %ehcleanup844

_ZNKSt3__19basic_iosIcNS_11char_traitsIcEEE5widenB7v170000Ec.exit.i1736: ; preds = %invoke.cont.i.i1734
  call void @_ZNSt3__16localeD1Ev(ptr noundef nonnull align 8 dereferenceable(8) %ref.tmp.i.i1725) #23
  call void @llvm.lifetime.end.p0(i64 8, ptr nonnull %ref.tmp.i.i1725) #23
  %call1.i1740 = invoke noundef nonnull align 8 dereferenceable(8) ptr @_ZNSt3__113basic_ostreamIcNS_11char_traitsIcEEE3putEc(ptr noundef nonnull align 8 dereferenceable(8) %call1.i1009, i8 noundef signext %call.i6.i.i1733)
          to label %call1.i.noexc1739 unwind label %lpad18

call1.i.noexc1739:                                ; preds = %_ZNKSt3__19basic_iosIcNS_11char_traitsIcEEE5widenB7v170000Ec.exit.i1736
  %call2.i1741 = invoke noundef nonnull align 8 dereferenceable(8) ptr @_ZNSt3__113basic_ostreamIcNS_11char_traitsIcEEE5flushEv(ptr noundef nonnull align 8 dereferenceable(8) %call1.i1009)
          to label %invoke.cont57 unwind label %lpad18

invoke.cont57:                                    ; preds = %call1.i.noexc1739
  %call1.i1015 = invoke noundef nonnull align 8 dereferenceable(8) ptr @_ZNSt3__124__put_character_sequenceB7v170000IcNS_11char_traitsIcEEEERNS_13basic_ostreamIT_T0_EES7_PKS4_m(ptr noundef nonnull align 8 dereferenceable(8) %ofs, ptr noundef nonnull @.str.23, i64 noundef 16)
          to label %invoke.cont59 unwind label %lpad18

invoke.cont59:                                    ; preds = %invoke.cont57
  %vtable.i1744 = load ptr, ptr %call1.i1015, align 8, !tbaa !21
  %vbase.offset.ptr.i1745 = getelementptr i8, ptr %vtable.i1744, i64 -24
  %vbase.offset.i1746 = load i64, ptr %vbase.offset.ptr.i1745, align 8
  %add.ptr.i1747 = getelementptr inbounds i8, ptr %call1.i1015, i64 %vbase.offset.i1746
  call void @llvm.lifetime.start.p0(i64 8, ptr nonnull %ref.tmp.i.i1743) #23
  invoke void @_ZNKSt3__18ios_base6getlocEv(ptr nonnull sret(%"class.std::__1::locale") align 8 %ref.tmp.i.i1743, ptr noundef nonnull align 8 dereferenceable(136) %add.ptr.i1747)
          to label %.noexc1755 unwind label %lpad18

.noexc1755:                                       ; preds = %invoke.cont59
  %call.i5.i.i1748 = invoke noundef ptr @_ZNKSt3__16locale9use_facetERNS0_2idE(ptr noundef nonnull align 8 dereferenceable(8) %ref.tmp.i.i1743, ptr noundef nonnull align 8 dereferenceable(12) @_ZNSt3__15ctypeIcE2idE)
          to label %invoke.cont.i.i1752 unwind label %lpad.i.i1753

invoke.cont.i.i1752:                              ; preds = %.noexc1755
  %vtable.i.i.i1749 = load ptr, ptr %call.i5.i.i1748, align 8, !tbaa !21
  %vfn.i.i.i1750 = getelementptr inbounds ptr, ptr %vtable.i.i.i1749, i64 7
  %25 = load ptr, ptr %vfn.i.i.i1750, align 8
  %call.i6.i.i1751 = invoke noundef signext i8 %25(ptr noundef nonnull align 8 dereferenceable(25) %call.i5.i.i1748, i8 noundef signext 10)
          to label %_ZNKSt3__19basic_iosIcNS_11char_traitsIcEEE5widenB7v170000Ec.exit.i1754 unwind label %lpad.i.i1753

lpad.i.i1753:                                     ; preds = %invoke.cont.i.i1752, %.noexc1755
  %26 = landingpad { ptr, i32 }
          cleanup
  call void @_ZNSt3__16localeD1Ev(ptr noundef nonnull align 8 dereferenceable(8) %ref.tmp.i.i1743) #23
  call void @llvm.lifetime.end.p0(i64 8, ptr nonnull %ref.tmp.i.i1743) #23
  br label %ehcleanup844

_ZNKSt3__19basic_iosIcNS_11char_traitsIcEEE5widenB7v170000Ec.exit.i1754: ; preds = %invoke.cont.i.i1752
  call void @_ZNSt3__16localeD1Ev(ptr noundef nonnull align 8 dereferenceable(8) %ref.tmp.i.i1743) #23
  call void @llvm.lifetime.end.p0(i64 8, ptr nonnull %ref.tmp.i.i1743) #23
  %call1.i1759 = invoke noundef nonnull align 8 dereferenceable(8) ptr @_ZNSt3__113basic_ostreamIcNS_11char_traitsIcEEE3putEc(ptr noundef nonnull align 8 dereferenceable(8) %call1.i1015, i8 noundef signext %call.i6.i.i1751)
          to label %call1.i.noexc1758 unwind label %lpad18

call1.i.noexc1758:                                ; preds = %_ZNKSt3__19basic_iosIcNS_11char_traitsIcEEE5widenB7v170000Ec.exit.i1754
  %call2.i1760 = invoke noundef nonnull align 8 dereferenceable(8) ptr @_ZNSt3__113basic_ostreamIcNS_11char_traitsIcEEE5flushEv(ptr noundef nonnull align 8 dereferenceable(8) %call1.i1015)
          to label %invoke.cont61 unwind label %lpad18

invoke.cont61:                                    ; preds = %call1.i.noexc1758
  %call1.i1021 = invoke noundef nonnull align 8 dereferenceable(8) ptr @_ZNSt3__124__put_character_sequenceB7v170000IcNS_11char_traitsIcEEEERNS_13basic_ostreamIT_T0_EES7_PKS4_m(ptr noundef nonnull align 8 dereferenceable(8) %ofs, ptr noundef nonnull @.str.24, i64 noundef 4)
          to label %invoke.cont63 unwind label %lpad18

invoke.cont63:                                    ; preds = %invoke.cont61
  %vtable.i1763 = load ptr, ptr %call1.i1021, align 8, !tbaa !21
  %vbase.offset.ptr.i1764 = getelementptr i8, ptr %vtable.i1763, i64 -24
  %vbase.offset.i1765 = load i64, ptr %vbase.offset.ptr.i1764, align 8
  %add.ptr.i1766 = getelementptr inbounds i8, ptr %call1.i1021, i64 %vbase.offset.i1765
  call void @llvm.lifetime.start.p0(i64 8, ptr nonnull %ref.tmp.i.i1762) #23
  invoke void @_ZNKSt3__18ios_base6getlocEv(ptr nonnull sret(%"class.std::__1::locale") align 8 %ref.tmp.i.i1762, ptr noundef nonnull align 8 dereferenceable(136) %add.ptr.i1766)
          to label %.noexc1774 unwind label %lpad18

.noexc1774:                                       ; preds = %invoke.cont63
  %call.i5.i.i1767 = invoke noundef ptr @_ZNKSt3__16locale9use_facetERNS0_2idE(ptr noundef nonnull align 8 dereferenceable(8) %ref.tmp.i.i1762, ptr noundef nonnull align 8 dereferenceable(12) @_ZNSt3__15ctypeIcE2idE)
          to label %invoke.cont.i.i1771 unwind label %lpad.i.i1772

invoke.cont.i.i1771:                              ; preds = %.noexc1774
  %vtable.i.i.i1768 = load ptr, ptr %call.i5.i.i1767, align 8, !tbaa !21
  %vfn.i.i.i1769 = getelementptr inbounds ptr, ptr %vtable.i.i.i1768, i64 7
  %27 = load ptr, ptr %vfn.i.i.i1769, align 8
  %call.i6.i.i1770 = invoke noundef signext i8 %27(ptr noundef nonnull align 8 dereferenceable(25) %call.i5.i.i1767, i8 noundef signext 10)
          to label %_ZNKSt3__19basic_iosIcNS_11char_traitsIcEEE5widenB7v170000Ec.exit.i1773 unwind label %lpad.i.i1772

lpad.i.i1772:                                     ; preds = %invoke.cont.i.i1771, %.noexc1774
  %28 = landingpad { ptr, i32 }
          cleanup
  call void @_ZNSt3__16localeD1Ev(ptr noundef nonnull align 8 dereferenceable(8) %ref.tmp.i.i1762) #23
  call void @llvm.lifetime.end.p0(i64 8, ptr nonnull %ref.tmp.i.i1762) #23
  br label %ehcleanup844

_ZNKSt3__19basic_iosIcNS_11char_traitsIcEEE5widenB7v170000Ec.exit.i1773: ; preds = %invoke.cont.i.i1771
  call void @_ZNSt3__16localeD1Ev(ptr noundef nonnull align 8 dereferenceable(8) %ref.tmp.i.i1762) #23
  call void @llvm.lifetime.end.p0(i64 8, ptr nonnull %ref.tmp.i.i1762) #23
  %call1.i1778 = invoke noundef nonnull align 8 dereferenceable(8) ptr @_ZNSt3__113basic_ostreamIcNS_11char_traitsIcEEE3putEc(ptr noundef nonnull align 8 dereferenceable(8) %call1.i1021, i8 noundef signext %call.i6.i.i1770)
          to label %call1.i.noexc1777 unwind label %lpad18

call1.i.noexc1777:                                ; preds = %_ZNKSt3__19basic_iosIcNS_11char_traitsIcEEE5widenB7v170000Ec.exit.i1773
  %call2.i1779 = invoke noundef nonnull align 8 dereferenceable(8) ptr @_ZNSt3__113basic_ostreamIcNS_11char_traitsIcEEE5flushEv(ptr noundef nonnull align 8 dereferenceable(8) %call1.i1021)
          to label %invoke.cont69 unwind label %lpad18

invoke.cont69:                                    ; preds = %call1.i.noexc1777
  %vtable.i1026 = load ptr, ptr %ofs, align 8, !tbaa !21
  %vbase.offset.ptr.i1027 = getelementptr i8, ptr %vtable.i1026, i64 -24
  %vbase.offset.i1028 = load i64, ptr %vbase.offset.ptr.i1027, align 8
  %add.ptr.i1029 = getelementptr inbounds i8, ptr %ofs, i64 %vbase.offset.i1028
  %__width_.i.i1031 = getelementptr inbounds %"class.std::__1::ios_base", ptr %add.ptr.i1029, i64 0, i32 3
  store i64 10, ptr %__width_.i.i1031, align 8, !tbaa !84
  %call75 = invoke noundef nonnull align 8 dereferenceable(8) ptr @_ZNSt3__113basic_ostreamIcNS_11char_traitsIcEEElsEi(ptr noundef nonnull align 8 dereferenceable(8) %ofs, i32 noundef 1)
          to label %invoke.cont74 unwind label %lpad68

invoke.cont74:                                    ; preds = %invoke.cont69
  %vtable.i1782 = load ptr, ptr %call75, align 8, !tbaa !21
  %vbase.offset.ptr.i1783 = getelementptr i8, ptr %vtable.i1782, i64 -24
  %vbase.offset.i1784 = load i64, ptr %vbase.offset.ptr.i1783, align 8
  %add.ptr.i1785 = getelementptr inbounds i8, ptr %call75, i64 %vbase.offset.i1784
  call void @llvm.lifetime.start.p0(i64 8, ptr nonnull %ref.tmp.i.i1781) #23
  invoke void @_ZNKSt3__18ios_base6getlocEv(ptr nonnull sret(%"class.std::__1::locale") align 8 %ref.tmp.i.i1781, ptr noundef nonnull align 8 dereferenceable(136) %add.ptr.i1785)
          to label %.noexc1793 unwind label %lpad68

.noexc1793:                                       ; preds = %invoke.cont74
  %call.i5.i.i1786 = invoke noundef ptr @_ZNKSt3__16locale9use_facetERNS0_2idE(ptr noundef nonnull align 8 dereferenceable(8) %ref.tmp.i.i1781, ptr noundef nonnull align 8 dereferenceable(12) @_ZNSt3__15ctypeIcE2idE)
          to label %invoke.cont.i.i1790 unwind label %lpad.i.i1791

invoke.cont.i.i1790:                              ; preds = %.noexc1793
  %vtable.i.i.i1787 = load ptr, ptr %call.i5.i.i1786, align 8, !tbaa !21
  %vfn.i.i.i1788 = getelementptr inbounds ptr, ptr %vtable.i.i.i1787, i64 7
  %29 = load ptr, ptr %vfn.i.i.i1788, align 8
  %call.i6.i.i1789 = invoke noundef signext i8 %29(ptr noundef nonnull align 8 dereferenceable(25) %call.i5.i.i1786, i8 noundef signext 10)
          to label %_ZNKSt3__19basic_iosIcNS_11char_traitsIcEEE5widenB7v170000Ec.exit.i1792 unwind label %lpad.i.i1791

lpad.i.i1791:                                     ; preds = %invoke.cont.i.i1790, %.noexc1793
  %30 = landingpad { ptr, i32 }
          cleanup
  call void @_ZNSt3__16localeD1Ev(ptr noundef nonnull align 8 dereferenceable(8) %ref.tmp.i.i1781) #23
  call void @llvm.lifetime.end.p0(i64 8, ptr nonnull %ref.tmp.i.i1781) #23
  br label %ehcleanup844

_ZNKSt3__19basic_iosIcNS_11char_traitsIcEEE5widenB7v170000Ec.exit.i1792: ; preds = %invoke.cont.i.i1790
  call void @_ZNSt3__16localeD1Ev(ptr noundef nonnull align 8 dereferenceable(8) %ref.tmp.i.i1781) #23
  call void @llvm.lifetime.end.p0(i64 8, ptr nonnull %ref.tmp.i.i1781) #23
  %call1.i1796 = invoke noundef nonnull align 8 dereferenceable(8) ptr @_ZNSt3__113basic_ostreamIcNS_11char_traitsIcEEE3putEc(ptr noundef nonnull align 8 dereferenceable(8) %call75, i8 noundef signext %call.i6.i.i1789)
          to label %call1.i.noexc1795 unwind label %lpad68

call1.i.noexc1795:                                ; preds = %_ZNKSt3__19basic_iosIcNS_11char_traitsIcEEE5widenB7v170000Ec.exit.i1792
  %call2.i1797 = invoke noundef nonnull align 8 dereferenceable(8) ptr @_ZNSt3__113basic_ostreamIcNS_11char_traitsIcEEE5flushEv(ptr noundef nonnull align 8 dereferenceable(8) %call75)
          to label %invoke.cont76 unwind label %lpad68

invoke.cont76:                                    ; preds = %call1.i.noexc1795
  %call1.i1036 = invoke noundef nonnull align 8 dereferenceable(8) ptr @_ZNSt3__124__put_character_sequenceB7v170000IcNS_11char_traitsIcEEEERNS_13basic_ostreamIT_T0_EES7_PKS4_m(ptr noundef nonnull align 8 dereferenceable(8) %ofs, ptr noundef nonnull @.str.25, i64 noundef 8)
          to label %invoke.cont79 unwind label %lpad18

invoke.cont79:                                    ; preds = %invoke.cont76
  %vtable.i1800 = load ptr, ptr %call1.i1036, align 8, !tbaa !21
  %vbase.offset.ptr.i1801 = getelementptr i8, ptr %vtable.i1800, i64 -24
  %vbase.offset.i1802 = load i64, ptr %vbase.offset.ptr.i1801, align 8
  %add.ptr.i1803 = getelementptr inbounds i8, ptr %call1.i1036, i64 %vbase.offset.i1802
  call void @llvm.lifetime.start.p0(i64 8, ptr nonnull %ref.tmp.i.i1799) #23
  invoke void @_ZNKSt3__18ios_base6getlocEv(ptr nonnull sret(%"class.std::__1::locale") align 8 %ref.tmp.i.i1799, ptr noundef nonnull align 8 dereferenceable(136) %add.ptr.i1803)
          to label %.noexc1811 unwind label %lpad18

.noexc1811:                                       ; preds = %invoke.cont79
  %call.i5.i.i1804 = invoke noundef ptr @_ZNKSt3__16locale9use_facetERNS0_2idE(ptr noundef nonnull align 8 dereferenceable(8) %ref.tmp.i.i1799, ptr noundef nonnull align 8 dereferenceable(12) @_ZNSt3__15ctypeIcE2idE)
          to label %invoke.cont.i.i1808 unwind label %lpad.i.i1809

invoke.cont.i.i1808:                              ; preds = %.noexc1811
  %vtable.i.i.i1805 = load ptr, ptr %call.i5.i.i1804, align 8, !tbaa !21
  %vfn.i.i.i1806 = getelementptr inbounds ptr, ptr %vtable.i.i.i1805, i64 7
  %31 = load ptr, ptr %vfn.i.i.i1806, align 8
  %call.i6.i.i1807 = invoke noundef signext i8 %31(ptr noundef nonnull align 8 dereferenceable(25) %call.i5.i.i1804, i8 noundef signext 10)
          to label %_ZNKSt3__19basic_iosIcNS_11char_traitsIcEEE5widenB7v170000Ec.exit.i1810 unwind label %lpad.i.i1809

lpad.i.i1809:                                     ; preds = %invoke.cont.i.i1808, %.noexc1811
  %32 = landingpad { ptr, i32 }
          cleanup
  call void @_ZNSt3__16localeD1Ev(ptr noundef nonnull align 8 dereferenceable(8) %ref.tmp.i.i1799) #23
  call void @llvm.lifetime.end.p0(i64 8, ptr nonnull %ref.tmp.i.i1799) #23
  br label %ehcleanup844

_ZNKSt3__19basic_iosIcNS_11char_traitsIcEEE5widenB7v170000Ec.exit.i1810: ; preds = %invoke.cont.i.i1808
  call void @_ZNSt3__16localeD1Ev(ptr noundef nonnull align 8 dereferenceable(8) %ref.tmp.i.i1799) #23
  call void @llvm.lifetime.end.p0(i64 8, ptr nonnull %ref.tmp.i.i1799) #23
  %call1.i1815 = invoke noundef nonnull align 8 dereferenceable(8) ptr @_ZNSt3__113basic_ostreamIcNS_11char_traitsIcEEE3putEc(ptr noundef nonnull align 8 dereferenceable(8) %call1.i1036, i8 noundef signext %call.i6.i.i1807)
          to label %call1.i.noexc1814 unwind label %lpad18

call1.i.noexc1814:                                ; preds = %_ZNKSt3__19basic_iosIcNS_11char_traitsIcEEE5widenB7v170000Ec.exit.i1810
  %call2.i1816 = invoke noundef nonnull align 8 dereferenceable(8) ptr @_ZNSt3__113basic_ostreamIcNS_11char_traitsIcEEE5flushEv(ptr noundef nonnull align 8 dereferenceable(8) %call1.i1036)
          to label %if.end83 unwind label %lpad18

lpad18:                                           ; preds = %call1.i.noexc1814, %_ZNKSt3__19basic_iosIcNS_11char_traitsIcEEE5widenB7v170000Ec.exit.i1810, %invoke.cont79, %call1.i.noexc1777, %_ZNKSt3__19basic_iosIcNS_11char_traitsIcEEE5widenB7v170000Ec.exit.i1773, %invoke.cont63, %call1.i.noexc1758, %_ZNKSt3__19basic_iosIcNS_11char_traitsIcEEE5widenB7v170000Ec.exit.i1754, %invoke.cont59, %call1.i.noexc1739, %_ZNKSt3__19basic_iosIcNS_11char_traitsIcEEE5widenB7v170000Ec.exit.i1736, %invoke.cont55, %invoke.cont76, %invoke.cont61, %invoke.cont57, %invoke.cont52, %invoke.cont38, %invoke.cont19
  %33 = landingpad { ptr, i32 }
          cleanup
  br label %ehcleanup844

lpad23:                                           ; preds = %call1.i.noexc, %_ZNKSt3__19basic_iosIcNS_11char_traitsIcEEE5widenB7v170000Ec.exit.i, %invoke.cont28, %invoke.cont24
  %34 = landingpad { ptr, i32 }
          cleanup
  br label %ehcleanup844

lpad44:                                           ; preds = %call1.i.noexc1721, %_ZNKSt3__19basic_iosIcNS_11char_traitsIcEEE5widenB7v170000Ec.exit.i1718, %invoke.cont50, %invoke.cont45
  %35 = landingpad { ptr, i32 }
          cleanup
  br label %ehcleanup844

lpad68:                                           ; preds = %call1.i.noexc1795, %_ZNKSt3__19basic_iosIcNS_11char_traitsIcEEE5widenB7v170000Ec.exit.i1792, %invoke.cont74, %invoke.cont69
  %36 = landingpad { ptr, i32 }
          cleanup
  br label %ehcleanup844

if.end83:                                         ; preds = %_ZNSt3__114basic_ofstreamIcNS_11char_traitsIcEEEC1Ev.exit, %call1.i.noexc1814, %if.end15
  %37 = load ptr, ptr %this, align 8, !tbaa !5
  %nump84 = getelementptr inbounds %class.Mesh, ptr %37, i64 0, i32 7
  %38 = load i32, ptr %nump84, align 4, !tbaa !86
  %px86 = getelementptr inbounds %class.Mesh, ptr %37, i64 0, i32 34
  %39 = load ptr, ptr %px86, align 8, !tbaa !87
  call void @llvm.lifetime.start.p0(i64 4, ptr nonnull %gnump) #23
  store i32 %38, ptr %gnump, align 4, !tbaa !17
  invoke void @_ZN8Parallel9globalSumERi(ptr noundef nonnull align 4 dereferenceable(4) %gnump)
          to label %invoke.cont88 unwind label %lpad87

invoke.cont88:                                    ; preds = %if.end83
  call void @llvm.lifetime.start.p0(i64 24, ptr nonnull %penump) #23
  %40 = load i32, ptr @_ZN8Parallel4mypeE, align 4, !tbaa !17
  %cmp89 = icmp eq i32 %40, 0
  %41 = load i32, ptr @_ZN8Parallel5numpeE, align 4
  %cond = select i1 %cmp89, i32 %41, i32 0
  %conv = sext i32 %cond to i64
  %__end_.i = getelementptr inbounds %"class.std::__1::vector.1", ptr %penump, i64 0, i32 1
  %__end_cap_.i = getelementptr inbounds %"class.std::__1::vector.1", ptr %penump, i64 0, i32 2
  %cmp.not.i = icmp eq i32 %cond, 0
  call void @llvm.memset.p0.i64(ptr noundef nonnull align 8 dereferenceable(24) %penump, i8 0, i64 24, i1 false)
  br i1 %cmp.not.i, label %invoke.cont91, label %if.then.i1042

if.then.i1042:                                    ; preds = %invoke.cont88
  %cmp.i.i1041 = icmp slt i32 %cond, 0
  br i1 %cmp.i.i1041, label %if.then.i.i1043, label %_ZNSt3__119__allocate_at_leastB7v170000INS_9allocatorIiEEEENS_19__allocation_resultINS_16allocator_traitsIT_E7pointerEEERS5_m.exit.i.i

if.then.i.i1043:                                  ; preds = %if.then.i1042
  invoke void @_ZNKSt3__16vectorIiNS_9allocatorIiEEE20__throw_length_errorB7v170000Ev(ptr noundef nonnull align 8 dereferenceable(24) %penump) #24
          to label %.noexc.i unwind label %if.then.i8.i

.noexc.i:                                         ; preds = %if.then.i.i1043
  unreachable

_ZNSt3__119__allocate_at_leastB7v170000INS_9allocatorIiEEEENS_19__allocation_resultINS_16allocator_traitsIT_E7pointerEEERS5_m.exit.i.i: ; preds = %if.then.i1042
  %mul.i.i.i.i = shl nuw nsw i64 %conv, 2
  %call.i5.i.i.i.i7.i = invoke noalias noundef nonnull ptr @_Znwm(i64 noundef %mul.i.i.i.i) #25
          to label %_ZNSt3__16vectorIiNS_9allocatorIiEEE18__construct_at_endEm.exit.i unwind label %if.then.i8.i

_ZNSt3__16vectorIiNS_9allocatorIiEEE18__construct_at_endEm.exit.i: ; preds = %_ZNSt3__119__allocate_at_leastB7v170000INS_9allocatorIiEEEENS_19__allocation_resultINS_16allocator_traitsIT_E7pointerEEERS5_m.exit.i.i
  store ptr %call.i5.i.i.i.i7.i, ptr %penump, align 8, !tbaa !14
  %add.ptr.i.i1044 = getelementptr inbounds i32, ptr %call.i5.i.i.i.i7.i, i64 %conv
  store ptr %add.ptr.i.i1044, ptr %__end_cap_.i, align 8, !tbaa !42
  call void @llvm.memset.p0.i64(ptr nonnull align 4 %call.i5.i.i.i.i7.i, i8 0, i64 %mul.i.i.i.i, i1 false), !tbaa !17
  %uglygep.i.i = getelementptr i8, ptr %call.i5.i.i.i.i7.i, i64 %mul.i.i.i.i
  store ptr %uglygep.i.i, ptr %__end_.i, align 8, !tbaa !15
  br label %invoke.cont91

if.then.i8.i:                                     ; preds = %_ZNSt3__119__allocate_at_leastB7v170000INS_9allocatorIiEEEENS_19__allocation_resultINS_16allocator_traitsIT_E7pointerEEERS5_m.exit.i.i, %if.then.i.i1043
  %42 = landingpad { ptr, i32 }
          cleanup
  %43 = load ptr, ptr %penump, align 8, !tbaa !14
  %cmp.not.i.i.i = icmp eq ptr %43, null
  br i1 %cmp.not.i.i.i, label %ehcleanup840, label %if.then.i.i.i

if.then.i.i.i:                                    ; preds = %if.then.i8.i
  store ptr %43, ptr %__end_.i, align 8, !tbaa !15
  br label %ehcleanup840.sink.split

invoke.cont91:                                    ; preds = %_ZNSt3__16vectorIiNS_9allocatorIiEEE18__construct_at_endEm.exit.i, %invoke.cont88
  %44 = phi ptr [ %uglygep.i.i, %_ZNSt3__16vectorIiNS_9allocatorIiEEE18__construct_at_endEm.exit.i ], [ null, %invoke.cont88 ]
  %45 = phi ptr [ %call.i5.i.i.i.i7.i, %_ZNSt3__16vectorIiNS_9allocatorIiEEE18__construct_at_endEm.exit.i ], [ null, %invoke.cont88 ]
  invoke void @_ZN8Parallel6gatherEiPi(i32 noundef %38, ptr noundef nonnull %45)
          to label %invoke.cont94 unwind label %lpad93

invoke.cont94:                                    ; preds = %invoke.cont91
  call void @llvm.lifetime.start.p0(i64 24, ptr nonnull %peoffset) #23
  %46 = load i32, ptr @_ZN8Parallel4mypeE, align 4, !tbaa !17
  %cmp95 = icmp eq i32 %46, 0
  %47 = load i32, ptr @_ZN8Parallel5numpeE, align 4
  %add = add nsw i32 %47, 1
  %cond99 = select i1 %cmp95, i32 %add, i32 1
  %conv100 = sext i32 %cond99 to i64
  %__end_.i1045 = getelementptr inbounds %"class.std::__1::vector.1", ptr %peoffset, i64 0, i32 1
  %__end_cap_.i1046 = getelementptr inbounds %"class.std::__1::vector.1", ptr %peoffset, i64 0, i32 2
  %cmp.not.i1047 = icmp eq i32 %cond99, 0
  call void @llvm.memset.p0.i64(ptr noundef nonnull align 8 dereferenceable(24) %peoffset, i8 0, i64 24, i1 false)
  br i1 %cmp.not.i1047, label %invoke.cont102, label %if.then.i1049

if.then.i1049:                                    ; preds = %invoke.cont94
  %cmp.i.i1048 = icmp slt i32 %cond99, 0
  br i1 %cmp.i.i1048, label %if.then.i.i1050, label %_ZNSt3__119__allocate_at_leastB7v170000INS_9allocatorIiEEEENS_19__allocation_resultINS_16allocator_traitsIT_E7pointerEEERS5_m.exit.i.i1054

if.then.i.i1050:                                  ; preds = %if.then.i1049
  invoke void @_ZNKSt3__16vectorIiNS_9allocatorIiEEE20__throw_length_errorB7v170000Ev(ptr noundef nonnull align 8 dereferenceable(24) %peoffset) #24
          to label %.noexc.i1051 unwind label %if.then.i8.i1059

.noexc.i1051:                                     ; preds = %if.then.i.i1050
  unreachable

_ZNSt3__119__allocate_at_leastB7v170000INS_9allocatorIiEEEENS_19__allocation_resultINS_16allocator_traitsIT_E7pointerEEERS5_m.exit.i.i1054: ; preds = %if.then.i1049
  %mul.i.i.i.i1052 = shl nuw nsw i64 %conv100, 2
  %call.i5.i.i.i.i7.i1053 = invoke noalias noundef nonnull ptr @_Znwm(i64 noundef %mul.i.i.i.i1052) #25
          to label %_ZNSt3__16vectorIiNS_9allocatorIiEEE18__construct_at_endEm.exit.i1057 unwind label %if.then.i8.i1059

_ZNSt3__16vectorIiNS_9allocatorIiEEE18__construct_at_endEm.exit.i1057: ; preds = %_ZNSt3__119__allocate_at_leastB7v170000INS_9allocatorIiEEEENS_19__allocation_resultINS_16allocator_traitsIT_E7pointerEEERS5_m.exit.i.i1054
  store ptr %call.i5.i.i.i.i7.i1053, ptr %peoffset, align 8, !tbaa !14
  %add.ptr.i.i1055 = getelementptr inbounds i32, ptr %call.i5.i.i.i.i7.i1053, i64 %conv100
  store ptr %add.ptr.i.i1055, ptr %__end_cap_.i1046, align 8, !tbaa !42
  call void @llvm.memset.p0.i64(ptr nonnull align 4 %call.i5.i.i.i.i7.i1053, i8 0, i64 %mul.i.i.i.i1052, i1 false), !tbaa !17
  %uglygep.i.i1056 = getelementptr i8, ptr %call.i5.i.i.i.i7.i1053, i64 %mul.i.i.i.i1052
  store ptr %uglygep.i.i1056, ptr %__end_.i1045, align 8, !tbaa !15
  br label %invoke.cont102

if.then.i8.i1059:                                 ; preds = %_ZNSt3__119__allocate_at_leastB7v170000INS_9allocatorIiEEEENS_19__allocation_resultINS_16allocator_traitsIT_E7pointerEEERS5_m.exit.i.i1054, %if.then.i.i1050
  %48 = landingpad { ptr, i32 }
          cleanup
  %49 = load ptr, ptr %peoffset, align 8, !tbaa !14
  %cmp.not.i.i.i1058 = icmp eq ptr %49, null
  br i1 %cmp.not.i.i.i1058, label %ehcleanup838, label %if.then.i.i.i1060

if.then.i.i.i1060:                                ; preds = %if.then.i8.i1059
  store ptr %49, ptr %__end_.i1045, align 8, !tbaa !15
  br label %ehcleanup838.sink.split

invoke.cont102:                                   ; preds = %_ZNSt3__16vectorIiNS_9allocatorIiEEE18__construct_at_endEm.exit.i1057, %invoke.cont94
  %50 = phi ptr [ %call.i5.i.i.i.i7.i1053, %_ZNSt3__16vectorIiNS_9allocatorIiEEE18__construct_at_endEm.exit.i1057 ], [ null, %invoke.cont94 ]
  %cmp.i.i.not.i = icmp eq ptr %45, %44
  br i1 %cmp.i.i.not.i, label %_ZNSt3__111partial_sumB7v170000INS_11__wrap_iterIPiEES2_EET0_T_S5_S4_.exit, label %if.then.i1065

if.then.i1065:                                    ; preds = %invoke.cont102
  %arrayidx.i = getelementptr inbounds i32, ptr %50, i64 1
  %51 = load i32, ptr %45, align 4, !tbaa !17
  store i32 %51, ptr %arrayidx.i, align 4, !tbaa !17
  %__first.sroa.0.022.i = getelementptr inbounds i32, ptr %45, i64 1
  %cmp.i.i14.not24.i = icmp eq ptr %__first.sroa.0.022.i, %44
  br i1 %cmp.i.i14.not24.i, label %_ZNSt3__111partial_sumB7v170000INS_11__wrap_iterIPiEES2_EET0_T_S5_S4_.exit, label %for.body.i.preheader

for.body.i.preheader:                             ; preds = %if.then.i1065
  %__result.addr.023.i = getelementptr inbounds i32, ptr %50, i64 2
  br label %for.body.i

for.body.i:                                       ; preds = %for.body.i.preheader, %for.body.i
  %__result.addr.027.i = phi ptr [ %__result.addr.0.i, %for.body.i ], [ %__result.addr.023.i, %for.body.i.preheader ]
  %__first.sroa.0.026.i = phi ptr [ %__first.sroa.0.0.i, %for.body.i ], [ %__first.sroa.0.022.i, %for.body.i.preheader ]
  %__t.025.i = phi i32 [ %add.i1066, %for.body.i ], [ %51, %for.body.i.preheader ]
  %52 = load i32, ptr %__first.sroa.0.026.i, align 4, !tbaa !17
  %add.i1066 = add nsw i32 %52, %__t.025.i
  store i32 %add.i1066, ptr %__result.addr.027.i, align 4, !tbaa !17
  %__first.sroa.0.0.i = getelementptr inbounds i32, ptr %__first.sroa.0.026.i, i64 1
  %__result.addr.0.i = getelementptr inbounds i32, ptr %__result.addr.027.i, i64 1
  %cmp.i.i14.not.i = icmp eq ptr %__first.sroa.0.0.i, %44
  br i1 %cmp.i.i14.not.i, label %_ZNSt3__111partial_sumB7v170000INS_11__wrap_iterIPiEES2_EET0_T_S5_S4_.exit, label %for.body.i, !llvm.loop !88

_ZNSt3__111partial_sumB7v170000INS_11__wrap_iterIPiEES2_EET0_T_S5_S4_.exit: ; preds = %for.body.i, %invoke.cont102, %if.then.i1065
  call void @llvm.lifetime.start.p0(i64 4, ptr nonnull %offset) #23
  invoke void @_ZN8Parallel7scatterEPKiRi(ptr noundef nonnull %50, ptr noundef nonnull align 4 dereferenceable(4) %offset)
          to label %invoke.cont116 unwind label %lpad115

invoke.cont116:                                   ; preds = %_ZNSt3__111partial_sumB7v170000INS_11__wrap_iterIPiEES2_EET0_T_S5_S4_.exit
  call void @llvm.lifetime.start.p0(i64 24, ptr nonnull %gpx) #23
  %53 = load i32, ptr @_ZN8Parallel4mypeE, align 4, !tbaa !17
  %cmp117 = icmp eq i32 %53, 0
  %54 = load i32, ptr %gnump, align 4
  %cond121 = select i1 %cmp117, i32 %54, i32 0
  %conv122 = sext i32 %cond121 to i64
  %__end_.i1068 = getelementptr inbounds %"class.std::__1::vector.16", ptr %gpx, i64 0, i32 1
  %__end_cap_.i1069 = getelementptr inbounds %"class.std::__1::vector.16", ptr %gpx, i64 0, i32 2
  %cmp.not.i1070 = icmp eq i32 %cond121, 0
  call void @llvm.memset.p0.i64(ptr noundef nonnull align 8 dereferenceable(24) %gpx, i8 0, i64 24, i1 false)
  br i1 %cmp.not.i1070, label %invoke.cont124, label %if.then.i1072

if.then.i1072:                                    ; preds = %invoke.cont116
  %cmp.i.i1071 = icmp slt i32 %cond121, 0
  br i1 %cmp.i.i1071, label %if.then.i.i1073, label %_ZNSt3__119__allocate_at_leastB7v170000INS_9allocatorI7double2EEEENS_19__allocation_resultINS_16allocator_traitsIT_E7pointerEEERS6_m.exit.i.i

if.then.i.i1073:                                  ; preds = %if.then.i1072
  invoke void @_ZNKSt3__16vectorI7double2NS_9allocatorIS1_EEE20__throw_length_errorB7v170000Ev(ptr noundef nonnull align 8 dereferenceable(24) %gpx) #24
          to label %.noexc.i1074 unwind label %if.then.i9.i

.noexc.i1074:                                     ; preds = %if.then.i.i1073
  unreachable

_ZNSt3__119__allocate_at_leastB7v170000INS_9allocatorI7double2EEEENS_19__allocation_resultINS_16allocator_traitsIT_E7pointerEEERS6_m.exit.i.i: ; preds = %if.then.i1072
  %mul.i.i.i.i1075 = shl nuw nsw i64 %conv122, 4
  %call.i5.i.i.i.i8.i = invoke noalias noundef nonnull ptr @_Znwm(i64 noundef %mul.i.i.i.i1075) #25
          to label %_ZNSt3__16vectorI7double2NS_9allocatorIS1_EEE18__construct_at_endEm.exit.i unwind label %if.then.i9.i

_ZNSt3__16vectorI7double2NS_9allocatorIS1_EEE18__construct_at_endEm.exit.i: ; preds = %_ZNSt3__119__allocate_at_leastB7v170000INS_9allocatorI7double2EEEENS_19__allocation_resultINS_16allocator_traitsIT_E7pointerEEERS6_m.exit.i.i
  store ptr %call.i5.i.i.i.i8.i, ptr %gpx, align 8, !tbaa !89
  %add.ptr.i.i1076 = getelementptr inbounds %struct.double2, ptr %call.i5.i.i.i.i8.i, i64 %conv122
  store ptr %add.ptr.i.i1076, ptr %__end_cap_.i1069, align 8, !tbaa !42
  call void @llvm.memset.p0.i64(ptr nonnull align 8 %call.i5.i.i.i.i8.i, i8 0, i64 %mul.i.i.i.i1075, i1 false)
  %uglygep.i.i1077 = getelementptr i8, ptr %call.i5.i.i.i.i8.i, i64 %mul.i.i.i.i1075
  store ptr %uglygep.i.i1077, ptr %__end_.i1068, align 8, !tbaa !93
  br label %invoke.cont124

if.then.i9.i:                                     ; preds = %_ZNSt3__119__allocate_at_leastB7v170000INS_9allocatorI7double2EEEENS_19__allocation_resultINS_16allocator_traitsIT_E7pointerEEERS6_m.exit.i.i, %if.then.i.i1073
  %55 = landingpad { ptr, i32 }
          cleanup
  %56 = load ptr, ptr %gpx, align 8, !tbaa !89
  %cmp.not.i.i.i1078 = icmp eq ptr %56, null
  br i1 %cmp.not.i.i.i1078, label %ehcleanup835, label %if.then.i.i.i1079

if.then.i.i.i1079:                                ; preds = %if.then.i9.i
  store ptr %56, ptr %__end_.i1068, align 8, !tbaa !93
  br label %ehcleanup835.sink.split

invoke.cont124:                                   ; preds = %_ZNSt3__16vectorI7double2NS_9allocatorIS1_EEE18__construct_at_endEm.exit.i, %invoke.cont116
  %57 = phi ptr [ %call.i5.i.i.i.i8.i, %_ZNSt3__16vectorI7double2NS_9allocatorIS1_EEE18__construct_at_endEm.exit.i ], [ null, %invoke.cont116 ]
  invoke void @_ZN8Parallel7gathervI7double2EEvPKT_iPS2_PKi(ptr noundef %39, i32 noundef %38, ptr noundef nonnull %57, ptr noundef nonnull %45)
          to label %invoke.cont128 unwind label %lpad127

invoke.cont128:                                   ; preds = %invoke.cont124
  %58 = load i32, ptr @_ZN8Parallel4mypeE, align 4, !tbaa !17
  %cmp129 = icmp eq i32 %58, 0
  br i1 %cmp129, label %if.then130, label %if.end215

if.then130:                                       ; preds = %invoke.cont128
  %call1.i1082 = invoke noundef nonnull align 8 dereferenceable(8) ptr @_ZNSt3__124__put_character_sequenceB7v170000IcNS_11char_traitsIcEEEERNS_13basic_ostreamIT_T0_EES7_PKS4_m(ptr noundef nonnull align 8 dereferenceable(8) %ofs, ptr noundef nonnull @.str.26, i64 noundef 11)
          to label %invoke.cont131 unwind label %lpad127

invoke.cont131:                                   ; preds = %if.then130
  %vtable.i1819 = load ptr, ptr %call1.i1082, align 8, !tbaa !21
  %vbase.offset.ptr.i1820 = getelementptr i8, ptr %vtable.i1819, i64 -24
  %vbase.offset.i1821 = load i64, ptr %vbase.offset.ptr.i1820, align 8
  %add.ptr.i1822 = getelementptr inbounds i8, ptr %call1.i1082, i64 %vbase.offset.i1821
  call void @llvm.lifetime.start.p0(i64 8, ptr nonnull %ref.tmp.i.i1818) #23
  invoke void @_ZNKSt3__18ios_base6getlocEv(ptr nonnull sret(%"class.std::__1::locale") align 8 %ref.tmp.i.i1818, ptr noundef nonnull align 8 dereferenceable(136) %add.ptr.i1822)
          to label %.noexc1830 unwind label %lpad127

.noexc1830:                                       ; preds = %invoke.cont131
  %call.i5.i.i1823 = invoke noundef ptr @_ZNKSt3__16locale9use_facetERNS0_2idE(ptr noundef nonnull align 8 dereferenceable(8) %ref.tmp.i.i1818, ptr noundef nonnull align 8 dereferenceable(12) @_ZNSt3__15ctypeIcE2idE)
          to label %invoke.cont.i.i1827 unwind label %lpad.i.i1828

invoke.cont.i.i1827:                              ; preds = %.noexc1830
  %vtable.i.i.i1824 = load ptr, ptr %call.i5.i.i1823, align 8, !tbaa !21
  %vfn.i.i.i1825 = getelementptr inbounds ptr, ptr %vtable.i.i.i1824, i64 7
  %59 = load ptr, ptr %vfn.i.i.i1825, align 8
  %call.i6.i.i1826 = invoke noundef signext i8 %59(ptr noundef nonnull align 8 dereferenceable(25) %call.i5.i.i1823, i8 noundef signext 10)
          to label %_ZNKSt3__19basic_iosIcNS_11char_traitsIcEEE5widenB7v170000Ec.exit.i1829 unwind label %lpad.i.i1828

lpad.i.i1828:                                     ; preds = %invoke.cont.i.i1827, %.noexc1830
  %60 = landingpad { ptr, i32 }
          cleanup
  call void @_ZNSt3__16localeD1Ev(ptr noundef nonnull align 8 dereferenceable(8) %ref.tmp.i.i1818) #23
  call void @llvm.lifetime.end.p0(i64 8, ptr nonnull %ref.tmp.i.i1818) #23
  br label %ehcleanup834

_ZNKSt3__19basic_iosIcNS_11char_traitsIcEEE5widenB7v170000Ec.exit.i1829: ; preds = %invoke.cont.i.i1827
  call void @_ZNSt3__16localeD1Ev(ptr noundef nonnull align 8 dereferenceable(8) %ref.tmp.i.i1818) #23
  call void @llvm.lifetime.end.p0(i64 8, ptr nonnull %ref.tmp.i.i1818) #23
  %call1.i1833 = invoke noundef nonnull align 8 dereferenceable(8) ptr @_ZNSt3__113basic_ostreamIcNS_11char_traitsIcEEE3putEc(ptr noundef nonnull align 8 dereferenceable(8) %call1.i1082, i8 noundef signext %call.i6.i.i1826)
          to label %call1.i.noexc1832 unwind label %lpad127

call1.i.noexc1832:                                ; preds = %_ZNKSt3__19basic_iosIcNS_11char_traitsIcEEE5widenB7v170000Ec.exit.i1829
  %call2.i1834 = invoke noundef nonnull align 8 dereferenceable(8) ptr @_ZNSt3__113basic_ostreamIcNS_11char_traitsIcEEE5flushEv(ptr noundef nonnull align 8 dereferenceable(8) %call1.i1082)
          to label %invoke.cont137 unwind label %lpad127

invoke.cont137:                                   ; preds = %call1.i.noexc1832
  %vtable.i1087 = load ptr, ptr %ofs, align 8, !tbaa !21
  %vbase.offset.ptr.i1088 = getelementptr i8, ptr %vtable.i1087, i64 -24
  %vbase.offset.i1089 = load i64, ptr %vbase.offset.ptr.i1088, align 8
  %add.ptr.i1090 = getelementptr inbounds i8, ptr %ofs, i64 %vbase.offset.i1089
  %__width_.i.i1092 = getelementptr inbounds %"class.std::__1::ios_base", ptr %add.ptr.i1090, i64 0, i32 3
  store i64 10, ptr %__width_.i.i1092, align 8, !tbaa !84
  %61 = load i32, ptr %gnump, align 4, !tbaa !17
  %call143 = invoke noundef nonnull align 8 dereferenceable(8) ptr @_ZNSt3__113basic_ostreamIcNS_11char_traitsIcEEElsEi(ptr noundef nonnull align 8 dereferenceable(8) %ofs, i32 noundef %61)
          to label %invoke.cont142 unwind label %lpad136

invoke.cont142:                                   ; preds = %invoke.cont137
  %vtable.i1837 = load ptr, ptr %call143, align 8, !tbaa !21
  %vbase.offset.ptr.i1838 = getelementptr i8, ptr %vtable.i1837, i64 -24
  %vbase.offset.i1839 = load i64, ptr %vbase.offset.ptr.i1838, align 8
  %add.ptr.i1840 = getelementptr inbounds i8, ptr %call143, i64 %vbase.offset.i1839
  call void @llvm.lifetime.start.p0(i64 8, ptr nonnull %ref.tmp.i.i1836) #23
  invoke void @_ZNKSt3__18ios_base6getlocEv(ptr nonnull sret(%"class.std::__1::locale") align 8 %ref.tmp.i.i1836, ptr noundef nonnull align 8 dereferenceable(136) %add.ptr.i1840)
          to label %.noexc1848 unwind label %lpad136

.noexc1848:                                       ; preds = %invoke.cont142
  %call.i5.i.i1841 = invoke noundef ptr @_ZNKSt3__16locale9use_facetERNS0_2idE(ptr noundef nonnull align 8 dereferenceable(8) %ref.tmp.i.i1836, ptr noundef nonnull align 8 dereferenceable(12) @_ZNSt3__15ctypeIcE2idE)
          to label %invoke.cont.i.i1845 unwind label %lpad.i.i1846

invoke.cont.i.i1845:                              ; preds = %.noexc1848
  %vtable.i.i.i1842 = load ptr, ptr %call.i5.i.i1841, align 8, !tbaa !21
  %vfn.i.i.i1843 = getelementptr inbounds ptr, ptr %vtable.i.i.i1842, i64 7
  %62 = load ptr, ptr %vfn.i.i.i1843, align 8
  %call.i6.i.i1844 = invoke noundef signext i8 %62(ptr noundef nonnull align 8 dereferenceable(25) %call.i5.i.i1841, i8 noundef signext 10)
          to label %_ZNKSt3__19basic_iosIcNS_11char_traitsIcEEE5widenB7v170000Ec.exit.i1847 unwind label %lpad.i.i1846

lpad.i.i1846:                                     ; preds = %invoke.cont.i.i1845, %.noexc1848
  %63 = landingpad { ptr, i32 }
          cleanup
  call void @_ZNSt3__16localeD1Ev(ptr noundef nonnull align 8 dereferenceable(8) %ref.tmp.i.i1836) #23
  call void @llvm.lifetime.end.p0(i64 8, ptr nonnull %ref.tmp.i.i1836) #23
  br label %ehcleanup834

_ZNKSt3__19basic_iosIcNS_11char_traitsIcEEE5widenB7v170000Ec.exit.i1847: ; preds = %invoke.cont.i.i1845
  call void @_ZNSt3__16localeD1Ev(ptr noundef nonnull align 8 dereferenceable(8) %ref.tmp.i.i1836) #23
  call void @llvm.lifetime.end.p0(i64 8, ptr nonnull %ref.tmp.i.i1836) #23
  %call1.i1851 = invoke noundef nonnull align 8 dereferenceable(8) ptr @_ZNSt3__113basic_ostreamIcNS_11char_traitsIcEEE3putEc(ptr noundef nonnull align 8 dereferenceable(8) %call143, i8 noundef signext %call.i6.i.i1844)
          to label %call1.i.noexc1850 unwind label %lpad136

call1.i.noexc1850:                                ; preds = %_ZNKSt3__19basic_iosIcNS_11char_traitsIcEEE5widenB7v170000Ec.exit.i1847
  %call2.i1852 = invoke noundef nonnull align 8 dereferenceable(8) ptr @_ZNSt3__113basic_ostreamIcNS_11char_traitsIcEEE5flushEv(ptr noundef nonnull align 8 dereferenceable(8) %call143)
          to label %invoke.cont152 unwind label %lpad136

invoke.cont152:                                   ; preds = %call1.i.noexc1850
  %vtable.i1096 = load ptr, ptr %ofs, align 8, !tbaa !21
  %vbase.offset.ptr.i1097 = getelementptr i8, ptr %vtable.i1096, i64 -24
  %vbase.offset.i1098 = load i64, ptr %vbase.offset.ptr.i1097, align 8
  %add.ptr.i1099 = getelementptr inbounds i8, ptr %ofs, i64 %vbase.offset.i1098
  %__precision_.i.i1101 = getelementptr inbounds %"class.std::__1::ios_base", ptr %add.ptr.i1099, i64 0, i32 2
  store i64 5, ptr %__precision_.i.i1101, align 8, !tbaa !85
  %64 = load i32, ptr %gnump, align 4, !tbaa !17
  %cmp1552181 = icmp sgt i32 %64, 0
  br i1 %cmp1552181, label %invoke.cont158, label %if.end215

for.cond172.preheader:                            ; preds = %invoke.cont167
  %cmp1732183 = icmp sgt i32 %73, 0
  br i1 %cmp1732183, label %invoke.cont178, label %if.end215

lpad87:                                           ; preds = %if.end83
  %65 = landingpad { ptr, i32 }
          cleanup
  br label %ehcleanup841

lpad93:                                           ; preds = %invoke.cont91
  %66 = landingpad { ptr, i32 }
          cleanup
  br label %ehcleanup839

lpad115:                                          ; preds = %_ZNSt3__111partial_sumB7v170000INS_11__wrap_iterIPiEES2_EET0_T_S5_S4_.exit
  %67 = landingpad { ptr, i32 }
          cleanup
  br label %ehcleanup836

lpad127:                                          ; preds = %call1.i.noexc1832, %_ZNKSt3__19basic_iosIcNS_11char_traitsIcEEE5widenB7v170000Ec.exit.i1829, %invoke.cont131, %if.then130, %invoke.cont124
  %68 = landingpad { ptr, i32 }
          cleanup
  br label %ehcleanup834

lpad136:                                          ; preds = %call1.i.noexc1850, %_ZNKSt3__19basic_iosIcNS_11char_traitsIcEEE5widenB7v170000Ec.exit.i1847, %invoke.cont142, %invoke.cont137
  %69 = landingpad { ptr, i32 }
          cleanup
  br label %ehcleanup834

invoke.cont158:                                   ; preds = %invoke.cont152, %invoke.cont167
  %indvars.iv = phi i64 [ %indvars.iv.next, %invoke.cont167 ], [ 0, %invoke.cont152 ]
  %vtable.i1102 = load ptr, ptr %ofs, align 8, !tbaa !21
  %vbase.offset.ptr.i1103 = getelementptr i8, ptr %vtable.i1102, i64 -24
  %vbase.offset.i1104 = load i64, ptr %vbase.offset.ptr.i1103, align 8
  %add.ptr.i1105 = getelementptr inbounds i8, ptr %ofs, i64 %vbase.offset.i1104
  %__width_.i.i1107 = getelementptr inbounds %"class.std::__1::ios_base", ptr %add.ptr.i1105, i64 0, i32 3
  store i64 12, ptr %__width_.i.i1107, align 8, !tbaa !84
  %arrayidx.i1108 = getelementptr inbounds %struct.double2, ptr %57, i64 %indvars.iv
  %70 = load double, ptr %arrayidx.i1108, align 8, !tbaa !94
  %call166 = invoke noundef nonnull align 8 dereferenceable(8) ptr @_ZNSt3__113basic_ostreamIcNS_11char_traitsIcEEElsEd(ptr noundef nonnull align 8 dereferenceable(8) %ofs, double noundef %70)
          to label %invoke.cont165 unwind label %lpad157

invoke.cont165:                                   ; preds = %invoke.cont158
  %vtable.i1855 = load ptr, ptr %call166, align 8, !tbaa !21
  %vbase.offset.ptr.i1856 = getelementptr i8, ptr %vtable.i1855, i64 -24
  %vbase.offset.i1857 = load i64, ptr %vbase.offset.ptr.i1856, align 8
  %add.ptr.i1858 = getelementptr inbounds i8, ptr %call166, i64 %vbase.offset.i1857
  call void @llvm.lifetime.start.p0(i64 8, ptr nonnull %ref.tmp.i.i1854) #23
  invoke void @_ZNKSt3__18ios_base6getlocEv(ptr nonnull sret(%"class.std::__1::locale") align 8 %ref.tmp.i.i1854, ptr noundef nonnull align 8 dereferenceable(136) %add.ptr.i1858)
          to label %.noexc1866 unwind label %lpad157

.noexc1866:                                       ; preds = %invoke.cont165
  %call.i5.i.i1859 = invoke noundef ptr @_ZNKSt3__16locale9use_facetERNS0_2idE(ptr noundef nonnull align 8 dereferenceable(8) %ref.tmp.i.i1854, ptr noundef nonnull align 8 dereferenceable(12) @_ZNSt3__15ctypeIcE2idE)
          to label %invoke.cont.i.i1863 unwind label %lpad.i.i1864

invoke.cont.i.i1863:                              ; preds = %.noexc1866
  %vtable.i.i.i1860 = load ptr, ptr %call.i5.i.i1859, align 8, !tbaa !21
  %vfn.i.i.i1861 = getelementptr inbounds ptr, ptr %vtable.i.i.i1860, i64 7
  %71 = load ptr, ptr %vfn.i.i.i1861, align 8
  %call.i6.i.i1862 = invoke noundef signext i8 %71(ptr noundef nonnull align 8 dereferenceable(25) %call.i5.i.i1859, i8 noundef signext 10)
          to label %_ZNKSt3__19basic_iosIcNS_11char_traitsIcEEE5widenB7v170000Ec.exit.i1865 unwind label %lpad.i.i1864

lpad.i.i1864:                                     ; preds = %invoke.cont.i.i1863, %.noexc1866
  %72 = landingpad { ptr, i32 }
          cleanup
  call void @_ZNSt3__16localeD1Ev(ptr noundef nonnull align 8 dereferenceable(8) %ref.tmp.i.i1854) #23
  call void @llvm.lifetime.end.p0(i64 8, ptr nonnull %ref.tmp.i.i1854) #23
  br label %ehcleanup835.sink.split

_ZNKSt3__19basic_iosIcNS_11char_traitsIcEEE5widenB7v170000Ec.exit.i1865: ; preds = %invoke.cont.i.i1863
  call void @_ZNSt3__16localeD1Ev(ptr noundef nonnull align 8 dereferenceable(8) %ref.tmp.i.i1854) #23
  call void @llvm.lifetime.end.p0(i64 8, ptr nonnull %ref.tmp.i.i1854) #23
  %call1.i1869 = invoke noundef nonnull align 8 dereferenceable(8) ptr @_ZNSt3__113basic_ostreamIcNS_11char_traitsIcEEE3putEc(ptr noundef nonnull align 8 dereferenceable(8) %call166, i8 noundef signext %call.i6.i.i1862)
          to label %call1.i.noexc1868 unwind label %lpad157

call1.i.noexc1868:                                ; preds = %_ZNKSt3__19basic_iosIcNS_11char_traitsIcEEE5widenB7v170000Ec.exit.i1865
  %call2.i1870 = invoke noundef nonnull align 8 dereferenceable(8) ptr @_ZNSt3__113basic_ostreamIcNS_11char_traitsIcEEE5flushEv(ptr noundef nonnull align 8 dereferenceable(8) %call166)
          to label %invoke.cont167 unwind label %lpad157

invoke.cont167:                                   ; preds = %call1.i.noexc1868
  %indvars.iv.next = add nuw nsw i64 %indvars.iv, 1
  %73 = load i32, ptr %gnump, align 4, !tbaa !17
  %74 = sext i32 %73 to i64
  %cmp155 = icmp slt i64 %indvars.iv.next, %74
  br i1 %cmp155, label %invoke.cont158, label %for.cond172.preheader, !llvm.loop !97

lpad157:                                          ; preds = %call1.i.noexc1868, %_ZNKSt3__19basic_iosIcNS_11char_traitsIcEEE5widenB7v170000Ec.exit.i1865, %invoke.cont165, %invoke.cont158
  %75 = landingpad { ptr, i32 }
          cleanup
  br label %ehcleanup835.sink.split

for.cond195.preheader:                            ; preds = %invoke.cont187
  %cmp1962185 = icmp sgt i32 %79, 0
  br i1 %cmp1962185, label %invoke.cont201, label %if.end215

invoke.cont178:                                   ; preds = %for.cond172.preheader, %invoke.cont187
  %indvars.iv2223 = phi i64 [ %indvars.iv.next2224, %invoke.cont187 ], [ 0, %for.cond172.preheader ]
  %vtable.i1112 = load ptr, ptr %ofs, align 8, !tbaa !21
  %vbase.offset.ptr.i1113 = getelementptr i8, ptr %vtable.i1112, i64 -24
  %vbase.offset.i1114 = load i64, ptr %vbase.offset.ptr.i1113, align 8
  %add.ptr.i1115 = getelementptr inbounds i8, ptr %ofs, i64 %vbase.offset.i1114
  %__width_.i.i1117 = getelementptr inbounds %"class.std::__1::ios_base", ptr %add.ptr.i1115, i64 0, i32 3
  store i64 12, ptr %__width_.i.i1117, align 8, !tbaa !84
  %y = getelementptr inbounds %struct.double2, ptr %57, i64 %indvars.iv2223, i32 1
  %76 = load double, ptr %y, align 8, !tbaa !98
  %call186 = invoke noundef nonnull align 8 dereferenceable(8) ptr @_ZNSt3__113basic_ostreamIcNS_11char_traitsIcEEElsEd(ptr noundef nonnull align 8 dereferenceable(8) %ofs, double noundef %76)
          to label %invoke.cont185 unwind label %lpad177

invoke.cont185:                                   ; preds = %invoke.cont178
  %vtable.i1873 = load ptr, ptr %call186, align 8, !tbaa !21
  %vbase.offset.ptr.i1874 = getelementptr i8, ptr %vtable.i1873, i64 -24
  %vbase.offset.i1875 = load i64, ptr %vbase.offset.ptr.i1874, align 8
  %add.ptr.i1876 = getelementptr inbounds i8, ptr %call186, i64 %vbase.offset.i1875
  call void @llvm.lifetime.start.p0(i64 8, ptr nonnull %ref.tmp.i.i1872) #23
  invoke void @_ZNKSt3__18ios_base6getlocEv(ptr nonnull sret(%"class.std::__1::locale") align 8 %ref.tmp.i.i1872, ptr noundef nonnull align 8 dereferenceable(136) %add.ptr.i1876)
          to label %.noexc1884 unwind label %lpad177

.noexc1884:                                       ; preds = %invoke.cont185
  %call.i5.i.i1877 = invoke noundef ptr @_ZNKSt3__16locale9use_facetERNS0_2idE(ptr noundef nonnull align 8 dereferenceable(8) %ref.tmp.i.i1872, ptr noundef nonnull align 8 dereferenceable(12) @_ZNSt3__15ctypeIcE2idE)
          to label %invoke.cont.i.i1881 unwind label %lpad.i.i1882

invoke.cont.i.i1881:                              ; preds = %.noexc1884
  %vtable.i.i.i1878 = load ptr, ptr %call.i5.i.i1877, align 8, !tbaa !21
  %vfn.i.i.i1879 = getelementptr inbounds ptr, ptr %vtable.i.i.i1878, i64 7
  %77 = load ptr, ptr %vfn.i.i.i1879, align 8
  %call.i6.i.i1880 = invoke noundef signext i8 %77(ptr noundef nonnull align 8 dereferenceable(25) %call.i5.i.i1877, i8 noundef signext 10)
          to label %_ZNKSt3__19basic_iosIcNS_11char_traitsIcEEE5widenB7v170000Ec.exit.i1883 unwind label %lpad.i.i1882

lpad.i.i1882:                                     ; preds = %invoke.cont.i.i1881, %.noexc1884
  %78 = landingpad { ptr, i32 }
          cleanup
  call void @_ZNSt3__16localeD1Ev(ptr noundef nonnull align 8 dereferenceable(8) %ref.tmp.i.i1872) #23
  call void @llvm.lifetime.end.p0(i64 8, ptr nonnull %ref.tmp.i.i1872) #23
  br label %ehcleanup835.sink.split

_ZNKSt3__19basic_iosIcNS_11char_traitsIcEEE5widenB7v170000Ec.exit.i1883: ; preds = %invoke.cont.i.i1881
  call void @_ZNSt3__16localeD1Ev(ptr noundef nonnull align 8 dereferenceable(8) %ref.tmp.i.i1872) #23
  call void @llvm.lifetime.end.p0(i64 8, ptr nonnull %ref.tmp.i.i1872) #23
  %call1.i1887 = invoke noundef nonnull align 8 dereferenceable(8) ptr @_ZNSt3__113basic_ostreamIcNS_11char_traitsIcEEE3putEc(ptr noundef nonnull align 8 dereferenceable(8) %call186, i8 noundef signext %call.i6.i.i1880)
          to label %call1.i.noexc1886 unwind label %lpad177

call1.i.noexc1886:                                ; preds = %_ZNKSt3__19basic_iosIcNS_11char_traitsIcEEE5widenB7v170000Ec.exit.i1883
  %call2.i1888 = invoke noundef nonnull align 8 dereferenceable(8) ptr @_ZNSt3__113basic_ostreamIcNS_11char_traitsIcEEE5flushEv(ptr noundef nonnull align 8 dereferenceable(8) %call186)
          to label %invoke.cont187 unwind label %lpad177

invoke.cont187:                                   ; preds = %call1.i.noexc1886
  %indvars.iv.next2224 = add nuw nsw i64 %indvars.iv2223, 1
  %79 = load i32, ptr %gnump, align 4, !tbaa !17
  %80 = sext i32 %79 to i64
  %cmp173 = icmp slt i64 %indvars.iv.next2224, %80
  br i1 %cmp173, label %invoke.cont178, label %for.cond195.preheader, !llvm.loop !99

lpad177:                                          ; preds = %call1.i.noexc1886, %_ZNKSt3__19basic_iosIcNS_11char_traitsIcEEE5widenB7v170000Ec.exit.i1883, %invoke.cont185, %invoke.cont178
  %81 = landingpad { ptr, i32 }
          cleanup
  br label %ehcleanup835.sink.split

invoke.cont201:                                   ; preds = %for.cond195.preheader, %invoke.cont208
  %p194.02186 = phi i32 [ %inc212, %invoke.cont208 ], [ 0, %for.cond195.preheader ]
  %vtable.i1122 = load ptr, ptr %ofs, align 8, !tbaa !21
  %vbase.offset.ptr.i1123 = getelementptr i8, ptr %vtable.i1122, i64 -24
  %vbase.offset.i1124 = load i64, ptr %vbase.offset.ptr.i1123, align 8
  %add.ptr.i1125 = getelementptr inbounds i8, ptr %ofs, i64 %vbase.offset.i1124
  %__width_.i.i1127 = getelementptr inbounds %"class.std::__1::ios_base", ptr %add.ptr.i1125, i64 0, i32 3
  store i64 12, ptr %__width_.i.i1127, align 8, !tbaa !84
  %call207 = invoke noundef nonnull align 8 dereferenceable(8) ptr @_ZNSt3__113basic_ostreamIcNS_11char_traitsIcEEElsEd(ptr noundef nonnull align 8 dereferenceable(8) %ofs, double noundef 0.000000e+00)
          to label %invoke.cont206 unwind label %lpad200

invoke.cont206:                                   ; preds = %invoke.cont201
  %vtable.i1891 = load ptr, ptr %call207, align 8, !tbaa !21
  %vbase.offset.ptr.i1892 = getelementptr i8, ptr %vtable.i1891, i64 -24
  %vbase.offset.i1893 = load i64, ptr %vbase.offset.ptr.i1892, align 8
  %add.ptr.i1894 = getelementptr inbounds i8, ptr %call207, i64 %vbase.offset.i1893
  call void @llvm.lifetime.start.p0(i64 8, ptr nonnull %ref.tmp.i.i1890) #23
  invoke void @_ZNKSt3__18ios_base6getlocEv(ptr nonnull sret(%"class.std::__1::locale") align 8 %ref.tmp.i.i1890, ptr noundef nonnull align 8 dereferenceable(136) %add.ptr.i1894)
          to label %.noexc1902 unwind label %lpad200

.noexc1902:                                       ; preds = %invoke.cont206
  %call.i5.i.i1895 = invoke noundef ptr @_ZNKSt3__16locale9use_facetERNS0_2idE(ptr noundef nonnull align 8 dereferenceable(8) %ref.tmp.i.i1890, ptr noundef nonnull align 8 dereferenceable(12) @_ZNSt3__15ctypeIcE2idE)
          to label %invoke.cont.i.i1899 unwind label %lpad.i.i1900

invoke.cont.i.i1899:                              ; preds = %.noexc1902
  %vtable.i.i.i1896 = load ptr, ptr %call.i5.i.i1895, align 8, !tbaa !21
  %vfn.i.i.i1897 = getelementptr inbounds ptr, ptr %vtable.i.i.i1896, i64 7
  %82 = load ptr, ptr %vfn.i.i.i1897, align 8
  %call.i6.i.i1898 = invoke noundef signext i8 %82(ptr noundef nonnull align 8 dereferenceable(25) %call.i5.i.i1895, i8 noundef signext 10)
          to label %_ZNKSt3__19basic_iosIcNS_11char_traitsIcEEE5widenB7v170000Ec.exit.i1901 unwind label %lpad.i.i1900

lpad.i.i1900:                                     ; preds = %invoke.cont.i.i1899, %.noexc1902
  %83 = landingpad { ptr, i32 }
          cleanup
  call void @_ZNSt3__16localeD1Ev(ptr noundef nonnull align 8 dereferenceable(8) %ref.tmp.i.i1890) #23
  call void @llvm.lifetime.end.p0(i64 8, ptr nonnull %ref.tmp.i.i1890) #23
  br label %ehcleanup834

_ZNKSt3__19basic_iosIcNS_11char_traitsIcEEE5widenB7v170000Ec.exit.i1901: ; preds = %invoke.cont.i.i1899
  call void @_ZNSt3__16localeD1Ev(ptr noundef nonnull align 8 dereferenceable(8) %ref.tmp.i.i1890) #23
  call void @llvm.lifetime.end.p0(i64 8, ptr nonnull %ref.tmp.i.i1890) #23
  %call1.i1905 = invoke noundef nonnull align 8 dereferenceable(8) ptr @_ZNSt3__113basic_ostreamIcNS_11char_traitsIcEEE3putEc(ptr noundef nonnull align 8 dereferenceable(8) %call207, i8 noundef signext %call.i6.i.i1898)
          to label %call1.i.noexc1904 unwind label %lpad200

call1.i.noexc1904:                                ; preds = %_ZNKSt3__19basic_iosIcNS_11char_traitsIcEEE5widenB7v170000Ec.exit.i1901
  %call2.i1906 = invoke noundef nonnull align 8 dereferenceable(8) ptr @_ZNSt3__113basic_ostreamIcNS_11char_traitsIcEEE5flushEv(ptr noundef nonnull align 8 dereferenceable(8) %call207)
          to label %invoke.cont208 unwind label %lpad200

invoke.cont208:                                   ; preds = %call1.i.noexc1904
  %inc212 = add nuw nsw i32 %p194.02186, 1
  %84 = load i32, ptr %gnump, align 4, !tbaa !17
  %cmp196 = icmp slt i32 %inc212, %84
  br i1 %cmp196, label %invoke.cont201, label %if.end215, !llvm.loop !100

lpad200:                                          ; preds = %call1.i.noexc1904, %_ZNKSt3__19basic_iosIcNS_11char_traitsIcEEE5widenB7v170000Ec.exit.i1901, %invoke.cont206, %invoke.cont201
  %85 = landingpad { ptr, i32 }
          cleanup
  br label %ehcleanup834

if.end215:                                        ; preds = %invoke.cont208, %invoke.cont152, %for.cond172.preheader, %for.cond195.preheader, %invoke.cont128
  %86 = load ptr, ptr %this, align 8, !tbaa !5
  %znump217 = getelementptr inbounds %class.Mesh, ptr %86, i64 0, i32 33
  %87 = load ptr, ptr %znump217, align 8, !tbaa !41
  %mapsp1219 = getelementptr inbounds %class.Mesh, ptr %86, i64 0, i32 13
  %88 = load ptr, ptr %mapsp1219, align 8, !tbaa !101
  %tris = getelementptr inbounds %class.ExportGold, ptr %this, i64 0, i32 1
  %__end_.i1131 = getelementptr inbounds %class.ExportGold, ptr %this, i64 0, i32 1, i32 1
  %89 = load ptr, ptr %__end_.i1131, align 8, !tbaa !15
  %90 = load ptr, ptr %tris, align 8, !tbaa !14
  %sub.ptr.lhs.cast.i = ptrtoint ptr %89 to i64
  %sub.ptr.rhs.cast.i = ptrtoint ptr %90 to i64
  %sub.ptr.sub.i = sub i64 %sub.ptr.lhs.cast.i, %sub.ptr.rhs.cast.i
  %91 = lshr exact i64 %sub.ptr.sub.i, 2
  %conv221 = trunc i64 %91 to i32
  %quads = getelementptr inbounds %class.ExportGold, ptr %this, i64 0, i32 2
  %__end_.i1132 = getelementptr inbounds %class.ExportGold, ptr %this, i64 0, i32 2, i32 1
  %92 = load ptr, ptr %__end_.i1132, align 8, !tbaa !15
  %93 = load ptr, ptr %quads, align 8, !tbaa !14
  %sub.ptr.lhs.cast.i1133 = ptrtoint ptr %92 to i64
  %sub.ptr.rhs.cast.i1134 = ptrtoint ptr %93 to i64
  %sub.ptr.sub.i1135 = sub i64 %sub.ptr.lhs.cast.i1133, %sub.ptr.rhs.cast.i1134
  %94 = lshr exact i64 %sub.ptr.sub.i1135, 2
  %conv223 = trunc i64 %94 to i32
  %others = getelementptr inbounds %class.ExportGold, ptr %this, i64 0, i32 3
  %__end_.i1137 = getelementptr inbounds %class.ExportGold, ptr %this, i64 0, i32 3, i32 1
  %95 = load ptr, ptr %__end_.i1137, align 8, !tbaa !15
  %96 = load ptr, ptr %others, align 8, !tbaa !14
  %sub.ptr.lhs.cast.i1138 = ptrtoint ptr %95 to i64
  %sub.ptr.rhs.cast.i1139 = ptrtoint ptr %96 to i64
  %sub.ptr.sub.i1140 = sub i64 %sub.ptr.lhs.cast.i1138, %sub.ptr.rhs.cast.i1139
  %97 = lshr exact i64 %sub.ptr.sub.i1140, 2
  %conv225 = trunc i64 %97 to i32
  %98 = load i32, ptr @_ZN8Parallel4mypeE, align 4, !tbaa !17
  %cmp226 = icmp eq i32 %98, 0
  br i1 %cmp226, label %if.then227, label %if.end235

if.then227:                                       ; preds = %if.end215
  %pentris = getelementptr inbounds %class.ExportGold, ptr %this, i64 0, i32 5
  %99 = load i32, ptr @_ZN8Parallel5numpeE, align 4, !tbaa !17
  %conv228 = sext i32 %99 to i64
  %__end_.i.i = getelementptr inbounds %class.ExportGold, ptr %this, i64 0, i32 5, i32 1
  %100 = load ptr, ptr %__end_.i.i, align 8, !tbaa !15
  %101 = load ptr, ptr %pentris, align 8, !tbaa !14
  %sub.ptr.lhs.cast.i.i = ptrtoint ptr %100 to i64
  %sub.ptr.rhs.cast.i.i = ptrtoint ptr %101 to i64
  %sub.ptr.sub.i.i = sub i64 %sub.ptr.lhs.cast.i.i, %sub.ptr.rhs.cast.i.i
  %sub.ptr.div.i.i = ashr exact i64 %sub.ptr.sub.i.i, 2
  %cmp.i = icmp ult i64 %sub.ptr.div.i.i, %conv228
  br i1 %cmp.i, label %if.then.i1142, label %if.else.i1143

if.then.i1142:                                    ; preds = %if.then227
  %sub.i = sub nsw i64 %conv228, %sub.ptr.div.i.i
  invoke void @_ZNSt3__16vectorIiNS_9allocatorIiEEE8__appendEm(ptr noundef nonnull align 8 dereferenceable(24) %pentris, i64 noundef %sub.i)
          to label %if.then.i1142.invoke.cont230_crit_edge unwind label %lpad229

if.then.i1142.invoke.cont230_crit_edge:           ; preds = %if.then.i1142
  %.pre = load i32, ptr @_ZN8Parallel5numpeE, align 4, !tbaa !17
  %.pre2318 = sext i32 %.pre to i64
  br label %invoke.cont230

if.else.i1143:                                    ; preds = %if.then227
  %cmp2.i = icmp ugt i64 %sub.ptr.div.i.i, %conv228
  br i1 %cmp2.i, label %if.then3.i, label %invoke.cont230

if.then3.i:                                       ; preds = %if.else.i1143
  %add.ptr.i1144 = getelementptr inbounds i32, ptr %101, i64 %conv228
  store ptr %add.ptr.i1144, ptr %__end_.i.i, align 8, !tbaa !15
  br label %invoke.cont230

invoke.cont230:                                   ; preds = %if.then.i1142.invoke.cont230_crit_edge, %if.then3.i, %if.else.i1143
  %conv231.pre-phi = phi i64 [ %.pre2318, %if.then.i1142.invoke.cont230_crit_edge ], [ %conv228, %if.then3.i ], [ %conv228, %if.else.i1143 ]
  %penquads = getelementptr inbounds %class.ExportGold, ptr %this, i64 0, i32 6
  %__end_.i.i1146 = getelementptr inbounds %class.ExportGold, ptr %this, i64 0, i32 6, i32 1
  %102 = load ptr, ptr %__end_.i.i1146, align 8, !tbaa !15
  %103 = load ptr, ptr %penquads, align 8, !tbaa !14
  %sub.ptr.lhs.cast.i.i1147 = ptrtoint ptr %102 to i64
  %sub.ptr.rhs.cast.i.i1148 = ptrtoint ptr %103 to i64
  %sub.ptr.sub.i.i1149 = sub i64 %sub.ptr.lhs.cast.i.i1147, %sub.ptr.rhs.cast.i.i1148
  %sub.ptr.div.i.i1150 = ashr exact i64 %sub.ptr.sub.i.i1149, 2
  %cmp.i1151 = icmp ugt i64 %conv231.pre-phi, %sub.ptr.div.i.i1150
  br i1 %cmp.i1151, label %if.then.i1153, label %if.else.i1155

if.then.i1153:                                    ; preds = %invoke.cont230
  %sub.i1152 = sub nsw i64 %conv231.pre-phi, %sub.ptr.div.i.i1150
  invoke void @_ZNSt3__16vectorIiNS_9allocatorIiEEE8__appendEm(ptr noundef nonnull align 8 dereferenceable(24) %penquads, i64 noundef %sub.i1152)
          to label %if.then.i1153.invoke.cont232_crit_edge unwind label %lpad229

if.then.i1153.invoke.cont232_crit_edge:           ; preds = %if.then.i1153
  %.pre2310 = load i32, ptr @_ZN8Parallel5numpeE, align 4, !tbaa !17
  %.pre2319 = sext i32 %.pre2310 to i64
  br label %invoke.cont232

if.else.i1155:                                    ; preds = %invoke.cont230
  %cmp2.i1154 = icmp ult i64 %conv231.pre-phi, %sub.ptr.div.i.i1150
  br i1 %cmp2.i1154, label %if.then3.i1157, label %invoke.cont232

if.then3.i1157:                                   ; preds = %if.else.i1155
  %add.ptr.i1156 = getelementptr inbounds i32, ptr %103, i64 %conv231.pre-phi
  store ptr %add.ptr.i1156, ptr %__end_.i.i1146, align 8, !tbaa !15
  br label %invoke.cont232

invoke.cont232:                                   ; preds = %if.then.i1153.invoke.cont232_crit_edge, %if.then3.i1157, %if.else.i1155
  %conv233.pre-phi = phi i64 [ %.pre2319, %if.then.i1153.invoke.cont232_crit_edge ], [ %conv231.pre-phi, %if.then3.i1157 ], [ %conv231.pre-phi, %if.else.i1155 ]
  %penothers = getelementptr inbounds %class.ExportGold, ptr %this, i64 0, i32 7
  %__end_.i.i1160 = getelementptr inbounds %class.ExportGold, ptr %this, i64 0, i32 7, i32 1
  %104 = load ptr, ptr %__end_.i.i1160, align 8, !tbaa !15
  %105 = load ptr, ptr %penothers, align 8, !tbaa !14
  %sub.ptr.lhs.cast.i.i1161 = ptrtoint ptr %104 to i64
  %sub.ptr.rhs.cast.i.i1162 = ptrtoint ptr %105 to i64
  %sub.ptr.sub.i.i1163 = sub i64 %sub.ptr.lhs.cast.i.i1161, %sub.ptr.rhs.cast.i.i1162
  %sub.ptr.div.i.i1164 = ashr exact i64 %sub.ptr.sub.i.i1163, 2
  %cmp.i1165 = icmp ugt i64 %conv233.pre-phi, %sub.ptr.div.i.i1164
  br i1 %cmp.i1165, label %if.then.i1167, label %if.else.i1169

if.then.i1167:                                    ; preds = %invoke.cont232
  %sub.i1166 = sub nsw i64 %conv233.pre-phi, %sub.ptr.div.i.i1164
  invoke void @_ZNSt3__16vectorIiNS_9allocatorIiEEE8__appendEm(ptr noundef nonnull align 8 dereferenceable(24) %penothers, i64 noundef %sub.i1166)
          to label %if.end235 unwind label %lpad229

if.else.i1169:                                    ; preds = %invoke.cont232
  %cmp2.i1168 = icmp ult i64 %conv233.pre-phi, %sub.ptr.div.i.i1164
  br i1 %cmp2.i1168, label %if.then3.i1171, label %if.end235

if.then3.i1171:                                   ; preds = %if.else.i1169
  %add.ptr.i1170 = getelementptr inbounds i32, ptr %105, i64 %conv233.pre-phi
  store ptr %add.ptr.i1170, ptr %__end_.i.i1160, align 8, !tbaa !15
  br label %if.end235

lpad229:                                          ; preds = %if.then.i1167, %if.then.i1153, %if.then.i1142, %invoke.cont241, %invoke.cont238, %if.end235
  %106 = landingpad { ptr, i32 }
          cleanup
  br label %ehcleanup834

if.end235:                                        ; preds = %if.then3.i1171, %if.else.i1169, %if.then.i1167, %if.end215
  %pentris236 = getelementptr inbounds %class.ExportGold, ptr %this, i64 0, i32 5
  %107 = load ptr, ptr %pentris236, align 8, !tbaa !14
  invoke void @_ZN8Parallel6gatherEiPi(i32 noundef %conv221, ptr noundef nonnull %107)
          to label %invoke.cont238 unwind label %lpad229

invoke.cont238:                                   ; preds = %if.end235
  %penquads239 = getelementptr inbounds %class.ExportGold, ptr %this, i64 0, i32 6
  %108 = load ptr, ptr %penquads239, align 8, !tbaa !14
  invoke void @_ZN8Parallel6gatherEiPi(i32 noundef %conv223, ptr noundef nonnull %108)
          to label %invoke.cont241 unwind label %lpad229

invoke.cont241:                                   ; preds = %invoke.cont238
  %penothers242 = getelementptr inbounds %class.ExportGold, ptr %this, i64 0, i32 7
  %109 = load ptr, ptr %penothers242, align 8, !tbaa !14
  invoke void @_ZN8Parallel6gatherEiPi(i32 noundef %conv225, ptr noundef nonnull %109)
          to label %invoke.cont244 unwind label %lpad229

invoke.cont244:                                   ; preds = %invoke.cont241
  %110 = load ptr, ptr %pentris236, align 8, !tbaa !14
  %__end_.i1174 = getelementptr inbounds %class.ExportGold, ptr %this, i64 0, i32 5, i32 1
  %111 = load ptr, ptr %__end_.i1174, align 8, !tbaa !15
  %cmp.i.i.not7.i = icmp eq ptr %110, %111
  br i1 %cmp.i.i.not7.i, label %_ZNSt3__110accumulateB7v170000INS_11__wrap_iterIPiEEiEET0_T_S5_S4_.exit, label %for.body.i1177.preheader

for.body.i1177.preheader:                         ; preds = %invoke.cont244
  %112 = ptrtoint ptr %111 to i64
  %113 = ptrtoint ptr %110 to i64
  %114 = add i64 %112, -4
  %115 = sub i64 %114, %113
  %116 = lshr i64 %115, 2
  %117 = add nuw nsw i64 %116, 1
  %min.iters.check = icmp ult i64 %115, 28
  br i1 %min.iters.check, label %for.body.i1177.preheader2528, label %vector.ph

vector.ph:                                        ; preds = %for.body.i1177.preheader
  %n.vec = and i64 %117, -8
  %118 = shl i64 %n.vec, 2
  %ind.end = getelementptr i8, ptr %110, i64 %118
  br label %vector.body

vector.body:                                      ; preds = %vector.body, %vector.ph
  %index = phi i64 [ 0, %vector.ph ], [ %index.next, %vector.body ]
  %vec.phi = phi <4 x i32> [ zeroinitializer, %vector.ph ], [ %121, %vector.body ]
  %vec.phi2394 = phi <4 x i32> [ zeroinitializer, %vector.ph ], [ %122, %vector.body ]
  %119 = shl i64 %index, 2
  %next.gep = getelementptr i8, ptr %110, i64 %119
  %wide.load = load <4 x i32>, ptr %next.gep, align 4, !tbaa !17
  %120 = getelementptr i32, ptr %next.gep, i64 4
  %wide.load2396 = load <4 x i32>, ptr %120, align 4, !tbaa !17
  %121 = add <4 x i32> %wide.load, %vec.phi
  %122 = add <4 x i32> %wide.load2396, %vec.phi2394
  %index.next = add nuw i64 %index, 8
  %123 = icmp eq i64 %index.next, %n.vec
  br i1 %123, label %middle.block, label %vector.body, !llvm.loop !102

middle.block:                                     ; preds = %vector.body
  %bin.rdx = add <4 x i32> %122, %121
  %124 = call i32 @llvm.vector.reduce.add.v4i32(<4 x i32> %bin.rdx)
  %cmp.n = icmp eq i64 %117, %n.vec
  br i1 %cmp.n, label %_ZNSt3__110accumulateB7v170000INS_11__wrap_iterIPiEEiEET0_T_S5_S4_.exit, label %for.body.i1177.preheader2528

for.body.i1177.preheader2528:                     ; preds = %for.body.i1177.preheader, %middle.block
  %__init.addr.09.i.ph = phi i32 [ 0, %for.body.i1177.preheader ], [ %124, %middle.block ]
  %__first.sroa.0.08.i.ph = phi ptr [ %110, %for.body.i1177.preheader ], [ %ind.end, %middle.block ]
  br label %for.body.i1177

for.body.i1177:                                   ; preds = %for.body.i1177.preheader2528, %for.body.i1177
  %__init.addr.09.i = phi i32 [ %add.i1175, %for.body.i1177 ], [ %__init.addr.09.i.ph, %for.body.i1177.preheader2528 ]
  %__first.sroa.0.08.i = phi ptr [ %incdec.ptr.i.i, %for.body.i1177 ], [ %__first.sroa.0.08.i.ph, %for.body.i1177.preheader2528 ]
  %125 = load i32, ptr %__first.sroa.0.08.i, align 4, !tbaa !17
  %add.i1175 = add nsw i32 %125, %__init.addr.09.i
  %incdec.ptr.i.i = getelementptr inbounds i32, ptr %__first.sroa.0.08.i, i64 1
  %cmp.i.i.not.i1176 = icmp eq ptr %incdec.ptr.i.i, %111
  br i1 %cmp.i.i.not.i1176, label %_ZNSt3__110accumulateB7v170000INS_11__wrap_iterIPiEEiEET0_T_S5_S4_.exit, label %for.body.i1177, !llvm.loop !103

_ZNSt3__110accumulateB7v170000INS_11__wrap_iterIPiEEiEET0_T_S5_S4_.exit: ; preds = %for.body.i1177, %middle.block, %invoke.cont244
  %__init.addr.0.lcssa.i = phi i32 [ 0, %invoke.cont244 ], [ %124, %middle.block ], [ %add.i1175, %for.body.i1177 ]
  %gntris = getelementptr inbounds %class.ExportGold, ptr %this, i64 0, i32 8
  store i32 %__init.addr.0.lcssa.i, ptr %gntris, align 8, !tbaa !104
  %126 = load ptr, ptr %penquads239, align 8, !tbaa !14
  %__end_.i1178 = getelementptr inbounds %class.ExportGold, ptr %this, i64 0, i32 6, i32 1
  %127 = load ptr, ptr %__end_.i1178, align 8, !tbaa !15
  %cmp.i.i.not7.i1179 = icmp eq ptr %126, %127
  br i1 %cmp.i.i.not7.i1179, label %_ZNSt3__110accumulateB7v170000INS_11__wrap_iterIPiEEiEET0_T_S5_S4_.exit1187, label %for.body.i1185.preheader

for.body.i1185.preheader:                         ; preds = %_ZNSt3__110accumulateB7v170000INS_11__wrap_iterIPiEEiEET0_T_S5_S4_.exit
  %128 = ptrtoint ptr %127 to i64
  %129 = ptrtoint ptr %126 to i64
  %130 = add i64 %128, -4
  %131 = sub i64 %130, %129
  %132 = lshr i64 %131, 2
  %133 = add nuw nsw i64 %132, 1
  %min.iters.check2399 = icmp ult i64 %131, 28
  br i1 %min.iters.check2399, label %for.body.i1185.preheader2525, label %vector.ph2400

vector.ph2400:                                    ; preds = %for.body.i1185.preheader
  %n.vec2402 = and i64 %133, -8
  %134 = shl i64 %n.vec2402, 2
  %ind.end2403 = getelementptr i8, ptr %126, i64 %134
  br label %vector.body2406

vector.body2406:                                  ; preds = %vector.body2406, %vector.ph2400
  %index2407 = phi i64 [ 0, %vector.ph2400 ], [ %index.next2414, %vector.body2406 ]
  %vec.phi2408 = phi <4 x i32> [ zeroinitializer, %vector.ph2400 ], [ %137, %vector.body2406 ]
  %vec.phi2409 = phi <4 x i32> [ zeroinitializer, %vector.ph2400 ], [ %138, %vector.body2406 ]
  %135 = shl i64 %index2407, 2
  %next.gep2410 = getelementptr i8, ptr %126, i64 %135
  %wide.load2412 = load <4 x i32>, ptr %next.gep2410, align 4, !tbaa !17
  %136 = getelementptr i32, ptr %next.gep2410, i64 4
  %wide.load2413 = load <4 x i32>, ptr %136, align 4, !tbaa !17
  %137 = add <4 x i32> %wide.load2412, %vec.phi2408
  %138 = add <4 x i32> %wide.load2413, %vec.phi2409
  %index.next2414 = add nuw i64 %index2407, 8
  %139 = icmp eq i64 %index.next2414, %n.vec2402
  br i1 %139, label %middle.block2397, label %vector.body2406, !llvm.loop !105

middle.block2397:                                 ; preds = %vector.body2406
  %bin.rdx2415 = add <4 x i32> %138, %137
  %140 = call i32 @llvm.vector.reduce.add.v4i32(<4 x i32> %bin.rdx2415)
  %cmp.n2405 = icmp eq i64 %133, %n.vec2402
  br i1 %cmp.n2405, label %_ZNSt3__110accumulateB7v170000INS_11__wrap_iterIPiEEiEET0_T_S5_S4_.exit1187, label %for.body.i1185.preheader2525

for.body.i1185.preheader2525:                     ; preds = %for.body.i1185.preheader, %middle.block2397
  %__init.addr.09.i1180.ph = phi i32 [ 0, %for.body.i1185.preheader ], [ %140, %middle.block2397 ]
  %__first.sroa.0.08.i1181.ph = phi ptr [ %126, %for.body.i1185.preheader ], [ %ind.end2403, %middle.block2397 ]
  br label %for.body.i1185

for.body.i1185:                                   ; preds = %for.body.i1185.preheader2525, %for.body.i1185
  %__init.addr.09.i1180 = phi i32 [ %add.i1182, %for.body.i1185 ], [ %__init.addr.09.i1180.ph, %for.body.i1185.preheader2525 ]
  %__first.sroa.0.08.i1181 = phi ptr [ %incdec.ptr.i.i1183, %for.body.i1185 ], [ %__first.sroa.0.08.i1181.ph, %for.body.i1185.preheader2525 ]
  %141 = load i32, ptr %__first.sroa.0.08.i1181, align 4, !tbaa !17
  %add.i1182 = add nsw i32 %141, %__init.addr.09.i1180
  %incdec.ptr.i.i1183 = getelementptr inbounds i32, ptr %__first.sroa.0.08.i1181, i64 1
  %cmp.i.i.not.i1184 = icmp eq ptr %incdec.ptr.i.i1183, %127
  br i1 %cmp.i.i.not.i1184, label %_ZNSt3__110accumulateB7v170000INS_11__wrap_iterIPiEEiEET0_T_S5_S4_.exit1187, label %for.body.i1185, !llvm.loop !106

_ZNSt3__110accumulateB7v170000INS_11__wrap_iterIPiEEiEET0_T_S5_S4_.exit1187: ; preds = %for.body.i1185, %middle.block2397, %_ZNSt3__110accumulateB7v170000INS_11__wrap_iterIPiEEiEET0_T_S5_S4_.exit
  %__init.addr.0.lcssa.i1186 = phi i32 [ 0, %_ZNSt3__110accumulateB7v170000INS_11__wrap_iterIPiEEiEET0_T_S5_S4_.exit ], [ %140, %middle.block2397 ], [ %add.i1182, %for.body.i1185 ]
  %gnquads = getelementptr inbounds %class.ExportGold, ptr %this, i64 0, i32 9
  store i32 %__init.addr.0.lcssa.i1186, ptr %gnquads, align 4, !tbaa !107
  %142 = load ptr, ptr %penothers242, align 8, !tbaa !14
  %__end_.i1188 = getelementptr inbounds %class.ExportGold, ptr %this, i64 0, i32 7, i32 1
  %143 = load ptr, ptr %__end_.i1188, align 8, !tbaa !15
  %cmp.i.i.not7.i1189 = icmp eq ptr %142, %143
  br i1 %cmp.i.i.not7.i1189, label %_ZNSt3__110accumulateB7v170000INS_11__wrap_iterIPiEEiEET0_T_S5_S4_.exit1197, label %for.body.i1195.preheader

for.body.i1195.preheader:                         ; preds = %_ZNSt3__110accumulateB7v170000INS_11__wrap_iterIPiEEiEET0_T_S5_S4_.exit1187
  %144 = ptrtoint ptr %143 to i64
  %145 = ptrtoint ptr %142 to i64
  %146 = add i64 %144, -4
  %147 = sub i64 %146, %145
  %148 = lshr i64 %147, 2
  %149 = add nuw nsw i64 %148, 1
  %min.iters.check2419 = icmp ult i64 %147, 28
  br i1 %min.iters.check2419, label %for.body.i1195.preheader2522, label %vector.ph2420

vector.ph2420:                                    ; preds = %for.body.i1195.preheader
  %n.vec2422 = and i64 %149, -8
  %150 = shl i64 %n.vec2422, 2
  %ind.end2423 = getelementptr i8, ptr %142, i64 %150
  br label %vector.body2426

vector.body2426:                                  ; preds = %vector.body2426, %vector.ph2420
  %index2427 = phi i64 [ 0, %vector.ph2420 ], [ %index.next2434, %vector.body2426 ]
  %vec.phi2428 = phi <4 x i32> [ zeroinitializer, %vector.ph2420 ], [ %153, %vector.body2426 ]
  %vec.phi2429 = phi <4 x i32> [ zeroinitializer, %vector.ph2420 ], [ %154, %vector.body2426 ]
  %151 = shl i64 %index2427, 2
  %next.gep2430 = getelementptr i8, ptr %142, i64 %151
  %wide.load2432 = load <4 x i32>, ptr %next.gep2430, align 4, !tbaa !17
  %152 = getelementptr i32, ptr %next.gep2430, i64 4
  %wide.load2433 = load <4 x i32>, ptr %152, align 4, !tbaa !17
  %153 = add <4 x i32> %wide.load2432, %vec.phi2428
  %154 = add <4 x i32> %wide.load2433, %vec.phi2429
  %index.next2434 = add nuw i64 %index2427, 8
  %155 = icmp eq i64 %index.next2434, %n.vec2422
  br i1 %155, label %middle.block2417, label %vector.body2426, !llvm.loop !108

middle.block2417:                                 ; preds = %vector.body2426
  %bin.rdx2435 = add <4 x i32> %154, %153
  %156 = call i32 @llvm.vector.reduce.add.v4i32(<4 x i32> %bin.rdx2435)
  %cmp.n2425 = icmp eq i64 %149, %n.vec2422
  br i1 %cmp.n2425, label %_ZNSt3__110accumulateB7v170000INS_11__wrap_iterIPiEEiEET0_T_S5_S4_.exit1197, label %for.body.i1195.preheader2522

for.body.i1195.preheader2522:                     ; preds = %for.body.i1195.preheader, %middle.block2417
  %__init.addr.09.i1190.ph = phi i32 [ 0, %for.body.i1195.preheader ], [ %156, %middle.block2417 ]
  %__first.sroa.0.08.i1191.ph = phi ptr [ %142, %for.body.i1195.preheader ], [ %ind.end2423, %middle.block2417 ]
  br label %for.body.i1195

for.body.i1195:                                   ; preds = %for.body.i1195.preheader2522, %for.body.i1195
  %__init.addr.09.i1190 = phi i32 [ %add.i1192, %for.body.i1195 ], [ %__init.addr.09.i1190.ph, %for.body.i1195.preheader2522 ]
  %__first.sroa.0.08.i1191 = phi ptr [ %incdec.ptr.i.i1193, %for.body.i1195 ], [ %__first.sroa.0.08.i1191.ph, %for.body.i1195.preheader2522 ]
  %157 = load i32, ptr %__first.sroa.0.08.i1191, align 4, !tbaa !17
  %add.i1192 = add nsw i32 %157, %__init.addr.09.i1190
  %incdec.ptr.i.i1193 = getelementptr inbounds i32, ptr %__first.sroa.0.08.i1191, i64 1
  %cmp.i.i.not.i1194 = icmp eq ptr %incdec.ptr.i.i1193, %143
  br i1 %cmp.i.i.not.i1194, label %_ZNSt3__110accumulateB7v170000INS_11__wrap_iterIPiEEiEET0_T_S5_S4_.exit1197, label %for.body.i1195, !llvm.loop !109

_ZNSt3__110accumulateB7v170000INS_11__wrap_iterIPiEEiEET0_T_S5_S4_.exit1197: ; preds = %for.body.i1195, %middle.block2417, %_ZNSt3__110accumulateB7v170000INS_11__wrap_iterIPiEEiEET0_T_S5_S4_.exit1187
  %__init.addr.0.lcssa.i1196 = phi i32 [ 0, %_ZNSt3__110accumulateB7v170000INS_11__wrap_iterIPiEEiEET0_T_S5_S4_.exit1187 ], [ %156, %middle.block2417 ], [ %add.i1192, %for.body.i1195 ]
  %gnothers = getelementptr inbounds %class.ExportGold, ptr %this, i64 0, i32 10
  store i32 %__init.addr.0.lcssa.i1196, ptr %gnothers, align 8, !tbaa !110
  call void @llvm.lifetime.start.p0(i64 24, ptr nonnull %pesizes) #23
  %158 = load i32, ptr @_ZN8Parallel4mypeE, align 4, !tbaa !17
  %cmp281 = icmp eq i32 %158, 0
  %159 = load i32, ptr @_ZN8Parallel5numpeE, align 4
  %cond285 = select i1 %cmp281, i32 %159, i32 0
  %conv286 = sext i32 %cond285 to i64
  %__end_.i1198 = getelementptr inbounds %"class.std::__1::vector.1", ptr %pesizes, i64 0, i32 1
  %__end_cap_.i1199 = getelementptr inbounds %"class.std::__1::vector.1", ptr %pesizes, i64 0, i32 2
  %cmp.not.i1200 = icmp eq i32 %cond285, 0
  call void @llvm.memset.p0.i64(ptr noundef nonnull align 8 dereferenceable(24) %pesizes, i8 0, i64 24, i1 false)
  br i1 %cmp.not.i1200, label %invoke.cont288, label %if.then.i1202

if.then.i1202:                                    ; preds = %_ZNSt3__110accumulateB7v170000INS_11__wrap_iterIPiEEiEET0_T_S5_S4_.exit1197
  %cmp.i.i1201 = icmp slt i32 %cond285, 0
  br i1 %cmp.i.i1201, label %if.then.i.i1203, label %_ZNSt3__119__allocate_at_leastB7v170000INS_9allocatorIiEEEENS_19__allocation_resultINS_16allocator_traitsIT_E7pointerEEERS5_m.exit.i.i1207

if.then.i.i1203:                                  ; preds = %if.then.i1202
  invoke void @_ZNKSt3__16vectorIiNS_9allocatorIiEEE20__throw_length_errorB7v170000Ev(ptr noundef nonnull align 8 dereferenceable(24) %pesizes) #24
          to label %.noexc.i1204 unwind label %if.then.i8.i1212

.noexc.i1204:                                     ; preds = %if.then.i.i1203
  unreachable

_ZNSt3__119__allocate_at_leastB7v170000INS_9allocatorIiEEEENS_19__allocation_resultINS_16allocator_traitsIT_E7pointerEEERS5_m.exit.i.i1207: ; preds = %if.then.i1202
  %mul.i.i.i.i1205 = shl nuw nsw i64 %conv286, 2
  %call.i5.i.i.i.i7.i1206 = invoke noalias noundef nonnull ptr @_Znwm(i64 noundef %mul.i.i.i.i1205) #25
          to label %_ZNSt3__16vectorIiNS_9allocatorIiEEE18__construct_at_endEm.exit.i1210 unwind label %if.then.i8.i1212

_ZNSt3__16vectorIiNS_9allocatorIiEEE18__construct_at_endEm.exit.i1210: ; preds = %_ZNSt3__119__allocate_at_leastB7v170000INS_9allocatorIiEEEENS_19__allocation_resultINS_16allocator_traitsIT_E7pointerEEERS5_m.exit.i.i1207
  store ptr %call.i5.i.i.i.i7.i1206, ptr %pesizes, align 8, !tbaa !14
  %add.ptr.i.i1208 = getelementptr inbounds i32, ptr %call.i5.i.i.i.i7.i1206, i64 %conv286
  store ptr %add.ptr.i.i1208, ptr %__end_cap_.i1199, align 8, !tbaa !42
  call void @llvm.memset.p0.i64(ptr nonnull align 4 %call.i5.i.i.i.i7.i1206, i8 0, i64 %mul.i.i.i.i1205, i1 false), !tbaa !17
  %uglygep.i.i1209 = getelementptr i8, ptr %call.i5.i.i.i.i7.i1206, i64 %mul.i.i.i.i1205
  store ptr %uglygep.i.i1209, ptr %__end_.i1198, align 8, !tbaa !15
  br label %invoke.cont288

if.then.i8.i1212:                                 ; preds = %_ZNSt3__119__allocate_at_leastB7v170000INS_9allocatorIiEEEENS_19__allocation_resultINS_16allocator_traitsIT_E7pointerEEERS5_m.exit.i.i1207, %if.then.i.i1203
  %160 = landingpad { ptr, i32 }
          cleanup
  %161 = load ptr, ptr %pesizes, align 8, !tbaa !14
  %cmp.not.i.i.i1211 = icmp eq ptr %161, null
  br i1 %cmp.not.i.i.i1211, label %ehcleanup828, label %if.then.i.i.i1213

if.then.i.i.i1213:                                ; preds = %if.then.i8.i1212
  store ptr %161, ptr %__end_.i1198, align 8, !tbaa !15
  br label %ehcleanup828.sink.split

invoke.cont288:                                   ; preds = %_ZNSt3__16vectorIiNS_9allocatorIiEEE18__construct_at_endEm.exit.i1210, %_ZNSt3__110accumulateB7v170000INS_11__wrap_iterIPiEEiEET0_T_S5_S4_.exit1197
  %162 = phi ptr [ %uglygep.i.i1209, %_ZNSt3__16vectorIiNS_9allocatorIiEEE18__construct_at_endEm.exit.i1210 ], [ null, %_ZNSt3__110accumulateB7v170000INS_11__wrap_iterIPiEEiEET0_T_S5_S4_.exit1197 ]
  %163 = phi ptr [ %call.i5.i.i.i.i7.i1206, %_ZNSt3__16vectorIiNS_9allocatorIiEEE18__construct_at_endEm.exit.i1210 ], [ null, %_ZNSt3__110accumulateB7v170000INS_11__wrap_iterIPiEEiEET0_T_S5_S4_.exit1197 ]
  %164 = ptrtoint ptr %162 to i64
  %165 = ptrtoint ptr %163 to i64
  call void @llvm.lifetime.start.p0(i64 24, ptr nonnull %trip) #23
  %mul = mul nsw i32 %conv221, 3
  %conv289 = sext i32 %mul to i64
  %__end_.i1217 = getelementptr inbounds %"class.std::__1::vector.1", ptr %trip, i64 0, i32 1
  %__end_cap_.i1218 = getelementptr inbounds %"class.std::__1::vector.1", ptr %trip, i64 0, i32 2
  %cmp.not.i1219 = icmp eq i32 %conv221, 0
  call void @llvm.memset.p0.i64(ptr noundef nonnull align 8 dereferenceable(24) %trip, i8 0, i64 24, i1 false)
  br i1 %cmp.not.i1219, label %invoke.cont291, label %if.then.i1221

if.then.i1221:                                    ; preds = %invoke.cont288
  %cmp.i.i1220 = icmp slt i32 %conv221, 0
  br i1 %cmp.i.i1220, label %if.then.i.i1222, label %_ZNSt3__119__allocate_at_leastB7v170000INS_9allocatorIiEEEENS_19__allocation_resultINS_16allocator_traitsIT_E7pointerEEERS5_m.exit.i.i1226

if.then.i.i1222:                                  ; preds = %if.then.i1221
  invoke void @_ZNKSt3__16vectorIiNS_9allocatorIiEEE20__throw_length_errorB7v170000Ev(ptr noundef nonnull align 8 dereferenceable(24) %trip) #24
          to label %.noexc.i1223 unwind label %if.then.i8.i1231

.noexc.i1223:                                     ; preds = %if.then.i.i1222
  unreachable

_ZNSt3__119__allocate_at_leastB7v170000INS_9allocatorIiEEEENS_19__allocation_resultINS_16allocator_traitsIT_E7pointerEEERS5_m.exit.i.i1226: ; preds = %if.then.i1221
  %mul.i.i.i.i1224 = shl nuw nsw i64 %conv289, 2
  %call.i5.i.i.i.i7.i1225 = invoke noalias noundef nonnull ptr @_Znwm(i64 noundef %mul.i.i.i.i1224) #25
          to label %_ZNSt3__16vectorIiNS_9allocatorIiEEE18__construct_at_endEm.exit.i1229 unwind label %if.then.i8.i1231

_ZNSt3__16vectorIiNS_9allocatorIiEEE18__construct_at_endEm.exit.i1229: ; preds = %_ZNSt3__119__allocate_at_leastB7v170000INS_9allocatorIiEEEENS_19__allocation_resultINS_16allocator_traitsIT_E7pointerEEERS5_m.exit.i.i1226
  store ptr %call.i5.i.i.i.i7.i1225, ptr %trip, align 8, !tbaa !14
  %add.ptr.i.i1227 = getelementptr inbounds i32, ptr %call.i5.i.i.i.i7.i1225, i64 %conv289
  store ptr %add.ptr.i.i1227, ptr %__end_cap_.i1218, align 8, !tbaa !42
  call void @llvm.memset.p0.i64(ptr nonnull align 4 %call.i5.i.i.i.i7.i1225, i8 0, i64 %mul.i.i.i.i1224, i1 false), !tbaa !17
  %uglygep.i.i1228 = getelementptr i8, ptr %call.i5.i.i.i.i7.i1225, i64 %mul.i.i.i.i1224
  store ptr %uglygep.i.i1228, ptr %__end_.i1217, align 8, !tbaa !15
  br label %invoke.cont291

if.then.i8.i1231:                                 ; preds = %_ZNSt3__119__allocate_at_leastB7v170000INS_9allocatorIiEEEENS_19__allocation_resultINS_16allocator_traitsIT_E7pointerEEERS5_m.exit.i.i1226, %if.then.i.i1222
  %166 = landingpad { ptr, i32 }
          cleanup
  %167 = load ptr, ptr %trip, align 8, !tbaa !14
  %cmp.not.i.i.i1230 = icmp eq ptr %167, null
  br i1 %cmp.not.i.i.i1230, label %ehcleanup826, label %if.then.i.i.i1232

if.then.i.i.i1232:                                ; preds = %if.then.i8.i1231
  store ptr %167, ptr %__end_.i1217, align 8, !tbaa !15
  br label %ehcleanup826.sink.split

invoke.cont291:                                   ; preds = %_ZNSt3__16vectorIiNS_9allocatorIiEEE18__construct_at_endEm.exit.i1229, %invoke.cont288
  %168 = phi ptr [ %call.i5.i.i.i.i7.i1225, %_ZNSt3__16vectorIiNS_9allocatorIiEEE18__construct_at_endEm.exit.i1229 ], [ null, %invoke.cont288 ]
  call void @llvm.lifetime.start.p0(i64 24, ptr nonnull %gtris) #23
  %conv293 = sext i32 %__init.addr.0.lcssa.i to i64
  %__end_.i1236 = getelementptr inbounds %"class.std::__1::vector.1", ptr %gtris, i64 0, i32 1
  %__end_cap_.i1237 = getelementptr inbounds %"class.std::__1::vector.1", ptr %gtris, i64 0, i32 2
  %cmp.not.i1238 = icmp eq i32 %__init.addr.0.lcssa.i, 0
  call void @llvm.memset.p0.i64(ptr noundef nonnull align 8 dereferenceable(24) %gtris, i8 0, i64 24, i1 false)
  br i1 %cmp.not.i1238, label %invoke.cont300, label %if.then.i1240

if.then.i1240:                                    ; preds = %invoke.cont291
  %cmp.i.i1239 = icmp slt i32 %__init.addr.0.lcssa.i, 0
  br i1 %cmp.i.i1239, label %if.then.i.i1241, label %_ZNSt3__119__allocate_at_leastB7v170000INS_9allocatorIiEEEENS_19__allocation_resultINS_16allocator_traitsIT_E7pointerEEERS5_m.exit.i.i1245

if.then.i.i1241:                                  ; preds = %if.then.i1240
  invoke void @_ZNKSt3__16vectorIiNS_9allocatorIiEEE20__throw_length_errorB7v170000Ev(ptr noundef nonnull align 8 dereferenceable(24) %gtris) #24
          to label %.noexc.i1242 unwind label %if.then.i8.i1250

.noexc.i1242:                                     ; preds = %if.then.i.i1241
  unreachable

_ZNSt3__119__allocate_at_leastB7v170000INS_9allocatorIiEEEENS_19__allocation_resultINS_16allocator_traitsIT_E7pointerEEERS5_m.exit.i.i1245: ; preds = %if.then.i1240
  %mul.i.i.i.i1243 = shl nuw nsw i64 %conv293, 2
  %call.i5.i.i.i.i7.i1244 = invoke noalias noundef nonnull ptr @_Znwm(i64 noundef %mul.i.i.i.i1243) #25
          to label %_ZNSt3__119__allocate_at_leastB7v170000INS_9allocatorIiEEEENS_19__allocation_resultINS_16allocator_traitsIT_E7pointerEEERS5_m.exit.i.i1264 unwind label %if.then.i8.i1250

if.then.i8.i1250:                                 ; preds = %_ZNSt3__119__allocate_at_leastB7v170000INS_9allocatorIiEEEENS_19__allocation_resultINS_16allocator_traitsIT_E7pointerEEERS5_m.exit.i.i1245, %if.then.i.i1241
  %169 = landingpad { ptr, i32 }
          cleanup
  %170 = load ptr, ptr %gtris, align 8, !tbaa !14
  %cmp.not.i.i.i1249 = icmp eq ptr %170, null
  br i1 %cmp.not.i.i.i1249, label %ehcleanup824, label %if.then.i.i.i1251

if.then.i.i.i1251:                                ; preds = %if.then.i8.i1250
  store ptr %170, ptr %__end_.i1236, align 8, !tbaa !15
  br label %ehcleanup824.sink.split

_ZNSt3__119__allocate_at_leastB7v170000INS_9allocatorIiEEEENS_19__allocation_resultINS_16allocator_traitsIT_E7pointerEEERS5_m.exit.i.i1264: ; preds = %_ZNSt3__119__allocate_at_leastB7v170000INS_9allocatorIiEEEENS_19__allocation_resultINS_16allocator_traitsIT_E7pointerEEERS5_m.exit.i.i1245
  store ptr %call.i5.i.i.i.i7.i1244, ptr %gtris, align 8, !tbaa !14
  %add.ptr.i.i1246 = getelementptr inbounds i32, ptr %call.i5.i.i.i.i7.i1244, i64 %conv293
  store ptr %add.ptr.i.i1246, ptr %__end_cap_.i1237, align 8, !tbaa !42
  call void @llvm.memset.p0.i64(ptr nonnull align 4 %call.i5.i.i.i.i7.i1244, i8 0, i64 %mul.i.i.i.i1243, i1 false), !tbaa !17
  %uglygep.i.i1247 = getelementptr i8, ptr %call.i5.i.i.i.i7.i1244, i64 %mul.i.i.i.i1243
  store ptr %uglygep.i.i1247, ptr %__end_.i1236, align 8, !tbaa !15
  %mul297 = mul nsw i32 %__init.addr.0.lcssa.i, 3
  %conv298 = sext i32 %mul297 to i64
  %mul.i.i.i.i1262 = shl nuw nsw i64 %conv298, 2
  %call.i5.i.i.i.i7.i1263 = invoke noalias noundef nonnull ptr @_Znwm(i64 noundef %mul.i.i.i.i1262) #25
          to label %_ZNSt3__16vectorIiNS_9allocatorIiEEE18__construct_at_endEm.exit.i1267 unwind label %if.then.i8.i1269

_ZNSt3__16vectorIiNS_9allocatorIiEEE18__construct_at_endEm.exit.i1267: ; preds = %_ZNSt3__119__allocate_at_leastB7v170000INS_9allocatorIiEEEENS_19__allocation_resultINS_16allocator_traitsIT_E7pointerEEERS5_m.exit.i.i1264
  call void @llvm.memset.p0.i64(ptr nonnull align 4 %call.i5.i.i.i.i7.i1263, i8 0, i64 %mul.i.i.i.i1262, i1 false), !tbaa !17
  br label %invoke.cont300

if.then.i8.i1269:                                 ; preds = %_ZNSt3__119__allocate_at_leastB7v170000INS_9allocatorIiEEEENS_19__allocation_resultINS_16allocator_traitsIT_E7pointerEEERS5_m.exit.i.i1264
  %171 = landingpad { ptr, i32 }
          cleanup
  br label %ehcleanup822

invoke.cont300:                                   ; preds = %invoke.cont291, %_ZNSt3__16vectorIiNS_9allocatorIiEEE18__construct_at_endEm.exit.i1267
  %gtrip.sroa.0.0 = phi ptr [ %call.i5.i.i.i.i7.i1263, %_ZNSt3__16vectorIiNS_9allocatorIiEEE18__construct_at_endEm.exit.i1267 ], [ null, %invoke.cont291 ]
  %172 = phi ptr [ %call.i5.i.i.i.i7.i1244, %_ZNSt3__16vectorIiNS_9allocatorIiEEE18__construct_at_endEm.exit.i1267 ], [ null, %invoke.cont291 ]
  %173 = load ptr, ptr %tris, align 8, !tbaa !14
  invoke void @_ZN8Parallel7gathervIiEEvPKT_iPS1_PKi(ptr noundef nonnull %173, i32 noundef %conv221, ptr noundef nonnull %172, ptr noundef nonnull %110)
          to label %invoke.cont307 unwind label %lpad306

invoke.cont307:                                   ; preds = %invoke.cont300
  %174 = load i32, ptr @_ZN8Parallel4mypeE, align 4, !tbaa !17
  %cmp308 = icmp eq i32 %174, 0
  %175 = load i32, ptr @_ZN8Parallel5numpeE, align 4
  %cmp3112187 = icmp sgt i32 %175, 0
  %or.cond2220 = select i1 %cmp308, i1 %cmp3112187, i1 false
  br i1 %or.cond2220, label %for.body313.lr.ph, label %if.end323

for.body313.lr.ph:                                ; preds = %invoke.cont307
  %176 = load ptr, ptr %pentris236, align 8, !tbaa !14
  %177 = sext i32 %175 to i64
  %min.iters.check2439 = icmp ult i32 %175, 8
  %178 = ptrtoint ptr %176 to i64
  %179 = sub i64 %165, %178
  %diff.check = icmp ult i64 %179, 32
  %or.cond2512 = select i1 %min.iters.check2439, i1 true, i1 %diff.check
  br i1 %or.cond2512, label %for.body313.preheader, label %vector.ph2440

vector.ph2440:                                    ; preds = %for.body313.lr.ph
  %n.vec2442 = and i64 %177, -8
  br label %vector.body2445

vector.body2445:                                  ; preds = %vector.body2445, %vector.ph2440
  %index2446 = phi i64 [ 0, %vector.ph2440 ], [ %index.next2449, %vector.body2445 ]
  %180 = getelementptr inbounds i32, ptr %176, i64 %index2446
  %wide.load2447 = load <4 x i32>, ptr %180, align 4, !tbaa !17
  %181 = getelementptr inbounds i32, ptr %180, i64 4
  %wide.load2448 = load <4 x i32>, ptr %181, align 4, !tbaa !17
  %182 = mul nsw <4 x i32> %wide.load2447, <i32 3, i32 3, i32 3, i32 3>
  %183 = mul nsw <4 x i32> %wide.load2448, <i32 3, i32 3, i32 3, i32 3>
  %184 = getelementptr inbounds i32, ptr %163, i64 %index2446
  store <4 x i32> %182, ptr %184, align 4, !tbaa !17
  %185 = getelementptr inbounds i32, ptr %184, i64 4
  store <4 x i32> %183, ptr %185, align 4, !tbaa !17
  %index.next2449 = add nuw i64 %index2446, 8
  %186 = icmp eq i64 %index.next2449, %n.vec2442
  br i1 %186, label %middle.block2437, label %vector.body2445, !llvm.loop !111

middle.block2437:                                 ; preds = %vector.body2445
  %cmp.n2444 = icmp eq i64 %n.vec2442, %177
  br i1 %cmp.n2444, label %if.end323, label %for.body313.preheader

for.body313.preheader:                            ; preds = %for.body313.lr.ph, %middle.block2437
  %indvars.iv2226.ph = phi i64 [ 0, %for.body313.lr.ph ], [ %n.vec2442, %middle.block2437 ]
  br label %for.body313

lpad306:                                          ; preds = %call1.i.noexc1922, %_ZNKSt3__19basic_iosIcNS_11char_traitsIcEEE5widenB7v170000Ec.exit.i1919, %invoke.cont359, %if.then358, %for.cond.cleanup326, %invoke.cont300
  %187 = landingpad { ptr, i32 }
          cleanup
  br label %ehcleanup821

for.body313:                                      ; preds = %for.body313.preheader, %for.body313
  %indvars.iv2226 = phi i64 [ %indvars.iv.next2227, %for.body313 ], [ %indvars.iv2226.ph, %for.body313.preheader ]
  %arrayidx.i1274 = getelementptr inbounds i32, ptr %176, i64 %indvars.iv2226
  %188 = load i32, ptr %arrayidx.i1274, align 4, !tbaa !17
  %mul317 = mul nsw i32 %188, 3
  %arrayidx.i1275 = getelementptr inbounds i32, ptr %163, i64 %indvars.iv2226
  store i32 %mul317, ptr %arrayidx.i1275, align 4, !tbaa !17
  %indvars.iv.next2227 = add nuw nsw i64 %indvars.iv2226, 1
  %cmp311 = icmp slt i64 %indvars.iv.next2227, %177
  br i1 %cmp311, label %for.body313, label %if.end323, !llvm.loop !112

if.end323:                                        ; preds = %for.body313, %middle.block2437, %invoke.cont307
  %cmp3252190 = icmp sgt i32 %conv221, 0
  br i1 %cmp3252190, label %for.body327.lr.ph, label %for.cond.cleanup326

for.body327.lr.ph:                                ; preds = %if.end323
  %189 = load ptr, ptr %tris, align 8, !tbaa !14
  %mapzs = getelementptr inbounds %class.ExportGold, ptr %this, i64 0, i32 4
  %190 = load ptr, ptr %mapzs, align 8, !tbaa !14
  %wide.trip.count = and i64 %91, 4294967295
  %.pre2311 = load i32, ptr %offset, align 4, !tbaa !17
  br label %for.body327

for.cond.cleanup326:                              ; preds = %for.body327, %if.end323
  invoke void @_ZN8Parallel7gathervIiEEvPKT_iPS1_PKi(ptr noundef nonnull %168, i32 noundef %mul, ptr noundef nonnull %gtrip.sroa.0.0, ptr noundef nonnull %163)
          to label %invoke.cont354 unwind label %lpad306

for.body327:                                      ; preds = %for.body327.lr.ph, %for.body327
  %indvars.iv2234 = phi i64 [ 0, %for.body327.lr.ph ], [ %indvars.iv.next2235, %for.body327 ]
  %arrayidx.i1276 = getelementptr inbounds i32, ptr %189, i64 %indvars.iv2234
  %191 = load i32, ptr %arrayidx.i1276, align 4, !tbaa !17
  %conv331 = sext i32 %191 to i64
  %arrayidx.i1277 = getelementptr inbounds i32, ptr %190, i64 %conv331
  %192 = load i32, ptr %arrayidx.i1277, align 4, !tbaa !17
  %193 = mul nuw nsw i64 %indvars.iv2234, 3
  %194 = sext i32 %192 to i64
  %arrayidx338 = getelementptr inbounds i32, ptr %88, i64 %194
  %195 = load i32, ptr %arrayidx338, align 4, !tbaa !17
  %add339 = add nsw i32 %.pre2311, %195
  %arrayidx.i1278 = getelementptr inbounds i32, ptr %168, i64 %193
  store i32 %add339, ptr %arrayidx.i1278, align 4, !tbaa !17
  %196 = add nsw i64 %194, 1
  %arrayidx338.1 = getelementptr inbounds i32, ptr %88, i64 %196
  %197 = load i32, ptr %arrayidx338.1, align 4, !tbaa !17
  %add339.1 = add nsw i32 %.pre2311, %197
  %198 = add nuw nsw i64 %193, 1
  %arrayidx.i1278.1 = getelementptr inbounds i32, ptr %168, i64 %198
  store i32 %add339.1, ptr %arrayidx.i1278.1, align 4, !tbaa !17
  %199 = add nsw i64 %194, 2
  %arrayidx338.2 = getelementptr inbounds i32, ptr %88, i64 %199
  %200 = load i32, ptr %arrayidx338.2, align 4, !tbaa !17
  %add339.2 = add nsw i32 %.pre2311, %200
  %201 = add nuw nsw i64 %193, 2
  %arrayidx.i1278.2 = getelementptr inbounds i32, ptr %168, i64 %201
  store i32 %add339.2, ptr %arrayidx.i1278.2, align 4, !tbaa !17
  %indvars.iv.next2235 = add nuw nsw i64 %indvars.iv2234, 1
  %exitcond.not = icmp eq i64 %indvars.iv.next2235, %wide.trip.count
  br i1 %exitcond.not, label %for.cond.cleanup326, label %for.body327, !llvm.loop !113

invoke.cont354:                                   ; preds = %for.cond.cleanup326
  %202 = load i32, ptr @_ZN8Parallel4mypeE, align 4, !tbaa !17
  %cmp355 = icmp eq i32 %202, 0
  %203 = load i32, ptr %gntris, align 8
  %cmp357 = icmp sgt i32 %203, 0
  %or.cond = select i1 %cmp355, i1 %cmp357, i1 false
  br i1 %or.cond, label %if.then358, label %if.end438

if.then358:                                       ; preds = %invoke.cont354
  %call1.i1280 = invoke noundef nonnull align 8 dereferenceable(8) ptr @_ZNSt3__124__put_character_sequenceB7v170000IcNS_11char_traitsIcEEEERNS_13basic_ostreamIT_T0_EES7_PKS4_m(ptr noundef nonnull align 8 dereferenceable(8) %ofs, ptr noundef nonnull @.str.27, i64 noundef 5)
          to label %invoke.cont359 unwind label %lpad306

invoke.cont359:                                   ; preds = %if.then358
  %vtable.i1909 = load ptr, ptr %call1.i1280, align 8, !tbaa !21
  %vbase.offset.ptr.i1910 = getelementptr i8, ptr %vtable.i1909, i64 -24
  %vbase.offset.i1911 = load i64, ptr %vbase.offset.ptr.i1910, align 8
  %add.ptr.i1912 = getelementptr inbounds i8, ptr %call1.i1280, i64 %vbase.offset.i1911
  call void @llvm.lifetime.start.p0(i64 8, ptr nonnull %ref.tmp.i.i1908) #23
  invoke void @_ZNKSt3__18ios_base6getlocEv(ptr nonnull sret(%"class.std::__1::locale") align 8 %ref.tmp.i.i1908, ptr noundef nonnull align 8 dereferenceable(136) %add.ptr.i1912)
          to label %.noexc1920 unwind label %lpad306

.noexc1920:                                       ; preds = %invoke.cont359
  %call.i5.i.i1913 = invoke noundef ptr @_ZNKSt3__16locale9use_facetERNS0_2idE(ptr noundef nonnull align 8 dereferenceable(8) %ref.tmp.i.i1908, ptr noundef nonnull align 8 dereferenceable(12) @_ZNSt3__15ctypeIcE2idE)
          to label %invoke.cont.i.i1917 unwind label %lpad.i.i1918

invoke.cont.i.i1917:                              ; preds = %.noexc1920
  %vtable.i.i.i1914 = load ptr, ptr %call.i5.i.i1913, align 8, !tbaa !21
  %vfn.i.i.i1915 = getelementptr inbounds ptr, ptr %vtable.i.i.i1914, i64 7
  %204 = load ptr, ptr %vfn.i.i.i1915, align 8
  %call.i6.i.i1916 = invoke noundef signext i8 %204(ptr noundef nonnull align 8 dereferenceable(25) %call.i5.i.i1913, i8 noundef signext 10)
          to label %_ZNKSt3__19basic_iosIcNS_11char_traitsIcEEE5widenB7v170000Ec.exit.i1919 unwind label %lpad.i.i1918

lpad.i.i1918:                                     ; preds = %invoke.cont.i.i1917, %.noexc1920
  %205 = landingpad { ptr, i32 }
          cleanup
  call void @_ZNSt3__16localeD1Ev(ptr noundef nonnull align 8 dereferenceable(8) %ref.tmp.i.i1908) #23
  call void @llvm.lifetime.end.p0(i64 8, ptr nonnull %ref.tmp.i.i1908) #23
  br label %ehcleanup821

_ZNKSt3__19basic_iosIcNS_11char_traitsIcEEE5widenB7v170000Ec.exit.i1919: ; preds = %invoke.cont.i.i1917
  call void @_ZNSt3__16localeD1Ev(ptr noundef nonnull align 8 dereferenceable(8) %ref.tmp.i.i1908) #23
  call void @llvm.lifetime.end.p0(i64 8, ptr nonnull %ref.tmp.i.i1908) #23
  %call1.i1923 = invoke noundef nonnull align 8 dereferenceable(8) ptr @_ZNSt3__113basic_ostreamIcNS_11char_traitsIcEEE3putEc(ptr noundef nonnull align 8 dereferenceable(8) %call1.i1280, i8 noundef signext %call.i6.i.i1916)
          to label %call1.i.noexc1922 unwind label %lpad306

call1.i.noexc1922:                                ; preds = %_ZNKSt3__19basic_iosIcNS_11char_traitsIcEEE5widenB7v170000Ec.exit.i1919
  %call2.i1924 = invoke noundef nonnull align 8 dereferenceable(8) ptr @_ZNSt3__113basic_ostreamIcNS_11char_traitsIcEEE5flushEv(ptr noundef nonnull align 8 dereferenceable(8) %call1.i1280)
          to label %invoke.cont365 unwind label %lpad306

invoke.cont365:                                   ; preds = %call1.i.noexc1922
  %vtable.i1285 = load ptr, ptr %ofs, align 8, !tbaa !21
  %vbase.offset.ptr.i1286 = getelementptr i8, ptr %vtable.i1285, i64 -24
  %vbase.offset.i1287 = load i64, ptr %vbase.offset.ptr.i1286, align 8
  %add.ptr.i1288 = getelementptr inbounds i8, ptr %ofs, i64 %vbase.offset.i1287
  %__width_.i.i1290 = getelementptr inbounds %"class.std::__1::ios_base", ptr %add.ptr.i1288, i64 0, i32 3
  store i64 10, ptr %__width_.i.i1290, align 8, !tbaa !84
  %206 = load i32, ptr %gntris, align 8, !tbaa !104
  %call372 = invoke noundef nonnull align 8 dereferenceable(8) ptr @_ZNSt3__113basic_ostreamIcNS_11char_traitsIcEEElsEi(ptr noundef nonnull align 8 dereferenceable(8) %ofs, i32 noundef %206)
          to label %invoke.cont371 unwind label %lpad364

invoke.cont371:                                   ; preds = %invoke.cont365
  %vtable.i1927 = load ptr, ptr %call372, align 8, !tbaa !21
  %vbase.offset.ptr.i1928 = getelementptr i8, ptr %vtable.i1927, i64 -24
  %vbase.offset.i1929 = load i64, ptr %vbase.offset.ptr.i1928, align 8
  %add.ptr.i1930 = getelementptr inbounds i8, ptr %call372, i64 %vbase.offset.i1929
