; ModuleID = '/local/mnt2/workspace2/mnadeem/llvm/llvm-test-suite/MultiSource/Benchmarks/DOE-ProxyApps-C++/CLAMR/Variable.cc'
source_filename = "/local/mnt2/workspace2/mnadeem/llvm/llvm-test-suite/MultiSource/Benchmarks/DOE-ProxyApps-C++/CLAMR/Variable.cc"
target datalayout = "e-m:e-p270:32:32-p271:32:32-p272:64:64-i64:64-f80:128-n8:16:32:64-S128"
target triple = "x86_64-unknown-linux-gnu"

%"class.std::__1::locale::id" = type <{ %"struct.std::__1::once_flag", i32, [4 x i8] }>
%"struct.std::__1::once_flag" = type { i64 }
%"class.std::__1::basic_string" = type { %"class.std::__1::__compressed_pair" }
%"class.std::__1::__compressed_pair" = type { %"struct.std::__1::__compressed_pair_elem" }
%"struct.std::__1::__compressed_pair_elem" = type { %"struct.std::__1::basic_string<char>::__rep" }
%"struct.std::__1::basic_string<char>::__rep" = type { %union.anon }
%union.anon = type { %"struct.std::__1::basic_string<char>::__long" }
%"struct.std::__1::basic_string<char>::__long" = type { %struct.anon, i64, ptr }
%struct.anon = type { i64 }
%"class.PP::Variable" = type { %"class.std::__1::basic_string", %"class.std::__1::vector", i32, i32, i32, %"class.std::__1::vector.8", i8, i8, %"class.std::__1::basic_string" }
%"class.std::__1::vector" = type { ptr, ptr, %"class.std::__1::__compressed_pair.2" }
%"class.std::__1::__compressed_pair.2" = type { %"struct.std::__1::__compressed_pair_elem.3" }
%"struct.std::__1::__compressed_pair_elem.3" = type { ptr }
%"class.std::__1::vector.8" = type { ptr, ptr, %"class.std::__1::__compressed_pair.9" }
%"class.std::__1::__compressed_pair.9" = type { %"struct.std::__1::__compressed_pair_elem.10" }
%"struct.std::__1::__compressed_pair_elem.10" = type { ptr }
%"struct.std::__1::basic_string<char>::__short" = type { %struct.anon.0, [0 x i8], [23 x i8] }
%struct.anon.0 = type { i8 }
%"class.std::__1::locale" = type { ptr }
%"class.PP::Parser_utils" = type { i8 }
%"class.std::__1::deque" = type { %"struct.std::__1::__split_buffer", i64, %"class.std::__1::__compressed_pair.21" }
%"struct.std::__1::__split_buffer" = type { ptr, ptr, ptr, %"class.std::__1::__compressed_pair.15" }
%"class.std::__1::__compressed_pair.15" = type { %"struct.std::__1::__compressed_pair_elem.16" }
%"struct.std::__1::__compressed_pair_elem.16" = type { ptr }
%"class.std::__1::__compressed_pair.21" = type { %"struct.std::__1::__compressed_pair_elem.22" }
%"struct.std::__1::__compressed_pair_elem.22" = type { i64 }
%"class.PP::Word" = type { %"class.std::__1::basic_string", i32, i8, i8, i32, i32, %"class.std::__1::basic_string", i32, i32, %"class.std::__1::basic_string", ptr }
%"class.std::__1::basic_stringstream" = type { %"class.std::__1::basic_iostream.base", %"class.std::__1::basic_stringbuf", %"class.std::__1::basic_ios.base" }
%"class.std::__1::basic_iostream.base" = type { %"class.std::__1::basic_istream.base", %"class.std::__1::basic_ostream.base" }
%"class.std::__1::basic_istream.base" = type { ptr, i64 }
%"class.std::__1::basic_ostream.base" = type { ptr }
%"class.std::__1::basic_stringbuf" = type <{ %"class.std::__1::basic_streambuf", %"class.std::__1::basic_string", ptr, i32, [4 x i8] }>
%"class.std::__1::basic_streambuf" = type { ptr, %"class.std::__1::locale", ptr, ptr, ptr, ptr, ptr, ptr }
%"class.std::__1::basic_ios.base" = type <{ %"class.std::__1::ios_base", ptr, i32 }>
%"class.std::__1::ios_base" = type { ptr, i32, i64, i64, i32, i32, ptr, ptr, ptr, ptr, i64, i64, ptr, i64, i64, ptr, i64, i64 }
%"class.std::__1::basic_istream" = type { ptr, i64, %"class.std::__1::basic_ios.base" }
%"struct.std::__1::__split_buffer.24" = type { ptr, ptr, ptr, %"class.std::__1::__compressed_pair.25" }
%"class.std::__1::__compressed_pair.25" = type { %"struct.std::__1::__compressed_pair_elem.3", %"struct.std::__1::__compressed_pair_elem.26" }
%"struct.std::__1::__compressed_pair_elem.26" = type { ptr }
%"class.std::__1::basic_ostream<char>::sentry" = type { i8, ptr }
%"class.std::__1::basic_ios" = type <{ %"class.std::__1::ios_base", ptr, i32, [4 x i8] }>

$_ZNSt3__16vectorINS_12basic_stringIcNS_11char_traitsIcEENS_9allocatorIcEEEENS4_IS6_EEED2B7v170000Ev = comdat any

$_ZNSt3__118basic_stringstreamIcNS_11char_traitsIcEENS_9allocatorIcEEED1Ev = comdat any

$_ZThn16_NSt3__118basic_stringstreamIcNS_11char_traitsIcEENS_9allocatorIcEEED1Ev = comdat any

$_ZTv0_n24_NSt3__118basic_stringstreamIcNS_11char_traitsIcEENS_9allocatorIcEEED1Ev = comdat any

$_ZNSt3__118basic_stringstreamIcNS_11char_traitsIcEENS_9allocatorIcEEED0Ev = comdat any

$_ZThn16_NSt3__118basic_stringstreamIcNS_11char_traitsIcEENS_9allocatorIcEEED0Ev = comdat any

$_ZTv0_n24_NSt3__118basic_stringstreamIcNS_11char_traitsIcEENS_9allocatorIcEEED0Ev = comdat any

$_ZNSt3__115basic_stringbufIcNS_11char_traitsIcEENS_9allocatorIcEEED2Ev = comdat any

$_ZNSt3__115basic_stringbufIcNS_11char_traitsIcEENS_9allocatorIcEEED0Ev = comdat any

$_ZNSt3__115basic_stringbufIcNS_11char_traitsIcEENS_9allocatorIcEEE7seekoffExNS_8ios_base7seekdirEj = comdat any

$_ZNSt3__115basic_stringbufIcNS_11char_traitsIcEENS_9allocatorIcEEE7seekposENS_4fposI11__mbstate_tEEj = comdat any

$_ZNSt3__115basic_stringbufIcNS_11char_traitsIcEENS_9allocatorIcEEE9underflowEv = comdat any

$_ZNSt3__115basic_stringbufIcNS_11char_traitsIcEENS_9allocatorIcEEE9pbackfailEi = comdat any

$_ZNSt3__115basic_stringbufIcNS_11char_traitsIcEENS_9allocatorIcEEE8overflowEi = comdat any

$__clang_call_terminate = comdat any

$_ZNSt3__16vectorINS_12basic_stringIcNS_11char_traitsIcEENS_9allocatorIcEEEENS4_IS6_EEE21__push_back_slow_pathIS6_EEvOT_ = comdat any

$_ZNSt3__114__split_bufferINS_12basic_stringIcNS_11char_traitsIcEENS_9allocatorIcEEEERNS4_IS6_EEED2Ev = comdat any

$_ZNKSt3__16vectorINS_12basic_stringIcNS_11char_traitsIcEENS_9allocatorIcEEEENS4_IS6_EEE20__throw_length_errorB7v170000Ev = comdat any

$_ZNSt3__120__throw_length_errorB7v170000EPKc = comdat any

$_ZNSt12length_errorC2B7v170000EPKc = comdat any

$_ZSt28__throw_bad_array_new_lengthB7v170000v = comdat any

$_ZNKSt3__112basic_stringIcNS_11char_traitsIcEENS_9allocatorIcEEE20__throw_length_errorB7v170000Ev = comdat any

$_ZNSt3__16vectorINS_12basic_stringIcNS_11char_traitsIcEENS_9allocatorIcEEEENS4_IS6_EEE21__push_back_slow_pathIRKS6_EEvOT_ = comdat any

$_ZNSt3__124__put_character_sequenceB7v170000IcNS_11char_traitsIcEEEERNS_13basic_ostreamIT_T0_EES7_PKS4_m = comdat any

$_ZNSt3__116__pad_and_outputB7v170000IcNS_11char_traitsIcEEEENS_19ostreambuf_iteratorIT_T0_EES6_PKS4_S8_S8_RNS_8ios_baseES4_ = comdat any

$_ZNSt3__16vectorINS_12basic_stringIcNS_11char_traitsIcEENS_9allocatorIcEEEENS4_IS6_EEE8__appendEmRKS6_ = comdat any

$_ZNKSt3__115basic_stringbufIcNS_11char_traitsIcEENS_9allocatorIcEEE3strEv = comdat any

$_ZNKSt3__16vectorIiNS_9allocatorIiEEE20__throw_length_errorB7v170000Ev = comdat any

$_ZTVNSt3__118basic_stringstreamIcNS_11char_traitsIcEENS_9allocatorIcEEEE = comdat any

$_ZTTNSt3__118basic_stringstreamIcNS_11char_traitsIcEENS_9allocatorIcEEEE = comdat any

$_ZTCNSt3__118basic_stringstreamIcNS_11char_traitsIcEENS_9allocatorIcEEEE0_NS_14basic_iostreamIcS2_EE = comdat any

$_ZTCNSt3__118basic_stringstreamIcNS_11char_traitsIcEENS_9allocatorIcEEEE0_NS_13basic_istreamIcS2_EE = comdat any

$_ZTCNSt3__118basic_stringstreamIcNS_11char_traitsIcEENS_9allocatorIcEEEE16_NS_13basic_ostreamIcS2_EE = comdat any

$_ZTSNSt3__118basic_stringstreamIcNS_11char_traitsIcEENS_9allocatorIcEEEE = comdat any

$_ZTINSt3__118basic_stringstreamIcNS_11char_traitsIcEENS_9allocatorIcEEEE = comdat any

$_ZTVNSt3__115basic_stringbufIcNS_11char_traitsIcEENS_9allocatorIcEEEE = comdat any

$_ZTSNSt3__115basic_stringbufIcNS_11char_traitsIcEENS_9allocatorIcEEEE = comdat any

$_ZTINSt3__115basic_stringbufIcNS_11char_traitsIcEENS_9allocatorIcEEEE = comdat any

@.str = private unnamed_addr constant [18 x i8] c"__NO_NAME_GIVEN__\00", align 1
@.str.1 = private unnamed_addr constant [19 x i8] c"__NO_VALUE_GIVEN__\00", align 1
@.str.2 = private unnamed_addr constant [1 x i8] zeroinitializer, align 1
@_ZN2PPL10index_baseE = internal unnamed_addr global i32 1, align 4
@.str.3 = private unnamed_addr constant [25 x i8] c"*** FATAL ERROR in line \00", align 1
@.str.4 = private unnamed_addr constant [2 x i8] c":\00", align 1
@.str.5 = private unnamed_addr constant [5 x i8] c"    \00", align 1
@.str.6 = private unnamed_addr constant [10 x i8] c"in file: \00", align 1
@.str.7 = private unnamed_addr constant [40 x i8] c"Cannot redefine a pre-defined variable.\00", align 1
@.str.8 = private unnamed_addr constant [50 x i8] c"Cannot redefine the dimensionality of a variable.\00", align 1
@.str.9 = private unnamed_addr constant [33 x i8] c"Original number of dimensions = \00", align 1
@.str.10 = private unnamed_addr constant [28 x i8] c"New number of dimensions = \00", align 1
@.str.11 = private unnamed_addr constant [24 x i8] c"Previously set in line \00", align 1
@.str.12 = private unnamed_addr constant [50 x i8] c"Array boundaries not allowed for scalar variable.\00", align 1
@.str.13 = private unnamed_addr constant [35 x i8] c"Array boundaries were set in line \00", align 1
@.str.14 = private unnamed_addr constant [24 x i8] c"Number of dimensions = \00", align 1
@.str.15 = private unnamed_addr constant [34 x i8] c"Number of array boundaries + 1 = \00", align 1
@.str.16 = private unnamed_addr constant [31 x i8] c"These should match but don't. \00", align 1
@.str.17 = private unnamed_addr constant [63 x i8] c"Cannot redefine the dimensionality of a variable (set_bounds).\00", align 1
@.str.18 = private unnamed_addr constant [47 x i8] c"The bounds on this array has already been set,\00", align 1
@.str.19 = private unnamed_addr constant [19 x i8] c"cannot reset them.\00", align 1
@.str.20 = private unnamed_addr constant [32 x i8] c"The dimensionality of variable \00", align 1
@.str.21 = private unnamed_addr constant [40 x i8] c"does not match what was previously set.\00", align 1
@.str.22 = private unnamed_addr constant [37 x i8] c"Previous dimensionality set in line \00", align 1
@.str.23 = private unnamed_addr constant [17 x i8] c"Variable name = \00", align 1
@.str.24 = private unnamed_addr constant [25 x i8] c"The value for dimension \00", align 1
@.str.25 = private unnamed_addr constant [4 x i8] c" = \00", align 1
@.str.26 = private unnamed_addr constant [35 x i8] c"This exceeds the max dimension of \00", align 1
@.str.27 = private unnamed_addr constant [35 x i8] c"The array bounds were set in line \00", align 1
@.str.28 = private unnamed_addr constant [43 x i8] c"Expected index greater than or equal to 1 \00", align 1
@.str.29 = private unnamed_addr constant [19 x i8] c"Instead, index =  \00", align 1
@.str.30 = private unnamed_addr constant [54 x i8] c"Exceeded array bounds. Check to make sure you are not\00", align 1
@.str.31 = private unnamed_addr constant [50 x i8] c"requesting an array element you have not yet set.\00", align 1
@.str.32 = private unnamed_addr constant [22 x i8] c"  ERROR, max exceeded\00", align 1
@.str.33 = private unnamed_addr constant [23 x i8] c"    Requested index = \00", align 1
@.str.34 = private unnamed_addr constant [15 x i8] c"  Max index = \00", align 1
@_ZTVNSt3__118basic_stringstreamIcNS_11char_traitsIcEENS_9allocatorIcEEEE = linkonce_odr dso_local unnamed_addr constant { [5 x ptr], [5 x ptr], [5 x ptr] } { [5 x ptr] [ptr inttoptr (i64 128 to ptr), ptr null, ptr @_ZTINSt3__118basic_stringstreamIcNS_11char_traitsIcEENS_9allocatorIcEEEE, ptr @_ZNSt3__118basic_stringstreamIcNS_11char_traitsIcEENS_9allocatorIcEEED1Ev, ptr @_ZNSt3__118basic_stringstreamIcNS_11char_traitsIcEENS_9allocatorIcEEED0Ev], [5 x ptr] [ptr inttoptr (i64 112 to ptr), ptr inttoptr (i64 -16 to ptr), ptr @_ZTINSt3__118basic_stringstreamIcNS_11char_traitsIcEENS_9allocatorIcEEEE, ptr @_ZThn16_NSt3__118basic_stringstreamIcNS_11char_traitsIcEENS_9allocatorIcEEED1Ev, ptr @_ZThn16_NSt3__118basic_stringstreamIcNS_11char_traitsIcEENS_9allocatorIcEEED0Ev], [5 x ptr] [ptr inttoptr (i64 -128 to ptr), ptr inttoptr (i64 -128 to ptr), ptr @_ZTINSt3__118basic_stringstreamIcNS_11char_traitsIcEENS_9allocatorIcEEEE, ptr @_ZTv0_n24_NSt3__118basic_stringstreamIcNS_11char_traitsIcEENS_9allocatorIcEEED1Ev, ptr @_ZTv0_n24_NSt3__118basic_stringstreamIcNS_11char_traitsIcEENS_9allocatorIcEEED0Ev] }, comdat, align 8
@_ZTTNSt3__118basic_stringstreamIcNS_11char_traitsIcEENS_9allocatorIcEEEE = linkonce_odr dso_local unnamed_addr constant [10 x ptr] [ptr getelementptr inbounds ({ [5 x ptr], [5 x ptr], [5 x ptr] }, ptr @_ZTVNSt3__118basic_stringstreamIcNS_11char_traitsIcEENS_9allocatorIcEEEE, i32 0, inrange i32 0, i32 3), ptr getelementptr inbounds ({ [5 x ptr], [5 x ptr], [5 x ptr] }, ptr @_ZTCNSt3__118basic_stringstreamIcNS_11char_traitsIcEENS_9allocatorIcEEEE0_NS_14basic_iostreamIcS2_EE, i32 0, inrange i32 0, i32 3), ptr getelementptr inbounds ({ [5 x ptr], [5 x ptr] }, ptr @_ZTCNSt3__118basic_stringstreamIcNS_11char_traitsIcEENS_9allocatorIcEEEE0_NS_13basic_istreamIcS2_EE, i32 0, inrange i32 0, i32 3), ptr getelementptr inbounds ({ [5 x ptr], [5 x ptr] }, ptr @_ZTCNSt3__118basic_stringstreamIcNS_11char_traitsIcEENS_9allocatorIcEEEE0_NS_13basic_istreamIcS2_EE, i32 0, inrange i32 1, i32 3), ptr getelementptr inbounds ({ [5 x ptr], [5 x ptr] }, ptr @_ZTCNSt3__118basic_stringstreamIcNS_11char_traitsIcEENS_9allocatorIcEEEE16_NS_13basic_ostreamIcS2_EE, i32 0, inrange i32 0, i32 3), ptr getelementptr inbounds ({ [5 x ptr], [5 x ptr] }, ptr @_ZTCNSt3__118basic_stringstreamIcNS_11char_traitsIcEENS_9allocatorIcEEEE16_NS_13basic_ostreamIcS2_EE, i32 0, inrange i32 1, i32 3), ptr getelementptr inbounds ({ [5 x ptr], [5 x ptr], [5 x ptr] }, ptr @_ZTCNSt3__118basic_stringstreamIcNS_11char_traitsIcEENS_9allocatorIcEEEE0_NS_14basic_iostreamIcS2_EE, i32 0, inrange i32 2, i32 3), ptr getelementptr inbounds ({ [5 x ptr], [5 x ptr], [5 x ptr] }, ptr @_ZTCNSt3__118basic_stringstreamIcNS_11char_traitsIcEENS_9allocatorIcEEEE0_NS_14basic_iostreamIcS2_EE, i32 0, inrange i32 1, i32 3), ptr getelementptr inbounds ({ [5 x ptr], [5 x ptr], [5 x ptr] }, ptr @_ZTVNSt3__118basic_stringstreamIcNS_11char_traitsIcEENS_9allocatorIcEEEE, i32 0, inrange i32 2, i32 3), ptr getelementptr inbounds ({ [5 x ptr], [5 x ptr], [5 x ptr] }, ptr @_ZTVNSt3__118basic_stringstreamIcNS_11char_traitsIcEENS_9allocatorIcEEEE, i32 0, inrange i32 1, i32 3)], comdat, align 8
@_ZTCNSt3__118basic_stringstreamIcNS_11char_traitsIcEENS_9allocatorIcEEEE0_NS_14basic_iostreamIcS2_EE = linkonce_odr dso_local unnamed_addr constant { [5 x ptr], [5 x ptr], [5 x ptr] } { [5 x ptr] [ptr inttoptr (i64 128 to ptr), ptr null, ptr @_ZTINSt3__114basic_iostreamIcNS_11char_traitsIcEEEE, ptr @_ZNSt3__114basic_iostreamIcNS_11char_traitsIcEEED1Ev, ptr @_ZNSt3__114basic_iostreamIcNS_11char_traitsIcEEED0Ev], [5 x ptr] [ptr inttoptr (i64 112 to ptr), ptr inttoptr (i64 -16 to ptr), ptr @_ZTINSt3__114basic_iostreamIcNS_11char_traitsIcEEEE, ptr @_ZThn16_NSt3__114basic_iostreamIcNS_11char_traitsIcEEED1Ev, ptr @_ZThn16_NSt3__114basic_iostreamIcNS_11char_traitsIcEEED0Ev], [5 x ptr] [ptr inttoptr (i64 -128 to ptr), ptr inttoptr (i64 -128 to ptr), ptr @_ZTINSt3__114basic_iostreamIcNS_11char_traitsIcEEEE, ptr @_ZTv0_n24_NSt3__114basic_iostreamIcNS_11char_traitsIcEEED1Ev, ptr @_ZTv0_n24_NSt3__114basic_iostreamIcNS_11char_traitsIcEEED0Ev] }, comdat, align 8
@_ZTINSt3__114basic_iostreamIcNS_11char_traitsIcEEEE = external constant ptr
@_ZTCNSt3__118basic_stringstreamIcNS_11char_traitsIcEENS_9allocatorIcEEEE0_NS_13basic_istreamIcS2_EE = linkonce_odr dso_local unnamed_addr constant { [5 x ptr], [5 x ptr] } { [5 x ptr] [ptr inttoptr (i64 128 to ptr), ptr null, ptr @_ZTINSt3__113basic_istreamIcNS_11char_traitsIcEEEE, ptr @_ZNSt3__113basic_istreamIcNS_11char_traitsIcEEED1Ev, ptr @_ZNSt3__113basic_istreamIcNS_11char_traitsIcEEED0Ev], [5 x ptr] [ptr inttoptr (i64 -128 to ptr), ptr inttoptr (i64 -128 to ptr), ptr @_ZTINSt3__113basic_istreamIcNS_11char_traitsIcEEEE, ptr @_ZTv0_n24_NSt3__113basic_istreamIcNS_11char_traitsIcEEED1Ev, ptr @_ZTv0_n24_NSt3__113basic_istreamIcNS_11char_traitsIcEEED0Ev] }, comdat, align 8
@_ZTINSt3__113basic_istreamIcNS_11char_traitsIcEEEE = external constant ptr
@_ZTCNSt3__118basic_stringstreamIcNS_11char_traitsIcEENS_9allocatorIcEEEE16_NS_13basic_ostreamIcS2_EE = linkonce_odr dso_local unnamed_addr constant { [5 x ptr], [5 x ptr] } { [5 x ptr] [ptr inttoptr (i64 112 to ptr), ptr null, ptr @_ZTINSt3__113basic_ostreamIcNS_11char_traitsIcEEEE, ptr @_ZNSt3__113basic_ostreamIcNS_11char_traitsIcEEED1Ev, ptr @_ZNSt3__113basic_ostreamIcNS_11char_traitsIcEEED0Ev], [5 x ptr] [ptr inttoptr (i64 -112 to ptr), ptr inttoptr (i64 -112 to ptr), ptr @_ZTINSt3__113basic_ostreamIcNS_11char_traitsIcEEEE, ptr @_ZTv0_n24_NSt3__113basic_ostreamIcNS_11char_traitsIcEEED1Ev, ptr @_ZTv0_n24_NSt3__113basic_ostreamIcNS_11char_traitsIcEEED0Ev] }, comdat, align 8
@_ZTINSt3__113basic_ostreamIcNS_11char_traitsIcEEEE = external constant ptr
@_ZTVN10__cxxabiv120__si_class_type_infoE = external global ptr
@_ZTSNSt3__118basic_stringstreamIcNS_11char_traitsIcEENS_9allocatorIcEEEE = linkonce_odr dso_local constant [69 x i8] c"NSt3__118basic_stringstreamIcNS_11char_traitsIcEENS_9allocatorIcEEEE\00", comdat, align 1
@_ZTINSt3__118basic_stringstreamIcNS_11char_traitsIcEENS_9allocatorIcEEEE = linkonce_odr dso_local constant { ptr, ptr, ptr } { ptr getelementptr inbounds (ptr, ptr @_ZTVN10__cxxabiv120__si_class_type_infoE, i64 2), ptr @_ZTSNSt3__118basic_stringstreamIcNS_11char_traitsIcEENS_9allocatorIcEEEE, ptr @_ZTINSt3__114basic_iostreamIcNS_11char_traitsIcEEEE }, comdat, align 8
@_ZTVNSt3__115basic_stringbufIcNS_11char_traitsIcEENS_9allocatorIcEEEE = linkonce_odr dso_local unnamed_addr constant { [16 x ptr] } { [16 x ptr] [ptr null, ptr @_ZTINSt3__115basic_stringbufIcNS_11char_traitsIcEENS_9allocatorIcEEEE, ptr @_ZNSt3__115basic_stringbufIcNS_11char_traitsIcEENS_9allocatorIcEEED2Ev, ptr @_ZNSt3__115basic_stringbufIcNS_11char_traitsIcEENS_9allocatorIcEEED0Ev, ptr @_ZNSt3__115basic_streambufIcNS_11char_traitsIcEEE5imbueERKNS_6localeE, ptr @_ZNSt3__115basic_streambufIcNS_11char_traitsIcEEE6setbufEPcl, ptr @_ZNSt3__115basic_stringbufIcNS_11char_traitsIcEENS_9allocatorIcEEE7seekoffExNS_8ios_base7seekdirEj, ptr @_ZNSt3__115basic_stringbufIcNS_11char_traitsIcEENS_9allocatorIcEEE7seekposENS_4fposI11__mbstate_tEEj, ptr @_ZNSt3__115basic_streambufIcNS_11char_traitsIcEEE4syncEv, ptr @_ZNSt3__115basic_streambufIcNS_11char_traitsIcEEE9showmanycEv, ptr @_ZNSt3__115basic_streambufIcNS_11char_traitsIcEEE6xsgetnEPcl, ptr @_ZNSt3__115basic_stringbufIcNS_11char_traitsIcEENS_9allocatorIcEEE9underflowEv, ptr @_ZNSt3__115basic_streambufIcNS_11char_traitsIcEEE5uflowEv, ptr @_ZNSt3__115basic_stringbufIcNS_11char_traitsIcEENS_9allocatorIcEEE9pbackfailEi, ptr @_ZNSt3__115basic_streambufIcNS_11char_traitsIcEEE6xsputnEPKcl, ptr @_ZNSt3__115basic_stringbufIcNS_11char_traitsIcEENS_9allocatorIcEEE8overflowEi] }, comdat, align 8
@_ZTSNSt3__115basic_stringbufIcNS_11char_traitsIcEENS_9allocatorIcEEEE = linkonce_odr dso_local constant [66 x i8] c"NSt3__115basic_stringbufIcNS_11char_traitsIcEENS_9allocatorIcEEEE\00", comdat, align 1
@_ZTINSt3__115basic_streambufIcNS_11char_traitsIcEEEE = external constant ptr
@_ZTINSt3__115basic_stringbufIcNS_11char_traitsIcEENS_9allocatorIcEEEE = linkonce_odr dso_local constant { ptr, ptr, ptr } { ptr getelementptr inbounds (ptr, ptr @_ZTVN10__cxxabiv120__si_class_type_infoE, i64 2), ptr @_ZTSNSt3__115basic_stringbufIcNS_11char_traitsIcEENS_9allocatorIcEEEE, ptr @_ZTINSt3__115basic_streambufIcNS_11char_traitsIcEEEE }, comdat, align 8
@.str.35 = private unnamed_addr constant [7 x i8] c"vector\00", align 1
@_ZTISt12length_error = external constant ptr
@_ZTVSt12length_error = external unnamed_addr constant { [5 x ptr] }, align 8
@_ZTISt20bad_array_new_length = external constant ptr
@.str.36 = private unnamed_addr constant [13 x i8] c"basic_string\00", align 1
@_ZNSt3__15ctypeIcE2idE = external global %"class.std::__1::locale::id", align 8

@_ZN2PP8VariableC1Ev = dso_local unnamed_addr alias void (ptr), ptr @_ZN2PP8VariableC2Ev
@_ZN2PP8VariableC1Ei = dso_local unnamed_addr alias void (ptr, i32), ptr @_ZN2PP8VariableC2Ei
@_ZN2PP8VariableC1ENSt3__112basic_stringIcNS1_11char_traitsIcEENS1_9allocatorIcEEEES7_bS7_ = dso_local unnamed_addr alias void (ptr, ptr, ptr, i1, ptr), ptr @_ZN2PP8VariableC2ENSt3__112basic_stringIcNS1_11char_traitsIcEENS1_9allocatorIcEEEES7_bS7_
@_ZN2PP8VariableC1ENSt3__112basic_stringIcNS1_11char_traitsIcEENS1_9allocatorIcEEEE = dso_local unnamed_addr alias void (ptr, ptr), ptr @_ZN2PP8VariableC2ENSt3__112basic_stringIcNS1_11char_traitsIcEENS1_9allocatorIcEEEE
@_ZN2PP8VariableC1ENSt3__112basic_stringIcNS1_11char_traitsIcEENS1_9allocatorIcEEEERNS1_6vectorIiNS5_IiEEEERNS8_IS7_NS5_IS7_EEEEiiS7_PNS1_5dequeIS7_SC_EERNS1_18basic_stringstreamIcS4_S6_EERi = dso_local unnamed_addr alias void (ptr, ptr, ptr, ptr, i32, i32, ptr, ptr, ptr, ptr), ptr @_ZN2PP8VariableC2ENSt3__112basic_stringIcNS1_11char_traitsIcEENS1_9allocatorIcEEEERNS1_6vectorIiNS5_IiEEEERNS8_IS7_NS5_IS7_EEEEiiS7_PNS1_5dequeIS7_SC_EERNS1_18basic_stringstreamIcS4_S6_EERi

; Function Attrs: uwtable
define dso_local void @_ZN2PP8VariableC2Ev(ptr noundef nonnull align 8 dereferenceable(120) %this) unnamed_addr #0 align 2 personality ptr @__gxx_personality_v0 {
entry:
  %ref.tmp = alloca %"class.std::__1::basic_string", align 8
  %value = getelementptr inbounds %"class.PP::Variable", ptr %this, i64 0, i32 1
  %maxdim = getelementptr inbounds %"class.PP::Variable", ptr %this, i64 0, i32 5
  tail call void @llvm.memset.p0.i64(ptr noundef nonnull align 8 dereferenceable(24) %maxdim, i8 0, i64 24, i1 false)
  %description = getelementptr inbounds %"class.PP::Variable", ptr %this, i64 0, i32 8
  tail call void @llvm.memset.p0.i64(ptr noundef nonnull align 8 dereferenceable(24) %description, i8 0, i64 24, i1 false)
  tail call void @llvm.memset.p0.i64(ptr noundef nonnull align 8 dereferenceable(48) %this, i8 0, i64 48, i1 false)
  %call.i19 = invoke noundef nonnull align 8 dereferenceable(24) ptr @_ZNSt3__112basic_stringIcNS_11char_traitsIcEENS_9allocatorIcEEE6assignEPKc(ptr noundef nonnull align 8 dereferenceable(24) %this, ptr noundef nonnull @.str)
          to label %invoke.cont unwind label %lpad

invoke.cont:                                      ; preds = %entry
  call void @llvm.lifetime.start.p0(i64 24, ptr nonnull %ref.tmp) #19
  store i8 36, ptr %ref.tmp, align 8
  %__data_.i.i.i = getelementptr inbounds %"struct.std::__1::basic_string<char>::__short", ptr %ref.tmp, i64 0, i32 2
  %cmp.i24.i.i = icmp ugt ptr %__data_.i.i.i, @.str.1
  %add.ptr.i.i.i = getelementptr inbounds %"struct.std::__1::basic_string<char>::__short", ptr %ref.tmp, i64 0, i32 2, i64 18
  %cmp1.i.i.i = icmp ule ptr %add.ptr.i.i.i, @.str.1
  %0 = or i1 %cmp.i24.i.i, %cmp1.i.i.i
  call void @llvm.assume(i1 %0)
  call void @llvm.memcpy.p0.p0.i64(ptr noundef nonnull align 1 dereferenceable(18) %__data_.i.i.i, ptr noundef nonnull align 1 dereferenceable(18) @.str.1, i64 18, i1 false)
  store i8 0, ptr %add.ptr.i.i.i, align 1, !tbaa !5
  %__end_.i = getelementptr inbounds %"class.PP::Variable", ptr %this, i64 0, i32 1, i32 1
  %1 = load ptr, ptr %__end_.i, align 8, !tbaa !8
  %__end_cap_.i.i = getelementptr inbounds %"class.PP::Variable", ptr %this, i64 0, i32 1, i32 2
  %2 = load ptr, ptr %__end_cap_.i.i, align 8, !tbaa !13
  %cmp.i = icmp ult ptr %1, %2
  br i1 %cmp.i, label %invoke.cont7.thread, label %if.else.i

invoke.cont7.thread:                              ; preds = %invoke.cont
  call void @llvm.memcpy.p0.p0.i64(ptr noundef nonnull align 8 dereferenceable(24) %1, ptr noundef nonnull align 8 dereferenceable(24) %ref.tmp, i64 24, i1 false)
  %incdec.ptr.i.i = getelementptr inbounds %"class.std::__1::basic_string", ptr %1, i64 1
  store ptr %incdec.ptr.i.i, ptr %__end_.i, align 8, !tbaa !8
  br label %_ZNSt3__112basic_stringIcNS_11char_traitsIcEENS_9allocatorIcEEED2Ev.exit

if.else.i:                                        ; preds = %invoke.cont
  invoke void @_ZNSt3__16vectorINS_12basic_stringIcNS_11char_traitsIcEENS_9allocatorIcEEEENS4_IS6_EEE21__push_back_slow_pathIS6_EEvOT_(ptr noundef nonnull align 8 dereferenceable(24) %value, ptr noundef nonnull align 8 dereferenceable(24) %ref.tmp)
          to label %invoke.cont7 unwind label %lpad6

invoke.cont7:                                     ; preds = %if.else.i
  %bf.load.i.i.pre = load i8, ptr %ref.tmp, align 8
  %3 = and i8 %bf.load.i.i.pre, 1
  %4 = icmp eq i8 %3, 0
  br i1 %4, label %_ZNSt3__112basic_stringIcNS_11char_traitsIcEENS_9allocatorIcEEED2Ev.exit, label %if.then.i22

if.then.i22:                                      ; preds = %invoke.cont7
  %__data_.i.i = getelementptr inbounds %"struct.std::__1::basic_string<char>::__long", ptr %ref.tmp, i64 0, i32 2
  %5 = load ptr, ptr %__data_.i.i, align 8, !tbaa !5
  call void @_ZdlPv(ptr noundef %5) #20
  br label %_ZNSt3__112basic_stringIcNS_11char_traitsIcEENS_9allocatorIcEEED2Ev.exit

_ZNSt3__112basic_stringIcNS_11char_traitsIcEENS_9allocatorIcEEED2Ev.exit: ; preds = %invoke.cont7.thread, %invoke.cont7, %if.then.i22
  call void @llvm.lifetime.end.p0(i64 24, ptr nonnull %ref.tmp) #19
  %ndim = getelementptr inbounds %"class.PP::Variable", ptr %this, i64 0, i32 2
  store i32 -1, ptr %ndim, align 8, !tbaa !14
  %lnum_ndim = getelementptr inbounds %"class.PP::Variable", ptr %this, i64 0, i32 4
  store i32 0, ptr %lnum_ndim, align 8, !tbaa !25
  %lnum_bounds = getelementptr inbounds %"class.PP::Variable", ptr %this, i64 0, i32 3
  store i32 0, ptr %lnum_bounds, align 4, !tbaa !26
  %pre_defined = getelementptr inbounds %"class.PP::Variable", ptr %this, i64 0, i32 6
  store i8 0, ptr %pre_defined, align 8, !tbaa !27
  %call.i23 = invoke noundef nonnull align 8 dereferenceable(24) ptr @_ZNSt3__112basic_stringIcNS_11char_traitsIcEENS_9allocatorIcEEE6assignEPKc(ptr noundef nonnull align 8 dereferenceable(24) %description, ptr noundef nonnull @.str.2)
          to label %invoke.cont9 unwind label %lpad

invoke.cont9:                                     ; preds = %_ZNSt3__112basic_stringIcNS_11char_traitsIcEENS_9allocatorIcEEED2Ev.exit
  %temporary = getelementptr inbounds %"class.PP::Variable", ptr %this, i64 0, i32 7
  store i8 0, ptr %temporary, align 1, !tbaa !28
  ret void

lpad:                                             ; preds = %_ZNSt3__112basic_stringIcNS_11char_traitsIcEENS_9allocatorIcEEED2Ev.exit, %entry
  %6 = landingpad { ptr, i32 }
          cleanup
  br label %ehcleanup11

lpad6:                                            ; preds = %if.else.i
  %7 = landingpad { ptr, i32 }
          cleanup
  %bf.load.i.i25 = load i8, ptr %ref.tmp, align 8
  %bf.clear.i.i26 = and i8 %bf.load.i.i25, 1
  %tobool.i.not.i27 = icmp eq i8 %bf.clear.i.i26, 0
  br i1 %tobool.i.not.i27, label %ehcleanup, label %if.then.i29

if.then.i29:                                      ; preds = %lpad6
  %__data_.i.i28 = getelementptr inbounds %"struct.std::__1::basic_string<char>::__long", ptr %ref.tmp, i64 0, i32 2
  %8 = load ptr, ptr %__data_.i.i28, align 8, !tbaa !5
  call void @_ZdlPv(ptr noundef %8) #20
  br label %ehcleanup

ehcleanup:                                        ; preds = %if.then.i29, %lpad6
  call void @llvm.lifetime.end.p0(i64 24, ptr nonnull %ref.tmp) #19
  br label %ehcleanup11

ehcleanup11:                                      ; preds = %ehcleanup, %lpad
  %.pn16 = phi { ptr, i32 } [ %6, %lpad ], [ %7, %ehcleanup ]
  %bf.load.i.i31 = load i8, ptr %description, align 8
  %bf.clear.i.i32 = and i8 %bf.load.i.i31, 1
  %tobool.i.not.i33 = icmp eq i8 %bf.clear.i.i32, 0
  br i1 %tobool.i.not.i33, label %_ZNSt3__112basic_stringIcNS_11char_traitsIcEENS_9allocatorIcEEED2Ev.exit36, label %if.then.i35

if.then.i35:                                      ; preds = %ehcleanup11
  %__data_.i.i34 = getelementptr inbounds %"class.PP::Variable", ptr %this, i64 0, i32 8, i32 0, i32 0, i32 0, i32 0, i32 0, i32 2
  %9 = load ptr, ptr %__data_.i.i34, align 8, !tbaa !5
  call void @_ZdlPv(ptr noundef %9) #20
  br label %_ZNSt3__112basic_stringIcNS_11char_traitsIcEENS_9allocatorIcEEED2Ev.exit36

_ZNSt3__112basic_stringIcNS_11char_traitsIcEENS_9allocatorIcEEED2Ev.exit36: ; preds = %ehcleanup11, %if.then.i35
  %10 = load ptr, ptr %maxdim, align 8, !tbaa !29
  %cmp.not.i.i = icmp eq ptr %10, null
  br i1 %cmp.not.i.i, label %_ZNSt3__16vectorIiNS_9allocatorIiEEED2B7v170000Ev.exit, label %if.then.i.i37

if.then.i.i37:                                    ; preds = %_ZNSt3__112basic_stringIcNS_11char_traitsIcEENS_9allocatorIcEEED2Ev.exit36
  %__end_.i.i.i.i = getelementptr inbounds %"class.PP::Variable", ptr %this, i64 0, i32 5, i32 1
  store ptr %10, ptr %__end_.i.i.i.i, align 8, !tbaa !30
  call void @_ZdlPv(ptr noundef nonnull %10) #20
  br label %_ZNSt3__16vectorIiNS_9allocatorIiEEED2B7v170000Ev.exit

_ZNSt3__16vectorIiNS_9allocatorIiEEED2B7v170000Ev.exit: ; preds = %_ZNSt3__112basic_stringIcNS_11char_traitsIcEENS_9allocatorIcEEED2Ev.exit36, %if.then.i.i37
  call void @_ZNSt3__16vectorINS_12basic_stringIcNS_11char_traitsIcEENS_9allocatorIcEEEENS4_IS6_EEED2B7v170000Ev(ptr noundef nonnull align 8 dereferenceable(24) %value) #19
  %bf.load.i.i38 = load i8, ptr %this, align 8
  %bf.clear.i.i39 = and i8 %bf.load.i.i38, 1
  %tobool.i.not.i40 = icmp eq i8 %bf.clear.i.i39, 0
  br i1 %tobool.i.not.i40, label %_ZNSt3__112basic_stringIcNS_11char_traitsIcEENS_9allocatorIcEEED2Ev.exit43, label %if.then.i42

if.then.i42:                                      ; preds = %_ZNSt3__16vectorIiNS_9allocatorIiEEED2B7v170000Ev.exit
  %__data_.i.i41 = getelementptr inbounds %"struct.std::__1::basic_string<char>::__long", ptr %this, i64 0, i32 2
  %11 = load ptr, ptr %__data_.i.i41, align 8, !tbaa !5
  call void @_ZdlPv(ptr noundef %11) #20
  br label %_ZNSt3__112basic_stringIcNS_11char_traitsIcEENS_9allocatorIcEEED2Ev.exit43

_ZNSt3__112basic_stringIcNS_11char_traitsIcEENS_9allocatorIcEEED2Ev.exit43: ; preds = %_ZNSt3__16vectorIiNS_9allocatorIiEEED2B7v170000Ev.exit, %if.then.i42
  resume { ptr, i32 } %.pn16
}

declare i32 @__gxx_personality_v0(...)

; Function Attrs: mustprogress nocallback nofree nosync nounwind willreturn memory(argmem: readwrite)
declare void @llvm.lifetime.start.p0(i64 immarg, ptr nocapture) #1

; Function Attrs: mustprogress nocallback nofree nosync nounwind willreturn memory(argmem: readwrite)
declare void @llvm.lifetime.end.p0(i64 immarg, ptr nocapture) #1

; Function Attrs: nounwind uwtable
define linkonce_odr hidden void @_ZNSt3__16vectorINS_12basic_stringIcNS_11char_traitsIcEENS_9allocatorIcEEEENS4_IS6_EEED2B7v170000Ev(ptr noundef nonnull align 8 dereferenceable(24) %this) unnamed_addr #2 comdat align 2 personality ptr @__gxx_personality_v0 {
entry:
  %0 = load ptr, ptr %this, align 8, !tbaa !31
  %cmp.not.i = icmp eq ptr %0, null
  br i1 %cmp.not.i, label %invoke.cont2, label %if.then.i

if.then.i:                                        ; preds = %entry
  %__end_.i.i.i = getelementptr inbounds %"class.std::__1::vector", ptr %this, i64 0, i32 1
  %1 = load ptr, ptr %__end_.i.i.i, align 8, !tbaa !8
  %cmp.not6.i.i.i = icmp eq ptr %1, %0
  br i1 %cmp.not6.i.i.i, label %_ZNSt3__16vectorINS_12basic_stringIcNS_11char_traitsIcEENS_9allocatorIcEEEENS4_IS6_EEE7__clearB7v170000Ev.exit.i, label %while.body.i.i.i

while.body.i.i.i:                                 ; preds = %if.then.i, %_ZNSt3__116allocator_traitsINS_9allocatorINS_12basic_stringIcNS_11char_traitsIcEENS1_IcEEEEEEE7destroyB7v170000IS6_vEEvRS7_PT_.exit.i.i.i
  %__soon_to_be_end.07.i.i.i = phi ptr [ %incdec.ptr.i.i.i, %_ZNSt3__116allocator_traitsINS_9allocatorINS_12basic_stringIcNS_11char_traitsIcEENS1_IcEEEEEEE7destroyB7v170000IS6_vEEvRS7_PT_.exit.i.i.i ], [ %1, %if.then.i ]
  %incdec.ptr.i.i.i = getelementptr inbounds %"class.std::__1::basic_string", ptr %__soon_to_be_end.07.i.i.i, i64 -1
  %bf.load.i.i.i.i.i.i.i = load i8, ptr %incdec.ptr.i.i.i, align 8
  %bf.clear.i.i.i.i.i.i.i = and i8 %bf.load.i.i.i.i.i.i.i, 1
  %tobool.i.not.i.i.i.i.i.i = icmp eq i8 %bf.clear.i.i.i.i.i.i.i, 0
  br i1 %tobool.i.not.i.i.i.i.i.i, label %_ZNSt3__116allocator_traitsINS_9allocatorINS_12basic_stringIcNS_11char_traitsIcEENS1_IcEEEEEEE7destroyB7v170000IS6_vEEvRS7_PT_.exit.i.i.i, label %if.then.i.i.i.i.i.i

if.then.i.i.i.i.i.i:                              ; preds = %while.body.i.i.i
  %__data_.i.i.i.i.i.i.i = getelementptr %"class.std::__1::basic_string", ptr %__soon_to_be_end.07.i.i.i, i64 -1, i32 0, i32 0, i32 0, i32 0, i32 0, i32 2
  %2 = load ptr, ptr %__data_.i.i.i.i.i.i.i, align 8, !tbaa !5
  tail call void @_ZdlPv(ptr noundef %2) #20
  br label %_ZNSt3__116allocator_traitsINS_9allocatorINS_12basic_stringIcNS_11char_traitsIcEENS1_IcEEEEEEE7destroyB7v170000IS6_vEEvRS7_PT_.exit.i.i.i

_ZNSt3__116allocator_traitsINS_9allocatorINS_12basic_stringIcNS_11char_traitsIcEENS1_IcEEEEEEE7destroyB7v170000IS6_vEEvRS7_PT_.exit.i.i.i: ; preds = %if.then.i.i.i.i.i.i, %while.body.i.i.i
  %cmp.not.i.i.i = icmp eq ptr %incdec.ptr.i.i.i, %0
  br i1 %cmp.not.i.i.i, label %_ZNSt3__16vectorINS_12basic_stringIcNS_11char_traitsIcEENS_9allocatorIcEEEENS4_IS6_EEE7__clearB7v170000Ev.exit.loopexit.i, label %while.body.i.i.i

_ZNSt3__16vectorINS_12basic_stringIcNS_11char_traitsIcEENS_9allocatorIcEEEENS4_IS6_EEE7__clearB7v170000Ev.exit.loopexit.i: ; preds = %_ZNSt3__116allocator_traitsINS_9allocatorINS_12basic_stringIcNS_11char_traitsIcEENS1_IcEEEEEEE7destroyB7v170000IS6_vEEvRS7_PT_.exit.i.i.i
  %.pre10.i = load ptr, ptr %this, align 8, !tbaa !31
  br label %_ZNSt3__16vectorINS_12basic_stringIcNS_11char_traitsIcEENS_9allocatorIcEEEENS4_IS6_EEE7__clearB7v170000Ev.exit.i

_ZNSt3__16vectorINS_12basic_stringIcNS_11char_traitsIcEENS_9allocatorIcEEEENS4_IS6_EEE7__clearB7v170000Ev.exit.i: ; preds = %_ZNSt3__16vectorINS_12basic_stringIcNS_11char_traitsIcEENS_9allocatorIcEEEENS4_IS6_EEE7__clearB7v170000Ev.exit.loopexit.i, %if.then.i
  %3 = phi ptr [ %.pre10.i, %_ZNSt3__16vectorINS_12basic_stringIcNS_11char_traitsIcEENS_9allocatorIcEEEENS4_IS6_EEE7__clearB7v170000Ev.exit.loopexit.i ], [ %0, %if.then.i ]
  store ptr %0, ptr %__end_.i.i.i, align 8, !tbaa !8
  tail call void @_ZdlPv(ptr noundef %3) #20
  br label %invoke.cont2

invoke.cont2:                                     ; preds = %_ZNSt3__16vectorINS_12basic_stringIcNS_11char_traitsIcEENS_9allocatorIcEEEENS4_IS6_EEE7__clearB7v170000Ev.exit.i, %entry
  ret void
}

; Function Attrs: mustprogress nofree nosync nounwind willreturn memory(write, inaccessiblemem: none) uwtable
define dso_local void @_ZN2PP8VariableC2Ei(ptr nocapture noundef nonnull writeonly align 8 dereferenceable(120) %this, i32 noundef %base) unnamed_addr #3 align 2 personality ptr @__gxx_personality_v0 {
entry:
  %maxdim = getelementptr inbounds %"class.PP::Variable", ptr %this, i64 0, i32 5
  tail call void @llvm.memset.p0.i64(ptr noundef nonnull align 8 dereferenceable(24) %maxdim, i8 0, i64 24, i1 false)
  %description = getelementptr inbounds %"class.PP::Variable", ptr %this, i64 0, i32 8
  tail call void @llvm.memset.p0.i64(ptr noundef nonnull align 8 dereferenceable(24) %description, i8 0, i64 24, i1 false)
  tail call void @llvm.memset.p0.i64(ptr noundef nonnull align 8 dereferenceable(48) %this, i8 0, i64 48, i1 false)
  store i32 %base, ptr @_ZN2PPL10index_baseE, align 4, !tbaa !32
  ret void
}

; Function Attrs: uwtable
define dso_local void @_ZN2PP8VariableC2ENSt3__112basic_stringIcNS1_11char_traitsIcEENS1_9allocatorIcEEEES7_bS7_(ptr noundef nonnull align 8 dereferenceable(120) %this, ptr noundef nonnull %nme, ptr noundef %v, i1 noundef zeroext %pred, ptr noundef %tdes) unnamed_addr #0 align 2 personality ptr @__gxx_personality_v0 {
entry:
  %frombool = zext i1 %pred to i8
  %value = getelementptr inbounds %"class.PP::Variable", ptr %this, i64 0, i32 1
  %maxdim = getelementptr inbounds %"class.PP::Variable", ptr %this, i64 0, i32 5
  tail call void @llvm.memset.p0.i64(ptr noundef nonnull align 8 dereferenceable(24) %maxdim, i8 0, i64 24, i1 false)
  %description = getelementptr inbounds %"class.PP::Variable", ptr %this, i64 0, i32 8
  tail call void @llvm.memset.p0.i64(ptr noundef nonnull align 8 dereferenceable(24) %description, i8 0, i64 24, i1 false)
  tail call void @llvm.memset.p0.i64(ptr noundef nonnull align 8 dereferenceable(48) %this, i8 0, i64 48, i1 false)
  %call = invoke noundef nonnull align 8 dereferenceable(24) ptr @_ZNSt3__112basic_stringIcNS_11char_traitsIcEENS_9allocatorIcEEEaSERKS5_(ptr noundef nonnull align 8 dereferenceable(24) %this, ptr noundef nonnull align 8 dereferenceable(24) %nme)
          to label %invoke.cont unwind label %lpad

invoke.cont:                                      ; preds = %entry
  %__end_.i = getelementptr inbounds %"class.PP::Variable", ptr %this, i64 0, i32 1, i32 1
  %0 = load ptr, ptr %__end_.i, align 8, !tbaa !8
  %__end_cap_.i.i = getelementptr inbounds %"class.PP::Variable", ptr %this, i64 0, i32 1, i32 2
  %1 = load ptr, ptr %__end_cap_.i.i, align 8, !tbaa !13
  %cmp.not.i = icmp eq ptr %0, %1
  br i1 %cmp.not.i, label %if.else.i, label %if.then.i

if.then.i:                                        ; preds = %invoke.cont
  invoke void @_ZNSt3__112basic_stringIcNS_11char_traitsIcEENS_9allocatorIcEEEC1ERKS5_(ptr noundef nonnull align 8 dereferenceable(24) %0, ptr noundef nonnull align 8 dereferenceable(24) %v)
          to label %_ZNSt3__16vectorINS_12basic_stringIcNS_11char_traitsIcEENS_9allocatorIcEEEENS4_IS6_EEE22__construct_one_at_endB7v170000IJRKS6_EEEvDpOT_.exit.i unwind label %lpad.i.i

lpad.i.i:                                         ; preds = %if.then.i
  %2 = landingpad { ptr, i32 }
          cleanup
  store ptr %0, ptr %__end_.i, align 8, !tbaa !8
  br label %lpad.body

_ZNSt3__16vectorINS_12basic_stringIcNS_11char_traitsIcEENS_9allocatorIcEEEENS4_IS6_EEE22__construct_one_at_endB7v170000IJRKS6_EEEvDpOT_.exit.i: ; preds = %if.then.i
  %incdec.ptr.i.i = getelementptr inbounds %"class.std::__1::basic_string", ptr %0, i64 1
  store ptr %incdec.ptr.i.i, ptr %__end_.i, align 8, !tbaa !8
  br label %invoke.cont4

if.else.i:                                        ; preds = %invoke.cont
  invoke void @_ZNSt3__16vectorINS_12basic_stringIcNS_11char_traitsIcEENS_9allocatorIcEEEENS4_IS6_EEE21__push_back_slow_pathIRKS6_EEvOT_(ptr noundef nonnull align 8 dereferenceable(24) %value, ptr noundef nonnull align 8 dereferenceable(24) %v)
          to label %invoke.cont4 unwind label %lpad

invoke.cont4:                                     ; preds = %_ZNSt3__16vectorINS_12basic_stringIcNS_11char_traitsIcEENS_9allocatorIcEEEENS4_IS6_EEE22__construct_one_at_endB7v170000IJRKS6_EEEvDpOT_.exit.i, %if.else.i
  %ndim = getelementptr inbounds %"class.PP::Variable", ptr %this, i64 0, i32 2
  store i32 0, ptr %ndim, align 8, !tbaa !14
  %lnum_ndim = getelementptr inbounds %"class.PP::Variable", ptr %this, i64 0, i32 4
  store i32 0, ptr %lnum_ndim, align 8, !tbaa !25
  %lnum_bounds = getelementptr inbounds %"class.PP::Variable", ptr %this, i64 0, i32 3
  store i32 0, ptr %lnum_bounds, align 4, !tbaa !26
  %pre_defined = getelementptr inbounds %"class.PP::Variable", ptr %this, i64 0, i32 6
  store i8 %frombool, ptr %pre_defined, align 8, !tbaa !27
  %call8 = invoke noundef nonnull align 8 dereferenceable(24) ptr @_ZNSt3__112basic_stringIcNS_11char_traitsIcEENS_9allocatorIcEEEaSERKS5_(ptr noundef nonnull align 8 dereferenceable(24) %description, ptr noundef nonnull align 8 dereferenceable(24) %tdes)
          to label %invoke.cont7 unwind label %lpad

invoke.cont7:                                     ; preds = %invoke.cont4
  %temporary = getelementptr inbounds %"class.PP::Variable", ptr %this, i64 0, i32 7
  store i8 0, ptr %temporary, align 1, !tbaa !28
  ret void

lpad:                                             ; preds = %if.else.i, %invoke.cont4, %entry
  %3 = landingpad { ptr, i32 }
          cleanup
  br label %lpad.body

lpad.body:                                        ; preds = %lpad.i.i, %lpad
  %eh.lpad-body = phi { ptr, i32 } [ %3, %lpad ], [ %2, %lpad.i.i ]
  %bf.load.i.i = load i8, ptr %description, align 8
  %bf.clear.i.i = and i8 %bf.load.i.i, 1
  %tobool.i.not.i = icmp eq i8 %bf.clear.i.i, 0
  br i1 %tobool.i.not.i, label %_ZNSt3__112basic_stringIcNS_11char_traitsIcEENS_9allocatorIcEEED2Ev.exit, label %if.then.i10

if.then.i10:                                      ; preds = %lpad.body
  %__data_.i.i = getelementptr inbounds %"class.PP::Variable", ptr %this, i64 0, i32 8, i32 0, i32 0, i32 0, i32 0, i32 0, i32 2
  %4 = load ptr, ptr %__data_.i.i, align 8, !tbaa !5
  tail call void @_ZdlPv(ptr noundef %4) #20
  br label %_ZNSt3__112basic_stringIcNS_11char_traitsIcEENS_9allocatorIcEEED2Ev.exit

_ZNSt3__112basic_stringIcNS_11char_traitsIcEENS_9allocatorIcEEED2Ev.exit: ; preds = %lpad.body, %if.then.i10
  %5 = load ptr, ptr %maxdim, align 8, !tbaa !29
  %cmp.not.i.i = icmp eq ptr %5, null
  br i1 %cmp.not.i.i, label %_ZNSt3__16vectorIiNS_9allocatorIiEEED2B7v170000Ev.exit, label %if.then.i.i

if.then.i.i:                                      ; preds = %_ZNSt3__112basic_stringIcNS_11char_traitsIcEENS_9allocatorIcEEED2Ev.exit
  %__end_.i.i.i.i = getelementptr inbounds %"class.PP::Variable", ptr %this, i64 0, i32 5, i32 1
  store ptr %5, ptr %__end_.i.i.i.i, align 8, !tbaa !30
  tail call void @_ZdlPv(ptr noundef nonnull %5) #20
  br label %_ZNSt3__16vectorIiNS_9allocatorIiEEED2B7v170000Ev.exit

_ZNSt3__16vectorIiNS_9allocatorIiEEED2B7v170000Ev.exit: ; preds = %_ZNSt3__112basic_stringIcNS_11char_traitsIcEENS_9allocatorIcEEED2Ev.exit, %if.then.i.i
  tail call void @_ZNSt3__16vectorINS_12basic_stringIcNS_11char_traitsIcEENS_9allocatorIcEEEENS4_IS6_EEED2B7v170000Ev(ptr noundef nonnull align 8 dereferenceable(24) %value) #19
  %bf.load.i.i11 = load i8, ptr %this, align 8
  %bf.clear.i.i12 = and i8 %bf.load.i.i11, 1
  %tobool.i.not.i13 = icmp eq i8 %bf.clear.i.i12, 0
  br i1 %tobool.i.not.i13, label %_ZNSt3__112basic_stringIcNS_11char_traitsIcEENS_9allocatorIcEEED2Ev.exit16, label %if.then.i15

if.then.i15:                                      ; preds = %_ZNSt3__16vectorIiNS_9allocatorIiEEED2B7v170000Ev.exit
  %__data_.i.i14 = getelementptr inbounds %"struct.std::__1::basic_string<char>::__long", ptr %this, i64 0, i32 2
  %6 = load ptr, ptr %__data_.i.i14, align 8, !tbaa !5
  tail call void @_ZdlPv(ptr noundef %6) #20
  br label %_ZNSt3__112basic_stringIcNS_11char_traitsIcEENS_9allocatorIcEEED2Ev.exit16

_ZNSt3__112basic_stringIcNS_11char_traitsIcEENS_9allocatorIcEEED2Ev.exit16: ; preds = %_ZNSt3__16vectorIiNS_9allocatorIiEEED2B7v170000Ev.exit, %if.then.i15
  resume { ptr, i32 } %eh.lpad-body
}

declare noundef nonnull align 8 dereferenceable(24) ptr @_ZNSt3__112basic_stringIcNS_11char_traitsIcEENS_9allocatorIcEEEaSERKS5_(ptr noundef nonnull align 8 dereferenceable(24), ptr noundef nonnull align 8 dereferenceable(24)) local_unnamed_addr #4

; Function Attrs: uwtable
define dso_local void @_ZN2PP8VariableC2ENSt3__112basic_stringIcNS1_11char_traitsIcEENS1_9allocatorIcEEEE(ptr noundef nonnull align 8 dereferenceable(120) %this, ptr noundef nonnull %nme) unnamed_addr #0 align 2 personality ptr @__gxx_personality_v0 {
entry:
  %ref.tmp = alloca %"class.std::__1::basic_string", align 8
  %value = getelementptr inbounds %"class.PP::Variable", ptr %this, i64 0, i32 1
  %maxdim = getelementptr inbounds %"class.PP::Variable", ptr %this, i64 0, i32 5
  tail call void @llvm.memset.p0.i64(ptr noundef nonnull align 8 dereferenceable(24) %maxdim, i8 0, i64 24, i1 false)
  %description = getelementptr inbounds %"class.PP::Variable", ptr %this, i64 0, i32 8
  tail call void @llvm.memset.p0.i64(ptr noundef nonnull align 8 dereferenceable(24) %description, i8 0, i64 24, i1 false)
  tail call void @llvm.memset.p0.i64(ptr noundef nonnull align 8 dereferenceable(48) %this, i8 0, i64 48, i1 false)
  %call = invoke noundef nonnull align 8 dereferenceable(24) ptr @_ZNSt3__112basic_stringIcNS_11char_traitsIcEENS_9allocatorIcEEEaSERKS5_(ptr noundef nonnull align 8 dereferenceable(24) %this, ptr noundef nonnull align 8 dereferenceable(24) %nme)
          to label %invoke.cont unwind label %lpad

invoke.cont:                                      ; preds = %entry
  call void @llvm.lifetime.start.p0(i64 24, ptr nonnull %ref.tmp) #19
  store i8 36, ptr %ref.tmp, align 8
  %__data_.i.i.i = getelementptr inbounds %"struct.std::__1::basic_string<char>::__short", ptr %ref.tmp, i64 0, i32 2
  %cmp.i24.i.i = icmp ugt ptr %__data_.i.i.i, @.str.1
  %add.ptr.i.i.i = getelementptr inbounds %"struct.std::__1::basic_string<char>::__short", ptr %ref.tmp, i64 0, i32 2, i64 18
  %cmp1.i.i.i = icmp ule ptr %add.ptr.i.i.i, @.str.1
  %0 = or i1 %cmp.i24.i.i, %cmp1.i.i.i
  call void @llvm.assume(i1 %0)
  call void @llvm.memcpy.p0.p0.i64(ptr noundef nonnull align 1 dereferenceable(18) %__data_.i.i.i, ptr noundef nonnull align 1 dereferenceable(18) @.str.1, i64 18, i1 false)
  store i8 0, ptr %add.ptr.i.i.i, align 1, !tbaa !5
  %__end_.i = getelementptr inbounds %"class.PP::Variable", ptr %this, i64 0, i32 1, i32 1
  %1 = load ptr, ptr %__end_.i, align 8, !tbaa !8
  %__end_cap_.i.i = getelementptr inbounds %"class.PP::Variable", ptr %this, i64 0, i32 1, i32 2
  %2 = load ptr, ptr %__end_cap_.i.i, align 8, !tbaa !13
  %cmp.i = icmp ult ptr %1, %2
  br i1 %cmp.i, label %invoke.cont7.thread, label %if.else.i

invoke.cont7.thread:                              ; preds = %invoke.cont
  call void @llvm.memcpy.p0.p0.i64(ptr noundef nonnull align 8 dereferenceable(24) %1, ptr noundef nonnull align 8 dereferenceable(24) %ref.tmp, i64 24, i1 false)
  %incdec.ptr.i.i = getelementptr inbounds %"class.std::__1::basic_string", ptr %1, i64 1
  store ptr %incdec.ptr.i.i, ptr %__end_.i, align 8, !tbaa !8
  br label %_ZNSt3__112basic_stringIcNS_11char_traitsIcEENS_9allocatorIcEEED2Ev.exit

if.else.i:                                        ; preds = %invoke.cont
  invoke void @_ZNSt3__16vectorINS_12basic_stringIcNS_11char_traitsIcEENS_9allocatorIcEEEENS4_IS6_EEE21__push_back_slow_pathIS6_EEvOT_(ptr noundef nonnull align 8 dereferenceable(24) %value, ptr noundef nonnull align 8 dereferenceable(24) %ref.tmp)
          to label %invoke.cont7 unwind label %lpad6

invoke.cont7:                                     ; preds = %if.else.i
  %bf.load.i.i.pre = load i8, ptr %ref.tmp, align 8
  %3 = and i8 %bf.load.i.i.pre, 1
  %4 = icmp eq i8 %3, 0
  br i1 %4, label %_ZNSt3__112basic_stringIcNS_11char_traitsIcEENS_9allocatorIcEEED2Ev.exit, label %if.then.i21

if.then.i21:                                      ; preds = %invoke.cont7
  %__data_.i.i = getelementptr inbounds %"struct.std::__1::basic_string<char>::__long", ptr %ref.tmp, i64 0, i32 2
  %5 = load ptr, ptr %__data_.i.i, align 8, !tbaa !5
  call void @_ZdlPv(ptr noundef %5) #20
  br label %_ZNSt3__112basic_stringIcNS_11char_traitsIcEENS_9allocatorIcEEED2Ev.exit

_ZNSt3__112basic_stringIcNS_11char_traitsIcEENS_9allocatorIcEEED2Ev.exit: ; preds = %invoke.cont7.thread, %invoke.cont7, %if.then.i21
  call void @llvm.lifetime.end.p0(i64 24, ptr nonnull %ref.tmp) #19
  %ndim = getelementptr inbounds %"class.PP::Variable", ptr %this, i64 0, i32 2
  store i32 -1, ptr %ndim, align 8, !tbaa !14
  %lnum_ndim = getelementptr inbounds %"class.PP::Variable", ptr %this, i64 0, i32 4
  store i32 0, ptr %lnum_ndim, align 8, !tbaa !25
  %lnum_bounds = getelementptr inbounds %"class.PP::Variable", ptr %this, i64 0, i32 3
  store i32 0, ptr %lnum_bounds, align 4, !tbaa !26
  %pre_defined = getelementptr inbounds %"class.PP::Variable", ptr %this, i64 0, i32 6
  store i8 0, ptr %pre_defined, align 8, !tbaa !27
  %call.i22 = invoke noundef nonnull align 8 dereferenceable(24) ptr @_ZNSt3__112basic_stringIcNS_11char_traitsIcEENS_9allocatorIcEEE6assignEPKc(ptr noundef nonnull align 8 dereferenceable(24) %description, ptr noundef nonnull @.str.2)
          to label %invoke.cont9 unwind label %lpad

invoke.cont9:                                     ; preds = %_ZNSt3__112basic_stringIcNS_11char_traitsIcEENS_9allocatorIcEEED2Ev.exit
  %temporary = getelementptr inbounds %"class.PP::Variable", ptr %this, i64 0, i32 7
  store i8 0, ptr %temporary, align 1, !tbaa !28
  ret void

lpad:                                             ; preds = %_ZNSt3__112basic_stringIcNS_11char_traitsIcEENS_9allocatorIcEEED2Ev.exit, %entry
  %6 = landingpad { ptr, i32 }
          cleanup
  br label %ehcleanup11

lpad6:                                            ; preds = %if.else.i
  %7 = landingpad { ptr, i32 }
          cleanup
  %bf.load.i.i23 = load i8, ptr %ref.tmp, align 8
  %bf.clear.i.i24 = and i8 %bf.load.i.i23, 1
  %tobool.i.not.i25 = icmp eq i8 %bf.clear.i.i24, 0
  br i1 %tobool.i.not.i25, label %ehcleanup, label %if.then.i27

if.then.i27:                                      ; preds = %lpad6
  %__data_.i.i26 = getelementptr inbounds %"struct.std::__1::basic_string<char>::__long", ptr %ref.tmp, i64 0, i32 2
  %8 = load ptr, ptr %__data_.i.i26, align 8, !tbaa !5
  call void @_ZdlPv(ptr noundef %8) #20
  br label %ehcleanup

ehcleanup:                                        ; preds = %if.then.i27, %lpad6
  call void @llvm.lifetime.end.p0(i64 24, ptr nonnull %ref.tmp) #19
  br label %ehcleanup11

ehcleanup11:                                      ; preds = %ehcleanup, %lpad
  %.pn16 = phi { ptr, i32 } [ %6, %lpad ], [ %7, %ehcleanup ]
  %bf.load.i.i29 = load i8, ptr %description, align 8
  %bf.clear.i.i30 = and i8 %bf.load.i.i29, 1
  %tobool.i.not.i31 = icmp eq i8 %bf.clear.i.i30, 0
  br i1 %tobool.i.not.i31, label %_ZNSt3__112basic_stringIcNS_11char_traitsIcEENS_9allocatorIcEEED2Ev.exit34, label %if.then.i33

if.then.i33:                                      ; preds = %ehcleanup11
  %__data_.i.i32 = getelementptr inbounds %"class.PP::Variable", ptr %this, i64 0, i32 8, i32 0, i32 0, i32 0, i32 0, i32 0, i32 2
  %9 = load ptr, ptr %__data_.i.i32, align 8, !tbaa !5
  call void @_ZdlPv(ptr noundef %9) #20
  br label %_ZNSt3__112basic_stringIcNS_11char_traitsIcEENS_9allocatorIcEEED2Ev.exit34

_ZNSt3__112basic_stringIcNS_11char_traitsIcEENS_9allocatorIcEEED2Ev.exit34: ; preds = %ehcleanup11, %if.then.i33
  %10 = load ptr, ptr %maxdim, align 8, !tbaa !29
  %cmp.not.i.i = icmp eq ptr %10, null
  br i1 %cmp.not.i.i, label %_ZNSt3__16vectorIiNS_9allocatorIiEEED2B7v170000Ev.exit, label %if.then.i.i35

if.then.i.i35:                                    ; preds = %_ZNSt3__112basic_stringIcNS_11char_traitsIcEENS_9allocatorIcEEED2Ev.exit34
  %__end_.i.i.i.i = getelementptr inbounds %"class.PP::Variable", ptr %this, i64 0, i32 5, i32 1
  store ptr %10, ptr %__end_.i.i.i.i, align 8, !tbaa !30
  call void @_ZdlPv(ptr noundef nonnull %10) #20
  br label %_ZNSt3__16vectorIiNS_9allocatorIiEEED2B7v170000Ev.exit

_ZNSt3__16vectorIiNS_9allocatorIiEEED2B7v170000Ev.exit: ; preds = %_ZNSt3__112basic_stringIcNS_11char_traitsIcEENS_9allocatorIcEEED2Ev.exit34, %if.then.i.i35
  call void @_ZNSt3__16vectorINS_12basic_stringIcNS_11char_traitsIcEENS_9allocatorIcEEEENS4_IS6_EEED2B7v170000Ev(ptr noundef nonnull align 8 dereferenceable(24) %value) #19
  %bf.load.i.i36 = load i8, ptr %this, align 8
  %bf.clear.i.i37 = and i8 %bf.load.i.i36, 1
  %tobool.i.not.i38 = icmp eq i8 %bf.clear.i.i37, 0
  br i1 %tobool.i.not.i38, label %_ZNSt3__112basic_stringIcNS_11char_traitsIcEENS_9allocatorIcEEED2Ev.exit41, label %if.then.i40

if.then.i40:                                      ; preds = %_ZNSt3__16vectorIiNS_9allocatorIiEEED2B7v170000Ev.exit
  %__data_.i.i39 = getelementptr inbounds %"struct.std::__1::basic_string<char>::__long", ptr %this, i64 0, i32 2
  %11 = load ptr, ptr %__data_.i.i39, align 8, !tbaa !5
  call void @_ZdlPv(ptr noundef %11) #20
  br label %_ZNSt3__112basic_stringIcNS_11char_traitsIcEENS_9allocatorIcEEED2Ev.exit41

_ZNSt3__112basic_stringIcNS_11char_traitsIcEENS_9allocatorIcEEED2Ev.exit41: ; preds = %_ZNSt3__16vectorIiNS_9allocatorIiEEED2B7v170000Ev.exit, %if.then.i40
  resume { ptr, i32 } %.pn16
}

; Function Attrs: uwtable
define dso_local void @_ZN2PP8VariableC2ENSt3__112basic_stringIcNS1_11char_traitsIcEENS1_9allocatorIcEEEERNS1_6vectorIiNS5_IiEEEERNS8_IS7_NS5_IS7_EEEEiiS7_PNS1_5dequeIS7_SC_EERNS1_18basic_stringstreamIcS4_S6_EERi(ptr noundef nonnull align 8 dereferenceable(120) %this, ptr noundef nonnull %nme, ptr noundef nonnull align 8 dereferenceable(24) %istart, ptr nocapture noundef nonnull readonly align 8 dereferenceable(24) %valvec, i32 noundef %lnum, i32 noundef %file_lnum, ptr noundef %fname, ptr nocapture noundef readonly %lines, ptr noundef nonnull align 8 dereferenceable(128) %serr, ptr nocapture noundef nonnull writeonly align 4 dereferenceable(4) %ierr) unnamed_addr #0 align 2 personality ptr @__gxx_personality_v0 {
entry:
  %agg.tmp = alloca %"class.std::__1::basic_string", align 8
  %value = getelementptr inbounds %"class.PP::Variable", ptr %this, i64 0, i32 1
  %maxdim = getelementptr inbounds %"class.PP::Variable", ptr %this, i64 0, i32 5
  tail call void @llvm.memset.p0.i64(ptr noundef nonnull align 8 dereferenceable(24) %maxdim, i8 0, i64 24, i1 false)
  %description = getelementptr inbounds %"class.PP::Variable", ptr %this, i64 0, i32 8
  tail call void @llvm.memset.p0.i64(ptr noundef nonnull align 8 dereferenceable(24) %description, i8 0, i64 24, i1 false)
  tail call void @llvm.memset.p0.i64(ptr noundef nonnull align 8 dereferenceable(48) %this, i8 0, i64 48, i1 false)
  %call = invoke noundef nonnull align 8 dereferenceable(24) ptr @_ZNSt3__112basic_stringIcNS_11char_traitsIcEENS_9allocatorIcEEEaSERKS5_(ptr noundef nonnull align 8 dereferenceable(24) %this, ptr noundef nonnull align 8 dereferenceable(24) %nme)
          to label %invoke.cont unwind label %lpad

invoke.cont:                                      ; preds = %entry
  %ndim = getelementptr inbounds %"class.PP::Variable", ptr %this, i64 0, i32 2
  store i32 -1, ptr %ndim, align 8, !tbaa !14
  %lnum_ndim = getelementptr inbounds %"class.PP::Variable", ptr %this, i64 0, i32 4
  store i32 0, ptr %lnum_ndim, align 8, !tbaa !25
  %lnum_bounds = getelementptr inbounds %"class.PP::Variable", ptr %this, i64 0, i32 3
  store i32 0, ptr %lnum_bounds, align 4, !tbaa !26
  %pre_defined = getelementptr inbounds %"class.PP::Variable", ptr %this, i64 0, i32 6
  store i8 0, ptr %pre_defined, align 8, !tbaa !27
  %call.i14 = invoke noundef nonnull align 8 dereferenceable(24) ptr @_ZNSt3__112basic_stringIcNS_11char_traitsIcEENS_9allocatorIcEEE6assignEPKc(ptr noundef nonnull align 8 dereferenceable(24) %description, ptr noundef nonnull @.str.2)
          to label %invoke.cont4 unwind label %lpad

invoke.cont4:                                     ; preds = %invoke.cont
  %temporary = getelementptr inbounds %"class.PP::Variable", ptr %this, i64 0, i32 7
  store i8 0, ptr %temporary, align 1, !tbaa !28
  invoke void @_ZNSt3__112basic_stringIcNS_11char_traitsIcEENS_9allocatorIcEEEC1ERKS5_(ptr noundef nonnull align 8 dereferenceable(24) %agg.tmp, ptr noundef nonnull align 8 dereferenceable(24) %fname)
          to label %invoke.cont6 unwind label %lpad

invoke.cont6:                                     ; preds = %invoke.cont4
  invoke void @_ZN2PP8Variable13set_var_valueERNSt3__16vectorIiNS1_9allocatorIiEEEERNS2_INS1_12basic_stringIcNS1_11char_traitsIcEENS3_IcEEEENS3_ISB_EEEEiiSB_PNS1_5dequeISB_SC_EERNS1_18basic_stringstreamIcS9_SA_EERi(ptr noundef nonnull align 8 dereferenceable(120) %this, ptr noundef nonnull align 8 dereferenceable(24) %istart, ptr noundef nonnull align 8 dereferenceable(24) %valvec, i32 noundef %lnum, i32 noundef %file_lnum, ptr noundef nonnull %agg.tmp, ptr noundef %lines, ptr noundef nonnull align 8 dereferenceable(128) %serr, ptr noundef nonnull align 4 dereferenceable(4) %ierr)
          to label %invoke.cont8 unwind label %lpad7

invoke.cont8:                                     ; preds = %invoke.cont6
  %bf.load.i.i = load i8, ptr %agg.tmp, align 8
  %bf.clear.i.i = and i8 %bf.load.i.i, 1
  %tobool.i.not.i = icmp eq i8 %bf.clear.i.i, 0
  br i1 %tobool.i.not.i, label %_ZNSt3__112basic_stringIcNS_11char_traitsIcEENS_9allocatorIcEEED2Ev.exit, label %if.then.i

if.then.i:                                        ; preds = %invoke.cont8
  %__data_.i.i = getelementptr inbounds %"struct.std::__1::basic_string<char>::__long", ptr %agg.tmp, i64 0, i32 2
  %0 = load ptr, ptr %__data_.i.i, align 8, !tbaa !5
  call void @_ZdlPv(ptr noundef %0) #20
  br label %_ZNSt3__112basic_stringIcNS_11char_traitsIcEENS_9allocatorIcEEED2Ev.exit

_ZNSt3__112basic_stringIcNS_11char_traitsIcEENS_9allocatorIcEEED2Ev.exit: ; preds = %invoke.cont8, %if.then.i
  ret void

lpad:                                             ; preds = %invoke.cont, %invoke.cont4, %entry
  %1 = landingpad { ptr, i32 }
          cleanup
  br label %ehcleanup

lpad7:                                            ; preds = %invoke.cont6
  %2 = landingpad { ptr, i32 }
          cleanup
  %bf.load.i.i15 = load i8, ptr %agg.tmp, align 8
  %bf.clear.i.i16 = and i8 %bf.load.i.i15, 1
  %tobool.i.not.i17 = icmp eq i8 %bf.clear.i.i16, 0
  br i1 %tobool.i.not.i17, label %ehcleanup, label %if.then.i19

if.then.i19:                                      ; preds = %lpad7
  %__data_.i.i18 = getelementptr inbounds %"struct.std::__1::basic_string<char>::__long", ptr %agg.tmp, i64 0, i32 2
  %3 = load ptr, ptr %__data_.i.i18, align 8, !tbaa !5
  call void @_ZdlPv(ptr noundef %3) #20
  br label %ehcleanup

ehcleanup:                                        ; preds = %if.then.i19, %lpad7, %lpad
  %.pn = phi { ptr, i32 } [ %1, %lpad ], [ %2, %lpad7 ], [ %2, %if.then.i19 ]
  %bf.load.i.i21 = load i8, ptr %description, align 8
  %bf.clear.i.i22 = and i8 %bf.load.i.i21, 1
  %tobool.i.not.i23 = icmp eq i8 %bf.clear.i.i22, 0
  br i1 %tobool.i.not.i23, label %_ZNSt3__112basic_stringIcNS_11char_traitsIcEENS_9allocatorIcEEED2Ev.exit26, label %if.then.i25

if.then.i25:                                      ; preds = %ehcleanup
  %__data_.i.i24 = getelementptr inbounds %"class.PP::Variable", ptr %this, i64 0, i32 8, i32 0, i32 0, i32 0, i32 0, i32 0, i32 2
  %4 = load ptr, ptr %__data_.i.i24, align 8, !tbaa !5
  call void @_ZdlPv(ptr noundef %4) #20
  br label %_ZNSt3__112basic_stringIcNS_11char_traitsIcEENS_9allocatorIcEEED2Ev.exit26

_ZNSt3__112basic_stringIcNS_11char_traitsIcEENS_9allocatorIcEEED2Ev.exit26: ; preds = %ehcleanup, %if.then.i25
  %5 = load ptr, ptr %maxdim, align 8, !tbaa !29
  %cmp.not.i.i = icmp eq ptr %5, null
  br i1 %cmp.not.i.i, label %_ZNSt3__16vectorIiNS_9allocatorIiEEED2B7v170000Ev.exit, label %if.then.i.i

if.then.i.i:                                      ; preds = %_ZNSt3__112basic_stringIcNS_11char_traitsIcEENS_9allocatorIcEEED2Ev.exit26
  %__end_.i.i.i.i = getelementptr inbounds %"class.PP::Variable", ptr %this, i64 0, i32 5, i32 1
  store ptr %5, ptr %__end_.i.i.i.i, align 8, !tbaa !30
  call void @_ZdlPv(ptr noundef nonnull %5) #20
  br label %_ZNSt3__16vectorIiNS_9allocatorIiEEED2B7v170000Ev.exit

_ZNSt3__16vectorIiNS_9allocatorIiEEED2B7v170000Ev.exit: ; preds = %_ZNSt3__112basic_stringIcNS_11char_traitsIcEENS_9allocatorIcEEED2Ev.exit26, %if.then.i.i
  call void @_ZNSt3__16vectorINS_12basic_stringIcNS_11char_traitsIcEENS_9allocatorIcEEEENS4_IS6_EEED2B7v170000Ev(ptr noundef nonnull align 8 dereferenceable(24) %value) #19
  %bf.load.i.i27 = load i8, ptr %this, align 8
  %bf.clear.i.i28 = and i8 %bf.load.i.i27, 1
  %tobool.i.not.i29 = icmp eq i8 %bf.clear.i.i28, 0
  br i1 %tobool.i.not.i29, label %_ZNSt3__112basic_stringIcNS_11char_traitsIcEENS_9allocatorIcEEED2Ev.exit32, label %if.then.i31

if.then.i31:                                      ; preds = %_ZNSt3__16vectorIiNS_9allocatorIiEEED2B7v170000Ev.exit
  %__data_.i.i30 = getelementptr inbounds %"struct.std::__1::basic_string<char>::__long", ptr %this, i64 0, i32 2
  %6 = load ptr, ptr %__data_.i.i30, align 8, !tbaa !5
  call void @_ZdlPv(ptr noundef %6) #20
  br label %_ZNSt3__112basic_stringIcNS_11char_traitsIcEENS_9allocatorIcEEED2Ev.exit32

_ZNSt3__112basic_stringIcNS_11char_traitsIcEENS_9allocatorIcEEED2Ev.exit32: ; preds = %_ZNSt3__16vectorIiNS_9allocatorIiEEED2B7v170000Ev.exit, %if.then.i31
  resume { ptr, i32 } %.pn
}

; Function Attrs: uwtable
define dso_local void @_ZN2PP8Variable13set_var_valueERNSt3__16vectorIiNS1_9allocatorIiEEEERNS2_INS1_12basic_stringIcNS1_11char_traitsIcEENS3_IcEEEENS3_ISB_EEEEiiSB_PNS1_5dequeISB_SC_EERNS1_18basic_stringstreamIcS9_SA_EERi(ptr noundef nonnull align 8 dereferenceable(120) %this, ptr noundef nonnull align 8 dereferenceable(24) %istart, ptr nocapture noundef nonnull readonly align 8 dereferenceable(24) %valvec, i32 noundef %lnum, i32 noundef %file_lnum, ptr noundef %fname, ptr nocapture noundef readonly %lines, ptr noundef nonnull align 8 dereferenceable(128) %serr, ptr nocapture noundef nonnull writeonly align 4 dereferenceable(4) %ierr) local_unnamed_addr #0 align 2 personality ptr @__gxx_personality_v0 {
entry:
  %ref.tmp.i.i855 = alloca %"class.std::__1::locale", align 8
  %ref.tmp.i.i841 = alloca %"class.std::__1::locale", align 8
  %ref.tmp.i.i827 = alloca %"class.std::__1::locale", align 8
  %ref.tmp.i.i813 = alloca %"class.std::__1::locale", align 8
  %ref.tmp.i.i799 = alloca %"class.std::__1::locale", align 8
  %ref.tmp.i.i785 = alloca %"class.std::__1::locale", align 8
  %ref.tmp.i.i771 = alloca %"class.std::__1::locale", align 8
  %ref.tmp.i.i757 = alloca %"class.std::__1::locale", align 8
  %ref.tmp.i.i743 = alloca %"class.std::__1::locale", align 8
  %ref.tmp.i.i729 = alloca %"class.std::__1::locale", align 8
  %ref.tmp.i.i715 = alloca %"class.std::__1::locale", align 8
  %ref.tmp.i.i701 = alloca %"class.std::__1::locale", align 8
  %ref.tmp.i.i687 = alloca %"class.std::__1::locale", align 8
  %ref.tmp.i.i673 = alloca %"class.std::__1::locale", align 8
  %ref.tmp.i.i659 = alloca %"class.std::__1::locale", align 8
  %ref.tmp.i.i645 = alloca %"class.std::__1::locale", align 8
  %ref.tmp.i.i631 = alloca %"class.std::__1::locale", align 8
  %ref.tmp.i.i617 = alloca %"class.std::__1::locale", align 8
  %ref.tmp.i.i603 = alloca %"class.std::__1::locale", align 8
  %ref.tmp.i.i589 = alloca %"class.std::__1::locale", align 8
  %ref.tmp.i.i575 = alloca %"class.std::__1::locale", align 8
  %ref.tmp.i.i561 = alloca %"class.std::__1::locale", align 8
  %ref.tmp.i.i547 = alloca %"class.std::__1::locale", align 8
  %ref.tmp.i.i533 = alloca %"class.std::__1::locale", align 8
  %ref.tmp.i.i519 = alloca %"class.std::__1::locale", align 8
  %ref.tmp.i.i505 = alloca %"class.std::__1::locale", align 8
  %ref.tmp.i.i491 = alloca %"class.std::__1::locale", align 8
  %ref.tmp.i.i = alloca %"class.std::__1::locale", align 8
  %putils = alloca %"class.PP::Parser_utils", align 1
  %ref.tmp = alloca %"class.std::__1::basic_string", align 8
  %pre_defined = getelementptr inbounds %"class.PP::Variable", ptr %this, i64 0, i32 6
  %0 = load i8, ptr %pre_defined, align 8, !tbaa !27, !range !33, !noundef !34
  %tobool.not = icmp eq i8 %0, 0
  br i1 %tobool.not, label %if.end, label %if.then

if.then:                                          ; preds = %entry
  %add.ptr = getelementptr inbounds i8, ptr %serr, i64 16
  %vtable.i = load ptr, ptr %add.ptr, align 8, !tbaa !35
  %vbase.offset.ptr.i = getelementptr i8, ptr %vtable.i, i64 -24
  %vbase.offset.i = load i64, ptr %vbase.offset.ptr.i, align 8
  %add.ptr.i488 = getelementptr inbounds i8, ptr %add.ptr, i64 %vbase.offset.i
  call void @llvm.lifetime.start.p0(i64 8, ptr nonnull %ref.tmp.i.i) #19
  call void @_ZNKSt3__18ios_base6getlocEv(ptr nonnull sret(%"class.std::__1::locale") align 8 %ref.tmp.i.i, ptr noundef nonnull align 8 dereferenceable(136) %add.ptr.i488)
  %call.i5.i.i = invoke noundef ptr @_ZNKSt3__16locale9use_facetERNS0_2idE(ptr noundef nonnull align 8 dereferenceable(8) %ref.tmp.i.i, ptr noundef nonnull align 8 dereferenceable(12) @_ZNSt3__15ctypeIcE2idE)
          to label %invoke.cont.i.i unwind label %lpad.i.i

invoke.cont.i.i:                                  ; preds = %if.then
  %vtable.i.i.i = load ptr, ptr %call.i5.i.i, align 8, !tbaa !35
  %vfn.i.i.i = getelementptr inbounds ptr, ptr %vtable.i.i.i, i64 7
  %1 = load ptr, ptr %vfn.i.i.i, align 8
  %call.i6.i.i = invoke noundef signext i8 %1(ptr noundef nonnull align 8 dereferenceable(25) %call.i5.i.i, i8 noundef signext 10)
          to label %_ZNSt3__14endlB7v170000IcNS_11char_traitsIcEEEERNS_13basic_ostreamIT_T0_EES7_.exit unwind label %lpad.i.i

common.resume:                                    ; preds = %_ZNSt3__112basic_stringIcNS_11char_traitsIcEENS_9allocatorIcEEED2Ev.exit486, %lpad.i.i865, %lpad.i.i851, %lpad.i.i837, %lpad.i.i823, %lpad.i.i809, %lpad.i.i795, %lpad.i.i781, %lpad.i.i767, %lpad.i.i753, %lpad.i.i739, %lpad.i.i725, %lpad.i.i711, %lpad.i.i697, %lpad.i.i683, %lpad.i.i669, %lpad.i.i655, %lpad.i.i641, %lpad.i.i627, %lpad.i.i613, %lpad.i.i599, %lpad.i.i585, %lpad.i.i571, %lpad.i.i557, %lpad.i.i543, %lpad.i.i529, %lpad.i.i515, %lpad.i.i501, %lpad.i.i
  %common.resume.op = phi { ptr, i32 } [ %2, %lpad.i.i ], [ %4, %lpad.i.i501 ], [ %11, %lpad.i.i515 ], [ %15, %lpad.i.i529 ], [ %17, %lpad.i.i543 ], [ %23, %lpad.i.i557 ], [ %25, %lpad.i.i571 ], [ %32, %lpad.i.i585 ], [ %36, %lpad.i.i599 ], [ %38, %lpad.i.i613 ], [ %41, %lpad.i.i627 ], [ %43, %lpad.i.i641 ], [ %47, %lpad.i.i655 ], [ %55, %lpad.i.i669 ], [ %60, %lpad.i.i683 ], [ %62, %lpad.i.i697 ], [ %69, %lpad.i.i711 ], [ %73, %lpad.i.i725 ], [ %75, %lpad.i.i739 ], [ %79, %lpad.i.i753 ], [ %87, %lpad.i.i767 ], [ %89, %lpad.i.i781 ], [ %91, %lpad.i.i795 ], [ %98, %lpad.i.i809 ], [ %102, %lpad.i.i823 ], [ %105, %lpad.i.i837 ], [ %107, %lpad.i.i851 ], [ %109, %lpad.i.i865 ], [ %119, %_ZNSt3__112basic_stringIcNS_11char_traitsIcEENS_9allocatorIcEEED2Ev.exit486 ]
  resume { ptr, i32 } %common.resume.op

lpad.i.i:                                         ; preds = %invoke.cont.i.i, %if.then
  %2 = landingpad { ptr, i32 }
          cleanup
  call void @_ZNSt3__16localeD1Ev(ptr noundef nonnull align 8 dereferenceable(8) %ref.tmp.i.i) #19
  call void @llvm.lifetime.end.p0(i64 8, ptr nonnull %ref.tmp.i.i) #19
  br label %common.resume

_ZNSt3__14endlB7v170000IcNS_11char_traitsIcEEEERNS_13basic_ostreamIT_T0_EES7_.exit: ; preds = %invoke.cont.i.i
  call void @_ZNSt3__16localeD1Ev(ptr noundef nonnull align 8 dereferenceable(8) %ref.tmp.i.i) #19
  call void @llvm.lifetime.end.p0(i64 8, ptr nonnull %ref.tmp.i.i) #19
  %call1.i489 = call noundef nonnull align 8 dereferenceable(8) ptr @_ZNSt3__113basic_ostreamIcNS_11char_traitsIcEEE3putEc(ptr noundef nonnull align 8 dereferenceable(8) %add.ptr, i8 noundef signext %call.i6.i.i)
  %call2.i490 = call noundef nonnull align 8 dereferenceable(8) ptr @_ZNSt3__113basic_ostreamIcNS_11char_traitsIcEEE5flushEv(ptr noundef nonnull align 8 dereferenceable(8) %add.ptr)
  %call1.i = call noundef nonnull align 8 dereferenceable(8) ptr @_ZNSt3__124__put_character_sequenceB7v170000IcNS_11char_traitsIcEEEERNS_13basic_ostreamIT_T0_EES7_PKS4_m(ptr noundef nonnull align 8 dereferenceable(8) %add.ptr, ptr noundef nonnull @.str.3, i64 noundef 24)
  %call4 = call noundef nonnull align 8 dereferenceable(8) ptr @_ZNSt3__113basic_ostreamIcNS_11char_traitsIcEEElsEi(ptr noundef nonnull align 8 dereferenceable(8) %call1.i, i32 noundef %file_lnum)
  %call1.i243 = call noundef nonnull align 8 dereferenceable(8) ptr @_ZNSt3__124__put_character_sequenceB7v170000IcNS_11char_traitsIcEEEERNS_13basic_ostreamIT_T0_EES7_PKS4_m(ptr noundef nonnull align 8 dereferenceable(8) %call4, ptr noundef nonnull @.str.4, i64 noundef 1)
  %vtable.i492 = load ptr, ptr %call1.i243, align 8, !tbaa !35
  %vbase.offset.ptr.i493 = getelementptr i8, ptr %vtable.i492, i64 -24
  %vbase.offset.i494 = load i64, ptr %vbase.offset.ptr.i493, align 8
  %add.ptr.i495 = getelementptr inbounds i8, ptr %call1.i243, i64 %vbase.offset.i494
  call void @llvm.lifetime.start.p0(i64 8, ptr nonnull %ref.tmp.i.i491) #19
  call void @_ZNKSt3__18ios_base6getlocEv(ptr nonnull sret(%"class.std::__1::locale") align 8 %ref.tmp.i.i491, ptr noundef nonnull align 8 dereferenceable(136) %add.ptr.i495)
  %call.i5.i.i496 = invoke noundef ptr @_ZNKSt3__16locale9use_facetERNS0_2idE(ptr noundef nonnull align 8 dereferenceable(8) %ref.tmp.i.i491, ptr noundef nonnull align 8 dereferenceable(12) @_ZNSt3__15ctypeIcE2idE)
          to label %invoke.cont.i.i500 unwind label %lpad.i.i501

invoke.cont.i.i500:                               ; preds = %_ZNSt3__14endlB7v170000IcNS_11char_traitsIcEEEERNS_13basic_ostreamIT_T0_EES7_.exit
  %vtable.i.i.i497 = load ptr, ptr %call.i5.i.i496, align 8, !tbaa !35
  %vfn.i.i.i498 = getelementptr inbounds ptr, ptr %vtable.i.i.i497, i64 7
  %3 = load ptr, ptr %vfn.i.i.i498, align 8
  %call.i6.i.i499 = invoke noundef signext i8 %3(ptr noundef nonnull align 8 dereferenceable(25) %call.i5.i.i496, i8 noundef signext 10)
          to label %_ZNSt3__14endlB7v170000IcNS_11char_traitsIcEEEERNS_13basic_ostreamIT_T0_EES7_.exit504 unwind label %lpad.i.i501

lpad.i.i501:                                      ; preds = %invoke.cont.i.i500, %_ZNSt3__14endlB7v170000IcNS_11char_traitsIcEEEERNS_13basic_ostreamIT_T0_EES7_.exit
  %4 = landingpad { ptr, i32 }
          cleanup
  call void @_ZNSt3__16localeD1Ev(ptr noundef nonnull align 8 dereferenceable(8) %ref.tmp.i.i491) #19
  call void @llvm.lifetime.end.p0(i64 8, ptr nonnull %ref.tmp.i.i491) #19
  br label %common.resume

_ZNSt3__14endlB7v170000IcNS_11char_traitsIcEEEERNS_13basic_ostreamIT_T0_EES7_.exit504: ; preds = %invoke.cont.i.i500
  call void @_ZNSt3__16localeD1Ev(ptr noundef nonnull align 8 dereferenceable(8) %ref.tmp.i.i491) #19
  call void @llvm.lifetime.end.p0(i64 8, ptr nonnull %ref.tmp.i.i491) #19
  %call1.i502 = call noundef nonnull align 8 dereferenceable(8) ptr @_ZNSt3__113basic_ostreamIcNS_11char_traitsIcEEE3putEc(ptr noundef nonnull align 8 dereferenceable(8) %call1.i243, i8 noundef signext %call.i6.i.i499)
  %call2.i503 = call noundef nonnull align 8 dereferenceable(8) ptr @_ZNSt3__113basic_ostreamIcNS_11char_traitsIcEEE5flushEv(ptr noundef nonnull align 8 dereferenceable(8) %call1.i243)
  %call1.i246 = call noundef nonnull align 8 dereferenceable(8) ptr @_ZNSt3__124__put_character_sequenceB7v170000IcNS_11char_traitsIcEEEERNS_13basic_ostreamIT_T0_EES7_PKS4_m(ptr noundef nonnull align 8 dereferenceable(8) %add.ptr, ptr noundef nonnull @.str.5, i64 noundef 4)
  %sub = add nsw i32 %lnum, -1
  %conv = sext i32 %sub to i64
  %__start_.i = getelementptr inbounds %"class.std::__1::deque", ptr %lines, i64 0, i32 1
  %5 = load i64, ptr %__start_.i, align 8, !tbaa !37
  %add.i = add i64 %5, %conv
  %__begin_.i.i = getelementptr inbounds %"struct.std::__1::__split_buffer", ptr %lines, i64 0, i32 1
  %6 = load ptr, ptr %__begin_.i.i, align 8, !tbaa !45
  %div.i = udiv i64 %add.i, 170
  %add.ptr.i = getelementptr inbounds ptr, ptr %6, i64 %div.i
  %7 = load ptr, ptr %add.ptr.i, align 8, !tbaa !13
  %rem.i = urem i64 %add.i, 170
  %add.ptr2.i = getelementptr inbounds %"class.std::__1::basic_string", ptr %7, i64 %rem.i
  %bf.load.i.i.i.i = load i8, ptr %add.ptr2.i, align 8
  %bf.clear.i.i.i.i = and i8 %bf.load.i.i.i.i, 1
  %tobool.i.not.i.i.i = icmp eq i8 %bf.clear.i.i.i.i, 0
  %__data_.i.i.i.i = getelementptr inbounds %"struct.std::__1::basic_string<char>::__long", ptr %add.ptr2.i, i64 0, i32 2
  %8 = load ptr, ptr %__data_.i.i.i.i, align 8
  %__data_.i4.i.i.i = getelementptr inbounds %"struct.std::__1::basic_string<char>::__short", ptr %add.ptr2.i, i64 0, i32 2
  %cond.i.i.i = select i1 %tobool.i.not.i.i.i, ptr %__data_.i4.i.i.i, ptr %8
  %__size_.i.i.i = getelementptr inbounds %"struct.std::__1::basic_string<char>::__long", ptr %add.ptr2.i, i64 0, i32 1
  %9 = load i64, ptr %__size_.i.i.i, align 8
  %bf.lshr.i.i.i = lshr i8 %bf.load.i.i.i.i, 1
  %conv.i.i.i = zext i8 %bf.lshr.i.i.i to i64
  %cond.i.i = select i1 %tobool.i.not.i.i.i, i64 %conv.i.i.i, i64 %9
  %call2.i = call noundef nonnull align 8 dereferenceable(8) ptr @_ZNSt3__124__put_character_sequenceB7v170000IcNS_11char_traitsIcEEEERNS_13basic_ostreamIT_T0_EES7_PKS4_m(ptr noundef nonnull align 8 dereferenceable(8) %call1.i246, ptr noundef %cond.i.i.i, i64 noundef %cond.i.i)
  %vtable.i506 = load ptr, ptr %call2.i, align 8, !tbaa !35
  %vbase.offset.ptr.i507 = getelementptr i8, ptr %vtable.i506, i64 -24
  %vbase.offset.i508 = load i64, ptr %vbase.offset.ptr.i507, align 8
  %add.ptr.i509 = getelementptr inbounds i8, ptr %call2.i, i64 %vbase.offset.i508
  call void @llvm.lifetime.start.p0(i64 8, ptr nonnull %ref.tmp.i.i505) #19
  call void @_ZNKSt3__18ios_base6getlocEv(ptr nonnull sret(%"class.std::__1::locale") align 8 %ref.tmp.i.i505, ptr noundef nonnull align 8 dereferenceable(136) %add.ptr.i509)
  %call.i5.i.i510 = invoke noundef ptr @_ZNKSt3__16locale9use_facetERNS0_2idE(ptr noundef nonnull align 8 dereferenceable(8) %ref.tmp.i.i505, ptr noundef nonnull align 8 dereferenceable(12) @_ZNSt3__15ctypeIcE2idE)
          to label %invoke.cont.i.i514 unwind label %lpad.i.i515

invoke.cont.i.i514:                               ; preds = %_ZNSt3__14endlB7v170000IcNS_11char_traitsIcEEEERNS_13basic_ostreamIT_T0_EES7_.exit504
  %vtable.i.i.i511 = load ptr, ptr %call.i5.i.i510, align 8, !tbaa !35
  %vfn.i.i.i512 = getelementptr inbounds ptr, ptr %vtable.i.i.i511, i64 7
  %10 = load ptr, ptr %vfn.i.i.i512, align 8
  %call.i6.i.i513 = invoke noundef signext i8 %10(ptr noundef nonnull align 8 dereferenceable(25) %call.i5.i.i510, i8 noundef signext 10)
          to label %_ZNSt3__14endlB7v170000IcNS_11char_traitsIcEEEERNS_13basic_ostreamIT_T0_EES7_.exit518 unwind label %lpad.i.i515

lpad.i.i515:                                      ; preds = %invoke.cont.i.i514, %_ZNSt3__14endlB7v170000IcNS_11char_traitsIcEEEERNS_13basic_ostreamIT_T0_EES7_.exit504
  %11 = landingpad { ptr, i32 }
          cleanup
  call void @_ZNSt3__16localeD1Ev(ptr noundef nonnull align 8 dereferenceable(8) %ref.tmp.i.i505) #19
  call void @llvm.lifetime.end.p0(i64 8, ptr nonnull %ref.tmp.i.i505) #19
  br label %common.resume

_ZNSt3__14endlB7v170000IcNS_11char_traitsIcEEEERNS_13basic_ostreamIT_T0_EES7_.exit518: ; preds = %invoke.cont.i.i514
  call void @_ZNSt3__16localeD1Ev(ptr noundef nonnull align 8 dereferenceable(8) %ref.tmp.i.i505) #19
  call void @llvm.lifetime.end.p0(i64 8, ptr nonnull %ref.tmp.i.i505) #19
  %call1.i516 = call noundef nonnull align 8 dereferenceable(8) ptr @_ZNSt3__113basic_ostreamIcNS_11char_traitsIcEEE3putEc(ptr noundef nonnull align 8 dereferenceable(8) %call2.i, i8 noundef signext %call.i6.i.i513)
  %call2.i517 = call noundef nonnull align 8 dereferenceable(8) ptr @_ZNSt3__113basic_ostreamIcNS_11char_traitsIcEEE5flushEv(ptr noundef nonnull align 8 dereferenceable(8) %call2.i)
  %call1.i249 = call noundef nonnull align 8 dereferenceable(8) ptr @_ZNSt3__124__put_character_sequenceB7v170000IcNS_11char_traitsIcEEEERNS_13basic_ostreamIT_T0_EES7_PKS4_m(ptr noundef nonnull align 8 dereferenceable(8) %add.ptr, ptr noundef nonnull @.str.6, i64 noundef 9)
  %bf.load.i.i.i.i250 = load i8, ptr %fname, align 8
  %bf.clear.i.i.i.i251 = and i8 %bf.load.i.i.i.i250, 1
  %tobool.i.not.i.i.i252 = icmp eq i8 %bf.clear.i.i.i.i251, 0
  %__data_.i.i.i.i253 = getelementptr inbounds %"struct.std::__1::basic_string<char>::__long", ptr %fname, i64 0, i32 2
  %12 = load ptr, ptr %__data_.i.i.i.i253, align 8
  %__data_.i4.i.i.i254 = getelementptr inbounds %"struct.std::__1::basic_string<char>::__short", ptr %fname, i64 0, i32 2
  %cond.i.i.i255 = select i1 %tobool.i.not.i.i.i252, ptr %__data_.i4.i.i.i254, ptr %12
  %__size_.i.i.i256 = getelementptr inbounds %"struct.std::__1::basic_string<char>::__long", ptr %fname, i64 0, i32 1
  %13 = load i64, ptr %__size_.i.i.i256, align 8
  %bf.lshr.i.i.i257 = lshr i8 %bf.load.i.i.i.i250, 1
  %conv.i.i.i258 = zext i8 %bf.lshr.i.i.i257 to i64
  %cond.i.i259 = select i1 %tobool.i.not.i.i.i252, i64 %conv.i.i.i258, i64 %13
  %call2.i260 = call noundef nonnull align 8 dereferenceable(8) ptr @_ZNSt3__124__put_character_sequenceB7v170000IcNS_11char_traitsIcEEEERNS_13basic_ostreamIT_T0_EES7_PKS4_m(ptr noundef nonnull align 8 dereferenceable(8) %call1.i249, ptr noundef %cond.i.i.i255, i64 noundef %cond.i.i259)
  %vtable.i520 = load ptr, ptr %call2.i260, align 8, !tbaa !35
  %vbase.offset.ptr.i521 = getelementptr i8, ptr %vtable.i520, i64 -24
  %vbase.offset.i522 = load i64, ptr %vbase.offset.ptr.i521, align 8
  %add.ptr.i523 = getelementptr inbounds i8, ptr %call2.i260, i64 %vbase.offset.i522
  call void @llvm.lifetime.start.p0(i64 8, ptr nonnull %ref.tmp.i.i519) #19
  call void @_ZNKSt3__18ios_base6getlocEv(ptr nonnull sret(%"class.std::__1::locale") align 8 %ref.tmp.i.i519, ptr noundef nonnull align 8 dereferenceable(136) %add.ptr.i523)
  %call.i5.i.i524 = invoke noundef ptr @_ZNKSt3__16locale9use_facetERNS0_2idE(ptr noundef nonnull align 8 dereferenceable(8) %ref.tmp.i.i519, ptr noundef nonnull align 8 dereferenceable(12) @_ZNSt3__15ctypeIcE2idE)
          to label %invoke.cont.i.i528 unwind label %lpad.i.i529

invoke.cont.i.i528:                               ; preds = %_ZNSt3__14endlB7v170000IcNS_11char_traitsIcEEEERNS_13basic_ostreamIT_T0_EES7_.exit518
  %vtable.i.i.i525 = load ptr, ptr %call.i5.i.i524, align 8, !tbaa !35
  %vfn.i.i.i526 = getelementptr inbounds ptr, ptr %vtable.i.i.i525, i64 7
  %14 = load ptr, ptr %vfn.i.i.i526, align 8
  %call.i6.i.i527 = invoke noundef signext i8 %14(ptr noundef nonnull align 8 dereferenceable(25) %call.i5.i.i524, i8 noundef signext 10)
          to label %_ZNSt3__14endlB7v170000IcNS_11char_traitsIcEEEERNS_13basic_ostreamIT_T0_EES7_.exit532 unwind label %lpad.i.i529

lpad.i.i529:                                      ; preds = %invoke.cont.i.i528, %_ZNSt3__14endlB7v170000IcNS_11char_traitsIcEEEERNS_13basic_ostreamIT_T0_EES7_.exit518
  %15 = landingpad { ptr, i32 }
          cleanup
  call void @_ZNSt3__16localeD1Ev(ptr noundef nonnull align 8 dereferenceable(8) %ref.tmp.i.i519) #19
  call void @llvm.lifetime.end.p0(i64 8, ptr nonnull %ref.tmp.i.i519) #19
  br label %common.resume

_ZNSt3__14endlB7v170000IcNS_11char_traitsIcEEEERNS_13basic_ostreamIT_T0_EES7_.exit532: ; preds = %invoke.cont.i.i528
  call void @_ZNSt3__16localeD1Ev(ptr noundef nonnull align 8 dereferenceable(8) %ref.tmp.i.i519) #19
  call void @llvm.lifetime.end.p0(i64 8, ptr nonnull %ref.tmp.i.i519) #19
  %call1.i530 = call noundef nonnull align 8 dereferenceable(8) ptr @_ZNSt3__113basic_ostreamIcNS_11char_traitsIcEEE3putEc(ptr noundef nonnull align 8 dereferenceable(8) %call2.i260, i8 noundef signext %call.i6.i.i527)
  %call2.i531 = call noundef nonnull align 8 dereferenceable(8) ptr @_ZNSt3__113basic_ostreamIcNS_11char_traitsIcEEE5flushEv(ptr noundef nonnull align 8 dereferenceable(8) %call2.i260)
  %call1.i263 = call noundef nonnull align 8 dereferenceable(8) ptr @_ZNSt3__124__put_character_sequenceB7v170000IcNS_11char_traitsIcEEEERNS_13basic_ostreamIT_T0_EES7_PKS4_m(ptr noundef nonnull align 8 dereferenceable(8) %add.ptr, ptr noundef nonnull @.str.7, i64 noundef 39)
  %vtable.i534 = load ptr, ptr %call1.i263, align 8, !tbaa !35
  %vbase.offset.ptr.i535 = getelementptr i8, ptr %vtable.i534, i64 -24
  %vbase.offset.i536 = load i64, ptr %vbase.offset.ptr.i535, align 8
  %add.ptr.i537 = getelementptr inbounds i8, ptr %call1.i263, i64 %vbase.offset.i536
  call void @llvm.lifetime.start.p0(i64 8, ptr nonnull %ref.tmp.i.i533) #19
  call void @_ZNKSt3__18ios_base6getlocEv(ptr nonnull sret(%"class.std::__1::locale") align 8 %ref.tmp.i.i533, ptr noundef nonnull align 8 dereferenceable(136) %add.ptr.i537)
  %call.i5.i.i538 = invoke noundef ptr @_ZNKSt3__16locale9use_facetERNS0_2idE(ptr noundef nonnull align 8 dereferenceable(8) %ref.tmp.i.i533, ptr noundef nonnull align 8 dereferenceable(12) @_ZNSt3__15ctypeIcE2idE)
          to label %invoke.cont.i.i542 unwind label %lpad.i.i543

invoke.cont.i.i542:                               ; preds = %_ZNSt3__14endlB7v170000IcNS_11char_traitsIcEEEERNS_13basic_ostreamIT_T0_EES7_.exit532
  %vtable.i.i.i539 = load ptr, ptr %call.i5.i.i538, align 8, !tbaa !35
  %vfn.i.i.i540 = getelementptr inbounds ptr, ptr %vtable.i.i.i539, i64 7
  %16 = load ptr, ptr %vfn.i.i.i540, align 8
  %call.i6.i.i541 = invoke noundef signext i8 %16(ptr noundef nonnull align 8 dereferenceable(25) %call.i5.i.i538, i8 noundef signext 10)
          to label %_ZNSt3__14endlB7v170000IcNS_11char_traitsIcEEEERNS_13basic_ostreamIT_T0_EES7_.exit546 unwind label %lpad.i.i543

lpad.i.i543:                                      ; preds = %invoke.cont.i.i542, %_ZNSt3__14endlB7v170000IcNS_11char_traitsIcEEEERNS_13basic_ostreamIT_T0_EES7_.exit532
  %17 = landingpad { ptr, i32 }
          cleanup
  call void @_ZNSt3__16localeD1Ev(ptr noundef nonnull align 8 dereferenceable(8) %ref.tmp.i.i533) #19
  call void @llvm.lifetime.end.p0(i64 8, ptr nonnull %ref.tmp.i.i533) #19
  br label %common.resume

_ZNSt3__14endlB7v170000IcNS_11char_traitsIcEEEERNS_13basic_ostreamIT_T0_EES7_.exit546: ; preds = %invoke.cont.i.i542
  call void @_ZNSt3__16localeD1Ev(ptr noundef nonnull align 8 dereferenceable(8) %ref.tmp.i.i533) #19
  call void @llvm.lifetime.end.p0(i64 8, ptr nonnull %ref.tmp.i.i533) #19
  %call1.i544 = call noundef nonnull align 8 dereferenceable(8) ptr @_ZNSt3__113basic_ostreamIcNS_11char_traitsIcEEE3putEc(ptr noundef nonnull align 8 dereferenceable(8) %call1.i263, i8 noundef signext %call.i6.i.i541)
  %call2.i545 = call noundef nonnull align 8 dereferenceable(8) ptr @_ZNSt3__113basic_ostreamIcNS_11char_traitsIcEEE5flushEv(ptr noundef nonnull align 8 dereferenceable(8) %call1.i263)
  store i32 2, ptr %ierr, align 4, !tbaa !32
  br label %cleanup.cont

if.end:                                           ; preds = %entry
  %__end_.i = getelementptr inbounds %"class.std::__1::vector.8", ptr %istart, i64 0, i32 1
  %18 = load ptr, ptr %__end_.i, align 8, !tbaa !30
  %19 = load ptr, ptr %istart, align 8, !tbaa !29
  %sub.ptr.lhs.cast.i = ptrtoint ptr %18 to i64
  %sub.ptr.rhs.cast.i = ptrtoint ptr %19 to i64
  %sub.ptr.sub.i = sub i64 %sub.ptr.lhs.cast.i, %sub.ptr.rhs.cast.i
  %20 = lshr exact i64 %sub.ptr.sub.i, 2
  %conv20 = trunc i64 %20 to i32
  %ndim = getelementptr inbounds %"class.PP::Variable", ptr %this, i64 0, i32 2
  %21 = load i32, ptr %ndim, align 8, !tbaa !14
  %cmp = icmp sgt i32 %21, -1
  br i1 %cmp, label %if.then21, label %if.else

if.then21:                                        ; preds = %if.end
  %cmp23.not = icmp eq i32 %21, %conv20
  br i1 %cmp23.not, label %if.end75, label %if.then24

if.then24:                                        ; preds = %if.then21
  %add.ptr25 = getelementptr inbounds i8, ptr %serr, i64 16
  %vtable.i548 = load ptr, ptr %add.ptr25, align 8, !tbaa !35
  %vbase.offset.ptr.i549 = getelementptr i8, ptr %vtable.i548, i64 -24
  %vbase.offset.i550 = load i64, ptr %vbase.offset.ptr.i549, align 8
  %add.ptr.i551 = getelementptr inbounds i8, ptr %add.ptr25, i64 %vbase.offset.i550
  call void @llvm.lifetime.start.p0(i64 8, ptr nonnull %ref.tmp.i.i547) #19
  call void @_ZNKSt3__18ios_base6getlocEv(ptr nonnull sret(%"class.std::__1::locale") align 8 %ref.tmp.i.i547, ptr noundef nonnull align 8 dereferenceable(136) %add.ptr.i551)
  %call.i5.i.i552 = invoke noundef ptr @_ZNKSt3__16locale9use_facetERNS0_2idE(ptr noundef nonnull align 8 dereferenceable(8) %ref.tmp.i.i547, ptr noundef nonnull align 8 dereferenceable(12) @_ZNSt3__15ctypeIcE2idE)
          to label %invoke.cont.i.i556 unwind label %lpad.i.i557

invoke.cont.i.i556:                               ; preds = %if.then24
  %vtable.i.i.i553 = load ptr, ptr %call.i5.i.i552, align 8, !tbaa !35
  %vfn.i.i.i554 = getelementptr inbounds ptr, ptr %vtable.i.i.i553, i64 7
  %22 = load ptr, ptr %vfn.i.i.i554, align 8
  %call.i6.i.i555 = invoke noundef signext i8 %22(ptr noundef nonnull align 8 dereferenceable(25) %call.i5.i.i552, i8 noundef signext 10)
          to label %_ZNSt3__14endlB7v170000IcNS_11char_traitsIcEEEERNS_13basic_ostreamIT_T0_EES7_.exit560 unwind label %lpad.i.i557

lpad.i.i557:                                      ; preds = %invoke.cont.i.i556, %if.then24
  %23 = landingpad { ptr, i32 }
          cleanup
  call void @_ZNSt3__16localeD1Ev(ptr noundef nonnull align 8 dereferenceable(8) %ref.tmp.i.i547) #19
  call void @llvm.lifetime.end.p0(i64 8, ptr nonnull %ref.tmp.i.i547) #19
  br label %common.resume

_ZNSt3__14endlB7v170000IcNS_11char_traitsIcEEEERNS_13basic_ostreamIT_T0_EES7_.exit560: ; preds = %invoke.cont.i.i556
  call void @_ZNSt3__16localeD1Ev(ptr noundef nonnull align 8 dereferenceable(8) %ref.tmp.i.i547) #19
  call void @llvm.lifetime.end.p0(i64 8, ptr nonnull %ref.tmp.i.i547) #19
  %call1.i558 = call noundef nonnull align 8 dereferenceable(8) ptr @_ZNSt3__113basic_ostreamIcNS_11char_traitsIcEEE3putEc(ptr noundef nonnull align 8 dereferenceable(8) %add.ptr25, i8 noundef signext %call.i6.i.i555)
  %call2.i559 = call noundef nonnull align 8 dereferenceable(8) ptr @_ZNSt3__113basic_ostreamIcNS_11char_traitsIcEEE5flushEv(ptr noundef nonnull align 8 dereferenceable(8) %add.ptr25)
  %call1.i267 = call noundef nonnull align 8 dereferenceable(8) ptr @_ZNSt3__124__put_character_sequenceB7v170000IcNS_11char_traitsIcEEEERNS_13basic_ostreamIT_T0_EES7_PKS4_m(ptr noundef nonnull align 8 dereferenceable(8) %add.ptr25, ptr noundef nonnull @.str.3, i64 noundef 24)
  %call29 = call noundef nonnull align 8 dereferenceable(8) ptr @_ZNSt3__113basic_ostreamIcNS_11char_traitsIcEEElsEi(ptr noundef nonnull align 8 dereferenceable(8) %call1.i267, i32 noundef %file_lnum)
  %call1.i269 = call noundef nonnull align 8 dereferenceable(8) ptr @_ZNSt3__124__put_character_sequenceB7v170000IcNS_11char_traitsIcEEEERNS_13basic_ostreamIT_T0_EES7_PKS4_m(ptr noundef nonnull align 8 dereferenceable(8) %call29, ptr noundef nonnull @.str.4, i64 noundef 1)
  %vtable.i562 = load ptr, ptr %call1.i269, align 8, !tbaa !35
  %vbase.offset.ptr.i563 = getelementptr i8, ptr %vtable.i562, i64 -24
  %vbase.offset.i564 = load i64, ptr %vbase.offset.ptr.i563, align 8
  %add.ptr.i565 = getelementptr inbounds i8, ptr %call1.i269, i64 %vbase.offset.i564
  call void @llvm.lifetime.start.p0(i64 8, ptr nonnull %ref.tmp.i.i561) #19
  call void @_ZNKSt3__18ios_base6getlocEv(ptr nonnull sret(%"class.std::__1::locale") align 8 %ref.tmp.i.i561, ptr noundef nonnull align 8 dereferenceable(136) %add.ptr.i565)
  %call.i5.i.i566 = invoke noundef ptr @_ZNKSt3__16locale9use_facetERNS0_2idE(ptr noundef nonnull align 8 dereferenceable(8) %ref.tmp.i.i561, ptr noundef nonnull align 8 dereferenceable(12) @_ZNSt3__15ctypeIcE2idE)
          to label %invoke.cont.i.i570 unwind label %lpad.i.i571

invoke.cont.i.i570:                               ; preds = %_ZNSt3__14endlB7v170000IcNS_11char_traitsIcEEEERNS_13basic_ostreamIT_T0_EES7_.exit560
  %vtable.i.i.i567 = load ptr, ptr %call.i5.i.i566, align 8, !tbaa !35
  %vfn.i.i.i568 = getelementptr inbounds ptr, ptr %vtable.i.i.i567, i64 7
  %24 = load ptr, ptr %vfn.i.i.i568, align 8
  %call.i6.i.i569 = invoke noundef signext i8 %24(ptr noundef nonnull align 8 dereferenceable(25) %call.i5.i.i566, i8 noundef signext 10)
          to label %_ZNSt3__14endlB7v170000IcNS_11char_traitsIcEEEERNS_13basic_ostreamIT_T0_EES7_.exit574 unwind label %lpad.i.i571

lpad.i.i571:                                      ; preds = %invoke.cont.i.i570, %_ZNSt3__14endlB7v170000IcNS_11char_traitsIcEEEERNS_13basic_ostreamIT_T0_EES7_.exit560
  %25 = landingpad { ptr, i32 }
          cleanup
  call void @_ZNSt3__16localeD1Ev(ptr noundef nonnull align 8 dereferenceable(8) %ref.tmp.i.i561) #19
  call void @llvm.lifetime.end.p0(i64 8, ptr nonnull %ref.tmp.i.i561) #19
  br label %common.resume

_ZNSt3__14endlB7v170000IcNS_11char_traitsIcEEEERNS_13basic_ostreamIT_T0_EES7_.exit574: ; preds = %invoke.cont.i.i570
  call void @_ZNSt3__16localeD1Ev(ptr noundef nonnull align 8 dereferenceable(8) %ref.tmp.i.i561) #19
  call void @llvm.lifetime.end.p0(i64 8, ptr nonnull %ref.tmp.i.i561) #19
  %call1.i572 = call noundef nonnull align 8 dereferenceable(8) ptr @_ZNSt3__113basic_ostreamIcNS_11char_traitsIcEEE3putEc(ptr noundef nonnull align 8 dereferenceable(8) %call1.i269, i8 noundef signext %call.i6.i.i569)
  %call2.i573 = call noundef nonnull align 8 dereferenceable(8) ptr @_ZNSt3__113basic_ostreamIcNS_11char_traitsIcEEE5flushEv(ptr noundef nonnull align 8 dereferenceable(8) %call1.i269)
  %call1.i272 = call noundef nonnull align 8 dereferenceable(8) ptr @_ZNSt3__124__put_character_sequenceB7v170000IcNS_11char_traitsIcEEEERNS_13basic_ostreamIT_T0_EES7_PKS4_m(ptr noundef nonnull align 8 dereferenceable(8) %add.ptr25, ptr noundef nonnull @.str.5, i64 noundef 4)
  %sub34 = add nsw i32 %lnum, -1
  %conv35 = sext i32 %sub34 to i64
  %__start_.i273 = getelementptr inbounds %"class.std::__1::deque", ptr %lines, i64 0, i32 1
  %26 = load i64, ptr %__start_.i273, align 8, !tbaa !37
  %add.i274 = add i64 %26, %conv35
  %__begin_.i.i275 = getelementptr inbounds %"struct.std::__1::__split_buffer", ptr %lines, i64 0, i32 1
  %27 = load ptr, ptr %__begin_.i.i275, align 8, !tbaa !45
  %div.i276 = udiv i64 %add.i274, 170
  %add.ptr.i277 = getelementptr inbounds ptr, ptr %27, i64 %div.i276
  %28 = load ptr, ptr %add.ptr.i277, align 8, !tbaa !13
  %rem.i278 = urem i64 %add.i274, 170
  %add.ptr2.i279 = getelementptr inbounds %"class.std::__1::basic_string", ptr %28, i64 %rem.i278
  %bf.load.i.i.i.i280 = load i8, ptr %add.ptr2.i279, align 8
  %bf.clear.i.i.i.i281 = and i8 %bf.load.i.i.i.i280, 1
  %tobool.i.not.i.i.i282 = icmp eq i8 %bf.clear.i.i.i.i281, 0
  %__data_.i.i.i.i283 = getelementptr inbounds %"struct.std::__1::basic_string<char>::__long", ptr %add.ptr2.i279, i64 0, i32 2
  %29 = load ptr, ptr %__data_.i.i.i.i283, align 8
  %__data_.i4.i.i.i284 = getelementptr inbounds %"struct.std::__1::basic_string<char>::__short", ptr %add.ptr2.i279, i64 0, i32 2
  %cond.i.i.i285 = select i1 %tobool.i.not.i.i.i282, ptr %__data_.i4.i.i.i284, ptr %29
  %__size_.i.i.i286 = getelementptr inbounds %"struct.std::__1::basic_string<char>::__long", ptr %add.ptr2.i279, i64 0, i32 1
  %30 = load i64, ptr %__size_.i.i.i286, align 8
  %bf.lshr.i.i.i287 = lshr i8 %bf.load.i.i.i.i280, 1
  %conv.i.i.i288 = zext i8 %bf.lshr.i.i.i287 to i64
  %cond.i.i289 = select i1 %tobool.i.not.i.i.i282, i64 %conv.i.i.i288, i64 %30
  %call2.i290 = call noundef nonnull align 8 dereferenceable(8) ptr @_ZNSt3__124__put_character_sequenceB7v170000IcNS_11char_traitsIcEEEERNS_13basic_ostreamIT_T0_EES7_PKS4_m(ptr noundef nonnull align 8 dereferenceable(8) %call1.i272, ptr noundef %cond.i.i.i285, i64 noundef %cond.i.i289)
  %vtable.i576 = load ptr, ptr %call2.i290, align 8, !tbaa !35
  %vbase.offset.ptr.i577 = getelementptr i8, ptr %vtable.i576, i64 -24
  %vbase.offset.i578 = load i64, ptr %vbase.offset.ptr.i577, align 8
  %add.ptr.i579 = getelementptr inbounds i8, ptr %call2.i290, i64 %vbase.offset.i578
  call void @llvm.lifetime.start.p0(i64 8, ptr nonnull %ref.tmp.i.i575) #19
  call void @_ZNKSt3__18ios_base6getlocEv(ptr nonnull sret(%"class.std::__1::locale") align 8 %ref.tmp.i.i575, ptr noundef nonnull align 8 dereferenceable(136) %add.ptr.i579)
  %call.i5.i.i580 = invoke noundef ptr @_ZNKSt3__16locale9use_facetERNS0_2idE(ptr noundef nonnull align 8 dereferenceable(8) %ref.tmp.i.i575, ptr noundef nonnull align 8 dereferenceable(12) @_ZNSt3__15ctypeIcE2idE)
          to label %invoke.cont.i.i584 unwind label %lpad.i.i585

invoke.cont.i.i584:                               ; preds = %_ZNSt3__14endlB7v170000IcNS_11char_traitsIcEEEERNS_13basic_ostreamIT_T0_EES7_.exit574
  %vtable.i.i.i581 = load ptr, ptr %call.i5.i.i580, align 8, !tbaa !35
  %vfn.i.i.i582 = getelementptr inbounds ptr, ptr %vtable.i.i.i581, i64 7
  %31 = load ptr, ptr %vfn.i.i.i582, align 8
  %call.i6.i.i583 = invoke noundef signext i8 %31(ptr noundef nonnull align 8 dereferenceable(25) %call.i5.i.i580, i8 noundef signext 10)
          to label %_ZNSt3__14endlB7v170000IcNS_11char_traitsIcEEEERNS_13basic_ostreamIT_T0_EES7_.exit588 unwind label %lpad.i.i585

lpad.i.i585:                                      ; preds = %invoke.cont.i.i584, %_ZNSt3__14endlB7v170000IcNS_11char_traitsIcEEEERNS_13basic_ostreamIT_T0_EES7_.exit574
  %32 = landingpad { ptr, i32 }
          cleanup
  call void @_ZNSt3__16localeD1Ev(ptr noundef nonnull align 8 dereferenceable(8) %ref.tmp.i.i575) #19
  call void @llvm.lifetime.end.p0(i64 8, ptr nonnull %ref.tmp.i.i575) #19
  br label %common.resume

_ZNSt3__14endlB7v170000IcNS_11char_traitsIcEEEERNS_13basic_ostreamIT_T0_EES7_.exit588: ; preds = %invoke.cont.i.i584
  call void @_ZNSt3__16localeD1Ev(ptr noundef nonnull align 8 dereferenceable(8) %ref.tmp.i.i575) #19
  call void @llvm.lifetime.end.p0(i64 8, ptr nonnull %ref.tmp.i.i575) #19
  %call1.i586 = call noundef nonnull align 8 dereferenceable(8) ptr @_ZNSt3__113basic_ostreamIcNS_11char_traitsIcEEE3putEc(ptr noundef nonnull align 8 dereferenceable(8) %call2.i290, i8 noundef signext %call.i6.i.i583)
  %call2.i587 = call noundef nonnull align 8 dereferenceable(8) ptr @_ZNSt3__113basic_ostreamIcNS_11char_traitsIcEEE5flushEv(ptr noundef nonnull align 8 dereferenceable(8) %call2.i290)
  %call1.i293 = call noundef nonnull align 8 dereferenceable(8) ptr @_ZNSt3__124__put_character_sequenceB7v170000IcNS_11char_traitsIcEEEERNS_13basic_ostreamIT_T0_EES7_PKS4_m(ptr noundef nonnull align 8 dereferenceable(8) %add.ptr25, ptr noundef nonnull @.str.6, i64 noundef 9)
  %bf.load.i.i.i.i294 = load i8, ptr %fname, align 8
  %bf.clear.i.i.i.i295 = and i8 %bf.load.i.i.i.i294, 1
  %tobool.i.not.i.i.i296 = icmp eq i8 %bf.clear.i.i.i.i295, 0
  %__data_.i.i.i.i297 = getelementptr inbounds %"struct.std::__1::basic_string<char>::__long", ptr %fname, i64 0, i32 2
  %33 = load ptr, ptr %__data_.i.i.i.i297, align 8
  %__data_.i4.i.i.i298 = getelementptr inbounds %"struct.std::__1::basic_string<char>::__short", ptr %fname, i64 0, i32 2
  %cond.i.i.i299 = select i1 %tobool.i.not.i.i.i296, ptr %__data_.i4.i.i.i298, ptr %33
  %__size_.i.i.i300 = getelementptr inbounds %"struct.std::__1::basic_string<char>::__long", ptr %fname, i64 0, i32 1
  %34 = load i64, ptr %__size_.i.i.i300, align 8
  %bf.lshr.i.i.i301 = lshr i8 %bf.load.i.i.i.i294, 1
  %conv.i.i.i302 = zext i8 %bf.lshr.i.i.i301 to i64
  %cond.i.i303 = select i1 %tobool.i.not.i.i.i296, i64 %conv.i.i.i302, i64 %34
  %call2.i304 = call noundef nonnull align 8 dereferenceable(8) ptr @_ZNSt3__124__put_character_sequenceB7v170000IcNS_11char_traitsIcEEEERNS_13basic_ostreamIT_T0_EES7_PKS4_m(ptr noundef nonnull align 8 dereferenceable(8) %call1.i293, ptr noundef %cond.i.i.i299, i64 noundef %cond.i.i303)
  %vtable.i590 = load ptr, ptr %call2.i304, align 8, !tbaa !35
  %vbase.offset.ptr.i591 = getelementptr i8, ptr %vtable.i590, i64 -24
  %vbase.offset.i592 = load i64, ptr %vbase.offset.ptr.i591, align 8
  %add.ptr.i593 = getelementptr inbounds i8, ptr %call2.i304, i64 %vbase.offset.i592
  call void @llvm.lifetime.start.p0(i64 8, ptr nonnull %ref.tmp.i.i589) #19
  call void @_ZNKSt3__18ios_base6getlocEv(ptr nonnull sret(%"class.std::__1::locale") align 8 %ref.tmp.i.i589, ptr noundef nonnull align 8 dereferenceable(136) %add.ptr.i593)
  %call.i5.i.i594 = invoke noundef ptr @_ZNKSt3__16locale9use_facetERNS0_2idE(ptr noundef nonnull align 8 dereferenceable(8) %ref.tmp.i.i589, ptr noundef nonnull align 8 dereferenceable(12) @_ZNSt3__15ctypeIcE2idE)
          to label %invoke.cont.i.i598 unwind label %lpad.i.i599

invoke.cont.i.i598:                               ; preds = %_ZNSt3__14endlB7v170000IcNS_11char_traitsIcEEEERNS_13basic_ostreamIT_T0_EES7_.exit588
  %vtable.i.i.i595 = load ptr, ptr %call.i5.i.i594, align 8, !tbaa !35
  %vfn.i.i.i596 = getelementptr inbounds ptr, ptr %vtable.i.i.i595, i64 7
  %35 = load ptr, ptr %vfn.i.i.i596, align 8
  %call.i6.i.i597 = invoke noundef signext i8 %35(ptr noundef nonnull align 8 dereferenceable(25) %call.i5.i.i594, i8 noundef signext 10)
          to label %_ZNSt3__14endlB7v170000IcNS_11char_traitsIcEEEERNS_13basic_ostreamIT_T0_EES7_.exit602 unwind label %lpad.i.i599

lpad.i.i599:                                      ; preds = %invoke.cont.i.i598, %_ZNSt3__14endlB7v170000IcNS_11char_traitsIcEEEERNS_13basic_ostreamIT_T0_EES7_.exit588
  %36 = landingpad { ptr, i32 }
          cleanup
  call void @_ZNSt3__16localeD1Ev(ptr noundef nonnull align 8 dereferenceable(8) %ref.tmp.i.i589) #19
  call void @llvm.lifetime.end.p0(i64 8, ptr nonnull %ref.tmp.i.i589) #19
  br label %common.resume

_ZNSt3__14endlB7v170000IcNS_11char_traitsIcEEEERNS_13basic_ostreamIT_T0_EES7_.exit602: ; preds = %invoke.cont.i.i598
  call void @_ZNSt3__16localeD1Ev(ptr noundef nonnull align 8 dereferenceable(8) %ref.tmp.i.i589) #19
  call void @llvm.lifetime.end.p0(i64 8, ptr nonnull %ref.tmp.i.i589) #19
  %call1.i600 = call noundef nonnull align 8 dereferenceable(8) ptr @_ZNSt3__113basic_ostreamIcNS_11char_traitsIcEEE3putEc(ptr noundef nonnull align 8 dereferenceable(8) %call2.i304, i8 noundef signext %call.i6.i.i597)
  %call2.i601 = call noundef nonnull align 8 dereferenceable(8) ptr @_ZNSt3__113basic_ostreamIcNS_11char_traitsIcEEE5flushEv(ptr noundef nonnull align 8 dereferenceable(8) %call2.i304)
  %call1.i307 = call noundef nonnull align 8 dereferenceable(8) ptr @_ZNSt3__124__put_character_sequenceB7v170000IcNS_11char_traitsIcEEEERNS_13basic_ostreamIT_T0_EES7_PKS4_m(ptr noundef nonnull align 8 dereferenceable(8) %add.ptr25, ptr noundef nonnull @.str.8, i64 noundef 49)
  %vtable.i604 = load ptr, ptr %call1.i307, align 8, !tbaa !35
  %vbase.offset.ptr.i605 = getelementptr i8, ptr %vtable.i604, i64 -24
  %vbase.offset.i606 = load i64, ptr %vbase.offset.ptr.i605, align 8
  %add.ptr.i607 = getelementptr inbounds i8, ptr %call1.i307, i64 %vbase.offset.i606
  call void @llvm.lifetime.start.p0(i64 8, ptr nonnull %ref.tmp.i.i603) #19
  call void @_ZNKSt3__18ios_base6getlocEv(ptr nonnull sret(%"class.std::__1::locale") align 8 %ref.tmp.i.i603, ptr noundef nonnull align 8 dereferenceable(136) %add.ptr.i607)
  %call.i5.i.i608 = invoke noundef ptr @_ZNKSt3__16locale9use_facetERNS0_2idE(ptr noundef nonnull align 8 dereferenceable(8) %ref.tmp.i.i603, ptr noundef nonnull align 8 dereferenceable(12) @_ZNSt3__15ctypeIcE2idE)
          to label %invoke.cont.i.i612 unwind label %lpad.i.i613

invoke.cont.i.i612:                               ; preds = %_ZNSt3__14endlB7v170000IcNS_11char_traitsIcEEEERNS_13basic_ostreamIT_T0_EES7_.exit602
  %vtable.i.i.i609 = load ptr, ptr %call.i5.i.i608, align 8, !tbaa !35
  %vfn.i.i.i610 = getelementptr inbounds ptr, ptr %vtable.i.i.i609, i64 7
  %37 = load ptr, ptr %vfn.i.i.i610, align 8
  %call.i6.i.i611 = invoke noundef signext i8 %37(ptr noundef nonnull align 8 dereferenceable(25) %call.i5.i.i608, i8 noundef signext 10)
          to label %_ZNSt3__14endlB7v170000IcNS_11char_traitsIcEEEERNS_13basic_ostreamIT_T0_EES7_.exit616 unwind label %lpad.i.i613

lpad.i.i613:                                      ; preds = %invoke.cont.i.i612, %_ZNSt3__14endlB7v170000IcNS_11char_traitsIcEEEERNS_13basic_ostreamIT_T0_EES7_.exit602
  %38 = landingpad { ptr, i32 }
          cleanup
  call void @_ZNSt3__16localeD1Ev(ptr noundef nonnull align 8 dereferenceable(8) %ref.tmp.i.i603) #19
  call void @llvm.lifetime.end.p0(i64 8, ptr nonnull %ref.tmp.i.i603) #19
  br label %common.resume

_ZNSt3__14endlB7v170000IcNS_11char_traitsIcEEEERNS_13basic_ostreamIT_T0_EES7_.exit616: ; preds = %invoke.cont.i.i612
  call void @_ZNSt3__16localeD1Ev(ptr noundef nonnull align 8 dereferenceable(8) %ref.tmp.i.i603) #19
  call void @llvm.lifetime.end.p0(i64 8, ptr nonnull %ref.tmp.i.i603) #19
  %call1.i614 = call noundef nonnull align 8 dereferenceable(8) ptr @_ZNSt3__113basic_ostreamIcNS_11char_traitsIcEEE3putEc(ptr noundef nonnull align 8 dereferenceable(8) %call1.i307, i8 noundef signext %call.i6.i.i611)
  %call2.i615 = call noundef nonnull align 8 dereferenceable(8) ptr @_ZNSt3__113basic_ostreamIcNS_11char_traitsIcEEE5flushEv(ptr noundef nonnull align 8 dereferenceable(8) %call1.i307)
  %call1.i310 = call noundef nonnull align 8 dereferenceable(8) ptr @_ZNSt3__124__put_character_sequenceB7v170000IcNS_11char_traitsIcEEEERNS_13basic_ostreamIT_T0_EES7_PKS4_m(ptr noundef nonnull align 8 dereferenceable(8) %add.ptr25, ptr noundef nonnull @.str.9, i64 noundef 32)
  %39 = load i32, ptr %ndim, align 8, !tbaa !14
  %call49 = call noundef nonnull align 8 dereferenceable(8) ptr @_ZNSt3__113basic_ostreamIcNS_11char_traitsIcEEElsEi(ptr noundef nonnull align 8 dereferenceable(8) %call1.i310, i32 noundef %39)
  %vtable.i618 = load ptr, ptr %call49, align 8, !tbaa !35
  %vbase.offset.ptr.i619 = getelementptr i8, ptr %vtable.i618, i64 -24
  %vbase.offset.i620 = load i64, ptr %vbase.offset.ptr.i619, align 8
  %add.ptr.i621 = getelementptr inbounds i8, ptr %call49, i64 %vbase.offset.i620
  call void @llvm.lifetime.start.p0(i64 8, ptr nonnull %ref.tmp.i.i617) #19
  call void @_ZNKSt3__18ios_base6getlocEv(ptr nonnull sret(%"class.std::__1::locale") align 8 %ref.tmp.i.i617, ptr noundef nonnull align 8 dereferenceable(136) %add.ptr.i621)
  %call.i5.i.i622 = invoke noundef ptr @_ZNKSt3__16locale9use_facetERNS0_2idE(ptr noundef nonnull align 8 dereferenceable(8) %ref.tmp.i.i617, ptr noundef nonnull align 8 dereferenceable(12) @_ZNSt3__15ctypeIcE2idE)
          to label %invoke.cont.i.i626 unwind label %lpad.i.i627

invoke.cont.i.i626:                               ; preds = %_ZNSt3__14endlB7v170000IcNS_11char_traitsIcEEEERNS_13basic_ostreamIT_T0_EES7_.exit616
  %vtable.i.i.i623 = load ptr, ptr %call.i5.i.i622, align 8, !tbaa !35
  %vfn.i.i.i624 = getelementptr inbounds ptr, ptr %vtable.i.i.i623, i64 7
  %40 = load ptr, ptr %vfn.i.i.i624, align 8
  %call.i6.i.i625 = invoke noundef signext i8 %40(ptr noundef nonnull align 8 dereferenceable(25) %call.i5.i.i622, i8 noundef signext 10)
          to label %_ZNSt3__14endlB7v170000IcNS_11char_traitsIcEEEERNS_13basic_ostreamIT_T0_EES7_.exit630 unwind label %lpad.i.i627

lpad.i.i627:                                      ; preds = %invoke.cont.i.i626, %_ZNSt3__14endlB7v170000IcNS_11char_traitsIcEEEERNS_13basic_ostreamIT_T0_EES7_.exit616
  %41 = landingpad { ptr, i32 }
          cleanup
  call void @_ZNSt3__16localeD1Ev(ptr noundef nonnull align 8 dereferenceable(8) %ref.tmp.i.i617) #19
  call void @llvm.lifetime.end.p0(i64 8, ptr nonnull %ref.tmp.i.i617) #19
  br label %common.resume

_ZNSt3__14endlB7v170000IcNS_11char_traitsIcEEEERNS_13basic_ostreamIT_T0_EES7_.exit630: ; preds = %invoke.cont.i.i626
  call void @_ZNSt3__16localeD1Ev(ptr noundef nonnull align 8 dereferenceable(8) %ref.tmp.i.i617) #19
  call void @llvm.lifetime.end.p0(i64 8, ptr nonnull %ref.tmp.i.i617) #19
  %call1.i628 = call noundef nonnull align 8 dereferenceable(8) ptr @_ZNSt3__113basic_ostreamIcNS_11char_traitsIcEEE3putEc(ptr noundef nonnull align 8 dereferenceable(8) %call49, i8 noundef signext %call.i6.i.i625)
  %call2.i629 = call noundef nonnull align 8 dereferenceable(8) ptr @_ZNSt3__113basic_ostreamIcNS_11char_traitsIcEEE5flushEv(ptr noundef nonnull align 8 dereferenceable(8) %call49)
  %call1.i313 = call noundef nonnull align 8 dereferenceable(8) ptr @_ZNSt3__124__put_character_sequenceB7v170000IcNS_11char_traitsIcEEEERNS_13basic_ostreamIT_T0_EES7_PKS4_m(ptr noundef nonnull align 8 dereferenceable(8) %add.ptr25, ptr noundef nonnull @.str.10, i64 noundef 27)
  %call53 = call noundef nonnull align 8 dereferenceable(8) ptr @_ZNSt3__113basic_ostreamIcNS_11char_traitsIcEEElsEi(ptr noundef nonnull align 8 dereferenceable(8) %call1.i313, i32 noundef %conv20)
  %vtable.i632 = load ptr, ptr %call53, align 8, !tbaa !35
  %vbase.offset.ptr.i633 = getelementptr i8, ptr %vtable.i632, i64 -24
  %vbase.offset.i634 = load i64, ptr %vbase.offset.ptr.i633, align 8
  %add.ptr.i635 = getelementptr inbounds i8, ptr %call53, i64 %vbase.offset.i634
  call void @llvm.lifetime.start.p0(i64 8, ptr nonnull %ref.tmp.i.i631) #19
  call void @_ZNKSt3__18ios_base6getlocEv(ptr nonnull sret(%"class.std::__1::locale") align 8 %ref.tmp.i.i631, ptr noundef nonnull align 8 dereferenceable(136) %add.ptr.i635)
  %call.i5.i.i636 = invoke noundef ptr @_ZNKSt3__16locale9use_facetERNS0_2idE(ptr noundef nonnull align 8 dereferenceable(8) %ref.tmp.i.i631, ptr noundef nonnull align 8 dereferenceable(12) @_ZNSt3__15ctypeIcE2idE)
          to label %invoke.cont.i.i640 unwind label %lpad.i.i641

invoke.cont.i.i640:                               ; preds = %_ZNSt3__14endlB7v170000IcNS_11char_traitsIcEEEERNS_13basic_ostreamIT_T0_EES7_.exit630
  %vtable.i.i.i637 = load ptr, ptr %call.i5.i.i636, align 8, !tbaa !35
  %vfn.i.i.i638 = getelementptr inbounds ptr, ptr %vtable.i.i.i637, i64 7
  %42 = load ptr, ptr %vfn.i.i.i638, align 8
  %call.i6.i.i639 = invoke noundef signext i8 %42(ptr noundef nonnull align 8 dereferenceable(25) %call.i5.i.i636, i8 noundef signext 10)
          to label %_ZNSt3__14endlB7v170000IcNS_11char_traitsIcEEEERNS_13basic_ostreamIT_T0_EES7_.exit644 unwind label %lpad.i.i641

lpad.i.i641:                                      ; preds = %invoke.cont.i.i640, %_ZNSt3__14endlB7v170000IcNS_11char_traitsIcEEEERNS_13basic_ostreamIT_T0_EES7_.exit630
  %43 = landingpad { ptr, i32 }
          cleanup
  call void @_ZNSt3__16localeD1Ev(ptr noundef nonnull align 8 dereferenceable(8) %ref.tmp.i.i631) #19
  call void @llvm.lifetime.end.p0(i64 8, ptr nonnull %ref.tmp.i.i631) #19
  br label %common.resume

_ZNSt3__14endlB7v170000IcNS_11char_traitsIcEEEERNS_13basic_ostreamIT_T0_EES7_.exit644: ; preds = %invoke.cont.i.i640
  call void @_ZNSt3__16localeD1Ev(ptr noundef nonnull align 8 dereferenceable(8) %ref.tmp.i.i631) #19
  call void @llvm.lifetime.end.p0(i64 8, ptr nonnull %ref.tmp.i.i631) #19
  %call1.i642 = call noundef nonnull align 8 dereferenceable(8) ptr @_ZNSt3__113basic_ostreamIcNS_11char_traitsIcEEE3putEc(ptr noundef nonnull align 8 dereferenceable(8) %call53, i8 noundef signext %call.i6.i.i639)
  %call2.i643 = call noundef nonnull align 8 dereferenceable(8) ptr @_ZNSt3__113basic_ostreamIcNS_11char_traitsIcEEE5flushEv(ptr noundef nonnull align 8 dereferenceable(8) %call53)
  %lnum_ndim = getelementptr inbounds %"class.PP::Variable", ptr %this, i64 0, i32 4
  %44 = load i32, ptr %lnum_ndim, align 8, !tbaa !25
  %cmp55 = icmp sgt i32 %44, 0
  br i1 %cmp55, label %if.then56, label %if.end71

if.then56:                                        ; preds = %_ZNSt3__14endlB7v170000IcNS_11char_traitsIcEEEERNS_13basic_ostreamIT_T0_EES7_.exit644
  %call1.i316 = call noundef nonnull align 8 dereferenceable(8) ptr @_ZNSt3__124__put_character_sequenceB7v170000IcNS_11char_traitsIcEEEERNS_13basic_ostreamIT_T0_EES7_PKS4_m(ptr noundef nonnull align 8 dereferenceable(8) %add.ptr25, ptr noundef nonnull @.str.11, i64 noundef 23)
  %45 = load i32, ptr %lnum_ndim, align 8, !tbaa !25
  %call60 = call noundef nonnull align 8 dereferenceable(8) ptr @_ZNSt3__113basic_ostreamIcNS_11char_traitsIcEEElsEi(ptr noundef nonnull align 8 dereferenceable(8) %call1.i316, i32 noundef %45)
  %call1.i318 = call noundef nonnull align 8 dereferenceable(8) ptr @_ZNSt3__124__put_character_sequenceB7v170000IcNS_11char_traitsIcEEEERNS_13basic_ostreamIT_T0_EES7_PKS4_m(ptr noundef nonnull align 8 dereferenceable(8) %call60, ptr noundef nonnull @.str.4, i64 noundef 1)
  %vtable.i646 = load ptr, ptr %call1.i318, align 8, !tbaa !35
  %vbase.offset.ptr.i647 = getelementptr i8, ptr %vtable.i646, i64 -24
  %vbase.offset.i648 = load i64, ptr %vbase.offset.ptr.i647, align 8
  %add.ptr.i649 = getelementptr inbounds i8, ptr %call1.i318, i64 %vbase.offset.i648
  call void @llvm.lifetime.start.p0(i64 8, ptr nonnull %ref.tmp.i.i645) #19
  call void @_ZNKSt3__18ios_base6getlocEv(ptr nonnull sret(%"class.std::__1::locale") align 8 %ref.tmp.i.i645, ptr noundef nonnull align 8 dereferenceable(136) %add.ptr.i649)
  %call.i5.i.i650 = invoke noundef ptr @_ZNKSt3__16locale9use_facetERNS0_2idE(ptr noundef nonnull align 8 dereferenceable(8) %ref.tmp.i.i645, ptr noundef nonnull align 8 dereferenceable(12) @_ZNSt3__15ctypeIcE2idE)
          to label %invoke.cont.i.i654 unwind label %lpad.i.i655

invoke.cont.i.i654:                               ; preds = %if.then56
  %vtable.i.i.i651 = load ptr, ptr %call.i5.i.i650, align 8, !tbaa !35
  %vfn.i.i.i652 = getelementptr inbounds ptr, ptr %vtable.i.i.i651, i64 7
  %46 = load ptr, ptr %vfn.i.i.i652, align 8
  %call.i6.i.i653 = invoke noundef signext i8 %46(ptr noundef nonnull align 8 dereferenceable(25) %call.i5.i.i650, i8 noundef signext 10)
          to label %_ZNSt3__14endlB7v170000IcNS_11char_traitsIcEEEERNS_13basic_ostreamIT_T0_EES7_.exit658 unwind label %lpad.i.i655

lpad.i.i655:                                      ; preds = %invoke.cont.i.i654, %if.then56
  %47 = landingpad { ptr, i32 }
          cleanup
  call void @_ZNSt3__16localeD1Ev(ptr noundef nonnull align 8 dereferenceable(8) %ref.tmp.i.i645) #19
  call void @llvm.lifetime.end.p0(i64 8, ptr nonnull %ref.tmp.i.i645) #19
  br label %common.resume

_ZNSt3__14endlB7v170000IcNS_11char_traitsIcEEEERNS_13basic_ostreamIT_T0_EES7_.exit658: ; preds = %invoke.cont.i.i654
  call void @_ZNSt3__16localeD1Ev(ptr noundef nonnull align 8 dereferenceable(8) %ref.tmp.i.i645) #19
  call void @llvm.lifetime.end.p0(i64 8, ptr nonnull %ref.tmp.i.i645) #19
  %call1.i656 = call noundef nonnull align 8 dereferenceable(8) ptr @_ZNSt3__113basic_ostreamIcNS_11char_traitsIcEEE3putEc(ptr noundef nonnull align 8 dereferenceable(8) %call1.i318, i8 noundef signext %call.i6.i.i653)
  %call2.i657 = call noundef nonnull align 8 dereferenceable(8) ptr @_ZNSt3__113basic_ostreamIcNS_11char_traitsIcEEE5flushEv(ptr noundef nonnull align 8 dereferenceable(8) %call1.i318)
  %call1.i321 = call noundef nonnull align 8 dereferenceable(8) ptr @_ZNSt3__124__put_character_sequenceB7v170000IcNS_11char_traitsIcEEEERNS_13basic_ostreamIT_T0_EES7_PKS4_m(ptr noundef nonnull align 8 dereferenceable(8) %add.ptr25, ptr noundef nonnull @.str.5, i64 noundef 4)
  %48 = load i32, ptr %lnum_ndim, align 8, !tbaa !25
  %sub66 = add nsw i32 %48, -1
  %conv67 = sext i32 %sub66 to i64
  %49 = load i64, ptr %__start_.i273, align 8, !tbaa !37
  %add.i323 = add i64 %49, %conv67
  %50 = load ptr, ptr %__begin_.i.i275, align 8, !tbaa !45
  %div.i325 = udiv i64 %add.i323, 170
  %add.ptr.i326 = getelementptr inbounds ptr, ptr %50, i64 %div.i325
  %51 = load ptr, ptr %add.ptr.i326, align 8, !tbaa !13
  %rem.i327 = urem i64 %add.i323, 170
  %add.ptr2.i328 = getelementptr inbounds %"class.std::__1::basic_string", ptr %51, i64 %rem.i327
  %bf.load.i.i.i.i329 = load i8, ptr %add.ptr2.i328, align 8
  %bf.clear.i.i.i.i330 = and i8 %bf.load.i.i.i.i329, 1
  %tobool.i.not.i.i.i331 = icmp eq i8 %bf.clear.i.i.i.i330, 0
  %__data_.i.i.i.i332 = getelementptr inbounds %"struct.std::__1::basic_string<char>::__long", ptr %add.ptr2.i328, i64 0, i32 2
  %52 = load ptr, ptr %__data_.i.i.i.i332, align 8
  %__data_.i4.i.i.i333 = getelementptr inbounds %"struct.std::__1::basic_string<char>::__short", ptr %add.ptr2.i328, i64 0, i32 2
  %cond.i.i.i334 = select i1 %tobool.i.not.i.i.i331, ptr %__data_.i4.i.i.i333, ptr %52
  %__size_.i.i.i335 = getelementptr inbounds %"struct.std::__1::basic_string<char>::__long", ptr %add.ptr2.i328, i64 0, i32 1
  %53 = load i64, ptr %__size_.i.i.i335, align 8
  %bf.lshr.i.i.i336 = lshr i8 %bf.load.i.i.i.i329, 1
  %conv.i.i.i337 = zext i8 %bf.lshr.i.i.i336 to i64
  %cond.i.i338 = select i1 %tobool.i.not.i.i.i331, i64 %conv.i.i.i337, i64 %53
  %call2.i339 = call noundef nonnull align 8 dereferenceable(8) ptr @_ZNSt3__124__put_character_sequenceB7v170000IcNS_11char_traitsIcEEEERNS_13basic_ostreamIT_T0_EES7_PKS4_m(ptr noundef nonnull align 8 dereferenceable(8) %call1.i321, ptr noundef %cond.i.i.i334, i64 noundef %cond.i.i338)
  %vtable.i660 = load ptr, ptr %call2.i339, align 8, !tbaa !35
  %vbase.offset.ptr.i661 = getelementptr i8, ptr %vtable.i660, i64 -24
  %vbase.offset.i662 = load i64, ptr %vbase.offset.ptr.i661, align 8
  %add.ptr.i663 = getelementptr inbounds i8, ptr %call2.i339, i64 %vbase.offset.i662
  call void @llvm.lifetime.start.p0(i64 8, ptr nonnull %ref.tmp.i.i659) #19
  call void @_ZNKSt3__18ios_base6getlocEv(ptr nonnull sret(%"class.std::__1::locale") align 8 %ref.tmp.i.i659, ptr noundef nonnull align 8 dereferenceable(136) %add.ptr.i663)
  %call.i5.i.i664 = invoke noundef ptr @_ZNKSt3__16locale9use_facetERNS0_2idE(ptr noundef nonnull align 8 dereferenceable(8) %ref.tmp.i.i659, ptr noundef nonnull align 8 dereferenceable(12) @_ZNSt3__15ctypeIcE2idE)
          to label %invoke.cont.i.i668 unwind label %lpad.i.i669

invoke.cont.i.i668:                               ; preds = %_ZNSt3__14endlB7v170000IcNS_11char_traitsIcEEEERNS_13basic_ostreamIT_T0_EES7_.exit658
  %vtable.i.i.i665 = load ptr, ptr %call.i5.i.i664, align 8, !tbaa !35
  %vfn.i.i.i666 = getelementptr inbounds ptr, ptr %vtable.i.i.i665, i64 7
  %54 = load ptr, ptr %vfn.i.i.i666, align 8
  %call.i6.i.i667 = invoke noundef signext i8 %54(ptr noundef nonnull align 8 dereferenceable(25) %call.i5.i.i664, i8 noundef signext 10)
          to label %_ZNSt3__14endlB7v170000IcNS_11char_traitsIcEEEERNS_13basic_ostreamIT_T0_EES7_.exit672 unwind label %lpad.i.i669

lpad.i.i669:                                      ; preds = %invoke.cont.i.i668, %_ZNSt3__14endlB7v170000IcNS_11char_traitsIcEEEERNS_13basic_ostreamIT_T0_EES7_.exit658
  %55 = landingpad { ptr, i32 }
          cleanup
  call void @_ZNSt3__16localeD1Ev(ptr noundef nonnull align 8 dereferenceable(8) %ref.tmp.i.i659) #19
  call void @llvm.lifetime.end.p0(i64 8, ptr nonnull %ref.tmp.i.i659) #19
  br label %common.resume

_ZNSt3__14endlB7v170000IcNS_11char_traitsIcEEEERNS_13basic_ostreamIT_T0_EES7_.exit672: ; preds = %invoke.cont.i.i668
  call void @_ZNSt3__16localeD1Ev(ptr noundef nonnull align 8 dereferenceable(8) %ref.tmp.i.i659) #19
  call void @llvm.lifetime.end.p0(i64 8, ptr nonnull %ref.tmp.i.i659) #19
  %call1.i670 = call noundef nonnull align 8 dereferenceable(8) ptr @_ZNSt3__113basic_ostreamIcNS_11char_traitsIcEEE3putEc(ptr noundef nonnull align 8 dereferenceable(8) %call2.i339, i8 noundef signext %call.i6.i.i667)
  %call2.i671 = call noundef nonnull align 8 dereferenceable(8) ptr @_ZNSt3__113basic_ostreamIcNS_11char_traitsIcEEE5flushEv(ptr noundef nonnull align 8 dereferenceable(8) %call2.i339)
  br label %if.end71

if.end71:                                         ; preds = %_ZNSt3__14endlB7v170000IcNS_11char_traitsIcEEEERNS_13basic_ostreamIT_T0_EES7_.exit672, %_ZNSt3__14endlB7v170000IcNS_11char_traitsIcEEEERNS_13basic_ostreamIT_T0_EES7_.exit644
  store i32 2, ptr %ierr, align 4, !tbaa !32
  br label %cleanup.cont

if.else:                                          ; preds = %if.end
  store i32 %conv20, ptr %ndim, align 8, !tbaa !14
  %lnum_ndim74 = getelementptr inbounds %"class.PP::Variable", ptr %this, i64 0, i32 4
  store i32 %lnum, ptr %lnum_ndim74, align 8, !tbaa !25
  br label %if.end75

if.end75:                                         ; preds = %if.then21, %if.else
  %maxdim = getelementptr inbounds %"class.PP::Variable", ptr %this, i64 0, i32 5
  %__end_.i341 = getelementptr inbounds %"class.PP::Variable", ptr %this, i64 0, i32 5, i32 1
  %56 = load ptr, ptr %__end_.i341, align 8, !tbaa !30
  %57 = load ptr, ptr %maxdim, align 8, !tbaa !29
  %sub.ptr.lhs.cast.i342 = ptrtoint ptr %56 to i64
  %sub.ptr.rhs.cast.i343 = ptrtoint ptr %57 to i64
  %sub.ptr.sub.i344 = sub i64 %sub.ptr.lhs.cast.i342, %sub.ptr.rhs.cast.i343
  %58 = lshr exact i64 %sub.ptr.sub.i344, 2
  %conv77 = trunc i64 %58 to i32
  %cmp79 = icmp eq i32 %conv20, 0
  %cmp80 = icmp sgt i32 %conv77, 0
  %or.cond = and i1 %cmp79, %cmp80
  br i1 %or.cond, label %if.then81, label %if.end120

if.then81:                                        ; preds = %if.end75
  %add.ptr82 = getelementptr inbounds i8, ptr %serr, i64 16
  %vtable.i674 = load ptr, ptr %add.ptr82, align 8, !tbaa !35
  %vbase.offset.ptr.i675 = getelementptr i8, ptr %vtable.i674, i64 -24
  %vbase.offset.i676 = load i64, ptr %vbase.offset.ptr.i675, align 8
  %add.ptr.i677 = getelementptr inbounds i8, ptr %add.ptr82, i64 %vbase.offset.i676
  call void @llvm.lifetime.start.p0(i64 8, ptr nonnull %ref.tmp.i.i673) #19
  call void @_ZNKSt3__18ios_base6getlocEv(ptr nonnull sret(%"class.std::__1::locale") align 8 %ref.tmp.i.i673, ptr noundef nonnull align 8 dereferenceable(136) %add.ptr.i677)
  %call.i5.i.i678 = invoke noundef ptr @_ZNKSt3__16locale9use_facetERNS0_2idE(ptr noundef nonnull align 8 dereferenceable(8) %ref.tmp.i.i673, ptr noundef nonnull align 8 dereferenceable(12) @_ZNSt3__15ctypeIcE2idE)
          to label %invoke.cont.i.i682 unwind label %lpad.i.i683

invoke.cont.i.i682:                               ; preds = %if.then81
  %vtable.i.i.i679 = load ptr, ptr %call.i5.i.i678, align 8, !tbaa !35
  %vfn.i.i.i680 = getelementptr inbounds ptr, ptr %vtable.i.i.i679, i64 7
  %59 = load ptr, ptr %vfn.i.i.i680, align 8
  %call.i6.i.i681 = invoke noundef signext i8 %59(ptr noundef nonnull align 8 dereferenceable(25) %call.i5.i.i678, i8 noundef signext 10)
          to label %_ZNSt3__14endlB7v170000IcNS_11char_traitsIcEEEERNS_13basic_ostreamIT_T0_EES7_.exit686 unwind label %lpad.i.i683

lpad.i.i683:                                      ; preds = %invoke.cont.i.i682, %if.then81
  %60 = landingpad { ptr, i32 }
          cleanup
  call void @_ZNSt3__16localeD1Ev(ptr noundef nonnull align 8 dereferenceable(8) %ref.tmp.i.i673) #19
  call void @llvm.lifetime.end.p0(i64 8, ptr nonnull %ref.tmp.i.i673) #19
  br label %common.resume

_ZNSt3__14endlB7v170000IcNS_11char_traitsIcEEEERNS_13basic_ostreamIT_T0_EES7_.exit686: ; preds = %invoke.cont.i.i682
  call void @_ZNSt3__16localeD1Ev(ptr noundef nonnull align 8 dereferenceable(8) %ref.tmp.i.i673) #19
  call void @llvm.lifetime.end.p0(i64 8, ptr nonnull %ref.tmp.i.i673) #19
  %call1.i684 = call noundef nonnull align 8 dereferenceable(8) ptr @_ZNSt3__113basic_ostreamIcNS_11char_traitsIcEEE3putEc(ptr noundef nonnull align 8 dereferenceable(8) %add.ptr82, i8 noundef signext %call.i6.i.i681)
  %call2.i685 = call noundef nonnull align 8 dereferenceable(8) ptr @_ZNSt3__113basic_ostreamIcNS_11char_traitsIcEEE5flushEv(ptr noundef nonnull align 8 dereferenceable(8) %add.ptr82)
  %call1.i348 = call noundef nonnull align 8 dereferenceable(8) ptr @_ZNSt3__124__put_character_sequenceB7v170000IcNS_11char_traitsIcEEEERNS_13basic_ostreamIT_T0_EES7_PKS4_m(ptr noundef nonnull align 8 dereferenceable(8) %add.ptr82, ptr noundef nonnull @.str.3, i64 noundef 24)
  %call86 = call noundef nonnull align 8 dereferenceable(8) ptr @_ZNSt3__113basic_ostreamIcNS_11char_traitsIcEEElsEi(ptr noundef nonnull align 8 dereferenceable(8) %call1.i348, i32 noundef %file_lnum)
  %call1.i350 = call noundef nonnull align 8 dereferenceable(8) ptr @_ZNSt3__124__put_character_sequenceB7v170000IcNS_11char_traitsIcEEEERNS_13basic_ostreamIT_T0_EES7_PKS4_m(ptr noundef nonnull align 8 dereferenceable(8) %call86, ptr noundef nonnull @.str.4, i64 noundef 1)
  %vtable.i688 = load ptr, ptr %call1.i350, align 8, !tbaa !35
  %vbase.offset.ptr.i689 = getelementptr i8, ptr %vtable.i688, i64 -24
  %vbase.offset.i690 = load i64, ptr %vbase.offset.ptr.i689, align 8
  %add.ptr.i691 = getelementptr inbounds i8, ptr %call1.i350, i64 %vbase.offset.i690
  call void @llvm.lifetime.start.p0(i64 8, ptr nonnull %ref.tmp.i.i687) #19
  call void @_ZNKSt3__18ios_base6getlocEv(ptr nonnull sret(%"class.std::__1::locale") align 8 %ref.tmp.i.i687, ptr noundef nonnull align 8 dereferenceable(136) %add.ptr.i691)
  %call.i5.i.i692 = invoke noundef ptr @_ZNKSt3__16locale9use_facetERNS0_2idE(ptr noundef nonnull align 8 dereferenceable(8) %ref.tmp.i.i687, ptr noundef nonnull align 8 dereferenceable(12) @_ZNSt3__15ctypeIcE2idE)
          to label %invoke.cont.i.i696 unwind label %lpad.i.i697

invoke.cont.i.i696:                               ; preds = %_ZNSt3__14endlB7v170000IcNS_11char_traitsIcEEEERNS_13basic_ostreamIT_T0_EES7_.exit686
  %vtable.i.i.i693 = load ptr, ptr %call.i5.i.i692, align 8, !tbaa !35
  %vfn.i.i.i694 = getelementptr inbounds ptr, ptr %vtable.i.i.i693, i64 7
  %61 = load ptr, ptr %vfn.i.i.i694, align 8
  %call.i6.i.i695 = invoke noundef signext i8 %61(ptr noundef nonnull align 8 dereferenceable(25) %call.i5.i.i692, i8 noundef signext 10)
          to label %_ZNSt3__14endlB7v170000IcNS_11char_traitsIcEEEERNS_13basic_ostreamIT_T0_EES7_.exit700 unwind label %lpad.i.i697

lpad.i.i697:                                      ; preds = %invoke.cont.i.i696, %_ZNSt3__14endlB7v170000IcNS_11char_traitsIcEEEERNS_13basic_ostreamIT_T0_EES7_.exit686
  %62 = landingpad { ptr, i32 }
          cleanup
  call void @_ZNSt3__16localeD1Ev(ptr noundef nonnull align 8 dereferenceable(8) %ref.tmp.i.i687) #19
  call void @llvm.lifetime.end.p0(i64 8, ptr nonnull %ref.tmp.i.i687) #19
  br label %common.resume

_ZNSt3__14endlB7v170000IcNS_11char_traitsIcEEEERNS_13basic_ostreamIT_T0_EES7_.exit700: ; preds = %invoke.cont.i.i696
  call void @_ZNSt3__16localeD1Ev(ptr noundef nonnull align 8 dereferenceable(8) %ref.tmp.i.i687) #19
  call void @llvm.lifetime.end.p0(i64 8, ptr nonnull %ref.tmp.i.i687) #19
  %call1.i698 = call noundef nonnull align 8 dereferenceable(8) ptr @_ZNSt3__113basic_ostreamIcNS_11char_traitsIcEEE3putEc(ptr noundef nonnull align 8 dereferenceable(8) %call1.i350, i8 noundef signext %call.i6.i.i695)
  %call2.i699 = call noundef nonnull align 8 dereferenceable(8) ptr @_ZNSt3__113basic_ostreamIcNS_11char_traitsIcEEE5flushEv(ptr noundef nonnull align 8 dereferenceable(8) %call1.i350)
  %call1.i353 = call noundef nonnull align 8 dereferenceable(8) ptr @_ZNSt3__124__put_character_sequenceB7v170000IcNS_11char_traitsIcEEEERNS_13basic_ostreamIT_T0_EES7_PKS4_m(ptr noundef nonnull align 8 dereferenceable(8) %add.ptr82, ptr noundef nonnull @.str.5, i64 noundef 4)
  %sub91 = add nsw i32 %lnum, -1
  %conv92 = sext i32 %sub91 to i64
  %__start_.i354 = getelementptr inbounds %"class.std::__1::deque", ptr %lines, i64 0, i32 1
  %63 = load i64, ptr %__start_.i354, align 8, !tbaa !37
  %add.i355 = add i64 %63, %conv92
  %__begin_.i.i356 = getelementptr inbounds %"struct.std::__1::__split_buffer", ptr %lines, i64 0, i32 1
  %64 = load ptr, ptr %__begin_.i.i356, align 8, !tbaa !45
  %div.i357 = udiv i64 %add.i355, 170
  %add.ptr.i358 = getelementptr inbounds ptr, ptr %64, i64 %div.i357
  %65 = load ptr, ptr %add.ptr.i358, align 8, !tbaa !13
  %rem.i359 = urem i64 %add.i355, 170
  %add.ptr2.i360 = getelementptr inbounds %"class.std::__1::basic_string", ptr %65, i64 %rem.i359
  %bf.load.i.i.i.i361 = load i8, ptr %add.ptr2.i360, align 8
  %bf.clear.i.i.i.i362 = and i8 %bf.load.i.i.i.i361, 1
  %tobool.i.not.i.i.i363 = icmp eq i8 %bf.clear.i.i.i.i362, 0
  %__data_.i.i.i.i364 = getelementptr inbounds %"struct.std::__1::basic_string<char>::__long", ptr %add.ptr2.i360, i64 0, i32 2
  %66 = load ptr, ptr %__data_.i.i.i.i364, align 8
  %__data_.i4.i.i.i365 = getelementptr inbounds %"struct.std::__1::basic_string<char>::__short", ptr %add.ptr2.i360, i64 0, i32 2
  %cond.i.i.i366 = select i1 %tobool.i.not.i.i.i363, ptr %__data_.i4.i.i.i365, ptr %66
  %__size_.i.i.i367 = getelementptr inbounds %"struct.std::__1::basic_string<char>::__long", ptr %add.ptr2.i360, i64 0, i32 1
  %67 = load i64, ptr %__size_.i.i.i367, align 8
  %bf.lshr.i.i.i368 = lshr i8 %bf.load.i.i.i.i361, 1
  %conv.i.i.i369 = zext i8 %bf.lshr.i.i.i368 to i64
  %cond.i.i370 = select i1 %tobool.i.not.i.i.i363, i64 %conv.i.i.i369, i64 %67
  %call2.i371 = call noundef nonnull align 8 dereferenceable(8) ptr @_ZNSt3__124__put_character_sequenceB7v170000IcNS_11char_traitsIcEEEERNS_13basic_ostreamIT_T0_EES7_PKS4_m(ptr noundef nonnull align 8 dereferenceable(8) %call1.i353, ptr noundef %cond.i.i.i366, i64 noundef %cond.i.i370)
  %vtable.i702 = load ptr, ptr %call2.i371, align 8, !tbaa !35
  %vbase.offset.ptr.i703 = getelementptr i8, ptr %vtable.i702, i64 -24
  %vbase.offset.i704 = load i64, ptr %vbase.offset.ptr.i703, align 8
  %add.ptr.i705 = getelementptr inbounds i8, ptr %call2.i371, i64 %vbase.offset.i704
  call void @llvm.lifetime.start.p0(i64 8, ptr nonnull %ref.tmp.i.i701) #19
  call void @_ZNKSt3__18ios_base6getlocEv(ptr nonnull sret(%"class.std::__1::locale") align 8 %ref.tmp.i.i701, ptr noundef nonnull align 8 dereferenceable(136) %add.ptr.i705)
  %call.i5.i.i706 = invoke noundef ptr @_ZNKSt3__16locale9use_facetERNS0_2idE(ptr noundef nonnull align 8 dereferenceable(8) %ref.tmp.i.i701, ptr noundef nonnull align 8 dereferenceable(12) @_ZNSt3__15ctypeIcE2idE)
          to label %invoke.cont.i.i710 unwind label %lpad.i.i711

invoke.cont.i.i710:                               ; preds = %_ZNSt3__14endlB7v170000IcNS_11char_traitsIcEEEERNS_13basic_ostreamIT_T0_EES7_.exit700
  %vtable.i.i.i707 = load ptr, ptr %call.i5.i.i706, align 8, !tbaa !35
  %vfn.i.i.i708 = getelementptr inbounds ptr, ptr %vtable.i.i.i707, i64 7
  %68 = load ptr, ptr %vfn.i.i.i708, align 8
  %call.i6.i.i709 = invoke noundef signext i8 %68(ptr noundef nonnull align 8 dereferenceable(25) %call.i5.i.i706, i8 noundef signext 10)
          to label %_ZNSt3__14endlB7v170000IcNS_11char_traitsIcEEEERNS_13basic_ostreamIT_T0_EES7_.exit714 unwind label %lpad.i.i711

lpad.i.i711:                                      ; preds = %invoke.cont.i.i710, %_ZNSt3__14endlB7v170000IcNS_11char_traitsIcEEEERNS_13basic_ostreamIT_T0_EES7_.exit700
  %69 = landingpad { ptr, i32 }
          cleanup
  call void @_ZNSt3__16localeD1Ev(ptr noundef nonnull align 8 dereferenceable(8) %ref.tmp.i.i701) #19
  call void @llvm.lifetime.end.p0(i64 8, ptr nonnull %ref.tmp.i.i701) #19
  br label %common.resume

_ZNSt3__14endlB7v170000IcNS_11char_traitsIcEEEERNS_13basic_ostreamIT_T0_EES7_.exit714: ; preds = %invoke.cont.i.i710
  call void @_ZNSt3__16localeD1Ev(ptr noundef nonnull align 8 dereferenceable(8) %ref.tmp.i.i701) #19
  call void @llvm.lifetime.end.p0(i64 8, ptr nonnull %ref.tmp.i.i701) #19
  %call1.i712 = call noundef nonnull align 8 dereferenceable(8) ptr @_ZNSt3__113basic_ostreamIcNS_11char_traitsIcEEE3putEc(ptr noundef nonnull align 8 dereferenceable(8) %call2.i371, i8 noundef signext %call.i6.i.i709)
  %call2.i713 = call noundef nonnull align 8 dereferenceable(8) ptr @_ZNSt3__113basic_ostreamIcNS_11char_traitsIcEEE5flushEv(ptr noundef nonnull align 8 dereferenceable(8) %call2.i371)
  %call1.i374 = call noundef nonnull align 8 dereferenceable(8) ptr @_ZNSt3__124__put_character_sequenceB7v170000IcNS_11char_traitsIcEEEERNS_13basic_ostreamIT_T0_EES7_PKS4_m(ptr noundef nonnull align 8 dereferenceable(8) %add.ptr82, ptr noundef nonnull @.str.6, i64 noundef 9)
  %bf.load.i.i.i.i375 = load i8, ptr %fname, align 8
  %bf.clear.i.i.i.i376 = and i8 %bf.load.i.i.i.i375, 1
  %tobool.i.not.i.i.i377 = icmp eq i8 %bf.clear.i.i.i.i376, 0
  %__data_.i.i.i.i378 = getelementptr inbounds %"struct.std::__1::basic_string<char>::__long", ptr %fname, i64 0, i32 2
  %70 = load ptr, ptr %__data_.i.i.i.i378, align 8
  %__data_.i4.i.i.i379 = getelementptr inbounds %"struct.std::__1::basic_string<char>::__short", ptr %fname, i64 0, i32 2
  %cond.i.i.i380 = select i1 %tobool.i.not.i.i.i377, ptr %__data_.i4.i.i.i379, ptr %70
  %__size_.i.i.i381 = getelementptr inbounds %"struct.std::__1::basic_string<char>::__long", ptr %fname, i64 0, i32 1
  %71 = load i64, ptr %__size_.i.i.i381, align 8
  %bf.lshr.i.i.i382 = lshr i8 %bf.load.i.i.i.i375, 1
  %conv.i.i.i383 = zext i8 %bf.lshr.i.i.i382 to i64
  %cond.i.i384 = select i1 %tobool.i.not.i.i.i377, i64 %conv.i.i.i383, i64 %71
  %call2.i385 = call noundef nonnull align 8 dereferenceable(8) ptr @_ZNSt3__124__put_character_sequenceB7v170000IcNS_11char_traitsIcEEEERNS_13basic_ostreamIT_T0_EES7_PKS4_m(ptr noundef nonnull align 8 dereferenceable(8) %call1.i374, ptr noundef %cond.i.i.i380, i64 noundef %cond.i.i384)
  %vtable.i716 = load ptr, ptr %call2.i385, align 8, !tbaa !35
  %vbase.offset.ptr.i717 = getelementptr i8, ptr %vtable.i716, i64 -24
  %vbase.offset.i718 = load i64, ptr %vbase.offset.ptr.i717, align 8
  %add.ptr.i719 = getelementptr inbounds i8, ptr %call2.i385, i64 %vbase.offset.i718
  call void @llvm.lifetime.start.p0(i64 8, ptr nonnull %ref.tmp.i.i715) #19
  call void @_ZNKSt3__18ios_base6getlocEv(ptr nonnull sret(%"class.std::__1::locale") align 8 %ref.tmp.i.i715, ptr noundef nonnull align 8 dereferenceable(136) %add.ptr.i719)
  %call.i5.i.i720 = invoke noundef ptr @_ZNKSt3__16locale9use_facetERNS0_2idE(ptr noundef nonnull align 8 dereferenceable(8) %ref.tmp.i.i715, ptr noundef nonnull align 8 dereferenceable(12) @_ZNSt3__15ctypeIcE2idE)
          to label %invoke.cont.i.i724 unwind label %lpad.i.i725

invoke.cont.i.i724:                               ; preds = %_ZNSt3__14endlB7v170000IcNS_11char_traitsIcEEEERNS_13basic_ostreamIT_T0_EES7_.exit714
  %vtable.i.i.i721 = load ptr, ptr %call.i5.i.i720, align 8, !tbaa !35
  %vfn.i.i.i722 = getelementptr inbounds ptr, ptr %vtable.i.i.i721, i64 7
  %72 = load ptr, ptr %vfn.i.i.i722, align 8
  %call.i6.i.i723 = invoke noundef signext i8 %72(ptr noundef nonnull align 8 dereferenceable(25) %call.i5.i.i720, i8 noundef signext 10)
          to label %_ZNSt3__14endlB7v170000IcNS_11char_traitsIcEEEERNS_13basic_ostreamIT_T0_EES7_.exit728 unwind label %lpad.i.i725

lpad.i.i725:                                      ; preds = %invoke.cont.i.i724, %_ZNSt3__14endlB7v170000IcNS_11char_traitsIcEEEERNS_13basic_ostreamIT_T0_EES7_.exit714
  %73 = landingpad { ptr, i32 }
          cleanup
  call void @_ZNSt3__16localeD1Ev(ptr noundef nonnull align 8 dereferenceable(8) %ref.tmp.i.i715) #19
  call void @llvm.lifetime.end.p0(i64 8, ptr nonnull %ref.tmp.i.i715) #19
  br label %common.resume

_ZNSt3__14endlB7v170000IcNS_11char_traitsIcEEEERNS_13basic_ostreamIT_T0_EES7_.exit728: ; preds = %invoke.cont.i.i724
  call void @_ZNSt3__16localeD1Ev(ptr noundef nonnull align 8 dereferenceable(8) %ref.tmp.i.i715) #19
  call void @llvm.lifetime.end.p0(i64 8, ptr nonnull %ref.tmp.i.i715) #19
  %call1.i726 = call noundef nonnull align 8 dereferenceable(8) ptr @_ZNSt3__113basic_ostreamIcNS_11char_traitsIcEEE3putEc(ptr noundef nonnull align 8 dereferenceable(8) %call2.i385, i8 noundef signext %call.i6.i.i723)
  %call2.i727 = call noundef nonnull align 8 dereferenceable(8) ptr @_ZNSt3__113basic_ostreamIcNS_11char_traitsIcEEE5flushEv(ptr noundef nonnull align 8 dereferenceable(8) %call2.i385)
  %call1.i388 = call noundef nonnull align 8 dereferenceable(8) ptr @_ZNSt3__124__put_character_sequenceB7v170000IcNS_11char_traitsIcEEEERNS_13basic_ostreamIT_T0_EES7_PKS4_m(ptr noundef nonnull align 8 dereferenceable(8) %add.ptr82, ptr noundef nonnull @.str.12, i64 noundef 49)
  %vtable.i730 = load ptr, ptr %call1.i388, align 8, !tbaa !35
  %vbase.offset.ptr.i731 = getelementptr i8, ptr %vtable.i730, i64 -24
  %vbase.offset.i732 = load i64, ptr %vbase.offset.ptr.i731, align 8
  %add.ptr.i733 = getelementptr inbounds i8, ptr %call1.i388, i64 %vbase.offset.i732
  call void @llvm.lifetime.start.p0(i64 8, ptr nonnull %ref.tmp.i.i729) #19
  call void @_ZNKSt3__18ios_base6getlocEv(ptr nonnull sret(%"class.std::__1::locale") align 8 %ref.tmp.i.i729, ptr noundef nonnull align 8 dereferenceable(136) %add.ptr.i733)
  %call.i5.i.i734 = invoke noundef ptr @_ZNKSt3__16locale9use_facetERNS0_2idE(ptr noundef nonnull align 8 dereferenceable(8) %ref.tmp.i.i729, ptr noundef nonnull align 8 dereferenceable(12) @_ZNSt3__15ctypeIcE2idE)
          to label %invoke.cont.i.i738 unwind label %lpad.i.i739

invoke.cont.i.i738:                               ; preds = %_ZNSt3__14endlB7v170000IcNS_11char_traitsIcEEEERNS_13basic_ostreamIT_T0_EES7_.exit728
  %vtable.i.i.i735 = load ptr, ptr %call.i5.i.i734, align 8, !tbaa !35
  %vfn.i.i.i736 = getelementptr inbounds ptr, ptr %vtable.i.i.i735, i64 7
  %74 = load ptr, ptr %vfn.i.i.i736, align 8
  %call.i6.i.i737 = invoke noundef signext i8 %74(ptr noundef nonnull align 8 dereferenceable(25) %call.i5.i.i734, i8 noundef signext 10)
          to label %_ZNSt3__14endlB7v170000IcNS_11char_traitsIcEEEERNS_13basic_ostreamIT_T0_EES7_.exit742 unwind label %lpad.i.i739

lpad.i.i739:                                      ; preds = %invoke.cont.i.i738, %_ZNSt3__14endlB7v170000IcNS_11char_traitsIcEEEERNS_13basic_ostreamIT_T0_EES7_.exit728
  %75 = landingpad { ptr, i32 }
          cleanup
  call void @_ZNSt3__16localeD1Ev(ptr noundef nonnull align 8 dereferenceable(8) %ref.tmp.i.i729) #19
  call void @llvm.lifetime.end.p0(i64 8, ptr nonnull %ref.tmp.i.i729) #19
  br label %common.resume

_ZNSt3__14endlB7v170000IcNS_11char_traitsIcEEEERNS_13basic_ostreamIT_T0_EES7_.exit742: ; preds = %invoke.cont.i.i738
  call void @_ZNSt3__16localeD1Ev(ptr noundef nonnull align 8 dereferenceable(8) %ref.tmp.i.i729) #19
  call void @llvm.lifetime.end.p0(i64 8, ptr nonnull %ref.tmp.i.i729) #19
  %call1.i740 = call noundef nonnull align 8 dereferenceable(8) ptr @_ZNSt3__113basic_ostreamIcNS_11char_traitsIcEEE3putEc(ptr noundef nonnull align 8 dereferenceable(8) %call1.i388, i8 noundef signext %call.i6.i.i737)
  %call2.i741 = call noundef nonnull align 8 dereferenceable(8) ptr @_ZNSt3__113basic_ostreamIcNS_11char_traitsIcEEE5flushEv(ptr noundef nonnull align 8 dereferenceable(8) %call1.i388)
  %lnum_bounds = getelementptr inbounds %"class.PP::Variable", ptr %this, i64 0, i32 3
  %76 = load i32, ptr %lnum_bounds, align 4, !tbaa !26
  %cmp103 = icmp sgt i32 %76, 0
  br i1 %cmp103, label %if.then104, label %if.end119

if.then104:                                       ; preds = %_ZNSt3__14endlB7v170000IcNS_11char_traitsIcEEEERNS_13basic_ostreamIT_T0_EES7_.exit742
  %call1.i391 = call noundef nonnull align 8 dereferenceable(8) ptr @_ZNSt3__124__put_character_sequenceB7v170000IcNS_11char_traitsIcEEEERNS_13basic_ostreamIT_T0_EES7_PKS4_m(ptr noundef nonnull align 8 dereferenceable(8) %add.ptr82, ptr noundef nonnull @.str.13, i64 noundef 34)
  %77 = load i32, ptr %lnum_bounds, align 4, !tbaa !26
  %call108 = call noundef nonnull align 8 dereferenceable(8) ptr @_ZNSt3__113basic_ostreamIcNS_11char_traitsIcEEElsEi(ptr noundef nonnull align 8 dereferenceable(8) %call1.i391, i32 noundef %77)
  %call1.i393 = call noundef nonnull align 8 dereferenceable(8) ptr @_ZNSt3__124__put_character_sequenceB7v170000IcNS_11char_traitsIcEEEERNS_13basic_ostreamIT_T0_EES7_PKS4_m(ptr noundef nonnull align 8 dereferenceable(8) %call108, ptr noundef nonnull @.str.4, i64 noundef 1)
  %vtable.i744 = load ptr, ptr %call1.i393, align 8, !tbaa !35
  %vbase.offset.ptr.i745 = getelementptr i8, ptr %vtable.i744, i64 -24
  %vbase.offset.i746 = load i64, ptr %vbase.offset.ptr.i745, align 8
  %add.ptr.i747 = getelementptr inbounds i8, ptr %call1.i393, i64 %vbase.offset.i746
  call void @llvm.lifetime.start.p0(i64 8, ptr nonnull %ref.tmp.i.i743) #19
  call void @_ZNKSt3__18ios_base6getlocEv(ptr nonnull sret(%"class.std::__1::locale") align 8 %ref.tmp.i.i743, ptr noundef nonnull align 8 dereferenceable(136) %add.ptr.i747)
  %call.i5.i.i748 = invoke noundef ptr @_ZNKSt3__16locale9use_facetERNS0_2idE(ptr noundef nonnull align 8 dereferenceable(8) %ref.tmp.i.i743, ptr noundef nonnull align 8 dereferenceable(12) @_ZNSt3__15ctypeIcE2idE)
          to label %invoke.cont.i.i752 unwind label %lpad.i.i753

invoke.cont.i.i752:                               ; preds = %if.then104
  %vtable.i.i.i749 = load ptr, ptr %call.i5.i.i748, align 8, !tbaa !35
  %vfn.i.i.i750 = getelementptr inbounds ptr, ptr %vtable.i.i.i749, i64 7
  %78 = load ptr, ptr %vfn.i.i.i750, align 8
  %call.i6.i.i751 = invoke noundef signext i8 %78(ptr noundef nonnull align 8 dereferenceable(25) %call.i5.i.i748, i8 noundef signext 10)
          to label %_ZNSt3__14endlB7v170000IcNS_11char_traitsIcEEEERNS_13basic_ostreamIT_T0_EES7_.exit756 unwind label %lpad.i.i753

lpad.i.i753:                                      ; preds = %invoke.cont.i.i752, %if.then104
  %79 = landingpad { ptr, i32 }
          cleanup
  call void @_ZNSt3__16localeD1Ev(ptr noundef nonnull align 8 dereferenceable(8) %ref.tmp.i.i743) #19
  call void @llvm.lifetime.end.p0(i64 8, ptr nonnull %ref.tmp.i.i743) #19
  br label %common.resume

_ZNSt3__14endlB7v170000IcNS_11char_traitsIcEEEERNS_13basic_ostreamIT_T0_EES7_.exit756: ; preds = %invoke.cont.i.i752
  call void @_ZNSt3__16localeD1Ev(ptr noundef nonnull align 8 dereferenceable(8) %ref.tmp.i.i743) #19
  call void @llvm.lifetime.end.p0(i64 8, ptr nonnull %ref.tmp.i.i743) #19
  %call1.i754 = call noundef nonnull align 8 dereferenceable(8) ptr @_ZNSt3__113basic_ostreamIcNS_11char_traitsIcEEE3putEc(ptr noundef nonnull align 8 dereferenceable(8) %call1.i393, i8 noundef signext %call.i6.i.i751)
  %call2.i755 = call noundef nonnull align 8 dereferenceable(8) ptr @_ZNSt3__113basic_ostreamIcNS_11char_traitsIcEEE5flushEv(ptr noundef nonnull align 8 dereferenceable(8) %call1.i393)
  %call1.i396 = call noundef nonnull align 8 dereferenceable(8) ptr @_ZNSt3__124__put_character_sequenceB7v170000IcNS_11char_traitsIcEEEERNS_13basic_ostreamIT_T0_EES7_PKS4_m(ptr noundef nonnull align 8 dereferenceable(8) %add.ptr82, ptr noundef nonnull @.str.5, i64 noundef 4)
  %80 = load i32, ptr %lnum_bounds, align 4, !tbaa !26
  %sub114 = add nsw i32 %80, -1
  %conv115 = sext i32 %sub114 to i64
  %81 = load i64, ptr %__start_.i354, align 8, !tbaa !37
  %add.i398 = add i64 %81, %conv115
  %82 = load ptr, ptr %__begin_.i.i356, align 8, !tbaa !45
  %div.i400 = udiv i64 %add.i398, 170
  %add.ptr.i401 = getelementptr inbounds ptr, ptr %82, i64 %div.i400
  %83 = load ptr, ptr %add.ptr.i401, align 8, !tbaa !13
  %rem.i402 = urem i64 %add.i398, 170
  %add.ptr2.i403 = getelementptr inbounds %"class.std::__1::basic_string", ptr %83, i64 %rem.i402
  %bf.load.i.i.i.i404 = load i8, ptr %add.ptr2.i403, align 8
  %bf.clear.i.i.i.i405 = and i8 %bf.load.i.i.i.i404, 1
  %tobool.i.not.i.i.i406 = icmp eq i8 %bf.clear.i.i.i.i405, 0
  %__data_.i.i.i.i407 = getelementptr inbounds %"struct.std::__1::basic_string<char>::__long", ptr %add.ptr2.i403, i64 0, i32 2
  %84 = load ptr, ptr %__data_.i.i.i.i407, align 8
  %__data_.i4.i.i.i408 = getelementptr inbounds %"struct.std::__1::basic_string<char>::__short", ptr %add.ptr2.i403, i64 0, i32 2
  %cond.i.i.i409 = select i1 %tobool.i.not.i.i.i406, ptr %__data_.i4.i.i.i408, ptr %84
  %__size_.i.i.i410 = getelementptr inbounds %"struct.std::__1::basic_string<char>::__long", ptr %add.ptr2.i403, i64 0, i32 1
  %85 = load i64, ptr %__size_.i.i.i410, align 8
  %bf.lshr.i.i.i411 = lshr i8 %bf.load.i.i.i.i404, 1
  %conv.i.i.i412 = zext i8 %bf.lshr.i.i.i411 to i64
  %cond.i.i413 = select i1 %tobool.i.not.i.i.i406, i64 %conv.i.i.i412, i64 %85
  %call2.i414 = call noundef nonnull align 8 dereferenceable(8) ptr @_ZNSt3__124__put_character_sequenceB7v170000IcNS_11char_traitsIcEEEERNS_13basic_ostreamIT_T0_EES7_PKS4_m(ptr noundef nonnull align 8 dereferenceable(8) %call1.i396, ptr noundef %cond.i.i.i409, i64 noundef %cond.i.i413)
  %vtable.i758 = load ptr, ptr %call2.i414, align 8, !tbaa !35
  %vbase.offset.ptr.i759 = getelementptr i8, ptr %vtable.i758, i64 -24
  %vbase.offset.i760 = load i64, ptr %vbase.offset.ptr.i759, align 8
  %add.ptr.i761 = getelementptr inbounds i8, ptr %call2.i414, i64 %vbase.offset.i760
  call void @llvm.lifetime.start.p0(i64 8, ptr nonnull %ref.tmp.i.i757) #19
  call void @_ZNKSt3__18ios_base6getlocEv(ptr nonnull sret(%"class.std::__1::locale") align 8 %ref.tmp.i.i757, ptr noundef nonnull align 8 dereferenceable(136) %add.ptr.i761)
  %call.i5.i.i762 = invoke noundef ptr @_ZNKSt3__16locale9use_facetERNS0_2idE(ptr noundef nonnull align 8 dereferenceable(8) %ref.tmp.i.i757, ptr noundef nonnull align 8 dereferenceable(12) @_ZNSt3__15ctypeIcE2idE)
          to label %invoke.cont.i.i766 unwind label %lpad.i.i767

invoke.cont.i.i766:                               ; preds = %_ZNSt3__14endlB7v170000IcNS_11char_traitsIcEEEERNS_13basic_ostreamIT_T0_EES7_.exit756
  %vtable.i.i.i763 = load ptr, ptr %call.i5.i.i762, align 8, !tbaa !35
  %vfn.i.i.i764 = getelementptr inbounds ptr, ptr %vtable.i.i.i763, i64 7
  %86 = load ptr, ptr %vfn.i.i.i764, align 8
  %call.i6.i.i765 = invoke noundef signext i8 %86(ptr noundef nonnull align 8 dereferenceable(25) %call.i5.i.i762, i8 noundef signext 10)
          to label %_ZNSt3__14endlB7v170000IcNS_11char_traitsIcEEEERNS_13basic_ostreamIT_T0_EES7_.exit770 unwind label %lpad.i.i767

lpad.i.i767:                                      ; preds = %invoke.cont.i.i766, %_ZNSt3__14endlB7v170000IcNS_11char_traitsIcEEEERNS_13basic_ostreamIT_T0_EES7_.exit756
  %87 = landingpad { ptr, i32 }
          cleanup
  call void @_ZNSt3__16localeD1Ev(ptr noundef nonnull align 8 dereferenceable(8) %ref.tmp.i.i757) #19
  call void @llvm.lifetime.end.p0(i64 8, ptr nonnull %ref.tmp.i.i757) #19
  br label %common.resume

_ZNSt3__14endlB7v170000IcNS_11char_traitsIcEEEERNS_13basic_ostreamIT_T0_EES7_.exit770: ; preds = %invoke.cont.i.i766
  call void @_ZNSt3__16localeD1Ev(ptr noundef nonnull align 8 dereferenceable(8) %ref.tmp.i.i757) #19
  call void @llvm.lifetime.end.p0(i64 8, ptr nonnull %ref.tmp.i.i757) #19
  %call1.i768 = call noundef nonnull align 8 dereferenceable(8) ptr @_ZNSt3__113basic_ostreamIcNS_11char_traitsIcEEE3putEc(ptr noundef nonnull align 8 dereferenceable(8) %call2.i414, i8 noundef signext %call.i6.i.i765)
  %call2.i769 = call noundef nonnull align 8 dereferenceable(8) ptr @_ZNSt3__113basic_ostreamIcNS_11char_traitsIcEEE5flushEv(ptr noundef nonnull align 8 dereferenceable(8) %call2.i414)
  br label %if.end119

if.end119:                                        ; preds = %_ZNSt3__14endlB7v170000IcNS_11char_traitsIcEEEERNS_13basic_ostreamIT_T0_EES7_.exit770, %_ZNSt3__14endlB7v170000IcNS_11char_traitsIcEEEERNS_13basic_ostreamIT_T0_EES7_.exit742
  store i32 2, ptr %ierr, align 4, !tbaa !32
  br label %cleanup.cont

if.end120:                                        ; preds = %if.end75
  %cmp122 = icmp sgt i32 %conv20, 0
  br i1 %cmp122, label %if.then123, label %if.end159

if.then123:                                       ; preds = %if.end120
  %add = add nsw i32 %conv77, 1
  %cmp125.not = icmp eq i32 %add, %conv20
  br i1 %cmp125.not, label %if.end159, label %if.then126

if.then126:                                       ; preds = %if.then123
  %add.ptr127 = getelementptr inbounds i8, ptr %serr, i64 16
  %vtable.i772 = load ptr, ptr %add.ptr127, align 8, !tbaa !35
  %vbase.offset.ptr.i773 = getelementptr i8, ptr %vtable.i772, i64 -24
  %vbase.offset.i774 = load i64, ptr %vbase.offset.ptr.i773, align 8
  %add.ptr.i775 = getelementptr inbounds i8, ptr %add.ptr127, i64 %vbase.offset.i774
  call void @llvm.lifetime.start.p0(i64 8, ptr nonnull %ref.tmp.i.i771) #19
  call void @_ZNKSt3__18ios_base6getlocEv(ptr nonnull sret(%"class.std::__1::locale") align 8 %ref.tmp.i.i771, ptr noundef nonnull align 8 dereferenceable(136) %add.ptr.i775)
  %call.i5.i.i776 = invoke noundef ptr @_ZNKSt3__16locale9use_facetERNS0_2idE(ptr noundef nonnull align 8 dereferenceable(8) %ref.tmp.i.i771, ptr noundef nonnull align 8 dereferenceable(12) @_ZNSt3__15ctypeIcE2idE)
          to label %invoke.cont.i.i780 unwind label %lpad.i.i781

invoke.cont.i.i780:                               ; preds = %if.then126
  %vtable.i.i.i777 = load ptr, ptr %call.i5.i.i776, align 8, !tbaa !35
  %vfn.i.i.i778 = getelementptr inbounds ptr, ptr %vtable.i.i.i777, i64 7
  %88 = load ptr, ptr %vfn.i.i.i778, align 8
  %call.i6.i.i779 = invoke noundef signext i8 %88(ptr noundef nonnull align 8 dereferenceable(25) %call.i5.i.i776, i8 noundef signext 10)
          to label %_ZNSt3__14endlB7v170000IcNS_11char_traitsIcEEEERNS_13basic_ostreamIT_T0_EES7_.exit784 unwind label %lpad.i.i781

lpad.i.i781:                                      ; preds = %invoke.cont.i.i780, %if.then126
  %89 = landingpad { ptr, i32 }
          cleanup
  call void @_ZNSt3__16localeD1Ev(ptr noundef nonnull align 8 dereferenceable(8) %ref.tmp.i.i771) #19
  call void @llvm.lifetime.end.p0(i64 8, ptr nonnull %ref.tmp.i.i771) #19
  br label %common.resume

_ZNSt3__14endlB7v170000IcNS_11char_traitsIcEEEERNS_13basic_ostreamIT_T0_EES7_.exit784: ; preds = %invoke.cont.i.i780
  call void @_ZNSt3__16localeD1Ev(ptr noundef nonnull align 8 dereferenceable(8) %ref.tmp.i.i771) #19
  call void @llvm.lifetime.end.p0(i64 8, ptr nonnull %ref.tmp.i.i771) #19
  %call1.i782 = call noundef nonnull align 8 dereferenceable(8) ptr @_ZNSt3__113basic_ostreamIcNS_11char_traitsIcEEE3putEc(ptr noundef nonnull align 8 dereferenceable(8) %add.ptr127, i8 noundef signext %call.i6.i.i779)
  %call2.i783 = call noundef nonnull align 8 dereferenceable(8) ptr @_ZNSt3__113basic_ostreamIcNS_11char_traitsIcEEE5flushEv(ptr noundef nonnull align 8 dereferenceable(8) %add.ptr127)
  %call1.i418 = call noundef nonnull align 8 dereferenceable(8) ptr @_ZNSt3__124__put_character_sequenceB7v170000IcNS_11char_traitsIcEEEERNS_13basic_ostreamIT_T0_EES7_PKS4_m(ptr noundef nonnull align 8 dereferenceable(8) %add.ptr127, ptr noundef nonnull @.str.3, i64 noundef 24)
  %call131 = call noundef nonnull align 8 dereferenceable(8) ptr @_ZNSt3__113basic_ostreamIcNS_11char_traitsIcEEElsEi(ptr noundef nonnull align 8 dereferenceable(8) %call1.i418, i32 noundef %file_lnum)
  %call1.i420 = call noundef nonnull align 8 dereferenceable(8) ptr @_ZNSt3__124__put_character_sequenceB7v170000IcNS_11char_traitsIcEEEERNS_13basic_ostreamIT_T0_EES7_PKS4_m(ptr noundef nonnull align 8 dereferenceable(8) %call131, ptr noundef nonnull @.str.4, i64 noundef 1)
  %vtable.i786 = load ptr, ptr %call1.i420, align 8, !tbaa !35
  %vbase.offset.ptr.i787 = getelementptr i8, ptr %vtable.i786, i64 -24
  %vbase.offset.i788 = load i64, ptr %vbase.offset.ptr.i787, align 8
  %add.ptr.i789 = getelementptr inbounds i8, ptr %call1.i420, i64 %vbase.offset.i788
  call void @llvm.lifetime.start.p0(i64 8, ptr nonnull %ref.tmp.i.i785) #19
  call void @_ZNKSt3__18ios_base6getlocEv(ptr nonnull sret(%"class.std::__1::locale") align 8 %ref.tmp.i.i785, ptr noundef nonnull align 8 dereferenceable(136) %add.ptr.i789)
  %call.i5.i.i790 = invoke noundef ptr @_ZNKSt3__16locale9use_facetERNS0_2idE(ptr noundef nonnull align 8 dereferenceable(8) %ref.tmp.i.i785, ptr noundef nonnull align 8 dereferenceable(12) @_ZNSt3__15ctypeIcE2idE)
          to label %invoke.cont.i.i794 unwind label %lpad.i.i795

invoke.cont.i.i794:                               ; preds = %_ZNSt3__14endlB7v170000IcNS_11char_traitsIcEEEERNS_13basic_ostreamIT_T0_EES7_.exit784
  %vtable.i.i.i791 = load ptr, ptr %call.i5.i.i790, align 8, !tbaa !35
  %vfn.i.i.i792 = getelementptr inbounds ptr, ptr %vtable.i.i.i791, i64 7
  %90 = load ptr, ptr %vfn.i.i.i792, align 8
  %call.i6.i.i793 = invoke noundef signext i8 %90(ptr noundef nonnull align 8 dereferenceable(25) %call.i5.i.i790, i8 noundef signext 10)
          to label %_ZNSt3__14endlB7v170000IcNS_11char_traitsIcEEEERNS_13basic_ostreamIT_T0_EES7_.exit798 unwind label %lpad.i.i795

lpad.i.i795:                                      ; preds = %invoke.cont.i.i794, %_ZNSt3__14endlB7v170000IcNS_11char_traitsIcEEEERNS_13basic_ostreamIT_T0_EES7_.exit784
  %91 = landingpad { ptr, i32 }
          cleanup
  call void @_ZNSt3__16localeD1Ev(ptr noundef nonnull align 8 dereferenceable(8) %ref.tmp.i.i785) #19
  call void @llvm.lifetime.end.p0(i64 8, ptr nonnull %ref.tmp.i.i785) #19
  br label %common.resume

_ZNSt3__14endlB7v170000IcNS_11char_traitsIcEEEERNS_13basic_ostreamIT_T0_EES7_.exit798: ; preds = %invoke.cont.i.i794
  call void @_ZNSt3__16localeD1Ev(ptr noundef nonnull align 8 dereferenceable(8) %ref.tmp.i.i785) #19
  call void @llvm.lifetime.end.p0(i64 8, ptr nonnull %ref.tmp.i.i785) #19
  %call1.i796 = call noundef nonnull align 8 dereferenceable(8) ptr @_ZNSt3__113basic_ostreamIcNS_11char_traitsIcEEE3putEc(ptr noundef nonnull align 8 dereferenceable(8) %call1.i420, i8 noundef signext %call.i6.i.i793)
  %call2.i797 = call noundef nonnull align 8 dereferenceable(8) ptr @_ZNSt3__113basic_ostreamIcNS_11char_traitsIcEEE5flushEv(ptr noundef nonnull align 8 dereferenceable(8) %call1.i420)
  %call1.i423 = call noundef nonnull align 8 dereferenceable(8) ptr @_ZNSt3__124__put_character_sequenceB7v170000IcNS_11char_traitsIcEEEERNS_13basic_ostreamIT_T0_EES7_PKS4_m(ptr noundef nonnull align 8 dereferenceable(8) %add.ptr127, ptr noundef nonnull @.str.5, i64 noundef 4)
  %sub136 = add nsw i32 %lnum, -1
  %conv137 = sext i32 %sub136 to i64
  %__start_.i424 = getelementptr inbounds %"class.std::__1::deque", ptr %lines, i64 0, i32 1
  %92 = load i64, ptr %__start_.i424, align 8, !tbaa !37
  %add.i425 = add i64 %92, %conv137
  %__begin_.i.i426 = getelementptr inbounds %"struct.std::__1::__split_buffer", ptr %lines, i64 0, i32 1
  %93 = load ptr, ptr %__begin_.i.i426, align 8, !tbaa !45
  %div.i427 = udiv i64 %add.i425, 170
  %add.ptr.i428 = getelementptr inbounds ptr, ptr %93, i64 %div.i427
  %94 = load ptr, ptr %add.ptr.i428, align 8, !tbaa !13
  %rem.i429 = urem i64 %add.i425, 170
  %add.ptr2.i430 = getelementptr inbounds %"class.std::__1::basic_string", ptr %94, i64 %rem.i429
  %bf.load.i.i.i.i431 = load i8, ptr %add.ptr2.i430, align 8
  %bf.clear.i.i.i.i432 = and i8 %bf.load.i.i.i.i431, 1
  %tobool.i.not.i.i.i433 = icmp eq i8 %bf.clear.i.i.i.i432, 0
  %__data_.i.i.i.i434 = getelementptr inbounds %"struct.std::__1::basic_string<char>::__long", ptr %add.ptr2.i430, i64 0, i32 2
  %95 = load ptr, ptr %__data_.i.i.i.i434, align 8
  %__data_.i4.i.i.i435 = getelementptr inbounds %"struct.std::__1::basic_string<char>::__short", ptr %add.ptr2.i430, i64 0, i32 2
  %cond.i.i.i436 = select i1 %tobool.i.not.i.i.i433, ptr %__data_.i4.i.i.i435, ptr %95
  %__size_.i.i.i437 = getelementptr inbounds %"struct.std::__1::basic_string<char>::__long", ptr %add.ptr2.i430, i64 0, i32 1
  %96 = load i64, ptr %__size_.i.i.i437, align 8
  %bf.lshr.i.i.i438 = lshr i8 %bf.load.i.i.i.i431, 1
  %conv.i.i.i439 = zext i8 %bf.lshr.i.i.i438 to i64
  %cond.i.i440 = select i1 %tobool.i.not.i.i.i433, i64 %conv.i.i.i439, i64 %96
  %call2.i441 = call noundef nonnull align 8 dereferenceable(8) ptr @_ZNSt3__124__put_character_sequenceB7v170000IcNS_11char_traitsIcEEEERNS_13basic_ostreamIT_T0_EES7_PKS4_m(ptr noundef nonnull align 8 dereferenceable(8) %call1.i423, ptr noundef %cond.i.i.i436, i64 noundef %cond.i.i440)
  %vtable.i800 = load ptr, ptr %call2.i441, align 8, !tbaa !35
  %vbase.offset.ptr.i801 = getelementptr i8, ptr %vtable.i800, i64 -24
  %vbase.offset.i802 = load i64, ptr %vbase.offset.ptr.i801, align 8
  %add.ptr.i803 = getelementptr inbounds i8, ptr %call2.i441, i64 %vbase.offset.i802
  call void @llvm.lifetime.start.p0(i64 8, ptr nonnull %ref.tmp.i.i799) #19
  call void @_ZNKSt3__18ios_base6getlocEv(ptr nonnull sret(%"class.std::__1::locale") align 8 %ref.tmp.i.i799, ptr noundef nonnull align 8 dereferenceable(136) %add.ptr.i803)
  %call.i5.i.i804 = invoke noundef ptr @_ZNKSt3__16locale9use_facetERNS0_2idE(ptr noundef nonnull align 8 dereferenceable(8) %ref.tmp.i.i799, ptr noundef nonnull align 8 dereferenceable(12) @_ZNSt3__15ctypeIcE2idE)
          to label %invoke.cont.i.i808 unwind label %lpad.i.i809

invoke.cont.i.i808:                               ; preds = %_ZNSt3__14endlB7v170000IcNS_11char_traitsIcEEEERNS_13basic_ostreamIT_T0_EES7_.exit798
  %vtable.i.i.i805 = load ptr, ptr %call.i5.i.i804, align 8, !tbaa !35
  %vfn.i.i.i806 = getelementptr inbounds ptr, ptr %vtable.i.i.i805, i64 7
  %97 = load ptr, ptr %vfn.i.i.i806, align 8
  %call.i6.i.i807 = invoke noundef signext i8 %97(ptr noundef nonnull align 8 dereferenceable(25) %call.i5.i.i804, i8 noundef signext 10)
          to label %_ZNSt3__14endlB7v170000IcNS_11char_traitsIcEEEERNS_13basic_ostreamIT_T0_EES7_.exit812 unwind label %lpad.i.i809

lpad.i.i809:                                      ; preds = %invoke.cont.i.i808, %_ZNSt3__14endlB7v170000IcNS_11char_traitsIcEEEERNS_13basic_ostreamIT_T0_EES7_.exit798
  %98 = landingpad { ptr, i32 }
          cleanup
  call void @_ZNSt3__16localeD1Ev(ptr noundef nonnull align 8 dereferenceable(8) %ref.tmp.i.i799) #19
  call void @llvm.lifetime.end.p0(i64 8, ptr nonnull %ref.tmp.i.i799) #19
  br label %common.resume

_ZNSt3__14endlB7v170000IcNS_11char_traitsIcEEEERNS_13basic_ostreamIT_T0_EES7_.exit812: ; preds = %invoke.cont.i.i808
  call void @_ZNSt3__16localeD1Ev(ptr noundef nonnull align 8 dereferenceable(8) %ref.tmp.i.i799) #19
  call void @llvm.lifetime.end.p0(i64 8, ptr nonnull %ref.tmp.i.i799) #19
  %call1.i810 = call noundef nonnull align 8 dereferenceable(8) ptr @_ZNSt3__113basic_ostreamIcNS_11char_traitsIcEEE3putEc(ptr noundef nonnull align 8 dereferenceable(8) %call2.i441, i8 noundef signext %call.i6.i.i807)
  %call2.i811 = call noundef nonnull align 8 dereferenceable(8) ptr @_ZNSt3__113basic_ostreamIcNS_11char_traitsIcEEE5flushEv(ptr noundef nonnull align 8 dereferenceable(8) %call2.i441)
  %call1.i444 = call noundef nonnull align 8 dereferenceable(8) ptr @_ZNSt3__124__put_character_sequenceB7v170000IcNS_11char_traitsIcEEEERNS_13basic_ostreamIT_T0_EES7_PKS4_m(ptr noundef nonnull align 8 dereferenceable(8) %add.ptr127, ptr noundef nonnull @.str.6, i64 noundef 9)
  %bf.load.i.i.i.i445 = load i8, ptr %fname, align 8
  %bf.clear.i.i.i.i446 = and i8 %bf.load.i.i.i.i445, 1
  %tobool.i.not.i.i.i447 = icmp eq i8 %bf.clear.i.i.i.i446, 0
  %__data_.i.i.i.i448 = getelementptr inbounds %"struct.std::__1::basic_string<char>::__long", ptr %fname, i64 0, i32 2
  %99 = load ptr, ptr %__data_.i.i.i.i448, align 8
  %__data_.i4.i.i.i449 = getelementptr inbounds %"struct.std::__1::basic_string<char>::__short", ptr %fname, i64 0, i32 2
  %cond.i.i.i450 = select i1 %tobool.i.not.i.i.i447, ptr %__data_.i4.i.i.i449, ptr %99
  %__size_.i.i.i451 = getelementptr inbounds %"struct.std::__1::basic_string<char>::__long", ptr %fname, i64 0, i32 1
  %100 = load i64, ptr %__size_.i.i.i451, align 8
  %bf.lshr.i.i.i452 = lshr i8 %bf.load.i.i.i.i445, 1
  %conv.i.i.i453 = zext i8 %bf.lshr.i.i.i452 to i64
  %cond.i.i454 = select i1 %tobool.i.not.i.i.i447, i64 %conv.i.i.i453, i64 %100
  %call2.i455 = call noundef nonnull align 8 dereferenceable(8) ptr @_ZNSt3__124__put_character_sequenceB7v170000IcNS_11char_traitsIcEEEERNS_13basic_ostreamIT_T0_EES7_PKS4_m(ptr noundef nonnull align 8 dereferenceable(8) %call1.i444, ptr noundef %cond.i.i.i450, i64 noundef %cond.i.i454)
  %vtable.i814 = load ptr, ptr %call2.i455, align 8, !tbaa !35
  %vbase.offset.ptr.i815 = getelementptr i8, ptr %vtable.i814, i64 -24
  %vbase.offset.i816 = load i64, ptr %vbase.offset.ptr.i815, align 8
  %add.ptr.i817 = getelementptr inbounds i8, ptr %call2.i455, i64 %vbase.offset.i816
  call void @llvm.lifetime.start.p0(i64 8, ptr nonnull %ref.tmp.i.i813) #19
  call void @_ZNKSt3__18ios_base6getlocEv(ptr nonnull sret(%"class.std::__1::locale") align 8 %ref.tmp.i.i813, ptr noundef nonnull align 8 dereferenceable(136) %add.ptr.i817)
  %call.i5.i.i818 = invoke noundef ptr @_ZNKSt3__16locale9use_facetERNS0_2idE(ptr noundef nonnull align 8 dereferenceable(8) %ref.tmp.i.i813, ptr noundef nonnull align 8 dereferenceable(12) @_ZNSt3__15ctypeIcE2idE)
          to label %invoke.cont.i.i822 unwind label %lpad.i.i823

invoke.cont.i.i822:                               ; preds = %_ZNSt3__14endlB7v170000IcNS_11char_traitsIcEEEERNS_13basic_ostreamIT_T0_EES7_.exit812
  %vtable.i.i.i819 = load ptr, ptr %call.i5.i.i818, align 8, !tbaa !35
  %vfn.i.i.i820 = getelementptr inbounds ptr, ptr %vtable.i.i.i819, i64 7
  %101 = load ptr, ptr %vfn.i.i.i820, align 8
  %call.i6.i.i821 = invoke noundef signext i8 %101(ptr noundef nonnull align 8 dereferenceable(25) %call.i5.i.i818, i8 noundef signext 10)
          to label %_ZNSt3__14endlB7v170000IcNS_11char_traitsIcEEEERNS_13basic_ostreamIT_T0_EES7_.exit826 unwind label %lpad.i.i823

lpad.i.i823:                                      ; preds = %invoke.cont.i.i822, %_ZNSt3__14endlB7v170000IcNS_11char_traitsIcEEEERNS_13basic_ostreamIT_T0_EES7_.exit812
  %102 = landingpad { ptr, i32 }
          cleanup
  call void @_ZNSt3__16localeD1Ev(ptr noundef nonnull align 8 dereferenceable(8) %ref.tmp.i.i813) #19
  call void @llvm.lifetime.end.p0(i64 8, ptr nonnull %ref.tmp.i.i813) #19
  br label %common.resume

_ZNSt3__14endlB7v170000IcNS_11char_traitsIcEEEERNS_13basic_ostreamIT_T0_EES7_.exit826: ; preds = %invoke.cont.i.i822
  call void @_ZNSt3__16localeD1Ev(ptr noundef nonnull align 8 dereferenceable(8) %ref.tmp.i.i813) #19
  call void @llvm.lifetime.end.p0(i64 8, ptr nonnull %ref.tmp.i.i813) #19
  %call1.i824 = call noundef nonnull align 8 dereferenceable(8) ptr @_ZNSt3__113basic_ostreamIcNS_11char_traitsIcEEE3putEc(ptr noundef nonnull align 8 dereferenceable(8) %call2.i455, i8 noundef signext %call.i6.i.i821)
  %call2.i825 = call noundef nonnull align 8 dereferenceable(8) ptr @_ZNSt3__113basic_ostreamIcNS_11char_traitsIcEEE5flushEv(ptr noundef nonnull align 8 dereferenceable(8) %call2.i455)
  %call1.i458 = call noundef nonnull align 8 dereferenceable(8) ptr @_ZNSt3__124__put_character_sequenceB7v170000IcNS_11char_traitsIcEEEERNS_13basic_ostreamIT_T0_EES7_PKS4_m(ptr noundef nonnull align 8 dereferenceable(8) %add.ptr127, ptr noundef nonnull @.str.14, i64 noundef 23)
  %103 = load i32, ptr %ndim, align 8, !tbaa !14
  %call148 = call noundef nonnull align 8 dereferenceable(8) ptr @_ZNSt3__113basic_ostreamIcNS_11char_traitsIcEEElsEi(ptr noundef nonnull align 8 dereferenceable(8) %call1.i458, i32 noundef %103)
  %vtable.i828 = load ptr, ptr %call148, align 8, !tbaa !35
  %vbase.offset.ptr.i829 = getelementptr i8, ptr %vtable.i828, i64 -24
  %vbase.offset.i830 = load i64, ptr %vbase.offset.ptr.i829, align 8
  %add.ptr.i831 = getelementptr inbounds i8, ptr %call148, i64 %vbase.offset.i830
  call void @llvm.lifetime.start.p0(i64 8, ptr nonnull %ref.tmp.i.i827) #19
  call void @_ZNKSt3__18ios_base6getlocEv(ptr nonnull sret(%"class.std::__1::locale") align 8 %ref.tmp.i.i827, ptr noundef nonnull align 8 dereferenceable(136) %add.ptr.i831)
  %call.i5.i.i832 = invoke noundef ptr @_ZNKSt3__16locale9use_facetERNS0_2idE(ptr noundef nonnull align 8 dereferenceable(8) %ref.tmp.i.i827, ptr noundef nonnull align 8 dereferenceable(12) @_ZNSt3__15ctypeIcE2idE)
          to label %invoke.cont.i.i836 unwind label %lpad.i.i837

invoke.cont.i.i836:                               ; preds = %_ZNSt3__14endlB7v170000IcNS_11char_traitsIcEEEERNS_13basic_ostreamIT_T0_EES7_.exit826
  %vtable.i.i.i833 = load ptr, ptr %call.i5.i.i832, align 8, !tbaa !35
  %vfn.i.i.i834 = getelementptr inbounds ptr, ptr %vtable.i.i.i833, i64 7
  %104 = load ptr, ptr %vfn.i.i.i834, align 8
  %call.i6.i.i835 = invoke noundef signext i8 %104(ptr noundef nonnull align 8 dereferenceable(25) %call.i5.i.i832, i8 noundef signext 10)
          to label %_ZNSt3__14endlB7v170000IcNS_11char_traitsIcEEEERNS_13basic_ostreamIT_T0_EES7_.exit840 unwind label %lpad.i.i837

lpad.i.i837:                                      ; preds = %invoke.cont.i.i836, %_ZNSt3__14endlB7v170000IcNS_11char_traitsIcEEEERNS_13basic_ostreamIT_T0_EES7_.exit826
  %105 = landingpad { ptr, i32 }
          cleanup
  call void @_ZNSt3__16localeD1Ev(ptr noundef nonnull align 8 dereferenceable(8) %ref.tmp.i.i827) #19
  call void @llvm.lifetime.end.p0(i64 8, ptr nonnull %ref.tmp.i.i827) #19
  br label %common.resume

_ZNSt3__14endlB7v170000IcNS_11char_traitsIcEEEERNS_13basic_ostreamIT_T0_EES7_.exit840: ; preds = %invoke.cont.i.i836
  call void @_ZNSt3__16localeD1Ev(ptr noundef nonnull align 8 dereferenceable(8) %ref.tmp.i.i827) #19
  call void @llvm.lifetime.end.p0(i64 8, ptr nonnull %ref.tmp.i.i827) #19
  %call1.i838 = call noundef nonnull align 8 dereferenceable(8) ptr @_ZNSt3__113basic_ostreamIcNS_11char_traitsIcEEE3putEc(ptr noundef nonnull align 8 dereferenceable(8) %call148, i8 noundef signext %call.i6.i.i835)
  %call2.i839 = call noundef nonnull align 8 dereferenceable(8) ptr @_ZNSt3__113basic_ostreamIcNS_11char_traitsIcEEE5flushEv(ptr noundef nonnull align 8 dereferenceable(8) %call148)
  %call1.i461 = call noundef nonnull align 8 dereferenceable(8) ptr @_ZNSt3__124__put_character_sequenceB7v170000IcNS_11char_traitsIcEEEERNS_13basic_ostreamIT_T0_EES7_PKS4_m(ptr noundef nonnull align 8 dereferenceable(8) %add.ptr127, ptr noundef nonnull @.str.15, i64 noundef 33)
  %call153 = call noundef nonnull align 8 dereferenceable(8) ptr @_ZNSt3__113basic_ostreamIcNS_11char_traitsIcEEElsEi(ptr noundef nonnull align 8 dereferenceable(8) %call1.i461, i32 noundef %add)
  %vtable.i842 = load ptr, ptr %call153, align 8, !tbaa !35
  %vbase.offset.ptr.i843 = getelementptr i8, ptr %vtable.i842, i64 -24
  %vbase.offset.i844 = load i64, ptr %vbase.offset.ptr.i843, align 8
  %add.ptr.i845 = getelementptr inbounds i8, ptr %call153, i64 %vbase.offset.i844
  call void @llvm.lifetime.start.p0(i64 8, ptr nonnull %ref.tmp.i.i841) #19
  call void @_ZNKSt3__18ios_base6getlocEv(ptr nonnull sret(%"class.std::__1::locale") align 8 %ref.tmp.i.i841, ptr noundef nonnull align 8 dereferenceable(136) %add.ptr.i845)
  %call.i5.i.i846 = invoke noundef ptr @_ZNKSt3__16locale9use_facetERNS0_2idE(ptr noundef nonnull align 8 dereferenceable(8) %ref.tmp.i.i841, ptr noundef nonnull align 8 dereferenceable(12) @_ZNSt3__15ctypeIcE2idE)
          to label %invoke.cont.i.i850 unwind label %lpad.i.i851

invoke.cont.i.i850:                               ; preds = %_ZNSt3__14endlB7v170000IcNS_11char_traitsIcEEEERNS_13basic_ostreamIT_T0_EES7_.exit840
  %vtable.i.i.i847 = load ptr, ptr %call.i5.i.i846, align 8, !tbaa !35
  %vfn.i.i.i848 = getelementptr inbounds ptr, ptr %vtable.i.i.i847, i64 7
  %106 = load ptr, ptr %vfn.i.i.i848, align 8
  %call.i6.i.i849 = invoke noundef signext i8 %106(ptr noundef nonnull align 8 dereferenceable(25) %call.i5.i.i846, i8 noundef signext 10)
          to label %_ZNSt3__14endlB7v170000IcNS_11char_traitsIcEEEERNS_13basic_ostreamIT_T0_EES7_.exit854 unwind label %lpad.i.i851

lpad.i.i851:                                      ; preds = %invoke.cont.i.i850, %_ZNSt3__14endlB7v170000IcNS_11char_traitsIcEEEERNS_13basic_ostreamIT_T0_EES7_.exit840
  %107 = landingpad { ptr, i32 }
          cleanup
  call void @_ZNSt3__16localeD1Ev(ptr noundef nonnull align 8 dereferenceable(8) %ref.tmp.i.i841) #19
  call void @llvm.lifetime.end.p0(i64 8, ptr nonnull %ref.tmp.i.i841) #19
  br label %common.resume

_ZNSt3__14endlB7v170000IcNS_11char_traitsIcEEEERNS_13basic_ostreamIT_T0_EES7_.exit854: ; preds = %invoke.cont.i.i850
  call void @_ZNSt3__16localeD1Ev(ptr noundef nonnull align 8 dereferenceable(8) %ref.tmp.i.i841) #19
  call void @llvm.lifetime.end.p0(i64 8, ptr nonnull %ref.tmp.i.i841) #19
  %call1.i852 = call noundef nonnull align 8 dereferenceable(8) ptr @_ZNSt3__113basic_ostreamIcNS_11char_traitsIcEEE3putEc(ptr noundef nonnull align 8 dereferenceable(8) %call153, i8 noundef signext %call.i6.i.i849)
  %call2.i853 = call noundef nonnull align 8 dereferenceable(8) ptr @_ZNSt3__113basic_ostreamIcNS_11char_traitsIcEEE5flushEv(ptr noundef nonnull align 8 dereferenceable(8) %call153)
  %call1.i464 = call noundef nonnull align 8 dereferenceable(8) ptr @_ZNSt3__124__put_character_sequenceB7v170000IcNS_11char_traitsIcEEEERNS_13basic_ostreamIT_T0_EES7_PKS4_m(ptr noundef nonnull align 8 dereferenceable(8) %add.ptr127, ptr noundef nonnull @.str.16, i64 noundef 30)
  %vtable.i856 = load ptr, ptr %call1.i464, align 8, !tbaa !35
  %vbase.offset.ptr.i857 = getelementptr i8, ptr %vtable.i856, i64 -24
  %vbase.offset.i858 = load i64, ptr %vbase.offset.ptr.i857, align 8
  %add.ptr.i859 = getelementptr inbounds i8, ptr %call1.i464, i64 %vbase.offset.i858
  call void @llvm.lifetime.start.p0(i64 8, ptr nonnull %ref.tmp.i.i855) #19
  call void @_ZNKSt3__18ios_base6getlocEv(ptr nonnull sret(%"class.std::__1::locale") align 8 %ref.tmp.i.i855, ptr noundef nonnull align 8 dereferenceable(136) %add.ptr.i859)
  %call.i5.i.i860 = invoke noundef ptr @_ZNKSt3__16locale9use_facetERNS0_2idE(ptr noundef nonnull align 8 dereferenceable(8) %ref.tmp.i.i855, ptr noundef nonnull align 8 dereferenceable(12) @_ZNSt3__15ctypeIcE2idE)
          to label %invoke.cont.i.i864 unwind label %lpad.i.i865

invoke.cont.i.i864:                               ; preds = %_ZNSt3__14endlB7v170000IcNS_11char_traitsIcEEEERNS_13basic_ostreamIT_T0_EES7_.exit854
  %vtable.i.i.i861 = load ptr, ptr %call.i5.i.i860, align 8, !tbaa !35
  %vfn.i.i.i862 = getelementptr inbounds ptr, ptr %vtable.i.i.i861, i64 7
  %108 = load ptr, ptr %vfn.i.i.i862, align 8
  %call.i6.i.i863 = invoke noundef signext i8 %108(ptr noundef nonnull align 8 dereferenceable(25) %call.i5.i.i860, i8 noundef signext 10)
          to label %_ZNSt3__14endlB7v170000IcNS_11char_traitsIcEEEERNS_13basic_ostreamIT_T0_EES7_.exit868 unwind label %lpad.i.i865

lpad.i.i865:                                      ; preds = %invoke.cont.i.i864, %_ZNSt3__14endlB7v170000IcNS_11char_traitsIcEEEERNS_13basic_ostreamIT_T0_EES7_.exit854
  %109 = landingpad { ptr, i32 }
          cleanup
  call void @_ZNSt3__16localeD1Ev(ptr noundef nonnull align 8 dereferenceable(8) %ref.tmp.i.i855) #19
  call void @llvm.lifetime.end.p0(i64 8, ptr nonnull %ref.tmp.i.i855) #19
  br label %common.resume

_ZNSt3__14endlB7v170000IcNS_11char_traitsIcEEEERNS_13basic_ostreamIT_T0_EES7_.exit868: ; preds = %invoke.cont.i.i864
  call void @_ZNSt3__16localeD1Ev(ptr noundef nonnull align 8 dereferenceable(8) %ref.tmp.i.i855) #19
  call void @llvm.lifetime.end.p0(i64 8, ptr nonnull %ref.tmp.i.i855) #19
  %call1.i866 = call noundef nonnull align 8 dereferenceable(8) ptr @_ZNSt3__113basic_ostreamIcNS_11char_traitsIcEEE3putEc(ptr noundef nonnull align 8 dereferenceable(8) %call1.i464, i8 noundef signext %call.i6.i.i863)
  %call2.i867 = call noundef nonnull align 8 dereferenceable(8) ptr @_ZNSt3__113basic_ostreamIcNS_11char_traitsIcEEE5flushEv(ptr noundef nonnull align 8 dereferenceable(8) %call1.i464)
  store i32 2, ptr %ierr, align 4, !tbaa !32
  br label %cleanup.cont

if.end159:                                        ; preds = %if.then123, %if.end120
  call void @llvm.lifetime.start.p0(i64 1, ptr nonnull %putils) #19
  %110 = load i32, ptr @_ZN2PPL10index_baseE, align 4, !tbaa !32
  call void @_ZN2PP12Parser_utilsC1Ei(ptr noundef nonnull align 1 dereferenceable(1) %putils, i32 noundef %110)
  %call161 = call noundef i32 @_ZN2PP12Parser_utils9start_dexERNSt3__16vectorIiNS1_9allocatorIiEEEERKS5_(ptr noundef nonnull align 1 dereferenceable(1) %putils, ptr noundef nonnull align 8 dereferenceable(24) %istart, ptr noundef nonnull align 8 dereferenceable(24) %maxdim)
  %__end_.i466 = getelementptr inbounds %"class.std::__1::vector", ptr %valvec, i64 0, i32 1
  %111 = load ptr, ptr %__end_.i466, align 8, !tbaa !8
  %112 = load ptr, ptr %valvec, align 8, !tbaa !31
  %sub.ptr.lhs.cast.i467 = ptrtoint ptr %111 to i64
  %sub.ptr.rhs.cast.i468 = ptrtoint ptr %112 to i64
  %sub.ptr.sub.i469 = sub i64 %sub.ptr.lhs.cast.i467, %sub.ptr.rhs.cast.i468
  %sub.ptr.div.i470 = sdiv exact i64 %sub.ptr.sub.i469, 24
  %conv163 = trunc i64 %sub.ptr.div.i470 to i32
  %add164 = add nsw i32 %call161, %conv163
  %value = getelementptr inbounds %"class.PP::Variable", ptr %this, i64 0, i32 1
  %__end_.i471 = getelementptr inbounds %"class.PP::Variable", ptr %this, i64 0, i32 1, i32 1
  %113 = load ptr, ptr %__end_.i471, align 8, !tbaa !8
  %114 = load ptr, ptr %value, align 8, !tbaa !31
  %sub.ptr.lhs.cast.i472 = ptrtoint ptr %113 to i64
  %sub.ptr.rhs.cast.i473 = ptrtoint ptr %114 to i64
  %sub.ptr.sub.i474 = sub i64 %sub.ptr.lhs.cast.i472, %sub.ptr.rhs.cast.i473
  %sub.ptr.div.i475 = sdiv exact i64 %sub.ptr.sub.i474, 24
  %conv166 = trunc i64 %sub.ptr.div.i475 to i32
  %cmp167 = icmp sgt i32 %add164, %conv166
  br i1 %cmp167, label %if.then168, label %if.end172

if.then168:                                       ; preds = %if.end159
  %conv171 = sext i32 %add164 to i64
  call void @llvm.lifetime.start.p0(i64 24, ptr nonnull %ref.tmp) #19
  store i8 0, ptr %ref.tmp, align 8
  %__data_.i.i.i = getelementptr inbounds %"struct.std::__1::basic_string<char>::__short", ptr %ref.tmp, i64 0, i32 2
  store i8 0, ptr %__data_.i.i.i, align 1, !tbaa !5
  %cmp.i = icmp ult i64 %sub.ptr.div.i475, %conv171
  br i1 %cmp.i, label %if.then.i, label %if.else.i

if.then.i:                                        ; preds = %if.then168
  %sub.i = sub nsw i64 %conv171, %sub.ptr.div.i475
  invoke void @_ZNSt3__16vectorINS_12basic_stringIcNS_11char_traitsIcEENS_9allocatorIcEEEENS4_IS6_EEE8__appendEmRKS6_(ptr noundef nonnull align 8 dereferenceable(24) %value, i64 noundef %sub.i, ptr noundef nonnull align 8 dereferenceable(24) %ref.tmp)
          to label %invoke.cont unwind label %lpad

if.else.i:                                        ; preds = %if.then168
  %cmp2.i = icmp ugt i64 %sub.ptr.div.i475, %conv171
  br i1 %cmp2.i, label %if.then3.i, label %_ZNSt3__112basic_stringIcNS_11char_traitsIcEENS_9allocatorIcEEED2Ev.exit

if.then3.i:                                       ; preds = %if.else.i
  %add.ptr.i479 = getelementptr inbounds %"class.std::__1::basic_string", ptr %114, i64 %conv171
  %cmp.not6.i.i.i = icmp eq ptr %113, %add.ptr.i479
  br i1 %cmp.not6.i.i.i, label %_ZNSt3__16vectorINS_12basic_stringIcNS_11char_traitsIcEENS_9allocatorIcEEEENS4_IS6_EEE17__destruct_at_endB7v170000EPS6_.exit.i, label %while.body.i.i.i

while.body.i.i.i:                                 ; preds = %if.then3.i, %_ZNSt3__116allocator_traitsINS_9allocatorINS_12basic_stringIcNS_11char_traitsIcEENS1_IcEEEEEEE7destroyB7v170000IS6_vEEvRS7_PT_.exit.i.i.i
  %__soon_to_be_end.07.i.i.i = phi ptr [ %incdec.ptr.i.i.i, %_ZNSt3__116allocator_traitsINS_9allocatorINS_12basic_stringIcNS_11char_traitsIcEENS1_IcEEEEEEE7destroyB7v170000IS6_vEEvRS7_PT_.exit.i.i.i ], [ %113, %if.then3.i ]
  %incdec.ptr.i.i.i = getelementptr inbounds %"class.std::__1::basic_string", ptr %__soon_to_be_end.07.i.i.i, i64 -1
  %bf.load.i.i.i.i.i.i.i = load i8, ptr %incdec.ptr.i.i.i, align 8
  %bf.clear.i.i.i.i.i.i.i = and i8 %bf.load.i.i.i.i.i.i.i, 1
  %tobool.i.not.i.i.i.i.i.i = icmp eq i8 %bf.clear.i.i.i.i.i.i.i, 0
  br i1 %tobool.i.not.i.i.i.i.i.i, label %_ZNSt3__116allocator_traitsINS_9allocatorINS_12basic_stringIcNS_11char_traitsIcEENS1_IcEEEEEEE7destroyB7v170000IS6_vEEvRS7_PT_.exit.i.i.i, label %if.then.i.i.i.i.i.i

if.then.i.i.i.i.i.i:                              ; preds = %while.body.i.i.i
  %__data_.i.i.i.i.i.i.i = getelementptr %"class.std::__1::basic_string", ptr %__soon_to_be_end.07.i.i.i, i64 -1, i32 0, i32 0, i32 0, i32 0, i32 0, i32 2
  %115 = load ptr, ptr %__data_.i.i.i.i.i.i.i, align 8, !tbaa !5
  call void @_ZdlPv(ptr noundef %115) #20
  br label %_ZNSt3__116allocator_traitsINS_9allocatorINS_12basic_stringIcNS_11char_traitsIcEENS1_IcEEEEEEE7destroyB7v170000IS6_vEEvRS7_PT_.exit.i.i.i

_ZNSt3__116allocator_traitsINS_9allocatorINS_12basic_stringIcNS_11char_traitsIcEENS1_IcEEEEEEE7destroyB7v170000IS6_vEEvRS7_PT_.exit.i.i.i: ; preds = %if.then.i.i.i.i.i.i, %while.body.i.i.i
  %cmp.not.i.i.i = icmp eq ptr %incdec.ptr.i.i.i, %add.ptr.i479
  br i1 %cmp.not.i.i.i, label %_ZNSt3__16vectorINS_12basic_stringIcNS_11char_traitsIcEENS_9allocatorIcEEEENS4_IS6_EEE17__destruct_at_endB7v170000EPS6_.exit.i, label %while.body.i.i.i

_ZNSt3__16vectorINS_12basic_stringIcNS_11char_traitsIcEENS_9allocatorIcEEEENS4_IS6_EEE17__destruct_at_endB7v170000EPS6_.exit.i: ; preds = %_ZNSt3__116allocator_traitsINS_9allocatorINS_12basic_stringIcNS_11char_traitsIcEENS1_IcEEEEEEE7destroyB7v170000IS6_vEEvRS7_PT_.exit.i.i.i, %if.then3.i
  store ptr %add.ptr.i479, ptr %__end_.i471, align 8, !tbaa !8
  br label %_ZNSt3__112basic_stringIcNS_11char_traitsIcEENS_9allocatorIcEEED2Ev.exit

invoke.cont:                                      ; preds = %if.then.i
  %bf.load.i.i.pre = load i8, ptr %ref.tmp, align 8
  %116 = and i8 %bf.load.i.i.pre, 1
  %117 = icmp eq i8 %116, 0
  br i1 %117, label %_ZNSt3__112basic_stringIcNS_11char_traitsIcEENS_9allocatorIcEEED2Ev.exit, label %if.then.i480

if.then.i480:                                     ; preds = %invoke.cont
  %__data_.i.i = getelementptr inbounds %"struct.std::__1::basic_string<char>::__long", ptr %ref.tmp, i64 0, i32 2
  %118 = load ptr, ptr %__data_.i.i, align 8, !tbaa !5
  call void @_ZdlPv(ptr noundef %118) #20
  br label %_ZNSt3__112basic_stringIcNS_11char_traitsIcEENS_9allocatorIcEEED2Ev.exit

_ZNSt3__112basic_stringIcNS_11char_traitsIcEENS_9allocatorIcEEED2Ev.exit: ; preds = %if.else.i, %_ZNSt3__16vectorINS_12basic_stringIcNS_11char_traitsIcEENS_9allocatorIcEEEENS4_IS6_EEE17__destruct_at_endB7v170000EPS6_.exit.i, %invoke.cont, %if.then.i480
  call void @llvm.lifetime.end.p0(i64 24, ptr nonnull %ref.tmp) #19
  br label %if.end172

lpad:                                             ; preds = %if.then.i
  %119 = landingpad { ptr, i32 }
          cleanup
  %bf.load.i.i481 = load i8, ptr %ref.tmp, align 8
  %bf.clear.i.i482 = and i8 %bf.load.i.i481, 1
  %tobool.i.not.i483 = icmp eq i8 %bf.clear.i.i482, 0
  br i1 %tobool.i.not.i483, label %_ZNSt3__112basic_stringIcNS_11char_traitsIcEENS_9allocatorIcEEED2Ev.exit486, label %if.then.i485

if.then.i485:                                     ; preds = %lpad
  %__data_.i.i484 = getelementptr inbounds %"struct.std::__1::basic_string<char>::__long", ptr %ref.tmp, i64 0, i32 2
  %120 = load ptr, ptr %__data_.i.i484, align 8, !tbaa !5
  call void @_ZdlPv(ptr noundef %120) #20
  br label %_ZNSt3__112basic_stringIcNS_11char_traitsIcEENS_9allocatorIcEEED2Ev.exit486

_ZNSt3__112basic_stringIcNS_11char_traitsIcEENS_9allocatorIcEEED2Ev.exit486: ; preds = %lpad, %if.then.i485
  call void @llvm.lifetime.end.p0(i64 24, ptr nonnull %ref.tmp) #19
  call void @llvm.lifetime.end.p0(i64 1, ptr nonnull %putils) #19
  br label %common.resume

if.end172:                                        ; preds = %_ZNSt3__112basic_stringIcNS_11char_traitsIcEENS_9allocatorIcEEED2Ev.exit, %if.end159
  %cmp174869 = icmp sgt i32 %conv163, 0
  br i1 %cmp174869, label %for.body.preheader, label %for.cond.cleanup

for.body.preheader:                               ; preds = %if.end172
  %121 = sext i32 %call161 to i64
  %122 = sext i32 %add164 to i64
  br label %for.body

for.cond.cleanup:                                 ; preds = %for.body, %if.end172
  call void @llvm.lifetime.end.p0(i64 1, ptr nonnull %putils) #19
  br label %cleanup.cont

for.body:                                         ; preds = %for.body.preheader, %for.body
  %indvars.iv = phi i64 [ %121, %for.body.preheader ], [ %indvars.iv.next, %for.body ]
  %123 = sub nsw i64 %indvars.iv, %121
  %124 = load ptr, ptr %valvec, align 8, !tbaa !31
  %arrayidx.i = getelementptr inbounds %"class.std::__1::basic_string", ptr %124, i64 %123
  %125 = load ptr, ptr %value, align 8, !tbaa !31
  %arrayidx.i487 = getelementptr inbounds %"class.std::__1::basic_string", ptr %125, i64 %indvars.iv
  %call181 = call noundef nonnull align 8 dereferenceable(24) ptr @_ZNSt3__112basic_stringIcNS_11char_traitsIcEENS_9allocatorIcEEEaSERKS5_(ptr noundef nonnull align 8 dereferenceable(24) %arrayidx.i487, ptr noundef nonnull align 8 dereferenceable(24) %arrayidx.i)
  %indvars.iv.next = add nsw i64 %indvars.iv, 1
  %cmp174 = icmp slt i64 %indvars.iv.next, %122
  br i1 %cmp174, label %for.body, label %for.cond.cleanup, !llvm.loop !46

cleanup.cont:                                     ; preds = %if.end71, %for.cond.cleanup, %_ZNSt3__14endlB7v170000IcNS_11char_traitsIcEEEERNS_13basic_ostreamIT_T0_EES7_.exit868, %if.end119, %_ZNSt3__14endlB7v170000IcNS_11char_traitsIcEEEERNS_13basic_ostreamIT_T0_EES7_.exit546
  ret void
}

declare void @_ZNSt3__112basic_stringIcNS_11char_traitsIcEENS_9allocatorIcEEEC1ERKS5_(ptr noundef nonnull align 8 dereferenceable(24), ptr noundef nonnull align 8 dereferenceable(24)) unnamed_addr #4

declare noundef nonnull align 8 dereferenceable(8) ptr @_ZNSt3__113basic_ostreamIcNS_11char_traitsIcEEElsEi(ptr noundef nonnull align 8 dereferenceable(8), i32 noundef) local_unnamed_addr #4

declare void @_ZN2PP12Parser_utilsC1Ei(ptr noundef nonnull align 1 dereferenceable(1), i32 noundef) unnamed_addr #4

declare noundef i32 @_ZN2PP12Parser_utils9start_dexERNSt3__16vectorIiNS1_9allocatorIiEEEERKS5_(ptr noundef nonnull align 1 dereferenceable(1), ptr noundef nonnull align 8 dereferenceable(24), ptr noundef nonnull align 8 dereferenceable(24)) local_unnamed_addr #4

; Function Attrs: uwtable
define dso_local void @_ZN2PP8Variable8bump_varERNSt3__16vectorIiNS1_9allocatorIiEEEEiiiNS1_12basic_stringIcNS1_11char_traitsIcEENS3_IcEEEEPNS1_5dequeISB_NS3_ISB_EEEERNS1_18basic_stringstreamIcS9_SA_EERi(ptr noundef nonnull align 8 dereferenceable(120) %this, ptr noundef nonnull align 8 dereferenceable(24) %istart, i32 noundef %increment, i32 noundef %lnum, i32 noundef %file_lnum, ptr noundef %fname, ptr noundef %lines, ptr noundef nonnull align 8 dereferenceable(128) %serr, ptr noundef nonnull align 4 dereferenceable(4) %ierr) local_unnamed_addr #0 align 2 personality ptr @__gxx_personality_v0 {
entry:
  %putils = alloca %"class.PP::Parser_utils", align 1
  %w1 = alloca %"class.PP::Word", align 8
  %agg.tmp = alloca %"class.std::__1::basic_string", align 8
  %agg.tmp6 = alloca %"class.std::__1::basic_string", align 8
  %ss = alloca %"class.std::__1::basic_stringstream", align 8
  %ref.tmp45 = alloca %"class.std::__1::basic_string", align 8
  call void @llvm.lifetime.start.p0(i64 1, ptr nonnull %putils) #19
  %0 = load i32, ptr @_ZN2PPL10index_baseE, align 4, !tbaa !32
  call void @_ZN2PP12Parser_utilsC1Ei(ptr noundef nonnull align 1 dereferenceable(1) %putils, i32 noundef %0)
  %maxdim = getelementptr inbounds %"class.PP::Variable", ptr %this, i64 0, i32 5
  %call = call noundef i32 @_ZN2PP12Parser_utils9start_dexERNSt3__16vectorIiNS1_9allocatorIiEEEERKS5_(ptr noundef nonnull align 1 dereferenceable(1) %putils, ptr noundef nonnull align 8 dereferenceable(24) %istart, ptr noundef nonnull align 8 dereferenceable(24) %maxdim)
  %value = getelementptr inbounds %"class.PP::Variable", ptr %this, i64 0, i32 1
  %1 = load ptr, ptr %value, align 8, !tbaa !31
  call void @llvm.lifetime.start.p0(i64 104, ptr nonnull %w1) #19
  %conv4 = sext i32 %call to i64
  %arrayidx.i = getelementptr inbounds %"class.std::__1::basic_string", ptr %1, i64 %conv4
  call void @_ZNSt3__112basic_stringIcNS_11char_traitsIcEENS_9allocatorIcEEEC1ERKS5_(ptr noundef nonnull align 8 dereferenceable(24) %agg.tmp, ptr noundef nonnull align 8 dereferenceable(24) %arrayidx.i)
  invoke void @_ZNSt3__112basic_stringIcNS_11char_traitsIcEENS_9allocatorIcEEEC1ERKS5_(ptr noundef nonnull align 8 dereferenceable(24) %agg.tmp6, ptr noundef nonnull align 8 dereferenceable(24) %fname)
          to label %invoke.cont unwind label %lpad

invoke.cont:                                      ; preds = %entry
  invoke void @_ZN2PP4WordC1ENSt3__112basic_stringIcNS1_11char_traitsIcEENS1_9allocatorIcEEEEiiS7_PNS1_5dequeIS7_NS5_IS7_EEEE(ptr noundef nonnull align 8 dereferenceable(104) %w1, ptr noundef nonnull %agg.tmp, i32 noundef %lnum, i32 noundef %file_lnum, ptr noundef nonnull %agg.tmp6, ptr noundef %lines)
          to label %invoke.cont8 unwind label %lpad7

invoke.cont8:                                     ; preds = %invoke.cont
  %bf.load.i.i = load i8, ptr %agg.tmp6, align 8
  %bf.clear.i.i = and i8 %bf.load.i.i, 1
  %tobool.i.not.i = icmp eq i8 %bf.clear.i.i, 0
  br i1 %tobool.i.not.i, label %_ZNSt3__112basic_stringIcNS_11char_traitsIcEENS_9allocatorIcEEED2Ev.exit, label %if.then.i

if.then.i:                                        ; preds = %invoke.cont8
  %__data_.i.i = getelementptr inbounds %"struct.std::__1::basic_string<char>::__long", ptr %agg.tmp6, i64 0, i32 2
  %2 = load ptr, ptr %__data_.i.i, align 8, !tbaa !5
  call void @_ZdlPv(ptr noundef %2) #20
  br label %_ZNSt3__112basic_stringIcNS_11char_traitsIcEENS_9allocatorIcEEED2Ev.exit

_ZNSt3__112basic_stringIcNS_11char_traitsIcEENS_9allocatorIcEEED2Ev.exit: ; preds = %invoke.cont8, %if.then.i
  %bf.load.i.i74 = load i8, ptr %agg.tmp, align 8
  %bf.clear.i.i75 = and i8 %bf.load.i.i74, 1
  %tobool.i.not.i76 = icmp eq i8 %bf.clear.i.i75, 0
  br i1 %tobool.i.not.i76, label %_ZNSt3__112basic_stringIcNS_11char_traitsIcEENS_9allocatorIcEEED2Ev.exit79, label %if.then.i78

if.then.i78:                                      ; preds = %_ZNSt3__112basic_stringIcNS_11char_traitsIcEENS_9allocatorIcEEED2Ev.exit
  %__data_.i.i77 = getelementptr inbounds %"struct.std::__1::basic_string<char>::__long", ptr %agg.tmp, i64 0, i32 2
  %3 = load ptr, ptr %__data_.i.i77, align 8, !tbaa !5
  call void @_ZdlPv(ptr noundef %3) #20
  br label %_ZNSt3__112basic_stringIcNS_11char_traitsIcEENS_9allocatorIcEEED2Ev.exit79

_ZNSt3__112basic_stringIcNS_11char_traitsIcEENS_9allocatorIcEEED2Ev.exit79: ; preds = %_ZNSt3__112basic_stringIcNS_11char_traitsIcEENS_9allocatorIcEEED2Ev.exit, %if.then.i78
  %type.i = getelementptr inbounds %"class.PP::Word", ptr %w1, i64 0, i32 1
  call void @llvm.lifetime.start.p0(i64 280, ptr nonnull %ss) #19
  %4 = getelementptr inbounds i8, ptr %ss, i64 128
  %add.ptr2.i = getelementptr inbounds i8, ptr %ss, i64 16
  store ptr getelementptr inbounds ({ [5 x ptr], [5 x ptr], [5 x ptr] }, ptr @_ZTVNSt3__118basic_stringstreamIcNS_11char_traitsIcEENS_9allocatorIcEEEE, i64 0, inrange i32 1, i64 3), ptr %add.ptr2.i, align 8, !tbaa !35
  %__sb_.i = getelementptr inbounds %"class.std::__1::basic_stringstream", ptr %ss, i64 0, i32 1
  store ptr getelementptr inbounds ({ [5 x ptr], [5 x ptr] }, ptr @_ZTCNSt3__118basic_stringstreamIcNS_11char_traitsIcEENS_9allocatorIcEEEE0_NS_13basic_istreamIcS2_EE, i64 0, inrange i32 0, i64 3), ptr %ss, align 8, !tbaa !35
  store ptr getelementptr inbounds ({ [5 x ptr], [5 x ptr] }, ptr @_ZTCNSt3__118basic_stringstreamIcNS_11char_traitsIcEENS_9allocatorIcEEEE0_NS_13basic_istreamIcS2_EE, i64 0, inrange i32 1, i64 3), ptr %4, align 8, !tbaa !35
  %__gc_.i.i.i = getelementptr inbounds %"class.std::__1::basic_istream", ptr %ss, i64 0, i32 1
  store i64 0, ptr %__gc_.i.i.i, align 8, !tbaa !48
  invoke void @_ZNSt3__18ios_base4initEPv(ptr noundef nonnull align 8 dereferenceable(136) %4, ptr noundef nonnull %__sb_.i)
          to label %invoke.cont.i unwind label %lpad.i

invoke.cont.i:                                    ; preds = %_ZNSt3__112basic_stringIcNS_11char_traitsIcEENS_9allocatorIcEEED2Ev.exit79
  %__tie_.i.i.i.i = getelementptr inbounds i8, ptr %ss, i64 264
  store ptr null, ptr %__tie_.i.i.i.i, align 8, !tbaa !50
  %__fill_.i.i.i.i = getelementptr inbounds i8, ptr %ss, i64 272
  store i32 -1, ptr %__fill_.i.i.i.i, align 8, !tbaa !53
  store ptr getelementptr inbounds ({ [5 x ptr], [5 x ptr], [5 x ptr] }, ptr @_ZTVNSt3__118basic_stringstreamIcNS_11char_traitsIcEENS_9allocatorIcEEEE, i64 0, inrange i32 0, i64 3), ptr %ss, align 8, !tbaa !35
  store ptr getelementptr inbounds ({ [5 x ptr], [5 x ptr], [5 x ptr] }, ptr @_ZTVNSt3__118basic_stringstreamIcNS_11char_traitsIcEENS_9allocatorIcEEEE, i64 0, inrange i32 2, i64 3), ptr %4, align 8, !tbaa !35
  store ptr getelementptr inbounds ({ [5 x ptr], [5 x ptr], [5 x ptr] }, ptr @_ZTVNSt3__118basic_stringstreamIcNS_11char_traitsIcEENS_9allocatorIcEEEE, i64 0, inrange i32 1, i64 3), ptr %add.ptr2.i, align 8, !tbaa !35
  invoke void @_ZNSt3__115basic_streambufIcNS_11char_traitsIcEEEC2Ev(ptr noundef nonnull align 8 dereferenceable(64) %__sb_.i)
          to label %invoke.cont15 unwind label %lpad6.i

lpad.i:                                           ; preds = %_ZNSt3__112basic_stringIcNS_11char_traitsIcEENS_9allocatorIcEEED2Ev.exit79
  %5 = landingpad { ptr, i32 }
          cleanup
  br label %ehcleanup.i

lpad6.i:                                          ; preds = %invoke.cont.i
  %6 = landingpad { ptr, i32 }
          cleanup
  call void @_ZNSt3__114basic_iostreamIcNS_11char_traitsIcEEED2Ev(ptr noundef nonnull align 8 dereferenceable(24) %ss, ptr noundef nonnull getelementptr inbounds ([10 x ptr], ptr @_ZTTNSt3__118basic_stringstreamIcNS_11char_traitsIcEENS_9allocatorIcEEEE, i64 0, i64 1)) #19
  br label %ehcleanup.i

ehcleanup.i:                                      ; preds = %lpad6.i, %lpad.i
  %.pn.i = phi { ptr, i32 } [ %6, %lpad6.i ], [ %5, %lpad.i ]
  call void @_ZNSt3__19basic_iosIcNS_11char_traitsIcEEED2Ev(ptr noundef nonnull align 8 dereferenceable(148) %4) #19
  br label %ehcleanup54

lpad:                                             ; preds = %entry
  %7 = landingpad { ptr, i32 }
          cleanup
  br label %ehcleanup

lpad7:                                            ; preds = %invoke.cont
  %8 = landingpad { ptr, i32 }
          cleanup
  %bf.load.i.i80 = load i8, ptr %agg.tmp6, align 8
  %bf.clear.i.i81 = and i8 %bf.load.i.i80, 1
  %tobool.i.not.i82 = icmp eq i8 %bf.clear.i.i81, 0
  br i1 %tobool.i.not.i82, label %ehcleanup, label %if.then.i84

if.then.i84:                                      ; preds = %lpad7
  %__data_.i.i83 = getelementptr inbounds %"struct.std::__1::basic_string<char>::__long", ptr %agg.tmp6, i64 0, i32 2
  %9 = load ptr, ptr %__data_.i.i83, align 8, !tbaa !5
  call void @_ZdlPv(ptr noundef %9) #20
  br label %ehcleanup

ehcleanup:                                        ; preds = %if.then.i84, %lpad7, %lpad
  %.pn = phi { ptr, i32 } [ %7, %lpad ], [ %8, %lpad7 ], [ %8, %if.then.i84 ]
  %bf.load.i.i86 = load i8, ptr %agg.tmp, align 8
  %bf.clear.i.i87 = and i8 %bf.load.i.i86, 1
  %tobool.i.not.i88 = icmp eq i8 %bf.clear.i.i87, 0
  br i1 %tobool.i.not.i88, label %ehcleanup56, label %if.then.i90

if.then.i90:                                      ; preds = %ehcleanup
  %__data_.i.i89 = getelementptr inbounds %"struct.std::__1::basic_string<char>::__long", ptr %agg.tmp, i64 0, i32 2
  %10 = load ptr, ptr %__data_.i.i89, align 8, !tbaa !5
  call void @_ZdlPv(ptr noundef %10) #20
  br label %ehcleanup56

invoke.cont15:                                    ; preds = %invoke.cont.i
  store ptr getelementptr inbounds ({ [16 x ptr] }, ptr @_ZTVNSt3__115basic_stringbufIcNS_11char_traitsIcEENS_9allocatorIcEEEE, i64 0, inrange i32 0, i64 2), ptr %__sb_.i, align 8, !tbaa !35
  %__str_.i.i = getelementptr inbounds %"class.std::__1::basic_stringstream", ptr %ss, i64 0, i32 1, i32 1
  %__mode_.i.i = getelementptr inbounds %"class.std::__1::basic_stringstream", ptr %ss, i64 0, i32 1, i32 3
  call void @llvm.memset.p0.i64(ptr noundef nonnull align 8 dereferenceable(32) %__str_.i.i, i8 0, i64 32, i1 false)
  store i32 24, ptr %__mode_.i.i, align 8, !tbaa !54
  %11 = load i32, ptr %type.i, align 8, !tbaa !58
  %cmp.i = icmp eq i32 %11, 2
  br i1 %cmp.i, label %if.then19, label %if.else

if.then19:                                        ; preds = %invoke.cont15
  %call22 = invoke noundef i32 @_ZN2PP4Word7get_intERNSt3__118basic_stringstreamIcNS1_11char_traitsIcEENS1_9allocatorIcEEEERi(ptr noundef nonnull align 8 dereferenceable(104) %w1, ptr noundef nonnull align 8 dereferenceable(128) %serr, ptr noundef nonnull align 4 dereferenceable(4) %ierr)
          to label %invoke.cont21 unwind label %lpad20

invoke.cont21:                                    ; preds = %if.then19
  %add = add nsw i32 %call22, %increment
  %call25 = invoke noundef nonnull align 8 dereferenceable(8) ptr @_ZNSt3__113basic_ostreamIcNS_11char_traitsIcEEElsEi(ptr noundef nonnull align 8 dereferenceable(8) %add.ptr2.i, i32 noundef %add)
          to label %if.end44 unwind label %lpad23

lpad20:                                           ; preds = %if.then19
  %12 = landingpad { ptr, i32 }
          cleanup
  br label %ehcleanup53

lpad23:                                           ; preds = %invoke.cont21
  %13 = landingpad { ptr, i32 }
          cleanup
  br label %ehcleanup53

if.else:                                          ; preds = %invoke.cont15
  %call30 = invoke noundef double @_ZN2PP4Word10get_doubleERNSt3__118basic_stringstreamIcNS1_11char_traitsIcEENS1_9allocatorIcEEEERi(ptr noundef nonnull align 8 dereferenceable(104) %w1, ptr noundef nonnull align 8 dereferenceable(128) %serr, ptr noundef nonnull align 4 dereferenceable(4) %ierr)
          to label %invoke.cont37 unwind label %lpad28

invoke.cont37:                                    ; preds = %if.else
  %conv31 = sitofp i32 %increment to double
  %add32 = fadd double %call30, %conv31
  %vtable.i = load ptr, ptr %add.ptr2.i, align 8, !tbaa !35
  %vbase.offset.ptr.i = getelementptr i8, ptr %vtable.i, i64 -24
  %vbase.offset.i = load i64, ptr %vbase.offset.ptr.i, align 8
  %add.ptr.i = getelementptr inbounds i8, ptr %add.ptr2.i, i64 %vbase.offset.i
  %__precision_.i.i = getelementptr inbounds %"class.std::__1::ios_base", ptr %add.ptr.i, i64 0, i32 2
  store i64 15, ptr %__precision_.i.i, align 8, !tbaa !61
  %call40 = invoke noundef nonnull align 8 dereferenceable(8) ptr @_ZNSt3__113basic_ostreamIcNS_11char_traitsIcEEElsEd(ptr noundef nonnull align 8 dereferenceable(8) %add.ptr2.i, double noundef %add32)
          to label %if.end44 unwind label %lpad34

lpad28:                                           ; preds = %if.else
  %14 = landingpad { ptr, i32 }
          cleanup
  br label %ehcleanup53

lpad34:                                           ; preds = %invoke.cont37
  %15 = landingpad { ptr, i32 }
          cleanup
  br label %ehcleanup53

if.end44:                                         ; preds = %invoke.cont37, %invoke.cont21
  call void @llvm.lifetime.start.p0(i64 24, ptr nonnull %ref.tmp45) #19
  invoke void @_ZNKSt3__115basic_stringbufIcNS_11char_traitsIcEENS_9allocatorIcEEE3strEv(ptr nonnull sret(%"class.std::__1::basic_string") align 8 %ref.tmp45, ptr noundef nonnull align 8 dereferenceable(100) %__sb_.i)
          to label %invoke.cont47 unwind label %lpad46

invoke.cont47:                                    ; preds = %if.end44
  %16 = load ptr, ptr %value, align 8, !tbaa !31
  %arrayidx.i94 = getelementptr inbounds %"class.std::__1::basic_string", ptr %16, i64 %conv4
  %bf.load.i.i.i = load i8, ptr %arrayidx.i94, align 8
  %bf.clear.i.i.i = and i8 %bf.load.i.i.i, 1
  %tobool.i.not.i.i = icmp eq i8 %bf.clear.i.i.i, 0
  br i1 %tobool.i.not.i.i, label %_ZNSt3__112basic_stringIcNS_11char_traitsIcEENS_9allocatorIcEEED2Ev.exit100, label %if.then.i.i

if.then.i.i:                                      ; preds = %invoke.cont47
  %__data_.i.i.i = getelementptr inbounds %"struct.std::__1::basic_string<char>::__long", ptr %arrayidx.i94, i64 0, i32 2
  %17 = load ptr, ptr %__data_.i.i.i, align 8, !tbaa !5
  call void @_ZdlPv(ptr noundef %17) #20
  br label %_ZNSt3__112basic_stringIcNS_11char_traitsIcEENS_9allocatorIcEEED2Ev.exit100

_ZNSt3__112basic_stringIcNS_11char_traitsIcEENS_9allocatorIcEEED2Ev.exit100: ; preds = %if.then.i.i, %invoke.cont47
  call void @llvm.memcpy.p0.p0.i64(ptr noundef nonnull align 8 dereferenceable(24) %arrayidx.i94, ptr noundef nonnull align 8 dereferenceable(24) %ref.tmp45, i64 24, i1 false), !tbaa.struct !62
  call void @llvm.lifetime.end.p0(i64 24, ptr nonnull %ref.tmp45) #19
  store ptr getelementptr inbounds ({ [5 x ptr], [5 x ptr], [5 x ptr] }, ptr @_ZTVNSt3__118basic_stringstreamIcNS_11char_traitsIcEENS_9allocatorIcEEEE, i64 0, inrange i32 0, i64 3), ptr %ss, align 8, !tbaa !35
  store ptr getelementptr inbounds ({ [5 x ptr], [5 x ptr], [5 x ptr] }, ptr @_ZTVNSt3__118basic_stringstreamIcNS_11char_traitsIcEENS_9allocatorIcEEEE, i64 0, inrange i32 2, i64 3), ptr %4, align 8, !tbaa !35
  store ptr getelementptr inbounds ({ [5 x ptr], [5 x ptr], [5 x ptr] }, ptr @_ZTVNSt3__118basic_stringstreamIcNS_11char_traitsIcEENS_9allocatorIcEEEE, i64 0, inrange i32 1, i64 3), ptr %add.ptr2.i, align 8, !tbaa !35
  store ptr getelementptr inbounds ({ [16 x ptr] }, ptr @_ZTVNSt3__115basic_stringbufIcNS_11char_traitsIcEENS_9allocatorIcEEEE, i64 0, inrange i32 0, i64 2), ptr %__sb_.i, align 8, !tbaa !35
  %bf.load.i.i.i.i.i = load i8, ptr %__str_.i.i, align 8
  %bf.clear.i.i.i.i.i = and i8 %bf.load.i.i.i.i.i, 1
  %tobool.i.not.i.i.i.i = icmp eq i8 %bf.clear.i.i.i.i.i, 0
  br i1 %tobool.i.not.i.i.i.i, label %_ZNSt3__118basic_stringstreamIcNS_11char_traitsIcEENS_9allocatorIcEEED1Ev.exit, label %if.then.i.i.i.i

if.then.i.i.i.i:                                  ; preds = %_ZNSt3__112basic_stringIcNS_11char_traitsIcEENS_9allocatorIcEEED2Ev.exit100
  %__data_.i.i.i.i.i = getelementptr inbounds %"class.std::__1::basic_stringstream", ptr %ss, i64 0, i32 1, i32 1, i32 0, i32 0, i32 0, i32 0, i32 0, i32 2
  %18 = load ptr, ptr %__data_.i.i.i.i.i, align 8, !tbaa !5
  call void @_ZdlPv(ptr noundef %18) #20
  br label %_ZNSt3__118basic_stringstreamIcNS_11char_traitsIcEENS_9allocatorIcEEED1Ev.exit

_ZNSt3__118basic_stringstreamIcNS_11char_traitsIcEENS_9allocatorIcEEED1Ev.exit: ; preds = %_ZNSt3__112basic_stringIcNS_11char_traitsIcEENS_9allocatorIcEEED2Ev.exit100, %if.then.i.i.i.i
  call void @_ZNSt3__115basic_streambufIcNS_11char_traitsIcEEED2Ev(ptr noundef nonnull align 8 dereferenceable(64) %__sb_.i) #19
  call void @_ZNSt3__114basic_iostreamIcNS_11char_traitsIcEEED2Ev(ptr noundef nonnull align 8 dereferenceable(24) %ss, ptr noundef nonnull getelementptr inbounds ([10 x ptr], ptr @_ZTTNSt3__118basic_stringstreamIcNS_11char_traitsIcEENS_9allocatorIcEEEE, i64 0, i64 1)) #19
  call void @_ZNSt3__19basic_iosIcNS_11char_traitsIcEEED2Ev(ptr noundef nonnull align 8 dereferenceable(148) %4) #19
  call void @llvm.lifetime.end.p0(i64 280, ptr nonnull %ss) #19
  call void @_ZN2PP4WordD1Ev(ptr noundef nonnull align 8 dereferenceable(104) %w1) #19
  call void @llvm.lifetime.end.p0(i64 104, ptr nonnull %w1) #19
  call void @llvm.lifetime.end.p0(i64 1, ptr nonnull %putils) #19
  ret void

lpad46:                                           ; preds = %if.end44
  %19 = landingpad { ptr, i32 }
          cleanup
  call void @llvm.lifetime.end.p0(i64 24, ptr nonnull %ref.tmp45) #19
  br label %ehcleanup53

ehcleanup53:                                      ; preds = %lpad28, %lpad34, %lpad20, %lpad23, %lpad46
  %.pn69 = phi { ptr, i32 } [ %19, %lpad46 ], [ %13, %lpad23 ], [ %12, %lpad20 ], [ %15, %lpad34 ], [ %14, %lpad28 ]
  call void @_ZNSt3__118basic_stringstreamIcNS_11char_traitsIcEENS_9allocatorIcEEED1Ev(ptr noundef nonnull align 8 dereferenceable(128) %ss) #19
  br label %ehcleanup54

ehcleanup54:                                      ; preds = %ehcleanup.i, %ehcleanup53
  %.pn69.pn = phi { ptr, i32 } [ %.pn69, %ehcleanup53 ], [ %.pn.i, %ehcleanup.i ]
  call void @llvm.lifetime.end.p0(i64 280, ptr nonnull %ss) #19
  call void @_ZN2PP4WordD1Ev(ptr noundef nonnull align 8 dereferenceable(104) %w1) #19
  br label %ehcleanup56

ehcleanup56:                                      ; preds = %if.then.i90, %ehcleanup, %ehcleanup54
  %.pn69.pn.pn = phi { ptr, i32 } [ %.pn69.pn, %ehcleanup54 ], [ %.pn, %ehcleanup ], [ %.pn, %if.then.i90 ]
  call void @llvm.lifetime.end.p0(i64 104, ptr nonnull %w1) #19
  call void @llvm.lifetime.end.p0(i64 1, ptr nonnull %putils) #19
  resume { ptr, i32 } %.pn69.pn.pn
}

declare void @_ZN2PP4WordC1ENSt3__112basic_stringIcNS1_11char_traitsIcEENS1_9allocatorIcEEEEiiS7_PNS1_5dequeIS7_NS5_IS7_EEEE(ptr noundef nonnull align 8 dereferenceable(104), ptr noundef, i32 noundef, i32 noundef, ptr noundef, ptr noundef) unnamed_addr #4

declare noundef i32 @_ZN2PP4Word7get_intERNSt3__118basic_stringstreamIcNS1_11char_traitsIcEENS1_9allocatorIcEEEERi(ptr noundef nonnull align 8 dereferenceable(104), ptr noundef nonnull align 8 dereferenceable(128), ptr noundef nonnull align 4 dereferenceable(4)) local_unnamed_addr #4

declare noundef double @_ZN2PP4Word10get_doubleERNSt3__118basic_stringstreamIcNS1_11char_traitsIcEENS1_9allocatorIcEEEERi(ptr noundef nonnull align 8 dereferenceable(104), ptr noundef nonnull align 8 dereferenceable(128), ptr noundef nonnull align 4 dereferenceable(4)) local_unnamed_addr #4

declare noundef nonnull align 8 dereferenceable(8) ptr @_ZNSt3__113basic_ostreamIcNS_11char_traitsIcEEElsEd(ptr noundef nonnull align 8 dereferenceable(8), double noundef) local_unnamed_addr #4

; Function Attrs: inlinehint nounwind uwtable
define linkonce_odr dso_local void @_ZNSt3__118basic_stringstreamIcNS_11char_traitsIcEENS_9allocatorIcEEED1Ev(ptr noundef nonnull align 8 dereferenceable(128) %this) unnamed_addr #5 comdat align 2 personality ptr @__gxx_personality_v0 {
entry:
  store ptr getelementptr inbounds ({ [5 x ptr], [5 x ptr], [5 x ptr] }, ptr @_ZTVNSt3__118basic_stringstreamIcNS_11char_traitsIcEENS_9allocatorIcEEEE, i64 0, inrange i32 0, i64 3), ptr %this, align 8, !tbaa !35
  %add.ptr.i = getelementptr inbounds i8, ptr %this, i64 128
  store ptr getelementptr inbounds ({ [5 x ptr], [5 x ptr], [5 x ptr] }, ptr @_ZTVNSt3__118basic_stringstreamIcNS_11char_traitsIcEENS_9allocatorIcEEEE, i64 0, inrange i32 2, i64 3), ptr %add.ptr.i, align 8, !tbaa !35
  %add.ptr3.i = getelementptr inbounds i8, ptr %this, i64 16
  store ptr getelementptr inbounds ({ [5 x ptr], [5 x ptr], [5 x ptr] }, ptr @_ZTVNSt3__118basic_stringstreamIcNS_11char_traitsIcEENS_9allocatorIcEEEE, i64 0, inrange i32 1, i64 3), ptr %add.ptr3.i, align 8, !tbaa !35
  %__sb_.i = getelementptr inbounds %"class.std::__1::basic_stringstream", ptr %this, i64 0, i32 1
  store ptr getelementptr inbounds ({ [16 x ptr] }, ptr @_ZTVNSt3__115basic_stringbufIcNS_11char_traitsIcEENS_9allocatorIcEEEE, i64 0, inrange i32 0, i64 2), ptr %__sb_.i, align 8, !tbaa !35
  %__str_.i.i = getelementptr inbounds %"class.std::__1::basic_stringstream", ptr %this, i64 0, i32 1, i32 1
  %bf.load.i.i.i.i = load i8, ptr %__str_.i.i, align 8
  %bf.clear.i.i.i.i = and i8 %bf.load.i.i.i.i, 1
  %tobool.i.not.i.i.i = icmp eq i8 %bf.clear.i.i.i.i, 0
  br i1 %tobool.i.not.i.i.i, label %_ZNSt3__118basic_stringstreamIcNS_11char_traitsIcEENS_9allocatorIcEEED2Ev.exit, label %if.then.i.i.i

if.then.i.i.i:                                    ; preds = %entry
  %__data_.i.i.i.i = getelementptr inbounds %"class.std::__1::basic_stringstream", ptr %this, i64 0, i32 1, i32 1, i32 0, i32 0, i32 0, i32 0, i32 0, i32 2
  %0 = load ptr, ptr %__data_.i.i.i.i, align 8, !tbaa !5
  tail call void @_ZdlPv(ptr noundef %0) #20
  br label %_ZNSt3__118basic_stringstreamIcNS_11char_traitsIcEENS_9allocatorIcEEED2Ev.exit

_ZNSt3__118basic_stringstreamIcNS_11char_traitsIcEENS_9allocatorIcEEED2Ev.exit: ; preds = %entry, %if.then.i.i.i
  tail call void @_ZNSt3__115basic_streambufIcNS_11char_traitsIcEEED2Ev(ptr noundef nonnull align 8 dereferenceable(64) %__sb_.i) #19
  tail call void @_ZNSt3__114basic_iostreamIcNS_11char_traitsIcEEED2Ev(ptr noundef nonnull align 8 dereferenceable(24) %this, ptr noundef nonnull getelementptr inbounds ([10 x ptr], ptr @_ZTTNSt3__118basic_stringstreamIcNS_11char_traitsIcEENS_9allocatorIcEEEE, i64 0, i64 1)) #19
  tail call void @_ZNSt3__19basic_iosIcNS_11char_traitsIcEEED2Ev(ptr noundef nonnull align 8 dereferenceable(148) %add.ptr.i) #19
  ret void
}

; Function Attrs: nounwind
declare void @_ZN2PP4WordD1Ev(ptr noundef nonnull align 8 dereferenceable(104)) unnamed_addr #6

; Function Attrs: uwtable
define dso_local void @_ZN2PP8Variable10set_boundsERNSt3__16vectorIiNS1_9allocatorIiEEEEiiNS1_12basic_stringIcNS1_11char_traitsIcEENS3_IcEEEEPNS1_5dequeISB_NS3_ISB_EEEERNS1_18basic_stringstreamIcS9_SA_EERi(ptr noundef nonnull align 8 dereferenceable(120) %this, ptr nocapture noundef nonnull readonly align 8 dereferenceable(24) %bounds, i32 noundef %lnum, i32 noundef %file_lnum, ptr noundef %fname, ptr nocapture noundef readonly %lines, ptr noundef nonnull align 8 dereferenceable(128) %serr, ptr nocapture noundef nonnull writeonly align 4 dereferenceable(4) %ierr) local_unnamed_addr #0 align 2 personality ptr @__gxx_personality_v0 {
entry:
  %ref.tmp.i.i636 = alloca %"class.std::__1::locale", align 8
  %ref.tmp.i.i622 = alloca %"class.std::__1::locale", align 8
  %ref.tmp.i.i608 = alloca %"class.std::__1::locale", align 8
  %ref.tmp.i.i594 = alloca %"class.std::__1::locale", align 8
  %ref.tmp.i.i580 = alloca %"class.std::__1::locale", align 8
  %ref.tmp.i.i566 = alloca %"class.std::__1::locale", align 8
  %ref.tmp.i.i552 = alloca %"class.std::__1::locale", align 8
  %ref.tmp.i.i538 = alloca %"class.std::__1::locale", align 8
  %ref.tmp.i.i524 = alloca %"class.std::__1::locale", align 8
  %ref.tmp.i.i510 = alloca %"class.std::__1::locale", align 8
  %ref.tmp.i.i496 = alloca %"class.std::__1::locale", align 8
  %ref.tmp.i.i482 = alloca %"class.std::__1::locale", align 8
  %ref.tmp.i.i468 = alloca %"class.std::__1::locale", align 8
  %ref.tmp.i.i454 = alloca %"class.std::__1::locale", align 8
  %ref.tmp.i.i440 = alloca %"class.std::__1::locale", align 8
  %ref.tmp.i.i426 = alloca %"class.std::__1::locale", align 8
  %ref.tmp.i.i412 = alloca %"class.std::__1::locale", align 8
  %ref.tmp.i.i398 = alloca %"class.std::__1::locale", align 8
  %ref.tmp.i.i384 = alloca %"class.std::__1::locale", align 8
  %ref.tmp.i.i370 = alloca %"class.std::__1::locale", align 8
  %ref.tmp.i.i356 = alloca %"class.std::__1::locale", align 8
  %ref.tmp.i.i = alloca %"class.std::__1::locale", align 8
  %pre_defined = getelementptr inbounds %"class.PP::Variable", ptr %this, i64 0, i32 6
  %0 = load i8, ptr %pre_defined, align 8, !tbaa !27, !range !33, !noundef !34
  %tobool.not = icmp eq i8 %0, 0
  br i1 %tobool.not, label %if.end, label %if.then

if.then:                                          ; preds = %entry
  %add.ptr = getelementptr inbounds i8, ptr %serr, i64 16
  %vtable.i = load ptr, ptr %add.ptr, align 8, !tbaa !35
  %vbase.offset.ptr.i = getelementptr i8, ptr %vtable.i, i64 -24
  %vbase.offset.i = load i64, ptr %vbase.offset.ptr.i, align 8
  %add.ptr.i352 = getelementptr inbounds i8, ptr %add.ptr, i64 %vbase.offset.i
  call void @llvm.lifetime.start.p0(i64 8, ptr nonnull %ref.tmp.i.i) #19
  call void @_ZNKSt3__18ios_base6getlocEv(ptr nonnull sret(%"class.std::__1::locale") align 8 %ref.tmp.i.i, ptr noundef nonnull align 8 dereferenceable(136) %add.ptr.i352)
  %call.i5.i.i = invoke noundef ptr @_ZNKSt3__16locale9use_facetERNS0_2idE(ptr noundef nonnull align 8 dereferenceable(8) %ref.tmp.i.i, ptr noundef nonnull align 8 dereferenceable(12) @_ZNSt3__15ctypeIcE2idE)
          to label %invoke.cont.i.i353 unwind label %lpad.i.i

invoke.cont.i.i353:                               ; preds = %if.then
  %vtable.i.i.i = load ptr, ptr %call.i5.i.i, align 8, !tbaa !35
  %vfn.i.i.i = getelementptr inbounds ptr, ptr %vtable.i.i.i, i64 7
  %1 = load ptr, ptr %vfn.i.i.i, align 8
  %call.i6.i.i = invoke noundef signext i8 %1(ptr noundef nonnull align 8 dereferenceable(25) %call.i5.i.i, i8 noundef signext 10)
          to label %_ZNSt3__14endlB7v170000IcNS_11char_traitsIcEEEERNS_13basic_ostreamIT_T0_EES7_.exit unwind label %lpad.i.i

common.resume:                                    ; preds = %lpad.i.i646, %lpad.i.i632, %lpad.i.i618, %lpad.i.i604, %lpad.i.i590, %lpad.i.i576, %lpad.i.i562, %lpad.i.i548, %lpad.i.i534, %lpad.i.i520, %lpad.i.i506, %lpad.i.i492, %lpad.i.i478, %lpad.i.i464, %lpad.i.i450, %lpad.i.i436, %lpad.i.i422, %lpad.i.i408, %lpad.i.i394, %lpad.i.i380, %lpad.i.i366, %lpad.i.i
  %common.resume.op = phi { ptr, i32 } [ %2, %lpad.i.i ], [ %4, %lpad.i.i366 ], [ %11, %lpad.i.i380 ], [ %15, %lpad.i.i394 ], [ %17, %lpad.i.i408 ], [ %23, %lpad.i.i422 ], [ %25, %lpad.i.i436 ], [ %32, %lpad.i.i450 ], [ %36, %lpad.i.i464 ], [ %38, %lpad.i.i478 ], [ %41, %lpad.i.i492 ], [ %43, %lpad.i.i506 ], [ %47, %lpad.i.i520 ], [ %55, %lpad.i.i534 ], [ %60, %lpad.i.i548 ], [ %62, %lpad.i.i562 ], [ %69, %lpad.i.i576 ], [ %73, %lpad.i.i590 ], [ %75, %lpad.i.i604 ], [ %77, %lpad.i.i618 ], [ %81, %lpad.i.i632 ], [ %89, %lpad.i.i646 ]
  resume { ptr, i32 } %common.resume.op

lpad.i.i:                                         ; preds = %invoke.cont.i.i353, %if.then
  %2 = landingpad { ptr, i32 }
          cleanup
  call void @_ZNSt3__16localeD1Ev(ptr noundef nonnull align 8 dereferenceable(8) %ref.tmp.i.i) #19
  call void @llvm.lifetime.end.p0(i64 8, ptr nonnull %ref.tmp.i.i) #19
  br label %common.resume

_ZNSt3__14endlB7v170000IcNS_11char_traitsIcEEEERNS_13basic_ostreamIT_T0_EES7_.exit: ; preds = %invoke.cont.i.i353
  call void @_ZNSt3__16localeD1Ev(ptr noundef nonnull align 8 dereferenceable(8) %ref.tmp.i.i) #19
  call void @llvm.lifetime.end.p0(i64 8, ptr nonnull %ref.tmp.i.i) #19
  %call1.i354 = call noundef nonnull align 8 dereferenceable(8) ptr @_ZNSt3__113basic_ostreamIcNS_11char_traitsIcEEE3putEc(ptr noundef nonnull align 8 dereferenceable(8) %add.ptr, i8 noundef signext %call.i6.i.i)
  %call2.i355 = call noundef nonnull align 8 dereferenceable(8) ptr @_ZNSt3__113basic_ostreamIcNS_11char_traitsIcEEE5flushEv(ptr noundef nonnull align 8 dereferenceable(8) %add.ptr)
  %call1.i = call noundef nonnull align 8 dereferenceable(8) ptr @_ZNSt3__124__put_character_sequenceB7v170000IcNS_11char_traitsIcEEEERNS_13basic_ostreamIT_T0_EES7_PKS4_m(ptr noundef nonnull align 8 dereferenceable(8) %add.ptr, ptr noundef nonnull @.str.3, i64 noundef 24)
  %call4 = call noundef nonnull align 8 dereferenceable(8) ptr @_ZNSt3__113basic_ostreamIcNS_11char_traitsIcEEElsEi(ptr noundef nonnull align 8 dereferenceable(8) %call1.i, i32 noundef %file_lnum)
  %call1.i170 = call noundef nonnull align 8 dereferenceable(8) ptr @_ZNSt3__124__put_character_sequenceB7v170000IcNS_11char_traitsIcEEEERNS_13basic_ostreamIT_T0_EES7_PKS4_m(ptr noundef nonnull align 8 dereferenceable(8) %call4, ptr noundef nonnull @.str.4, i64 noundef 1)
  %vtable.i357 = load ptr, ptr %call1.i170, align 8, !tbaa !35
  %vbase.offset.ptr.i358 = getelementptr i8, ptr %vtable.i357, i64 -24
  %vbase.offset.i359 = load i64, ptr %vbase.offset.ptr.i358, align 8
  %add.ptr.i360 = getelementptr inbounds i8, ptr %call1.i170, i64 %vbase.offset.i359
  call void @llvm.lifetime.start.p0(i64 8, ptr nonnull %ref.tmp.i.i356) #19
  call void @_ZNKSt3__18ios_base6getlocEv(ptr nonnull sret(%"class.std::__1::locale") align 8 %ref.tmp.i.i356, ptr noundef nonnull align 8 dereferenceable(136) %add.ptr.i360)
  %call.i5.i.i361 = invoke noundef ptr @_ZNKSt3__16locale9use_facetERNS0_2idE(ptr noundef nonnull align 8 dereferenceable(8) %ref.tmp.i.i356, ptr noundef nonnull align 8 dereferenceable(12) @_ZNSt3__15ctypeIcE2idE)
          to label %invoke.cont.i.i365 unwind label %lpad.i.i366

invoke.cont.i.i365:                               ; preds = %_ZNSt3__14endlB7v170000IcNS_11char_traitsIcEEEERNS_13basic_ostreamIT_T0_EES7_.exit
  %vtable.i.i.i362 = load ptr, ptr %call.i5.i.i361, align 8, !tbaa !35
  %vfn.i.i.i363 = getelementptr inbounds ptr, ptr %vtable.i.i.i362, i64 7
  %3 = load ptr, ptr %vfn.i.i.i363, align 8
  %call.i6.i.i364 = invoke noundef signext i8 %3(ptr noundef nonnull align 8 dereferenceable(25) %call.i5.i.i361, i8 noundef signext 10)
          to label %_ZNSt3__14endlB7v170000IcNS_11char_traitsIcEEEERNS_13basic_ostreamIT_T0_EES7_.exit369 unwind label %lpad.i.i366

lpad.i.i366:                                      ; preds = %invoke.cont.i.i365, %_ZNSt3__14endlB7v170000IcNS_11char_traitsIcEEEERNS_13basic_ostreamIT_T0_EES7_.exit
  %4 = landingpad { ptr, i32 }
          cleanup
  call void @_ZNSt3__16localeD1Ev(ptr noundef nonnull align 8 dereferenceable(8) %ref.tmp.i.i356) #19
  call void @llvm.lifetime.end.p0(i64 8, ptr nonnull %ref.tmp.i.i356) #19
  br label %common.resume

_ZNSt3__14endlB7v170000IcNS_11char_traitsIcEEEERNS_13basic_ostreamIT_T0_EES7_.exit369: ; preds = %invoke.cont.i.i365
  call void @_ZNSt3__16localeD1Ev(ptr noundef nonnull align 8 dereferenceable(8) %ref.tmp.i.i356) #19
  call void @llvm.lifetime.end.p0(i64 8, ptr nonnull %ref.tmp.i.i356) #19
  %call1.i367 = call noundef nonnull align 8 dereferenceable(8) ptr @_ZNSt3__113basic_ostreamIcNS_11char_traitsIcEEE3putEc(ptr noundef nonnull align 8 dereferenceable(8) %call1.i170, i8 noundef signext %call.i6.i.i364)
  %call2.i368 = call noundef nonnull align 8 dereferenceable(8) ptr @_ZNSt3__113basic_ostreamIcNS_11char_traitsIcEEE5flushEv(ptr noundef nonnull align 8 dereferenceable(8) %call1.i170)
  %call1.i173 = call noundef nonnull align 8 dereferenceable(8) ptr @_ZNSt3__124__put_character_sequenceB7v170000IcNS_11char_traitsIcEEEERNS_13basic_ostreamIT_T0_EES7_PKS4_m(ptr noundef nonnull align 8 dereferenceable(8) %add.ptr, ptr noundef nonnull @.str.5, i64 noundef 4)
  %sub = add nsw i32 %lnum, -1
  %conv = sext i32 %sub to i64
  %__start_.i = getelementptr inbounds %"class.std::__1::deque", ptr %lines, i64 0, i32 1
  %5 = load i64, ptr %__start_.i, align 8, !tbaa !37
  %add.i = add i64 %5, %conv
  %__begin_.i.i = getelementptr inbounds %"struct.std::__1::__split_buffer", ptr %lines, i64 0, i32 1
  %6 = load ptr, ptr %__begin_.i.i, align 8, !tbaa !45
  %div.i = udiv i64 %add.i, 170
  %add.ptr.i = getelementptr inbounds ptr, ptr %6, i64 %div.i
  %7 = load ptr, ptr %add.ptr.i, align 8, !tbaa !13
  %rem.i = urem i64 %add.i, 170
  %add.ptr2.i = getelementptr inbounds %"class.std::__1::basic_string", ptr %7, i64 %rem.i
  %bf.load.i.i.i.i = load i8, ptr %add.ptr2.i, align 8
  %bf.clear.i.i.i.i = and i8 %bf.load.i.i.i.i, 1
  %tobool.i.not.i.i.i = icmp eq i8 %bf.clear.i.i.i.i, 0
  %__data_.i.i.i.i = getelementptr inbounds %"struct.std::__1::basic_string<char>::__long", ptr %add.ptr2.i, i64 0, i32 2
  %8 = load ptr, ptr %__data_.i.i.i.i, align 8
  %__data_.i4.i.i.i = getelementptr inbounds %"struct.std::__1::basic_string<char>::__short", ptr %add.ptr2.i, i64 0, i32 2
  %cond.i.i.i = select i1 %tobool.i.not.i.i.i, ptr %__data_.i4.i.i.i, ptr %8
  %__size_.i.i.i = getelementptr inbounds %"struct.std::__1::basic_string<char>::__long", ptr %add.ptr2.i, i64 0, i32 1
  %9 = load i64, ptr %__size_.i.i.i, align 8
  %bf.lshr.i.i.i = lshr i8 %bf.load.i.i.i.i, 1
  %conv.i.i.i = zext i8 %bf.lshr.i.i.i to i64
  %cond.i.i = select i1 %tobool.i.not.i.i.i, i64 %conv.i.i.i, i64 %9
  %call2.i = call noundef nonnull align 8 dereferenceable(8) ptr @_ZNSt3__124__put_character_sequenceB7v170000IcNS_11char_traitsIcEEEERNS_13basic_ostreamIT_T0_EES7_PKS4_m(ptr noundef nonnull align 8 dereferenceable(8) %call1.i173, ptr noundef %cond.i.i.i, i64 noundef %cond.i.i)
  %vtable.i371 = load ptr, ptr %call2.i, align 8, !tbaa !35
  %vbase.offset.ptr.i372 = getelementptr i8, ptr %vtable.i371, i64 -24
  %vbase.offset.i373 = load i64, ptr %vbase.offset.ptr.i372, align 8
  %add.ptr.i374 = getelementptr inbounds i8, ptr %call2.i, i64 %vbase.offset.i373
  call void @llvm.lifetime.start.p0(i64 8, ptr nonnull %ref.tmp.i.i370) #19
  call void @_ZNKSt3__18ios_base6getlocEv(ptr nonnull sret(%"class.std::__1::locale") align 8 %ref.tmp.i.i370, ptr noundef nonnull align 8 dereferenceable(136) %add.ptr.i374)
  %call.i5.i.i375 = invoke noundef ptr @_ZNKSt3__16locale9use_facetERNS0_2idE(ptr noundef nonnull align 8 dereferenceable(8) %ref.tmp.i.i370, ptr noundef nonnull align 8 dereferenceable(12) @_ZNSt3__15ctypeIcE2idE)
          to label %invoke.cont.i.i379 unwind label %lpad.i.i380

invoke.cont.i.i379:                               ; preds = %_ZNSt3__14endlB7v170000IcNS_11char_traitsIcEEEERNS_13basic_ostreamIT_T0_EES7_.exit369
  %vtable.i.i.i376 = load ptr, ptr %call.i5.i.i375, align 8, !tbaa !35
  %vfn.i.i.i377 = getelementptr inbounds ptr, ptr %vtable.i.i.i376, i64 7
  %10 = load ptr, ptr %vfn.i.i.i377, align 8
  %call.i6.i.i378 = invoke noundef signext i8 %10(ptr noundef nonnull align 8 dereferenceable(25) %call.i5.i.i375, i8 noundef signext 10)
          to label %_ZNSt3__14endlB7v170000IcNS_11char_traitsIcEEEERNS_13basic_ostreamIT_T0_EES7_.exit383 unwind label %lpad.i.i380

lpad.i.i380:                                      ; preds = %invoke.cont.i.i379, %_ZNSt3__14endlB7v170000IcNS_11char_traitsIcEEEERNS_13basic_ostreamIT_T0_EES7_.exit369
  %11 = landingpad { ptr, i32 }
          cleanup
  call void @_ZNSt3__16localeD1Ev(ptr noundef nonnull align 8 dereferenceable(8) %ref.tmp.i.i370) #19
  call void @llvm.lifetime.end.p0(i64 8, ptr nonnull %ref.tmp.i.i370) #19
  br label %common.resume

_ZNSt3__14endlB7v170000IcNS_11char_traitsIcEEEERNS_13basic_ostreamIT_T0_EES7_.exit383: ; preds = %invoke.cont.i.i379
  call void @_ZNSt3__16localeD1Ev(ptr noundef nonnull align 8 dereferenceable(8) %ref.tmp.i.i370) #19
  call void @llvm.lifetime.end.p0(i64 8, ptr nonnull %ref.tmp.i.i370) #19
  %call1.i381 = call noundef nonnull align 8 dereferenceable(8) ptr @_ZNSt3__113basic_ostreamIcNS_11char_traitsIcEEE3putEc(ptr noundef nonnull align 8 dereferenceable(8) %call2.i, i8 noundef signext %call.i6.i.i378)
  %call2.i382 = call noundef nonnull align 8 dereferenceable(8) ptr @_ZNSt3__113basic_ostreamIcNS_11char_traitsIcEEE5flushEv(ptr noundef nonnull align 8 dereferenceable(8) %call2.i)
  %call1.i176 = call noundef nonnull align 8 dereferenceable(8) ptr @_ZNSt3__124__put_character_sequenceB7v170000IcNS_11char_traitsIcEEEERNS_13basic_ostreamIT_T0_EES7_PKS4_m(ptr noundef nonnull align 8 dereferenceable(8) %add.ptr, ptr noundef nonnull @.str.6, i64 noundef 9)
  %bf.load.i.i.i.i177 = load i8, ptr %fname, align 8
  %bf.clear.i.i.i.i178 = and i8 %bf.load.i.i.i.i177, 1
  %tobool.i.not.i.i.i179 = icmp eq i8 %bf.clear.i.i.i.i178, 0
  %__data_.i.i.i.i180 = getelementptr inbounds %"struct.std::__1::basic_string<char>::__long", ptr %fname, i64 0, i32 2
  %12 = load ptr, ptr %__data_.i.i.i.i180, align 8
  %__data_.i4.i.i.i181 = getelementptr inbounds %"struct.std::__1::basic_string<char>::__short", ptr %fname, i64 0, i32 2
  %cond.i.i.i182 = select i1 %tobool.i.not.i.i.i179, ptr %__data_.i4.i.i.i181, ptr %12
  %__size_.i.i.i183 = getelementptr inbounds %"struct.std::__1::basic_string<char>::__long", ptr %fname, i64 0, i32 1
  %13 = load i64, ptr %__size_.i.i.i183, align 8
  %bf.lshr.i.i.i184 = lshr i8 %bf.load.i.i.i.i177, 1
  %conv.i.i.i185 = zext i8 %bf.lshr.i.i.i184 to i64
  %cond.i.i186 = select i1 %tobool.i.not.i.i.i179, i64 %conv.i.i.i185, i64 %13
  %call2.i187 = call noundef nonnull align 8 dereferenceable(8) ptr @_ZNSt3__124__put_character_sequenceB7v170000IcNS_11char_traitsIcEEEERNS_13basic_ostreamIT_T0_EES7_PKS4_m(ptr noundef nonnull align 8 dereferenceable(8) %call1.i176, ptr noundef %cond.i.i.i182, i64 noundef %cond.i.i186)
  %vtable.i385 = load ptr, ptr %call2.i187, align 8, !tbaa !35
  %vbase.offset.ptr.i386 = getelementptr i8, ptr %vtable.i385, i64 -24
  %vbase.offset.i387 = load i64, ptr %vbase.offset.ptr.i386, align 8
  %add.ptr.i388 = getelementptr inbounds i8, ptr %call2.i187, i64 %vbase.offset.i387
  call void @llvm.lifetime.start.p0(i64 8, ptr nonnull %ref.tmp.i.i384) #19
  call void @_ZNKSt3__18ios_base6getlocEv(ptr nonnull sret(%"class.std::__1::locale") align 8 %ref.tmp.i.i384, ptr noundef nonnull align 8 dereferenceable(136) %add.ptr.i388)
  %call.i5.i.i389 = invoke noundef ptr @_ZNKSt3__16locale9use_facetERNS0_2idE(ptr noundef nonnull align 8 dereferenceable(8) %ref.tmp.i.i384, ptr noundef nonnull align 8 dereferenceable(12) @_ZNSt3__15ctypeIcE2idE)
          to label %invoke.cont.i.i393 unwind label %lpad.i.i394

invoke.cont.i.i393:                               ; preds = %_ZNSt3__14endlB7v170000IcNS_11char_traitsIcEEEERNS_13basic_ostreamIT_T0_EES7_.exit383
  %vtable.i.i.i390 = load ptr, ptr %call.i5.i.i389, align 8, !tbaa !35
  %vfn.i.i.i391 = getelementptr inbounds ptr, ptr %vtable.i.i.i390, i64 7
  %14 = load ptr, ptr %vfn.i.i.i391, align 8
  %call.i6.i.i392 = invoke noundef signext i8 %14(ptr noundef nonnull align 8 dereferenceable(25) %call.i5.i.i389, i8 noundef signext 10)
          to label %_ZNSt3__14endlB7v170000IcNS_11char_traitsIcEEEERNS_13basic_ostreamIT_T0_EES7_.exit397 unwind label %lpad.i.i394

lpad.i.i394:                                      ; preds = %invoke.cont.i.i393, %_ZNSt3__14endlB7v170000IcNS_11char_traitsIcEEEERNS_13basic_ostreamIT_T0_EES7_.exit383
  %15 = landingpad { ptr, i32 }
          cleanup
  call void @_ZNSt3__16localeD1Ev(ptr noundef nonnull align 8 dereferenceable(8) %ref.tmp.i.i384) #19
  call void @llvm.lifetime.end.p0(i64 8, ptr nonnull %ref.tmp.i.i384) #19
  br label %common.resume

_ZNSt3__14endlB7v170000IcNS_11char_traitsIcEEEERNS_13basic_ostreamIT_T0_EES7_.exit397: ; preds = %invoke.cont.i.i393
  call void @_ZNSt3__16localeD1Ev(ptr noundef nonnull align 8 dereferenceable(8) %ref.tmp.i.i384) #19
  call void @llvm.lifetime.end.p0(i64 8, ptr nonnull %ref.tmp.i.i384) #19
  %call1.i395 = call noundef nonnull align 8 dereferenceable(8) ptr @_ZNSt3__113basic_ostreamIcNS_11char_traitsIcEEE3putEc(ptr noundef nonnull align 8 dereferenceable(8) %call2.i187, i8 noundef signext %call.i6.i.i392)
  %call2.i396 = call noundef nonnull align 8 dereferenceable(8) ptr @_ZNSt3__113basic_ostreamIcNS_11char_traitsIcEEE5flushEv(ptr noundef nonnull align 8 dereferenceable(8) %call2.i187)
  %call1.i190 = call noundef nonnull align 8 dereferenceable(8) ptr @_ZNSt3__124__put_character_sequenceB7v170000IcNS_11char_traitsIcEEEERNS_13basic_ostreamIT_T0_EES7_PKS4_m(ptr noundef nonnull align 8 dereferenceable(8) %add.ptr, ptr noundef nonnull @.str.7, i64 noundef 39)
  %vtable.i399 = load ptr, ptr %call1.i190, align 8, !tbaa !35
  %vbase.offset.ptr.i400 = getelementptr i8, ptr %vtable.i399, i64 -24
  %vbase.offset.i401 = load i64, ptr %vbase.offset.ptr.i400, align 8
  %add.ptr.i402 = getelementptr inbounds i8, ptr %call1.i190, i64 %vbase.offset.i401
  call void @llvm.lifetime.start.p0(i64 8, ptr nonnull %ref.tmp.i.i398) #19
  call void @_ZNKSt3__18ios_base6getlocEv(ptr nonnull sret(%"class.std::__1::locale") align 8 %ref.tmp.i.i398, ptr noundef nonnull align 8 dereferenceable(136) %add.ptr.i402)
  %call.i5.i.i403 = invoke noundef ptr @_ZNKSt3__16locale9use_facetERNS0_2idE(ptr noundef nonnull align 8 dereferenceable(8) %ref.tmp.i.i398, ptr noundef nonnull align 8 dereferenceable(12) @_ZNSt3__15ctypeIcE2idE)
          to label %invoke.cont.i.i407 unwind label %lpad.i.i408

invoke.cont.i.i407:                               ; preds = %_ZNSt3__14endlB7v170000IcNS_11char_traitsIcEEEERNS_13basic_ostreamIT_T0_EES7_.exit397
  %vtable.i.i.i404 = load ptr, ptr %call.i5.i.i403, align 8, !tbaa !35
  %vfn.i.i.i405 = getelementptr inbounds ptr, ptr %vtable.i.i.i404, i64 7
  %16 = load ptr, ptr %vfn.i.i.i405, align 8
  %call.i6.i.i406 = invoke noundef signext i8 %16(ptr noundef nonnull align 8 dereferenceable(25) %call.i5.i.i403, i8 noundef signext 10)
          to label %_ZNSt3__14endlB7v170000IcNS_11char_traitsIcEEEERNS_13basic_ostreamIT_T0_EES7_.exit411 unwind label %lpad.i.i408

lpad.i.i408:                                      ; preds = %invoke.cont.i.i407, %_ZNSt3__14endlB7v170000IcNS_11char_traitsIcEEEERNS_13basic_ostreamIT_T0_EES7_.exit397
  %17 = landingpad { ptr, i32 }
          cleanup
  call void @_ZNSt3__16localeD1Ev(ptr noundef nonnull align 8 dereferenceable(8) %ref.tmp.i.i398) #19
  call void @llvm.lifetime.end.p0(i64 8, ptr nonnull %ref.tmp.i.i398) #19
  br label %common.resume

_ZNSt3__14endlB7v170000IcNS_11char_traitsIcEEEERNS_13basic_ostreamIT_T0_EES7_.exit411: ; preds = %invoke.cont.i.i407
  call void @_ZNSt3__16localeD1Ev(ptr noundef nonnull align 8 dereferenceable(8) %ref.tmp.i.i398) #19
  call void @llvm.lifetime.end.p0(i64 8, ptr nonnull %ref.tmp.i.i398) #19
  %call1.i409 = call noundef nonnull align 8 dereferenceable(8) ptr @_ZNSt3__113basic_ostreamIcNS_11char_traitsIcEEE3putEc(ptr noundef nonnull align 8 dereferenceable(8) %call1.i190, i8 noundef signext %call.i6.i.i406)
  br label %cleanup.cont.sink.split.sink.split

if.end:                                           ; preds = %entry
  %__end_.i = getelementptr inbounds %"class.std::__1::vector.8", ptr %bounds, i64 0, i32 1
  %18 = load ptr, ptr %__end_.i, align 8, !tbaa !30
  %19 = load ptr, ptr %bounds, align 8, !tbaa !29
  %sub.ptr.lhs.cast.i = ptrtoint ptr %18 to i64
  %sub.ptr.rhs.cast.i = ptrtoint ptr %19 to i64
  %sub.ptr.sub.i = sub i64 %sub.ptr.lhs.cast.i, %sub.ptr.rhs.cast.i
  %20 = lshr exact i64 %sub.ptr.sub.i, 2
  %conv20 = trunc i64 %20 to i32
  %add = add nsw i32 %conv20, 1
  %ndim = getelementptr inbounds %"class.PP::Variable", ptr %this, i64 0, i32 2
  %21 = load i32, ptr %ndim, align 8, !tbaa !14
  %cmp = icmp sgt i32 %21, -1
  br i1 %cmp, label %if.then21, label %if.else

if.then21:                                        ; preds = %if.end
  %cmp23.not = icmp eq i32 %21, %add
  br i1 %cmp23.not, label %if.end75, label %if.then24

if.then24:                                        ; preds = %if.then21
  %add.ptr25 = getelementptr inbounds i8, ptr %serr, i64 16
  %vtable.i413 = load ptr, ptr %add.ptr25, align 8, !tbaa !35
  %vbase.offset.ptr.i414 = getelementptr i8, ptr %vtable.i413, i64 -24
  %vbase.offset.i415 = load i64, ptr %vbase.offset.ptr.i414, align 8
  %add.ptr.i416 = getelementptr inbounds i8, ptr %add.ptr25, i64 %vbase.offset.i415
  call void @llvm.lifetime.start.p0(i64 8, ptr nonnull %ref.tmp.i.i412) #19
  call void @_ZNKSt3__18ios_base6getlocEv(ptr nonnull sret(%"class.std::__1::locale") align 8 %ref.tmp.i.i412, ptr noundef nonnull align 8 dereferenceable(136) %add.ptr.i416)
  %call.i5.i.i417 = invoke noundef ptr @_ZNKSt3__16locale9use_facetERNS0_2idE(ptr noundef nonnull align 8 dereferenceable(8) %ref.tmp.i.i412, ptr noundef nonnull align 8 dereferenceable(12) @_ZNSt3__15ctypeIcE2idE)
          to label %invoke.cont.i.i421 unwind label %lpad.i.i422

invoke.cont.i.i421:                               ; preds = %if.then24
  %vtable.i.i.i418 = load ptr, ptr %call.i5.i.i417, align 8, !tbaa !35
  %vfn.i.i.i419 = getelementptr inbounds ptr, ptr %vtable.i.i.i418, i64 7
  %22 = load ptr, ptr %vfn.i.i.i419, align 8
  %call.i6.i.i420 = invoke noundef signext i8 %22(ptr noundef nonnull align 8 dereferenceable(25) %call.i5.i.i417, i8 noundef signext 10)
          to label %_ZNSt3__14endlB7v170000IcNS_11char_traitsIcEEEERNS_13basic_ostreamIT_T0_EES7_.exit425 unwind label %lpad.i.i422

lpad.i.i422:                                      ; preds = %invoke.cont.i.i421, %if.then24
  %23 = landingpad { ptr, i32 }
          cleanup
  call void @_ZNSt3__16localeD1Ev(ptr noundef nonnull align 8 dereferenceable(8) %ref.tmp.i.i412) #19
  call void @llvm.lifetime.end.p0(i64 8, ptr nonnull %ref.tmp.i.i412) #19
  br label %common.resume

_ZNSt3__14endlB7v170000IcNS_11char_traitsIcEEEERNS_13basic_ostreamIT_T0_EES7_.exit425: ; preds = %invoke.cont.i.i421
  call void @_ZNSt3__16localeD1Ev(ptr noundef nonnull align 8 dereferenceable(8) %ref.tmp.i.i412) #19
  call void @llvm.lifetime.end.p0(i64 8, ptr nonnull %ref.tmp.i.i412) #19
  %call1.i423 = call noundef nonnull align 8 dereferenceable(8) ptr @_ZNSt3__113basic_ostreamIcNS_11char_traitsIcEEE3putEc(ptr noundef nonnull align 8 dereferenceable(8) %add.ptr25, i8 noundef signext %call.i6.i.i420)
  %call2.i424 = call noundef nonnull align 8 dereferenceable(8) ptr @_ZNSt3__113basic_ostreamIcNS_11char_traitsIcEEE5flushEv(ptr noundef nonnull align 8 dereferenceable(8) %add.ptr25)
  %call1.i194 = call noundef nonnull align 8 dereferenceable(8) ptr @_ZNSt3__124__put_character_sequenceB7v170000IcNS_11char_traitsIcEEEERNS_13basic_ostreamIT_T0_EES7_PKS4_m(ptr noundef nonnull align 8 dereferenceable(8) %add.ptr25, ptr noundef nonnull @.str.3, i64 noundef 24)
  %call29 = call noundef nonnull align 8 dereferenceable(8) ptr @_ZNSt3__113basic_ostreamIcNS_11char_traitsIcEEElsEi(ptr noundef nonnull align 8 dereferenceable(8) %call1.i194, i32 noundef %file_lnum)
  %call1.i196 = call noundef nonnull align 8 dereferenceable(8) ptr @_ZNSt3__124__put_character_sequenceB7v170000IcNS_11char_traitsIcEEEERNS_13basic_ostreamIT_T0_EES7_PKS4_m(ptr noundef nonnull align 8 dereferenceable(8) %call29, ptr noundef nonnull @.str.4, i64 noundef 1)
  %vtable.i427 = load ptr, ptr %call1.i196, align 8, !tbaa !35
  %vbase.offset.ptr.i428 = getelementptr i8, ptr %vtable.i427, i64 -24
  %vbase.offset.i429 = load i64, ptr %vbase.offset.ptr.i428, align 8
  %add.ptr.i430 = getelementptr inbounds i8, ptr %call1.i196, i64 %vbase.offset.i429
  call void @llvm.lifetime.start.p0(i64 8, ptr nonnull %ref.tmp.i.i426) #19
  call void @_ZNKSt3__18ios_base6getlocEv(ptr nonnull sret(%"class.std::__1::locale") align 8 %ref.tmp.i.i426, ptr noundef nonnull align 8 dereferenceable(136) %add.ptr.i430)
  %call.i5.i.i431 = invoke noundef ptr @_ZNKSt3__16locale9use_facetERNS0_2idE(ptr noundef nonnull align 8 dereferenceable(8) %ref.tmp.i.i426, ptr noundef nonnull align 8 dereferenceable(12) @_ZNSt3__15ctypeIcE2idE)
          to label %invoke.cont.i.i435 unwind label %lpad.i.i436

invoke.cont.i.i435:                               ; preds = %_ZNSt3__14endlB7v170000IcNS_11char_traitsIcEEEERNS_13basic_ostreamIT_T0_EES7_.exit425
  %vtable.i.i.i432 = load ptr, ptr %call.i5.i.i431, align 8, !tbaa !35
  %vfn.i.i.i433 = getelementptr inbounds ptr, ptr %vtable.i.i.i432, i64 7
  %24 = load ptr, ptr %vfn.i.i.i433, align 8
  %call.i6.i.i434 = invoke noundef signext i8 %24(ptr noundef nonnull align 8 dereferenceable(25) %call.i5.i.i431, i8 noundef signext 10)
          to label %_ZNSt3__14endlB7v170000IcNS_11char_traitsIcEEEERNS_13basic_ostreamIT_T0_EES7_.exit439 unwind label %lpad.i.i436

lpad.i.i436:                                      ; preds = %invoke.cont.i.i435, %_ZNSt3__14endlB7v170000IcNS_11char_traitsIcEEEERNS_13basic_ostreamIT_T0_EES7_.exit425
  %25 = landingpad { ptr, i32 }
          cleanup
  call void @_ZNSt3__16localeD1Ev(ptr noundef nonnull align 8 dereferenceable(8) %ref.tmp.i.i426) #19
  call void @llvm.lifetime.end.p0(i64 8, ptr nonnull %ref.tmp.i.i426) #19
  br label %common.resume

_ZNSt3__14endlB7v170000IcNS_11char_traitsIcEEEERNS_13basic_ostreamIT_T0_EES7_.exit439: ; preds = %invoke.cont.i.i435
  call void @_ZNSt3__16localeD1Ev(ptr noundef nonnull align 8 dereferenceable(8) %ref.tmp.i.i426) #19
  call void @llvm.lifetime.end.p0(i64 8, ptr nonnull %ref.tmp.i.i426) #19
  %call1.i437 = call noundef nonnull align 8 dereferenceable(8) ptr @_ZNSt3__113basic_ostreamIcNS_11char_traitsIcEEE3putEc(ptr noundef nonnull align 8 dereferenceable(8) %call1.i196, i8 noundef signext %call.i6.i.i434)
  %call2.i438 = call noundef nonnull align 8 dereferenceable(8) ptr @_ZNSt3__113basic_ostreamIcNS_11char_traitsIcEEE5flushEv(ptr noundef nonnull align 8 dereferenceable(8) %call1.i196)
  %call1.i199 = call noundef nonnull align 8 dereferenceable(8) ptr @_ZNSt3__124__put_character_sequenceB7v170000IcNS_11char_traitsIcEEEERNS_13basic_ostreamIT_T0_EES7_PKS4_m(ptr noundef nonnull align 8 dereferenceable(8) %add.ptr25, ptr noundef nonnull @.str.5, i64 noundef 4)
  %sub34 = add nsw i32 %lnum, -1
  %conv35 = sext i32 %sub34 to i64
  %__start_.i200 = getelementptr inbounds %"class.std::__1::deque", ptr %lines, i64 0, i32 1
  %26 = load i64, ptr %__start_.i200, align 8, !tbaa !37
  %add.i201 = add i64 %26, %conv35
  %__begin_.i.i202 = getelementptr inbounds %"struct.std::__1::__split_buffer", ptr %lines, i64 0, i32 1
  %27 = load ptr, ptr %__begin_.i.i202, align 8, !tbaa !45
  %div.i203 = udiv i64 %add.i201, 170
  %add.ptr.i204 = getelementptr inbounds ptr, ptr %27, i64 %div.i203
  %28 = load ptr, ptr %add.ptr.i204, align 8, !tbaa !13
  %rem.i205 = urem i64 %add.i201, 170
  %add.ptr2.i206 = getelementptr inbounds %"class.std::__1::basic_string", ptr %28, i64 %rem.i205
  %bf.load.i.i.i.i207 = load i8, ptr %add.ptr2.i206, align 8
  %bf.clear.i.i.i.i208 = and i8 %bf.load.i.i.i.i207, 1
  %tobool.i.not.i.i.i209 = icmp eq i8 %bf.clear.i.i.i.i208, 0
  %__data_.i.i.i.i210 = getelementptr inbounds %"struct.std::__1::basic_string<char>::__long", ptr %add.ptr2.i206, i64 0, i32 2
  %29 = load ptr, ptr %__data_.i.i.i.i210, align 8
  %__data_.i4.i.i.i211 = getelementptr inbounds %"struct.std::__1::basic_string<char>::__short", ptr %add.ptr2.i206, i64 0, i32 2
  %cond.i.i.i212 = select i1 %tobool.i.not.i.i.i209, ptr %__data_.i4.i.i.i211, ptr %29
  %__size_.i.i.i213 = getelementptr inbounds %"struct.std::__1::basic_string<char>::__long", ptr %add.ptr2.i206, i64 0, i32 1
  %30 = load i64, ptr %__size_.i.i.i213, align 8
  %bf.lshr.i.i.i214 = lshr i8 %bf.load.i.i.i.i207, 1
  %conv.i.i.i215 = zext i8 %bf.lshr.i.i.i214 to i64
  %cond.i.i216 = select i1 %tobool.i.not.i.i.i209, i64 %conv.i.i.i215, i64 %30
  %call2.i217 = call noundef nonnull align 8 dereferenceable(8) ptr @_ZNSt3__124__put_character_sequenceB7v170000IcNS_11char_traitsIcEEEERNS_13basic_ostreamIT_T0_EES7_PKS4_m(ptr noundef nonnull align 8 dereferenceable(8) %call1.i199, ptr noundef %cond.i.i.i212, i64 noundef %cond.i.i216)
  %vtable.i441 = load ptr, ptr %call2.i217, align 8, !tbaa !35
  %vbase.offset.ptr.i442 = getelementptr i8, ptr %vtable.i441, i64 -24
  %vbase.offset.i443 = load i64, ptr %vbase.offset.ptr.i442, align 8
  %add.ptr.i444 = getelementptr inbounds i8, ptr %call2.i217, i64 %vbase.offset.i443
  call void @llvm.lifetime.start.p0(i64 8, ptr nonnull %ref.tmp.i.i440) #19
  call void @_ZNKSt3__18ios_base6getlocEv(ptr nonnull sret(%"class.std::__1::locale") align 8 %ref.tmp.i.i440, ptr noundef nonnull align 8 dereferenceable(136) %add.ptr.i444)
  %call.i5.i.i445 = invoke noundef ptr @_ZNKSt3__16locale9use_facetERNS0_2idE(ptr noundef nonnull align 8 dereferenceable(8) %ref.tmp.i.i440, ptr noundef nonnull align 8 dereferenceable(12) @_ZNSt3__15ctypeIcE2idE)
          to label %invoke.cont.i.i449 unwind label %lpad.i.i450

invoke.cont.i.i449:                               ; preds = %_ZNSt3__14endlB7v170000IcNS_11char_traitsIcEEEERNS_13basic_ostreamIT_T0_EES7_.exit439
  %vtable.i.i.i446 = load ptr, ptr %call.i5.i.i445, align 8, !tbaa !35
  %vfn.i.i.i447 = getelementptr inbounds ptr, ptr %vtable.i.i.i446, i64 7
  %31 = load ptr, ptr %vfn.i.i.i447, align 8
  %call.i6.i.i448 = invoke noundef signext i8 %31(ptr noundef nonnull align 8 dereferenceable(25) %call.i5.i.i445, i8 noundef signext 10)
          to label %_ZNSt3__14endlB7v170000IcNS_11char_traitsIcEEEERNS_13basic_ostreamIT_T0_EES7_.exit453 unwind label %lpad.i.i450

lpad.i.i450:                                      ; preds = %invoke.cont.i.i449, %_ZNSt3__14endlB7v170000IcNS_11char_traitsIcEEEERNS_13basic_ostreamIT_T0_EES7_.exit439
  %32 = landingpad { ptr, i32 }
          cleanup
  call void @_ZNSt3__16localeD1Ev(ptr noundef nonnull align 8 dereferenceable(8) %ref.tmp.i.i440) #19
  call void @llvm.lifetime.end.p0(i64 8, ptr nonnull %ref.tmp.i.i440) #19
  br label %common.resume

_ZNSt3__14endlB7v170000IcNS_11char_traitsIcEEEERNS_13basic_ostreamIT_T0_EES7_.exit453: ; preds = %invoke.cont.i.i449
  call void @_ZNSt3__16localeD1Ev(ptr noundef nonnull align 8 dereferenceable(8) %ref.tmp.i.i440) #19
  call void @llvm.lifetime.end.p0(i64 8, ptr nonnull %ref.tmp.i.i440) #19
  %call1.i451 = call noundef nonnull align 8 dereferenceable(8) ptr @_ZNSt3__113basic_ostreamIcNS_11char_traitsIcEEE3putEc(ptr noundef nonnull align 8 dereferenceable(8) %call2.i217, i8 noundef signext %call.i6.i.i448)
  %call2.i452 = call noundef nonnull align 8 dereferenceable(8) ptr @_ZNSt3__113basic_ostreamIcNS_11char_traitsIcEEE5flushEv(ptr noundef nonnull align 8 dereferenceable(8) %call2.i217)
  %call1.i220 = call noundef nonnull align 8 dereferenceable(8) ptr @_ZNSt3__124__put_character_sequenceB7v170000IcNS_11char_traitsIcEEEERNS_13basic_ostreamIT_T0_EES7_PKS4_m(ptr noundef nonnull align 8 dereferenceable(8) %add.ptr25, ptr noundef nonnull @.str.6, i64 noundef 9)
  %bf.load.i.i.i.i221 = load i8, ptr %fname, align 8
  %bf.clear.i.i.i.i222 = and i8 %bf.load.i.i.i.i221, 1
  %tobool.i.not.i.i.i223 = icmp eq i8 %bf.clear.i.i.i.i222, 0
  %__data_.i.i.i.i224 = getelementptr inbounds %"struct.std::__1::basic_string<char>::__long", ptr %fname, i64 0, i32 2
  %33 = load ptr, ptr %__data_.i.i.i.i224, align 8
  %__data_.i4.i.i.i225 = getelementptr inbounds %"struct.std::__1::basic_string<char>::__short", ptr %fname, i64 0, i32 2
  %cond.i.i.i226 = select i1 %tobool.i.not.i.i.i223, ptr %__data_.i4.i.i.i225, ptr %33
  %__size_.i.i.i227 = getelementptr inbounds %"struct.std::__1::basic_string<char>::__long", ptr %fname, i64 0, i32 1
  %34 = load i64, ptr %__size_.i.i.i227, align 8
  %bf.lshr.i.i.i228 = lshr i8 %bf.load.i.i.i.i221, 1
  %conv.i.i.i229 = zext i8 %bf.lshr.i.i.i228 to i64
  %cond.i.i230 = select i1 %tobool.i.not.i.i.i223, i64 %conv.i.i.i229, i64 %34
  %call2.i231 = call noundef nonnull align 8 dereferenceable(8) ptr @_ZNSt3__124__put_character_sequenceB7v170000IcNS_11char_traitsIcEEEERNS_13basic_ostreamIT_T0_EES7_PKS4_m(ptr noundef nonnull align 8 dereferenceable(8) %call1.i220, ptr noundef %cond.i.i.i226, i64 noundef %cond.i.i230)
  %vtable.i455 = load ptr, ptr %call2.i231, align 8, !tbaa !35
  %vbase.offset.ptr.i456 = getelementptr i8, ptr %vtable.i455, i64 -24
  %vbase.offset.i457 = load i64, ptr %vbase.offset.ptr.i456, align 8
  %add.ptr.i458 = getelementptr inbounds i8, ptr %call2.i231, i64 %vbase.offset.i457
  call void @llvm.lifetime.start.p0(i64 8, ptr nonnull %ref.tmp.i.i454) #19
  call void @_ZNKSt3__18ios_base6getlocEv(ptr nonnull sret(%"class.std::__1::locale") align 8 %ref.tmp.i.i454, ptr noundef nonnull align 8 dereferenceable(136) %add.ptr.i458)
  %call.i5.i.i459 = invoke noundef ptr @_ZNKSt3__16locale9use_facetERNS0_2idE(ptr noundef nonnull align 8 dereferenceable(8) %ref.tmp.i.i454, ptr noundef nonnull align 8 dereferenceable(12) @_ZNSt3__15ctypeIcE2idE)
          to label %invoke.cont.i.i463 unwind label %lpad.i.i464

invoke.cont.i.i463:                               ; preds = %_ZNSt3__14endlB7v170000IcNS_11char_traitsIcEEEERNS_13basic_ostreamIT_T0_EES7_.exit453
  %vtable.i.i.i460 = load ptr, ptr %call.i5.i.i459, align 8, !tbaa !35
  %vfn.i.i.i461 = getelementptr inbounds ptr, ptr %vtable.i.i.i460, i64 7
  %35 = load ptr, ptr %vfn.i.i.i461, align 8
  %call.i6.i.i462 = invoke noundef signext i8 %35(ptr noundef nonnull align 8 dereferenceable(25) %call.i5.i.i459, i8 noundef signext 10)
          to label %_ZNSt3__14endlB7v170000IcNS_11char_traitsIcEEEERNS_13basic_ostreamIT_T0_EES7_.exit467 unwind label %lpad.i.i464

lpad.i.i464:                                      ; preds = %invoke.cont.i.i463, %_ZNSt3__14endlB7v170000IcNS_11char_traitsIcEEEERNS_13basic_ostreamIT_T0_EES7_.exit453
  %36 = landingpad { ptr, i32 }
          cleanup
  call void @_ZNSt3__16localeD1Ev(ptr noundef nonnull align 8 dereferenceable(8) %ref.tmp.i.i454) #19
  call void @llvm.lifetime.end.p0(i64 8, ptr nonnull %ref.tmp.i.i454) #19
  br label %common.resume

_ZNSt3__14endlB7v170000IcNS_11char_traitsIcEEEERNS_13basic_ostreamIT_T0_EES7_.exit467: ; preds = %invoke.cont.i.i463
  call void @_ZNSt3__16localeD1Ev(ptr noundef nonnull align 8 dereferenceable(8) %ref.tmp.i.i454) #19
  call void @llvm.lifetime.end.p0(i64 8, ptr nonnull %ref.tmp.i.i454) #19
  %call1.i465 = call noundef nonnull align 8 dereferenceable(8) ptr @_ZNSt3__113basic_ostreamIcNS_11char_traitsIcEEE3putEc(ptr noundef nonnull align 8 dereferenceable(8) %call2.i231, i8 noundef signext %call.i6.i.i462)
  %call2.i466 = call noundef nonnull align 8 dereferenceable(8) ptr @_ZNSt3__113basic_ostreamIcNS_11char_traitsIcEEE5flushEv(ptr noundef nonnull align 8 dereferenceable(8) %call2.i231)
  %call1.i234 = call noundef nonnull align 8 dereferenceable(8) ptr @_ZNSt3__124__put_character_sequenceB7v170000IcNS_11char_traitsIcEEEERNS_13basic_ostreamIT_T0_EES7_PKS4_m(ptr noundef nonnull align 8 dereferenceable(8) %add.ptr25, ptr noundef nonnull @.str.17, i64 noundef 62)
  %vtable.i469 = load ptr, ptr %call1.i234, align 8, !tbaa !35
  %vbase.offset.ptr.i470 = getelementptr i8, ptr %vtable.i469, i64 -24
  %vbase.offset.i471 = load i64, ptr %vbase.offset.ptr.i470, align 8
  %add.ptr.i472 = getelementptr inbounds i8, ptr %call1.i234, i64 %vbase.offset.i471
  call void @llvm.lifetime.start.p0(i64 8, ptr nonnull %ref.tmp.i.i468) #19
  call void @_ZNKSt3__18ios_base6getlocEv(ptr nonnull sret(%"class.std::__1::locale") align 8 %ref.tmp.i.i468, ptr noundef nonnull align 8 dereferenceable(136) %add.ptr.i472)
  %call.i5.i.i473 = invoke noundef ptr @_ZNKSt3__16locale9use_facetERNS0_2idE(ptr noundef nonnull align 8 dereferenceable(8) %ref.tmp.i.i468, ptr noundef nonnull align 8 dereferenceable(12) @_ZNSt3__15ctypeIcE2idE)
          to label %invoke.cont.i.i477 unwind label %lpad.i.i478

invoke.cont.i.i477:                               ; preds = %_ZNSt3__14endlB7v170000IcNS_11char_traitsIcEEEERNS_13basic_ostreamIT_T0_EES7_.exit467
  %vtable.i.i.i474 = load ptr, ptr %call.i5.i.i473, align 8, !tbaa !35
  %vfn.i.i.i475 = getelementptr inbounds ptr, ptr %vtable.i.i.i474, i64 7
  %37 = load ptr, ptr %vfn.i.i.i475, align 8
  %call.i6.i.i476 = invoke noundef signext i8 %37(ptr noundef nonnull align 8 dereferenceable(25) %call.i5.i.i473, i8 noundef signext 10)
          to label %_ZNSt3__14endlB7v170000IcNS_11char_traitsIcEEEERNS_13basic_ostreamIT_T0_EES7_.exit481 unwind label %lpad.i.i478

lpad.i.i478:                                      ; preds = %invoke.cont.i.i477, %_ZNSt3__14endlB7v170000IcNS_11char_traitsIcEEEERNS_13basic_ostreamIT_T0_EES7_.exit467
  %38 = landingpad { ptr, i32 }
          cleanup
  call void @_ZNSt3__16localeD1Ev(ptr noundef nonnull align 8 dereferenceable(8) %ref.tmp.i.i468) #19
  call void @llvm.lifetime.end.p0(i64 8, ptr nonnull %ref.tmp.i.i468) #19
  br label %common.resume

_ZNSt3__14endlB7v170000IcNS_11char_traitsIcEEEERNS_13basic_ostreamIT_T0_EES7_.exit481: ; preds = %invoke.cont.i.i477
  call void @_ZNSt3__16localeD1Ev(ptr noundef nonnull align 8 dereferenceable(8) %ref.tmp.i.i468) #19
  call void @llvm.lifetime.end.p0(i64 8, ptr nonnull %ref.tmp.i.i468) #19
  %call1.i479 = call noundef nonnull align 8 dereferenceable(8) ptr @_ZNSt3__113basic_ostreamIcNS_11char_traitsIcEEE3putEc(ptr noundef nonnull align 8 dereferenceable(8) %call1.i234, i8 noundef signext %call.i6.i.i476)
  %call2.i480 = call noundef nonnull align 8 dereferenceable(8) ptr @_ZNSt3__113basic_ostreamIcNS_11char_traitsIcEEE5flushEv(ptr noundef nonnull align 8 dereferenceable(8) %call1.i234)
  %call1.i237 = call noundef nonnull align 8 dereferenceable(8) ptr @_ZNSt3__124__put_character_sequenceB7v170000IcNS_11char_traitsIcEEEERNS_13basic_ostreamIT_T0_EES7_PKS4_m(ptr noundef nonnull align 8 dereferenceable(8) %add.ptr25, ptr noundef nonnull @.str.9, i64 noundef 32)
  %39 = load i32, ptr %ndim, align 8, !tbaa !14
  %call49 = call noundef nonnull align 8 dereferenceable(8) ptr @_ZNSt3__113basic_ostreamIcNS_11char_traitsIcEEElsEi(ptr noundef nonnull align 8 dereferenceable(8) %call1.i237, i32 noundef %39)
  %vtable.i483 = load ptr, ptr %call49, align 8, !tbaa !35
  %vbase.offset.ptr.i484 = getelementptr i8, ptr %vtable.i483, i64 -24
  %vbase.offset.i485 = load i64, ptr %vbase.offset.ptr.i484, align 8
  %add.ptr.i486 = getelementptr inbounds i8, ptr %call49, i64 %vbase.offset.i485
  call void @llvm.lifetime.start.p0(i64 8, ptr nonnull %ref.tmp.i.i482) #19
  call void @_ZNKSt3__18ios_base6getlocEv(ptr nonnull sret(%"class.std::__1::locale") align 8 %ref.tmp.i.i482, ptr noundef nonnull align 8 dereferenceable(136) %add.ptr.i486)
  %call.i5.i.i487 = invoke noundef ptr @_ZNKSt3__16locale9use_facetERNS0_2idE(ptr noundef nonnull align 8 dereferenceable(8) %ref.tmp.i.i482, ptr noundef nonnull align 8 dereferenceable(12) @_ZNSt3__15ctypeIcE2idE)
          to label %invoke.cont.i.i491 unwind label %lpad.i.i492

invoke.cont.i.i491:                               ; preds = %_ZNSt3__14endlB7v170000IcNS_11char_traitsIcEEEERNS_13basic_ostreamIT_T0_EES7_.exit481
  %vtable.i.i.i488 = load ptr, ptr %call.i5.i.i487, align 8, !tbaa !35
  %vfn.i.i.i489 = getelementptr inbounds ptr, ptr %vtable.i.i.i488, i64 7
  %40 = load ptr, ptr %vfn.i.i.i489, align 8
  %call.i6.i.i490 = invoke noundef signext i8 %40(ptr noundef nonnull align 8 dereferenceable(25) %call.i5.i.i487, i8 noundef signext 10)
          to label %_ZNSt3__14endlB7v170000IcNS_11char_traitsIcEEEERNS_13basic_ostreamIT_T0_EES7_.exit495 unwind label %lpad.i.i492

lpad.i.i492:                                      ; preds = %invoke.cont.i.i491, %_ZNSt3__14endlB7v170000IcNS_11char_traitsIcEEEERNS_13basic_ostreamIT_T0_EES7_.exit481
  %41 = landingpad { ptr, i32 }
          cleanup
  call void @_ZNSt3__16localeD1Ev(ptr noundef nonnull align 8 dereferenceable(8) %ref.tmp.i.i482) #19
  call void @llvm.lifetime.end.p0(i64 8, ptr nonnull %ref.tmp.i.i482) #19
  br label %common.resume

_ZNSt3__14endlB7v170000IcNS_11char_traitsIcEEEERNS_13basic_ostreamIT_T0_EES7_.exit495: ; preds = %invoke.cont.i.i491
  call void @_ZNSt3__16localeD1Ev(ptr noundef nonnull align 8 dereferenceable(8) %ref.tmp.i.i482) #19
  call void @llvm.lifetime.end.p0(i64 8, ptr nonnull %ref.tmp.i.i482) #19
  %call1.i493 = call noundef nonnull align 8 dereferenceable(8) ptr @_ZNSt3__113basic_ostreamIcNS_11char_traitsIcEEE3putEc(ptr noundef nonnull align 8 dereferenceable(8) %call49, i8 noundef signext %call.i6.i.i490)
  %call2.i494 = call noundef nonnull align 8 dereferenceable(8) ptr @_ZNSt3__113basic_ostreamIcNS_11char_traitsIcEEE5flushEv(ptr noundef nonnull align 8 dereferenceable(8) %call49)
  %call1.i240 = call noundef nonnull align 8 dereferenceable(8) ptr @_ZNSt3__124__put_character_sequenceB7v170000IcNS_11char_traitsIcEEEERNS_13basic_ostreamIT_T0_EES7_PKS4_m(ptr noundef nonnull align 8 dereferenceable(8) %add.ptr25, ptr noundef nonnull @.str.10, i64 noundef 27)
  %call53 = call noundef nonnull align 8 dereferenceable(8) ptr @_ZNSt3__113basic_ostreamIcNS_11char_traitsIcEEElsEi(ptr noundef nonnull align 8 dereferenceable(8) %call1.i240, i32 noundef %add)
  %vtable.i497 = load ptr, ptr %call53, align 8, !tbaa !35
  %vbase.offset.ptr.i498 = getelementptr i8, ptr %vtable.i497, i64 -24
  %vbase.offset.i499 = load i64, ptr %vbase.offset.ptr.i498, align 8
  %add.ptr.i500 = getelementptr inbounds i8, ptr %call53, i64 %vbase.offset.i499
  call void @llvm.lifetime.start.p0(i64 8, ptr nonnull %ref.tmp.i.i496) #19
  call void @_ZNKSt3__18ios_base6getlocEv(ptr nonnull sret(%"class.std::__1::locale") align 8 %ref.tmp.i.i496, ptr noundef nonnull align 8 dereferenceable(136) %add.ptr.i500)
  %call.i5.i.i501 = invoke noundef ptr @_ZNKSt3__16locale9use_facetERNS0_2idE(ptr noundef nonnull align 8 dereferenceable(8) %ref.tmp.i.i496, ptr noundef nonnull align 8 dereferenceable(12) @_ZNSt3__15ctypeIcE2idE)
          to label %invoke.cont.i.i505 unwind label %lpad.i.i506

invoke.cont.i.i505:                               ; preds = %_ZNSt3__14endlB7v170000IcNS_11char_traitsIcEEEERNS_13basic_ostreamIT_T0_EES7_.exit495
  %vtable.i.i.i502 = load ptr, ptr %call.i5.i.i501, align 8, !tbaa !35
  %vfn.i.i.i503 = getelementptr inbounds ptr, ptr %vtable.i.i.i502, i64 7
  %42 = load ptr, ptr %vfn.i.i.i503, align 8
  %call.i6.i.i504 = invoke noundef signext i8 %42(ptr noundef nonnull align 8 dereferenceable(25) %call.i5.i.i501, i8 noundef signext 10)
          to label %_ZNSt3__14endlB7v170000IcNS_11char_traitsIcEEEERNS_13basic_ostreamIT_T0_EES7_.exit509 unwind label %lpad.i.i506

lpad.i.i506:                                      ; preds = %invoke.cont.i.i505, %_ZNSt3__14endlB7v170000IcNS_11char_traitsIcEEEERNS_13basic_ostreamIT_T0_EES7_.exit495
  %43 = landingpad { ptr, i32 }
          cleanup
  call void @_ZNSt3__16localeD1Ev(ptr noundef nonnull align 8 dereferenceable(8) %ref.tmp.i.i496) #19
  call void @llvm.lifetime.end.p0(i64 8, ptr nonnull %ref.tmp.i.i496) #19
  br label %common.resume

_ZNSt3__14endlB7v170000IcNS_11char_traitsIcEEEERNS_13basic_ostreamIT_T0_EES7_.exit509: ; preds = %invoke.cont.i.i505
  call void @_ZNSt3__16localeD1Ev(ptr noundef nonnull align 8 dereferenceable(8) %ref.tmp.i.i496) #19
  call void @llvm.lifetime.end.p0(i64 8, ptr nonnull %ref.tmp.i.i496) #19
  %call1.i507 = call noundef nonnull align 8 dereferenceable(8) ptr @_ZNSt3__113basic_ostreamIcNS_11char_traitsIcEEE3putEc(ptr noundef nonnull align 8 dereferenceable(8) %call53, i8 noundef signext %call.i6.i.i504)
  %call2.i508 = call noundef nonnull align 8 dereferenceable(8) ptr @_ZNSt3__113basic_ostreamIcNS_11char_traitsIcEEE5flushEv(ptr noundef nonnull align 8 dereferenceable(8) %call53)
  %lnum_ndim = getelementptr inbounds %"class.PP::Variable", ptr %this, i64 0, i32 4
  %44 = load i32, ptr %lnum_ndim, align 8, !tbaa !25
  %cmp55 = icmp sgt i32 %44, 0
  br i1 %cmp55, label %if.then56, label %cleanup.cont.sink.split

if.then56:                                        ; preds = %_ZNSt3__14endlB7v170000IcNS_11char_traitsIcEEEERNS_13basic_ostreamIT_T0_EES7_.exit509
  %call1.i243 = call noundef nonnull align 8 dereferenceable(8) ptr @_ZNSt3__124__put_character_sequenceB7v170000IcNS_11char_traitsIcEEEERNS_13basic_ostreamIT_T0_EES7_PKS4_m(ptr noundef nonnull align 8 dereferenceable(8) %add.ptr25, ptr noundef nonnull @.str.11, i64 noundef 23)
  %45 = load i32, ptr %lnum_ndim, align 8, !tbaa !25
  %call60 = call noundef nonnull align 8 dereferenceable(8) ptr @_ZNSt3__113basic_ostreamIcNS_11char_traitsIcEEElsEi(ptr noundef nonnull align 8 dereferenceable(8) %call1.i243, i32 noundef %45)
  %call1.i245 = call noundef nonnull align 8 dereferenceable(8) ptr @_ZNSt3__124__put_character_sequenceB7v170000IcNS_11char_traitsIcEEEERNS_13basic_ostreamIT_T0_EES7_PKS4_m(ptr noundef nonnull align 8 dereferenceable(8) %call60, ptr noundef nonnull @.str.4, i64 noundef 1)
  %vtable.i511 = load ptr, ptr %call1.i245, align 8, !tbaa !35
  %vbase.offset.ptr.i512 = getelementptr i8, ptr %vtable.i511, i64 -24
  %vbase.offset.i513 = load i64, ptr %vbase.offset.ptr.i512, align 8
  %add.ptr.i514 = getelementptr inbounds i8, ptr %call1.i245, i64 %vbase.offset.i513
  call void @llvm.lifetime.start.p0(i64 8, ptr nonnull %ref.tmp.i.i510) #19
  call void @_ZNKSt3__18ios_base6getlocEv(ptr nonnull sret(%"class.std::__1::locale") align 8 %ref.tmp.i.i510, ptr noundef nonnull align 8 dereferenceable(136) %add.ptr.i514)
  %call.i5.i.i515 = invoke noundef ptr @_ZNKSt3__16locale9use_facetERNS0_2idE(ptr noundef nonnull align 8 dereferenceable(8) %ref.tmp.i.i510, ptr noundef nonnull align 8 dereferenceable(12) @_ZNSt3__15ctypeIcE2idE)
          to label %invoke.cont.i.i519 unwind label %lpad.i.i520

invoke.cont.i.i519:                               ; preds = %if.then56
  %vtable.i.i.i516 = load ptr, ptr %call.i5.i.i515, align 8, !tbaa !35
  %vfn.i.i.i517 = getelementptr inbounds ptr, ptr %vtable.i.i.i516, i64 7
  %46 = load ptr, ptr %vfn.i.i.i517, align 8
  %call.i6.i.i518 = invoke noundef signext i8 %46(ptr noundef nonnull align 8 dereferenceable(25) %call.i5.i.i515, i8 noundef signext 10)
          to label %_ZNSt3__14endlB7v170000IcNS_11char_traitsIcEEEERNS_13basic_ostreamIT_T0_EES7_.exit523 unwind label %lpad.i.i520

lpad.i.i520:                                      ; preds = %invoke.cont.i.i519, %if.then56
  %47 = landingpad { ptr, i32 }
          cleanup
  call void @_ZNSt3__16localeD1Ev(ptr noundef nonnull align 8 dereferenceable(8) %ref.tmp.i.i510) #19
  call void @llvm.lifetime.end.p0(i64 8, ptr nonnull %ref.tmp.i.i510) #19
  br label %common.resume

_ZNSt3__14endlB7v170000IcNS_11char_traitsIcEEEERNS_13basic_ostreamIT_T0_EES7_.exit523: ; preds = %invoke.cont.i.i519
  call void @_ZNSt3__16localeD1Ev(ptr noundef nonnull align 8 dereferenceable(8) %ref.tmp.i.i510) #19
  call void @llvm.lifetime.end.p0(i64 8, ptr nonnull %ref.tmp.i.i510) #19
  %call1.i521 = call noundef nonnull align 8 dereferenceable(8) ptr @_ZNSt3__113basic_ostreamIcNS_11char_traitsIcEEE3putEc(ptr noundef nonnull align 8 dereferenceable(8) %call1.i245, i8 noundef signext %call.i6.i.i518)
  %call2.i522 = call noundef nonnull align 8 dereferenceable(8) ptr @_ZNSt3__113basic_ostreamIcNS_11char_traitsIcEEE5flushEv(ptr noundef nonnull align 8 dereferenceable(8) %call1.i245)
  %call1.i248 = call noundef nonnull align 8 dereferenceable(8) ptr @_ZNSt3__124__put_character_sequenceB7v170000IcNS_11char_traitsIcEEEERNS_13basic_ostreamIT_T0_EES7_PKS4_m(ptr noundef nonnull align 8 dereferenceable(8) %add.ptr25, ptr noundef nonnull @.str.5, i64 noundef 4)
  %48 = load i32, ptr %lnum_ndim, align 8, !tbaa !25
  %sub66 = add nsw i32 %48, -1
  %conv67 = sext i32 %sub66 to i64
  %49 = load i64, ptr %__start_.i200, align 8, !tbaa !37
  %add.i250 = add i64 %49, %conv67
  %50 = load ptr, ptr %__begin_.i.i202, align 8, !tbaa !45
  %div.i252 = udiv i64 %add.i250, 170
  %add.ptr.i253 = getelementptr inbounds ptr, ptr %50, i64 %div.i252
  %51 = load ptr, ptr %add.ptr.i253, align 8, !tbaa !13
  %rem.i254 = urem i64 %add.i250, 170
  %add.ptr2.i255 = getelementptr inbounds %"class.std::__1::basic_string", ptr %51, i64 %rem.i254
  %bf.load.i.i.i.i256 = load i8, ptr %add.ptr2.i255, align 8
  %bf.clear.i.i.i.i257 = and i8 %bf.load.i.i.i.i256, 1
  %tobool.i.not.i.i.i258 = icmp eq i8 %bf.clear.i.i.i.i257, 0
  %__data_.i.i.i.i259 = getelementptr inbounds %"struct.std::__1::basic_string<char>::__long", ptr %add.ptr2.i255, i64 0, i32 2
  %52 = load ptr, ptr %__data_.i.i.i.i259, align 8
  %__data_.i4.i.i.i260 = getelementptr inbounds %"struct.std::__1::basic_string<char>::__short", ptr %add.ptr2.i255, i64 0, i32 2
  %cond.i.i.i261 = select i1 %tobool.i.not.i.i.i258, ptr %__data_.i4.i.i.i260, ptr %52
  %__size_.i.i.i262 = getelementptr inbounds %"struct.std::__1::basic_string<char>::__long", ptr %add.ptr2.i255, i64 0, i32 1
  %53 = load i64, ptr %__size_.i.i.i262, align 8
  %bf.lshr.i.i.i263 = lshr i8 %bf.load.i.i.i.i256, 1
  %conv.i.i.i264 = zext i8 %bf.lshr.i.i.i263 to i64
  %cond.i.i265 = select i1 %tobool.i.not.i.i.i258, i64 %conv.i.i.i264, i64 %53
  %call2.i266 = call noundef nonnull align 8 dereferenceable(8) ptr @_ZNSt3__124__put_character_sequenceB7v170000IcNS_11char_traitsIcEEEERNS_13basic_ostreamIT_T0_EES7_PKS4_m(ptr noundef nonnull align 8 dereferenceable(8) %call1.i248, ptr noundef %cond.i.i.i261, i64 noundef %cond.i.i265)
  %vtable.i525 = load ptr, ptr %call2.i266, align 8, !tbaa !35
  %vbase.offset.ptr.i526 = getelementptr i8, ptr %vtable.i525, i64 -24
  %vbase.offset.i527 = load i64, ptr %vbase.offset.ptr.i526, align 8
  %add.ptr.i528 = getelementptr inbounds i8, ptr %call2.i266, i64 %vbase.offset.i527
  call void @llvm.lifetime.start.p0(i64 8, ptr nonnull %ref.tmp.i.i524) #19
  call void @_ZNKSt3__18ios_base6getlocEv(ptr nonnull sret(%"class.std::__1::locale") align 8 %ref.tmp.i.i524, ptr noundef nonnull align 8 dereferenceable(136) %add.ptr.i528)
  %call.i5.i.i529 = invoke noundef ptr @_ZNKSt3__16locale9use_facetERNS0_2idE(ptr noundef nonnull align 8 dereferenceable(8) %ref.tmp.i.i524, ptr noundef nonnull align 8 dereferenceable(12) @_ZNSt3__15ctypeIcE2idE)
          to label %invoke.cont.i.i533 unwind label %lpad.i.i534

invoke.cont.i.i533:                               ; preds = %_ZNSt3__14endlB7v170000IcNS_11char_traitsIcEEEERNS_13basic_ostreamIT_T0_EES7_.exit523
  %vtable.i.i.i530 = load ptr, ptr %call.i5.i.i529, align 8, !tbaa !35
  %vfn.i.i.i531 = getelementptr inbounds ptr, ptr %vtable.i.i.i530, i64 7
  %54 = load ptr, ptr %vfn.i.i.i531, align 8
  %call.i6.i.i532 = invoke noundef signext i8 %54(ptr noundef nonnull align 8 dereferenceable(25) %call.i5.i.i529, i8 noundef signext 10)
          to label %_ZNSt3__14endlB7v170000IcNS_11char_traitsIcEEEERNS_13basic_ostreamIT_T0_EES7_.exit537 unwind label %lpad.i.i534

lpad.i.i534:                                      ; preds = %invoke.cont.i.i533, %_ZNSt3__14endlB7v170000IcNS_11char_traitsIcEEEERNS_13basic_ostreamIT_T0_EES7_.exit523
  %55 = landingpad { ptr, i32 }
          cleanup
  call void @_ZNSt3__16localeD1Ev(ptr noundef nonnull align 8 dereferenceable(8) %ref.tmp.i.i524) #19
  call void @llvm.lifetime.end.p0(i64 8, ptr nonnull %ref.tmp.i.i524) #19
