; ModuleID = '/local/mnt2/workspace2/mnadeem/llvm/llvm-test-suite/SingleSource/UnitTests/Vectorizer/runtime-checks.cpp'
source_filename = "/local/mnt2/workspace2/mnadeem/llvm/llvm-test-suite/SingleSource/UnitTests/Vectorizer/runtime-checks.cpp"
target datalayout = "e-m:e-p270:32:32-p271:32:32-p272:64:64-i64:64-f80:128-n8:16:32:64-S128"
target triple = "x86_64-unknown-linux-gnu"

%"class.std::__1::mersenne_twister_engine" = type { [624 x i64], i64 }
%"class.std::__1::basic_ostream" = type { ptr, %"class.std::__1::basic_ios.base" }
%"class.std::__1::basic_ios.base" = type <{ %"class.std::__1::ios_base", ptr, i32 }>
%"class.std::__1::ios_base" = type { ptr, i32, i64, i64, i32, i32, ptr, ptr, ptr, ptr, i64, i64, ptr, i64, i64, ptr, i64, i64 }
%"class.std::__1::locale::id" = type <{ %"struct.std::__1::once_flag", i32, [4 x i8] }>
%"struct.std::__1::once_flag" = type { i64 }
%"class.std::__1::function" = type { %"class.std::__1::__function::__value_func" }
%"class.std::__1::__function::__value_func" = type { %"struct.std::__1::aligned_storage<24>::type", ptr, [8 x i8] }
%"struct.std::__1::aligned_storage<24>::type" = type { [32 x i8] }
%"class.std::__1::function.2" = type { %"class.std::__1::__function::__value_func.5" }
%"class.std::__1::__function::__value_func.5" = type { %"struct.std::__1::aligned_storage<24>::type", ptr, [8 x i8] }
%"class.std::__1::function.8" = type { %"class.std::__1::__function::__value_func.11" }
%"class.std::__1::__function::__value_func.11" = type { %"struct.std::__1::aligned_storage<24>::type", ptr, [8 x i8] }
%"class.std::__1::function.46" = type { %"class.std::__1::__function::__value_func.49" }
%"class.std::__1::__function::__value_func.49" = type { %"struct.std::__1::aligned_storage<24>::type", ptr, [8 x i8] }
%"class.std::__1::function.52" = type { %"class.std::__1::__function::__value_func.55" }
%"class.std::__1::__function::__value_func.55" = type { %"struct.std::__1::aligned_storage<24>::type", ptr, [8 x i8] }
%"class.std::__1::function.58" = type { %"class.std::__1::__function::__value_func.61" }
%"class.std::__1::__function::__value_func.61" = type { %"struct.std::__1::aligned_storage<24>::type", ptr, [8 x i8] }
%"class.std::__1::locale" = type { ptr }
%"class.std::__1::basic_ostream<char>::sentry" = type { i8, ptr }
%"class.std::__1::basic_ios" = type <{ %"class.std::__1::ios_base", ptr, i32, [4 x i8] }>
%"class.std::__1::basic_string" = type { %"class.std::__1::__compressed_pair.70" }
%"class.std::__1::__compressed_pair.70" = type { %"struct.std::__1::__compressed_pair_elem.71" }
%"struct.std::__1::__compressed_pair_elem.71" = type { %"struct.std::__1::basic_string<char>::__rep" }
%"struct.std::__1::basic_string<char>::__rep" = type { %union.anon }
%union.anon = type { %"struct.std::__1::basic_string<char>::__long" }
%"struct.std::__1::basic_string<char>::__long" = type { %struct.anon, i64, ptr }
%struct.anon = type { i64 }
%"struct.std::__1::basic_string<char>::__short" = type { %struct.anon.72, [0 x i8], [23 x i8] }
%struct.anon.72 = type { i8 }
%"class.std::type_info" = type { ptr, ptr }
%"class.std::__1::__function::__func" = type <{ %"class.std::__1::__function::__base", %"class.std::__1::__function::__alloc_func", [7 x i8] }>
%"class.std::__1::__function::__base" = type { ptr }
%"class.std::__1::__function::__alloc_func" = type { %"class.std::__1::__compressed_pair.80" }
%"class.std::__1::__compressed_pair.80" = type { i8 }
%"class.std::__1::__function::__func.107" = type <{ %"class.std::__1::__function::__base", %"class.std::__1::__function::__alloc_func.108", [7 x i8] }>
%"class.std::__1::__function::__alloc_func.108" = type { %"class.std::__1::__compressed_pair.109" }
%"class.std::__1::__compressed_pair.109" = type { i8 }
%"class.std::__1::__function::__func.144" = type <{ %"class.std::__1::__function::__base.6", %"class.std::__1::__function::__alloc_func.145", [7 x i8] }>
%"class.std::__1::__function::__base.6" = type { ptr }
%"class.std::__1::__function::__alloc_func.145" = type { %"class.std::__1::__compressed_pair.80" }
%"class.std::__1::__function::__func.155" = type <{ %"class.std::__1::__function::__base.6", %"class.std::__1::__function::__alloc_func.156", [7 x i8] }>
%"class.std::__1::__function::__alloc_func.156" = type { %"class.std::__1::__compressed_pair.109" }
%"class.std::__1::__function::__func.173" = type <{ %"class.std::__1::__function::__base.12", %"class.std::__1::__function::__alloc_func.174", [7 x i8] }>
%"class.std::__1::__function::__base.12" = type { ptr }
%"class.std::__1::__function::__alloc_func.174" = type { %"class.std::__1::__compressed_pair.80" }
%"class.std::__1::__function::__func.184" = type <{ %"class.std::__1::__function::__base.12", %"class.std::__1::__function::__alloc_func.185", [7 x i8] }>
%"class.std::__1::__function::__alloc_func.185" = type { %"class.std::__1::__compressed_pair.109" }
%"class.std::__1::__function::__func.198" = type <{ %"class.std::__1::__function::__base", %"class.std::__1::__function::__alloc_func.199", [7 x i8] }>
%"class.std::__1::__function::__alloc_func.199" = type { %"class.std::__1::__compressed_pair.200" }
%"class.std::__1::__compressed_pair.200" = type { i8 }
%"class.std::__1::__function::__func.231" = type <{ %"class.std::__1::__function::__base", %"class.std::__1::__function::__alloc_func.232", [7 x i8] }>
%"class.std::__1::__function::__alloc_func.232" = type { %"class.std::__1::__compressed_pair.233" }
%"class.std::__1::__compressed_pair.233" = type { i8 }
%"class.std::__1::__function::__func.261" = type <{ %"class.std::__1::__function::__base.6", %"class.std::__1::__function::__alloc_func.262", [7 x i8] }>
%"class.std::__1::__function::__alloc_func.262" = type { %"class.std::__1::__compressed_pair.200" }
%"class.std::__1::__function::__func.272" = type <{ %"class.std::__1::__function::__base.6", %"class.std::__1::__function::__alloc_func.273", [7 x i8] }>
%"class.std::__1::__function::__alloc_func.273" = type { %"class.std::__1::__compressed_pair.233" }
%"class.std::__1::__function::__func.283" = type <{ %"class.std::__1::__function::__base.12", %"class.std::__1::__function::__alloc_func.284", [7 x i8] }>
%"class.std::__1::__function::__alloc_func.284" = type { %"class.std::__1::__compressed_pair.200" }
%"class.std::__1::__function::__func.294" = type <{ %"class.std::__1::__function::__base.12", %"class.std::__1::__function::__alloc_func.295", [7 x i8] }>
%"class.std::__1::__function::__alloc_func.295" = type { %"class.std::__1::__compressed_pair.233" }
%"class.std::__1::__function::__func.308" = type <{ %"class.std::__1::__function::__base", %"class.std::__1::__function::__alloc_func.309", [7 x i8] }>
%"class.std::__1::__function::__alloc_func.309" = type { %"class.std::__1::__compressed_pair.310" }
%"class.std::__1::__compressed_pair.310" = type { i8 }
%"class.std::__1::__function::__func.341" = type <{ %"class.std::__1::__function::__base", %"class.std::__1::__function::__alloc_func.342", [7 x i8] }>
%"class.std::__1::__function::__alloc_func.342" = type { %"class.std::__1::__compressed_pair.343" }
%"class.std::__1::__compressed_pair.343" = type { i8 }
%"class.std::__1::__function::__func.371" = type <{ %"class.std::__1::__function::__base.6", %"class.std::__1::__function::__alloc_func.372", [7 x i8] }>
%"class.std::__1::__function::__alloc_func.372" = type { %"class.std::__1::__compressed_pair.310" }
%"class.std::__1::__function::__func.382" = type <{ %"class.std::__1::__function::__base.6", %"class.std::__1::__function::__alloc_func.383", [7 x i8] }>
%"class.std::__1::__function::__alloc_func.383" = type { %"class.std::__1::__compressed_pair.343" }
%"class.std::__1::__function::__func.393" = type <{ %"class.std::__1::__function::__base.12", %"class.std::__1::__function::__alloc_func.394", [7 x i8] }>
%"class.std::__1::__function::__alloc_func.394" = type { %"class.std::__1::__compressed_pair.310" }
%"class.std::__1::__function::__func.404" = type <{ %"class.std::__1::__function::__base.12", %"class.std::__1::__function::__alloc_func.405", [7 x i8] }>
%"class.std::__1::__function::__alloc_func.405" = type { %"class.std::__1::__compressed_pair.343" }
%"class.std::__1::__function::__func.418" = type <{ %"class.std::__1::__function::__base", %"class.std::__1::__function::__alloc_func.419", [7 x i8] }>
%"class.std::__1::__function::__alloc_func.419" = type { %"class.std::__1::__compressed_pair.420" }
%"class.std::__1::__compressed_pair.420" = type { i8 }
%"class.std::__1::__function::__func.451" = type <{ %"class.std::__1::__function::__base", %"class.std::__1::__function::__alloc_func.452", [7 x i8] }>
%"class.std::__1::__function::__alloc_func.452" = type { %"class.std::__1::__compressed_pair.453" }
%"class.std::__1::__compressed_pair.453" = type { i8 }
%"class.std::__1::__function::__func.481" = type <{ %"class.std::__1::__function::__base.6", %"class.std::__1::__function::__alloc_func.482", [7 x i8] }>
%"class.std::__1::__function::__alloc_func.482" = type { %"class.std::__1::__compressed_pair.420" }
%"class.std::__1::__function::__func.492" = type <{ %"class.std::__1::__function::__base.6", %"class.std::__1::__function::__alloc_func.493", [7 x i8] }>
%"class.std::__1::__function::__alloc_func.493" = type { %"class.std::__1::__compressed_pair.453" }
%"class.std::__1::__function::__func.503" = type <{ %"class.std::__1::__function::__base.12", %"class.std::__1::__function::__alloc_func.504", [7 x i8] }>
%"class.std::__1::__function::__alloc_func.504" = type { %"class.std::__1::__compressed_pair.420" }
%"class.std::__1::__function::__func.514" = type <{ %"class.std::__1::__function::__base.12", %"class.std::__1::__function::__alloc_func.515", [7 x i8] }>
%"class.std::__1::__function::__alloc_func.515" = type { %"class.std::__1::__compressed_pair.453" }
%"class.std::__1::__function::__func.528" = type <{ %"class.std::__1::__function::__base", %"class.std::__1::__function::__alloc_func.529", [7 x i8] }>
%"class.std::__1::__function::__alloc_func.529" = type { %"class.std::__1::__compressed_pair.530" }
%"class.std::__1::__compressed_pair.530" = type { i8 }
%"class.std::__1::__function::__func.561" = type <{ %"class.std::__1::__function::__base", %"class.std::__1::__function::__alloc_func.562", [7 x i8] }>
%"class.std::__1::__function::__alloc_func.562" = type { %"class.std::__1::__compressed_pair.563" }
%"class.std::__1::__compressed_pair.563" = type { i8 }
%"class.std::__1::__function::__func.591" = type <{ %"class.std::__1::__function::__base.6", %"class.std::__1::__function::__alloc_func.592", [7 x i8] }>
%"class.std::__1::__function::__alloc_func.592" = type { %"class.std::__1::__compressed_pair.530" }
%"class.std::__1::__function::__func.602" = type <{ %"class.std::__1::__function::__base.6", %"class.std::__1::__function::__alloc_func.603", [7 x i8] }>
%"class.std::__1::__function::__alloc_func.603" = type { %"class.std::__1::__compressed_pair.563" }
%"class.std::__1::__function::__func.613" = type <{ %"class.std::__1::__function::__base.12", %"class.std::__1::__function::__alloc_func.614", [7 x i8] }>
%"class.std::__1::__function::__alloc_func.614" = type { %"class.std::__1::__compressed_pair.530" }
%"class.std::__1::__function::__func.624" = type <{ %"class.std::__1::__function::__base.12", %"class.std::__1::__function::__alloc_func.625", [7 x i8] }>
%"class.std::__1::__function::__alloc_func.625" = type { %"class.std::__1::__compressed_pair.563" }
%"class.std::__1::__function::__func.638" = type <{ %"class.std::__1::__function::__base", %"class.std::__1::__function::__alloc_func.639", [7 x i8] }>
%"class.std::__1::__function::__alloc_func.639" = type { %"class.std::__1::__compressed_pair.640" }
%"class.std::__1::__compressed_pair.640" = type { i8 }
%"class.std::__1::__function::__func.671" = type <{ %"class.std::__1::__function::__base", %"class.std::__1::__function::__alloc_func.672", [7 x i8] }>
%"class.std::__1::__function::__alloc_func.672" = type { %"class.std::__1::__compressed_pair.673" }
%"class.std::__1::__compressed_pair.673" = type { i8 }
%"class.std::__1::__function::__func.701" = type <{ %"class.std::__1::__function::__base.6", %"class.std::__1::__function::__alloc_func.702", [7 x i8] }>
%"class.std::__1::__function::__alloc_func.702" = type { %"class.std::__1::__compressed_pair.640" }
%"class.std::__1::__function::__func.712" = type <{ %"class.std::__1::__function::__base.6", %"class.std::__1::__function::__alloc_func.713", [7 x i8] }>
%"class.std::__1::__function::__alloc_func.713" = type { %"class.std::__1::__compressed_pair.673" }
%"class.std::__1::__function::__func.723" = type <{ %"class.std::__1::__function::__base.12", %"class.std::__1::__function::__alloc_func.724", [7 x i8] }>
%"class.std::__1::__function::__alloc_func.724" = type { %"class.std::__1::__compressed_pair.640" }
%"class.std::__1::__function::__func.734" = type <{ %"class.std::__1::__function::__base.12", %"class.std::__1::__function::__alloc_func.735", [7 x i8] }>
%"class.std::__1::__function::__alloc_func.735" = type { %"class.std::__1::__compressed_pair.673" }
%"class.std::__1::__function::__func.748" = type <{ %"class.std::__1::__function::__base", %"class.std::__1::__function::__alloc_func.749", [7 x i8] }>
%"class.std::__1::__function::__alloc_func.749" = type { %"class.std::__1::__compressed_pair.750" }
%"class.std::__1::__compressed_pair.750" = type { i8 }
%"class.std::__1::__function::__func.781" = type <{ %"class.std::__1::__function::__base", %"class.std::__1::__function::__alloc_func.782", [7 x i8] }>
%"class.std::__1::__function::__alloc_func.782" = type { %"class.std::__1::__compressed_pair.783" }
%"class.std::__1::__compressed_pair.783" = type { i8 }
%"class.std::__1::__function::__func.811" = type <{ %"class.std::__1::__function::__base.6", %"class.std::__1::__function::__alloc_func.812", [7 x i8] }>
%"class.std::__1::__function::__alloc_func.812" = type { %"class.std::__1::__compressed_pair.750" }
%"class.std::__1::__function::__func.822" = type <{ %"class.std::__1::__function::__base.6", %"class.std::__1::__function::__alloc_func.823", [7 x i8] }>
%"class.std::__1::__function::__alloc_func.823" = type { %"class.std::__1::__compressed_pair.783" }
%"class.std::__1::__function::__func.833" = type <{ %"class.std::__1::__function::__base.12", %"class.std::__1::__function::__alloc_func.834", [7 x i8] }>
%"class.std::__1::__function::__alloc_func.834" = type { %"class.std::__1::__compressed_pair.750" }
%"class.std::__1::__function::__func.844" = type <{ %"class.std::__1::__function::__base.12", %"class.std::__1::__function::__alloc_func.845", [7 x i8] }>
%"class.std::__1::__function::__alloc_func.845" = type { %"class.std::__1::__compressed_pair.783" }
%"class.std::__1::__function::__func.858" = type <{ %"class.std::__1::__function::__base", %"class.std::__1::__function::__alloc_func.859", [7 x i8] }>
%"class.std::__1::__function::__alloc_func.859" = type { %"class.std::__1::__compressed_pair.860" }
%"class.std::__1::__compressed_pair.860" = type { i8 }
%"class.std::__1::__function::__func.891" = type <{ %"class.std::__1::__function::__base", %"class.std::__1::__function::__alloc_func.892", [7 x i8] }>
%"class.std::__1::__function::__alloc_func.892" = type { %"class.std::__1::__compressed_pair.893" }
%"class.std::__1::__compressed_pair.893" = type { i8 }
%"class.std::__1::__function::__func.921" = type <{ %"class.std::__1::__function::__base.6", %"class.std::__1::__function::__alloc_func.922", [7 x i8] }>
%"class.std::__1::__function::__alloc_func.922" = type { %"class.std::__1::__compressed_pair.860" }
%"class.std::__1::__function::__func.932" = type <{ %"class.std::__1::__function::__base.6", %"class.std::__1::__function::__alloc_func.933", [7 x i8] }>
%"class.std::__1::__function::__alloc_func.933" = type { %"class.std::__1::__compressed_pair.893" }
%"class.std::__1::__function::__func.943" = type <{ %"class.std::__1::__function::__base.12", %"class.std::__1::__function::__alloc_func.944", [7 x i8] }>
%"class.std::__1::__function::__alloc_func.944" = type { %"class.std::__1::__compressed_pair.860" }
%"class.std::__1::__function::__func.954" = type <{ %"class.std::__1::__function::__base.12", %"class.std::__1::__function::__alloc_func.955", [7 x i8] }>
%"class.std::__1::__function::__alloc_func.955" = type { %"class.std::__1::__compressed_pair.893" }
%"class.std::__1::__function::__func.969" = type <{ %"class.std::__1::__function::__base.50", %"class.std::__1::__function::__alloc_func.970", [7 x i8] }>
%"class.std::__1::__function::__base.50" = type { ptr }
%"class.std::__1::__function::__alloc_func.970" = type { %"class.std::__1::__compressed_pair.971" }
%"class.std::__1::__compressed_pair.971" = type { i8 }
%"class.std::__1::__function::__func.1002" = type <{ %"class.std::__1::__function::__base.50", %"class.std::__1::__function::__alloc_func.1003", [7 x i8] }>
%"class.std::__1::__function::__alloc_func.1003" = type { %"class.std::__1::__compressed_pair.1004" }
%"class.std::__1::__compressed_pair.1004" = type { i8 }
%"class.std::__1::__function::__func.1033" = type <{ %"class.std::__1::__function::__base.56", %"class.std::__1::__function::__alloc_func.1034", [7 x i8] }>
%"class.std::__1::__function::__base.56" = type { ptr }
%"class.std::__1::__function::__alloc_func.1034" = type { %"class.std::__1::__compressed_pair.971" }
%"class.std::__1::__function::__func.1044" = type <{ %"class.std::__1::__function::__base.56", %"class.std::__1::__function::__alloc_func.1045", [7 x i8] }>
%"class.std::__1::__function::__alloc_func.1045" = type { %"class.std::__1::__compressed_pair.1004" }
%"class.std::__1::__function::__func.1056" = type <{ %"class.std::__1::__function::__base.62", %"class.std::__1::__function::__alloc_func.1057", [7 x i8] }>
%"class.std::__1::__function::__base.62" = type { ptr }
%"class.std::__1::__function::__alloc_func.1057" = type { %"class.std::__1::__compressed_pair.971" }
%"class.std::__1::__function::__func.1067" = type <{ %"class.std::__1::__function::__base.62", %"class.std::__1::__function::__alloc_func.1068", [7 x i8] }>
%"class.std::__1::__function::__alloc_func.1068" = type { %"class.std::__1::__compressed_pair.1004" }
%"class.std::__1::__function::__func.1081" = type <{ %"class.std::__1::__function::__base.56", %"class.std::__1::__function::__alloc_func.1082", [7 x i8] }>
%"class.std::__1::__function::__alloc_func.1082" = type { %"class.std::__1::__compressed_pair.1083" }
%"class.std::__1::__compressed_pair.1083" = type { i8 }
%"class.std::__1::__function::__func.1114" = type <{ %"class.std::__1::__function::__base.56", %"class.std::__1::__function::__alloc_func.1115", [7 x i8] }>
%"class.std::__1::__function::__alloc_func.1115" = type { %"class.std::__1::__compressed_pair.1116" }
%"class.std::__1::__compressed_pair.1116" = type { i8 }
%"class.std::__1::__function::__func.1144" = type <{ %"class.std::__1::__function::__base.50", %"class.std::__1::__function::__alloc_func.1145", [7 x i8] }>
%"class.std::__1::__function::__alloc_func.1145" = type { %"class.std::__1::__compressed_pair.1083" }
%"class.std::__1::__function::__func.1155" = type <{ %"class.std::__1::__function::__base.50", %"class.std::__1::__function::__alloc_func.1156", [7 x i8] }>
%"class.std::__1::__function::__alloc_func.1156" = type { %"class.std::__1::__compressed_pair.1116" }
%"class.std::__1::__function::__func.1166" = type <{ %"class.std::__1::__function::__base.62", %"class.std::__1::__function::__alloc_func.1167", [7 x i8] }>
%"class.std::__1::__function::__alloc_func.1167" = type { %"class.std::__1::__compressed_pair.1083" }
%"class.std::__1::__function::__func.1177" = type <{ %"class.std::__1::__function::__base.62", %"class.std::__1::__function::__alloc_func.1178", [7 x i8] }>
%"class.std::__1::__function::__alloc_func.1178" = type { %"class.std::__1::__compressed_pair.1116" }

$_ZNSt3__1lsB7v170000INS_11char_traitsIcEEEERNS_13basic_ostreamIcT_EES6_PKc = comdat any

$_ZNSt3__124__put_character_sequenceB7v170000IcNS_11char_traitsIcEEEERNS_13basic_ostreamIT_T0_EES7_PKS4_m = comdat any

$_ZNSt3__116__pad_and_outputB7v170000IcNS_11char_traitsIcEEEENS_19ostreambuf_iteratorIT_T0_EES6_PKS4_S8_S8_RNS_8ios_baseES4_ = comdat any

$__clang_call_terminate = comdat any

$_ZNKSt3__18functionIFvPhS1_jEEclES1_S1_j = comdat any

$_ZNSt3__125__throw_bad_function_callB7v170000Ev = comdat any

$_ZNSt3__117bad_function_callD0Ev = comdat any

$_ZNKSt3__18functionIFvPjS1_jEEclES1_S1_j = comdat any

$_ZNKSt3__18functionIFvPmS1_jEEclES1_S1_j = comdat any

$_ZNSt3__110__function6__baseIFvPhS2_jEED2Ev = comdat any

$_ZNSt3__110__function6__baseIFvPjS2_jEED2Ev = comdat any

$_ZNSt3__110__function6__baseIFvPmS2_jEED2Ev = comdat any

$_ZNKSt3__18functionIFvPjS1_S1_jEEclES1_S1_S1_j = comdat any

$_ZNKSt3__18functionIFvPhS1_S1_jEEclES1_S1_S1_j = comdat any

$_ZNKSt3__18functionIFvPmS1_S1_jEEclES1_S1_S1_j = comdat any

$_ZNSt3__110__function6__baseIFvPhS2_S2_jEED2Ev = comdat any

$_ZNSt3__110__function6__baseIFvPjS2_S2_jEED2Ev = comdat any

$_ZNSt3__110__function6__baseIFvPmS2_S2_jEED2Ev = comdat any

$_ZTSNSt3__117bad_function_callE = comdat any

$_ZTINSt3__117bad_function_callE = comdat any

$_ZTVNSt3__117bad_function_callE = comdat any

$_ZTSNSt3__110__function6__baseIFvPhS2_jEEE = comdat any

$_ZTINSt3__110__function6__baseIFvPhS2_jEEE = comdat any

$_ZTSNSt3__110__function6__baseIFvPjS2_jEEE = comdat any

$_ZTINSt3__110__function6__baseIFvPjS2_jEEE = comdat any

$_ZTSNSt3__110__function6__baseIFvPmS2_jEEE = comdat any

$_ZTINSt3__110__function6__baseIFvPmS2_jEEE = comdat any

$_ZTSNSt3__110__function6__baseIFvPjS2_S2_jEEE = comdat any

$_ZTINSt3__110__function6__baseIFvPjS2_S2_jEEE = comdat any

$_ZTSNSt3__110__function6__baseIFvPhS2_S2_jEEE = comdat any

$_ZTINSt3__110__function6__baseIFvPhS2_S2_jEEE = comdat any

$_ZTSNSt3__110__function6__baseIFvPmS2_S2_jEEE = comdat any

$_ZTINSt3__110__function6__baseIFvPmS2_S2_jEEE = comdat any

@_ZL3rng = internal unnamed_addr global %"class.std::__1::mersenne_twister_engine" zeroinitializer, align 8
@.str = private unnamed_addr constant [33 x i8] c"1 read, 1 write, step 1, uint8_t\00", align 1
@.str.1 = private unnamed_addr constant [34 x i8] c"1 read, 1 write, step 1, uint32_t\00", align 1
@.str.2 = private unnamed_addr constant [34 x i8] c"1 read, 1 write, step 1, uint64_t\00", align 1
@.str.3 = private unnamed_addr constant [35 x i8] c"1 read, 1 write, offset 3, uint8_t\00", align 1
@.str.4 = private unnamed_addr constant [36 x i8] c"1 read, 1 write, offset 3, uint32_t\00", align 1
@.str.5 = private unnamed_addr constant [36 x i8] c"1 read, 1 write, offset 3, uint64_t\00", align 1
@.str.6 = private unnamed_addr constant [36 x i8] c"1 read, 1 write, offset -3, uint8_t\00", align 1
@.str.7 = private unnamed_addr constant [37 x i8] c"1 read, 1 write, offset -3, uint32_t\00", align 1
@.str.8 = private unnamed_addr constant [37 x i8] c"1 read, 1 write, offset -3, uint64_t\00", align 1
@.str.9 = private unnamed_addr constant [43 x i8] c"1 read, 1 write, index count down, uint8_t\00", align 1
@.str.10 = private unnamed_addr constant [44 x i8] c"1 read, 1 write, index count down, uint32_t\00", align 1
@.str.11 = private unnamed_addr constant [44 x i8] c"1 read, 1 write, index count down, uint64_t\00", align 1
@.str.12 = private unnamed_addr constant [45 x i8] c"1 read, 1 write, index count down 2, uint8_t\00", align 1
@.str.13 = private unnamed_addr constant [46 x i8] c"1 read, 1 write, index count down 2, uint32_t\00", align 1
@.str.14 = private unnamed_addr constant [46 x i8] c"1 read, 1 write, index count down 2, uint64_t\00", align 1
@.str.15 = private unnamed_addr constant [56 x i8] c"1 read, 1 write, 2 inductions, different steps, uint8_t\00", align 1
@.str.16 = private unnamed_addr constant [57 x i8] c"1 read, 1 write, 2 inductions, different steps, uint32_t\00", align 1
@.str.17 = private unnamed_addr constant [57 x i8] c"1 read, 1 write, 2 inductions, different steps, uint64_t\00", align 1
@.str.18 = private unnamed_addr constant [48 x i8] c"1 read, 1 write, induction increment 2, uint8_t\00", align 1
@.str.19 = private unnamed_addr constant [49 x i8] c"1 read, 1 write, induction increment 2, uint32_t\00", align 1
@.str.20 = private unnamed_addr constant [49 x i8] c"1 read, 1 write, induction increment 2, uint64_t\00", align 1
@.str.21 = private unnamed_addr constant [54 x i8] c"1 read, 1 write to invariant address, step 1, uint8_t\00", align 1
@.str.22 = private unnamed_addr constant [55 x i8] c"1 read, 1 write to invariant address, step 1, uint32_t\00", align 1
@.str.23 = private unnamed_addr constant [55 x i8] c"1 read, 1 write to invariant address, step 1, uint64_t\00", align 1
@.str.24 = private unnamed_addr constant [43 x i8] c"2 reads, 1 write, simple indices, uint32_t\00", align 1
@.str.25 = private unnamed_addr constant [42 x i8] c"2 reads, 1 write, simple indices, uint8_t\00", align 1
@.str.26 = private unnamed_addr constant [43 x i8] c"2 reads, 1 write, simple indices, uint64_t\00", align 1
@.str.27 = private unnamed_addr constant [42 x i8] c"1 read, 2 writes, simple indices, uint8_t\00", align 1
@.str.28 = private unnamed_addr constant [43 x i8] c"1 read, 2 writes, simple indices, uint32_t\00", align 1
@.str.29 = private unnamed_addr constant [43 x i8] c"1 read, 2 writes, simple indices, uint64_t\00", align 1
@_ZNSt3__14coutE = external global %"class.std::__1::basic_ostream", align 8
@.str.30 = private unnamed_addr constant [10 x i8] c"Checking \00", align 1
@.str.31 = private unnamed_addr constant [2 x i8] c"\0A\00", align 1
@_ZNSt3__15ctypeIcE2idE = external global %"class.std::__1::locale::id", align 8
@_ZTVN10__cxxabiv120__si_class_type_infoE = external global ptr
@_ZTSNSt3__117bad_function_callE = linkonce_odr dso_local constant [28 x i8] c"NSt3__117bad_function_callE\00", comdat, align 1
@_ZTISt9exception = external constant ptr
@_ZTINSt3__117bad_function_callE = linkonce_odr dso_local constant { ptr, ptr, ptr } { ptr getelementptr inbounds (ptr, ptr @_ZTVN10__cxxabiv120__si_class_type_infoE, i64 2), ptr @_ZTSNSt3__117bad_function_callE, ptr @_ZTISt9exception }, comdat, align 8
@_ZTVNSt3__117bad_function_callE = linkonce_odr dso_local unnamed_addr constant { [5 x ptr] } { [5 x ptr] [ptr null, ptr @_ZTINSt3__117bad_function_callE, ptr @_ZNSt9exceptionD2Ev, ptr @_ZNSt3__117bad_function_callD0Ev, ptr @_ZNKSt9exception4whatEv] }, comdat, align 8
@_ZNSt3__14cerrE = external global %"class.std::__1::basic_ostream", align 8
@.str.33 = private unnamed_addr constant [24 x i8] c"Miscompare with offset \00", align 1
@"_ZTVNSt3__110__function6__funcIZ4mainE3$_0NS_9allocatorIS2_EEFvPhS5_jEEE" = internal unnamed_addr constant { [11 x ptr] } { [11 x ptr] [ptr null, ptr @"_ZTINSt3__110__function6__funcIZ4mainE3$_0NS_9allocatorIS2_EEFvPhS5_jEEE", ptr @_ZNSt3__110__function6__baseIFvPhS2_jEED2Ev, ptr @"_ZNSt3__110__function6__funcIZ4mainE3$_0NS_9allocatorIS2_EEFvPhS5_jEED0Ev", ptr @"_ZNKSt3__110__function6__funcIZ4mainE3$_0NS_9allocatorIS2_EEFvPhS5_jEE7__cloneEv", ptr @"_ZNKSt3__110__function6__funcIZ4mainE3$_0NS_9allocatorIS2_EEFvPhS5_jEE7__cloneEPNS0_6__baseIS6_EE", ptr @"_ZNSt3__110__function6__funcIZ4mainE3$_0NS_9allocatorIS2_EEFvPhS5_jEE7destroyEv", ptr @"_ZNSt3__110__function6__funcIZ4mainE3$_0NS_9allocatorIS2_EEFvPhS5_jEE18destroy_deallocateEv", ptr @"_ZNSt3__110__function6__funcIZ4mainE3$_0NS_9allocatorIS2_EEFvPhS5_jEEclEOS5_S8_Oj", ptr @"_ZNKSt3__110__function6__funcIZ4mainE3$_0NS_9allocatorIS2_EEFvPhS5_jEE6targetERKSt9type_info", ptr @"_ZNKSt3__110__function6__funcIZ4mainE3$_0NS_9allocatorIS2_EEFvPhS5_jEE11target_typeEv"] }, align 8
@"_ZTSNSt3__110__function6__funcIZ4mainE3$_0NS_9allocatorIS2_EEFvPhS5_jEEE" = internal constant [69 x i8] c"NSt3__110__function6__funcIZ4mainE3$_0NS_9allocatorIS2_EEFvPhS5_jEEE\00", align 1
@_ZTVN10__cxxabiv117__class_type_infoE = external global ptr
@_ZTSNSt3__110__function6__baseIFvPhS2_jEEE = linkonce_odr dso_local constant [39 x i8] c"NSt3__110__function6__baseIFvPhS2_jEEE\00", comdat, align 1
@_ZTINSt3__110__function6__baseIFvPhS2_jEEE = linkonce_odr dso_local constant { ptr, ptr } { ptr getelementptr inbounds (ptr, ptr @_ZTVN10__cxxabiv117__class_type_infoE, i64 2), ptr @_ZTSNSt3__110__function6__baseIFvPhS2_jEEE }, comdat, align 8
@"_ZTINSt3__110__function6__funcIZ4mainE3$_0NS_9allocatorIS2_EEFvPhS5_jEEE" = internal constant { ptr, ptr, ptr } { ptr getelementptr inbounds (ptr, ptr @_ZTVN10__cxxabiv120__si_class_type_infoE, i64 2), ptr @"_ZTSNSt3__110__function6__funcIZ4mainE3$_0NS_9allocatorIS2_EEFvPhS5_jEEE", ptr @_ZTINSt3__110__function6__baseIFvPhS2_jEEE }, align 8
@"_ZTSZ4mainE3$_0" = internal constant [12 x i8] c"Z4mainE3$_0\00", align 1
@"_ZTIZ4mainE3$_0" = internal constant { ptr, ptr } { ptr getelementptr inbounds (ptr, ptr @_ZTVN10__cxxabiv117__class_type_infoE, i64 2), ptr @"_ZTSZ4mainE3$_0" }, align 8
@"_ZTVNSt3__110__function6__funcIZ4mainE3$_1NS_9allocatorIS2_EEFvPhS5_jEEE" = internal unnamed_addr constant { [11 x ptr] } { [11 x ptr] [ptr null, ptr @"_ZTINSt3__110__function6__funcIZ4mainE3$_1NS_9allocatorIS2_EEFvPhS5_jEEE", ptr @_ZNSt3__110__function6__baseIFvPhS2_jEED2Ev, ptr @"_ZNSt3__110__function6__funcIZ4mainE3$_1NS_9allocatorIS2_EEFvPhS5_jEED0Ev", ptr @"_ZNKSt3__110__function6__funcIZ4mainE3$_1NS_9allocatorIS2_EEFvPhS5_jEE7__cloneEv", ptr @"_ZNKSt3__110__function6__funcIZ4mainE3$_1NS_9allocatorIS2_EEFvPhS5_jEE7__cloneEPNS0_6__baseIS6_EE", ptr @"_ZNSt3__110__function6__funcIZ4mainE3$_1NS_9allocatorIS2_EEFvPhS5_jEE7destroyEv", ptr @"_ZNSt3__110__function6__funcIZ4mainE3$_1NS_9allocatorIS2_EEFvPhS5_jEE18destroy_deallocateEv", ptr @"_ZNSt3__110__function6__funcIZ4mainE3$_1NS_9allocatorIS2_EEFvPhS5_jEEclEOS5_S8_Oj", ptr @"_ZNKSt3__110__function6__funcIZ4mainE3$_1NS_9allocatorIS2_EEFvPhS5_jEE6targetERKSt9type_info", ptr @"_ZNKSt3__110__function6__funcIZ4mainE3$_1NS_9allocatorIS2_EEFvPhS5_jEE11target_typeEv"] }, align 8
@"_ZTSNSt3__110__function6__funcIZ4mainE3$_1NS_9allocatorIS2_EEFvPhS5_jEEE" = internal constant [69 x i8] c"NSt3__110__function6__funcIZ4mainE3$_1NS_9allocatorIS2_EEFvPhS5_jEEE\00", align 1
@"_ZTINSt3__110__function6__funcIZ4mainE3$_1NS_9allocatorIS2_EEFvPhS5_jEEE" = internal constant { ptr, ptr, ptr } { ptr getelementptr inbounds (ptr, ptr @_ZTVN10__cxxabiv120__si_class_type_infoE, i64 2), ptr @"_ZTSNSt3__110__function6__funcIZ4mainE3$_1NS_9allocatorIS2_EEFvPhS5_jEEE", ptr @_ZTINSt3__110__function6__baseIFvPhS2_jEEE }, align 8
@"_ZTSZ4mainE3$_1" = internal constant [12 x i8] c"Z4mainE3$_1\00", align 1
@"_ZTIZ4mainE3$_1" = internal constant { ptr, ptr } { ptr getelementptr inbounds (ptr, ptr @_ZTVN10__cxxabiv117__class_type_infoE, i64 2), ptr @"_ZTSZ4mainE3$_1" }, align 8
@"_ZTVNSt3__110__function6__funcIZ4mainE3$_0NS_9allocatorIS2_EEFvPjS5_jEEE" = internal unnamed_addr constant { [11 x ptr] } { [11 x ptr] [ptr null, ptr @"_ZTINSt3__110__function6__funcIZ4mainE3$_0NS_9allocatorIS2_EEFvPjS5_jEEE", ptr @_ZNSt3__110__function6__baseIFvPjS2_jEED2Ev, ptr @"_ZNSt3__110__function6__funcIZ4mainE3$_0NS_9allocatorIS2_EEFvPjS5_jEED0Ev", ptr @"_ZNKSt3__110__function6__funcIZ4mainE3$_0NS_9allocatorIS2_EEFvPjS5_jEE7__cloneEv", ptr @"_ZNKSt3__110__function6__funcIZ4mainE3$_0NS_9allocatorIS2_EEFvPjS5_jEE7__cloneEPNS0_6__baseIS6_EE", ptr @"_ZNSt3__110__function6__funcIZ4mainE3$_0NS_9allocatorIS2_EEFvPjS5_jEE7destroyEv", ptr @"_ZNSt3__110__function6__funcIZ4mainE3$_0NS_9allocatorIS2_EEFvPjS5_jEE18destroy_deallocateEv", ptr @"_ZNSt3__110__function6__funcIZ4mainE3$_0NS_9allocatorIS2_EEFvPjS5_jEEclEOS5_S8_Oj", ptr @"_ZNKSt3__110__function6__funcIZ4mainE3$_0NS_9allocatorIS2_EEFvPjS5_jEE6targetERKSt9type_info", ptr @"_ZNKSt3__110__function6__funcIZ4mainE3$_0NS_9allocatorIS2_EEFvPjS5_jEE11target_typeEv"] }, align 8
@"_ZTSNSt3__110__function6__funcIZ4mainE3$_0NS_9allocatorIS2_EEFvPjS5_jEEE" = internal constant [69 x i8] c"NSt3__110__function6__funcIZ4mainE3$_0NS_9allocatorIS2_EEFvPjS5_jEEE\00", align 1
@_ZTSNSt3__110__function6__baseIFvPjS2_jEEE = linkonce_odr dso_local constant [39 x i8] c"NSt3__110__function6__baseIFvPjS2_jEEE\00", comdat, align 1
@_ZTINSt3__110__function6__baseIFvPjS2_jEEE = linkonce_odr dso_local constant { ptr, ptr } { ptr getelementptr inbounds (ptr, ptr @_ZTVN10__cxxabiv117__class_type_infoE, i64 2), ptr @_ZTSNSt3__110__function6__baseIFvPjS2_jEEE }, comdat, align 8
@"_ZTINSt3__110__function6__funcIZ4mainE3$_0NS_9allocatorIS2_EEFvPjS5_jEEE" = internal constant { ptr, ptr, ptr } { ptr getelementptr inbounds (ptr, ptr @_ZTVN10__cxxabiv120__si_class_type_infoE, i64 2), ptr @"_ZTSNSt3__110__function6__funcIZ4mainE3$_0NS_9allocatorIS2_EEFvPjS5_jEEE", ptr @_ZTINSt3__110__function6__baseIFvPjS2_jEEE }, align 8
@"_ZTVNSt3__110__function6__funcIZ4mainE3$_1NS_9allocatorIS2_EEFvPjS5_jEEE" = internal unnamed_addr constant { [11 x ptr] } { [11 x ptr] [ptr null, ptr @"_ZTINSt3__110__function6__funcIZ4mainE3$_1NS_9allocatorIS2_EEFvPjS5_jEEE", ptr @_ZNSt3__110__function6__baseIFvPjS2_jEED2Ev, ptr @"_ZNSt3__110__function6__funcIZ4mainE3$_1NS_9allocatorIS2_EEFvPjS5_jEED0Ev", ptr @"_ZNKSt3__110__function6__funcIZ4mainE3$_1NS_9allocatorIS2_EEFvPjS5_jEE7__cloneEv", ptr @"_ZNKSt3__110__function6__funcIZ4mainE3$_1NS_9allocatorIS2_EEFvPjS5_jEE7__cloneEPNS0_6__baseIS6_EE", ptr @"_ZNSt3__110__function6__funcIZ4mainE3$_1NS_9allocatorIS2_EEFvPjS5_jEE7destroyEv", ptr @"_ZNSt3__110__function6__funcIZ4mainE3$_1NS_9allocatorIS2_EEFvPjS5_jEE18destroy_deallocateEv", ptr @"_ZNSt3__110__function6__funcIZ4mainE3$_1NS_9allocatorIS2_EEFvPjS5_jEEclEOS5_S8_Oj", ptr @"_ZNKSt3__110__function6__funcIZ4mainE3$_1NS_9allocatorIS2_EEFvPjS5_jEE6targetERKSt9type_info", ptr @"_ZNKSt3__110__function6__funcIZ4mainE3$_1NS_9allocatorIS2_EEFvPjS5_jEE11target_typeEv"] }, align 8
@"_ZTSNSt3__110__function6__funcIZ4mainE3$_1NS_9allocatorIS2_EEFvPjS5_jEEE" = internal constant [69 x i8] c"NSt3__110__function6__funcIZ4mainE3$_1NS_9allocatorIS2_EEFvPjS5_jEEE\00", align 1
@"_ZTINSt3__110__function6__funcIZ4mainE3$_1NS_9allocatorIS2_EEFvPjS5_jEEE" = internal constant { ptr, ptr, ptr } { ptr getelementptr inbounds (ptr, ptr @_ZTVN10__cxxabiv120__si_class_type_infoE, i64 2), ptr @"_ZTSNSt3__110__function6__funcIZ4mainE3$_1NS_9allocatorIS2_EEFvPjS5_jEEE", ptr @_ZTINSt3__110__function6__baseIFvPjS2_jEEE }, align 8
@"_ZTVNSt3__110__function6__funcIZ4mainE3$_0NS_9allocatorIS2_EEFvPmS5_jEEE" = internal unnamed_addr constant { [11 x ptr] } { [11 x ptr] [ptr null, ptr @"_ZTINSt3__110__function6__funcIZ4mainE3$_0NS_9allocatorIS2_EEFvPmS5_jEEE", ptr @_ZNSt3__110__function6__baseIFvPmS2_jEED2Ev, ptr @"_ZNSt3__110__function6__funcIZ4mainE3$_0NS_9allocatorIS2_EEFvPmS5_jEED0Ev", ptr @"_ZNKSt3__110__function6__funcIZ4mainE3$_0NS_9allocatorIS2_EEFvPmS5_jEE7__cloneEv", ptr @"_ZNKSt3__110__function6__funcIZ4mainE3$_0NS_9allocatorIS2_EEFvPmS5_jEE7__cloneEPNS0_6__baseIS6_EE", ptr @"_ZNSt3__110__function6__funcIZ4mainE3$_0NS_9allocatorIS2_EEFvPmS5_jEE7destroyEv", ptr @"_ZNSt3__110__function6__funcIZ4mainE3$_0NS_9allocatorIS2_EEFvPmS5_jEE18destroy_deallocateEv", ptr @"_ZNSt3__110__function6__funcIZ4mainE3$_0NS_9allocatorIS2_EEFvPmS5_jEEclEOS5_S8_Oj", ptr @"_ZNKSt3__110__function6__funcIZ4mainE3$_0NS_9allocatorIS2_EEFvPmS5_jEE6targetERKSt9type_info", ptr @"_ZNKSt3__110__function6__funcIZ4mainE3$_0NS_9allocatorIS2_EEFvPmS5_jEE11target_typeEv"] }, align 8
@"_ZTSNSt3__110__function6__funcIZ4mainE3$_0NS_9allocatorIS2_EEFvPmS5_jEEE" = internal constant [69 x i8] c"NSt3__110__function6__funcIZ4mainE3$_0NS_9allocatorIS2_EEFvPmS5_jEEE\00", align 1
@_ZTSNSt3__110__function6__baseIFvPmS2_jEEE = linkonce_odr dso_local constant [39 x i8] c"NSt3__110__function6__baseIFvPmS2_jEEE\00", comdat, align 1
@_ZTINSt3__110__function6__baseIFvPmS2_jEEE = linkonce_odr dso_local constant { ptr, ptr } { ptr getelementptr inbounds (ptr, ptr @_ZTVN10__cxxabiv117__class_type_infoE, i64 2), ptr @_ZTSNSt3__110__function6__baseIFvPmS2_jEEE }, comdat, align 8
@"_ZTINSt3__110__function6__funcIZ4mainE3$_0NS_9allocatorIS2_EEFvPmS5_jEEE" = internal constant { ptr, ptr, ptr } { ptr getelementptr inbounds (ptr, ptr @_ZTVN10__cxxabiv120__si_class_type_infoE, i64 2), ptr @"_ZTSNSt3__110__function6__funcIZ4mainE3$_0NS_9allocatorIS2_EEFvPmS5_jEEE", ptr @_ZTINSt3__110__function6__baseIFvPmS2_jEEE }, align 8
@"_ZTVNSt3__110__function6__funcIZ4mainE3$_1NS_9allocatorIS2_EEFvPmS5_jEEE" = internal unnamed_addr constant { [11 x ptr] } { [11 x ptr] [ptr null, ptr @"_ZTINSt3__110__function6__funcIZ4mainE3$_1NS_9allocatorIS2_EEFvPmS5_jEEE", ptr @_ZNSt3__110__function6__baseIFvPmS2_jEED2Ev, ptr @"_ZNSt3__110__function6__funcIZ4mainE3$_1NS_9allocatorIS2_EEFvPmS5_jEED0Ev", ptr @"_ZNKSt3__110__function6__funcIZ4mainE3$_1NS_9allocatorIS2_EEFvPmS5_jEE7__cloneEv", ptr @"_ZNKSt3__110__function6__funcIZ4mainE3$_1NS_9allocatorIS2_EEFvPmS5_jEE7__cloneEPNS0_6__baseIS6_EE", ptr @"_ZNSt3__110__function6__funcIZ4mainE3$_1NS_9allocatorIS2_EEFvPmS5_jEE7destroyEv", ptr @"_ZNSt3__110__function6__funcIZ4mainE3$_1NS_9allocatorIS2_EEFvPmS5_jEE18destroy_deallocateEv", ptr @"_ZNSt3__110__function6__funcIZ4mainE3$_1NS_9allocatorIS2_EEFvPmS5_jEEclEOS5_S8_Oj", ptr @"_ZNKSt3__110__function6__funcIZ4mainE3$_1NS_9allocatorIS2_EEFvPmS5_jEE6targetERKSt9type_info", ptr @"_ZNKSt3__110__function6__funcIZ4mainE3$_1NS_9allocatorIS2_EEFvPmS5_jEE11target_typeEv"] }, align 8
@"_ZTSNSt3__110__function6__funcIZ4mainE3$_1NS_9allocatorIS2_EEFvPmS5_jEEE" = internal constant [69 x i8] c"NSt3__110__function6__funcIZ4mainE3$_1NS_9allocatorIS2_EEFvPmS5_jEEE\00", align 1
@"_ZTINSt3__110__function6__funcIZ4mainE3$_1NS_9allocatorIS2_EEFvPmS5_jEEE" = internal constant { ptr, ptr, ptr } { ptr getelementptr inbounds (ptr, ptr @_ZTVN10__cxxabiv120__si_class_type_infoE, i64 2), ptr @"_ZTSNSt3__110__function6__funcIZ4mainE3$_1NS_9allocatorIS2_EEFvPmS5_jEEE", ptr @_ZTINSt3__110__function6__baseIFvPmS2_jEEE }, align 8
@"_ZTVNSt3__110__function6__funcIZ4mainE3$_2NS_9allocatorIS2_EEFvPhS5_jEEE" = internal unnamed_addr constant { [11 x ptr] } { [11 x ptr] [ptr null, ptr @"_ZTINSt3__110__function6__funcIZ4mainE3$_2NS_9allocatorIS2_EEFvPhS5_jEEE", ptr @_ZNSt3__110__function6__baseIFvPhS2_jEED2Ev, ptr @"_ZNSt3__110__function6__funcIZ4mainE3$_2NS_9allocatorIS2_EEFvPhS5_jEED0Ev", ptr @"_ZNKSt3__110__function6__funcIZ4mainE3$_2NS_9allocatorIS2_EEFvPhS5_jEE7__cloneEv", ptr @"_ZNKSt3__110__function6__funcIZ4mainE3$_2NS_9allocatorIS2_EEFvPhS5_jEE7__cloneEPNS0_6__baseIS6_EE", ptr @"_ZNSt3__110__function6__funcIZ4mainE3$_2NS_9allocatorIS2_EEFvPhS5_jEE7destroyEv", ptr @"_ZNSt3__110__function6__funcIZ4mainE3$_2NS_9allocatorIS2_EEFvPhS5_jEE18destroy_deallocateEv", ptr @"_ZNSt3__110__function6__funcIZ4mainE3$_2NS_9allocatorIS2_EEFvPhS5_jEEclEOS5_S8_Oj", ptr @"_ZNKSt3__110__function6__funcIZ4mainE3$_2NS_9allocatorIS2_EEFvPhS5_jEE6targetERKSt9type_info", ptr @"_ZNKSt3__110__function6__funcIZ4mainE3$_2NS_9allocatorIS2_EEFvPhS5_jEE11target_typeEv"] }, align 8
@"_ZTSNSt3__110__function6__funcIZ4mainE3$_2NS_9allocatorIS2_EEFvPhS5_jEEE" = internal constant [69 x i8] c"NSt3__110__function6__funcIZ4mainE3$_2NS_9allocatorIS2_EEFvPhS5_jEEE\00", align 1
@"_ZTINSt3__110__function6__funcIZ4mainE3$_2NS_9allocatorIS2_EEFvPhS5_jEEE" = internal constant { ptr, ptr, ptr } { ptr getelementptr inbounds (ptr, ptr @_ZTVN10__cxxabiv120__si_class_type_infoE, i64 2), ptr @"_ZTSNSt3__110__function6__funcIZ4mainE3$_2NS_9allocatorIS2_EEFvPhS5_jEEE", ptr @_ZTINSt3__110__function6__baseIFvPhS2_jEEE }, align 8
@"_ZTSZ4mainE3$_2" = internal constant [12 x i8] c"Z4mainE3$_2\00", align 1
@"_ZTIZ4mainE3$_2" = internal constant { ptr, ptr } { ptr getelementptr inbounds (ptr, ptr @_ZTVN10__cxxabiv117__class_type_infoE, i64 2), ptr @"_ZTSZ4mainE3$_2" }, align 8
@"_ZTVNSt3__110__function6__funcIZ4mainE3$_3NS_9allocatorIS2_EEFvPhS5_jEEE" = internal unnamed_addr constant { [11 x ptr] } { [11 x ptr] [ptr null, ptr @"_ZTINSt3__110__function6__funcIZ4mainE3$_3NS_9allocatorIS2_EEFvPhS5_jEEE", ptr @_ZNSt3__110__function6__baseIFvPhS2_jEED2Ev, ptr @"_ZNSt3__110__function6__funcIZ4mainE3$_3NS_9allocatorIS2_EEFvPhS5_jEED0Ev", ptr @"_ZNKSt3__110__function6__funcIZ4mainE3$_3NS_9allocatorIS2_EEFvPhS5_jEE7__cloneEv", ptr @"_ZNKSt3__110__function6__funcIZ4mainE3$_3NS_9allocatorIS2_EEFvPhS5_jEE7__cloneEPNS0_6__baseIS6_EE", ptr @"_ZNSt3__110__function6__funcIZ4mainE3$_3NS_9allocatorIS2_EEFvPhS5_jEE7destroyEv", ptr @"_ZNSt3__110__function6__funcIZ4mainE3$_3NS_9allocatorIS2_EEFvPhS5_jEE18destroy_deallocateEv", ptr @"_ZNSt3__110__function6__funcIZ4mainE3$_3NS_9allocatorIS2_EEFvPhS5_jEEclEOS5_S8_Oj", ptr @"_ZNKSt3__110__function6__funcIZ4mainE3$_3NS_9allocatorIS2_EEFvPhS5_jEE6targetERKSt9type_info", ptr @"_ZNKSt3__110__function6__funcIZ4mainE3$_3NS_9allocatorIS2_EEFvPhS5_jEE11target_typeEv"] }, align 8
@"_ZTSNSt3__110__function6__funcIZ4mainE3$_3NS_9allocatorIS2_EEFvPhS5_jEEE" = internal constant [69 x i8] c"NSt3__110__function6__funcIZ4mainE3$_3NS_9allocatorIS2_EEFvPhS5_jEEE\00", align 1
@"_ZTINSt3__110__function6__funcIZ4mainE3$_3NS_9allocatorIS2_EEFvPhS5_jEEE" = internal constant { ptr, ptr, ptr } { ptr getelementptr inbounds (ptr, ptr @_ZTVN10__cxxabiv120__si_class_type_infoE, i64 2), ptr @"_ZTSNSt3__110__function6__funcIZ4mainE3$_3NS_9allocatorIS2_EEFvPhS5_jEEE", ptr @_ZTINSt3__110__function6__baseIFvPhS2_jEEE }, align 8
@"_ZTSZ4mainE3$_3" = internal constant [12 x i8] c"Z4mainE3$_3\00", align 1
@"_ZTIZ4mainE3$_3" = internal constant { ptr, ptr } { ptr getelementptr inbounds (ptr, ptr @_ZTVN10__cxxabiv117__class_type_infoE, i64 2), ptr @"_ZTSZ4mainE3$_3" }, align 8
@"_ZTVNSt3__110__function6__funcIZ4mainE3$_2NS_9allocatorIS2_EEFvPjS5_jEEE" = internal unnamed_addr constant { [11 x ptr] } { [11 x ptr] [ptr null, ptr @"_ZTINSt3__110__function6__funcIZ4mainE3$_2NS_9allocatorIS2_EEFvPjS5_jEEE", ptr @_ZNSt3__110__function6__baseIFvPjS2_jEED2Ev, ptr @"_ZNSt3__110__function6__funcIZ4mainE3$_2NS_9allocatorIS2_EEFvPjS5_jEED0Ev", ptr @"_ZNKSt3__110__function6__funcIZ4mainE3$_2NS_9allocatorIS2_EEFvPjS5_jEE7__cloneEv", ptr @"_ZNKSt3__110__function6__funcIZ4mainE3$_2NS_9allocatorIS2_EEFvPjS5_jEE7__cloneEPNS0_6__baseIS6_EE", ptr @"_ZNSt3__110__function6__funcIZ4mainE3$_2NS_9allocatorIS2_EEFvPjS5_jEE7destroyEv", ptr @"_ZNSt3__110__function6__funcIZ4mainE3$_2NS_9allocatorIS2_EEFvPjS5_jEE18destroy_deallocateEv", ptr @"_ZNSt3__110__function6__funcIZ4mainE3$_2NS_9allocatorIS2_EEFvPjS5_jEEclEOS5_S8_Oj", ptr @"_ZNKSt3__110__function6__funcIZ4mainE3$_2NS_9allocatorIS2_EEFvPjS5_jEE6targetERKSt9type_info", ptr @"_ZNKSt3__110__function6__funcIZ4mainE3$_2NS_9allocatorIS2_EEFvPjS5_jEE11target_typeEv"] }, align 8
@"_ZTSNSt3__110__function6__funcIZ4mainE3$_2NS_9allocatorIS2_EEFvPjS5_jEEE" = internal constant [69 x i8] c"NSt3__110__function6__funcIZ4mainE3$_2NS_9allocatorIS2_EEFvPjS5_jEEE\00", align 1
@"_ZTINSt3__110__function6__funcIZ4mainE3$_2NS_9allocatorIS2_EEFvPjS5_jEEE" = internal constant { ptr, ptr, ptr } { ptr getelementptr inbounds (ptr, ptr @_ZTVN10__cxxabiv120__si_class_type_infoE, i64 2), ptr @"_ZTSNSt3__110__function6__funcIZ4mainE3$_2NS_9allocatorIS2_EEFvPjS5_jEEE", ptr @_ZTINSt3__110__function6__baseIFvPjS2_jEEE }, align 8
@"_ZTVNSt3__110__function6__funcIZ4mainE3$_3NS_9allocatorIS2_EEFvPjS5_jEEE" = internal unnamed_addr constant { [11 x ptr] } { [11 x ptr] [ptr null, ptr @"_ZTINSt3__110__function6__funcIZ4mainE3$_3NS_9allocatorIS2_EEFvPjS5_jEEE", ptr @_ZNSt3__110__function6__baseIFvPjS2_jEED2Ev, ptr @"_ZNSt3__110__function6__funcIZ4mainE3$_3NS_9allocatorIS2_EEFvPjS5_jEED0Ev", ptr @"_ZNKSt3__110__function6__funcIZ4mainE3$_3NS_9allocatorIS2_EEFvPjS5_jEE7__cloneEv", ptr @"_ZNKSt3__110__function6__funcIZ4mainE3$_3NS_9allocatorIS2_EEFvPjS5_jEE7__cloneEPNS0_6__baseIS6_EE", ptr @"_ZNSt3__110__function6__funcIZ4mainE3$_3NS_9allocatorIS2_EEFvPjS5_jEE7destroyEv", ptr @"_ZNSt3__110__function6__funcIZ4mainE3$_3NS_9allocatorIS2_EEFvPjS5_jEE18destroy_deallocateEv", ptr @"_ZNSt3__110__function6__funcIZ4mainE3$_3NS_9allocatorIS2_EEFvPjS5_jEEclEOS5_S8_Oj", ptr @"_ZNKSt3__110__function6__funcIZ4mainE3$_3NS_9allocatorIS2_EEFvPjS5_jEE6targetERKSt9type_info", ptr @"_ZNKSt3__110__function6__funcIZ4mainE3$_3NS_9allocatorIS2_EEFvPjS5_jEE11target_typeEv"] }, align 8
@"_ZTSNSt3__110__function6__funcIZ4mainE3$_3NS_9allocatorIS2_EEFvPjS5_jEEE" = internal constant [69 x i8] c"NSt3__110__function6__funcIZ4mainE3$_3NS_9allocatorIS2_EEFvPjS5_jEEE\00", align 1
@"_ZTINSt3__110__function6__funcIZ4mainE3$_3NS_9allocatorIS2_EEFvPjS5_jEEE" = internal constant { ptr, ptr, ptr } { ptr getelementptr inbounds (ptr, ptr @_ZTVN10__cxxabiv120__si_class_type_infoE, i64 2), ptr @"_ZTSNSt3__110__function6__funcIZ4mainE3$_3NS_9allocatorIS2_EEFvPjS5_jEEE", ptr @_ZTINSt3__110__function6__baseIFvPjS2_jEEE }, align 8
@"_ZTVNSt3__110__function6__funcIZ4mainE3$_2NS_9allocatorIS2_EEFvPmS5_jEEE" = internal unnamed_addr constant { [11 x ptr] } { [11 x ptr] [ptr null, ptr @"_ZTINSt3__110__function6__funcIZ4mainE3$_2NS_9allocatorIS2_EEFvPmS5_jEEE", ptr @_ZNSt3__110__function6__baseIFvPmS2_jEED2Ev, ptr @"_ZNSt3__110__function6__funcIZ4mainE3$_2NS_9allocatorIS2_EEFvPmS5_jEED0Ev", ptr @"_ZNKSt3__110__function6__funcIZ4mainE3$_2NS_9allocatorIS2_EEFvPmS5_jEE7__cloneEv", ptr @"_ZNKSt3__110__function6__funcIZ4mainE3$_2NS_9allocatorIS2_EEFvPmS5_jEE7__cloneEPNS0_6__baseIS6_EE", ptr @"_ZNSt3__110__function6__funcIZ4mainE3$_2NS_9allocatorIS2_EEFvPmS5_jEE7destroyEv", ptr @"_ZNSt3__110__function6__funcIZ4mainE3$_2NS_9allocatorIS2_EEFvPmS5_jEE18destroy_deallocateEv", ptr @"_ZNSt3__110__function6__funcIZ4mainE3$_2NS_9allocatorIS2_EEFvPmS5_jEEclEOS5_S8_Oj", ptr @"_ZNKSt3__110__function6__funcIZ4mainE3$_2NS_9allocatorIS2_EEFvPmS5_jEE6targetERKSt9type_info", ptr @"_ZNKSt3__110__function6__funcIZ4mainE3$_2NS_9allocatorIS2_EEFvPmS5_jEE11target_typeEv"] }, align 8
@"_ZTSNSt3__110__function6__funcIZ4mainE3$_2NS_9allocatorIS2_EEFvPmS5_jEEE" = internal constant [69 x i8] c"NSt3__110__function6__funcIZ4mainE3$_2NS_9allocatorIS2_EEFvPmS5_jEEE\00", align 1
@"_ZTINSt3__110__function6__funcIZ4mainE3$_2NS_9allocatorIS2_EEFvPmS5_jEEE" = internal constant { ptr, ptr, ptr } { ptr getelementptr inbounds (ptr, ptr @_ZTVN10__cxxabiv120__si_class_type_infoE, i64 2), ptr @"_ZTSNSt3__110__function6__funcIZ4mainE3$_2NS_9allocatorIS2_EEFvPmS5_jEEE", ptr @_ZTINSt3__110__function6__baseIFvPmS2_jEEE }, align 8
@"_ZTVNSt3__110__function6__funcIZ4mainE3$_3NS_9allocatorIS2_EEFvPmS5_jEEE" = internal unnamed_addr constant { [11 x ptr] } { [11 x ptr] [ptr null, ptr @"_ZTINSt3__110__function6__funcIZ4mainE3$_3NS_9allocatorIS2_EEFvPmS5_jEEE", ptr @_ZNSt3__110__function6__baseIFvPmS2_jEED2Ev, ptr @"_ZNSt3__110__function6__funcIZ4mainE3$_3NS_9allocatorIS2_EEFvPmS5_jEED0Ev", ptr @"_ZNKSt3__110__function6__funcIZ4mainE3$_3NS_9allocatorIS2_EEFvPmS5_jEE7__cloneEv", ptr @"_ZNKSt3__110__function6__funcIZ4mainE3$_3NS_9allocatorIS2_EEFvPmS5_jEE7__cloneEPNS0_6__baseIS6_EE", ptr @"_ZNSt3__110__function6__funcIZ4mainE3$_3NS_9allocatorIS2_EEFvPmS5_jEE7destroyEv", ptr @"_ZNSt3__110__function6__funcIZ4mainE3$_3NS_9allocatorIS2_EEFvPmS5_jEE18destroy_deallocateEv", ptr @"_ZNSt3__110__function6__funcIZ4mainE3$_3NS_9allocatorIS2_EEFvPmS5_jEEclEOS5_S8_Oj", ptr @"_ZNKSt3__110__function6__funcIZ4mainE3$_3NS_9allocatorIS2_EEFvPmS5_jEE6targetERKSt9type_info", ptr @"_ZNKSt3__110__function6__funcIZ4mainE3$_3NS_9allocatorIS2_EEFvPmS5_jEE11target_typeEv"] }, align 8
@"_ZTSNSt3__110__function6__funcIZ4mainE3$_3NS_9allocatorIS2_EEFvPmS5_jEEE" = internal constant [69 x i8] c"NSt3__110__function6__funcIZ4mainE3$_3NS_9allocatorIS2_EEFvPmS5_jEEE\00", align 1
@"_ZTINSt3__110__function6__funcIZ4mainE3$_3NS_9allocatorIS2_EEFvPmS5_jEEE" = internal constant { ptr, ptr, ptr } { ptr getelementptr inbounds (ptr, ptr @_ZTVN10__cxxabiv120__si_class_type_infoE, i64 2), ptr @"_ZTSNSt3__110__function6__funcIZ4mainE3$_3NS_9allocatorIS2_EEFvPmS5_jEEE", ptr @_ZTINSt3__110__function6__baseIFvPmS2_jEEE }, align 8
@"_ZTVNSt3__110__function6__funcIZ4mainE3$_4NS_9allocatorIS2_EEFvPhS5_jEEE" = internal unnamed_addr constant { [11 x ptr] } { [11 x ptr] [ptr null, ptr @"_ZTINSt3__110__function6__funcIZ4mainE3$_4NS_9allocatorIS2_EEFvPhS5_jEEE", ptr @_ZNSt3__110__function6__baseIFvPhS2_jEED2Ev, ptr @"_ZNSt3__110__function6__funcIZ4mainE3$_4NS_9allocatorIS2_EEFvPhS5_jEED0Ev", ptr @"_ZNKSt3__110__function6__funcIZ4mainE3$_4NS_9allocatorIS2_EEFvPhS5_jEE7__cloneEv", ptr @"_ZNKSt3__110__function6__funcIZ4mainE3$_4NS_9allocatorIS2_EEFvPhS5_jEE7__cloneEPNS0_6__baseIS6_EE", ptr @"_ZNSt3__110__function6__funcIZ4mainE3$_4NS_9allocatorIS2_EEFvPhS5_jEE7destroyEv", ptr @"_ZNSt3__110__function6__funcIZ4mainE3$_4NS_9allocatorIS2_EEFvPhS5_jEE18destroy_deallocateEv", ptr @"_ZNSt3__110__function6__funcIZ4mainE3$_4NS_9allocatorIS2_EEFvPhS5_jEEclEOS5_S8_Oj", ptr @"_ZNKSt3__110__function6__funcIZ4mainE3$_4NS_9allocatorIS2_EEFvPhS5_jEE6targetERKSt9type_info", ptr @"_ZNKSt3__110__function6__funcIZ4mainE3$_4NS_9allocatorIS2_EEFvPhS5_jEE11target_typeEv"] }, align 8
@"_ZTSNSt3__110__function6__funcIZ4mainE3$_4NS_9allocatorIS2_EEFvPhS5_jEEE" = internal constant [69 x i8] c"NSt3__110__function6__funcIZ4mainE3$_4NS_9allocatorIS2_EEFvPhS5_jEEE\00", align 1
@"_ZTINSt3__110__function6__funcIZ4mainE3$_4NS_9allocatorIS2_EEFvPhS5_jEEE" = internal constant { ptr, ptr, ptr } { ptr getelementptr inbounds (ptr, ptr @_ZTVN10__cxxabiv120__si_class_type_infoE, i64 2), ptr @"_ZTSNSt3__110__function6__funcIZ4mainE3$_4NS_9allocatorIS2_EEFvPhS5_jEEE", ptr @_ZTINSt3__110__function6__baseIFvPhS2_jEEE }, align 8
@"_ZTSZ4mainE3$_4" = internal constant [12 x i8] c"Z4mainE3$_4\00", align 1
@"_ZTIZ4mainE3$_4" = internal constant { ptr, ptr } { ptr getelementptr inbounds (ptr, ptr @_ZTVN10__cxxabiv117__class_type_infoE, i64 2), ptr @"_ZTSZ4mainE3$_4" }, align 8
@"_ZTVNSt3__110__function6__funcIZ4mainE3$_5NS_9allocatorIS2_EEFvPhS5_jEEE" = internal unnamed_addr constant { [11 x ptr] } { [11 x ptr] [ptr null, ptr @"_ZTINSt3__110__function6__funcIZ4mainE3$_5NS_9allocatorIS2_EEFvPhS5_jEEE", ptr @_ZNSt3__110__function6__baseIFvPhS2_jEED2Ev, ptr @"_ZNSt3__110__function6__funcIZ4mainE3$_5NS_9allocatorIS2_EEFvPhS5_jEED0Ev", ptr @"_ZNKSt3__110__function6__funcIZ4mainE3$_5NS_9allocatorIS2_EEFvPhS5_jEE7__cloneEv", ptr @"_ZNKSt3__110__function6__funcIZ4mainE3$_5NS_9allocatorIS2_EEFvPhS5_jEE7__cloneEPNS0_6__baseIS6_EE", ptr @"_ZNSt3__110__function6__funcIZ4mainE3$_5NS_9allocatorIS2_EEFvPhS5_jEE7destroyEv", ptr @"_ZNSt3__110__function6__funcIZ4mainE3$_5NS_9allocatorIS2_EEFvPhS5_jEE18destroy_deallocateEv", ptr @"_ZNSt3__110__function6__funcIZ4mainE3$_5NS_9allocatorIS2_EEFvPhS5_jEEclEOS5_S8_Oj", ptr @"_ZNKSt3__110__function6__funcIZ4mainE3$_5NS_9allocatorIS2_EEFvPhS5_jEE6targetERKSt9type_info", ptr @"_ZNKSt3__110__function6__funcIZ4mainE3$_5NS_9allocatorIS2_EEFvPhS5_jEE11target_typeEv"] }, align 8
@"_ZTSNSt3__110__function6__funcIZ4mainE3$_5NS_9allocatorIS2_EEFvPhS5_jEEE" = internal constant [69 x i8] c"NSt3__110__function6__funcIZ4mainE3$_5NS_9allocatorIS2_EEFvPhS5_jEEE\00", align 1
@"_ZTINSt3__110__function6__funcIZ4mainE3$_5NS_9allocatorIS2_EEFvPhS5_jEEE" = internal constant { ptr, ptr, ptr } { ptr getelementptr inbounds (ptr, ptr @_ZTVN10__cxxabiv120__si_class_type_infoE, i64 2), ptr @"_ZTSNSt3__110__function6__funcIZ4mainE3$_5NS_9allocatorIS2_EEFvPhS5_jEEE", ptr @_ZTINSt3__110__function6__baseIFvPhS2_jEEE }, align 8
@"_ZTSZ4mainE3$_5" = internal constant [12 x i8] c"Z4mainE3$_5\00", align 1
@"_ZTIZ4mainE3$_5" = internal constant { ptr, ptr } { ptr getelementptr inbounds (ptr, ptr @_ZTVN10__cxxabiv117__class_type_infoE, i64 2), ptr @"_ZTSZ4mainE3$_5" }, align 8
@"_ZTVNSt3__110__function6__funcIZ4mainE3$_4NS_9allocatorIS2_EEFvPjS5_jEEE" = internal unnamed_addr constant { [11 x ptr] } { [11 x ptr] [ptr null, ptr @"_ZTINSt3__110__function6__funcIZ4mainE3$_4NS_9allocatorIS2_EEFvPjS5_jEEE", ptr @_ZNSt3__110__function6__baseIFvPjS2_jEED2Ev, ptr @"_ZNSt3__110__function6__funcIZ4mainE3$_4NS_9allocatorIS2_EEFvPjS5_jEED0Ev", ptr @"_ZNKSt3__110__function6__funcIZ4mainE3$_4NS_9allocatorIS2_EEFvPjS5_jEE7__cloneEv", ptr @"_ZNKSt3__110__function6__funcIZ4mainE3$_4NS_9allocatorIS2_EEFvPjS5_jEE7__cloneEPNS0_6__baseIS6_EE", ptr @"_ZNSt3__110__function6__funcIZ4mainE3$_4NS_9allocatorIS2_EEFvPjS5_jEE7destroyEv", ptr @"_ZNSt3__110__function6__funcIZ4mainE3$_4NS_9allocatorIS2_EEFvPjS5_jEE18destroy_deallocateEv", ptr @"_ZNSt3__110__function6__funcIZ4mainE3$_4NS_9allocatorIS2_EEFvPjS5_jEEclEOS5_S8_Oj", ptr @"_ZNKSt3__110__function6__funcIZ4mainE3$_4NS_9allocatorIS2_EEFvPjS5_jEE6targetERKSt9type_info", ptr @"_ZNKSt3__110__function6__funcIZ4mainE3$_4NS_9allocatorIS2_EEFvPjS5_jEE11target_typeEv"] }, align 8
@"_ZTSNSt3__110__function6__funcIZ4mainE3$_4NS_9allocatorIS2_EEFvPjS5_jEEE" = internal constant [69 x i8] c"NSt3__110__function6__funcIZ4mainE3$_4NS_9allocatorIS2_EEFvPjS5_jEEE\00", align 1
@"_ZTINSt3__110__function6__funcIZ4mainE3$_4NS_9allocatorIS2_EEFvPjS5_jEEE" = internal constant { ptr, ptr, ptr } { ptr getelementptr inbounds (ptr, ptr @_ZTVN10__cxxabiv120__si_class_type_infoE, i64 2), ptr @"_ZTSNSt3__110__function6__funcIZ4mainE3$_4NS_9allocatorIS2_EEFvPjS5_jEEE", ptr @_ZTINSt3__110__function6__baseIFvPjS2_jEEE }, align 8
@"_ZTVNSt3__110__function6__funcIZ4mainE3$_5NS_9allocatorIS2_EEFvPjS5_jEEE" = internal unnamed_addr constant { [11 x ptr] } { [11 x ptr] [ptr null, ptr @"_ZTINSt3__110__function6__funcIZ4mainE3$_5NS_9allocatorIS2_EEFvPjS5_jEEE", ptr @_ZNSt3__110__function6__baseIFvPjS2_jEED2Ev, ptr @"_ZNSt3__110__function6__funcIZ4mainE3$_5NS_9allocatorIS2_EEFvPjS5_jEED0Ev", ptr @"_ZNKSt3__110__function6__funcIZ4mainE3$_5NS_9allocatorIS2_EEFvPjS5_jEE7__cloneEv", ptr @"_ZNKSt3__110__function6__funcIZ4mainE3$_5NS_9allocatorIS2_EEFvPjS5_jEE7__cloneEPNS0_6__baseIS6_EE", ptr @"_ZNSt3__110__function6__funcIZ4mainE3$_5NS_9allocatorIS2_EEFvPjS5_jEE7destroyEv", ptr @"_ZNSt3__110__function6__funcIZ4mainE3$_5NS_9allocatorIS2_EEFvPjS5_jEE18destroy_deallocateEv", ptr @"_ZNSt3__110__function6__funcIZ4mainE3$_5NS_9allocatorIS2_EEFvPjS5_jEEclEOS5_S8_Oj", ptr @"_ZNKSt3__110__function6__funcIZ4mainE3$_5NS_9allocatorIS2_EEFvPjS5_jEE6targetERKSt9type_info", ptr @"_ZNKSt3__110__function6__funcIZ4mainE3$_5NS_9allocatorIS2_EEFvPjS5_jEE11target_typeEv"] }, align 8
@"_ZTSNSt3__110__function6__funcIZ4mainE3$_5NS_9allocatorIS2_EEFvPjS5_jEEE" = internal constant [69 x i8] c"NSt3__110__function6__funcIZ4mainE3$_5NS_9allocatorIS2_EEFvPjS5_jEEE\00", align 1
@"_ZTINSt3__110__function6__funcIZ4mainE3$_5NS_9allocatorIS2_EEFvPjS5_jEEE" = internal constant { ptr, ptr, ptr } { ptr getelementptr inbounds (ptr, ptr @_ZTVN10__cxxabiv120__si_class_type_infoE, i64 2), ptr @"_ZTSNSt3__110__function6__funcIZ4mainE3$_5NS_9allocatorIS2_EEFvPjS5_jEEE", ptr @_ZTINSt3__110__function6__baseIFvPjS2_jEEE }, align 8
@"_ZTVNSt3__110__function6__funcIZ4mainE3$_4NS_9allocatorIS2_EEFvPmS5_jEEE" = internal unnamed_addr constant { [11 x ptr] } { [11 x ptr] [ptr null, ptr @"_ZTINSt3__110__function6__funcIZ4mainE3$_4NS_9allocatorIS2_EEFvPmS5_jEEE", ptr @_ZNSt3__110__function6__baseIFvPmS2_jEED2Ev, ptr @"_ZNSt3__110__function6__funcIZ4mainE3$_4NS_9allocatorIS2_EEFvPmS5_jEED0Ev", ptr @"_ZNKSt3__110__function6__funcIZ4mainE3$_4NS_9allocatorIS2_EEFvPmS5_jEE7__cloneEv", ptr @"_ZNKSt3__110__function6__funcIZ4mainE3$_4NS_9allocatorIS2_EEFvPmS5_jEE7__cloneEPNS0_6__baseIS6_EE", ptr @"_ZNSt3__110__function6__funcIZ4mainE3$_4NS_9allocatorIS2_EEFvPmS5_jEE7destroyEv", ptr @"_ZNSt3__110__function6__funcIZ4mainE3$_4NS_9allocatorIS2_EEFvPmS5_jEE18destroy_deallocateEv", ptr @"_ZNSt3__110__function6__funcIZ4mainE3$_4NS_9allocatorIS2_EEFvPmS5_jEEclEOS5_S8_Oj", ptr @"_ZNKSt3__110__function6__funcIZ4mainE3$_4NS_9allocatorIS2_EEFvPmS5_jEE6targetERKSt9type_info", ptr @"_ZNKSt3__110__function6__funcIZ4mainE3$_4NS_9allocatorIS2_EEFvPmS5_jEE11target_typeEv"] }, align 8
@"_ZTSNSt3__110__function6__funcIZ4mainE3$_4NS_9allocatorIS2_EEFvPmS5_jEEE" = internal constant [69 x i8] c"NSt3__110__function6__funcIZ4mainE3$_4NS_9allocatorIS2_EEFvPmS5_jEEE\00", align 1
@"_ZTINSt3__110__function6__funcIZ4mainE3$_4NS_9allocatorIS2_EEFvPmS5_jEEE" = internal constant { ptr, ptr, ptr } { ptr getelementptr inbounds (ptr, ptr @_ZTVN10__cxxabiv120__si_class_type_infoE, i64 2), ptr @"_ZTSNSt3__110__function6__funcIZ4mainE3$_4NS_9allocatorIS2_EEFvPmS5_jEEE", ptr @_ZTINSt3__110__function6__baseIFvPmS2_jEEE }, align 8
@"_ZTVNSt3__110__function6__funcIZ4mainE3$_5NS_9allocatorIS2_EEFvPmS5_jEEE" = internal unnamed_addr constant { [11 x ptr] } { [11 x ptr] [ptr null, ptr @"_ZTINSt3__110__function6__funcIZ4mainE3$_5NS_9allocatorIS2_EEFvPmS5_jEEE", ptr @_ZNSt3__110__function6__baseIFvPmS2_jEED2Ev, ptr @"_ZNSt3__110__function6__funcIZ4mainE3$_5NS_9allocatorIS2_EEFvPmS5_jEED0Ev", ptr @"_ZNKSt3__110__function6__funcIZ4mainE3$_5NS_9allocatorIS2_EEFvPmS5_jEE7__cloneEv", ptr @"_ZNKSt3__110__function6__funcIZ4mainE3$_5NS_9allocatorIS2_EEFvPmS5_jEE7__cloneEPNS0_6__baseIS6_EE", ptr @"_ZNSt3__110__function6__funcIZ4mainE3$_5NS_9allocatorIS2_EEFvPmS5_jEE7destroyEv", ptr @"_ZNSt3__110__function6__funcIZ4mainE3$_5NS_9allocatorIS2_EEFvPmS5_jEE18destroy_deallocateEv", ptr @"_ZNSt3__110__function6__funcIZ4mainE3$_5NS_9allocatorIS2_EEFvPmS5_jEEclEOS5_S8_Oj", ptr @"_ZNKSt3__110__function6__funcIZ4mainE3$_5NS_9allocatorIS2_EEFvPmS5_jEE6targetERKSt9type_info", ptr @"_ZNKSt3__110__function6__funcIZ4mainE3$_5NS_9allocatorIS2_EEFvPmS5_jEE11target_typeEv"] }, align 8
@"_ZTSNSt3__110__function6__funcIZ4mainE3$_5NS_9allocatorIS2_EEFvPmS5_jEEE" = internal constant [69 x i8] c"NSt3__110__function6__funcIZ4mainE3$_5NS_9allocatorIS2_EEFvPmS5_jEEE\00", align 1
@"_ZTINSt3__110__function6__funcIZ4mainE3$_5NS_9allocatorIS2_EEFvPmS5_jEEE" = internal constant { ptr, ptr, ptr } { ptr getelementptr inbounds (ptr, ptr @_ZTVN10__cxxabiv120__si_class_type_infoE, i64 2), ptr @"_ZTSNSt3__110__function6__funcIZ4mainE3$_5NS_9allocatorIS2_EEFvPmS5_jEEE", ptr @_ZTINSt3__110__function6__baseIFvPmS2_jEEE }, align 8
@"_ZTVNSt3__110__function6__funcIZ4mainE3$_6NS_9allocatorIS2_EEFvPhS5_jEEE" = internal unnamed_addr constant { [11 x ptr] } { [11 x ptr] [ptr null, ptr @"_ZTINSt3__110__function6__funcIZ4mainE3$_6NS_9allocatorIS2_EEFvPhS5_jEEE", ptr @_ZNSt3__110__function6__baseIFvPhS2_jEED2Ev, ptr @"_ZNSt3__110__function6__funcIZ4mainE3$_6NS_9allocatorIS2_EEFvPhS5_jEED0Ev", ptr @"_ZNKSt3__110__function6__funcIZ4mainE3$_6NS_9allocatorIS2_EEFvPhS5_jEE7__cloneEv", ptr @"_ZNKSt3__110__function6__funcIZ4mainE3$_6NS_9allocatorIS2_EEFvPhS5_jEE7__cloneEPNS0_6__baseIS6_EE", ptr @"_ZNSt3__110__function6__funcIZ4mainE3$_6NS_9allocatorIS2_EEFvPhS5_jEE7destroyEv", ptr @"_ZNSt3__110__function6__funcIZ4mainE3$_6NS_9allocatorIS2_EEFvPhS5_jEE18destroy_deallocateEv", ptr @"_ZNSt3__110__function6__funcIZ4mainE3$_6NS_9allocatorIS2_EEFvPhS5_jEEclEOS5_S8_Oj", ptr @"_ZNKSt3__110__function6__funcIZ4mainE3$_6NS_9allocatorIS2_EEFvPhS5_jEE6targetERKSt9type_info", ptr @"_ZNKSt3__110__function6__funcIZ4mainE3$_6NS_9allocatorIS2_EEFvPhS5_jEE11target_typeEv"] }, align 8
@"_ZTSNSt3__110__function6__funcIZ4mainE3$_6NS_9allocatorIS2_EEFvPhS5_jEEE" = internal constant [69 x i8] c"NSt3__110__function6__funcIZ4mainE3$_6NS_9allocatorIS2_EEFvPhS5_jEEE\00", align 1
@"_ZTINSt3__110__function6__funcIZ4mainE3$_6NS_9allocatorIS2_EEFvPhS5_jEEE" = internal constant { ptr, ptr, ptr } { ptr getelementptr inbounds (ptr, ptr @_ZTVN10__cxxabiv120__si_class_type_infoE, i64 2), ptr @"_ZTSNSt3__110__function6__funcIZ4mainE3$_6NS_9allocatorIS2_EEFvPhS5_jEEE", ptr @_ZTINSt3__110__function6__baseIFvPhS2_jEEE }, align 8
@"_ZTSZ4mainE3$_6" = internal constant [12 x i8] c"Z4mainE3$_6\00", align 1
@"_ZTIZ4mainE3$_6" = internal constant { ptr, ptr } { ptr getelementptr inbounds (ptr, ptr @_ZTVN10__cxxabiv117__class_type_infoE, i64 2), ptr @"_ZTSZ4mainE3$_6" }, align 8
@"_ZTVNSt3__110__function6__funcIZ4mainE3$_7NS_9allocatorIS2_EEFvPhS5_jEEE" = internal unnamed_addr constant { [11 x ptr] } { [11 x ptr] [ptr null, ptr @"_ZTINSt3__110__function6__funcIZ4mainE3$_7NS_9allocatorIS2_EEFvPhS5_jEEE", ptr @_ZNSt3__110__function6__baseIFvPhS2_jEED2Ev, ptr @"_ZNSt3__110__function6__funcIZ4mainE3$_7NS_9allocatorIS2_EEFvPhS5_jEED0Ev", ptr @"_ZNKSt3__110__function6__funcIZ4mainE3$_7NS_9allocatorIS2_EEFvPhS5_jEE7__cloneEv", ptr @"_ZNKSt3__110__function6__funcIZ4mainE3$_7NS_9allocatorIS2_EEFvPhS5_jEE7__cloneEPNS0_6__baseIS6_EE", ptr @"_ZNSt3__110__function6__funcIZ4mainE3$_7NS_9allocatorIS2_EEFvPhS5_jEE7destroyEv", ptr @"_ZNSt3__110__function6__funcIZ4mainE3$_7NS_9allocatorIS2_EEFvPhS5_jEE18destroy_deallocateEv", ptr @"_ZNSt3__110__function6__funcIZ4mainE3$_7NS_9allocatorIS2_EEFvPhS5_jEEclEOS5_S8_Oj", ptr @"_ZNKSt3__110__function6__funcIZ4mainE3$_7NS_9allocatorIS2_EEFvPhS5_jEE6targetERKSt9type_info", ptr @"_ZNKSt3__110__function6__funcIZ4mainE3$_7NS_9allocatorIS2_EEFvPhS5_jEE11target_typeEv"] }, align 8
@"_ZTSNSt3__110__function6__funcIZ4mainE3$_7NS_9allocatorIS2_EEFvPhS5_jEEE" = internal constant [69 x i8] c"NSt3__110__function6__funcIZ4mainE3$_7NS_9allocatorIS2_EEFvPhS5_jEEE\00", align 1
@"_ZTINSt3__110__function6__funcIZ4mainE3$_7NS_9allocatorIS2_EEFvPhS5_jEEE" = internal constant { ptr, ptr, ptr } { ptr getelementptr inbounds (ptr, ptr @_ZTVN10__cxxabiv120__si_class_type_infoE, i64 2), ptr @"_ZTSNSt3__110__function6__funcIZ4mainE3$_7NS_9allocatorIS2_EEFvPhS5_jEEE", ptr @_ZTINSt3__110__function6__baseIFvPhS2_jEEE }, align 8
@"_ZTSZ4mainE3$_7" = internal constant [12 x i8] c"Z4mainE3$_7\00", align 1
@"_ZTIZ4mainE3$_7" = internal constant { ptr, ptr } { ptr getelementptr inbounds (ptr, ptr @_ZTVN10__cxxabiv117__class_type_infoE, i64 2), ptr @"_ZTSZ4mainE3$_7" }, align 8
@"_ZTVNSt3__110__function6__funcIZ4mainE3$_6NS_9allocatorIS2_EEFvPjS5_jEEE" = internal unnamed_addr constant { [11 x ptr] } { [11 x ptr] [ptr null, ptr @"_ZTINSt3__110__function6__funcIZ4mainE3$_6NS_9allocatorIS2_EEFvPjS5_jEEE", ptr @_ZNSt3__110__function6__baseIFvPjS2_jEED2Ev, ptr @"_ZNSt3__110__function6__funcIZ4mainE3$_6NS_9allocatorIS2_EEFvPjS5_jEED0Ev", ptr @"_ZNKSt3__110__function6__funcIZ4mainE3$_6NS_9allocatorIS2_EEFvPjS5_jEE7__cloneEv", ptr @"_ZNKSt3__110__function6__funcIZ4mainE3$_6NS_9allocatorIS2_EEFvPjS5_jEE7__cloneEPNS0_6__baseIS6_EE", ptr @"_ZNSt3__110__function6__funcIZ4mainE3$_6NS_9allocatorIS2_EEFvPjS5_jEE7destroyEv", ptr @"_ZNSt3__110__function6__funcIZ4mainE3$_6NS_9allocatorIS2_EEFvPjS5_jEE18destroy_deallocateEv", ptr @"_ZNSt3__110__function6__funcIZ4mainE3$_6NS_9allocatorIS2_EEFvPjS5_jEEclEOS5_S8_Oj", ptr @"_ZNKSt3__110__function6__funcIZ4mainE3$_6NS_9allocatorIS2_EEFvPjS5_jEE6targetERKSt9type_info", ptr @"_ZNKSt3__110__function6__funcIZ4mainE3$_6NS_9allocatorIS2_EEFvPjS5_jEE11target_typeEv"] }, align 8
@"_ZTSNSt3__110__function6__funcIZ4mainE3$_6NS_9allocatorIS2_EEFvPjS5_jEEE" = internal constant [69 x i8] c"NSt3__110__function6__funcIZ4mainE3$_6NS_9allocatorIS2_EEFvPjS5_jEEE\00", align 1
@"_ZTINSt3__110__function6__funcIZ4mainE3$_6NS_9allocatorIS2_EEFvPjS5_jEEE" = internal constant { ptr, ptr, ptr } { ptr getelementptr inbounds (ptr, ptr @_ZTVN10__cxxabiv120__si_class_type_infoE, i64 2), ptr @"_ZTSNSt3__110__function6__funcIZ4mainE3$_6NS_9allocatorIS2_EEFvPjS5_jEEE", ptr @_ZTINSt3__110__function6__baseIFvPjS2_jEEE }, align 8
@"_ZTVNSt3__110__function6__funcIZ4mainE3$_7NS_9allocatorIS2_EEFvPjS5_jEEE" = internal unnamed_addr constant { [11 x ptr] } { [11 x ptr] [ptr null, ptr @"_ZTINSt3__110__function6__funcIZ4mainE3$_7NS_9allocatorIS2_EEFvPjS5_jEEE", ptr @_ZNSt3__110__function6__baseIFvPjS2_jEED2Ev, ptr @"_ZNSt3__110__function6__funcIZ4mainE3$_7NS_9allocatorIS2_EEFvPjS5_jEED0Ev", ptr @"_ZNKSt3__110__function6__funcIZ4mainE3$_7NS_9allocatorIS2_EEFvPjS5_jEE7__cloneEv", ptr @"_ZNKSt3__110__function6__funcIZ4mainE3$_7NS_9allocatorIS2_EEFvPjS5_jEE7__cloneEPNS0_6__baseIS6_EE", ptr @"_ZNSt3__110__function6__funcIZ4mainE3$_7NS_9allocatorIS2_EEFvPjS5_jEE7destroyEv", ptr @"_ZNSt3__110__function6__funcIZ4mainE3$_7NS_9allocatorIS2_EEFvPjS5_jEE18destroy_deallocateEv", ptr @"_ZNSt3__110__function6__funcIZ4mainE3$_7NS_9allocatorIS2_EEFvPjS5_jEEclEOS5_S8_Oj", ptr @"_ZNKSt3__110__function6__funcIZ4mainE3$_7NS_9allocatorIS2_EEFvPjS5_jEE6targetERKSt9type_info", ptr @"_ZNKSt3__110__function6__funcIZ4mainE3$_7NS_9allocatorIS2_EEFvPjS5_jEE11target_typeEv"] }, align 8
@"_ZTSNSt3__110__function6__funcIZ4mainE3$_7NS_9allocatorIS2_EEFvPjS5_jEEE" = internal constant [69 x i8] c"NSt3__110__function6__funcIZ4mainE3$_7NS_9allocatorIS2_EEFvPjS5_jEEE\00", align 1
@"_ZTINSt3__110__function6__funcIZ4mainE3$_7NS_9allocatorIS2_EEFvPjS5_jEEE" = internal constant { ptr, ptr, ptr } { ptr getelementptr inbounds (ptr, ptr @_ZTVN10__cxxabiv120__si_class_type_infoE, i64 2), ptr @"_ZTSNSt3__110__function6__funcIZ4mainE3$_7NS_9allocatorIS2_EEFvPjS5_jEEE", ptr @_ZTINSt3__110__function6__baseIFvPjS2_jEEE }, align 8
@"_ZTVNSt3__110__function6__funcIZ4mainE3$_6NS_9allocatorIS2_EEFvPmS5_jEEE" = internal unnamed_addr constant { [11 x ptr] } { [11 x ptr] [ptr null, ptr @"_ZTINSt3__110__function6__funcIZ4mainE3$_6NS_9allocatorIS2_EEFvPmS5_jEEE", ptr @_ZNSt3__110__function6__baseIFvPmS2_jEED2Ev, ptr @"_ZNSt3__110__function6__funcIZ4mainE3$_6NS_9allocatorIS2_EEFvPmS5_jEED0Ev", ptr @"_ZNKSt3__110__function6__funcIZ4mainE3$_6NS_9allocatorIS2_EEFvPmS5_jEE7__cloneEv", ptr @"_ZNKSt3__110__function6__funcIZ4mainE3$_6NS_9allocatorIS2_EEFvPmS5_jEE7__cloneEPNS0_6__baseIS6_EE", ptr @"_ZNSt3__110__function6__funcIZ4mainE3$_6NS_9allocatorIS2_EEFvPmS5_jEE7destroyEv", ptr @"_ZNSt3__110__function6__funcIZ4mainE3$_6NS_9allocatorIS2_EEFvPmS5_jEE18destroy_deallocateEv", ptr @"_ZNSt3__110__function6__funcIZ4mainE3$_6NS_9allocatorIS2_EEFvPmS5_jEEclEOS5_S8_Oj", ptr @"_ZNKSt3__110__function6__funcIZ4mainE3$_6NS_9allocatorIS2_EEFvPmS5_jEE6targetERKSt9type_info", ptr @"_ZNKSt3__110__function6__funcIZ4mainE3$_6NS_9allocatorIS2_EEFvPmS5_jEE11target_typeEv"] }, align 8
@"_ZTSNSt3__110__function6__funcIZ4mainE3$_6NS_9allocatorIS2_EEFvPmS5_jEEE" = internal constant [69 x i8] c"NSt3__110__function6__funcIZ4mainE3$_6NS_9allocatorIS2_EEFvPmS5_jEEE\00", align 1
@"_ZTINSt3__110__function6__funcIZ4mainE3$_6NS_9allocatorIS2_EEFvPmS5_jEEE" = internal constant { ptr, ptr, ptr } { ptr getelementptr inbounds (ptr, ptr @_ZTVN10__cxxabiv120__si_class_type_infoE, i64 2), ptr @"_ZTSNSt3__110__function6__funcIZ4mainE3$_6NS_9allocatorIS2_EEFvPmS5_jEEE", ptr @_ZTINSt3__110__function6__baseIFvPmS2_jEEE }, align 8
@"_ZTVNSt3__110__function6__funcIZ4mainE3$_7NS_9allocatorIS2_EEFvPmS5_jEEE" = internal unnamed_addr constant { [11 x ptr] } { [11 x ptr] [ptr null, ptr @"_ZTINSt3__110__function6__funcIZ4mainE3$_7NS_9allocatorIS2_EEFvPmS5_jEEE", ptr @_ZNSt3__110__function6__baseIFvPmS2_jEED2Ev, ptr @"_ZNSt3__110__function6__funcIZ4mainE3$_7NS_9allocatorIS2_EEFvPmS5_jEED0Ev", ptr @"_ZNKSt3__110__function6__funcIZ4mainE3$_7NS_9allocatorIS2_EEFvPmS5_jEE7__cloneEv", ptr @"_ZNKSt3__110__function6__funcIZ4mainE3$_7NS_9allocatorIS2_EEFvPmS5_jEE7__cloneEPNS0_6__baseIS6_EE", ptr @"_ZNSt3__110__function6__funcIZ4mainE3$_7NS_9allocatorIS2_EEFvPmS5_jEE7destroyEv", ptr @"_ZNSt3__110__function6__funcIZ4mainE3$_7NS_9allocatorIS2_EEFvPmS5_jEE18destroy_deallocateEv", ptr @"_ZNSt3__110__function6__funcIZ4mainE3$_7NS_9allocatorIS2_EEFvPmS5_jEEclEOS5_S8_Oj", ptr @"_ZNKSt3__110__function6__funcIZ4mainE3$_7NS_9allocatorIS2_EEFvPmS5_jEE6targetERKSt9type_info", ptr @"_ZNKSt3__110__function6__funcIZ4mainE3$_7NS_9allocatorIS2_EEFvPmS5_jEE11target_typeEv"] }, align 8
@"_ZTSNSt3__110__function6__funcIZ4mainE3$_7NS_9allocatorIS2_EEFvPmS5_jEEE" = internal constant [69 x i8] c"NSt3__110__function6__funcIZ4mainE3$_7NS_9allocatorIS2_EEFvPmS5_jEEE\00", align 1
@"_ZTINSt3__110__function6__funcIZ4mainE3$_7NS_9allocatorIS2_EEFvPmS5_jEEE" = internal constant { ptr, ptr, ptr } { ptr getelementptr inbounds (ptr, ptr @_ZTVN10__cxxabiv120__si_class_type_infoE, i64 2), ptr @"_ZTSNSt3__110__function6__funcIZ4mainE3$_7NS_9allocatorIS2_EEFvPmS5_jEEE", ptr @_ZTINSt3__110__function6__baseIFvPmS2_jEEE }, align 8
@"_ZTVNSt3__110__function6__funcIZ4mainE3$_8NS_9allocatorIS2_EEFvPhS5_jEEE" = internal unnamed_addr constant { [11 x ptr] } { [11 x ptr] [ptr null, ptr @"_ZTINSt3__110__function6__funcIZ4mainE3$_8NS_9allocatorIS2_EEFvPhS5_jEEE", ptr @_ZNSt3__110__function6__baseIFvPhS2_jEED2Ev, ptr @"_ZNSt3__110__function6__funcIZ4mainE3$_8NS_9allocatorIS2_EEFvPhS5_jEED0Ev", ptr @"_ZNKSt3__110__function6__funcIZ4mainE3$_8NS_9allocatorIS2_EEFvPhS5_jEE7__cloneEv", ptr @"_ZNKSt3__110__function6__funcIZ4mainE3$_8NS_9allocatorIS2_EEFvPhS5_jEE7__cloneEPNS0_6__baseIS6_EE", ptr @"_ZNSt3__110__function6__funcIZ4mainE3$_8NS_9allocatorIS2_EEFvPhS5_jEE7destroyEv", ptr @"_ZNSt3__110__function6__funcIZ4mainE3$_8NS_9allocatorIS2_EEFvPhS5_jEE18destroy_deallocateEv", ptr @"_ZNSt3__110__function6__funcIZ4mainE3$_8NS_9allocatorIS2_EEFvPhS5_jEEclEOS5_S8_Oj", ptr @"_ZNKSt3__110__function6__funcIZ4mainE3$_8NS_9allocatorIS2_EEFvPhS5_jEE6targetERKSt9type_info", ptr @"_ZNKSt3__110__function6__funcIZ4mainE3$_8NS_9allocatorIS2_EEFvPhS5_jEE11target_typeEv"] }, align 8
@"_ZTSNSt3__110__function6__funcIZ4mainE3$_8NS_9allocatorIS2_EEFvPhS5_jEEE" = internal constant [69 x i8] c"NSt3__110__function6__funcIZ4mainE3$_8NS_9allocatorIS2_EEFvPhS5_jEEE\00", align 1
@"_ZTINSt3__110__function6__funcIZ4mainE3$_8NS_9allocatorIS2_EEFvPhS5_jEEE" = internal constant { ptr, ptr, ptr } { ptr getelementptr inbounds (ptr, ptr @_ZTVN10__cxxabiv120__si_class_type_infoE, i64 2), ptr @"_ZTSNSt3__110__function6__funcIZ4mainE3$_8NS_9allocatorIS2_EEFvPhS5_jEEE", ptr @_ZTINSt3__110__function6__baseIFvPhS2_jEEE }, align 8
@"_ZTSZ4mainE3$_8" = internal constant [12 x i8] c"Z4mainE3$_8\00", align 1
@"_ZTIZ4mainE3$_8" = internal constant { ptr, ptr } { ptr getelementptr inbounds (ptr, ptr @_ZTVN10__cxxabiv117__class_type_infoE, i64 2), ptr @"_ZTSZ4mainE3$_8" }, align 8
@"_ZTVNSt3__110__function6__funcIZ4mainE3$_9NS_9allocatorIS2_EEFvPhS5_jEEE" = internal unnamed_addr constant { [11 x ptr] } { [11 x ptr] [ptr null, ptr @"_ZTINSt3__110__function6__funcIZ4mainE3$_9NS_9allocatorIS2_EEFvPhS5_jEEE", ptr @_ZNSt3__110__function6__baseIFvPhS2_jEED2Ev, ptr @"_ZNSt3__110__function6__funcIZ4mainE3$_9NS_9allocatorIS2_EEFvPhS5_jEED0Ev", ptr @"_ZNKSt3__110__function6__funcIZ4mainE3$_9NS_9allocatorIS2_EEFvPhS5_jEE7__cloneEv", ptr @"_ZNKSt3__110__function6__funcIZ4mainE3$_9NS_9allocatorIS2_EEFvPhS5_jEE7__cloneEPNS0_6__baseIS6_EE", ptr @"_ZNSt3__110__function6__funcIZ4mainE3$_9NS_9allocatorIS2_EEFvPhS5_jEE7destroyEv", ptr @"_ZNSt3__110__function6__funcIZ4mainE3$_9NS_9allocatorIS2_EEFvPhS5_jEE18destroy_deallocateEv", ptr @"_ZNSt3__110__function6__funcIZ4mainE3$_9NS_9allocatorIS2_EEFvPhS5_jEEclEOS5_S8_Oj", ptr @"_ZNKSt3__110__function6__funcIZ4mainE3$_9NS_9allocatorIS2_EEFvPhS5_jEE6targetERKSt9type_info", ptr @"_ZNKSt3__110__function6__funcIZ4mainE3$_9NS_9allocatorIS2_EEFvPhS5_jEE11target_typeEv"] }, align 8
@"_ZTSNSt3__110__function6__funcIZ4mainE3$_9NS_9allocatorIS2_EEFvPhS5_jEEE" = internal constant [69 x i8] c"NSt3__110__function6__funcIZ4mainE3$_9NS_9allocatorIS2_EEFvPhS5_jEEE\00", align 1
@"_ZTINSt3__110__function6__funcIZ4mainE3$_9NS_9allocatorIS2_EEFvPhS5_jEEE" = internal constant { ptr, ptr, ptr } { ptr getelementptr inbounds (ptr, ptr @_ZTVN10__cxxabiv120__si_class_type_infoE, i64 2), ptr @"_ZTSNSt3__110__function6__funcIZ4mainE3$_9NS_9allocatorIS2_EEFvPhS5_jEEE", ptr @_ZTINSt3__110__function6__baseIFvPhS2_jEEE }, align 8
@"_ZTSZ4mainE3$_9" = internal constant [12 x i8] c"Z4mainE3$_9\00", align 1
@"_ZTIZ4mainE3$_9" = internal constant { ptr, ptr } { ptr getelementptr inbounds (ptr, ptr @_ZTVN10__cxxabiv117__class_type_infoE, i64 2), ptr @"_ZTSZ4mainE3$_9" }, align 8
@"_ZTVNSt3__110__function6__funcIZ4mainE3$_8NS_9allocatorIS2_EEFvPjS5_jEEE" = internal unnamed_addr constant { [11 x ptr] } { [11 x ptr] [ptr null, ptr @"_ZTINSt3__110__function6__funcIZ4mainE3$_8NS_9allocatorIS2_EEFvPjS5_jEEE", ptr @_ZNSt3__110__function6__baseIFvPjS2_jEED2Ev, ptr @"_ZNSt3__110__function6__funcIZ4mainE3$_8NS_9allocatorIS2_EEFvPjS5_jEED0Ev", ptr @"_ZNKSt3__110__function6__funcIZ4mainE3$_8NS_9allocatorIS2_EEFvPjS5_jEE7__cloneEv", ptr @"_ZNKSt3__110__function6__funcIZ4mainE3$_8NS_9allocatorIS2_EEFvPjS5_jEE7__cloneEPNS0_6__baseIS6_EE", ptr @"_ZNSt3__110__function6__funcIZ4mainE3$_8NS_9allocatorIS2_EEFvPjS5_jEE7destroyEv", ptr @"_ZNSt3__110__function6__funcIZ4mainE3$_8NS_9allocatorIS2_EEFvPjS5_jEE18destroy_deallocateEv", ptr @"_ZNSt3__110__function6__funcIZ4mainE3$_8NS_9allocatorIS2_EEFvPjS5_jEEclEOS5_S8_Oj", ptr @"_ZNKSt3__110__function6__funcIZ4mainE3$_8NS_9allocatorIS2_EEFvPjS5_jEE6targetERKSt9type_info", ptr @"_ZNKSt3__110__function6__funcIZ4mainE3$_8NS_9allocatorIS2_EEFvPjS5_jEE11target_typeEv"] }, align 8
@"_ZTSNSt3__110__function6__funcIZ4mainE3$_8NS_9allocatorIS2_EEFvPjS5_jEEE" = internal constant [69 x i8] c"NSt3__110__function6__funcIZ4mainE3$_8NS_9allocatorIS2_EEFvPjS5_jEEE\00", align 1
@"_ZTINSt3__110__function6__funcIZ4mainE3$_8NS_9allocatorIS2_EEFvPjS5_jEEE" = internal constant { ptr, ptr, ptr } { ptr getelementptr inbounds (ptr, ptr @_ZTVN10__cxxabiv120__si_class_type_infoE, i64 2), ptr @"_ZTSNSt3__110__function6__funcIZ4mainE3$_8NS_9allocatorIS2_EEFvPjS5_jEEE", ptr @_ZTINSt3__110__function6__baseIFvPjS2_jEEE }, align 8
@"_ZTVNSt3__110__function6__funcIZ4mainE3$_9NS_9allocatorIS2_EEFvPjS5_jEEE" = internal unnamed_addr constant { [11 x ptr] } { [11 x ptr] [ptr null, ptr @"_ZTINSt3__110__function6__funcIZ4mainE3$_9NS_9allocatorIS2_EEFvPjS5_jEEE", ptr @_ZNSt3__110__function6__baseIFvPjS2_jEED2Ev, ptr @"_ZNSt3__110__function6__funcIZ4mainE3$_9NS_9allocatorIS2_EEFvPjS5_jEED0Ev", ptr @"_ZNKSt3__110__function6__funcIZ4mainE3$_9NS_9allocatorIS2_EEFvPjS5_jEE7__cloneEv", ptr @"_ZNKSt3__110__function6__funcIZ4mainE3$_9NS_9allocatorIS2_EEFvPjS5_jEE7__cloneEPNS0_6__baseIS6_EE", ptr @"_ZNSt3__110__function6__funcIZ4mainE3$_9NS_9allocatorIS2_EEFvPjS5_jEE7destroyEv", ptr @"_ZNSt3__110__function6__funcIZ4mainE3$_9NS_9allocatorIS2_EEFvPjS5_jEE18destroy_deallocateEv", ptr @"_ZNSt3__110__function6__funcIZ4mainE3$_9NS_9allocatorIS2_EEFvPjS5_jEEclEOS5_S8_Oj", ptr @"_ZNKSt3__110__function6__funcIZ4mainE3$_9NS_9allocatorIS2_EEFvPjS5_jEE6targetERKSt9type_info", ptr @"_ZNKSt3__110__function6__funcIZ4mainE3$_9NS_9allocatorIS2_EEFvPjS5_jEE11target_typeEv"] }, align 8
@"_ZTSNSt3__110__function6__funcIZ4mainE3$_9NS_9allocatorIS2_EEFvPjS5_jEEE" = internal constant [69 x i8] c"NSt3__110__function6__funcIZ4mainE3$_9NS_9allocatorIS2_EEFvPjS5_jEEE\00", align 1
@"_ZTINSt3__110__function6__funcIZ4mainE3$_9NS_9allocatorIS2_EEFvPjS5_jEEE" = internal constant { ptr, ptr, ptr } { ptr getelementptr inbounds (ptr, ptr @_ZTVN10__cxxabiv120__si_class_type_infoE, i64 2), ptr @"_ZTSNSt3__110__function6__funcIZ4mainE3$_9NS_9allocatorIS2_EEFvPjS5_jEEE", ptr @_ZTINSt3__110__function6__baseIFvPjS2_jEEE }, align 8
@"_ZTVNSt3__110__function6__funcIZ4mainE3$_8NS_9allocatorIS2_EEFvPmS5_jEEE" = internal unnamed_addr constant { [11 x ptr] } { [11 x ptr] [ptr null, ptr @"_ZTINSt3__110__function6__funcIZ4mainE3$_8NS_9allocatorIS2_EEFvPmS5_jEEE", ptr @_ZNSt3__110__function6__baseIFvPmS2_jEED2Ev, ptr @"_ZNSt3__110__function6__funcIZ4mainE3$_8NS_9allocatorIS2_EEFvPmS5_jEED0Ev", ptr @"_ZNKSt3__110__function6__funcIZ4mainE3$_8NS_9allocatorIS2_EEFvPmS5_jEE7__cloneEv", ptr @"_ZNKSt3__110__function6__funcIZ4mainE3$_8NS_9allocatorIS2_EEFvPmS5_jEE7__cloneEPNS0_6__baseIS6_EE", ptr @"_ZNSt3__110__function6__funcIZ4mainE3$_8NS_9allocatorIS2_EEFvPmS5_jEE7destroyEv", ptr @"_ZNSt3__110__function6__funcIZ4mainE3$_8NS_9allocatorIS2_EEFvPmS5_jEE18destroy_deallocateEv", ptr @"_ZNSt3__110__function6__funcIZ4mainE3$_8NS_9allocatorIS2_EEFvPmS5_jEEclEOS5_S8_Oj", ptr @"_ZNKSt3__110__function6__funcIZ4mainE3$_8NS_9allocatorIS2_EEFvPmS5_jEE6targetERKSt9type_info", ptr @"_ZNKSt3__110__function6__funcIZ4mainE3$_8NS_9allocatorIS2_EEFvPmS5_jEE11target_typeEv"] }, align 8
@"_ZTSNSt3__110__function6__funcIZ4mainE3$_8NS_9allocatorIS2_EEFvPmS5_jEEE" = internal constant [69 x i8] c"NSt3__110__function6__funcIZ4mainE3$_8NS_9allocatorIS2_EEFvPmS5_jEEE\00", align 1
@"_ZTINSt3__110__function6__funcIZ4mainE3$_8NS_9allocatorIS2_EEFvPmS5_jEEE" = internal constant { ptr, ptr, ptr } { ptr getelementptr inbounds (ptr, ptr @_ZTVN10__cxxabiv120__si_class_type_infoE, i64 2), ptr @"_ZTSNSt3__110__function6__funcIZ4mainE3$_8NS_9allocatorIS2_EEFvPmS5_jEEE", ptr @_ZTINSt3__110__function6__baseIFvPmS2_jEEE }, align 8
@"_ZTVNSt3__110__function6__funcIZ4mainE3$_9NS_9allocatorIS2_EEFvPmS5_jEEE" = internal unnamed_addr constant { [11 x ptr] } { [11 x ptr] [ptr null, ptr @"_ZTINSt3__110__function6__funcIZ4mainE3$_9NS_9allocatorIS2_EEFvPmS5_jEEE", ptr @_ZNSt3__110__function6__baseIFvPmS2_jEED2Ev, ptr @"_ZNSt3__110__function6__funcIZ4mainE3$_9NS_9allocatorIS2_EEFvPmS5_jEED0Ev", ptr @"_ZNKSt3__110__function6__funcIZ4mainE3$_9NS_9allocatorIS2_EEFvPmS5_jEE7__cloneEv", ptr @"_ZNKSt3__110__function6__funcIZ4mainE3$_9NS_9allocatorIS2_EEFvPmS5_jEE7__cloneEPNS0_6__baseIS6_EE", ptr @"_ZNSt3__110__function6__funcIZ4mainE3$_9NS_9allocatorIS2_EEFvPmS5_jEE7destroyEv", ptr @"_ZNSt3__110__function6__funcIZ4mainE3$_9NS_9allocatorIS2_EEFvPmS5_jEE18destroy_deallocateEv", ptr @"_ZNSt3__110__function6__funcIZ4mainE3$_9NS_9allocatorIS2_EEFvPmS5_jEEclEOS5_S8_Oj", ptr @"_ZNKSt3__110__function6__funcIZ4mainE3$_9NS_9allocatorIS2_EEFvPmS5_jEE6targetERKSt9type_info", ptr @"_ZNKSt3__110__function6__funcIZ4mainE3$_9NS_9allocatorIS2_EEFvPmS5_jEE11target_typeEv"] }, align 8
@"_ZTSNSt3__110__function6__funcIZ4mainE3$_9NS_9allocatorIS2_EEFvPmS5_jEEE" = internal constant [69 x i8] c"NSt3__110__function6__funcIZ4mainE3$_9NS_9allocatorIS2_EEFvPmS5_jEEE\00", align 1
@"_ZTINSt3__110__function6__funcIZ4mainE3$_9NS_9allocatorIS2_EEFvPmS5_jEEE" = internal constant { ptr, ptr, ptr } { ptr getelementptr inbounds (ptr, ptr @_ZTVN10__cxxabiv120__si_class_type_infoE, i64 2), ptr @"_ZTSNSt3__110__function6__funcIZ4mainE3$_9NS_9allocatorIS2_EEFvPmS5_jEEE", ptr @_ZTINSt3__110__function6__baseIFvPmS2_jEEE }, align 8
@"_ZTVNSt3__110__function6__funcIZ4mainE4$_10NS_9allocatorIS2_EEFvPhS5_jEEE" = internal unnamed_addr constant { [11 x ptr] } { [11 x ptr] [ptr null, ptr @"_ZTINSt3__110__function6__funcIZ4mainE4$_10NS_9allocatorIS2_EEFvPhS5_jEEE", ptr @_ZNSt3__110__function6__baseIFvPhS2_jEED2Ev, ptr @"_ZNSt3__110__function6__funcIZ4mainE4$_10NS_9allocatorIS2_EEFvPhS5_jEED0Ev", ptr @"_ZNKSt3__110__function6__funcIZ4mainE4$_10NS_9allocatorIS2_EEFvPhS5_jEE7__cloneEv", ptr @"_ZNKSt3__110__function6__funcIZ4mainE4$_10NS_9allocatorIS2_EEFvPhS5_jEE7__cloneEPNS0_6__baseIS6_EE", ptr @"_ZNSt3__110__function6__funcIZ4mainE4$_10NS_9allocatorIS2_EEFvPhS5_jEE7destroyEv", ptr @"_ZNSt3__110__function6__funcIZ4mainE4$_10NS_9allocatorIS2_EEFvPhS5_jEE18destroy_deallocateEv", ptr @"_ZNSt3__110__function6__funcIZ4mainE4$_10NS_9allocatorIS2_EEFvPhS5_jEEclEOS5_S8_Oj", ptr @"_ZNKSt3__110__function6__funcIZ4mainE4$_10NS_9allocatorIS2_EEFvPhS5_jEE6targetERKSt9type_info", ptr @"_ZNKSt3__110__function6__funcIZ4mainE4$_10NS_9allocatorIS2_EEFvPhS5_jEE11target_typeEv"] }, align 8
@"_ZTSNSt3__110__function6__funcIZ4mainE4$_10NS_9allocatorIS2_EEFvPhS5_jEEE" = internal constant [70 x i8] c"NSt3__110__function6__funcIZ4mainE4$_10NS_9allocatorIS2_EEFvPhS5_jEEE\00", align 1
@"_ZTINSt3__110__function6__funcIZ4mainE4$_10NS_9allocatorIS2_EEFvPhS5_jEEE" = internal constant { ptr, ptr, ptr } { ptr getelementptr inbounds (ptr, ptr @_ZTVN10__cxxabiv120__si_class_type_infoE, i64 2), ptr @"_ZTSNSt3__110__function6__funcIZ4mainE4$_10NS_9allocatorIS2_EEFvPhS5_jEEE", ptr @_ZTINSt3__110__function6__baseIFvPhS2_jEEE }, align 8
@"_ZTSZ4mainE4$_10" = internal constant [13 x i8] c"Z4mainE4$_10\00", align 1
@"_ZTIZ4mainE4$_10" = internal constant { ptr, ptr } { ptr getelementptr inbounds (ptr, ptr @_ZTVN10__cxxabiv117__class_type_infoE, i64 2), ptr @"_ZTSZ4mainE4$_10" }, align 8
@"_ZTVNSt3__110__function6__funcIZ4mainE4$_11NS_9allocatorIS2_EEFvPhS5_jEEE" = internal unnamed_addr constant { [11 x ptr] } { [11 x ptr] [ptr null, ptr @"_ZTINSt3__110__function6__funcIZ4mainE4$_11NS_9allocatorIS2_EEFvPhS5_jEEE", ptr @_ZNSt3__110__function6__baseIFvPhS2_jEED2Ev, ptr @"_ZNSt3__110__function6__funcIZ4mainE4$_11NS_9allocatorIS2_EEFvPhS5_jEED0Ev", ptr @"_ZNKSt3__110__function6__funcIZ4mainE4$_11NS_9allocatorIS2_EEFvPhS5_jEE7__cloneEv", ptr @"_ZNKSt3__110__function6__funcIZ4mainE4$_11NS_9allocatorIS2_EEFvPhS5_jEE7__cloneEPNS0_6__baseIS6_EE", ptr @"_ZNSt3__110__function6__funcIZ4mainE4$_11NS_9allocatorIS2_EEFvPhS5_jEE7destroyEv", ptr @"_ZNSt3__110__function6__funcIZ4mainE4$_11NS_9allocatorIS2_EEFvPhS5_jEE18destroy_deallocateEv", ptr @"_ZNSt3__110__function6__funcIZ4mainE4$_11NS_9allocatorIS2_EEFvPhS5_jEEclEOS5_S8_Oj", ptr @"_ZNKSt3__110__function6__funcIZ4mainE4$_11NS_9allocatorIS2_EEFvPhS5_jEE6targetERKSt9type_info", ptr @"_ZNKSt3__110__function6__funcIZ4mainE4$_11NS_9allocatorIS2_EEFvPhS5_jEE11target_typeEv"] }, align 8
@"_ZTSNSt3__110__function6__funcIZ4mainE4$_11NS_9allocatorIS2_EEFvPhS5_jEEE" = internal constant [70 x i8] c"NSt3__110__function6__funcIZ4mainE4$_11NS_9allocatorIS2_EEFvPhS5_jEEE\00", align 1
@"_ZTINSt3__110__function6__funcIZ4mainE4$_11NS_9allocatorIS2_EEFvPhS5_jEEE" = internal constant { ptr, ptr, ptr } { ptr getelementptr inbounds (ptr, ptr @_ZTVN10__cxxabiv120__si_class_type_infoE, i64 2), ptr @"_ZTSNSt3__110__function6__funcIZ4mainE4$_11NS_9allocatorIS2_EEFvPhS5_jEEE", ptr @_ZTINSt3__110__function6__baseIFvPhS2_jEEE }, align 8
@"_ZTSZ4mainE4$_11" = internal constant [13 x i8] c"Z4mainE4$_11\00", align 1
@"_ZTIZ4mainE4$_11" = internal constant { ptr, ptr } { ptr getelementptr inbounds (ptr, ptr @_ZTVN10__cxxabiv117__class_type_infoE, i64 2), ptr @"_ZTSZ4mainE4$_11" }, align 8
@"_ZTVNSt3__110__function6__funcIZ4mainE4$_10NS_9allocatorIS2_EEFvPjS5_jEEE" = internal unnamed_addr constant { [11 x ptr] } { [11 x ptr] [ptr null, ptr @"_ZTINSt3__110__function6__funcIZ4mainE4$_10NS_9allocatorIS2_EEFvPjS5_jEEE", ptr @_ZNSt3__110__function6__baseIFvPjS2_jEED2Ev, ptr @"_ZNSt3__110__function6__funcIZ4mainE4$_10NS_9allocatorIS2_EEFvPjS5_jEED0Ev", ptr @"_ZNKSt3__110__function6__funcIZ4mainE4$_10NS_9allocatorIS2_EEFvPjS5_jEE7__cloneEv", ptr @"_ZNKSt3__110__function6__funcIZ4mainE4$_10NS_9allocatorIS2_EEFvPjS5_jEE7__cloneEPNS0_6__baseIS6_EE", ptr @"_ZNSt3__110__function6__funcIZ4mainE4$_10NS_9allocatorIS2_EEFvPjS5_jEE7destroyEv", ptr @"_ZNSt3__110__function6__funcIZ4mainE4$_10NS_9allocatorIS2_EEFvPjS5_jEE18destroy_deallocateEv", ptr @"_ZNSt3__110__function6__funcIZ4mainE4$_10NS_9allocatorIS2_EEFvPjS5_jEEclEOS5_S8_Oj", ptr @"_ZNKSt3__110__function6__funcIZ4mainE4$_10NS_9allocatorIS2_EEFvPjS5_jEE6targetERKSt9type_info", ptr @"_ZNKSt3__110__function6__funcIZ4mainE4$_10NS_9allocatorIS2_EEFvPjS5_jEE11target_typeEv"] }, align 8
@"_ZTSNSt3__110__function6__funcIZ4mainE4$_10NS_9allocatorIS2_EEFvPjS5_jEEE" = internal constant [70 x i8] c"NSt3__110__function6__funcIZ4mainE4$_10NS_9allocatorIS2_EEFvPjS5_jEEE\00", align 1
@"_ZTINSt3__110__function6__funcIZ4mainE4$_10NS_9allocatorIS2_EEFvPjS5_jEEE" = internal constant { ptr, ptr, ptr } { ptr getelementptr inbounds (ptr, ptr @_ZTVN10__cxxabiv120__si_class_type_infoE, i64 2), ptr @"_ZTSNSt3__110__function6__funcIZ4mainE4$_10NS_9allocatorIS2_EEFvPjS5_jEEE", ptr @_ZTINSt3__110__function6__baseIFvPjS2_jEEE }, align 8
@"_ZTVNSt3__110__function6__funcIZ4mainE4$_11NS_9allocatorIS2_EEFvPjS5_jEEE" = internal unnamed_addr constant { [11 x ptr] } { [11 x ptr] [ptr null, ptr @"_ZTINSt3__110__function6__funcIZ4mainE4$_11NS_9allocatorIS2_EEFvPjS5_jEEE", ptr @_ZNSt3__110__function6__baseIFvPjS2_jEED2Ev, ptr @"_ZNSt3__110__function6__funcIZ4mainE4$_11NS_9allocatorIS2_EEFvPjS5_jEED0Ev", ptr @"_ZNKSt3__110__function6__funcIZ4mainE4$_11NS_9allocatorIS2_EEFvPjS5_jEE7__cloneEv", ptr @"_ZNKSt3__110__function6__funcIZ4mainE4$_11NS_9allocatorIS2_EEFvPjS5_jEE7__cloneEPNS0_6__baseIS6_EE", ptr @"_ZNSt3__110__function6__funcIZ4mainE4$_11NS_9allocatorIS2_EEFvPjS5_jEE7destroyEv", ptr @"_ZNSt3__110__function6__funcIZ4mainE4$_11NS_9allocatorIS2_EEFvPjS5_jEE18destroy_deallocateEv", ptr @"_ZNSt3__110__function6__funcIZ4mainE4$_11NS_9allocatorIS2_EEFvPjS5_jEEclEOS5_S8_Oj", ptr @"_ZNKSt3__110__function6__funcIZ4mainE4$_11NS_9allocatorIS2_EEFvPjS5_jEE6targetERKSt9type_info", ptr @"_ZNKSt3__110__function6__funcIZ4mainE4$_11NS_9allocatorIS2_EEFvPjS5_jEE11target_typeEv"] }, align 8
@"_ZTSNSt3__110__function6__funcIZ4mainE4$_11NS_9allocatorIS2_EEFvPjS5_jEEE" = internal constant [70 x i8] c"NSt3__110__function6__funcIZ4mainE4$_11NS_9allocatorIS2_EEFvPjS5_jEEE\00", align 1
@"_ZTINSt3__110__function6__funcIZ4mainE4$_11NS_9allocatorIS2_EEFvPjS5_jEEE" = internal constant { ptr, ptr, ptr } { ptr getelementptr inbounds (ptr, ptr @_ZTVN10__cxxabiv120__si_class_type_infoE, i64 2), ptr @"_ZTSNSt3__110__function6__funcIZ4mainE4$_11NS_9allocatorIS2_EEFvPjS5_jEEE", ptr @_ZTINSt3__110__function6__baseIFvPjS2_jEEE }, align 8
@"_ZTVNSt3__110__function6__funcIZ4mainE4$_10NS_9allocatorIS2_EEFvPmS5_jEEE" = internal unnamed_addr constant { [11 x ptr] } { [11 x ptr] [ptr null, ptr @"_ZTINSt3__110__function6__funcIZ4mainE4$_10NS_9allocatorIS2_EEFvPmS5_jEEE", ptr @_ZNSt3__110__function6__baseIFvPmS2_jEED2Ev, ptr @"_ZNSt3__110__function6__funcIZ4mainE4$_10NS_9allocatorIS2_EEFvPmS5_jEED0Ev", ptr @"_ZNKSt3__110__function6__funcIZ4mainE4$_10NS_9allocatorIS2_EEFvPmS5_jEE7__cloneEv", ptr @"_ZNKSt3__110__function6__funcIZ4mainE4$_10NS_9allocatorIS2_EEFvPmS5_jEE7__cloneEPNS0_6__baseIS6_EE", ptr @"_ZNSt3__110__function6__funcIZ4mainE4$_10NS_9allocatorIS2_EEFvPmS5_jEE7destroyEv", ptr @"_ZNSt3__110__function6__funcIZ4mainE4$_10NS_9allocatorIS2_EEFvPmS5_jEE18destroy_deallocateEv", ptr @"_ZNSt3__110__function6__funcIZ4mainE4$_10NS_9allocatorIS2_EEFvPmS5_jEEclEOS5_S8_Oj", ptr @"_ZNKSt3__110__function6__funcIZ4mainE4$_10NS_9allocatorIS2_EEFvPmS5_jEE6targetERKSt9type_info", ptr @"_ZNKSt3__110__function6__funcIZ4mainE4$_10NS_9allocatorIS2_EEFvPmS5_jEE11target_typeEv"] }, align 8
@"_ZTSNSt3__110__function6__funcIZ4mainE4$_10NS_9allocatorIS2_EEFvPmS5_jEEE" = internal constant [70 x i8] c"NSt3__110__function6__funcIZ4mainE4$_10NS_9allocatorIS2_EEFvPmS5_jEEE\00", align 1
@"_ZTINSt3__110__function6__funcIZ4mainE4$_10NS_9allocatorIS2_EEFvPmS5_jEEE" = internal constant { ptr, ptr, ptr } { ptr getelementptr inbounds (ptr, ptr @_ZTVN10__cxxabiv120__si_class_type_infoE, i64 2), ptr @"_ZTSNSt3__110__function6__funcIZ4mainE4$_10NS_9allocatorIS2_EEFvPmS5_jEEE", ptr @_ZTINSt3__110__function6__baseIFvPmS2_jEEE }, align 8
@"_ZTVNSt3__110__function6__funcIZ4mainE4$_11NS_9allocatorIS2_EEFvPmS5_jEEE" = internal unnamed_addr constant { [11 x ptr] } { [11 x ptr] [ptr null, ptr @"_ZTINSt3__110__function6__funcIZ4mainE4$_11NS_9allocatorIS2_EEFvPmS5_jEEE", ptr @_ZNSt3__110__function6__baseIFvPmS2_jEED2Ev, ptr @"_ZNSt3__110__function6__funcIZ4mainE4$_11NS_9allocatorIS2_EEFvPmS5_jEED0Ev", ptr @"_ZNKSt3__110__function6__funcIZ4mainE4$_11NS_9allocatorIS2_EEFvPmS5_jEE7__cloneEv", ptr @"_ZNKSt3__110__function6__funcIZ4mainE4$_11NS_9allocatorIS2_EEFvPmS5_jEE7__cloneEPNS0_6__baseIS6_EE", ptr @"_ZNSt3__110__function6__funcIZ4mainE4$_11NS_9allocatorIS2_EEFvPmS5_jEE7destroyEv", ptr @"_ZNSt3__110__function6__funcIZ4mainE4$_11NS_9allocatorIS2_EEFvPmS5_jEE18destroy_deallocateEv", ptr @"_ZNSt3__110__function6__funcIZ4mainE4$_11NS_9allocatorIS2_EEFvPmS5_jEEclEOS5_S8_Oj", ptr @"_ZNKSt3__110__function6__funcIZ4mainE4$_11NS_9allocatorIS2_EEFvPmS5_jEE6targetERKSt9type_info", ptr @"_ZNKSt3__110__function6__funcIZ4mainE4$_11NS_9allocatorIS2_EEFvPmS5_jEE11target_typeEv"] }, align 8
@"_ZTSNSt3__110__function6__funcIZ4mainE4$_11NS_9allocatorIS2_EEFvPmS5_jEEE" = internal constant [70 x i8] c"NSt3__110__function6__funcIZ4mainE4$_11NS_9allocatorIS2_EEFvPmS5_jEEE\00", align 1
@"_ZTINSt3__110__function6__funcIZ4mainE4$_11NS_9allocatorIS2_EEFvPmS5_jEEE" = internal constant { ptr, ptr, ptr } { ptr getelementptr inbounds (ptr, ptr @_ZTVN10__cxxabiv120__si_class_type_infoE, i64 2), ptr @"_ZTSNSt3__110__function6__funcIZ4mainE4$_11NS_9allocatorIS2_EEFvPmS5_jEEE", ptr @_ZTINSt3__110__function6__baseIFvPmS2_jEEE }, align 8
@"_ZTVNSt3__110__function6__funcIZ4mainE4$_12NS_9allocatorIS2_EEFvPhS5_jEEE" = internal unnamed_addr constant { [11 x ptr] } { [11 x ptr] [ptr null, ptr @"_ZTINSt3__110__function6__funcIZ4mainE4$_12NS_9allocatorIS2_EEFvPhS5_jEEE", ptr @_ZNSt3__110__function6__baseIFvPhS2_jEED2Ev, ptr @"_ZNSt3__110__function6__funcIZ4mainE4$_12NS_9allocatorIS2_EEFvPhS5_jEED0Ev", ptr @"_ZNKSt3__110__function6__funcIZ4mainE4$_12NS_9allocatorIS2_EEFvPhS5_jEE7__cloneEv", ptr @"_ZNKSt3__110__function6__funcIZ4mainE4$_12NS_9allocatorIS2_EEFvPhS5_jEE7__cloneEPNS0_6__baseIS6_EE", ptr @"_ZNSt3__110__function6__funcIZ4mainE4$_12NS_9allocatorIS2_EEFvPhS5_jEE7destroyEv", ptr @"_ZNSt3__110__function6__funcIZ4mainE4$_12NS_9allocatorIS2_EEFvPhS5_jEE18destroy_deallocateEv", ptr @"_ZNSt3__110__function6__funcIZ4mainE4$_12NS_9allocatorIS2_EEFvPhS5_jEEclEOS5_S8_Oj", ptr @"_ZNKSt3__110__function6__funcIZ4mainE4$_12NS_9allocatorIS2_EEFvPhS5_jEE6targetERKSt9type_info", ptr @"_ZNKSt3__110__function6__funcIZ4mainE4$_12NS_9allocatorIS2_EEFvPhS5_jEE11target_typeEv"] }, align 8
@"_ZTSNSt3__110__function6__funcIZ4mainE4$_12NS_9allocatorIS2_EEFvPhS5_jEEE" = internal constant [70 x i8] c"NSt3__110__function6__funcIZ4mainE4$_12NS_9allocatorIS2_EEFvPhS5_jEEE\00", align 1
@"_ZTINSt3__110__function6__funcIZ4mainE4$_12NS_9allocatorIS2_EEFvPhS5_jEEE" = internal constant { ptr, ptr, ptr } { ptr getelementptr inbounds (ptr, ptr @_ZTVN10__cxxabiv120__si_class_type_infoE, i64 2), ptr @"_ZTSNSt3__110__function6__funcIZ4mainE4$_12NS_9allocatorIS2_EEFvPhS5_jEEE", ptr @_ZTINSt3__110__function6__baseIFvPhS2_jEEE }, align 8
@"_ZTSZ4mainE4$_12" = internal constant [13 x i8] c"Z4mainE4$_12\00", align 1
@"_ZTIZ4mainE4$_12" = internal constant { ptr, ptr } { ptr getelementptr inbounds (ptr, ptr @_ZTVN10__cxxabiv117__class_type_infoE, i64 2), ptr @"_ZTSZ4mainE4$_12" }, align 8
@"_ZTVNSt3__110__function6__funcIZ4mainE4$_13NS_9allocatorIS2_EEFvPhS5_jEEE" = internal unnamed_addr constant { [11 x ptr] } { [11 x ptr] [ptr null, ptr @"_ZTINSt3__110__function6__funcIZ4mainE4$_13NS_9allocatorIS2_EEFvPhS5_jEEE", ptr @_ZNSt3__110__function6__baseIFvPhS2_jEED2Ev, ptr @"_ZNSt3__110__function6__funcIZ4mainE4$_13NS_9allocatorIS2_EEFvPhS5_jEED0Ev", ptr @"_ZNKSt3__110__function6__funcIZ4mainE4$_13NS_9allocatorIS2_EEFvPhS5_jEE7__cloneEv", ptr @"_ZNKSt3__110__function6__funcIZ4mainE4$_13NS_9allocatorIS2_EEFvPhS5_jEE7__cloneEPNS0_6__baseIS6_EE", ptr @"_ZNSt3__110__function6__funcIZ4mainE4$_13NS_9allocatorIS2_EEFvPhS5_jEE7destroyEv", ptr @"_ZNSt3__110__function6__funcIZ4mainE4$_13NS_9allocatorIS2_EEFvPhS5_jEE18destroy_deallocateEv", ptr @"_ZNSt3__110__function6__funcIZ4mainE4$_13NS_9allocatorIS2_EEFvPhS5_jEEclEOS5_S8_Oj", ptr @"_ZNKSt3__110__function6__funcIZ4mainE4$_13NS_9allocatorIS2_EEFvPhS5_jEE6targetERKSt9type_info", ptr @"_ZNKSt3__110__function6__funcIZ4mainE4$_13NS_9allocatorIS2_EEFvPhS5_jEE11target_typeEv"] }, align 8
@"_ZTSNSt3__110__function6__funcIZ4mainE4$_13NS_9allocatorIS2_EEFvPhS5_jEEE" = internal constant [70 x i8] c"NSt3__110__function6__funcIZ4mainE4$_13NS_9allocatorIS2_EEFvPhS5_jEEE\00", align 1
@"_ZTINSt3__110__function6__funcIZ4mainE4$_13NS_9allocatorIS2_EEFvPhS5_jEEE" = internal constant { ptr, ptr, ptr } { ptr getelementptr inbounds (ptr, ptr @_ZTVN10__cxxabiv120__si_class_type_infoE, i64 2), ptr @"_ZTSNSt3__110__function6__funcIZ4mainE4$_13NS_9allocatorIS2_EEFvPhS5_jEEE", ptr @_ZTINSt3__110__function6__baseIFvPhS2_jEEE }, align 8
@"_ZTSZ4mainE4$_13" = internal constant [13 x i8] c"Z4mainE4$_13\00", align 1
@"_ZTIZ4mainE4$_13" = internal constant { ptr, ptr } { ptr getelementptr inbounds (ptr, ptr @_ZTVN10__cxxabiv117__class_type_infoE, i64 2), ptr @"_ZTSZ4mainE4$_13" }, align 8
@"_ZTVNSt3__110__function6__funcIZ4mainE4$_12NS_9allocatorIS2_EEFvPjS5_jEEE" = internal unnamed_addr constant { [11 x ptr] } { [11 x ptr] [ptr null, ptr @"_ZTINSt3__110__function6__funcIZ4mainE4$_12NS_9allocatorIS2_EEFvPjS5_jEEE", ptr @_ZNSt3__110__function6__baseIFvPjS2_jEED2Ev, ptr @"_ZNSt3__110__function6__funcIZ4mainE4$_12NS_9allocatorIS2_EEFvPjS5_jEED0Ev", ptr @"_ZNKSt3__110__function6__funcIZ4mainE4$_12NS_9allocatorIS2_EEFvPjS5_jEE7__cloneEv", ptr @"_ZNKSt3__110__function6__funcIZ4mainE4$_12NS_9allocatorIS2_EEFvPjS5_jEE7__cloneEPNS0_6__baseIS6_EE", ptr @"_ZNSt3__110__function6__funcIZ4mainE4$_12NS_9allocatorIS2_EEFvPjS5_jEE7destroyEv", ptr @"_ZNSt3__110__function6__funcIZ4mainE4$_12NS_9allocatorIS2_EEFvPjS5_jEE18destroy_deallocateEv", ptr @"_ZNSt3__110__function6__funcIZ4mainE4$_12NS_9allocatorIS2_EEFvPjS5_jEEclEOS5_S8_Oj", ptr @"_ZNKSt3__110__function6__funcIZ4mainE4$_12NS_9allocatorIS2_EEFvPjS5_jEE6targetERKSt9type_info", ptr @"_ZNKSt3__110__function6__funcIZ4mainE4$_12NS_9allocatorIS2_EEFvPjS5_jEE11target_typeEv"] }, align 8
@"_ZTSNSt3__110__function6__funcIZ4mainE4$_12NS_9allocatorIS2_EEFvPjS5_jEEE" = internal constant [70 x i8] c"NSt3__110__function6__funcIZ4mainE4$_12NS_9allocatorIS2_EEFvPjS5_jEEE\00", align 1
@"_ZTINSt3__110__function6__funcIZ4mainE4$_12NS_9allocatorIS2_EEFvPjS5_jEEE" = internal constant { ptr, ptr, ptr } { ptr getelementptr inbounds (ptr, ptr @_ZTVN10__cxxabiv120__si_class_type_infoE, i64 2), ptr @"_ZTSNSt3__110__function6__funcIZ4mainE4$_12NS_9allocatorIS2_EEFvPjS5_jEEE", ptr @_ZTINSt3__110__function6__baseIFvPjS2_jEEE }, align 8
@"_ZTVNSt3__110__function6__funcIZ4mainE4$_13NS_9allocatorIS2_EEFvPjS5_jEEE" = internal unnamed_addr constant { [11 x ptr] } { [11 x ptr] [ptr null, ptr @"_ZTINSt3__110__function6__funcIZ4mainE4$_13NS_9allocatorIS2_EEFvPjS5_jEEE", ptr @_ZNSt3__110__function6__baseIFvPjS2_jEED2Ev, ptr @"_ZNSt3__110__function6__funcIZ4mainE4$_13NS_9allocatorIS2_EEFvPjS5_jEED0Ev", ptr @"_ZNKSt3__110__function6__funcIZ4mainE4$_13NS_9allocatorIS2_EEFvPjS5_jEE7__cloneEv", ptr @"_ZNKSt3__110__function6__funcIZ4mainE4$_13NS_9allocatorIS2_EEFvPjS5_jEE7__cloneEPNS0_6__baseIS6_EE", ptr @"_ZNSt3__110__function6__funcIZ4mainE4$_13NS_9allocatorIS2_EEFvPjS5_jEE7destroyEv", ptr @"_ZNSt3__110__function6__funcIZ4mainE4$_13NS_9allocatorIS2_EEFvPjS5_jEE18destroy_deallocateEv", ptr @"_ZNSt3__110__function6__funcIZ4mainE4$_13NS_9allocatorIS2_EEFvPjS5_jEEclEOS5_S8_Oj", ptr @"_ZNKSt3__110__function6__funcIZ4mainE4$_13NS_9allocatorIS2_EEFvPjS5_jEE6targetERKSt9type_info", ptr @"_ZNKSt3__110__function6__funcIZ4mainE4$_13NS_9allocatorIS2_EEFvPjS5_jEE11target_typeEv"] }, align 8
@"_ZTSNSt3__110__function6__funcIZ4mainE4$_13NS_9allocatorIS2_EEFvPjS5_jEEE" = internal constant [70 x i8] c"NSt3__110__function6__funcIZ4mainE4$_13NS_9allocatorIS2_EEFvPjS5_jEEE\00", align 1
@"_ZTINSt3__110__function6__funcIZ4mainE4$_13NS_9allocatorIS2_EEFvPjS5_jEEE" = internal constant { ptr, ptr, ptr } { ptr getelementptr inbounds (ptr, ptr @_ZTVN10__cxxabiv120__si_class_type_infoE, i64 2), ptr @"_ZTSNSt3__110__function6__funcIZ4mainE4$_13NS_9allocatorIS2_EEFvPjS5_jEEE", ptr @_ZTINSt3__110__function6__baseIFvPjS2_jEEE }, align 8
@"_ZTVNSt3__110__function6__funcIZ4mainE4$_12NS_9allocatorIS2_EEFvPmS5_jEEE" = internal unnamed_addr constant { [11 x ptr] } { [11 x ptr] [ptr null, ptr @"_ZTINSt3__110__function6__funcIZ4mainE4$_12NS_9allocatorIS2_EEFvPmS5_jEEE", ptr @_ZNSt3__110__function6__baseIFvPmS2_jEED2Ev, ptr @"_ZNSt3__110__function6__funcIZ4mainE4$_12NS_9allocatorIS2_EEFvPmS5_jEED0Ev", ptr @"_ZNKSt3__110__function6__funcIZ4mainE4$_12NS_9allocatorIS2_EEFvPmS5_jEE7__cloneEv", ptr @"_ZNKSt3__110__function6__funcIZ4mainE4$_12NS_9allocatorIS2_EEFvPmS5_jEE7__cloneEPNS0_6__baseIS6_EE", ptr @"_ZNSt3__110__function6__funcIZ4mainE4$_12NS_9allocatorIS2_EEFvPmS5_jEE7destroyEv", ptr @"_ZNSt3__110__function6__funcIZ4mainE4$_12NS_9allocatorIS2_EEFvPmS5_jEE18destroy_deallocateEv", ptr @"_ZNSt3__110__function6__funcIZ4mainE4$_12NS_9allocatorIS2_EEFvPmS5_jEEclEOS5_S8_Oj", ptr @"_ZNKSt3__110__function6__funcIZ4mainE4$_12NS_9allocatorIS2_EEFvPmS5_jEE6targetERKSt9type_info", ptr @"_ZNKSt3__110__function6__funcIZ4mainE4$_12NS_9allocatorIS2_EEFvPmS5_jEE11target_typeEv"] }, align 8
@"_ZTSNSt3__110__function6__funcIZ4mainE4$_12NS_9allocatorIS2_EEFvPmS5_jEEE" = internal constant [70 x i8] c"NSt3__110__function6__funcIZ4mainE4$_12NS_9allocatorIS2_EEFvPmS5_jEEE\00", align 1
@"_ZTINSt3__110__function6__funcIZ4mainE4$_12NS_9allocatorIS2_EEFvPmS5_jEEE" = internal constant { ptr, ptr, ptr } { ptr getelementptr inbounds (ptr, ptr @_ZTVN10__cxxabiv120__si_class_type_infoE, i64 2), ptr @"_ZTSNSt3__110__function6__funcIZ4mainE4$_12NS_9allocatorIS2_EEFvPmS5_jEEE", ptr @_ZTINSt3__110__function6__baseIFvPmS2_jEEE }, align 8
@"_ZTVNSt3__110__function6__funcIZ4mainE4$_13NS_9allocatorIS2_EEFvPmS5_jEEE" = internal unnamed_addr constant { [11 x ptr] } { [11 x ptr] [ptr null, ptr @"_ZTINSt3__110__function6__funcIZ4mainE4$_13NS_9allocatorIS2_EEFvPmS5_jEEE", ptr @_ZNSt3__110__function6__baseIFvPmS2_jEED2Ev, ptr @"_ZNSt3__110__function6__funcIZ4mainE4$_13NS_9allocatorIS2_EEFvPmS5_jEED0Ev", ptr @"_ZNKSt3__110__function6__funcIZ4mainE4$_13NS_9allocatorIS2_EEFvPmS5_jEE7__cloneEv", ptr @"_ZNKSt3__110__function6__funcIZ4mainE4$_13NS_9allocatorIS2_EEFvPmS5_jEE7__cloneEPNS0_6__baseIS6_EE", ptr @"_ZNSt3__110__function6__funcIZ4mainE4$_13NS_9allocatorIS2_EEFvPmS5_jEE7destroyEv", ptr @"_ZNSt3__110__function6__funcIZ4mainE4$_13NS_9allocatorIS2_EEFvPmS5_jEE18destroy_deallocateEv", ptr @"_ZNSt3__110__function6__funcIZ4mainE4$_13NS_9allocatorIS2_EEFvPmS5_jEEclEOS5_S8_Oj", ptr @"_ZNKSt3__110__function6__funcIZ4mainE4$_13NS_9allocatorIS2_EEFvPmS5_jEE6targetERKSt9type_info", ptr @"_ZNKSt3__110__function6__funcIZ4mainE4$_13NS_9allocatorIS2_EEFvPmS5_jEE11target_typeEv"] }, align 8
@"_ZTSNSt3__110__function6__funcIZ4mainE4$_13NS_9allocatorIS2_EEFvPmS5_jEEE" = internal constant [70 x i8] c"NSt3__110__function6__funcIZ4mainE4$_13NS_9allocatorIS2_EEFvPmS5_jEEE\00", align 1
@"_ZTINSt3__110__function6__funcIZ4mainE4$_13NS_9allocatorIS2_EEFvPmS5_jEEE" = internal constant { ptr, ptr, ptr } { ptr getelementptr inbounds (ptr, ptr @_ZTVN10__cxxabiv120__si_class_type_infoE, i64 2), ptr @"_ZTSNSt3__110__function6__funcIZ4mainE4$_13NS_9allocatorIS2_EEFvPmS5_jEEE", ptr @_ZTINSt3__110__function6__baseIFvPmS2_jEEE }, align 8
@"_ZTVNSt3__110__function6__funcIZ4mainE4$_14NS_9allocatorIS2_EEFvPhS5_jEEE" = internal unnamed_addr constant { [11 x ptr] } { [11 x ptr] [ptr null, ptr @"_ZTINSt3__110__function6__funcIZ4mainE4$_14NS_9allocatorIS2_EEFvPhS5_jEEE", ptr @_ZNSt3__110__function6__baseIFvPhS2_jEED2Ev, ptr @"_ZNSt3__110__function6__funcIZ4mainE4$_14NS_9allocatorIS2_EEFvPhS5_jEED0Ev", ptr @"_ZNKSt3__110__function6__funcIZ4mainE4$_14NS_9allocatorIS2_EEFvPhS5_jEE7__cloneEv", ptr @"_ZNKSt3__110__function6__funcIZ4mainE4$_14NS_9allocatorIS2_EEFvPhS5_jEE7__cloneEPNS0_6__baseIS6_EE", ptr @"_ZNSt3__110__function6__funcIZ4mainE4$_14NS_9allocatorIS2_EEFvPhS5_jEE7destroyEv", ptr @"_ZNSt3__110__function6__funcIZ4mainE4$_14NS_9allocatorIS2_EEFvPhS5_jEE18destroy_deallocateEv", ptr @"_ZNSt3__110__function6__funcIZ4mainE4$_14NS_9allocatorIS2_EEFvPhS5_jEEclEOS5_S8_Oj", ptr @"_ZNKSt3__110__function6__funcIZ4mainE4$_14NS_9allocatorIS2_EEFvPhS5_jEE6targetERKSt9type_info", ptr @"_ZNKSt3__110__function6__funcIZ4mainE4$_14NS_9allocatorIS2_EEFvPhS5_jEE11target_typeEv"] }, align 8
@"_ZTSNSt3__110__function6__funcIZ4mainE4$_14NS_9allocatorIS2_EEFvPhS5_jEEE" = internal constant [70 x i8] c"NSt3__110__function6__funcIZ4mainE4$_14NS_9allocatorIS2_EEFvPhS5_jEEE\00", align 1
@"_ZTINSt3__110__function6__funcIZ4mainE4$_14NS_9allocatorIS2_EEFvPhS5_jEEE" = internal constant { ptr, ptr, ptr } { ptr getelementptr inbounds (ptr, ptr @_ZTVN10__cxxabiv120__si_class_type_infoE, i64 2), ptr @"_ZTSNSt3__110__function6__funcIZ4mainE4$_14NS_9allocatorIS2_EEFvPhS5_jEEE", ptr @_ZTINSt3__110__function6__baseIFvPhS2_jEEE }, align 8
@"_ZTSZ4mainE4$_14" = internal constant [13 x i8] c"Z4mainE4$_14\00", align 1
@"_ZTIZ4mainE4$_14" = internal constant { ptr, ptr } { ptr getelementptr inbounds (ptr, ptr @_ZTVN10__cxxabiv117__class_type_infoE, i64 2), ptr @"_ZTSZ4mainE4$_14" }, align 8
@"_ZTVNSt3__110__function6__funcIZ4mainE4$_15NS_9allocatorIS2_EEFvPhS5_jEEE" = internal unnamed_addr constant { [11 x ptr] } { [11 x ptr] [ptr null, ptr @"_ZTINSt3__110__function6__funcIZ4mainE4$_15NS_9allocatorIS2_EEFvPhS5_jEEE", ptr @_ZNSt3__110__function6__baseIFvPhS2_jEED2Ev, ptr @"_ZNSt3__110__function6__funcIZ4mainE4$_15NS_9allocatorIS2_EEFvPhS5_jEED0Ev", ptr @"_ZNKSt3__110__function6__funcIZ4mainE4$_15NS_9allocatorIS2_EEFvPhS5_jEE7__cloneEv", ptr @"_ZNKSt3__110__function6__funcIZ4mainE4$_15NS_9allocatorIS2_EEFvPhS5_jEE7__cloneEPNS0_6__baseIS6_EE", ptr @"_ZNSt3__110__function6__funcIZ4mainE4$_15NS_9allocatorIS2_EEFvPhS5_jEE7destroyEv", ptr @"_ZNSt3__110__function6__funcIZ4mainE4$_15NS_9allocatorIS2_EEFvPhS5_jEE18destroy_deallocateEv", ptr @"_ZNSt3__110__function6__funcIZ4mainE4$_15NS_9allocatorIS2_EEFvPhS5_jEEclEOS5_S8_Oj", ptr @"_ZNKSt3__110__function6__funcIZ4mainE4$_15NS_9allocatorIS2_EEFvPhS5_jEE6targetERKSt9type_info", ptr @"_ZNKSt3__110__function6__funcIZ4mainE4$_15NS_9allocatorIS2_EEFvPhS5_jEE11target_typeEv"] }, align 8
@"_ZTSNSt3__110__function6__funcIZ4mainE4$_15NS_9allocatorIS2_EEFvPhS5_jEEE" = internal constant [70 x i8] c"NSt3__110__function6__funcIZ4mainE4$_15NS_9allocatorIS2_EEFvPhS5_jEEE\00", align 1
@"_ZTINSt3__110__function6__funcIZ4mainE4$_15NS_9allocatorIS2_EEFvPhS5_jEEE" = internal constant { ptr, ptr, ptr } { ptr getelementptr inbounds (ptr, ptr @_ZTVN10__cxxabiv120__si_class_type_infoE, i64 2), ptr @"_ZTSNSt3__110__function6__funcIZ4mainE4$_15NS_9allocatorIS2_EEFvPhS5_jEEE", ptr @_ZTINSt3__110__function6__baseIFvPhS2_jEEE }, align 8
@"_ZTSZ4mainE4$_15" = internal constant [13 x i8] c"Z4mainE4$_15\00", align 1
@"_ZTIZ4mainE4$_15" = internal constant { ptr, ptr } { ptr getelementptr inbounds (ptr, ptr @_ZTVN10__cxxabiv117__class_type_infoE, i64 2), ptr @"_ZTSZ4mainE4$_15" }, align 8
@"_ZTVNSt3__110__function6__funcIZ4mainE4$_14NS_9allocatorIS2_EEFvPjS5_jEEE" = internal unnamed_addr constant { [11 x ptr] } { [11 x ptr] [ptr null, ptr @"_ZTINSt3__110__function6__funcIZ4mainE4$_14NS_9allocatorIS2_EEFvPjS5_jEEE", ptr @_ZNSt3__110__function6__baseIFvPjS2_jEED2Ev, ptr @"_ZNSt3__110__function6__funcIZ4mainE4$_14NS_9allocatorIS2_EEFvPjS5_jEED0Ev", ptr @"_ZNKSt3__110__function6__funcIZ4mainE4$_14NS_9allocatorIS2_EEFvPjS5_jEE7__cloneEv", ptr @"_ZNKSt3__110__function6__funcIZ4mainE4$_14NS_9allocatorIS2_EEFvPjS5_jEE7__cloneEPNS0_6__baseIS6_EE", ptr @"_ZNSt3__110__function6__funcIZ4mainE4$_14NS_9allocatorIS2_EEFvPjS5_jEE7destroyEv", ptr @"_ZNSt3__110__function6__funcIZ4mainE4$_14NS_9allocatorIS2_EEFvPjS5_jEE18destroy_deallocateEv", ptr @"_ZNSt3__110__function6__funcIZ4mainE4$_14NS_9allocatorIS2_EEFvPjS5_jEEclEOS5_S8_Oj", ptr @"_ZNKSt3__110__function6__funcIZ4mainE4$_14NS_9allocatorIS2_EEFvPjS5_jEE6targetERKSt9type_info", ptr @"_ZNKSt3__110__function6__funcIZ4mainE4$_14NS_9allocatorIS2_EEFvPjS5_jEE11target_typeEv"] }, align 8
@"_ZTSNSt3__110__function6__funcIZ4mainE4$_14NS_9allocatorIS2_EEFvPjS5_jEEE" = internal constant [70 x i8] c"NSt3__110__function6__funcIZ4mainE4$_14NS_9allocatorIS2_EEFvPjS5_jEEE\00", align 1
@"_ZTINSt3__110__function6__funcIZ4mainE4$_14NS_9allocatorIS2_EEFvPjS5_jEEE" = internal constant { ptr, ptr, ptr } { ptr getelementptr inbounds (ptr, ptr @_ZTVN10__cxxabiv120__si_class_type_infoE, i64 2), ptr @"_ZTSNSt3__110__function6__funcIZ4mainE4$_14NS_9allocatorIS2_EEFvPjS5_jEEE", ptr @_ZTINSt3__110__function6__baseIFvPjS2_jEEE }, align 8
@"_ZTVNSt3__110__function6__funcIZ4mainE4$_15NS_9allocatorIS2_EEFvPjS5_jEEE" = internal unnamed_addr constant { [11 x ptr] } { [11 x ptr] [ptr null, ptr @"_ZTINSt3__110__function6__funcIZ4mainE4$_15NS_9allocatorIS2_EEFvPjS5_jEEE", ptr @_ZNSt3__110__function6__baseIFvPjS2_jEED2Ev, ptr @"_ZNSt3__110__function6__funcIZ4mainE4$_15NS_9allocatorIS2_EEFvPjS5_jEED0Ev", ptr @"_ZNKSt3__110__function6__funcIZ4mainE4$_15NS_9allocatorIS2_EEFvPjS5_jEE7__cloneEv", ptr @"_ZNKSt3__110__function6__funcIZ4mainE4$_15NS_9allocatorIS2_EEFvPjS5_jEE7__cloneEPNS0_6__baseIS6_EE", ptr @"_ZNSt3__110__function6__funcIZ4mainE4$_15NS_9allocatorIS2_EEFvPjS5_jEE7destroyEv", ptr @"_ZNSt3__110__function6__funcIZ4mainE4$_15NS_9allocatorIS2_EEFvPjS5_jEE18destroy_deallocateEv", ptr @"_ZNSt3__110__function6__funcIZ4mainE4$_15NS_9allocatorIS2_EEFvPjS5_jEEclEOS5_S8_Oj", ptr @"_ZNKSt3__110__function6__funcIZ4mainE4$_15NS_9allocatorIS2_EEFvPjS5_jEE6targetERKSt9type_info", ptr @"_ZNKSt3__110__function6__funcIZ4mainE4$_15NS_9allocatorIS2_EEFvPjS5_jEE11target_typeEv"] }, align 8
@"_ZTSNSt3__110__function6__funcIZ4mainE4$_15NS_9allocatorIS2_EEFvPjS5_jEEE" = internal constant [70 x i8] c"NSt3__110__function6__funcIZ4mainE4$_15NS_9allocatorIS2_EEFvPjS5_jEEE\00", align 1
@"_ZTINSt3__110__function6__funcIZ4mainE4$_15NS_9allocatorIS2_EEFvPjS5_jEEE" = internal constant { ptr, ptr, ptr } { ptr getelementptr inbounds (ptr, ptr @_ZTVN10__cxxabiv120__si_class_type_infoE, i64 2), ptr @"_ZTSNSt3__110__function6__funcIZ4mainE4$_15NS_9allocatorIS2_EEFvPjS5_jEEE", ptr @_ZTINSt3__110__function6__baseIFvPjS2_jEEE }, align 8
@"_ZTVNSt3__110__function6__funcIZ4mainE4$_14NS_9allocatorIS2_EEFvPmS5_jEEE" = internal unnamed_addr constant { [11 x ptr] } { [11 x ptr] [ptr null, ptr @"_ZTINSt3__110__function6__funcIZ4mainE4$_14NS_9allocatorIS2_EEFvPmS5_jEEE", ptr @_ZNSt3__110__function6__baseIFvPmS2_jEED2Ev, ptr @"_ZNSt3__110__function6__funcIZ4mainE4$_14NS_9allocatorIS2_EEFvPmS5_jEED0Ev", ptr @"_ZNKSt3__110__function6__funcIZ4mainE4$_14NS_9allocatorIS2_EEFvPmS5_jEE7__cloneEv", ptr @"_ZNKSt3__110__function6__funcIZ4mainE4$_14NS_9allocatorIS2_EEFvPmS5_jEE7__cloneEPNS0_6__baseIS6_EE", ptr @"_ZNSt3__110__function6__funcIZ4mainE4$_14NS_9allocatorIS2_EEFvPmS5_jEE7destroyEv", ptr @"_ZNSt3__110__function6__funcIZ4mainE4$_14NS_9allocatorIS2_EEFvPmS5_jEE18destroy_deallocateEv", ptr @"_ZNSt3__110__function6__funcIZ4mainE4$_14NS_9allocatorIS2_EEFvPmS5_jEEclEOS5_S8_Oj", ptr @"_ZNKSt3__110__function6__funcIZ4mainE4$_14NS_9allocatorIS2_EEFvPmS5_jEE6targetERKSt9type_info", ptr @"_ZNKSt3__110__function6__funcIZ4mainE4$_14NS_9allocatorIS2_EEFvPmS5_jEE11target_typeEv"] }, align 8
@"_ZTSNSt3__110__function6__funcIZ4mainE4$_14NS_9allocatorIS2_EEFvPmS5_jEEE" = internal constant [70 x i8] c"NSt3__110__function6__funcIZ4mainE4$_14NS_9allocatorIS2_EEFvPmS5_jEEE\00", align 1
@"_ZTINSt3__110__function6__funcIZ4mainE4$_14NS_9allocatorIS2_EEFvPmS5_jEEE" = internal constant { ptr, ptr, ptr } { ptr getelementptr inbounds (ptr, ptr @_ZTVN10__cxxabiv120__si_class_type_infoE, i64 2), ptr @"_ZTSNSt3__110__function6__funcIZ4mainE4$_14NS_9allocatorIS2_EEFvPmS5_jEEE", ptr @_ZTINSt3__110__function6__baseIFvPmS2_jEEE }, align 8
@"_ZTVNSt3__110__function6__funcIZ4mainE4$_15NS_9allocatorIS2_EEFvPmS5_jEEE" = internal unnamed_addr constant { [11 x ptr] } { [11 x ptr] [ptr null, ptr @"_ZTINSt3__110__function6__funcIZ4mainE4$_15NS_9allocatorIS2_EEFvPmS5_jEEE", ptr @_ZNSt3__110__function6__baseIFvPmS2_jEED2Ev, ptr @"_ZNSt3__110__function6__funcIZ4mainE4$_15NS_9allocatorIS2_EEFvPmS5_jEED0Ev", ptr @"_ZNKSt3__110__function6__funcIZ4mainE4$_15NS_9allocatorIS2_EEFvPmS5_jEE7__cloneEv", ptr @"_ZNKSt3__110__function6__funcIZ4mainE4$_15NS_9allocatorIS2_EEFvPmS5_jEE7__cloneEPNS0_6__baseIS6_EE", ptr @"_ZNSt3__110__function6__funcIZ4mainE4$_15NS_9allocatorIS2_EEFvPmS5_jEE7destroyEv", ptr @"_ZNSt3__110__function6__funcIZ4mainE4$_15NS_9allocatorIS2_EEFvPmS5_jEE18destroy_deallocateEv", ptr @"_ZNSt3__110__function6__funcIZ4mainE4$_15NS_9allocatorIS2_EEFvPmS5_jEEclEOS5_S8_Oj", ptr @"_ZNKSt3__110__function6__funcIZ4mainE4$_15NS_9allocatorIS2_EEFvPmS5_jEE6targetERKSt9type_info", ptr @"_ZNKSt3__110__function6__funcIZ4mainE4$_15NS_9allocatorIS2_EEFvPmS5_jEE11target_typeEv"] }, align 8
@"_ZTSNSt3__110__function6__funcIZ4mainE4$_15NS_9allocatorIS2_EEFvPmS5_jEEE" = internal constant [70 x i8] c"NSt3__110__function6__funcIZ4mainE4$_15NS_9allocatorIS2_EEFvPmS5_jEEE\00", align 1
@"_ZTINSt3__110__function6__funcIZ4mainE4$_15NS_9allocatorIS2_EEFvPmS5_jEEE" = internal constant { ptr, ptr, ptr } { ptr getelementptr inbounds (ptr, ptr @_ZTVN10__cxxabiv120__si_class_type_infoE, i64 2), ptr @"_ZTSNSt3__110__function6__funcIZ4mainE4$_15NS_9allocatorIS2_EEFvPmS5_jEEE", ptr @_ZTINSt3__110__function6__baseIFvPmS2_jEEE }, align 8
@"_ZTVNSt3__110__function6__funcIZ4mainE4$_16NS_9allocatorIS2_EEFvPjS5_S5_jEEE" = internal unnamed_addr constant { [11 x ptr] } { [11 x ptr] [ptr null, ptr @"_ZTINSt3__110__function6__funcIZ4mainE4$_16NS_9allocatorIS2_EEFvPjS5_S5_jEEE", ptr @_ZNSt3__110__function6__baseIFvPjS2_S2_jEED2Ev, ptr @"_ZNSt3__110__function6__funcIZ4mainE4$_16NS_9allocatorIS2_EEFvPjS5_S5_jEED0Ev", ptr @"_ZNKSt3__110__function6__funcIZ4mainE4$_16NS_9allocatorIS2_EEFvPjS5_S5_jEE7__cloneEv", ptr @"_ZNKSt3__110__function6__funcIZ4mainE4$_16NS_9allocatorIS2_EEFvPjS5_S5_jEE7__cloneEPNS0_6__baseIS6_EE", ptr @"_ZNSt3__110__function6__funcIZ4mainE4$_16NS_9allocatorIS2_EEFvPjS5_S5_jEE7destroyEv", ptr @"_ZNSt3__110__function6__funcIZ4mainE4$_16NS_9allocatorIS2_EEFvPjS5_S5_jEE18destroy_deallocateEv", ptr @"_ZNSt3__110__function6__funcIZ4mainE4$_16NS_9allocatorIS2_EEFvPjS5_S5_jEEclEOS5_S8_S8_Oj", ptr @"_ZNKSt3__110__function6__funcIZ4mainE4$_16NS_9allocatorIS2_EEFvPjS5_S5_jEE6targetERKSt9type_info", ptr @"_ZNKSt3__110__function6__funcIZ4mainE4$_16NS_9allocatorIS2_EEFvPjS5_S5_jEE11target_typeEv"] }, align 8
@"_ZTSNSt3__110__function6__funcIZ4mainE4$_16NS_9allocatorIS2_EEFvPjS5_S5_jEEE" = internal constant [73 x i8] c"NSt3__110__function6__funcIZ4mainE4$_16NS_9allocatorIS2_EEFvPjS5_S5_jEEE\00", align 1
@_ZTSNSt3__110__function6__baseIFvPjS2_S2_jEEE = linkonce_odr dso_local constant [42 x i8] c"NSt3__110__function6__baseIFvPjS2_S2_jEEE\00", comdat, align 1
@_ZTINSt3__110__function6__baseIFvPjS2_S2_jEEE = linkonce_odr dso_local constant { ptr, ptr } { ptr getelementptr inbounds (ptr, ptr @_ZTVN10__cxxabiv117__class_type_infoE, i64 2), ptr @_ZTSNSt3__110__function6__baseIFvPjS2_S2_jEEE }, comdat, align 8
@"_ZTINSt3__110__function6__funcIZ4mainE4$_16NS_9allocatorIS2_EEFvPjS5_S5_jEEE" = internal constant { ptr, ptr, ptr } { ptr getelementptr inbounds (ptr, ptr @_ZTVN10__cxxabiv120__si_class_type_infoE, i64 2), ptr @"_ZTSNSt3__110__function6__funcIZ4mainE4$_16NS_9allocatorIS2_EEFvPjS5_S5_jEEE", ptr @_ZTINSt3__110__function6__baseIFvPjS2_S2_jEEE }, align 8
@"_ZTSZ4mainE4$_16" = internal constant [13 x i8] c"Z4mainE4$_16\00", align 1
@"_ZTIZ4mainE4$_16" = internal constant { ptr, ptr } { ptr getelementptr inbounds (ptr, ptr @_ZTVN10__cxxabiv117__class_type_infoE, i64 2), ptr @"_ZTSZ4mainE4$_16" }, align 8
@"_ZTVNSt3__110__function6__funcIZ4mainE4$_17NS_9allocatorIS2_EEFvPjS5_S5_jEEE" = internal unnamed_addr constant { [11 x ptr] } { [11 x ptr] [ptr null, ptr @"_ZTINSt3__110__function6__funcIZ4mainE4$_17NS_9allocatorIS2_EEFvPjS5_S5_jEEE", ptr @_ZNSt3__110__function6__baseIFvPjS2_S2_jEED2Ev, ptr @"_ZNSt3__110__function6__funcIZ4mainE4$_17NS_9allocatorIS2_EEFvPjS5_S5_jEED0Ev", ptr @"_ZNKSt3__110__function6__funcIZ4mainE4$_17NS_9allocatorIS2_EEFvPjS5_S5_jEE7__cloneEv", ptr @"_ZNKSt3__110__function6__funcIZ4mainE4$_17NS_9allocatorIS2_EEFvPjS5_S5_jEE7__cloneEPNS0_6__baseIS6_EE", ptr @"_ZNSt3__110__function6__funcIZ4mainE4$_17NS_9allocatorIS2_EEFvPjS5_S5_jEE7destroyEv", ptr @"_ZNSt3__110__function6__funcIZ4mainE4$_17NS_9allocatorIS2_EEFvPjS5_S5_jEE18destroy_deallocateEv", ptr @"_ZNSt3__110__function6__funcIZ4mainE4$_17NS_9allocatorIS2_EEFvPjS5_S5_jEEclEOS5_S8_S8_Oj", ptr @"_ZNKSt3__110__function6__funcIZ4mainE4$_17NS_9allocatorIS2_EEFvPjS5_S5_jEE6targetERKSt9type_info", ptr @"_ZNKSt3__110__function6__funcIZ4mainE4$_17NS_9allocatorIS2_EEFvPjS5_S5_jEE11target_typeEv"] }, align 8
@"_ZTSNSt3__110__function6__funcIZ4mainE4$_17NS_9allocatorIS2_EEFvPjS5_S5_jEEE" = internal constant [73 x i8] c"NSt3__110__function6__funcIZ4mainE4$_17NS_9allocatorIS2_EEFvPjS5_S5_jEEE\00", align 1
@"_ZTINSt3__110__function6__funcIZ4mainE4$_17NS_9allocatorIS2_EEFvPjS5_S5_jEEE" = internal constant { ptr, ptr, ptr } { ptr getelementptr inbounds (ptr, ptr @_ZTVN10__cxxabiv120__si_class_type_infoE, i64 2), ptr @"_ZTSNSt3__110__function6__funcIZ4mainE4$_17NS_9allocatorIS2_EEFvPjS5_S5_jEEE", ptr @_ZTINSt3__110__function6__baseIFvPjS2_S2_jEEE }, align 8
@"_ZTSZ4mainE4$_17" = internal constant [13 x i8] c"Z4mainE4$_17\00", align 1
@"_ZTIZ4mainE4$_17" = internal constant { ptr, ptr } { ptr getelementptr inbounds (ptr, ptr @_ZTVN10__cxxabiv117__class_type_infoE, i64 2), ptr @"_ZTSZ4mainE4$_17" }, align 8
@"_ZTVNSt3__110__function6__funcIZ4mainE4$_16NS_9allocatorIS2_EEFvPhS5_S5_jEEE" = internal unnamed_addr constant { [11 x ptr] } { [11 x ptr] [ptr null, ptr @"_ZTINSt3__110__function6__funcIZ4mainE4$_16NS_9allocatorIS2_EEFvPhS5_S5_jEEE", ptr @_ZNSt3__110__function6__baseIFvPhS2_S2_jEED2Ev, ptr @"_ZNSt3__110__function6__funcIZ4mainE4$_16NS_9allocatorIS2_EEFvPhS5_S5_jEED0Ev", ptr @"_ZNKSt3__110__function6__funcIZ4mainE4$_16NS_9allocatorIS2_EEFvPhS5_S5_jEE7__cloneEv", ptr @"_ZNKSt3__110__function6__funcIZ4mainE4$_16NS_9allocatorIS2_EEFvPhS5_S5_jEE7__cloneEPNS0_6__baseIS6_EE", ptr @"_ZNSt3__110__function6__funcIZ4mainE4$_16NS_9allocatorIS2_EEFvPhS5_S5_jEE7destroyEv", ptr @"_ZNSt3__110__function6__funcIZ4mainE4$_16NS_9allocatorIS2_EEFvPhS5_S5_jEE18destroy_deallocateEv", ptr @"_ZNSt3__110__function6__funcIZ4mainE4$_16NS_9allocatorIS2_EEFvPhS5_S5_jEEclEOS5_S8_S8_Oj", ptr @"_ZNKSt3__110__function6__funcIZ4mainE4$_16NS_9allocatorIS2_EEFvPhS5_S5_jEE6targetERKSt9type_info", ptr @"_ZNKSt3__110__function6__funcIZ4mainE4$_16NS_9allocatorIS2_EEFvPhS5_S5_jEE11target_typeEv"] }, align 8
@"_ZTSNSt3__110__function6__funcIZ4mainE4$_16NS_9allocatorIS2_EEFvPhS5_S5_jEEE" = internal constant [73 x i8] c"NSt3__110__function6__funcIZ4mainE4$_16NS_9allocatorIS2_EEFvPhS5_S5_jEEE\00", align 1
@_ZTSNSt3__110__function6__baseIFvPhS2_S2_jEEE = linkonce_odr dso_local constant [42 x i8] c"NSt3__110__function6__baseIFvPhS2_S2_jEEE\00", comdat, align 1
@_ZTINSt3__110__function6__baseIFvPhS2_S2_jEEE = linkonce_odr dso_local constant { ptr, ptr } { ptr getelementptr inbounds (ptr, ptr @_ZTVN10__cxxabiv117__class_type_infoE, i64 2), ptr @_ZTSNSt3__110__function6__baseIFvPhS2_S2_jEEE }, comdat, align 8
@"_ZTINSt3__110__function6__funcIZ4mainE4$_16NS_9allocatorIS2_EEFvPhS5_S5_jEEE" = internal constant { ptr, ptr, ptr } { ptr getelementptr inbounds (ptr, ptr @_ZTVN10__cxxabiv120__si_class_type_infoE, i64 2), ptr @"_ZTSNSt3__110__function6__funcIZ4mainE4$_16NS_9allocatorIS2_EEFvPhS5_S5_jEEE", ptr @_ZTINSt3__110__function6__baseIFvPhS2_S2_jEEE }, align 8
@"_ZTVNSt3__110__function6__funcIZ4mainE4$_17NS_9allocatorIS2_EEFvPhS5_S5_jEEE" = internal unnamed_addr constant { [11 x ptr] } { [11 x ptr] [ptr null, ptr @"_ZTINSt3__110__function6__funcIZ4mainE4$_17NS_9allocatorIS2_EEFvPhS5_S5_jEEE", ptr @_ZNSt3__110__function6__baseIFvPhS2_S2_jEED2Ev, ptr @"_ZNSt3__110__function6__funcIZ4mainE4$_17NS_9allocatorIS2_EEFvPhS5_S5_jEED0Ev", ptr @"_ZNKSt3__110__function6__funcIZ4mainE4$_17NS_9allocatorIS2_EEFvPhS5_S5_jEE7__cloneEv", ptr @"_ZNKSt3__110__function6__funcIZ4mainE4$_17NS_9allocatorIS2_EEFvPhS5_S5_jEE7__cloneEPNS0_6__baseIS6_EE", ptr @"_ZNSt3__110__function6__funcIZ4mainE4$_17NS_9allocatorIS2_EEFvPhS5_S5_jEE7destroyEv", ptr @"_ZNSt3__110__function6__funcIZ4mainE4$_17NS_9allocatorIS2_EEFvPhS5_S5_jEE18destroy_deallocateEv", ptr @"_ZNSt3__110__function6__funcIZ4mainE4$_17NS_9allocatorIS2_EEFvPhS5_S5_jEEclEOS5_S8_S8_Oj", ptr @"_ZNKSt3__110__function6__funcIZ4mainE4$_17NS_9allocatorIS2_EEFvPhS5_S5_jEE6targetERKSt9type_info", ptr @"_ZNKSt3__110__function6__funcIZ4mainE4$_17NS_9allocatorIS2_EEFvPhS5_S5_jEE11target_typeEv"] }, align 8
@"_ZTSNSt3__110__function6__funcIZ4mainE4$_17NS_9allocatorIS2_EEFvPhS5_S5_jEEE" = internal constant [73 x i8] c"NSt3__110__function6__funcIZ4mainE4$_17NS_9allocatorIS2_EEFvPhS5_S5_jEEE\00", align 1
@"_ZTINSt3__110__function6__funcIZ4mainE4$_17NS_9allocatorIS2_EEFvPhS5_S5_jEEE" = internal constant { ptr, ptr, ptr } { ptr getelementptr inbounds (ptr, ptr @_ZTVN10__cxxabiv120__si_class_type_infoE, i64 2), ptr @"_ZTSNSt3__110__function6__funcIZ4mainE4$_17NS_9allocatorIS2_EEFvPhS5_S5_jEEE", ptr @_ZTINSt3__110__function6__baseIFvPhS2_S2_jEEE }, align 8
@"_ZTVNSt3__110__function6__funcIZ4mainE4$_16NS_9allocatorIS2_EEFvPmS5_S5_jEEE" = internal unnamed_addr constant { [11 x ptr] } { [11 x ptr] [ptr null, ptr @"_ZTINSt3__110__function6__funcIZ4mainE4$_16NS_9allocatorIS2_EEFvPmS5_S5_jEEE", ptr @_ZNSt3__110__function6__baseIFvPmS2_S2_jEED2Ev, ptr @"_ZNSt3__110__function6__funcIZ4mainE4$_16NS_9allocatorIS2_EEFvPmS5_S5_jEED0Ev", ptr @"_ZNKSt3__110__function6__funcIZ4mainE4$_16NS_9allocatorIS2_EEFvPmS5_S5_jEE7__cloneEv", ptr @"_ZNKSt3__110__function6__funcIZ4mainE4$_16NS_9allocatorIS2_EEFvPmS5_S5_jEE7__cloneEPNS0_6__baseIS6_EE", ptr @"_ZNSt3__110__function6__funcIZ4mainE4$_16NS_9allocatorIS2_EEFvPmS5_S5_jEE7destroyEv", ptr @"_ZNSt3__110__function6__funcIZ4mainE4$_16NS_9allocatorIS2_EEFvPmS5_S5_jEE18destroy_deallocateEv", ptr @"_ZNSt3__110__function6__funcIZ4mainE4$_16NS_9allocatorIS2_EEFvPmS5_S5_jEEclEOS5_S8_S8_Oj", ptr @"_ZNKSt3__110__function6__funcIZ4mainE4$_16NS_9allocatorIS2_EEFvPmS5_S5_jEE6targetERKSt9type_info", ptr @"_ZNKSt3__110__function6__funcIZ4mainE4$_16NS_9allocatorIS2_EEFvPmS5_S5_jEE11target_typeEv"] }, align 8
@"_ZTSNSt3__110__function6__funcIZ4mainE4$_16NS_9allocatorIS2_EEFvPmS5_S5_jEEE" = internal constant [73 x i8] c"NSt3__110__function6__funcIZ4mainE4$_16NS_9allocatorIS2_EEFvPmS5_S5_jEEE\00", align 1
@_ZTSNSt3__110__function6__baseIFvPmS2_S2_jEEE = linkonce_odr dso_local constant [42 x i8] c"NSt3__110__function6__baseIFvPmS2_S2_jEEE\00", comdat, align 1
@_ZTINSt3__110__function6__baseIFvPmS2_S2_jEEE = linkonce_odr dso_local constant { ptr, ptr } { ptr getelementptr inbounds (ptr, ptr @_ZTVN10__cxxabiv117__class_type_infoE, i64 2), ptr @_ZTSNSt3__110__function6__baseIFvPmS2_S2_jEEE }, comdat, align 8
@"_ZTINSt3__110__function6__funcIZ4mainE4$_16NS_9allocatorIS2_EEFvPmS5_S5_jEEE" = internal constant { ptr, ptr, ptr } { ptr getelementptr inbounds (ptr, ptr @_ZTVN10__cxxabiv120__si_class_type_infoE, i64 2), ptr @"_ZTSNSt3__110__function6__funcIZ4mainE4$_16NS_9allocatorIS2_EEFvPmS5_S5_jEEE", ptr @_ZTINSt3__110__function6__baseIFvPmS2_S2_jEEE }, align 8
@"_ZTVNSt3__110__function6__funcIZ4mainE4$_17NS_9allocatorIS2_EEFvPmS5_S5_jEEE" = internal unnamed_addr constant { [11 x ptr] } { [11 x ptr] [ptr null, ptr @"_ZTINSt3__110__function6__funcIZ4mainE4$_17NS_9allocatorIS2_EEFvPmS5_S5_jEEE", ptr @_ZNSt3__110__function6__baseIFvPmS2_S2_jEED2Ev, ptr @"_ZNSt3__110__function6__funcIZ4mainE4$_17NS_9allocatorIS2_EEFvPmS5_S5_jEED0Ev", ptr @"_ZNKSt3__110__function6__funcIZ4mainE4$_17NS_9allocatorIS2_EEFvPmS5_S5_jEE7__cloneEv", ptr @"_ZNKSt3__110__function6__funcIZ4mainE4$_17NS_9allocatorIS2_EEFvPmS5_S5_jEE7__cloneEPNS0_6__baseIS6_EE", ptr @"_ZNSt3__110__function6__funcIZ4mainE4$_17NS_9allocatorIS2_EEFvPmS5_S5_jEE7destroyEv", ptr @"_ZNSt3__110__function6__funcIZ4mainE4$_17NS_9allocatorIS2_EEFvPmS5_S5_jEE18destroy_deallocateEv", ptr @"_ZNSt3__110__function6__funcIZ4mainE4$_17NS_9allocatorIS2_EEFvPmS5_S5_jEEclEOS5_S8_S8_Oj", ptr @"_ZNKSt3__110__function6__funcIZ4mainE4$_17NS_9allocatorIS2_EEFvPmS5_S5_jEE6targetERKSt9type_info", ptr @"_ZNKSt3__110__function6__funcIZ4mainE4$_17NS_9allocatorIS2_EEFvPmS5_S5_jEE11target_typeEv"] }, align 8
@"_ZTSNSt3__110__function6__funcIZ4mainE4$_17NS_9allocatorIS2_EEFvPmS5_S5_jEEE" = internal constant [73 x i8] c"NSt3__110__function6__funcIZ4mainE4$_17NS_9allocatorIS2_EEFvPmS5_S5_jEEE\00", align 1
@"_ZTINSt3__110__function6__funcIZ4mainE4$_17NS_9allocatorIS2_EEFvPmS5_S5_jEEE" = internal constant { ptr, ptr, ptr } { ptr getelementptr inbounds (ptr, ptr @_ZTVN10__cxxabiv120__si_class_type_infoE, i64 2), ptr @"_ZTSNSt3__110__function6__funcIZ4mainE4$_17NS_9allocatorIS2_EEFvPmS5_S5_jEEE", ptr @_ZTINSt3__110__function6__baseIFvPmS2_S2_jEEE }, align 8
@"_ZTVNSt3__110__function6__funcIZ4mainE4$_18NS_9allocatorIS2_EEFvPhS5_S5_jEEE" = internal unnamed_addr constant { [11 x ptr] } { [11 x ptr] [ptr null, ptr @"_ZTINSt3__110__function6__funcIZ4mainE4$_18NS_9allocatorIS2_EEFvPhS5_S5_jEEE", ptr @_ZNSt3__110__function6__baseIFvPhS2_S2_jEED2Ev, ptr @"_ZNSt3__110__function6__funcIZ4mainE4$_18NS_9allocatorIS2_EEFvPhS5_S5_jEED0Ev", ptr @"_ZNKSt3__110__function6__funcIZ4mainE4$_18NS_9allocatorIS2_EEFvPhS5_S5_jEE7__cloneEv", ptr @"_ZNKSt3__110__function6__funcIZ4mainE4$_18NS_9allocatorIS2_EEFvPhS5_S5_jEE7__cloneEPNS0_6__baseIS6_EE", ptr @"_ZNSt3__110__function6__funcIZ4mainE4$_18NS_9allocatorIS2_EEFvPhS5_S5_jEE7destroyEv", ptr @"_ZNSt3__110__function6__funcIZ4mainE4$_18NS_9allocatorIS2_EEFvPhS5_S5_jEE18destroy_deallocateEv", ptr @"_ZNSt3__110__function6__funcIZ4mainE4$_18NS_9allocatorIS2_EEFvPhS5_S5_jEEclEOS5_S8_S8_Oj", ptr @"_ZNKSt3__110__function6__funcIZ4mainE4$_18NS_9allocatorIS2_EEFvPhS5_S5_jEE6targetERKSt9type_info", ptr @"_ZNKSt3__110__function6__funcIZ4mainE4$_18NS_9allocatorIS2_EEFvPhS5_S5_jEE11target_typeEv"] }, align 8
@"_ZTSNSt3__110__function6__funcIZ4mainE4$_18NS_9allocatorIS2_EEFvPhS5_S5_jEEE" = internal constant [73 x i8] c"NSt3__110__function6__funcIZ4mainE4$_18NS_9allocatorIS2_EEFvPhS5_S5_jEEE\00", align 1
@"_ZTINSt3__110__function6__funcIZ4mainE4$_18NS_9allocatorIS2_EEFvPhS5_S5_jEEE" = internal constant { ptr, ptr, ptr } { ptr getelementptr inbounds (ptr, ptr @_ZTVN10__cxxabiv120__si_class_type_infoE, i64 2), ptr @"_ZTSNSt3__110__function6__funcIZ4mainE4$_18NS_9allocatorIS2_EEFvPhS5_S5_jEEE", ptr @_ZTINSt3__110__function6__baseIFvPhS2_S2_jEEE }, align 8
@"_ZTSZ4mainE4$_18" = internal constant [13 x i8] c"Z4mainE4$_18\00", align 1
@"_ZTIZ4mainE4$_18" = internal constant { ptr, ptr } { ptr getelementptr inbounds (ptr, ptr @_ZTVN10__cxxabiv117__class_type_infoE, i64 2), ptr @"_ZTSZ4mainE4$_18" }, align 8
@"_ZTVNSt3__110__function6__funcIZ4mainE4$_19NS_9allocatorIS2_EEFvPhS5_S5_jEEE" = internal unnamed_addr constant { [11 x ptr] } { [11 x ptr] [ptr null, ptr @"_ZTINSt3__110__function6__funcIZ4mainE4$_19NS_9allocatorIS2_EEFvPhS5_S5_jEEE", ptr @_ZNSt3__110__function6__baseIFvPhS2_S2_jEED2Ev, ptr @"_ZNSt3__110__function6__funcIZ4mainE4$_19NS_9allocatorIS2_EEFvPhS5_S5_jEED0Ev", ptr @"_ZNKSt3__110__function6__funcIZ4mainE4$_19NS_9allocatorIS2_EEFvPhS5_S5_jEE7__cloneEv", ptr @"_ZNKSt3__110__function6__funcIZ4mainE4$_19NS_9allocatorIS2_EEFvPhS5_S5_jEE7__cloneEPNS0_6__baseIS6_EE", ptr @"_ZNSt3__110__function6__funcIZ4mainE4$_19NS_9allocatorIS2_EEFvPhS5_S5_jEE7destroyEv", ptr @"_ZNSt3__110__function6__funcIZ4mainE4$_19NS_9allocatorIS2_EEFvPhS5_S5_jEE18destroy_deallocateEv", ptr @"_ZNSt3__110__function6__funcIZ4mainE4$_19NS_9allocatorIS2_EEFvPhS5_S5_jEEclEOS5_S8_S8_Oj", ptr @"_ZNKSt3__110__function6__funcIZ4mainE4$_19NS_9allocatorIS2_EEFvPhS5_S5_jEE6targetERKSt9type_info", ptr @"_ZNKSt3__110__function6__funcIZ4mainE4$_19NS_9allocatorIS2_EEFvPhS5_S5_jEE11target_typeEv"] }, align 8
@"_ZTSNSt3__110__function6__funcIZ4mainE4$_19NS_9allocatorIS2_EEFvPhS5_S5_jEEE" = internal constant [73 x i8] c"NSt3__110__function6__funcIZ4mainE4$_19NS_9allocatorIS2_EEFvPhS5_S5_jEEE\00", align 1
@"_ZTINSt3__110__function6__funcIZ4mainE4$_19NS_9allocatorIS2_EEFvPhS5_S5_jEEE" = internal constant { ptr, ptr, ptr } { ptr getelementptr inbounds (ptr, ptr @_ZTVN10__cxxabiv120__si_class_type_infoE, i64 2), ptr @"_ZTSNSt3__110__function6__funcIZ4mainE4$_19NS_9allocatorIS2_EEFvPhS5_S5_jEEE", ptr @_ZTINSt3__110__function6__baseIFvPhS2_S2_jEEE }, align 8
@"_ZTSZ4mainE4$_19" = internal constant [13 x i8] c"Z4mainE4$_19\00", align 1
@"_ZTIZ4mainE4$_19" = internal constant { ptr, ptr } { ptr getelementptr inbounds (ptr, ptr @_ZTVN10__cxxabiv117__class_type_infoE, i64 2), ptr @"_ZTSZ4mainE4$_19" }, align 8
@"_ZTVNSt3__110__function6__funcIZ4mainE4$_18NS_9allocatorIS2_EEFvPjS5_S5_jEEE" = internal unnamed_addr constant { [11 x ptr] } { [11 x ptr] [ptr null, ptr @"_ZTINSt3__110__function6__funcIZ4mainE4$_18NS_9allocatorIS2_EEFvPjS5_S5_jEEE", ptr @_ZNSt3__110__function6__baseIFvPjS2_S2_jEED2Ev, ptr @"_ZNSt3__110__function6__funcIZ4mainE4$_18NS_9allocatorIS2_EEFvPjS5_S5_jEED0Ev", ptr @"_ZNKSt3__110__function6__funcIZ4mainE4$_18NS_9allocatorIS2_EEFvPjS5_S5_jEE7__cloneEv", ptr @"_ZNKSt3__110__function6__funcIZ4mainE4$_18NS_9allocatorIS2_EEFvPjS5_S5_jEE7__cloneEPNS0_6__baseIS6_EE", ptr @"_ZNSt3__110__function6__funcIZ4mainE4$_18NS_9allocatorIS2_EEFvPjS5_S5_jEE7destroyEv", ptr @"_ZNSt3__110__function6__funcIZ4mainE4$_18NS_9allocatorIS2_EEFvPjS5_S5_jEE18destroy_deallocateEv", ptr @"_ZNSt3__110__function6__funcIZ4mainE4$_18NS_9allocatorIS2_EEFvPjS5_S5_jEEclEOS5_S8_S8_Oj", ptr @"_ZNKSt3__110__function6__funcIZ4mainE4$_18NS_9allocatorIS2_EEFvPjS5_S5_jEE6targetERKSt9type_info", ptr @"_ZNKSt3__110__function6__funcIZ4mainE4$_18NS_9allocatorIS2_EEFvPjS5_S5_jEE11target_typeEv"] }, align 8
@"_ZTSNSt3__110__function6__funcIZ4mainE4$_18NS_9allocatorIS2_EEFvPjS5_S5_jEEE" = internal constant [73 x i8] c"NSt3__110__function6__funcIZ4mainE4$_18NS_9allocatorIS2_EEFvPjS5_S5_jEEE\00", align 1
@"_ZTINSt3__110__function6__funcIZ4mainE4$_18NS_9allocatorIS2_EEFvPjS5_S5_jEEE" = internal constant { ptr, ptr, ptr } { ptr getelementptr inbounds (ptr, ptr @_ZTVN10__cxxabiv120__si_class_type_infoE, i64 2), ptr @"_ZTSNSt3__110__function6__funcIZ4mainE4$_18NS_9allocatorIS2_EEFvPjS5_S5_jEEE", ptr @_ZTINSt3__110__function6__baseIFvPjS2_S2_jEEE }, align 8
@"_ZTVNSt3__110__function6__funcIZ4mainE4$_19NS_9allocatorIS2_EEFvPjS5_S5_jEEE" = internal unnamed_addr constant { [11 x ptr] } { [11 x ptr] [ptr null, ptr @"_ZTINSt3__110__function6__funcIZ4mainE4$_19NS_9allocatorIS2_EEFvPjS5_S5_jEEE", ptr @_ZNSt3__110__function6__baseIFvPjS2_S2_jEED2Ev, ptr @"_ZNSt3__110__function6__funcIZ4mainE4$_19NS_9allocatorIS2_EEFvPjS5_S5_jEED0Ev", ptr @"_ZNKSt3__110__function6__funcIZ4mainE4$_19NS_9allocatorIS2_EEFvPjS5_S5_jEE7__cloneEv", ptr @"_ZNKSt3__110__function6__funcIZ4mainE4$_19NS_9allocatorIS2_EEFvPjS5_S5_jEE7__cloneEPNS0_6__baseIS6_EE", ptr @"_ZNSt3__110__function6__funcIZ4mainE4$_19NS_9allocatorIS2_EEFvPjS5_S5_jEE7destroyEv", ptr @"_ZNSt3__110__function6__funcIZ4mainE4$_19NS_9allocatorIS2_EEFvPjS5_S5_jEE18destroy_deallocateEv", ptr @"_ZNSt3__110__function6__funcIZ4mainE4$_19NS_9allocatorIS2_EEFvPjS5_S5_jEEclEOS5_S8_S8_Oj", ptr @"_ZNKSt3__110__function6__funcIZ4mainE4$_19NS_9allocatorIS2_EEFvPjS5_S5_jEE6targetERKSt9type_info", ptr @"_ZNKSt3__110__function6__funcIZ4mainE4$_19NS_9allocatorIS2_EEFvPjS5_S5_jEE11target_typeEv"] }, align 8
@"_ZTSNSt3__110__function6__funcIZ4mainE4$_19NS_9allocatorIS2_EEFvPjS5_S5_jEEE" = internal constant [73 x i8] c"NSt3__110__function6__funcIZ4mainE4$_19NS_9allocatorIS2_EEFvPjS5_S5_jEEE\00", align 1
@"_ZTINSt3__110__function6__funcIZ4mainE4$_19NS_9allocatorIS2_EEFvPjS5_S5_jEEE" = internal constant { ptr, ptr, ptr } { ptr getelementptr inbounds (ptr, ptr @_ZTVN10__cxxabiv120__si_class_type_infoE, i64 2), ptr @"_ZTSNSt3__110__function6__funcIZ4mainE4$_19NS_9allocatorIS2_EEFvPjS5_S5_jEEE", ptr @_ZTINSt3__110__function6__baseIFvPjS2_S2_jEEE }, align 8
@"_ZTVNSt3__110__function6__funcIZ4mainE4$_18NS_9allocatorIS2_EEFvPmS5_S5_jEEE" = internal unnamed_addr constant { [11 x ptr] } { [11 x ptr] [ptr null, ptr @"_ZTINSt3__110__function6__funcIZ4mainE4$_18NS_9allocatorIS2_EEFvPmS5_S5_jEEE", ptr @_ZNSt3__110__function6__baseIFvPmS2_S2_jEED2Ev, ptr @"_ZNSt3__110__function6__funcIZ4mainE4$_18NS_9allocatorIS2_EEFvPmS5_S5_jEED0Ev", ptr @"_ZNKSt3__110__function6__funcIZ4mainE4$_18NS_9allocatorIS2_EEFvPmS5_S5_jEE7__cloneEv", ptr @"_ZNKSt3__110__function6__funcIZ4mainE4$_18NS_9allocatorIS2_EEFvPmS5_S5_jEE7__cloneEPNS0_6__baseIS6_EE", ptr @"_ZNSt3__110__function6__funcIZ4mainE4$_18NS_9allocatorIS2_EEFvPmS5_S5_jEE7destroyEv", ptr @"_ZNSt3__110__function6__funcIZ4mainE4$_18NS_9allocatorIS2_EEFvPmS5_S5_jEE18destroy_deallocateEv", ptr @"_ZNSt3__110__function6__funcIZ4mainE4$_18NS_9allocatorIS2_EEFvPmS5_S5_jEEclEOS5_S8_S8_Oj", ptr @"_ZNKSt3__110__function6__funcIZ4mainE4$_18NS_9allocatorIS2_EEFvPmS5_S5_jEE6targetERKSt9type_info", ptr @"_ZNKSt3__110__function6__funcIZ4mainE4$_18NS_9allocatorIS2_EEFvPmS5_S5_jEE11target_typeEv"] }, align 8
@"_ZTSNSt3__110__function6__funcIZ4mainE4$_18NS_9allocatorIS2_EEFvPmS5_S5_jEEE" = internal constant [73 x i8] c"NSt3__110__function6__funcIZ4mainE4$_18NS_9allocatorIS2_EEFvPmS5_S5_jEEE\00", align 1
@"_ZTINSt3__110__function6__funcIZ4mainE4$_18NS_9allocatorIS2_EEFvPmS5_S5_jEEE" = internal constant { ptr, ptr, ptr } { ptr getelementptr inbounds (ptr, ptr @_ZTVN10__cxxabiv120__si_class_type_infoE, i64 2), ptr @"_ZTSNSt3__110__function6__funcIZ4mainE4$_18NS_9allocatorIS2_EEFvPmS5_S5_jEEE", ptr @_ZTINSt3__110__function6__baseIFvPmS2_S2_jEEE }, align 8
@"_ZTVNSt3__110__function6__funcIZ4mainE4$_19NS_9allocatorIS2_EEFvPmS5_S5_jEEE" = internal unnamed_addr constant { [11 x ptr] } { [11 x ptr] [ptr null, ptr @"_ZTINSt3__110__function6__funcIZ4mainE4$_19NS_9allocatorIS2_EEFvPmS5_S5_jEEE", ptr @_ZNSt3__110__function6__baseIFvPmS2_S2_jEED2Ev, ptr @"_ZNSt3__110__function6__funcIZ4mainE4$_19NS_9allocatorIS2_EEFvPmS5_S5_jEED0Ev", ptr @"_ZNKSt3__110__function6__funcIZ4mainE4$_19NS_9allocatorIS2_EEFvPmS5_S5_jEE7__cloneEv", ptr @"_ZNKSt3__110__function6__funcIZ4mainE4$_19NS_9allocatorIS2_EEFvPmS5_S5_jEE7__cloneEPNS0_6__baseIS6_EE", ptr @"_ZNSt3__110__function6__funcIZ4mainE4$_19NS_9allocatorIS2_EEFvPmS5_S5_jEE7destroyEv", ptr @"_ZNSt3__110__function6__funcIZ4mainE4$_19NS_9allocatorIS2_EEFvPmS5_S5_jEE18destroy_deallocateEv", ptr @"_ZNSt3__110__function6__funcIZ4mainE4$_19NS_9allocatorIS2_EEFvPmS5_S5_jEEclEOS5_S8_S8_Oj", ptr @"_ZNKSt3__110__function6__funcIZ4mainE4$_19NS_9allocatorIS2_EEFvPmS5_S5_jEE6targetERKSt9type_info", ptr @"_ZNKSt3__110__function6__funcIZ4mainE4$_19NS_9allocatorIS2_EEFvPmS5_S5_jEE11target_typeEv"] }, align 8
@"_ZTSNSt3__110__function6__funcIZ4mainE4$_19NS_9allocatorIS2_EEFvPmS5_S5_jEEE" = internal constant [73 x i8] c"NSt3__110__function6__funcIZ4mainE4$_19NS_9allocatorIS2_EEFvPmS5_S5_jEEE\00", align 1
@"_ZTINSt3__110__function6__funcIZ4mainE4$_19NS_9allocatorIS2_EEFvPmS5_S5_jEEE" = internal constant { ptr, ptr, ptr } { ptr getelementptr inbounds (ptr, ptr @_ZTVN10__cxxabiv120__si_class_type_infoE, i64 2), ptr @"_ZTSNSt3__110__function6__funcIZ4mainE4$_19NS_9allocatorIS2_EEFvPmS5_S5_jEEE", ptr @_ZTINSt3__110__function6__baseIFvPmS2_S2_jEEE }, align 8
@llvm.global_ctors = appending global [1 x { i32, ptr, ptr }] [{ i32, ptr, ptr } { i32 65535, ptr @_GLOBAL__sub_I_runtime_checks.cpp, ptr null }]

; Function Attrs: norecurse uwtable
define dso_local noundef i32 @main() local_unnamed_addr #0 personality ptr @__gxx_personality_v0 {
entry:
  %ref.tmp = alloca %"class.std::__1::mersenne_twister_engine", align 8
  %agg.tmp = alloca %"class.std::__1::function", align 16
  %agg.tmp2 = alloca %"class.std::__1::function", align 16
  %agg.tmp6 = alloca %"class.std::__1::function.2", align 16
  %agg.tmp8 = alloca %"class.std::__1::function.2", align 16
  %agg.tmp16 = alloca %"class.std::__1::function.8", align 16
  %agg.tmp18 = alloca %"class.std::__1::function.8", align 16
  %agg.tmp30 = alloca %"class.std::__1::function", align 16
  %agg.tmp32 = alloca %"class.std::__1::function", align 16
  %agg.tmp40 = alloca %"class.std::__1::function.2", align 16
  %agg.tmp42 = alloca %"class.std::__1::function.2", align 16
  %agg.tmp50 = alloca %"class.std::__1::function.8", align 16
  %agg.tmp52 = alloca %"class.std::__1::function.8", align 16
  %agg.tmp64 = alloca %"class.std::__1::function", align 16
  %agg.tmp66 = alloca %"class.std::__1::function", align 16
  %agg.tmp74 = alloca %"class.std::__1::function.2", align 16
  %agg.tmp76 = alloca %"class.std::__1::function.2", align 16
  %agg.tmp84 = alloca %"class.std::__1::function.8", align 16
  %agg.tmp86 = alloca %"class.std::__1::function.8", align 16
  %agg.tmp98 = alloca %"class.std::__1::function", align 16
  %agg.tmp100 = alloca %"class.std::__1::function", align 16
  %agg.tmp108 = alloca %"class.std::__1::function.2", align 16
  %agg.tmp110 = alloca %"class.std::__1::function.2", align 16
  %agg.tmp118 = alloca %"class.std::__1::function.8", align 16
  %agg.tmp120 = alloca %"class.std::__1::function.8", align 16
  %agg.tmp132 = alloca %"class.std::__1::function", align 16
  %agg.tmp134 = alloca %"class.std::__1::function", align 16
  %agg.tmp142 = alloca %"class.std::__1::function.2", align 16
  %agg.tmp144 = alloca %"class.std::__1::function.2", align 16
  %agg.tmp152 = alloca %"class.std::__1::function.8", align 16
  %agg.tmp154 = alloca %"class.std::__1::function.8", align 16
  %agg.tmp166 = alloca %"class.std::__1::function", align 16
  %agg.tmp168 = alloca %"class.std::__1::function", align 16
  %agg.tmp176 = alloca %"class.std::__1::function.2", align 16
  %agg.tmp178 = alloca %"class.std::__1::function.2", align 16
  %agg.tmp186 = alloca %"class.std::__1::function.8", align 16
  %agg.tmp188 = alloca %"class.std::__1::function.8", align 16
  %agg.tmp200 = alloca %"class.std::__1::function", align 16
  %agg.tmp202 = alloca %"class.std::__1::function", align 16
  %agg.tmp210 = alloca %"class.std::__1::function.2", align 16
  %agg.tmp212 = alloca %"class.std::__1::function.2", align 16
  %agg.tmp220 = alloca %"class.std::__1::function.8", align 16
  %agg.tmp222 = alloca %"class.std::__1::function.8", align 16
  %agg.tmp234 = alloca %"class.std::__1::function", align 16
  %agg.tmp236 = alloca %"class.std::__1::function", align 16
  %agg.tmp244 = alloca %"class.std::__1::function.2", align 16
  %agg.tmp246 = alloca %"class.std::__1::function.2", align 16
  %agg.tmp254 = alloca %"class.std::__1::function.8", align 16
  %agg.tmp256 = alloca %"class.std::__1::function.8", align 16
  %agg.tmp268 = alloca %"class.std::__1::function.46", align 16
  %agg.tmp270 = alloca %"class.std::__1::function.46", align 16
  %agg.tmp278 = alloca %"class.std::__1::function.52", align 16
  %agg.tmp280 = alloca %"class.std::__1::function.52", align 16
  %agg.tmp288 = alloca %"class.std::__1::function.58", align 16
  %agg.tmp290 = alloca %"class.std::__1::function.58", align 16
  %agg.tmp302 = alloca %"class.std::__1::function.52", align 16
  %agg.tmp304 = alloca %"class.std::__1::function.52", align 16
  %agg.tmp312 = alloca %"class.std::__1::function.46", align 16
  %agg.tmp314 = alloca %"class.std::__1::function.46", align 16
  %agg.tmp322 = alloca %"class.std::__1::function.58", align 16
  %agg.tmp324 = alloca %"class.std::__1::function.58", align 16
  call void @llvm.lifetime.start.p0(i64 5000, ptr nonnull %ref.tmp) #24
  store i64 15, ptr %ref.tmp, align 8, !tbaa !5
  br label %for.body.i.i

for.body.i.i:                                     ; preds = %for.body.i.i.1, %entry
  %0 = phi i64 [ 15, %entry ], [ %and7.i.i.1, %for.body.i.i.1 ]
  %__i.015.i.i = phi i64 [ 1, %entry ], [ %inc.i.i.1, %for.body.i.i.1 ]
  %shr.i.i.i = lshr i64 %0, 30
  %xor.i.i = xor i64 %shr.i.i.i, %0
  %mul.i.i = mul nuw nsw i64 %xor.i.i, 1812433253
  %add.i.i = add nuw i64 %mul.i.i, %__i.015.i.i
  %and7.i.i = and i64 %add.i.i, 4294967295
  %arrayidx9.i.i = getelementptr inbounds [624 x i64], ptr %ref.tmp, i64 0, i64 %__i.015.i.i
  store i64 %and7.i.i, ptr %arrayidx9.i.i, align 8, !tbaa !5
  %inc.i.i = add nuw nsw i64 %__i.015.i.i, 1
  %exitcond.not.i.i = icmp eq i64 %inc.i.i, 624
  br i1 %exitcond.not.i.i, label %invoke.cont, label %for.body.i.i.1, !llvm.loop !9

for.body.i.i.1:                                   ; preds = %for.body.i.i
  %shr.i.i.i.1 = lshr i64 %and7.i.i, 30
  %xor.i.i.1 = xor i64 %shr.i.i.i.1, %add.i.i
  %mul.i.i.1 = mul i64 %xor.i.i.1, 1812433253
  %add.i.i.1 = add i64 %mul.i.i.1, %inc.i.i
  %and7.i.i.1 = and i64 %add.i.i.1, 4294967295
  %arrayidx9.i.i.1 = getelementptr inbounds [624 x i64], ptr %ref.tmp, i64 0, i64 %inc.i.i
  store i64 %and7.i.i.1, ptr %arrayidx9.i.i.1, align 8, !tbaa !5
  %inc.i.i.1 = add nuw nsw i64 %__i.015.i.i, 2
  br label %for.body.i.i

invoke.cont:                                      ; preds = %for.body.i.i
  %__i_.i.i = getelementptr inbounds %"class.std::__1::mersenne_twister_engine", ptr %ref.tmp, i64 0, i32 1
  store i64 0, ptr %__i_.i.i, align 8, !tbaa !11
  call void @llvm.memcpy.p0.p0.i64(ptr noundef nonnull align 8 dereferenceable(5000) @_ZL3rng, ptr noundef nonnull align 8 dereferenceable(5000) %ref.tmp, i64 5000, i1 false), !tbaa.struct !13
  call void @llvm.lifetime.end.p0(i64 5000, ptr nonnull %ref.tmp) #24
  %__f_.i.i.i = getelementptr inbounds %"class.std::__1::__function::__value_func", ptr %agg.tmp, i64 0, i32 1
  store ptr getelementptr inbounds ({ [11 x ptr] }, ptr @"_ZTVNSt3__110__function6__funcIZ4mainE3$_0NS_9allocatorIS2_EEFvPhS5_jEEE", i64 0, inrange i32 0, i64 2), ptr %agg.tmp, align 16, !tbaa !15
  store ptr %agg.tmp, ptr %__f_.i.i.i, align 16, !tbaa !17
  %__f_.i.i.i405 = getelementptr inbounds %"class.std::__1::__function::__value_func", ptr %agg.tmp2, i64 0, i32 1
  store ptr getelementptr inbounds ({ [11 x ptr] }, ptr @"_ZTVNSt3__110__function6__funcIZ4mainE3$_1NS_9allocatorIS2_EEFvPhS5_jEEE", i64 0, inrange i32 0, i64 2), ptr %agg.tmp2, align 16, !tbaa !15
  store ptr %agg.tmp2, ptr %__f_.i.i.i405, align 16, !tbaa !17
  invoke fastcc void @_ZL37checkOverlappingMemoryOneRuntimeCheckIhEvNSt3__18functionIFvPT_S3_jEEES5_PKc(ptr noundef nonnull %agg.tmp, ptr noundef nonnull %agg.tmp2, ptr noundef nonnull @.str)
          to label %invoke.cont5 unwind label %lpad4

invoke.cont5:                                     ; preds = %invoke.cont
  %1 = load ptr, ptr %__f_.i.i.i405, align 16, !tbaa !17
  %cmp.i.i = icmp eq ptr %1, %agg.tmp2
  br i1 %cmp.i.i, label %if.end8.sink.split.i.i, label %if.else.i.i

if.else.i.i:                                      ; preds = %invoke.cont5
  %tobool.not.i.i = icmp eq ptr %1, null
  br i1 %tobool.not.i.i, label %_ZNSt3__18functionIFvPhS1_jEED2Ev.exit, label %if.end8.sink.split.i.i

if.end8.sink.split.i.i:                           ; preds = %if.else.i.i, %invoke.cont5
  %.sink.i.i = phi i64 [ 4, %invoke.cont5 ], [ 5, %if.else.i.i ]
  %vtable6.i.i = load ptr, ptr %1, align 8, !tbaa !15
  %vfn7.i.i = getelementptr inbounds ptr, ptr %vtable6.i.i, i64 %.sink.i.i
  %2 = load ptr, ptr %vfn7.i.i, align 8
  call void %2(ptr noundef nonnull align 8 dereferenceable(8) %1) #24
  br label %_ZNSt3__18functionIFvPhS1_jEED2Ev.exit

_ZNSt3__18functionIFvPhS1_jEED2Ev.exit:           ; preds = %if.else.i.i, %if.end8.sink.split.i.i
  %3 = load ptr, ptr %__f_.i.i.i, align 16, !tbaa !17
  %cmp.i.i407 = icmp eq ptr %3, %agg.tmp
  br i1 %cmp.i.i407, label %if.end8.sink.split.i.i413, label %if.else.i.i409

if.else.i.i409:                                   ; preds = %_ZNSt3__18functionIFvPhS1_jEED2Ev.exit
  %tobool.not.i.i408 = icmp eq ptr %3, null
  br i1 %tobool.not.i.i408, label %invoke.cont11, label %if.end8.sink.split.i.i413

if.end8.sink.split.i.i413:                        ; preds = %if.else.i.i409, %_ZNSt3__18functionIFvPhS1_jEED2Ev.exit
  %.sink.i.i410 = phi i64 [ 4, %_ZNSt3__18functionIFvPhS1_jEED2Ev.exit ], [ 5, %if.else.i.i409 ]
  %vtable6.i.i411 = load ptr, ptr %3, align 8, !tbaa !15
  %vfn7.i.i412 = getelementptr inbounds ptr, ptr %vtable6.i.i411, i64 %.sink.i.i410
  %4 = load ptr, ptr %vfn7.i.i412, align 8
  call void %4(ptr noundef nonnull align 8 dereferenceable(8) %3) #24
  br label %invoke.cont11

invoke.cont11:                                    ; preds = %if.end8.sink.split.i.i413, %if.else.i.i409
  %__f_.i.i.i415 = getelementptr inbounds %"class.std::__1::__function::__value_func.5", ptr %agg.tmp6, i64 0, i32 1
  store ptr getelementptr inbounds ({ [11 x ptr] }, ptr @"_ZTVNSt3__110__function6__funcIZ4mainE3$_0NS_9allocatorIS2_EEFvPjS5_jEEE", i64 0, inrange i32 0, i64 2), ptr %agg.tmp6, align 16, !tbaa !15
  store ptr %agg.tmp6, ptr %__f_.i.i.i415, align 16, !tbaa !21
  %__f_.i.i.i416 = getelementptr inbounds %"class.std::__1::__function::__value_func.5", ptr %agg.tmp8, i64 0, i32 1
  store ptr getelementptr inbounds ({ [11 x ptr] }, ptr @"_ZTVNSt3__110__function6__funcIZ4mainE3$_1NS_9allocatorIS2_EEFvPjS5_jEEE", i64 0, inrange i32 0, i64 2), ptr %agg.tmp8, align 16, !tbaa !15
  store ptr %agg.tmp8, ptr %__f_.i.i.i416, align 16, !tbaa !21
  invoke fastcc void @_ZL37checkOverlappingMemoryOneRuntimeCheckIjEvNSt3__18functionIFvPT_S3_jEEES5_PKc(ptr noundef nonnull %agg.tmp6, ptr noundef nonnull %agg.tmp8, ptr noundef nonnull @.str.1)
          to label %invoke.cont13 unwind label %lpad12

invoke.cont13:                                    ; preds = %invoke.cont11
  %5 = load ptr, ptr %__f_.i.i.i416, align 16, !tbaa !21
  %cmp.i.i418 = icmp eq ptr %5, %agg.tmp8
  br i1 %cmp.i.i418, label %if.end8.sink.split.i.i424, label %if.else.i.i420

if.else.i.i420:                                   ; preds = %invoke.cont13
  %tobool.not.i.i419 = icmp eq ptr %5, null
  br i1 %tobool.not.i.i419, label %_ZNSt3__18functionIFvPjS1_jEED2Ev.exit, label %if.end8.sink.split.i.i424

if.end8.sink.split.i.i424:                        ; preds = %if.else.i.i420, %invoke.cont13
  %.sink.i.i421 = phi i64 [ 4, %invoke.cont13 ], [ 5, %if.else.i.i420 ]
  %vtable6.i.i422 = load ptr, ptr %5, align 8, !tbaa !15
  %vfn7.i.i423 = getelementptr inbounds ptr, ptr %vtable6.i.i422, i64 %.sink.i.i421
  %6 = load ptr, ptr %vfn7.i.i423, align 8
  call void %6(ptr noundef nonnull align 8 dereferenceable(8) %5) #24
  br label %_ZNSt3__18functionIFvPjS1_jEED2Ev.exit

_ZNSt3__18functionIFvPjS1_jEED2Ev.exit:           ; preds = %if.else.i.i420, %if.end8.sink.split.i.i424
  %7 = load ptr, ptr %__f_.i.i.i415, align 16, !tbaa !21
  %cmp.i.i426 = icmp eq ptr %7, %agg.tmp6
  br i1 %cmp.i.i426, label %if.end8.sink.split.i.i432, label %if.else.i.i428

if.else.i.i428:                                   ; preds = %_ZNSt3__18functionIFvPjS1_jEED2Ev.exit
  %tobool.not.i.i427 = icmp eq ptr %7, null
  br i1 %tobool.not.i.i427, label %invoke.cont21, label %if.end8.sink.split.i.i432

if.end8.sink.split.i.i432:                        ; preds = %if.else.i.i428, %_ZNSt3__18functionIFvPjS1_jEED2Ev.exit
  %.sink.i.i429 = phi i64 [ 4, %_ZNSt3__18functionIFvPjS1_jEED2Ev.exit ], [ 5, %if.else.i.i428 ]
  %vtable6.i.i430 = load ptr, ptr %7, align 8, !tbaa !15
  %vfn7.i.i431 = getelementptr inbounds ptr, ptr %vtable6.i.i430, i64 %.sink.i.i429
  %8 = load ptr, ptr %vfn7.i.i431, align 8
  call void %8(ptr noundef nonnull align 8 dereferenceable(8) %7) #24
  br label %invoke.cont21

invoke.cont21:                                    ; preds = %if.end8.sink.split.i.i432, %if.else.i.i428
  %__f_.i.i.i434 = getelementptr inbounds %"class.std::__1::__function::__value_func.11", ptr %agg.tmp16, i64 0, i32 1
  store ptr getelementptr inbounds ({ [11 x ptr] }, ptr @"_ZTVNSt3__110__function6__funcIZ4mainE3$_0NS_9allocatorIS2_EEFvPmS5_jEEE", i64 0, inrange i32 0, i64 2), ptr %agg.tmp16, align 16, !tbaa !15
  store ptr %agg.tmp16, ptr %__f_.i.i.i434, align 16, !tbaa !23
  %__f_.i.i.i435 = getelementptr inbounds %"class.std::__1::__function::__value_func.11", ptr %agg.tmp18, i64 0, i32 1
  store ptr getelementptr inbounds ({ [11 x ptr] }, ptr @"_ZTVNSt3__110__function6__funcIZ4mainE3$_1NS_9allocatorIS2_EEFvPmS5_jEEE", i64 0, inrange i32 0, i64 2), ptr %agg.tmp18, align 16, !tbaa !15
  store ptr %agg.tmp18, ptr %__f_.i.i.i435, align 16, !tbaa !23
  invoke fastcc void @_ZL37checkOverlappingMemoryOneRuntimeCheckImEvNSt3__18functionIFvPT_S3_jEEES5_PKc(ptr noundef nonnull %agg.tmp16, ptr noundef nonnull %agg.tmp18, ptr noundef nonnull @.str.2)
          to label %invoke.cont23 unwind label %lpad22

invoke.cont23:                                    ; preds = %invoke.cont21
  %9 = load ptr, ptr %__f_.i.i.i435, align 16, !tbaa !23
  %cmp.i.i437 = icmp eq ptr %9, %agg.tmp18
  br i1 %cmp.i.i437, label %if.end8.sink.split.i.i443, label %if.else.i.i439

if.else.i.i439:                                   ; preds = %invoke.cont23
  %tobool.not.i.i438 = icmp eq ptr %9, null
  br i1 %tobool.not.i.i438, label %_ZNSt3__18functionIFvPmS1_jEED2Ev.exit, label %if.end8.sink.split.i.i443

if.end8.sink.split.i.i443:                        ; preds = %if.else.i.i439, %invoke.cont23
  %.sink.i.i440 = phi i64 [ 4, %invoke.cont23 ], [ 5, %if.else.i.i439 ]
  %vtable6.i.i441 = load ptr, ptr %9, align 8, !tbaa !15
  %vfn7.i.i442 = getelementptr inbounds ptr, ptr %vtable6.i.i441, i64 %.sink.i.i440
  %10 = load ptr, ptr %vfn7.i.i442, align 8
  call void %10(ptr noundef nonnull align 8 dereferenceable(8) %9) #24
  br label %_ZNSt3__18functionIFvPmS1_jEED2Ev.exit

_ZNSt3__18functionIFvPmS1_jEED2Ev.exit:           ; preds = %if.else.i.i439, %if.end8.sink.split.i.i443
  %11 = load ptr, ptr %__f_.i.i.i434, align 16, !tbaa !23
  %cmp.i.i445 = icmp eq ptr %11, %agg.tmp16
  br i1 %cmp.i.i445, label %if.end8.sink.split.i.i451, label %if.else.i.i447

if.else.i.i447:                                   ; preds = %_ZNSt3__18functionIFvPmS1_jEED2Ev.exit
  %tobool.not.i.i446 = icmp eq ptr %11, null
  br i1 %tobool.not.i.i446, label %invoke.cont35, label %if.end8.sink.split.i.i451

if.end8.sink.split.i.i451:                        ; preds = %if.else.i.i447, %_ZNSt3__18functionIFvPmS1_jEED2Ev.exit
  %.sink.i.i448 = phi i64 [ 4, %_ZNSt3__18functionIFvPmS1_jEED2Ev.exit ], [ 5, %if.else.i.i447 ]
  %vtable6.i.i449 = load ptr, ptr %11, align 8, !tbaa !15
  %vfn7.i.i450 = getelementptr inbounds ptr, ptr %vtable6.i.i449, i64 %.sink.i.i448
  %12 = load ptr, ptr %vfn7.i.i450, align 8
  call void %12(ptr noundef nonnull align 8 dereferenceable(8) %11) #24
  br label %invoke.cont35

invoke.cont35:                                    ; preds = %if.end8.sink.split.i.i451, %if.else.i.i447
  %__f_.i.i.i453 = getelementptr inbounds %"class.std::__1::__function::__value_func", ptr %agg.tmp30, i64 0, i32 1
  store ptr getelementptr inbounds ({ [11 x ptr] }, ptr @"_ZTVNSt3__110__function6__funcIZ4mainE3$_2NS_9allocatorIS2_EEFvPhS5_jEEE", i64 0, inrange i32 0, i64 2), ptr %agg.tmp30, align 16, !tbaa !15
  store ptr %agg.tmp30, ptr %__f_.i.i.i453, align 16, !tbaa !17
  %__f_.i.i.i454 = getelementptr inbounds %"class.std::__1::__function::__value_func", ptr %agg.tmp32, i64 0, i32 1
  store ptr getelementptr inbounds ({ [11 x ptr] }, ptr @"_ZTVNSt3__110__function6__funcIZ4mainE3$_3NS_9allocatorIS2_EEFvPhS5_jEEE", i64 0, inrange i32 0, i64 2), ptr %agg.tmp32, align 16, !tbaa !15
  store ptr %agg.tmp32, ptr %__f_.i.i.i454, align 16, !tbaa !17
  invoke fastcc void @_ZL37checkOverlappingMemoryOneRuntimeCheckIhEvNSt3__18functionIFvPT_S3_jEEES5_PKc(ptr noundef nonnull %agg.tmp30, ptr noundef nonnull %agg.tmp32, ptr noundef nonnull @.str.3)
          to label %invoke.cont37 unwind label %lpad36

invoke.cont37:                                    ; preds = %invoke.cont35
  %13 = load ptr, ptr %__f_.i.i.i454, align 16, !tbaa !17
  %cmp.i.i456 = icmp eq ptr %13, %agg.tmp32
  br i1 %cmp.i.i456, label %if.end8.sink.split.i.i462, label %if.else.i.i458

if.else.i.i458:                                   ; preds = %invoke.cont37
  %tobool.not.i.i457 = icmp eq ptr %13, null
  br i1 %tobool.not.i.i457, label %_ZNSt3__18functionIFvPhS1_jEED2Ev.exit463, label %if.end8.sink.split.i.i462

if.end8.sink.split.i.i462:                        ; preds = %if.else.i.i458, %invoke.cont37
  %.sink.i.i459 = phi i64 [ 4, %invoke.cont37 ], [ 5, %if.else.i.i458 ]
  %vtable6.i.i460 = load ptr, ptr %13, align 8, !tbaa !15
  %vfn7.i.i461 = getelementptr inbounds ptr, ptr %vtable6.i.i460, i64 %.sink.i.i459
  %14 = load ptr, ptr %vfn7.i.i461, align 8
  call void %14(ptr noundef nonnull align 8 dereferenceable(8) %13) #24
  br label %_ZNSt3__18functionIFvPhS1_jEED2Ev.exit463

_ZNSt3__18functionIFvPhS1_jEED2Ev.exit463:        ; preds = %if.else.i.i458, %if.end8.sink.split.i.i462
  %15 = load ptr, ptr %__f_.i.i.i453, align 16, !tbaa !17
  %cmp.i.i465 = icmp eq ptr %15, %agg.tmp30
  br i1 %cmp.i.i465, label %if.end8.sink.split.i.i471, label %if.else.i.i467

if.else.i.i467:                                   ; preds = %_ZNSt3__18functionIFvPhS1_jEED2Ev.exit463
  %tobool.not.i.i466 = icmp eq ptr %15, null
  br i1 %tobool.not.i.i466, label %invoke.cont45, label %if.end8.sink.split.i.i471

if.end8.sink.split.i.i471:                        ; preds = %if.else.i.i467, %_ZNSt3__18functionIFvPhS1_jEED2Ev.exit463
  %.sink.i.i468 = phi i64 [ 4, %_ZNSt3__18functionIFvPhS1_jEED2Ev.exit463 ], [ 5, %if.else.i.i467 ]
  %vtable6.i.i469 = load ptr, ptr %15, align 8, !tbaa !15
  %vfn7.i.i470 = getelementptr inbounds ptr, ptr %vtable6.i.i469, i64 %.sink.i.i468
  %16 = load ptr, ptr %vfn7.i.i470, align 8
  call void %16(ptr noundef nonnull align 8 dereferenceable(8) %15) #24
  br label %invoke.cont45

invoke.cont45:                                    ; preds = %if.end8.sink.split.i.i471, %if.else.i.i467
  %__f_.i.i.i473 = getelementptr inbounds %"class.std::__1::__function::__value_func.5", ptr %agg.tmp40, i64 0, i32 1
  store ptr getelementptr inbounds ({ [11 x ptr] }, ptr @"_ZTVNSt3__110__function6__funcIZ4mainE3$_2NS_9allocatorIS2_EEFvPjS5_jEEE", i64 0, inrange i32 0, i64 2), ptr %agg.tmp40, align 16, !tbaa !15
  store ptr %agg.tmp40, ptr %__f_.i.i.i473, align 16, !tbaa !21
  %__f_.i.i.i474 = getelementptr inbounds %"class.std::__1::__function::__value_func.5", ptr %agg.tmp42, i64 0, i32 1
  store ptr getelementptr inbounds ({ [11 x ptr] }, ptr @"_ZTVNSt3__110__function6__funcIZ4mainE3$_3NS_9allocatorIS2_EEFvPjS5_jEEE", i64 0, inrange i32 0, i64 2), ptr %agg.tmp42, align 16, !tbaa !15
  store ptr %agg.tmp42, ptr %__f_.i.i.i474, align 16, !tbaa !21
  invoke fastcc void @_ZL37checkOverlappingMemoryOneRuntimeCheckIjEvNSt3__18functionIFvPT_S3_jEEES5_PKc(ptr noundef nonnull %agg.tmp40, ptr noundef nonnull %agg.tmp42, ptr noundef nonnull @.str.4)
          to label %invoke.cont47 unwind label %lpad46

invoke.cont47:                                    ; preds = %invoke.cont45
  %17 = load ptr, ptr %__f_.i.i.i474, align 16, !tbaa !21
  %cmp.i.i476 = icmp eq ptr %17, %agg.tmp42
  br i1 %cmp.i.i476, label %if.end8.sink.split.i.i482, label %if.else.i.i478

if.else.i.i478:                                   ; preds = %invoke.cont47
  %tobool.not.i.i477 = icmp eq ptr %17, null
  br i1 %tobool.not.i.i477, label %_ZNSt3__18functionIFvPjS1_jEED2Ev.exit483, label %if.end8.sink.split.i.i482

if.end8.sink.split.i.i482:                        ; preds = %if.else.i.i478, %invoke.cont47
  %.sink.i.i479 = phi i64 [ 4, %invoke.cont47 ], [ 5, %if.else.i.i478 ]
  %vtable6.i.i480 = load ptr, ptr %17, align 8, !tbaa !15
  %vfn7.i.i481 = getelementptr inbounds ptr, ptr %vtable6.i.i480, i64 %.sink.i.i479
  %18 = load ptr, ptr %vfn7.i.i481, align 8
  call void %18(ptr noundef nonnull align 8 dereferenceable(8) %17) #24
  br label %_ZNSt3__18functionIFvPjS1_jEED2Ev.exit483

_ZNSt3__18functionIFvPjS1_jEED2Ev.exit483:        ; preds = %if.else.i.i478, %if.end8.sink.split.i.i482
  %19 = load ptr, ptr %__f_.i.i.i473, align 16, !tbaa !21
  %cmp.i.i485 = icmp eq ptr %19, %agg.tmp40
  br i1 %cmp.i.i485, label %if.end8.sink.split.i.i491, label %if.else.i.i487

if.else.i.i487:                                   ; preds = %_ZNSt3__18functionIFvPjS1_jEED2Ev.exit483
  %tobool.not.i.i486 = icmp eq ptr %19, null
  br i1 %tobool.not.i.i486, label %invoke.cont55, label %if.end8.sink.split.i.i491

if.end8.sink.split.i.i491:                        ; preds = %if.else.i.i487, %_ZNSt3__18functionIFvPjS1_jEED2Ev.exit483
  %.sink.i.i488 = phi i64 [ 4, %_ZNSt3__18functionIFvPjS1_jEED2Ev.exit483 ], [ 5, %if.else.i.i487 ]
  %vtable6.i.i489 = load ptr, ptr %19, align 8, !tbaa !15
  %vfn7.i.i490 = getelementptr inbounds ptr, ptr %vtable6.i.i489, i64 %.sink.i.i488
  %20 = load ptr, ptr %vfn7.i.i490, align 8
  call void %20(ptr noundef nonnull align 8 dereferenceable(8) %19) #24
  br label %invoke.cont55

invoke.cont55:                                    ; preds = %if.end8.sink.split.i.i491, %if.else.i.i487
  %__f_.i.i.i493 = getelementptr inbounds %"class.std::__1::__function::__value_func.11", ptr %agg.tmp50, i64 0, i32 1
  store ptr getelementptr inbounds ({ [11 x ptr] }, ptr @"_ZTVNSt3__110__function6__funcIZ4mainE3$_2NS_9allocatorIS2_EEFvPmS5_jEEE", i64 0, inrange i32 0, i64 2), ptr %agg.tmp50, align 16, !tbaa !15
  store ptr %agg.tmp50, ptr %__f_.i.i.i493, align 16, !tbaa !23
  %__f_.i.i.i494 = getelementptr inbounds %"class.std::__1::__function::__value_func.11", ptr %agg.tmp52, i64 0, i32 1
  store ptr getelementptr inbounds ({ [11 x ptr] }, ptr @"_ZTVNSt3__110__function6__funcIZ4mainE3$_3NS_9allocatorIS2_EEFvPmS5_jEEE", i64 0, inrange i32 0, i64 2), ptr %agg.tmp52, align 16, !tbaa !15
  store ptr %agg.tmp52, ptr %__f_.i.i.i494, align 16, !tbaa !23
  invoke fastcc void @_ZL37checkOverlappingMemoryOneRuntimeCheckImEvNSt3__18functionIFvPT_S3_jEEES5_PKc(ptr noundef nonnull %agg.tmp50, ptr noundef nonnull %agg.tmp52, ptr noundef nonnull @.str.5)
          to label %invoke.cont57 unwind label %lpad56

invoke.cont57:                                    ; preds = %invoke.cont55
  %21 = load ptr, ptr %__f_.i.i.i494, align 16, !tbaa !23
  %cmp.i.i496 = icmp eq ptr %21, %agg.tmp52
  br i1 %cmp.i.i496, label %if.end8.sink.split.i.i502, label %if.else.i.i498

if.else.i.i498:                                   ; preds = %invoke.cont57
  %tobool.not.i.i497 = icmp eq ptr %21, null
  br i1 %tobool.not.i.i497, label %_ZNSt3__18functionIFvPmS1_jEED2Ev.exit503, label %if.end8.sink.split.i.i502

if.end8.sink.split.i.i502:                        ; preds = %if.else.i.i498, %invoke.cont57
  %.sink.i.i499 = phi i64 [ 4, %invoke.cont57 ], [ 5, %if.else.i.i498 ]
  %vtable6.i.i500 = load ptr, ptr %21, align 8, !tbaa !15
  %vfn7.i.i501 = getelementptr inbounds ptr, ptr %vtable6.i.i500, i64 %.sink.i.i499
  %22 = load ptr, ptr %vfn7.i.i501, align 8
  call void %22(ptr noundef nonnull align 8 dereferenceable(8) %21) #24
  br label %_ZNSt3__18functionIFvPmS1_jEED2Ev.exit503

_ZNSt3__18functionIFvPmS1_jEED2Ev.exit503:        ; preds = %if.else.i.i498, %if.end8.sink.split.i.i502
  %23 = load ptr, ptr %__f_.i.i.i493, align 16, !tbaa !23
  %cmp.i.i505 = icmp eq ptr %23, %agg.tmp50
  br i1 %cmp.i.i505, label %if.end8.sink.split.i.i511, label %if.else.i.i507

if.else.i.i507:                                   ; preds = %_ZNSt3__18functionIFvPmS1_jEED2Ev.exit503
  %tobool.not.i.i506 = icmp eq ptr %23, null
  br i1 %tobool.not.i.i506, label %invoke.cont69, label %if.end8.sink.split.i.i511

if.end8.sink.split.i.i511:                        ; preds = %if.else.i.i507, %_ZNSt3__18functionIFvPmS1_jEED2Ev.exit503
  %.sink.i.i508 = phi i64 [ 4, %_ZNSt3__18functionIFvPmS1_jEED2Ev.exit503 ], [ 5, %if.else.i.i507 ]
  %vtable6.i.i509 = load ptr, ptr %23, align 8, !tbaa !15
  %vfn7.i.i510 = getelementptr inbounds ptr, ptr %vtable6.i.i509, i64 %.sink.i.i508
  %24 = load ptr, ptr %vfn7.i.i510, align 8
  call void %24(ptr noundef nonnull align 8 dereferenceable(8) %23) #24
  br label %invoke.cont69

invoke.cont69:                                    ; preds = %if.end8.sink.split.i.i511, %if.else.i.i507
  %__f_.i.i.i513 = getelementptr inbounds %"class.std::__1::__function::__value_func", ptr %agg.tmp64, i64 0, i32 1
  store ptr getelementptr inbounds ({ [11 x ptr] }, ptr @"_ZTVNSt3__110__function6__funcIZ4mainE3$_4NS_9allocatorIS2_EEFvPhS5_jEEE", i64 0, inrange i32 0, i64 2), ptr %agg.tmp64, align 16, !tbaa !15
  store ptr %agg.tmp64, ptr %__f_.i.i.i513, align 16, !tbaa !17
  %__f_.i.i.i514 = getelementptr inbounds %"class.std::__1::__function::__value_func", ptr %agg.tmp66, i64 0, i32 1
  store ptr getelementptr inbounds ({ [11 x ptr] }, ptr @"_ZTVNSt3__110__function6__funcIZ4mainE3$_5NS_9allocatorIS2_EEFvPhS5_jEEE", i64 0, inrange i32 0, i64 2), ptr %agg.tmp66, align 16, !tbaa !15
  store ptr %agg.tmp66, ptr %__f_.i.i.i514, align 16, !tbaa !17
  invoke fastcc void @_ZL37checkOverlappingMemoryOneRuntimeCheckIhEvNSt3__18functionIFvPT_S3_jEEES5_PKc(ptr noundef nonnull %agg.tmp64, ptr noundef nonnull %agg.tmp66, ptr noundef nonnull @.str.6)
          to label %invoke.cont71 unwind label %lpad70

invoke.cont71:                                    ; preds = %invoke.cont69
  %25 = load ptr, ptr %__f_.i.i.i514, align 16, !tbaa !17
  %cmp.i.i516 = icmp eq ptr %25, %agg.tmp66
  br i1 %cmp.i.i516, label %if.end8.sink.split.i.i522, label %if.else.i.i518

if.else.i.i518:                                   ; preds = %invoke.cont71
  %tobool.not.i.i517 = icmp eq ptr %25, null
  br i1 %tobool.not.i.i517, label %_ZNSt3__18functionIFvPhS1_jEED2Ev.exit523, label %if.end8.sink.split.i.i522

if.end8.sink.split.i.i522:                        ; preds = %if.else.i.i518, %invoke.cont71
  %.sink.i.i519 = phi i64 [ 4, %invoke.cont71 ], [ 5, %if.else.i.i518 ]
  %vtable6.i.i520 = load ptr, ptr %25, align 8, !tbaa !15
  %vfn7.i.i521 = getelementptr inbounds ptr, ptr %vtable6.i.i520, i64 %.sink.i.i519
  %26 = load ptr, ptr %vfn7.i.i521, align 8
  call void %26(ptr noundef nonnull align 8 dereferenceable(8) %25) #24
  br label %_ZNSt3__18functionIFvPhS1_jEED2Ev.exit523

_ZNSt3__18functionIFvPhS1_jEED2Ev.exit523:        ; preds = %if.else.i.i518, %if.end8.sink.split.i.i522
  %27 = load ptr, ptr %__f_.i.i.i513, align 16, !tbaa !17
  %cmp.i.i525 = icmp eq ptr %27, %agg.tmp64
  br i1 %cmp.i.i525, label %if.end8.sink.split.i.i531, label %if.else.i.i527

if.else.i.i527:                                   ; preds = %_ZNSt3__18functionIFvPhS1_jEED2Ev.exit523
  %tobool.not.i.i526 = icmp eq ptr %27, null
  br i1 %tobool.not.i.i526, label %invoke.cont79, label %if.end8.sink.split.i.i531

if.end8.sink.split.i.i531:                        ; preds = %if.else.i.i527, %_ZNSt3__18functionIFvPhS1_jEED2Ev.exit523
  %.sink.i.i528 = phi i64 [ 4, %_ZNSt3__18functionIFvPhS1_jEED2Ev.exit523 ], [ 5, %if.else.i.i527 ]
  %vtable6.i.i529 = load ptr, ptr %27, align 8, !tbaa !15
  %vfn7.i.i530 = getelementptr inbounds ptr, ptr %vtable6.i.i529, i64 %.sink.i.i528
  %28 = load ptr, ptr %vfn7.i.i530, align 8
  call void %28(ptr noundef nonnull align 8 dereferenceable(8) %27) #24
  br label %invoke.cont79

invoke.cont79:                                    ; preds = %if.end8.sink.split.i.i531, %if.else.i.i527
  %__f_.i.i.i533 = getelementptr inbounds %"class.std::__1::__function::__value_func.5", ptr %agg.tmp74, i64 0, i32 1
  store ptr getelementptr inbounds ({ [11 x ptr] }, ptr @"_ZTVNSt3__110__function6__funcIZ4mainE3$_4NS_9allocatorIS2_EEFvPjS5_jEEE", i64 0, inrange i32 0, i64 2), ptr %agg.tmp74, align 16, !tbaa !15
  store ptr %agg.tmp74, ptr %__f_.i.i.i533, align 16, !tbaa !21
  %__f_.i.i.i534 = getelementptr inbounds %"class.std::__1::__function::__value_func.5", ptr %agg.tmp76, i64 0, i32 1
  store ptr getelementptr inbounds ({ [11 x ptr] }, ptr @"_ZTVNSt3__110__function6__funcIZ4mainE3$_5NS_9allocatorIS2_EEFvPjS5_jEEE", i64 0, inrange i32 0, i64 2), ptr %agg.tmp76, align 16, !tbaa !15
  store ptr %agg.tmp76, ptr %__f_.i.i.i534, align 16, !tbaa !21
  invoke fastcc void @_ZL37checkOverlappingMemoryOneRuntimeCheckIjEvNSt3__18functionIFvPT_S3_jEEES5_PKc(ptr noundef nonnull %agg.tmp74, ptr noundef nonnull %agg.tmp76, ptr noundef nonnull @.str.7)
          to label %invoke.cont81 unwind label %lpad80

invoke.cont81:                                    ; preds = %invoke.cont79
  %29 = load ptr, ptr %__f_.i.i.i534, align 16, !tbaa !21
  %cmp.i.i536 = icmp eq ptr %29, %agg.tmp76
  br i1 %cmp.i.i536, label %if.end8.sink.split.i.i542, label %if.else.i.i538

if.else.i.i538:                                   ; preds = %invoke.cont81
  %tobool.not.i.i537 = icmp eq ptr %29, null
  br i1 %tobool.not.i.i537, label %_ZNSt3__18functionIFvPjS1_jEED2Ev.exit543, label %if.end8.sink.split.i.i542

if.end8.sink.split.i.i542:                        ; preds = %if.else.i.i538, %invoke.cont81
  %.sink.i.i539 = phi i64 [ 4, %invoke.cont81 ], [ 5, %if.else.i.i538 ]
  %vtable6.i.i540 = load ptr, ptr %29, align 8, !tbaa !15
  %vfn7.i.i541 = getelementptr inbounds ptr, ptr %vtable6.i.i540, i64 %.sink.i.i539
  %30 = load ptr, ptr %vfn7.i.i541, align 8
  call void %30(ptr noundef nonnull align 8 dereferenceable(8) %29) #24
  br label %_ZNSt3__18functionIFvPjS1_jEED2Ev.exit543

_ZNSt3__18functionIFvPjS1_jEED2Ev.exit543:        ; preds = %if.else.i.i538, %if.end8.sink.split.i.i542
  %31 = load ptr, ptr %__f_.i.i.i533, align 16, !tbaa !21
  %cmp.i.i545 = icmp eq ptr %31, %agg.tmp74
  br i1 %cmp.i.i545, label %if.end8.sink.split.i.i551, label %if.else.i.i547

if.else.i.i547:                                   ; preds = %_ZNSt3__18functionIFvPjS1_jEED2Ev.exit543
  %tobool.not.i.i546 = icmp eq ptr %31, null
  br i1 %tobool.not.i.i546, label %invoke.cont89, label %if.end8.sink.split.i.i551

if.end8.sink.split.i.i551:                        ; preds = %if.else.i.i547, %_ZNSt3__18functionIFvPjS1_jEED2Ev.exit543
  %.sink.i.i548 = phi i64 [ 4, %_ZNSt3__18functionIFvPjS1_jEED2Ev.exit543 ], [ 5, %if.else.i.i547 ]
  %vtable6.i.i549 = load ptr, ptr %31, align 8, !tbaa !15
  %vfn7.i.i550 = getelementptr inbounds ptr, ptr %vtable6.i.i549, i64 %.sink.i.i548
  %32 = load ptr, ptr %vfn7.i.i550, align 8
  call void %32(ptr noundef nonnull align 8 dereferenceable(8) %31) #24
  br label %invoke.cont89

invoke.cont89:                                    ; preds = %if.end8.sink.split.i.i551, %if.else.i.i547
  %__f_.i.i.i553 = getelementptr inbounds %"class.std::__1::__function::__value_func.11", ptr %agg.tmp84, i64 0, i32 1
  store ptr getelementptr inbounds ({ [11 x ptr] }, ptr @"_ZTVNSt3__110__function6__funcIZ4mainE3$_4NS_9allocatorIS2_EEFvPmS5_jEEE", i64 0, inrange i32 0, i64 2), ptr %agg.tmp84, align 16, !tbaa !15
  store ptr %agg.tmp84, ptr %__f_.i.i.i553, align 16, !tbaa !23
  %__f_.i.i.i554 = getelementptr inbounds %"class.std::__1::__function::__value_func.11", ptr %agg.tmp86, i64 0, i32 1
  store ptr getelementptr inbounds ({ [11 x ptr] }, ptr @"_ZTVNSt3__110__function6__funcIZ4mainE3$_5NS_9allocatorIS2_EEFvPmS5_jEEE", i64 0, inrange i32 0, i64 2), ptr %agg.tmp86, align 16, !tbaa !15
  store ptr %agg.tmp86, ptr %__f_.i.i.i554, align 16, !tbaa !23
  invoke fastcc void @_ZL37checkOverlappingMemoryOneRuntimeCheckImEvNSt3__18functionIFvPT_S3_jEEES5_PKc(ptr noundef nonnull %agg.tmp84, ptr noundef nonnull %agg.tmp86, ptr noundef nonnull @.str.8)
          to label %invoke.cont91 unwind label %lpad90

invoke.cont91:                                    ; preds = %invoke.cont89
  %33 = load ptr, ptr %__f_.i.i.i554, align 16, !tbaa !23
  %cmp.i.i556 = icmp eq ptr %33, %agg.tmp86
  br i1 %cmp.i.i556, label %if.end8.sink.split.i.i562, label %if.else.i.i558

if.else.i.i558:                                   ; preds = %invoke.cont91
  %tobool.not.i.i557 = icmp eq ptr %33, null
  br i1 %tobool.not.i.i557, label %_ZNSt3__18functionIFvPmS1_jEED2Ev.exit563, label %if.end8.sink.split.i.i562

if.end8.sink.split.i.i562:                        ; preds = %if.else.i.i558, %invoke.cont91
  %.sink.i.i559 = phi i64 [ 4, %invoke.cont91 ], [ 5, %if.else.i.i558 ]
  %vtable6.i.i560 = load ptr, ptr %33, align 8, !tbaa !15
  %vfn7.i.i561 = getelementptr inbounds ptr, ptr %vtable6.i.i560, i64 %.sink.i.i559
  %34 = load ptr, ptr %vfn7.i.i561, align 8
  call void %34(ptr noundef nonnull align 8 dereferenceable(8) %33) #24
  br label %_ZNSt3__18functionIFvPmS1_jEED2Ev.exit563

_ZNSt3__18functionIFvPmS1_jEED2Ev.exit563:        ; preds = %if.else.i.i558, %if.end8.sink.split.i.i562
  %35 = load ptr, ptr %__f_.i.i.i553, align 16, !tbaa !23
  %cmp.i.i565 = icmp eq ptr %35, %agg.tmp84
  br i1 %cmp.i.i565, label %if.end8.sink.split.i.i571, label %if.else.i.i567

if.else.i.i567:                                   ; preds = %_ZNSt3__18functionIFvPmS1_jEED2Ev.exit563
  %tobool.not.i.i566 = icmp eq ptr %35, null
  br i1 %tobool.not.i.i566, label %invoke.cont103, label %if.end8.sink.split.i.i571

if.end8.sink.split.i.i571:                        ; preds = %if.else.i.i567, %_ZNSt3__18functionIFvPmS1_jEED2Ev.exit563
  %.sink.i.i568 = phi i64 [ 4, %_ZNSt3__18functionIFvPmS1_jEED2Ev.exit563 ], [ 5, %if.else.i.i567 ]
  %vtable6.i.i569 = load ptr, ptr %35, align 8, !tbaa !15
  %vfn7.i.i570 = getelementptr inbounds ptr, ptr %vtable6.i.i569, i64 %.sink.i.i568
  %36 = load ptr, ptr %vfn7.i.i570, align 8
  call void %36(ptr noundef nonnull align 8 dereferenceable(8) %35) #24
  br label %invoke.cont103

invoke.cont103:                                   ; preds = %if.end8.sink.split.i.i571, %if.else.i.i567
  %__f_.i.i.i573 = getelementptr inbounds %"class.std::__1::__function::__value_func", ptr %agg.tmp98, i64 0, i32 1
  store ptr getelementptr inbounds ({ [11 x ptr] }, ptr @"_ZTVNSt3__110__function6__funcIZ4mainE3$_6NS_9allocatorIS2_EEFvPhS5_jEEE", i64 0, inrange i32 0, i64 2), ptr %agg.tmp98, align 16, !tbaa !15
  store ptr %agg.tmp98, ptr %__f_.i.i.i573, align 16, !tbaa !17
  %__f_.i.i.i574 = getelementptr inbounds %"class.std::__1::__function::__value_func", ptr %agg.tmp100, i64 0, i32 1
  store ptr getelementptr inbounds ({ [11 x ptr] }, ptr @"_ZTVNSt3__110__function6__funcIZ4mainE3$_7NS_9allocatorIS2_EEFvPhS5_jEEE", i64 0, inrange i32 0, i64 2), ptr %agg.tmp100, align 16, !tbaa !15
  store ptr %agg.tmp100, ptr %__f_.i.i.i574, align 16, !tbaa !17
  invoke fastcc void @_ZL37checkOverlappingMemoryOneRuntimeCheckIhEvNSt3__18functionIFvPT_S3_jEEES5_PKc(ptr noundef nonnull %agg.tmp98, ptr noundef nonnull %agg.tmp100, ptr noundef nonnull @.str.9)
          to label %invoke.cont105 unwind label %lpad104

invoke.cont105:                                   ; preds = %invoke.cont103
  %37 = load ptr, ptr %__f_.i.i.i574, align 16, !tbaa !17
  %cmp.i.i576 = icmp eq ptr %37, %agg.tmp100
  br i1 %cmp.i.i576, label %if.end8.sink.split.i.i582, label %if.else.i.i578

if.else.i.i578:                                   ; preds = %invoke.cont105
  %tobool.not.i.i577 = icmp eq ptr %37, null
  br i1 %tobool.not.i.i577, label %_ZNSt3__18functionIFvPhS1_jEED2Ev.exit583, label %if.end8.sink.split.i.i582

if.end8.sink.split.i.i582:                        ; preds = %if.else.i.i578, %invoke.cont105
  %.sink.i.i579 = phi i64 [ 4, %invoke.cont105 ], [ 5, %if.else.i.i578 ]
  %vtable6.i.i580 = load ptr, ptr %37, align 8, !tbaa !15
  %vfn7.i.i581 = getelementptr inbounds ptr, ptr %vtable6.i.i580, i64 %.sink.i.i579
  %38 = load ptr, ptr %vfn7.i.i581, align 8
  call void %38(ptr noundef nonnull align 8 dereferenceable(8) %37) #24
  br label %_ZNSt3__18functionIFvPhS1_jEED2Ev.exit583

_ZNSt3__18functionIFvPhS1_jEED2Ev.exit583:        ; preds = %if.else.i.i578, %if.end8.sink.split.i.i582
  %39 = load ptr, ptr %__f_.i.i.i573, align 16, !tbaa !17
  %cmp.i.i585 = icmp eq ptr %39, %agg.tmp98
  br i1 %cmp.i.i585, label %if.end8.sink.split.i.i591, label %if.else.i.i587

if.else.i.i587:                                   ; preds = %_ZNSt3__18functionIFvPhS1_jEED2Ev.exit583
  %tobool.not.i.i586 = icmp eq ptr %39, null
  br i1 %tobool.not.i.i586, label %invoke.cont113, label %if.end8.sink.split.i.i591

if.end8.sink.split.i.i591:                        ; preds = %if.else.i.i587, %_ZNSt3__18functionIFvPhS1_jEED2Ev.exit583
  %.sink.i.i588 = phi i64 [ 4, %_ZNSt3__18functionIFvPhS1_jEED2Ev.exit583 ], [ 5, %if.else.i.i587 ]
  %vtable6.i.i589 = load ptr, ptr %39, align 8, !tbaa !15
  %vfn7.i.i590 = getelementptr inbounds ptr, ptr %vtable6.i.i589, i64 %.sink.i.i588
  %40 = load ptr, ptr %vfn7.i.i590, align 8
  call void %40(ptr noundef nonnull align 8 dereferenceable(8) %39) #24
  br label %invoke.cont113

invoke.cont113:                                   ; preds = %if.end8.sink.split.i.i591, %if.else.i.i587
  %__f_.i.i.i593 = getelementptr inbounds %"class.std::__1::__function::__value_func.5", ptr %agg.tmp108, i64 0, i32 1
  store ptr getelementptr inbounds ({ [11 x ptr] }, ptr @"_ZTVNSt3__110__function6__funcIZ4mainE3$_6NS_9allocatorIS2_EEFvPjS5_jEEE", i64 0, inrange i32 0, i64 2), ptr %agg.tmp108, align 16, !tbaa !15
  store ptr %agg.tmp108, ptr %__f_.i.i.i593, align 16, !tbaa !21
  %__f_.i.i.i594 = getelementptr inbounds %"class.std::__1::__function::__value_func.5", ptr %agg.tmp110, i64 0, i32 1
  store ptr getelementptr inbounds ({ [11 x ptr] }, ptr @"_ZTVNSt3__110__function6__funcIZ4mainE3$_7NS_9allocatorIS2_EEFvPjS5_jEEE", i64 0, inrange i32 0, i64 2), ptr %agg.tmp110, align 16, !tbaa !15
  store ptr %agg.tmp110, ptr %__f_.i.i.i594, align 16, !tbaa !21
  invoke fastcc void @_ZL37checkOverlappingMemoryOneRuntimeCheckIjEvNSt3__18functionIFvPT_S3_jEEES5_PKc(ptr noundef nonnull %agg.tmp108, ptr noundef nonnull %agg.tmp110, ptr noundef nonnull @.str.10)
          to label %invoke.cont115 unwind label %lpad114

invoke.cont115:                                   ; preds = %invoke.cont113
  %41 = load ptr, ptr %__f_.i.i.i594, align 16, !tbaa !21
  %cmp.i.i596 = icmp eq ptr %41, %agg.tmp110
  br i1 %cmp.i.i596, label %if.end8.sink.split.i.i602, label %if.else.i.i598

if.else.i.i598:                                   ; preds = %invoke.cont115
  %tobool.not.i.i597 = icmp eq ptr %41, null
  br i1 %tobool.not.i.i597, label %_ZNSt3__18functionIFvPjS1_jEED2Ev.exit603, label %if.end8.sink.split.i.i602

if.end8.sink.split.i.i602:                        ; preds = %if.else.i.i598, %invoke.cont115
  %.sink.i.i599 = phi i64 [ 4, %invoke.cont115 ], [ 5, %if.else.i.i598 ]
  %vtable6.i.i600 = load ptr, ptr %41, align 8, !tbaa !15
  %vfn7.i.i601 = getelementptr inbounds ptr, ptr %vtable6.i.i600, i64 %.sink.i.i599
  %42 = load ptr, ptr %vfn7.i.i601, align 8
  call void %42(ptr noundef nonnull align 8 dereferenceable(8) %41) #24
  br label %_ZNSt3__18functionIFvPjS1_jEED2Ev.exit603

_ZNSt3__18functionIFvPjS1_jEED2Ev.exit603:        ; preds = %if.else.i.i598, %if.end8.sink.split.i.i602
  %43 = load ptr, ptr %__f_.i.i.i593, align 16, !tbaa !21
  %cmp.i.i605 = icmp eq ptr %43, %agg.tmp108
  br i1 %cmp.i.i605, label %if.end8.sink.split.i.i611, label %if.else.i.i607

if.else.i.i607:                                   ; preds = %_ZNSt3__18functionIFvPjS1_jEED2Ev.exit603
  %tobool.not.i.i606 = icmp eq ptr %43, null
  br i1 %tobool.not.i.i606, label %invoke.cont123, label %if.end8.sink.split.i.i611

if.end8.sink.split.i.i611:                        ; preds = %if.else.i.i607, %_ZNSt3__18functionIFvPjS1_jEED2Ev.exit603
  %.sink.i.i608 = phi i64 [ 4, %_ZNSt3__18functionIFvPjS1_jEED2Ev.exit603 ], [ 5, %if.else.i.i607 ]
  %vtable6.i.i609 = load ptr, ptr %43, align 8, !tbaa !15
  %vfn7.i.i610 = getelementptr inbounds ptr, ptr %vtable6.i.i609, i64 %.sink.i.i608
  %44 = load ptr, ptr %vfn7.i.i610, align 8
  call void %44(ptr noundef nonnull align 8 dereferenceable(8) %43) #24
  br label %invoke.cont123

invoke.cont123:                                   ; preds = %if.end8.sink.split.i.i611, %if.else.i.i607
  %__f_.i.i.i613 = getelementptr inbounds %"class.std::__1::__function::__value_func.11", ptr %agg.tmp118, i64 0, i32 1
  store ptr getelementptr inbounds ({ [11 x ptr] }, ptr @"_ZTVNSt3__110__function6__funcIZ4mainE3$_6NS_9allocatorIS2_EEFvPmS5_jEEE", i64 0, inrange i32 0, i64 2), ptr %agg.tmp118, align 16, !tbaa !15
  store ptr %agg.tmp118, ptr %__f_.i.i.i613, align 16, !tbaa !23
  %__f_.i.i.i614 = getelementptr inbounds %"class.std::__1::__function::__value_func.11", ptr %agg.tmp120, i64 0, i32 1
  store ptr getelementptr inbounds ({ [11 x ptr] }, ptr @"_ZTVNSt3__110__function6__funcIZ4mainE3$_7NS_9allocatorIS2_EEFvPmS5_jEEE", i64 0, inrange i32 0, i64 2), ptr %agg.tmp120, align 16, !tbaa !15
  store ptr %agg.tmp120, ptr %__f_.i.i.i614, align 16, !tbaa !23
  invoke fastcc void @_ZL37checkOverlappingMemoryOneRuntimeCheckImEvNSt3__18functionIFvPT_S3_jEEES5_PKc(ptr noundef nonnull %agg.tmp118, ptr noundef nonnull %agg.tmp120, ptr noundef nonnull @.str.11)
          to label %invoke.cont125 unwind label %lpad124

invoke.cont125:                                   ; preds = %invoke.cont123
  %45 = load ptr, ptr %__f_.i.i.i614, align 16, !tbaa !23
  %cmp.i.i616 = icmp eq ptr %45, %agg.tmp120
  br i1 %cmp.i.i616, label %if.end8.sink.split.i.i622, label %if.else.i.i618

if.else.i.i618:                                   ; preds = %invoke.cont125
  %tobool.not.i.i617 = icmp eq ptr %45, null
  br i1 %tobool.not.i.i617, label %_ZNSt3__18functionIFvPmS1_jEED2Ev.exit623, label %if.end8.sink.split.i.i622

if.end8.sink.split.i.i622:                        ; preds = %if.else.i.i618, %invoke.cont125
  %.sink.i.i619 = phi i64 [ 4, %invoke.cont125 ], [ 5, %if.else.i.i618 ]
  %vtable6.i.i620 = load ptr, ptr %45, align 8, !tbaa !15
  %vfn7.i.i621 = getelementptr inbounds ptr, ptr %vtable6.i.i620, i64 %.sink.i.i619
  %46 = load ptr, ptr %vfn7.i.i621, align 8
  call void %46(ptr noundef nonnull align 8 dereferenceable(8) %45) #24
  br label %_ZNSt3__18functionIFvPmS1_jEED2Ev.exit623

_ZNSt3__18functionIFvPmS1_jEED2Ev.exit623:        ; preds = %if.else.i.i618, %if.end8.sink.split.i.i622
  %47 = load ptr, ptr %__f_.i.i.i613, align 16, !tbaa !23
  %cmp.i.i625 = icmp eq ptr %47, %agg.tmp118
  br i1 %cmp.i.i625, label %if.end8.sink.split.i.i631, label %if.else.i.i627

if.else.i.i627:                                   ; preds = %_ZNSt3__18functionIFvPmS1_jEED2Ev.exit623
  %tobool.not.i.i626 = icmp eq ptr %47, null
  br i1 %tobool.not.i.i626, label %invoke.cont137, label %if.end8.sink.split.i.i631

if.end8.sink.split.i.i631:                        ; preds = %if.else.i.i627, %_ZNSt3__18functionIFvPmS1_jEED2Ev.exit623
  %.sink.i.i628 = phi i64 [ 4, %_ZNSt3__18functionIFvPmS1_jEED2Ev.exit623 ], [ 5, %if.else.i.i627 ]
  %vtable6.i.i629 = load ptr, ptr %47, align 8, !tbaa !15
  %vfn7.i.i630 = getelementptr inbounds ptr, ptr %vtable6.i.i629, i64 %.sink.i.i628
  %48 = load ptr, ptr %vfn7.i.i630, align 8
  call void %48(ptr noundef nonnull align 8 dereferenceable(8) %47) #24
  br label %invoke.cont137

invoke.cont137:                                   ; preds = %if.end8.sink.split.i.i631, %if.else.i.i627
  %__f_.i.i.i633 = getelementptr inbounds %"class.std::__1::__function::__value_func", ptr %agg.tmp132, i64 0, i32 1
  store ptr getelementptr inbounds ({ [11 x ptr] }, ptr @"_ZTVNSt3__110__function6__funcIZ4mainE3$_8NS_9allocatorIS2_EEFvPhS5_jEEE", i64 0, inrange i32 0, i64 2), ptr %agg.tmp132, align 16, !tbaa !15
  store ptr %agg.tmp132, ptr %__f_.i.i.i633, align 16, !tbaa !17
  %__f_.i.i.i634 = getelementptr inbounds %"class.std::__1::__function::__value_func", ptr %agg.tmp134, i64 0, i32 1
  store ptr getelementptr inbounds ({ [11 x ptr] }, ptr @"_ZTVNSt3__110__function6__funcIZ4mainE3$_9NS_9allocatorIS2_EEFvPhS5_jEEE", i64 0, inrange i32 0, i64 2), ptr %agg.tmp134, align 16, !tbaa !15
  store ptr %agg.tmp134, ptr %__f_.i.i.i634, align 16, !tbaa !17
  invoke fastcc void @_ZL37checkOverlappingMemoryOneRuntimeCheckIhEvNSt3__18functionIFvPT_S3_jEEES5_PKc(ptr noundef nonnull %agg.tmp132, ptr noundef nonnull %agg.tmp134, ptr noundef nonnull @.str.12)
          to label %invoke.cont139 unwind label %lpad138

invoke.cont139:                                   ; preds = %invoke.cont137
  %49 = load ptr, ptr %__f_.i.i.i634, align 16, !tbaa !17
  %cmp.i.i636 = icmp eq ptr %49, %agg.tmp134
  br i1 %cmp.i.i636, label %if.end8.sink.split.i.i642, label %if.else.i.i638

if.else.i.i638:                                   ; preds = %invoke.cont139
  %tobool.not.i.i637 = icmp eq ptr %49, null
  br i1 %tobool.not.i.i637, label %_ZNSt3__18functionIFvPhS1_jEED2Ev.exit643, label %if.end8.sink.split.i.i642

if.end8.sink.split.i.i642:                        ; preds = %if.else.i.i638, %invoke.cont139
  %.sink.i.i639 = phi i64 [ 4, %invoke.cont139 ], [ 5, %if.else.i.i638 ]
  %vtable6.i.i640 = load ptr, ptr %49, align 8, !tbaa !15
  %vfn7.i.i641 = getelementptr inbounds ptr, ptr %vtable6.i.i640, i64 %.sink.i.i639
  %50 = load ptr, ptr %vfn7.i.i641, align 8
  call void %50(ptr noundef nonnull align 8 dereferenceable(8) %49) #24
  br label %_ZNSt3__18functionIFvPhS1_jEED2Ev.exit643

_ZNSt3__18functionIFvPhS1_jEED2Ev.exit643:        ; preds = %if.else.i.i638, %if.end8.sink.split.i.i642
  %51 = load ptr, ptr %__f_.i.i.i633, align 16, !tbaa !17
  %cmp.i.i645 = icmp eq ptr %51, %agg.tmp132
  br i1 %cmp.i.i645, label %if.end8.sink.split.i.i651, label %if.else.i.i647

if.else.i.i647:                                   ; preds = %_ZNSt3__18functionIFvPhS1_jEED2Ev.exit643
  %tobool.not.i.i646 = icmp eq ptr %51, null
  br i1 %tobool.not.i.i646, label %invoke.cont147, label %if.end8.sink.split.i.i651

if.end8.sink.split.i.i651:                        ; preds = %if.else.i.i647, %_ZNSt3__18functionIFvPhS1_jEED2Ev.exit643
  %.sink.i.i648 = phi i64 [ 4, %_ZNSt3__18functionIFvPhS1_jEED2Ev.exit643 ], [ 5, %if.else.i.i647 ]
  %vtable6.i.i649 = load ptr, ptr %51, align 8, !tbaa !15
  %vfn7.i.i650 = getelementptr inbounds ptr, ptr %vtable6.i.i649, i64 %.sink.i.i648
  %52 = load ptr, ptr %vfn7.i.i650, align 8
  call void %52(ptr noundef nonnull align 8 dereferenceable(8) %51) #24
  br label %invoke.cont147

invoke.cont147:                                   ; preds = %if.end8.sink.split.i.i651, %if.else.i.i647
  %__f_.i.i.i653 = getelementptr inbounds %"class.std::__1::__function::__value_func.5", ptr %agg.tmp142, i64 0, i32 1
  store ptr getelementptr inbounds ({ [11 x ptr] }, ptr @"_ZTVNSt3__110__function6__funcIZ4mainE3$_8NS_9allocatorIS2_EEFvPjS5_jEEE", i64 0, inrange i32 0, i64 2), ptr %agg.tmp142, align 16, !tbaa !15
  store ptr %agg.tmp142, ptr %__f_.i.i.i653, align 16, !tbaa !21
  %__f_.i.i.i654 = getelementptr inbounds %"class.std::__1::__function::__value_func.5", ptr %agg.tmp144, i64 0, i32 1
  store ptr getelementptr inbounds ({ [11 x ptr] }, ptr @"_ZTVNSt3__110__function6__funcIZ4mainE3$_9NS_9allocatorIS2_EEFvPjS5_jEEE", i64 0, inrange i32 0, i64 2), ptr %agg.tmp144, align 16, !tbaa !15
  store ptr %agg.tmp144, ptr %__f_.i.i.i654, align 16, !tbaa !21
  invoke fastcc void @_ZL37checkOverlappingMemoryOneRuntimeCheckIjEvNSt3__18functionIFvPT_S3_jEEES5_PKc(ptr noundef nonnull %agg.tmp142, ptr noundef nonnull %agg.tmp144, ptr noundef nonnull @.str.13)
          to label %invoke.cont149 unwind label %lpad148

invoke.cont149:                                   ; preds = %invoke.cont147
  %53 = load ptr, ptr %__f_.i.i.i654, align 16, !tbaa !21
  %cmp.i.i656 = icmp eq ptr %53, %agg.tmp144
  br i1 %cmp.i.i656, label %if.end8.sink.split.i.i662, label %if.else.i.i658

if.else.i.i658:                                   ; preds = %invoke.cont149
  %tobool.not.i.i657 = icmp eq ptr %53, null
  br i1 %tobool.not.i.i657, label %_ZNSt3__18functionIFvPjS1_jEED2Ev.exit663, label %if.end8.sink.split.i.i662

if.end8.sink.split.i.i662:                        ; preds = %if.else.i.i658, %invoke.cont149
  %.sink.i.i659 = phi i64 [ 4, %invoke.cont149 ], [ 5, %if.else.i.i658 ]
  %vtable6.i.i660 = load ptr, ptr %53, align 8, !tbaa !15
  %vfn7.i.i661 = getelementptr inbounds ptr, ptr %vtable6.i.i660, i64 %.sink.i.i659
  %54 = load ptr, ptr %vfn7.i.i661, align 8
  call void %54(ptr noundef nonnull align 8 dereferenceable(8) %53) #24
  br label %_ZNSt3__18functionIFvPjS1_jEED2Ev.exit663

_ZNSt3__18functionIFvPjS1_jEED2Ev.exit663:        ; preds = %if.else.i.i658, %if.end8.sink.split.i.i662
  %55 = load ptr, ptr %__f_.i.i.i653, align 16, !tbaa !21
  %cmp.i.i665 = icmp eq ptr %55, %agg.tmp142
  br i1 %cmp.i.i665, label %if.end8.sink.split.i.i671, label %if.else.i.i667

if.else.i.i667:                                   ; preds = %_ZNSt3__18functionIFvPjS1_jEED2Ev.exit663
  %tobool.not.i.i666 = icmp eq ptr %55, null
  br i1 %tobool.not.i.i666, label %invoke.cont157, label %if.end8.sink.split.i.i671

if.end8.sink.split.i.i671:                        ; preds = %if.else.i.i667, %_ZNSt3__18functionIFvPjS1_jEED2Ev.exit663
  %.sink.i.i668 = phi i64 [ 4, %_ZNSt3__18functionIFvPjS1_jEED2Ev.exit663 ], [ 5, %if.else.i.i667 ]
  %vtable6.i.i669 = load ptr, ptr %55, align 8, !tbaa !15
  %vfn7.i.i670 = getelementptr inbounds ptr, ptr %vtable6.i.i669, i64 %.sink.i.i668
  %56 = load ptr, ptr %vfn7.i.i670, align 8
  call void %56(ptr noundef nonnull align 8 dereferenceable(8) %55) #24
  br label %invoke.cont157

invoke.cont157:                                   ; preds = %if.end8.sink.split.i.i671, %if.else.i.i667
  %__f_.i.i.i673 = getelementptr inbounds %"class.std::__1::__function::__value_func.11", ptr %agg.tmp152, i64 0, i32 1
  store ptr getelementptr inbounds ({ [11 x ptr] }, ptr @"_ZTVNSt3__110__function6__funcIZ4mainE3$_8NS_9allocatorIS2_EEFvPmS5_jEEE", i64 0, inrange i32 0, i64 2), ptr %agg.tmp152, align 16, !tbaa !15
  store ptr %agg.tmp152, ptr %__f_.i.i.i673, align 16, !tbaa !23
  %__f_.i.i.i674 = getelementptr inbounds %"class.std::__1::__function::__value_func.11", ptr %agg.tmp154, i64 0, i32 1
  store ptr getelementptr inbounds ({ [11 x ptr] }, ptr @"_ZTVNSt3__110__function6__funcIZ4mainE3$_9NS_9allocatorIS2_EEFvPmS5_jEEE", i64 0, inrange i32 0, i64 2), ptr %agg.tmp154, align 16, !tbaa !15
  store ptr %agg.tmp154, ptr %__f_.i.i.i674, align 16, !tbaa !23
  invoke fastcc void @_ZL37checkOverlappingMemoryOneRuntimeCheckImEvNSt3__18functionIFvPT_S3_jEEES5_PKc(ptr noundef nonnull %agg.tmp152, ptr noundef nonnull %agg.tmp154, ptr noundef nonnull @.str.14)
          to label %invoke.cont159 unwind label %lpad158

invoke.cont159:                                   ; preds = %invoke.cont157
  %57 = load ptr, ptr %__f_.i.i.i674, align 16, !tbaa !23
  %cmp.i.i676 = icmp eq ptr %57, %agg.tmp154
  br i1 %cmp.i.i676, label %if.end8.sink.split.i.i682, label %if.else.i.i678

if.else.i.i678:                                   ; preds = %invoke.cont159
  %tobool.not.i.i677 = icmp eq ptr %57, null
  br i1 %tobool.not.i.i677, label %_ZNSt3__18functionIFvPmS1_jEED2Ev.exit683, label %if.end8.sink.split.i.i682

if.end8.sink.split.i.i682:                        ; preds = %if.else.i.i678, %invoke.cont159
  %.sink.i.i679 = phi i64 [ 4, %invoke.cont159 ], [ 5, %if.else.i.i678 ]
  %vtable6.i.i680 = load ptr, ptr %57, align 8, !tbaa !15
  %vfn7.i.i681 = getelementptr inbounds ptr, ptr %vtable6.i.i680, i64 %.sink.i.i679
  %58 = load ptr, ptr %vfn7.i.i681, align 8
  call void %58(ptr noundef nonnull align 8 dereferenceable(8) %57) #24
  br label %_ZNSt3__18functionIFvPmS1_jEED2Ev.exit683

_ZNSt3__18functionIFvPmS1_jEED2Ev.exit683:        ; preds = %if.else.i.i678, %if.end8.sink.split.i.i682
  %59 = load ptr, ptr %__f_.i.i.i673, align 16, !tbaa !23
  %cmp.i.i685 = icmp eq ptr %59, %agg.tmp152
  br i1 %cmp.i.i685, label %if.end8.sink.split.i.i691, label %if.else.i.i687

if.else.i.i687:                                   ; preds = %_ZNSt3__18functionIFvPmS1_jEED2Ev.exit683
  %tobool.not.i.i686 = icmp eq ptr %59, null
  br i1 %tobool.not.i.i686, label %invoke.cont171, label %if.end8.sink.split.i.i691

if.end8.sink.split.i.i691:                        ; preds = %if.else.i.i687, %_ZNSt3__18functionIFvPmS1_jEED2Ev.exit683
  %.sink.i.i688 = phi i64 [ 4, %_ZNSt3__18functionIFvPmS1_jEED2Ev.exit683 ], [ 5, %if.else.i.i687 ]
  %vtable6.i.i689 = load ptr, ptr %59, align 8, !tbaa !15
  %vfn7.i.i690 = getelementptr inbounds ptr, ptr %vtable6.i.i689, i64 %.sink.i.i688
  %60 = load ptr, ptr %vfn7.i.i690, align 8
  call void %60(ptr noundef nonnull align 8 dereferenceable(8) %59) #24
  br label %invoke.cont171

invoke.cont171:                                   ; preds = %if.end8.sink.split.i.i691, %if.else.i.i687
  %__f_.i.i.i693 = getelementptr inbounds %"class.std::__1::__function::__value_func", ptr %agg.tmp166, i64 0, i32 1
  store ptr getelementptr inbounds ({ [11 x ptr] }, ptr @"_ZTVNSt3__110__function6__funcIZ4mainE4$_10NS_9allocatorIS2_EEFvPhS5_jEEE", i64 0, inrange i32 0, i64 2), ptr %agg.tmp166, align 16, !tbaa !15
  store ptr %agg.tmp166, ptr %__f_.i.i.i693, align 16, !tbaa !17
  %__f_.i.i.i694 = getelementptr inbounds %"class.std::__1::__function::__value_func", ptr %agg.tmp168, i64 0, i32 1
  store ptr getelementptr inbounds ({ [11 x ptr] }, ptr @"_ZTVNSt3__110__function6__funcIZ4mainE4$_11NS_9allocatorIS2_EEFvPhS5_jEEE", i64 0, inrange i32 0, i64 2), ptr %agg.tmp168, align 16, !tbaa !15
  store ptr %agg.tmp168, ptr %__f_.i.i.i694, align 16, !tbaa !17
  invoke fastcc void @_ZL37checkOverlappingMemoryOneRuntimeCheckIhEvNSt3__18functionIFvPT_S3_jEEES5_PKc(ptr noundef nonnull %agg.tmp166, ptr noundef nonnull %agg.tmp168, ptr noundef nonnull @.str.15)
          to label %invoke.cont173 unwind label %lpad172

invoke.cont173:                                   ; preds = %invoke.cont171
  %61 = load ptr, ptr %__f_.i.i.i694, align 16, !tbaa !17
  %cmp.i.i696 = icmp eq ptr %61, %agg.tmp168
  br i1 %cmp.i.i696, label %if.end8.sink.split.i.i702, label %if.else.i.i698

if.else.i.i698:                                   ; preds = %invoke.cont173
  %tobool.not.i.i697 = icmp eq ptr %61, null
  br i1 %tobool.not.i.i697, label %_ZNSt3__18functionIFvPhS1_jEED2Ev.exit703, label %if.end8.sink.split.i.i702

if.end8.sink.split.i.i702:                        ; preds = %if.else.i.i698, %invoke.cont173
  %.sink.i.i699 = phi i64 [ 4, %invoke.cont173 ], [ 5, %if.else.i.i698 ]
  %vtable6.i.i700 = load ptr, ptr %61, align 8, !tbaa !15
  %vfn7.i.i701 = getelementptr inbounds ptr, ptr %vtable6.i.i700, i64 %.sink.i.i699
  %62 = load ptr, ptr %vfn7.i.i701, align 8
  call void %62(ptr noundef nonnull align 8 dereferenceable(8) %61) #24
  br label %_ZNSt3__18functionIFvPhS1_jEED2Ev.exit703

_ZNSt3__18functionIFvPhS1_jEED2Ev.exit703:        ; preds = %if.else.i.i698, %if.end8.sink.split.i.i702
  %63 = load ptr, ptr %__f_.i.i.i693, align 16, !tbaa !17
  %cmp.i.i705 = icmp eq ptr %63, %agg.tmp166
  br i1 %cmp.i.i705, label %if.end8.sink.split.i.i711, label %if.else.i.i707

if.else.i.i707:                                   ; preds = %_ZNSt3__18functionIFvPhS1_jEED2Ev.exit703
  %tobool.not.i.i706 = icmp eq ptr %63, null
  br i1 %tobool.not.i.i706, label %invoke.cont181, label %if.end8.sink.split.i.i711

if.end8.sink.split.i.i711:                        ; preds = %if.else.i.i707, %_ZNSt3__18functionIFvPhS1_jEED2Ev.exit703
  %.sink.i.i708 = phi i64 [ 4, %_ZNSt3__18functionIFvPhS1_jEED2Ev.exit703 ], [ 5, %if.else.i.i707 ]
  %vtable6.i.i709 = load ptr, ptr %63, align 8, !tbaa !15
  %vfn7.i.i710 = getelementptr inbounds ptr, ptr %vtable6.i.i709, i64 %.sink.i.i708
  %64 = load ptr, ptr %vfn7.i.i710, align 8
  call void %64(ptr noundef nonnull align 8 dereferenceable(8) %63) #24
  br label %invoke.cont181

invoke.cont181:                                   ; preds = %if.end8.sink.split.i.i711, %if.else.i.i707
  %__f_.i.i.i713 = getelementptr inbounds %"class.std::__1::__function::__value_func.5", ptr %agg.tmp176, i64 0, i32 1
  store ptr getelementptr inbounds ({ [11 x ptr] }, ptr @"_ZTVNSt3__110__function6__funcIZ4mainE4$_10NS_9allocatorIS2_EEFvPjS5_jEEE", i64 0, inrange i32 0, i64 2), ptr %agg.tmp176, align 16, !tbaa !15
  store ptr %agg.tmp176, ptr %__f_.i.i.i713, align 16, !tbaa !21
  %__f_.i.i.i714 = getelementptr inbounds %"class.std::__1::__function::__value_func.5", ptr %agg.tmp178, i64 0, i32 1
  store ptr getelementptr inbounds ({ [11 x ptr] }, ptr @"_ZTVNSt3__110__function6__funcIZ4mainE4$_11NS_9allocatorIS2_EEFvPjS5_jEEE", i64 0, inrange i32 0, i64 2), ptr %agg.tmp178, align 16, !tbaa !15
  store ptr %agg.tmp178, ptr %__f_.i.i.i714, align 16, !tbaa !21
  invoke fastcc void @_ZL37checkOverlappingMemoryOneRuntimeCheckIjEvNSt3__18functionIFvPT_S3_jEEES5_PKc(ptr noundef nonnull %agg.tmp176, ptr noundef nonnull %agg.tmp178, ptr noundef nonnull @.str.16)
          to label %invoke.cont183 unwind label %lpad182

invoke.cont183:                                   ; preds = %invoke.cont181
  %65 = load ptr, ptr %__f_.i.i.i714, align 16, !tbaa !21
  %cmp.i.i716 = icmp eq ptr %65, %agg.tmp178
  br i1 %cmp.i.i716, label %if.end8.sink.split.i.i722, label %if.else.i.i718

if.else.i.i718:                                   ; preds = %invoke.cont183
  %tobool.not.i.i717 = icmp eq ptr %65, null
  br i1 %tobool.not.i.i717, label %_ZNSt3__18functionIFvPjS1_jEED2Ev.exit723, label %if.end8.sink.split.i.i722

if.end8.sink.split.i.i722:                        ; preds = %if.else.i.i718, %invoke.cont183
  %.sink.i.i719 = phi i64 [ 4, %invoke.cont183 ], [ 5, %if.else.i.i718 ]
  %vtable6.i.i720 = load ptr, ptr %65, align 8, !tbaa !15
  %vfn7.i.i721 = getelementptr inbounds ptr, ptr %vtable6.i.i720, i64 %.sink.i.i719
  %66 = load ptr, ptr %vfn7.i.i721, align 8
  call void %66(ptr noundef nonnull align 8 dereferenceable(8) %65) #24
  br label %_ZNSt3__18functionIFvPjS1_jEED2Ev.exit723

_ZNSt3__18functionIFvPjS1_jEED2Ev.exit723:        ; preds = %if.else.i.i718, %if.end8.sink.split.i.i722
  %67 = load ptr, ptr %__f_.i.i.i713, align 16, !tbaa !21
  %cmp.i.i725 = icmp eq ptr %67, %agg.tmp176
  br i1 %cmp.i.i725, label %if.end8.sink.split.i.i731, label %if.else.i.i727

if.else.i.i727:                                   ; preds = %_ZNSt3__18functionIFvPjS1_jEED2Ev.exit723
  %tobool.not.i.i726 = icmp eq ptr %67, null
  br i1 %tobool.not.i.i726, label %invoke.cont191, label %if.end8.sink.split.i.i731

if.end8.sink.split.i.i731:                        ; preds = %if.else.i.i727, %_ZNSt3__18functionIFvPjS1_jEED2Ev.exit723
  %.sink.i.i728 = phi i64 [ 4, %_ZNSt3__18functionIFvPjS1_jEED2Ev.exit723 ], [ 5, %if.else.i.i727 ]
  %vtable6.i.i729 = load ptr, ptr %67, align 8, !tbaa !15
  %vfn7.i.i730 = getelementptr inbounds ptr, ptr %vtable6.i.i729, i64 %.sink.i.i728
  %68 = load ptr, ptr %vfn7.i.i730, align 8
  call void %68(ptr noundef nonnull align 8 dereferenceable(8) %67) #24
  br label %invoke.cont191

invoke.cont191:                                   ; preds = %if.end8.sink.split.i.i731, %if.else.i.i727
  %__f_.i.i.i733 = getelementptr inbounds %"class.std::__1::__function::__value_func.11", ptr %agg.tmp186, i64 0, i32 1
  store ptr getelementptr inbounds ({ [11 x ptr] }, ptr @"_ZTVNSt3__110__function6__funcIZ4mainE4$_10NS_9allocatorIS2_EEFvPmS5_jEEE", i64 0, inrange i32 0, i64 2), ptr %agg.tmp186, align 16, !tbaa !15
  store ptr %agg.tmp186, ptr %__f_.i.i.i733, align 16, !tbaa !23
  %__f_.i.i.i734 = getelementptr inbounds %"class.std::__1::__function::__value_func.11", ptr %agg.tmp188, i64 0, i32 1
  store ptr getelementptr inbounds ({ [11 x ptr] }, ptr @"_ZTVNSt3__110__function6__funcIZ4mainE4$_11NS_9allocatorIS2_EEFvPmS5_jEEE", i64 0, inrange i32 0, i64 2), ptr %agg.tmp188, align 16, !tbaa !15
  store ptr %agg.tmp188, ptr %__f_.i.i.i734, align 16, !tbaa !23
  invoke fastcc void @_ZL37checkOverlappingMemoryOneRuntimeCheckImEvNSt3__18functionIFvPT_S3_jEEES5_PKc(ptr noundef nonnull %agg.tmp186, ptr noundef nonnull %agg.tmp188, ptr noundef nonnull @.str.17)
          to label %invoke.cont193 unwind label %lpad192

invoke.cont193:                                   ; preds = %invoke.cont191
  %69 = load ptr, ptr %__f_.i.i.i734, align 16, !tbaa !23
  %cmp.i.i736 = icmp eq ptr %69, %agg.tmp188
  br i1 %cmp.i.i736, label %if.end8.sink.split.i.i742, label %if.else.i.i738

if.else.i.i738:                                   ; preds = %invoke.cont193
  %tobool.not.i.i737 = icmp eq ptr %69, null
  br i1 %tobool.not.i.i737, label %_ZNSt3__18functionIFvPmS1_jEED2Ev.exit743, label %if.end8.sink.split.i.i742

if.end8.sink.split.i.i742:                        ; preds = %if.else.i.i738, %invoke.cont193
  %.sink.i.i739 = phi i64 [ 4, %invoke.cont193 ], [ 5, %if.else.i.i738 ]
  %vtable6.i.i740 = load ptr, ptr %69, align 8, !tbaa !15
  %vfn7.i.i741 = getelementptr inbounds ptr, ptr %vtable6.i.i740, i64 %.sink.i.i739
  %70 = load ptr, ptr %vfn7.i.i741, align 8
  call void %70(ptr noundef nonnull align 8 dereferenceable(8) %69) #24
  br label %_ZNSt3__18functionIFvPmS1_jEED2Ev.exit743

_ZNSt3__18functionIFvPmS1_jEED2Ev.exit743:        ; preds = %if.else.i.i738, %if.end8.sink.split.i.i742
  %71 = load ptr, ptr %__f_.i.i.i733, align 16, !tbaa !23
  %cmp.i.i745 = icmp eq ptr %71, %agg.tmp186
  br i1 %cmp.i.i745, label %if.end8.sink.split.i.i751, label %if.else.i.i747

if.else.i.i747:                                   ; preds = %_ZNSt3__18functionIFvPmS1_jEED2Ev.exit743
  %tobool.not.i.i746 = icmp eq ptr %71, null
  br i1 %tobool.not.i.i746, label %invoke.cont205, label %if.end8.sink.split.i.i751

if.end8.sink.split.i.i751:                        ; preds = %if.else.i.i747, %_ZNSt3__18functionIFvPmS1_jEED2Ev.exit743
  %.sink.i.i748 = phi i64 [ 4, %_ZNSt3__18functionIFvPmS1_jEED2Ev.exit743 ], [ 5, %if.else.i.i747 ]
  %vtable6.i.i749 = load ptr, ptr %71, align 8, !tbaa !15
  %vfn7.i.i750 = getelementptr inbounds ptr, ptr %vtable6.i.i749, i64 %.sink.i.i748
  %72 = load ptr, ptr %vfn7.i.i750, align 8
  call void %72(ptr noundef nonnull align 8 dereferenceable(8) %71) #24
  br label %invoke.cont205

invoke.cont205:                                   ; preds = %if.end8.sink.split.i.i751, %if.else.i.i747
  %__f_.i.i.i753 = getelementptr inbounds %"class.std::__1::__function::__value_func", ptr %agg.tmp200, i64 0, i32 1
  store ptr getelementptr inbounds ({ [11 x ptr] }, ptr @"_ZTVNSt3__110__function6__funcIZ4mainE4$_12NS_9allocatorIS2_EEFvPhS5_jEEE", i64 0, inrange i32 0, i64 2), ptr %agg.tmp200, align 16, !tbaa !15
  store ptr %agg.tmp200, ptr %__f_.i.i.i753, align 16, !tbaa !17
  %__f_.i.i.i754 = getelementptr inbounds %"class.std::__1::__function::__value_func", ptr %agg.tmp202, i64 0, i32 1
  store ptr getelementptr inbounds ({ [11 x ptr] }, ptr @"_ZTVNSt3__110__function6__funcIZ4mainE4$_13NS_9allocatorIS2_EEFvPhS5_jEEE", i64 0, inrange i32 0, i64 2), ptr %agg.tmp202, align 16, !tbaa !15
  store ptr %agg.tmp202, ptr %__f_.i.i.i754, align 16, !tbaa !17
  invoke fastcc void @_ZL37checkOverlappingMemoryOneRuntimeCheckIhEvNSt3__18functionIFvPT_S3_jEEES5_PKc(ptr noundef nonnull %agg.tmp200, ptr noundef nonnull %agg.tmp202, ptr noundef nonnull @.str.18)
          to label %invoke.cont207 unwind label %lpad206

invoke.cont207:                                   ; preds = %invoke.cont205
  %73 = load ptr, ptr %__f_.i.i.i754, align 16, !tbaa !17
  %cmp.i.i756 = icmp eq ptr %73, %agg.tmp202
  br i1 %cmp.i.i756, label %if.end8.sink.split.i.i762, label %if.else.i.i758

if.else.i.i758:                                   ; preds = %invoke.cont207
  %tobool.not.i.i757 = icmp eq ptr %73, null
  br i1 %tobool.not.i.i757, label %_ZNSt3__18functionIFvPhS1_jEED2Ev.exit763, label %if.end8.sink.split.i.i762

if.end8.sink.split.i.i762:                        ; preds = %if.else.i.i758, %invoke.cont207
  %.sink.i.i759 = phi i64 [ 4, %invoke.cont207 ], [ 5, %if.else.i.i758 ]
  %vtable6.i.i760 = load ptr, ptr %73, align 8, !tbaa !15
  %vfn7.i.i761 = getelementptr inbounds ptr, ptr %vtable6.i.i760, i64 %.sink.i.i759
  %74 = load ptr, ptr %vfn7.i.i761, align 8
  call void %74(ptr noundef nonnull align 8 dereferenceable(8) %73) #24
  br label %_ZNSt3__18functionIFvPhS1_jEED2Ev.exit763

_ZNSt3__18functionIFvPhS1_jEED2Ev.exit763:        ; preds = %if.else.i.i758, %if.end8.sink.split.i.i762
  %75 = load ptr, ptr %__f_.i.i.i753, align 16, !tbaa !17
  %cmp.i.i765 = icmp eq ptr %75, %agg.tmp200
  br i1 %cmp.i.i765, label %if.end8.sink.split.i.i771, label %if.else.i.i767

if.else.i.i767:                                   ; preds = %_ZNSt3__18functionIFvPhS1_jEED2Ev.exit763
  %tobool.not.i.i766 = icmp eq ptr %75, null
  br i1 %tobool.not.i.i766, label %invoke.cont215, label %if.end8.sink.split.i.i771

if.end8.sink.split.i.i771:                        ; preds = %if.else.i.i767, %_ZNSt3__18functionIFvPhS1_jEED2Ev.exit763
  %.sink.i.i768 = phi i64 [ 4, %_ZNSt3__18functionIFvPhS1_jEED2Ev.exit763 ], [ 5, %if.else.i.i767 ]
  %vtable6.i.i769 = load ptr, ptr %75, align 8, !tbaa !15
  %vfn7.i.i770 = getelementptr inbounds ptr, ptr %vtable6.i.i769, i64 %.sink.i.i768
  %76 = load ptr, ptr %vfn7.i.i770, align 8
  call void %76(ptr noundef nonnull align 8 dereferenceable(8) %75) #24
  br label %invoke.cont215

invoke.cont215:                                   ; preds = %if.end8.sink.split.i.i771, %if.else.i.i767
  %__f_.i.i.i773 = getelementptr inbounds %"class.std::__1::__function::__value_func.5", ptr %agg.tmp210, i64 0, i32 1
  store ptr getelementptr inbounds ({ [11 x ptr] }, ptr @"_ZTVNSt3__110__function6__funcIZ4mainE4$_12NS_9allocatorIS2_EEFvPjS5_jEEE", i64 0, inrange i32 0, i64 2), ptr %agg.tmp210, align 16, !tbaa !15
  store ptr %agg.tmp210, ptr %__f_.i.i.i773, align 16, !tbaa !21
  %__f_.i.i.i774 = getelementptr inbounds %"class.std::__1::__function::__value_func.5", ptr %agg.tmp212, i64 0, i32 1
  store ptr getelementptr inbounds ({ [11 x ptr] }, ptr @"_ZTVNSt3__110__function6__funcIZ4mainE4$_13NS_9allocatorIS2_EEFvPjS5_jEEE", i64 0, inrange i32 0, i64 2), ptr %agg.tmp212, align 16, !tbaa !15
  store ptr %agg.tmp212, ptr %__f_.i.i.i774, align 16, !tbaa !21
  invoke fastcc void @_ZL37checkOverlappingMemoryOneRuntimeCheckIjEvNSt3__18functionIFvPT_S3_jEEES5_PKc(ptr noundef nonnull %agg.tmp210, ptr noundef nonnull %agg.tmp212, ptr noundef nonnull @.str.19)
          to label %invoke.cont217 unwind label %lpad216

invoke.cont217:                                   ; preds = %invoke.cont215
  %77 = load ptr, ptr %__f_.i.i.i774, align 16, !tbaa !21
  %cmp.i.i776 = icmp eq ptr %77, %agg.tmp212
  br i1 %cmp.i.i776, label %if.end8.sink.split.i.i782, label %if.else.i.i778

if.else.i.i778:                                   ; preds = %invoke.cont217
  %tobool.not.i.i777 = icmp eq ptr %77, null
  br i1 %tobool.not.i.i777, label %_ZNSt3__18functionIFvPjS1_jEED2Ev.exit783, label %if.end8.sink.split.i.i782

if.end8.sink.split.i.i782:                        ; preds = %if.else.i.i778, %invoke.cont217
  %.sink.i.i779 = phi i64 [ 4, %invoke.cont217 ], [ 5, %if.else.i.i778 ]
  %vtable6.i.i780 = load ptr, ptr %77, align 8, !tbaa !15
  %vfn7.i.i781 = getelementptr inbounds ptr, ptr %vtable6.i.i780, i64 %.sink.i.i779
  %78 = load ptr, ptr %vfn7.i.i781, align 8
  call void %78(ptr noundef nonnull align 8 dereferenceable(8) %77) #24
  br label %_ZNSt3__18functionIFvPjS1_jEED2Ev.exit783

_ZNSt3__18functionIFvPjS1_jEED2Ev.exit783:        ; preds = %if.else.i.i778, %if.end8.sink.split.i.i782
  %79 = load ptr, ptr %__f_.i.i.i773, align 16, !tbaa !21
  %cmp.i.i785 = icmp eq ptr %79, %agg.tmp210
  br i1 %cmp.i.i785, label %if.end8.sink.split.i.i791, label %if.else.i.i787

if.else.i.i787:                                   ; preds = %_ZNSt3__18functionIFvPjS1_jEED2Ev.exit783
  %tobool.not.i.i786 = icmp eq ptr %79, null
  br i1 %tobool.not.i.i786, label %invoke.cont225, label %if.end8.sink.split.i.i791

if.end8.sink.split.i.i791:                        ; preds = %if.else.i.i787, %_ZNSt3__18functionIFvPjS1_jEED2Ev.exit783
  %.sink.i.i788 = phi i64 [ 4, %_ZNSt3__18functionIFvPjS1_jEED2Ev.exit783 ], [ 5, %if.else.i.i787 ]
  %vtable6.i.i789 = load ptr, ptr %79, align 8, !tbaa !15
  %vfn7.i.i790 = getelementptr inbounds ptr, ptr %vtable6.i.i789, i64 %.sink.i.i788
  %80 = load ptr, ptr %vfn7.i.i790, align 8
  call void %80(ptr noundef nonnull align 8 dereferenceable(8) %79) #24
  br label %invoke.cont225

invoke.cont225:                                   ; preds = %if.end8.sink.split.i.i791, %if.else.i.i787
  %__f_.i.i.i793 = getelementptr inbounds %"class.std::__1::__function::__value_func.11", ptr %agg.tmp220, i64 0, i32 1
  store ptr getelementptr inbounds ({ [11 x ptr] }, ptr @"_ZTVNSt3__110__function6__funcIZ4mainE4$_12NS_9allocatorIS2_EEFvPmS5_jEEE", i64 0, inrange i32 0, i64 2), ptr %agg.tmp220, align 16, !tbaa !15
  store ptr %agg.tmp220, ptr %__f_.i.i.i793, align 16, !tbaa !23
  %__f_.i.i.i794 = getelementptr inbounds %"class.std::__1::__function::__value_func.11", ptr %agg.tmp222, i64 0, i32 1
  store ptr getelementptr inbounds ({ [11 x ptr] }, ptr @"_ZTVNSt3__110__function6__funcIZ4mainE4$_13NS_9allocatorIS2_EEFvPmS5_jEEE", i64 0, inrange i32 0, i64 2), ptr %agg.tmp222, align 16, !tbaa !15
  store ptr %agg.tmp222, ptr %__f_.i.i.i794, align 16, !tbaa !23
  invoke fastcc void @_ZL37checkOverlappingMemoryOneRuntimeCheckImEvNSt3__18functionIFvPT_S3_jEEES5_PKc(ptr noundef nonnull %agg.tmp220, ptr noundef nonnull %agg.tmp222, ptr noundef nonnull @.str.20)
          to label %invoke.cont227 unwind label %lpad226

invoke.cont227:                                   ; preds = %invoke.cont225
  %81 = load ptr, ptr %__f_.i.i.i794, align 16, !tbaa !23
  %cmp.i.i796 = icmp eq ptr %81, %agg.tmp222
  br i1 %cmp.i.i796, label %if.end8.sink.split.i.i802, label %if.else.i.i798

if.else.i.i798:                                   ; preds = %invoke.cont227
  %tobool.not.i.i797 = icmp eq ptr %81, null
  br i1 %tobool.not.i.i797, label %_ZNSt3__18functionIFvPmS1_jEED2Ev.exit803, label %if.end8.sink.split.i.i802

if.end8.sink.split.i.i802:                        ; preds = %if.else.i.i798, %invoke.cont227
  %.sink.i.i799 = phi i64 [ 4, %invoke.cont227 ], [ 5, %if.else.i.i798 ]
  %vtable6.i.i800 = load ptr, ptr %81, align 8, !tbaa !15
  %vfn7.i.i801 = getelementptr inbounds ptr, ptr %vtable6.i.i800, i64 %.sink.i.i799
  %82 = load ptr, ptr %vfn7.i.i801, align 8
  call void %82(ptr noundef nonnull align 8 dereferenceable(8) %81) #24
  br label %_ZNSt3__18functionIFvPmS1_jEED2Ev.exit803

_ZNSt3__18functionIFvPmS1_jEED2Ev.exit803:        ; preds = %if.else.i.i798, %if.end8.sink.split.i.i802
  %83 = load ptr, ptr %__f_.i.i.i793, align 16, !tbaa !23
  %cmp.i.i805 = icmp eq ptr %83, %agg.tmp220
  br i1 %cmp.i.i805, label %if.end8.sink.split.i.i811, label %if.else.i.i807

if.else.i.i807:                                   ; preds = %_ZNSt3__18functionIFvPmS1_jEED2Ev.exit803
  %tobool.not.i.i806 = icmp eq ptr %83, null
  br i1 %tobool.not.i.i806, label %invoke.cont239, label %if.end8.sink.split.i.i811

if.end8.sink.split.i.i811:                        ; preds = %if.else.i.i807, %_ZNSt3__18functionIFvPmS1_jEED2Ev.exit803
  %.sink.i.i808 = phi i64 [ 4, %_ZNSt3__18functionIFvPmS1_jEED2Ev.exit803 ], [ 5, %if.else.i.i807 ]
  %vtable6.i.i809 = load ptr, ptr %83, align 8, !tbaa !15
  %vfn7.i.i810 = getelementptr inbounds ptr, ptr %vtable6.i.i809, i64 %.sink.i.i808
  %84 = load ptr, ptr %vfn7.i.i810, align 8
  call void %84(ptr noundef nonnull align 8 dereferenceable(8) %83) #24
  br label %invoke.cont239

invoke.cont239:                                   ; preds = %if.end8.sink.split.i.i811, %if.else.i.i807
  %__f_.i.i.i813 = getelementptr inbounds %"class.std::__1::__function::__value_func", ptr %agg.tmp234, i64 0, i32 1
  store ptr getelementptr inbounds ({ [11 x ptr] }, ptr @"_ZTVNSt3__110__function6__funcIZ4mainE4$_14NS_9allocatorIS2_EEFvPhS5_jEEE", i64 0, inrange i32 0, i64 2), ptr %agg.tmp234, align 16, !tbaa !15
  store ptr %agg.tmp234, ptr %__f_.i.i.i813, align 16, !tbaa !17
  %__f_.i.i.i814 = getelementptr inbounds %"class.std::__1::__function::__value_func", ptr %agg.tmp236, i64 0, i32 1
  store ptr getelementptr inbounds ({ [11 x ptr] }, ptr @"_ZTVNSt3__110__function6__funcIZ4mainE4$_15NS_9allocatorIS2_EEFvPhS5_jEEE", i64 0, inrange i32 0, i64 2), ptr %agg.tmp236, align 16, !tbaa !15
  store ptr %agg.tmp236, ptr %__f_.i.i.i814, align 16, !tbaa !17
  invoke fastcc void @_ZL37checkOverlappingMemoryOneRuntimeCheckIhEvNSt3__18functionIFvPT_S3_jEEES5_PKc(ptr noundef nonnull %agg.tmp234, ptr noundef nonnull %agg.tmp236, ptr noundef nonnull @.str.21)
          to label %invoke.cont241 unwind label %lpad240

invoke.cont241:                                   ; preds = %invoke.cont239
  %85 = load ptr, ptr %__f_.i.i.i814, align 16, !tbaa !17
  %cmp.i.i816 = icmp eq ptr %85, %agg.tmp236
  br i1 %cmp.i.i816, label %if.end8.sink.split.i.i822, label %if.else.i.i818

if.else.i.i818:                                   ; preds = %invoke.cont241
  %tobool.not.i.i817 = icmp eq ptr %85, null
  br i1 %tobool.not.i.i817, label %_ZNSt3__18functionIFvPhS1_jEED2Ev.exit823, label %if.end8.sink.split.i.i822

if.end8.sink.split.i.i822:                        ; preds = %if.else.i.i818, %invoke.cont241
  %.sink.i.i819 = phi i64 [ 4, %invoke.cont241 ], [ 5, %if.else.i.i818 ]
  %vtable6.i.i820 = load ptr, ptr %85, align 8, !tbaa !15
  %vfn7.i.i821 = getelementptr inbounds ptr, ptr %vtable6.i.i820, i64 %.sink.i.i819
  %86 = load ptr, ptr %vfn7.i.i821, align 8
  call void %86(ptr noundef nonnull align 8 dereferenceable(8) %85) #24
  br label %_ZNSt3__18functionIFvPhS1_jEED2Ev.exit823

_ZNSt3__18functionIFvPhS1_jEED2Ev.exit823:        ; preds = %if.else.i.i818, %if.end8.sink.split.i.i822
  %87 = load ptr, ptr %__f_.i.i.i813, align 16, !tbaa !17
  %cmp.i.i825 = icmp eq ptr %87, %agg.tmp234
  br i1 %cmp.i.i825, label %if.end8.sink.split.i.i831, label %if.else.i.i827

if.else.i.i827:                                   ; preds = %_ZNSt3__18functionIFvPhS1_jEED2Ev.exit823
  %tobool.not.i.i826 = icmp eq ptr %87, null
  br i1 %tobool.not.i.i826, label %invoke.cont249, label %if.end8.sink.split.i.i831

if.end8.sink.split.i.i831:                        ; preds = %if.else.i.i827, %_ZNSt3__18functionIFvPhS1_jEED2Ev.exit823
  %.sink.i.i828 = phi i64 [ 4, %_ZNSt3__18functionIFvPhS1_jEED2Ev.exit823 ], [ 5, %if.else.i.i827 ]
  %vtable6.i.i829 = load ptr, ptr %87, align 8, !tbaa !15
  %vfn7.i.i830 = getelementptr inbounds ptr, ptr %vtable6.i.i829, i64 %.sink.i.i828
  %88 = load ptr, ptr %vfn7.i.i830, align 8
  call void %88(ptr noundef nonnull align 8 dereferenceable(8) %87) #24
  br label %invoke.cont249

invoke.cont249:                                   ; preds = %if.end8.sink.split.i.i831, %if.else.i.i827
  %__f_.i.i.i833 = getelementptr inbounds %"class.std::__1::__function::__value_func.5", ptr %agg.tmp244, i64 0, i32 1
  store ptr getelementptr inbounds ({ [11 x ptr] }, ptr @"_ZTVNSt3__110__function6__funcIZ4mainE4$_14NS_9allocatorIS2_EEFvPjS5_jEEE", i64 0, inrange i32 0, i64 2), ptr %agg.tmp244, align 16, !tbaa !15
  store ptr %agg.tmp244, ptr %__f_.i.i.i833, align 16, !tbaa !21
  %__f_.i.i.i834 = getelementptr inbounds %"class.std::__1::__function::__value_func.5", ptr %agg.tmp246, i64 0, i32 1
  store ptr getelementptr inbounds ({ [11 x ptr] }, ptr @"_ZTVNSt3__110__function6__funcIZ4mainE4$_15NS_9allocatorIS2_EEFvPjS5_jEEE", i64 0, inrange i32 0, i64 2), ptr %agg.tmp246, align 16, !tbaa !15
  store ptr %agg.tmp246, ptr %__f_.i.i.i834, align 16, !tbaa !21
  invoke fastcc void @_ZL37checkOverlappingMemoryOneRuntimeCheckIjEvNSt3__18functionIFvPT_S3_jEEES5_PKc(ptr noundef nonnull %agg.tmp244, ptr noundef nonnull %agg.tmp246, ptr noundef nonnull @.str.22)
          to label %invoke.cont251 unwind label %lpad250

invoke.cont251:                                   ; preds = %invoke.cont249
  %89 = load ptr, ptr %__f_.i.i.i834, align 16, !tbaa !21
  %cmp.i.i836 = icmp eq ptr %89, %agg.tmp246
  br i1 %cmp.i.i836, label %if.end8.sink.split.i.i842, label %if.else.i.i838

if.else.i.i838:                                   ; preds = %invoke.cont251
  %tobool.not.i.i837 = icmp eq ptr %89, null
  br i1 %tobool.not.i.i837, label %_ZNSt3__18functionIFvPjS1_jEED2Ev.exit843, label %if.end8.sink.split.i.i842

if.end8.sink.split.i.i842:                        ; preds = %if.else.i.i838, %invoke.cont251
  %.sink.i.i839 = phi i64 [ 4, %invoke.cont251 ], [ 5, %if.else.i.i838 ]
  %vtable6.i.i840 = load ptr, ptr %89, align 8, !tbaa !15
  %vfn7.i.i841 = getelementptr inbounds ptr, ptr %vtable6.i.i840, i64 %.sink.i.i839
  %90 = load ptr, ptr %vfn7.i.i841, align 8
  call void %90(ptr noundef nonnull align 8 dereferenceable(8) %89) #24
  br label %_ZNSt3__18functionIFvPjS1_jEED2Ev.exit843

_ZNSt3__18functionIFvPjS1_jEED2Ev.exit843:        ; preds = %if.else.i.i838, %if.end8.sink.split.i.i842
  %91 = load ptr, ptr %__f_.i.i.i833, align 16, !tbaa !21
  %cmp.i.i845 = icmp eq ptr %91, %agg.tmp244
  br i1 %cmp.i.i845, label %if.end8.sink.split.i.i851, label %if.else.i.i847

if.else.i.i847:                                   ; preds = %_ZNSt3__18functionIFvPjS1_jEED2Ev.exit843
  %tobool.not.i.i846 = icmp eq ptr %91, null
  br i1 %tobool.not.i.i846, label %invoke.cont259, label %if.end8.sink.split.i.i851

if.end8.sink.split.i.i851:                        ; preds = %if.else.i.i847, %_ZNSt3__18functionIFvPjS1_jEED2Ev.exit843
  %.sink.i.i848 = phi i64 [ 4, %_ZNSt3__18functionIFvPjS1_jEED2Ev.exit843 ], [ 5, %if.else.i.i847 ]
  %vtable6.i.i849 = load ptr, ptr %91, align 8, !tbaa !15
  %vfn7.i.i850 = getelementptr inbounds ptr, ptr %vtable6.i.i849, i64 %.sink.i.i848
  %92 = load ptr, ptr %vfn7.i.i850, align 8
  call void %92(ptr noundef nonnull align 8 dereferenceable(8) %91) #24
  br label %invoke.cont259

invoke.cont259:                                   ; preds = %if.end8.sink.split.i.i851, %if.else.i.i847
  %__f_.i.i.i853 = getelementptr inbounds %"class.std::__1::__function::__value_func.11", ptr %agg.tmp254, i64 0, i32 1
  store ptr getelementptr inbounds ({ [11 x ptr] }, ptr @"_ZTVNSt3__110__function6__funcIZ4mainE4$_14NS_9allocatorIS2_EEFvPmS5_jEEE", i64 0, inrange i32 0, i64 2), ptr %agg.tmp254, align 16, !tbaa !15
  store ptr %agg.tmp254, ptr %__f_.i.i.i853, align 16, !tbaa !23
  %__f_.i.i.i854 = getelementptr inbounds %"class.std::__1::__function::__value_func.11", ptr %agg.tmp256, i64 0, i32 1
  store ptr getelementptr inbounds ({ [11 x ptr] }, ptr @"_ZTVNSt3__110__function6__funcIZ4mainE4$_15NS_9allocatorIS2_EEFvPmS5_jEEE", i64 0, inrange i32 0, i64 2), ptr %agg.tmp256, align 16, !tbaa !15
  store ptr %agg.tmp256, ptr %__f_.i.i.i854, align 16, !tbaa !23
  invoke fastcc void @_ZL37checkOverlappingMemoryOneRuntimeCheckImEvNSt3__18functionIFvPT_S3_jEEES5_PKc(ptr noundef nonnull %agg.tmp254, ptr noundef nonnull %agg.tmp256, ptr noundef nonnull @.str.23)
          to label %invoke.cont261 unwind label %lpad260

invoke.cont261:                                   ; preds = %invoke.cont259
  %93 = load ptr, ptr %__f_.i.i.i854, align 16, !tbaa !23
  %cmp.i.i856 = icmp eq ptr %93, %agg.tmp256
  br i1 %cmp.i.i856, label %if.end8.sink.split.i.i862, label %if.else.i.i858

if.else.i.i858:                                   ; preds = %invoke.cont261
  %tobool.not.i.i857 = icmp eq ptr %93, null
  br i1 %tobool.not.i.i857, label %_ZNSt3__18functionIFvPmS1_jEED2Ev.exit863, label %if.end8.sink.split.i.i862

if.end8.sink.split.i.i862:                        ; preds = %if.else.i.i858, %invoke.cont261
  %.sink.i.i859 = phi i64 [ 4, %invoke.cont261 ], [ 5, %if.else.i.i858 ]
  %vtable6.i.i860 = load ptr, ptr %93, align 8, !tbaa !15
  %vfn7.i.i861 = getelementptr inbounds ptr, ptr %vtable6.i.i860, i64 %.sink.i.i859
  %94 = load ptr, ptr %vfn7.i.i861, align 8
  call void %94(ptr noundef nonnull align 8 dereferenceable(8) %93) #24
  br label %_ZNSt3__18functionIFvPmS1_jEED2Ev.exit863

_ZNSt3__18functionIFvPmS1_jEED2Ev.exit863:        ; preds = %if.else.i.i858, %if.end8.sink.split.i.i862
  %95 = load ptr, ptr %__f_.i.i.i853, align 16, !tbaa !23
  %cmp.i.i865 = icmp eq ptr %95, %agg.tmp254
  br i1 %cmp.i.i865, label %if.end8.sink.split.i.i871, label %if.else.i.i867

if.else.i.i867:                                   ; preds = %_ZNSt3__18functionIFvPmS1_jEED2Ev.exit863
  %tobool.not.i.i866 = icmp eq ptr %95, null
  br i1 %tobool.not.i.i866, label %invoke.cont273, label %if.end8.sink.split.i.i871

if.end8.sink.split.i.i871:                        ; preds = %if.else.i.i867, %_ZNSt3__18functionIFvPmS1_jEED2Ev.exit863
  %.sink.i.i868 = phi i64 [ 4, %_ZNSt3__18functionIFvPmS1_jEED2Ev.exit863 ], [ 5, %if.else.i.i867 ]
  %vtable6.i.i869 = load ptr, ptr %95, align 8, !tbaa !15
  %vfn7.i.i870 = getelementptr inbounds ptr, ptr %vtable6.i.i869, i64 %.sink.i.i868
  %96 = load ptr, ptr %vfn7.i.i870, align 8
  call void %96(ptr noundef nonnull align 8 dereferenceable(8) %95) #24
  br label %invoke.cont273

invoke.cont273:                                   ; preds = %if.end8.sink.split.i.i871, %if.else.i.i867
  %__f_.i.i.i873 = getelementptr inbounds %"class.std::__1::__function::__value_func.49", ptr %agg.tmp268, i64 0, i32 1
  store ptr getelementptr inbounds ({ [11 x ptr] }, ptr @"_ZTVNSt3__110__function6__funcIZ4mainE4$_16NS_9allocatorIS2_EEFvPjS5_S5_jEEE", i64 0, inrange i32 0, i64 2), ptr %agg.tmp268, align 16, !tbaa !15
  store ptr %agg.tmp268, ptr %__f_.i.i.i873, align 16, !tbaa !25
  %__f_.i.i.i874 = getelementptr inbounds %"class.std::__1::__function::__value_func.49", ptr %agg.tmp270, i64 0, i32 1
  store ptr getelementptr inbounds ({ [11 x ptr] }, ptr @"_ZTVNSt3__110__function6__funcIZ4mainE4$_17NS_9allocatorIS2_EEFvPjS5_S5_jEEE", i64 0, inrange i32 0, i64 2), ptr %agg.tmp270, align 16, !tbaa !15
  store ptr %agg.tmp270, ptr %__f_.i.i.i874, align 16, !tbaa !25
  invoke fastcc void @_ZL38checkOverlappingMemoryTwoRuntimeChecksIjEvNSt3__18functionIFvPT_S3_S3_jEEES5_PKc(ptr noundef nonnull %agg.tmp268, ptr noundef nonnull %agg.tmp270, ptr noundef nonnull @.str.24)
          to label %invoke.cont275 unwind label %lpad274

invoke.cont275:                                   ; preds = %invoke.cont273
  %97 = load ptr, ptr %__f_.i.i.i874, align 16, !tbaa !25
  %cmp.i.i876 = icmp eq ptr %97, %agg.tmp270
  br i1 %cmp.i.i876, label %if.end8.sink.split.i.i882, label %if.else.i.i878

if.else.i.i878:                                   ; preds = %invoke.cont275
  %tobool.not.i.i877 = icmp eq ptr %97, null
  br i1 %tobool.not.i.i877, label %_ZNSt3__18functionIFvPjS1_S1_jEED2Ev.exit, label %if.end8.sink.split.i.i882

if.end8.sink.split.i.i882:                        ; preds = %if.else.i.i878, %invoke.cont275
  %.sink.i.i879 = phi i64 [ 4, %invoke.cont275 ], [ 5, %if.else.i.i878 ]
  %vtable6.i.i880 = load ptr, ptr %97, align 8, !tbaa !15
  %vfn7.i.i881 = getelementptr inbounds ptr, ptr %vtable6.i.i880, i64 %.sink.i.i879
  %98 = load ptr, ptr %vfn7.i.i881, align 8
  call void %98(ptr noundef nonnull align 8 dereferenceable(8) %97) #24
  br label %_ZNSt3__18functionIFvPjS1_S1_jEED2Ev.exit

_ZNSt3__18functionIFvPjS1_S1_jEED2Ev.exit:        ; preds = %if.else.i.i878, %if.end8.sink.split.i.i882
  %99 = load ptr, ptr %__f_.i.i.i873, align 16, !tbaa !25
  %cmp.i.i884 = icmp eq ptr %99, %agg.tmp268
  br i1 %cmp.i.i884, label %if.end8.sink.split.i.i890, label %if.else.i.i886

if.else.i.i886:                                   ; preds = %_ZNSt3__18functionIFvPjS1_S1_jEED2Ev.exit
  %tobool.not.i.i885 = icmp eq ptr %99, null
  br i1 %tobool.not.i.i885, label %invoke.cont283, label %if.end8.sink.split.i.i890

if.end8.sink.split.i.i890:                        ; preds = %if.else.i.i886, %_ZNSt3__18functionIFvPjS1_S1_jEED2Ev.exit
  %.sink.i.i887 = phi i64 [ 4, %_ZNSt3__18functionIFvPjS1_S1_jEED2Ev.exit ], [ 5, %if.else.i.i886 ]
  %vtable6.i.i888 = load ptr, ptr %99, align 8, !tbaa !15
  %vfn7.i.i889 = getelementptr inbounds ptr, ptr %vtable6.i.i888, i64 %.sink.i.i887
  %100 = load ptr, ptr %vfn7.i.i889, align 8
  call void %100(ptr noundef nonnull align 8 dereferenceable(8) %99) #24
  br label %invoke.cont283

invoke.cont283:                                   ; preds = %if.end8.sink.split.i.i890, %if.else.i.i886
  %__f_.i.i.i892 = getelementptr inbounds %"class.std::__1::__function::__value_func.55", ptr %agg.tmp278, i64 0, i32 1
  store ptr getelementptr inbounds ({ [11 x ptr] }, ptr @"_ZTVNSt3__110__function6__funcIZ4mainE4$_16NS_9allocatorIS2_EEFvPhS5_S5_jEEE", i64 0, inrange i32 0, i64 2), ptr %agg.tmp278, align 16, !tbaa !15
  store ptr %agg.tmp278, ptr %__f_.i.i.i892, align 16, !tbaa !27
  %__f_.i.i.i893 = getelementptr inbounds %"class.std::__1::__function::__value_func.55", ptr %agg.tmp280, i64 0, i32 1
  store ptr getelementptr inbounds ({ [11 x ptr] }, ptr @"_ZTVNSt3__110__function6__funcIZ4mainE4$_17NS_9allocatorIS2_EEFvPhS5_S5_jEEE", i64 0, inrange i32 0, i64 2), ptr %agg.tmp280, align 16, !tbaa !15
  store ptr %agg.tmp280, ptr %__f_.i.i.i893, align 16, !tbaa !27
  invoke fastcc void @_ZL38checkOverlappingMemoryTwoRuntimeChecksIhEvNSt3__18functionIFvPT_S3_S3_jEEES5_PKc(ptr noundef nonnull %agg.tmp278, ptr noundef nonnull %agg.tmp280, ptr noundef nonnull @.str.25)
          to label %invoke.cont285 unwind label %lpad284

invoke.cont285:                                   ; preds = %invoke.cont283
  %101 = load ptr, ptr %__f_.i.i.i893, align 16, !tbaa !27
  %cmp.i.i895 = icmp eq ptr %101, %agg.tmp280
  br i1 %cmp.i.i895, label %if.end8.sink.split.i.i901, label %if.else.i.i897

if.else.i.i897:                                   ; preds = %invoke.cont285
  %tobool.not.i.i896 = icmp eq ptr %101, null
  br i1 %tobool.not.i.i896, label %_ZNSt3__18functionIFvPhS1_S1_jEED2Ev.exit, label %if.end8.sink.split.i.i901

if.end8.sink.split.i.i901:                        ; preds = %if.else.i.i897, %invoke.cont285
  %.sink.i.i898 = phi i64 [ 4, %invoke.cont285 ], [ 5, %if.else.i.i897 ]
  %vtable6.i.i899 = load ptr, ptr %101, align 8, !tbaa !15
  %vfn7.i.i900 = getelementptr inbounds ptr, ptr %vtable6.i.i899, i64 %.sink.i.i898
  %102 = load ptr, ptr %vfn7.i.i900, align 8
  call void %102(ptr noundef nonnull align 8 dereferenceable(8) %101) #24
  br label %_ZNSt3__18functionIFvPhS1_S1_jEED2Ev.exit

_ZNSt3__18functionIFvPhS1_S1_jEED2Ev.exit:        ; preds = %if.else.i.i897, %if.end8.sink.split.i.i901
  %103 = load ptr, ptr %__f_.i.i.i892, align 16, !tbaa !27
  %cmp.i.i903 = icmp eq ptr %103, %agg.tmp278
  br i1 %cmp.i.i903, label %if.end8.sink.split.i.i909, label %if.else.i.i905

if.else.i.i905:                                   ; preds = %_ZNSt3__18functionIFvPhS1_S1_jEED2Ev.exit
  %tobool.not.i.i904 = icmp eq ptr %103, null
  br i1 %tobool.not.i.i904, label %invoke.cont293, label %if.end8.sink.split.i.i909

if.end8.sink.split.i.i909:                        ; preds = %if.else.i.i905, %_ZNSt3__18functionIFvPhS1_S1_jEED2Ev.exit
  %.sink.i.i906 = phi i64 [ 4, %_ZNSt3__18functionIFvPhS1_S1_jEED2Ev.exit ], [ 5, %if.else.i.i905 ]
  %vtable6.i.i907 = load ptr, ptr %103, align 8, !tbaa !15
  %vfn7.i.i908 = getelementptr inbounds ptr, ptr %vtable6.i.i907, i64 %.sink.i.i906
  %104 = load ptr, ptr %vfn7.i.i908, align 8
  call void %104(ptr noundef nonnull align 8 dereferenceable(8) %103) #24
  br label %invoke.cont293

invoke.cont293:                                   ; preds = %if.end8.sink.split.i.i909, %if.else.i.i905
  %__f_.i.i.i911 = getelementptr inbounds %"class.std::__1::__function::__value_func.61", ptr %agg.tmp288, i64 0, i32 1
  store ptr getelementptr inbounds ({ [11 x ptr] }, ptr @"_ZTVNSt3__110__function6__funcIZ4mainE4$_16NS_9allocatorIS2_EEFvPmS5_S5_jEEE", i64 0, inrange i32 0, i64 2), ptr %agg.tmp288, align 16, !tbaa !15
  store ptr %agg.tmp288, ptr %__f_.i.i.i911, align 16, !tbaa !29
  %__f_.i.i.i912 = getelementptr inbounds %"class.std::__1::__function::__value_func.61", ptr %agg.tmp290, i64 0, i32 1
  store ptr getelementptr inbounds ({ [11 x ptr] }, ptr @"_ZTVNSt3__110__function6__funcIZ4mainE4$_17NS_9allocatorIS2_EEFvPmS5_S5_jEEE", i64 0, inrange i32 0, i64 2), ptr %agg.tmp290, align 16, !tbaa !15
  store ptr %agg.tmp290, ptr %__f_.i.i.i912, align 16, !tbaa !29
  invoke fastcc void @_ZL38checkOverlappingMemoryTwoRuntimeChecksImEvNSt3__18functionIFvPT_S3_S3_jEEES5_PKc(ptr noundef nonnull %agg.tmp288, ptr noundef nonnull %agg.tmp290, ptr noundef nonnull @.str.26)
          to label %invoke.cont295 unwind label %lpad294

invoke.cont295:                                   ; preds = %invoke.cont293
  %105 = load ptr, ptr %__f_.i.i.i912, align 16, !tbaa !29
  %cmp.i.i914 = icmp eq ptr %105, %agg.tmp290
  br i1 %cmp.i.i914, label %if.end8.sink.split.i.i920, label %if.else.i.i916

if.else.i.i916:                                   ; preds = %invoke.cont295
  %tobool.not.i.i915 = icmp eq ptr %105, null
  br i1 %tobool.not.i.i915, label %_ZNSt3__18functionIFvPmS1_S1_jEED2Ev.exit, label %if.end8.sink.split.i.i920

if.end8.sink.split.i.i920:                        ; preds = %if.else.i.i916, %invoke.cont295
  %.sink.i.i917 = phi i64 [ 4, %invoke.cont295 ], [ 5, %if.else.i.i916 ]
  %vtable6.i.i918 = load ptr, ptr %105, align 8, !tbaa !15
  %vfn7.i.i919 = getelementptr inbounds ptr, ptr %vtable6.i.i918, i64 %.sink.i.i917
  %106 = load ptr, ptr %vfn7.i.i919, align 8
  call void %106(ptr noundef nonnull align 8 dereferenceable(8) %105) #24
  br label %_ZNSt3__18functionIFvPmS1_S1_jEED2Ev.exit

_ZNSt3__18functionIFvPmS1_S1_jEED2Ev.exit:        ; preds = %if.else.i.i916, %if.end8.sink.split.i.i920
  %107 = load ptr, ptr %__f_.i.i.i911, align 16, !tbaa !29
  %cmp.i.i922 = icmp eq ptr %107, %agg.tmp288
  br i1 %cmp.i.i922, label %if.end8.sink.split.i.i928, label %if.else.i.i924

if.else.i.i924:                                   ; preds = %_ZNSt3__18functionIFvPmS1_S1_jEED2Ev.exit
  %tobool.not.i.i923 = icmp eq ptr %107, null
  br i1 %tobool.not.i.i923, label %invoke.cont307, label %if.end8.sink.split.i.i928

if.end8.sink.split.i.i928:                        ; preds = %if.else.i.i924, %_ZNSt3__18functionIFvPmS1_S1_jEED2Ev.exit
  %.sink.i.i925 = phi i64 [ 4, %_ZNSt3__18functionIFvPmS1_S1_jEED2Ev.exit ], [ 5, %if.else.i.i924 ]
  %vtable6.i.i926 = load ptr, ptr %107, align 8, !tbaa !15
  %vfn7.i.i927 = getelementptr inbounds ptr, ptr %vtable6.i.i926, i64 %.sink.i.i925
  %108 = load ptr, ptr %vfn7.i.i927, align 8
  call void %108(ptr noundef nonnull align 8 dereferenceable(8) %107) #24
  br label %invoke.cont307

invoke.cont307:                                   ; preds = %if.end8.sink.split.i.i928, %if.else.i.i924
  %__f_.i.i.i930 = getelementptr inbounds %"class.std::__1::__function::__value_func.55", ptr %agg.tmp302, i64 0, i32 1
  store ptr getelementptr inbounds ({ [11 x ptr] }, ptr @"_ZTVNSt3__110__function6__funcIZ4mainE4$_18NS_9allocatorIS2_EEFvPhS5_S5_jEEE", i64 0, inrange i32 0, i64 2), ptr %agg.tmp302, align 16, !tbaa !15
  store ptr %agg.tmp302, ptr %__f_.i.i.i930, align 16, !tbaa !27
  %__f_.i.i.i931 = getelementptr inbounds %"class.std::__1::__function::__value_func.55", ptr %agg.tmp304, i64 0, i32 1
  store ptr getelementptr inbounds ({ [11 x ptr] }, ptr @"_ZTVNSt3__110__function6__funcIZ4mainE4$_19NS_9allocatorIS2_EEFvPhS5_S5_jEEE", i64 0, inrange i32 0, i64 2), ptr %agg.tmp304, align 16, !tbaa !15
  store ptr %agg.tmp304, ptr %__f_.i.i.i931, align 16, !tbaa !27
  invoke fastcc void @_ZL38checkOverlappingMemoryTwoRuntimeChecksIhEvNSt3__18functionIFvPT_S3_S3_jEEES5_PKc(ptr noundef nonnull %agg.tmp302, ptr noundef nonnull %agg.tmp304, ptr noundef nonnull @.str.27)
          to label %invoke.cont309 unwind label %lpad308

invoke.cont309:                                   ; preds = %invoke.cont307
  %109 = load ptr, ptr %__f_.i.i.i931, align 16, !tbaa !27
  %cmp.i.i933 = icmp eq ptr %109, %agg.tmp304
  br i1 %cmp.i.i933, label %if.end8.sink.split.i.i939, label %if.else.i.i935

if.else.i.i935:                                   ; preds = %invoke.cont309
  %tobool.not.i.i934 = icmp eq ptr %109, null
  br i1 %tobool.not.i.i934, label %_ZNSt3__18functionIFvPhS1_S1_jEED2Ev.exit940, label %if.end8.sink.split.i.i939

if.end8.sink.split.i.i939:                        ; preds = %if.else.i.i935, %invoke.cont309
  %.sink.i.i936 = phi i64 [ 4, %invoke.cont309 ], [ 5, %if.else.i.i935 ]
  %vtable6.i.i937 = load ptr, ptr %109, align 8, !tbaa !15
  %vfn7.i.i938 = getelementptr inbounds ptr, ptr %vtable6.i.i937, i64 %.sink.i.i936
  %110 = load ptr, ptr %vfn7.i.i938, align 8
  call void %110(ptr noundef nonnull align 8 dereferenceable(8) %109) #24
  br label %_ZNSt3__18functionIFvPhS1_S1_jEED2Ev.exit940

_ZNSt3__18functionIFvPhS1_S1_jEED2Ev.exit940:     ; preds = %if.else.i.i935, %if.end8.sink.split.i.i939
  %111 = load ptr, ptr %__f_.i.i.i930, align 16, !tbaa !27
  %cmp.i.i942 = icmp eq ptr %111, %agg.tmp302
  br i1 %cmp.i.i942, label %if.end8.sink.split.i.i948, label %if.else.i.i944

if.else.i.i944:                                   ; preds = %_ZNSt3__18functionIFvPhS1_S1_jEED2Ev.exit940
  %tobool.not.i.i943 = icmp eq ptr %111, null
  br i1 %tobool.not.i.i943, label %invoke.cont317, label %if.end8.sink.split.i.i948

if.end8.sink.split.i.i948:                        ; preds = %if.else.i.i944, %_ZNSt3__18functionIFvPhS1_S1_jEED2Ev.exit940
  %.sink.i.i945 = phi i64 [ 4, %_ZNSt3__18functionIFvPhS1_S1_jEED2Ev.exit940 ], [ 5, %if.else.i.i944 ]
  %vtable6.i.i946 = load ptr, ptr %111, align 8, !tbaa !15
  %vfn7.i.i947 = getelementptr inbounds ptr, ptr %vtable6.i.i946, i64 %.sink.i.i945
  %112 = load ptr, ptr %vfn7.i.i947, align 8
  call void %112(ptr noundef nonnull align 8 dereferenceable(8) %111) #24
  br label %invoke.cont317

invoke.cont317:                                   ; preds = %if.end8.sink.split.i.i948, %if.else.i.i944
  %__f_.i.i.i950 = getelementptr inbounds %"class.std::__1::__function::__value_func.49", ptr %agg.tmp312, i64 0, i32 1
  store ptr getelementptr inbounds ({ [11 x ptr] }, ptr @"_ZTVNSt3__110__function6__funcIZ4mainE4$_18NS_9allocatorIS2_EEFvPjS5_S5_jEEE", i64 0, inrange i32 0, i64 2), ptr %agg.tmp312, align 16, !tbaa !15
  store ptr %agg.tmp312, ptr %__f_.i.i.i950, align 16, !tbaa !25
  %__f_.i.i.i951 = getelementptr inbounds %"class.std::__1::__function::__value_func.49", ptr %agg.tmp314, i64 0, i32 1
  store ptr getelementptr inbounds ({ [11 x ptr] }, ptr @"_ZTVNSt3__110__function6__funcIZ4mainE4$_19NS_9allocatorIS2_EEFvPjS5_S5_jEEE", i64 0, inrange i32 0, i64 2), ptr %agg.tmp314, align 16, !tbaa !15
  store ptr %agg.tmp314, ptr %__f_.i.i.i951, align 16, !tbaa !25
  invoke fastcc void @_ZL38checkOverlappingMemoryTwoRuntimeChecksIjEvNSt3__18functionIFvPT_S3_S3_jEEES5_PKc(ptr noundef nonnull %agg.tmp312, ptr noundef nonnull %agg.tmp314, ptr noundef nonnull @.str.28)
          to label %invoke.cont319 unwind label %lpad318

invoke.cont319:                                   ; preds = %invoke.cont317
  %113 = load ptr, ptr %__f_.i.i.i951, align 16, !tbaa !25
  %cmp.i.i953 = icmp eq ptr %113, %agg.tmp314
  br i1 %cmp.i.i953, label %if.end8.sink.split.i.i959, label %if.else.i.i955

if.else.i.i955:                                   ; preds = %invoke.cont319
  %tobool.not.i.i954 = icmp eq ptr %113, null
  br i1 %tobool.not.i.i954, label %_ZNSt3__18functionIFvPjS1_S1_jEED2Ev.exit960, label %if.end8.sink.split.i.i959

if.end8.sink.split.i.i959:                        ; preds = %if.else.i.i955, %invoke.cont319
  %.sink.i.i956 = phi i64 [ 4, %invoke.cont319 ], [ 5, %if.else.i.i955 ]
  %vtable6.i.i957 = load ptr, ptr %113, align 8, !tbaa !15
  %vfn7.i.i958 = getelementptr inbounds ptr, ptr %vtable6.i.i957, i64 %.sink.i.i956
  %114 = load ptr, ptr %vfn7.i.i958, align 8
  call void %114(ptr noundef nonnull align 8 dereferenceable(8) %113) #24
  br label %_ZNSt3__18functionIFvPjS1_S1_jEED2Ev.exit960

_ZNSt3__18functionIFvPjS1_S1_jEED2Ev.exit960:     ; preds = %if.else.i.i955, %if.end8.sink.split.i.i959
  %115 = load ptr, ptr %__f_.i.i.i950, align 16, !tbaa !25
  %cmp.i.i962 = icmp eq ptr %115, %agg.tmp312
  br i1 %cmp.i.i962, label %if.end8.sink.split.i.i968, label %if.else.i.i964

if.else.i.i964:                                   ; preds = %_ZNSt3__18functionIFvPjS1_S1_jEED2Ev.exit960
  %tobool.not.i.i963 = icmp eq ptr %115, null
  br i1 %tobool.not.i.i963, label %invoke.cont327, label %if.end8.sink.split.i.i968

if.end8.sink.split.i.i968:                        ; preds = %if.else.i.i964, %_ZNSt3__18functionIFvPjS1_S1_jEED2Ev.exit960
  %.sink.i.i965 = phi i64 [ 4, %_ZNSt3__18functionIFvPjS1_S1_jEED2Ev.exit960 ], [ 5, %if.else.i.i964 ]
  %vtable6.i.i966 = load ptr, ptr %115, align 8, !tbaa !15
  %vfn7.i.i967 = getelementptr inbounds ptr, ptr %vtable6.i.i966, i64 %.sink.i.i965
  %116 = load ptr, ptr %vfn7.i.i967, align 8
  call void %116(ptr noundef nonnull align 8 dereferenceable(8) %115) #24
  br label %invoke.cont327

invoke.cont327:                                   ; preds = %if.end8.sink.split.i.i968, %if.else.i.i964
  %__f_.i.i.i970 = getelementptr inbounds %"class.std::__1::__function::__value_func.61", ptr %agg.tmp322, i64 0, i32 1
  store ptr getelementptr inbounds ({ [11 x ptr] }, ptr @"_ZTVNSt3__110__function6__funcIZ4mainE4$_18NS_9allocatorIS2_EEFvPmS5_S5_jEEE", i64 0, inrange i32 0, i64 2), ptr %agg.tmp322, align 16, !tbaa !15
  store ptr %agg.tmp322, ptr %__f_.i.i.i970, align 16, !tbaa !29
  %__f_.i.i.i971 = getelementptr inbounds %"class.std::__1::__function::__value_func.61", ptr %agg.tmp324, i64 0, i32 1
  store ptr getelementptr inbounds ({ [11 x ptr] }, ptr @"_ZTVNSt3__110__function6__funcIZ4mainE4$_19NS_9allocatorIS2_EEFvPmS5_S5_jEEE", i64 0, inrange i32 0, i64 2), ptr %agg.tmp324, align 16, !tbaa !15
  store ptr %agg.tmp324, ptr %__f_.i.i.i971, align 16, !tbaa !29
  invoke fastcc void @_ZL38checkOverlappingMemoryTwoRuntimeChecksImEvNSt3__18functionIFvPT_S3_S3_jEEES5_PKc(ptr noundef nonnull %agg.tmp322, ptr noundef nonnull %agg.tmp324, ptr noundef nonnull @.str.29)
          to label %invoke.cont329 unwind label %lpad328

invoke.cont329:                                   ; preds = %invoke.cont327
  %117 = load ptr, ptr %__f_.i.i.i971, align 16, !tbaa !29
  %cmp.i.i973 = icmp eq ptr %117, %agg.tmp324
  br i1 %cmp.i.i973, label %if.end8.sink.split.i.i979, label %if.else.i.i975

if.else.i.i975:                                   ; preds = %invoke.cont329
  %tobool.not.i.i974 = icmp eq ptr %117, null
  br i1 %tobool.not.i.i974, label %_ZNSt3__18functionIFvPmS1_S1_jEED2Ev.exit980, label %if.end8.sink.split.i.i979

if.end8.sink.split.i.i979:                        ; preds = %if.else.i.i975, %invoke.cont329
  %.sink.i.i976 = phi i64 [ 4, %invoke.cont329 ], [ 5, %if.else.i.i975 ]
  %vtable6.i.i977 = load ptr, ptr %117, align 8, !tbaa !15
  %vfn7.i.i978 = getelementptr inbounds ptr, ptr %vtable6.i.i977, i64 %.sink.i.i976
  %118 = load ptr, ptr %vfn7.i.i978, align 8
  call void %118(ptr noundef nonnull align 8 dereferenceable(8) %117) #24
  br label %_ZNSt3__18functionIFvPmS1_S1_jEED2Ev.exit980

_ZNSt3__18functionIFvPmS1_S1_jEED2Ev.exit980:     ; preds = %if.else.i.i975, %if.end8.sink.split.i.i979
  %119 = load ptr, ptr %__f_.i.i.i970, align 16, !tbaa !29
  %cmp.i.i982 = icmp eq ptr %119, %agg.tmp322
  br i1 %cmp.i.i982, label %if.end8.sink.split.i.i988, label %if.else.i.i984

if.else.i.i984:                                   ; preds = %_ZNSt3__18functionIFvPmS1_S1_jEED2Ev.exit980
  %tobool.not.i.i983 = icmp eq ptr %119, null
  br i1 %tobool.not.i.i983, label %_ZNSt3__18functionIFvPmS1_S1_jEED2Ev.exit989, label %if.end8.sink.split.i.i988

if.end8.sink.split.i.i988:                        ; preds = %if.else.i.i984, %_ZNSt3__18functionIFvPmS1_S1_jEED2Ev.exit980
  %.sink.i.i985 = phi i64 [ 4, %_ZNSt3__18functionIFvPmS1_S1_jEED2Ev.exit980 ], [ 5, %if.else.i.i984 ]
  %vtable6.i.i986 = load ptr, ptr %119, align 8, !tbaa !15
  %vfn7.i.i987 = getelementptr inbounds ptr, ptr %vtable6.i.i986, i64 %.sink.i.i985
  %120 = load ptr, ptr %vfn7.i.i987, align 8
  call void %120(ptr noundef nonnull align 8 dereferenceable(8) %119) #24
  br label %_ZNSt3__18functionIFvPmS1_S1_jEED2Ev.exit989

_ZNSt3__18functionIFvPmS1_S1_jEED2Ev.exit989:     ; preds = %if.else.i.i984, %if.end8.sink.split.i.i988
  ret i32 0

lpad4:                                            ; preds = %invoke.cont
  %121 = landingpad { ptr, i32 }
          cleanup
  %122 = load ptr, ptr %__f_.i.i.i405, align 16, !tbaa !17
  %cmp.i.i991 = icmp eq ptr %122, %agg.tmp2
  br i1 %cmp.i.i991, label %if.end8.sink.split.i.i997, label %if.else.i.i993

if.else.i.i993:                                   ; preds = %lpad4
  %tobool.not.i.i992 = icmp eq ptr %122, null
  br i1 %tobool.not.i.i992, label %ehcleanup, label %if.end8.sink.split.i.i997

if.end8.sink.split.i.i997:                        ; preds = %if.else.i.i993, %lpad4
  %.sink.i.i994 = phi i64 [ 4, %lpad4 ], [ 5, %if.else.i.i993 ]
  %vtable6.i.i995 = load ptr, ptr %122, align 8, !tbaa !15
  %vfn7.i.i996 = getelementptr inbounds ptr, ptr %vtable6.i.i995, i64 %.sink.i.i994
  %123 = load ptr, ptr %vfn7.i.i996, align 8
  call void %123(ptr noundef nonnull align 8 dereferenceable(8) %122) #24
  br label %ehcleanup

ehcleanup:                                        ; preds = %if.end8.sink.split.i.i997, %if.else.i.i993
  %124 = load ptr, ptr %__f_.i.i.i, align 16, !tbaa !17
  %cmp.i.i1000 = icmp eq ptr %124, %agg.tmp
  br i1 %cmp.i.i1000, label %eh.resume.sink.split, label %if.else.i.i1002

if.else.i.i1002:                                  ; preds = %ehcleanup
  %tobool.not.i.i1001 = icmp eq ptr %124, null
  br i1 %tobool.not.i.i1001, label %eh.resume, label %eh.resume.sink.split

lpad12:                                           ; preds = %invoke.cont11
  %125 = landingpad { ptr, i32 }
          cleanup
  %126 = load ptr, ptr %__f_.i.i.i416, align 16, !tbaa !21
  %cmp.i.i1009 = icmp eq ptr %126, %agg.tmp8
  br i1 %cmp.i.i1009, label %if.end8.sink.split.i.i1015, label %if.else.i.i1011

if.else.i.i1011:                                  ; preds = %lpad12
  %tobool.not.i.i1010 = icmp eq ptr %126, null
  br i1 %tobool.not.i.i1010, label %ehcleanup15, label %if.end8.sink.split.i.i1015

if.end8.sink.split.i.i1015:                       ; preds = %if.else.i.i1011, %lpad12
  %.sink.i.i1012 = phi i64 [ 4, %lpad12 ], [ 5, %if.else.i.i1011 ]
  %vtable6.i.i1013 = load ptr, ptr %126, align 8, !tbaa !15
  %vfn7.i.i1014 = getelementptr inbounds ptr, ptr %vtable6.i.i1013, i64 %.sink.i.i1012
  %127 = load ptr, ptr %vfn7.i.i1014, align 8
  call void %127(ptr noundef nonnull align 8 dereferenceable(8) %126) #24
  br label %ehcleanup15

ehcleanup15:                                      ; preds = %if.end8.sink.split.i.i1015, %if.else.i.i1011
  %128 = load ptr, ptr %__f_.i.i.i415, align 16, !tbaa !21
  %cmp.i.i1018 = icmp eq ptr %128, %agg.tmp6
  br i1 %cmp.i.i1018, label %eh.resume.sink.split, label %if.else.i.i1020

if.else.i.i1020:                                  ; preds = %ehcleanup15
  %tobool.not.i.i1019 = icmp eq ptr %128, null
  br i1 %tobool.not.i.i1019, label %eh.resume, label %eh.resume.sink.split

lpad22:                                           ; preds = %invoke.cont21
  %129 = landingpad { ptr, i32 }
          cleanup
  %130 = load ptr, ptr %__f_.i.i.i435, align 16, !tbaa !23
  %cmp.i.i1027 = icmp eq ptr %130, %agg.tmp18
  br i1 %cmp.i.i1027, label %if.end8.sink.split.i.i1033, label %if.else.i.i1029

if.else.i.i1029:                                  ; preds = %lpad22
  %tobool.not.i.i1028 = icmp eq ptr %130, null
  br i1 %tobool.not.i.i1028, label %ehcleanup25, label %if.end8.sink.split.i.i1033

if.end8.sink.split.i.i1033:                       ; preds = %if.else.i.i1029, %lpad22
  %.sink.i.i1030 = phi i64 [ 4, %lpad22 ], [ 5, %if.else.i.i1029 ]
  %vtable6.i.i1031 = load ptr, ptr %130, align 8, !tbaa !15
  %vfn7.i.i1032 = getelementptr inbounds ptr, ptr %vtable6.i.i1031, i64 %.sink.i.i1030
  %131 = load ptr, ptr %vfn7.i.i1032, align 8
  call void %131(ptr noundef nonnull align 8 dereferenceable(8) %130) #24
  br label %ehcleanup25

ehcleanup25:                                      ; preds = %if.end8.sink.split.i.i1033, %if.else.i.i1029
  %132 = load ptr, ptr %__f_.i.i.i434, align 16, !tbaa !23
  %cmp.i.i1036 = icmp eq ptr %132, %agg.tmp16
  br i1 %cmp.i.i1036, label %eh.resume.sink.split, label %if.else.i.i1038

if.else.i.i1038:                                  ; preds = %ehcleanup25
  %tobool.not.i.i1037 = icmp eq ptr %132, null
  br i1 %tobool.not.i.i1037, label %eh.resume, label %eh.resume.sink.split

lpad36:                                           ; preds = %invoke.cont35
  %133 = landingpad { ptr, i32 }
          cleanup
  %134 = load ptr, ptr %__f_.i.i.i454, align 16, !tbaa !17
  %cmp.i.i1045 = icmp eq ptr %134, %agg.tmp32
  br i1 %cmp.i.i1045, label %if.end8.sink.split.i.i1051, label %if.else.i.i1047

if.else.i.i1047:                                  ; preds = %lpad36
  %tobool.not.i.i1046 = icmp eq ptr %134, null
  br i1 %tobool.not.i.i1046, label %ehcleanup39, label %if.end8.sink.split.i.i1051

if.end8.sink.split.i.i1051:                       ; preds = %if.else.i.i1047, %lpad36
  %.sink.i.i1048 = phi i64 [ 4, %lpad36 ], [ 5, %if.else.i.i1047 ]
  %vtable6.i.i1049 = load ptr, ptr %134, align 8, !tbaa !15
  %vfn7.i.i1050 = getelementptr inbounds ptr, ptr %vtable6.i.i1049, i64 %.sink.i.i1048
  %135 = load ptr, ptr %vfn7.i.i1050, align 8
  call void %135(ptr noundef nonnull align 8 dereferenceable(8) %134) #24
  br label %ehcleanup39

ehcleanup39:                                      ; preds = %if.end8.sink.split.i.i1051, %if.else.i.i1047
  %136 = load ptr, ptr %__f_.i.i.i453, align 16, !tbaa !17
  %cmp.i.i1054 = icmp eq ptr %136, %agg.tmp30
  br i1 %cmp.i.i1054, label %eh.resume.sink.split, label %if.else.i.i1056

if.else.i.i1056:                                  ; preds = %ehcleanup39
  %tobool.not.i.i1055 = icmp eq ptr %136, null
  br i1 %tobool.not.i.i1055, label %eh.resume, label %eh.resume.sink.split

lpad46:                                           ; preds = %invoke.cont45
  %137 = landingpad { ptr, i32 }
          cleanup
  %138 = load ptr, ptr %__f_.i.i.i474, align 16, !tbaa !21
  %cmp.i.i1063 = icmp eq ptr %138, %agg.tmp42
  br i1 %cmp.i.i1063, label %if.end8.sink.split.i.i1069, label %if.else.i.i1065

if.else.i.i1065:                                  ; preds = %lpad46
  %tobool.not.i.i1064 = icmp eq ptr %138, null
  br i1 %tobool.not.i.i1064, label %ehcleanup49, label %if.end8.sink.split.i.i1069

if.end8.sink.split.i.i1069:                       ; preds = %if.else.i.i1065, %lpad46
  %.sink.i.i1066 = phi i64 [ 4, %lpad46 ], [ 5, %if.else.i.i1065 ]
  %vtable6.i.i1067 = load ptr, ptr %138, align 8, !tbaa !15
  %vfn7.i.i1068 = getelementptr inbounds ptr, ptr %vtable6.i.i1067, i64 %.sink.i.i1066
  %139 = load ptr, ptr %vfn7.i.i1068, align 8
  call void %139(ptr noundef nonnull align 8 dereferenceable(8) %138) #24
  br label %ehcleanup49

ehcleanup49:                                      ; preds = %if.end8.sink.split.i.i1069, %if.else.i.i1065
  %140 = load ptr, ptr %__f_.i.i.i473, align 16, !tbaa !21
  %cmp.i.i1072 = icmp eq ptr %140, %agg.tmp40
  br i1 %cmp.i.i1072, label %eh.resume.sink.split, label %if.else.i.i1074

if.else.i.i1074:                                  ; preds = %ehcleanup49
  %tobool.not.i.i1073 = icmp eq ptr %140, null
  br i1 %tobool.not.i.i1073, label %eh.resume, label %eh.resume.sink.split

lpad56:                                           ; preds = %invoke.cont55
  %141 = landingpad { ptr, i32 }
          cleanup
  %142 = load ptr, ptr %__f_.i.i.i494, align 16, !tbaa !23
  %cmp.i.i1081 = icmp eq ptr %142, %agg.tmp52
  br i1 %cmp.i.i1081, label %if.end8.sink.split.i.i1087, label %if.else.i.i1083

if.else.i.i1083:                                  ; preds = %lpad56
  %tobool.not.i.i1082 = icmp eq ptr %142, null
  br i1 %tobool.not.i.i1082, label %ehcleanup59, label %if.end8.sink.split.i.i1087

if.end8.sink.split.i.i1087:                       ; preds = %if.else.i.i1083, %lpad56
  %.sink.i.i1084 = phi i64 [ 4, %lpad56 ], [ 5, %if.else.i.i1083 ]
  %vtable6.i.i1085 = load ptr, ptr %142, align 8, !tbaa !15
  %vfn7.i.i1086 = getelementptr inbounds ptr, ptr %vtable6.i.i1085, i64 %.sink.i.i1084
  %143 = load ptr, ptr %vfn7.i.i1086, align 8
  call void %143(ptr noundef nonnull align 8 dereferenceable(8) %142) #24
  br label %ehcleanup59

ehcleanup59:                                      ; preds = %if.end8.sink.split.i.i1087, %if.else.i.i1083
  %144 = load ptr, ptr %__f_.i.i.i493, align 16, !tbaa !23
  %cmp.i.i1090 = icmp eq ptr %144, %agg.tmp50
  br i1 %cmp.i.i1090, label %eh.resume.sink.split, label %if.else.i.i1092

if.else.i.i1092:                                  ; preds = %ehcleanup59
  %tobool.not.i.i1091 = icmp eq ptr %144, null
  br i1 %tobool.not.i.i1091, label %eh.resume, label %eh.resume.sink.split

lpad70:                                           ; preds = %invoke.cont69
  %145 = landingpad { ptr, i32 }
          cleanup
  %146 = load ptr, ptr %__f_.i.i.i514, align 16, !tbaa !17
  %cmp.i.i1099 = icmp eq ptr %146, %agg.tmp66
  br i1 %cmp.i.i1099, label %if.end8.sink.split.i.i1105, label %if.else.i.i1101

if.else.i.i1101:                                  ; preds = %lpad70
  %tobool.not.i.i1100 = icmp eq ptr %146, null
  br i1 %tobool.not.i.i1100, label %ehcleanup73, label %if.end8.sink.split.i.i1105

if.end8.sink.split.i.i1105:                       ; preds = %if.else.i.i1101, %lpad70
  %.sink.i.i1102 = phi i64 [ 4, %lpad70 ], [ 5, %if.else.i.i1101 ]
  %vtable6.i.i1103 = load ptr, ptr %146, align 8, !tbaa !15
  %vfn7.i.i1104 = getelementptr inbounds ptr, ptr %vtable6.i.i1103, i64 %.sink.i.i1102
  %147 = load ptr, ptr %vfn7.i.i1104, align 8
  call void %147(ptr noundef nonnull align 8 dereferenceable(8) %146) #24
  br label %ehcleanup73

ehcleanup73:                                      ; preds = %if.end8.sink.split.i.i1105, %if.else.i.i1101
  %148 = load ptr, ptr %__f_.i.i.i513, align 16, !tbaa !17
  %cmp.i.i1108 = icmp eq ptr %148, %agg.tmp64
  br i1 %cmp.i.i1108, label %eh.resume.sink.split, label %if.else.i.i1110

if.else.i.i1110:                                  ; preds = %ehcleanup73
  %tobool.not.i.i1109 = icmp eq ptr %148, null
  br i1 %tobool.not.i.i1109, label %eh.resume, label %eh.resume.sink.split

lpad80:                                           ; preds = %invoke.cont79
  %149 = landingpad { ptr, i32 }
          cleanup
  %150 = load ptr, ptr %__f_.i.i.i534, align 16, !tbaa !21
  %cmp.i.i1117 = icmp eq ptr %150, %agg.tmp76
  br i1 %cmp.i.i1117, label %if.end8.sink.split.i.i1123, label %if.else.i.i1119

if.else.i.i1119:                                  ; preds = %lpad80
  %tobool.not.i.i1118 = icmp eq ptr %150, null
  br i1 %tobool.not.i.i1118, label %ehcleanup83, label %if.end8.sink.split.i.i1123

if.end8.sink.split.i.i1123:                       ; preds = %if.else.i.i1119, %lpad80
  %.sink.i.i1120 = phi i64 [ 4, %lpad80 ], [ 5, %if.else.i.i1119 ]
  %vtable6.i.i1121 = load ptr, ptr %150, align 8, !tbaa !15
  %vfn7.i.i1122 = getelementptr inbounds ptr, ptr %vtable6.i.i1121, i64 %.sink.i.i1120
  %151 = load ptr, ptr %vfn7.i.i1122, align 8
  call void %151(ptr noundef nonnull align 8 dereferenceable(8) %150) #24
  br label %ehcleanup83

ehcleanup83:                                      ; preds = %if.end8.sink.split.i.i1123, %if.else.i.i1119
  %152 = load ptr, ptr %__f_.i.i.i533, align 16, !tbaa !21
  %cmp.i.i1126 = icmp eq ptr %152, %agg.tmp74
  br i1 %cmp.i.i1126, label %eh.resume.sink.split, label %if.else.i.i1128

if.else.i.i1128:                                  ; preds = %ehcleanup83
  %tobool.not.i.i1127 = icmp eq ptr %152, null
  br i1 %tobool.not.i.i1127, label %eh.resume, label %eh.resume.sink.split

lpad90:                                           ; preds = %invoke.cont89
  %153 = landingpad { ptr, i32 }
          cleanup
  %154 = load ptr, ptr %__f_.i.i.i554, align 16, !tbaa !23
  %cmp.i.i1135 = icmp eq ptr %154, %agg.tmp86
  br i1 %cmp.i.i1135, label %if.end8.sink.split.i.i1141, label %if.else.i.i1137

if.else.i.i1137:                                  ; preds = %lpad90
  %tobool.not.i.i1136 = icmp eq ptr %154, null
  br i1 %tobool.not.i.i1136, label %ehcleanup93, label %if.end8.sink.split.i.i1141

if.end8.sink.split.i.i1141:                       ; preds = %if.else.i.i1137, %lpad90
  %.sink.i.i1138 = phi i64 [ 4, %lpad90 ], [ 5, %if.else.i.i1137 ]
  %vtable6.i.i1139 = load ptr, ptr %154, align 8, !tbaa !15
  %vfn7.i.i1140 = getelementptr inbounds ptr, ptr %vtable6.i.i1139, i64 %.sink.i.i1138
  %155 = load ptr, ptr %vfn7.i.i1140, align 8
  call void %155(ptr noundef nonnull align 8 dereferenceable(8) %154) #24
  br label %ehcleanup93

ehcleanup93:                                      ; preds = %if.end8.sink.split.i.i1141, %if.else.i.i1137
  %156 = load ptr, ptr %__f_.i.i.i553, align 16, !tbaa !23
  %cmp.i.i1144 = icmp eq ptr %156, %agg.tmp84
  br i1 %cmp.i.i1144, label %eh.resume.sink.split, label %if.else.i.i1146

if.else.i.i1146:                                  ; preds = %ehcleanup93
  %tobool.not.i.i1145 = icmp eq ptr %156, null
  br i1 %tobool.not.i.i1145, label %eh.resume, label %eh.resume.sink.split

lpad104:                                          ; preds = %invoke.cont103
  %157 = landingpad { ptr, i32 }
          cleanup
  %158 = load ptr, ptr %__f_.i.i.i574, align 16, !tbaa !17
  %cmp.i.i1153 = icmp eq ptr %158, %agg.tmp100
  br i1 %cmp.i.i1153, label %if.end8.sink.split.i.i1159, label %if.else.i.i1155

if.else.i.i1155:                                  ; preds = %lpad104
  %tobool.not.i.i1154 = icmp eq ptr %158, null
  br i1 %tobool.not.i.i1154, label %ehcleanup107, label %if.end8.sink.split.i.i1159

if.end8.sink.split.i.i1159:                       ; preds = %if.else.i.i1155, %lpad104
  %.sink.i.i1156 = phi i64 [ 4, %lpad104 ], [ 5, %if.else.i.i1155 ]
  %vtable6.i.i1157 = load ptr, ptr %158, align 8, !tbaa !15
  %vfn7.i.i1158 = getelementptr inbounds ptr, ptr %vtable6.i.i1157, i64 %.sink.i.i1156
  %159 = load ptr, ptr %vfn7.i.i1158, align 8
  call void %159(ptr noundef nonnull align 8 dereferenceable(8) %158) #24
  br label %ehcleanup107

ehcleanup107:                                     ; preds = %if.end8.sink.split.i.i1159, %if.else.i.i1155
  %160 = load ptr, ptr %__f_.i.i.i573, align 16, !tbaa !17
  %cmp.i.i1162 = icmp eq ptr %160, %agg.tmp98
  br i1 %cmp.i.i1162, label %eh.resume.sink.split, label %if.else.i.i1164

if.else.i.i1164:                                  ; preds = %ehcleanup107
  %tobool.not.i.i1163 = icmp eq ptr %160, null
  br i1 %tobool.not.i.i1163, label %eh.resume, label %eh.resume.sink.split

lpad114:                                          ; preds = %invoke.cont113
  %161 = landingpad { ptr, i32 }
          cleanup
  %162 = load ptr, ptr %__f_.i.i.i594, align 16, !tbaa !21
  %cmp.i.i1171 = icmp eq ptr %162, %agg.tmp110
  br i1 %cmp.i.i1171, label %if.end8.sink.split.i.i1177, label %if.else.i.i1173

if.else.i.i1173:                                  ; preds = %lpad114
  %tobool.not.i.i1172 = icmp eq ptr %162, null
  br i1 %tobool.not.i.i1172, label %ehcleanup117, label %if.end8.sink.split.i.i1177

if.end8.sink.split.i.i1177:                       ; preds = %if.else.i.i1173, %lpad114
  %.sink.i.i1174 = phi i64 [ 4, %lpad114 ], [ 5, %if.else.i.i1173 ]
  %vtable6.i.i1175 = load ptr, ptr %162, align 8, !tbaa !15
  %vfn7.i.i1176 = getelementptr inbounds ptr, ptr %vtable6.i.i1175, i64 %.sink.i.i1174
  %163 = load ptr, ptr %vfn7.i.i1176, align 8
  call void %163(ptr noundef nonnull align 8 dereferenceable(8) %162) #24
  br label %ehcleanup117

ehcleanup117:                                     ; preds = %if.end8.sink.split.i.i1177, %if.else.i.i1173
  %164 = load ptr, ptr %__f_.i.i.i593, align 16, !tbaa !21
  %cmp.i.i1180 = icmp eq ptr %164, %agg.tmp108
  br i1 %cmp.i.i1180, label %eh.resume.sink.split, label %if.else.i.i1182

if.else.i.i1182:                                  ; preds = %ehcleanup117
  %tobool.not.i.i1181 = icmp eq ptr %164, null
  br i1 %tobool.not.i.i1181, label %eh.resume, label %eh.resume.sink.split

lpad124:                                          ; preds = %invoke.cont123
  %165 = landingpad { ptr, i32 }
          cleanup
  %166 = load ptr, ptr %__f_.i.i.i614, align 16, !tbaa !23
  %cmp.i.i1189 = icmp eq ptr %166, %agg.tmp120
  br i1 %cmp.i.i1189, label %if.end8.sink.split.i.i1195, label %if.else.i.i1191

if.else.i.i1191:                                  ; preds = %lpad124
  %tobool.not.i.i1190 = icmp eq ptr %166, null
  br i1 %tobool.not.i.i1190, label %ehcleanup127, label %if.end8.sink.split.i.i1195

if.end8.sink.split.i.i1195:                       ; preds = %if.else.i.i1191, %lpad124
  %.sink.i.i1192 = phi i64 [ 4, %lpad124 ], [ 5, %if.else.i.i1191 ]
  %vtable6.i.i1193 = load ptr, ptr %166, align 8, !tbaa !15
  %vfn7.i.i1194 = getelementptr inbounds ptr, ptr %vtable6.i.i1193, i64 %.sink.i.i1192
  %167 = load ptr, ptr %vfn7.i.i1194, align 8
  call void %167(ptr noundef nonnull align 8 dereferenceable(8) %166) #24
  br label %ehcleanup127

ehcleanup127:                                     ; preds = %if.end8.sink.split.i.i1195, %if.else.i.i1191
  %168 = load ptr, ptr %__f_.i.i.i613, align 16, !tbaa !23
  %cmp.i.i1198 = icmp eq ptr %168, %agg.tmp118
  br i1 %cmp.i.i1198, label %eh.resume.sink.split, label %if.else.i.i1200

if.else.i.i1200:                                  ; preds = %ehcleanup127
  %tobool.not.i.i1199 = icmp eq ptr %168, null
  br i1 %tobool.not.i.i1199, label %eh.resume, label %eh.resume.sink.split

lpad138:                                          ; preds = %invoke.cont137
  %169 = landingpad { ptr, i32 }
          cleanup
  %170 = load ptr, ptr %__f_.i.i.i634, align 16, !tbaa !17
  %cmp.i.i1207 = icmp eq ptr %170, %agg.tmp134
  br i1 %cmp.i.i1207, label %if.end8.sink.split.i.i1213, label %if.else.i.i1209

if.else.i.i1209:                                  ; preds = %lpad138
  %tobool.not.i.i1208 = icmp eq ptr %170, null
  br i1 %tobool.not.i.i1208, label %ehcleanup141, label %if.end8.sink.split.i.i1213

if.end8.sink.split.i.i1213:                       ; preds = %if.else.i.i1209, %lpad138
  %.sink.i.i1210 = phi i64 [ 4, %lpad138 ], [ 5, %if.else.i.i1209 ]
  %vtable6.i.i1211 = load ptr, ptr %170, align 8, !tbaa !15
  %vfn7.i.i1212 = getelementptr inbounds ptr, ptr %vtable6.i.i1211, i64 %.sink.i.i1210
  %171 = load ptr, ptr %vfn7.i.i1212, align 8
  call void %171(ptr noundef nonnull align 8 dereferenceable(8) %170) #24
  br label %ehcleanup141

ehcleanup141:                                     ; preds = %if.end8.sink.split.i.i1213, %if.else.i.i1209
  %172 = load ptr, ptr %__f_.i.i.i633, align 16, !tbaa !17
  %cmp.i.i1216 = icmp eq ptr %172, %agg.tmp132
  br i1 %cmp.i.i1216, label %eh.resume.sink.split, label %if.else.i.i1218

if.else.i.i1218:                                  ; preds = %ehcleanup141
  %tobool.not.i.i1217 = icmp eq ptr %172, null
  br i1 %tobool.not.i.i1217, label %eh.resume, label %eh.resume.sink.split

lpad148:                                          ; preds = %invoke.cont147
  %173 = landingpad { ptr, i32 }
          cleanup
  %174 = load ptr, ptr %__f_.i.i.i654, align 16, !tbaa !21
  %cmp.i.i1225 = icmp eq ptr %174, %agg.tmp144
  br i1 %cmp.i.i1225, label %if.end8.sink.split.i.i1231, label %if.else.i.i1227

if.else.i.i1227:                                  ; preds = %lpad148
  %tobool.not.i.i1226 = icmp eq ptr %174, null
  br i1 %tobool.not.i.i1226, label %ehcleanup151, label %if.end8.sink.split.i.i1231

if.end8.sink.split.i.i1231:                       ; preds = %if.else.i.i1227, %lpad148
  %.sink.i.i1228 = phi i64 [ 4, %lpad148 ], [ 5, %if.else.i.i1227 ]
  %vtable6.i.i1229 = load ptr, ptr %174, align 8, !tbaa !15
  %vfn7.i.i1230 = getelementptr inbounds ptr, ptr %vtable6.i.i1229, i64 %.sink.i.i1228
  %175 = load ptr, ptr %vfn7.i.i1230, align 8
  call void %175(ptr noundef nonnull align 8 dereferenceable(8) %174) #24
  br label %ehcleanup151

ehcleanup151:                                     ; preds = %if.end8.sink.split.i.i1231, %if.else.i.i1227
  %176 = load ptr, ptr %__f_.i.i.i653, align 16, !tbaa !21
  %cmp.i.i1234 = icmp eq ptr %176, %agg.tmp142
  br i1 %cmp.i.i1234, label %eh.resume.sink.split, label %if.else.i.i1236

if.else.i.i1236:                                  ; preds = %ehcleanup151
  %tobool.not.i.i1235 = icmp eq ptr %176, null
  br i1 %tobool.not.i.i1235, label %eh.resume, label %eh.resume.sink.split

lpad158:                                          ; preds = %invoke.cont157
  %177 = landingpad { ptr, i32 }
          cleanup
  %178 = load ptr, ptr %__f_.i.i.i674, align 16, !tbaa !23
  %cmp.i.i1243 = icmp eq ptr %178, %agg.tmp154
  br i1 %cmp.i.i1243, label %if.end8.sink.split.i.i1249, label %if.else.i.i1245

if.else.i.i1245:                                  ; preds = %lpad158
  %tobool.not.i.i1244 = icmp eq ptr %178, null
  br i1 %tobool.not.i.i1244, label %ehcleanup161, label %if.end8.sink.split.i.i1249

if.end8.sink.split.i.i1249:                       ; preds = %if.else.i.i1245, %lpad158
  %.sink.i.i1246 = phi i64 [ 4, %lpad158 ], [ 5, %if.else.i.i1245 ]
  %vtable6.i.i1247 = load ptr, ptr %178, align 8, !tbaa !15
  %vfn7.i.i1248 = getelementptr inbounds ptr, ptr %vtable6.i.i1247, i64 %.sink.i.i1246
  %179 = load ptr, ptr %vfn7.i.i1248, align 8
  call void %179(ptr noundef nonnull align 8 dereferenceable(8) %178) #24
  br label %ehcleanup161

ehcleanup161:                                     ; preds = %if.end8.sink.split.i.i1249, %if.else.i.i1245
  %180 = load ptr, ptr %__f_.i.i.i673, align 16, !tbaa !23
  %cmp.i.i1252 = icmp eq ptr %180, %agg.tmp152
  br i1 %cmp.i.i1252, label %eh.resume.sink.split, label %if.else.i.i1254

if.else.i.i1254:                                  ; preds = %ehcleanup161
  %tobool.not.i.i1253 = icmp eq ptr %180, null
  br i1 %tobool.not.i.i1253, label %eh.resume, label %eh.resume.sink.split

lpad172:                                          ; preds = %invoke.cont171
  %181 = landingpad { ptr, i32 }
          cleanup
  %182 = load ptr, ptr %__f_.i.i.i694, align 16, !tbaa !17
  %cmp.i.i1261 = icmp eq ptr %182, %agg.tmp168
  br i1 %cmp.i.i1261, label %if.end8.sink.split.i.i1267, label %if.else.i.i1263

if.else.i.i1263:                                  ; preds = %lpad172
  %tobool.not.i.i1262 = icmp eq ptr %182, null
  br i1 %tobool.not.i.i1262, label %ehcleanup175, label %if.end8.sink.split.i.i1267

if.end8.sink.split.i.i1267:                       ; preds = %if.else.i.i1263, %lpad172
  %.sink.i.i1264 = phi i64 [ 4, %lpad172 ], [ 5, %if.else.i.i1263 ]
  %vtable6.i.i1265 = load ptr, ptr %182, align 8, !tbaa !15
  %vfn7.i.i1266 = getelementptr inbounds ptr, ptr %vtable6.i.i1265, i64 %.sink.i.i1264
  %183 = load ptr, ptr %vfn7.i.i1266, align 8
  call void %183(ptr noundef nonnull align 8 dereferenceable(8) %182) #24
  br label %ehcleanup175

ehcleanup175:                                     ; preds = %if.end8.sink.split.i.i1267, %if.else.i.i1263
  %184 = load ptr, ptr %__f_.i.i.i693, align 16, !tbaa !17
  %cmp.i.i1270 = icmp eq ptr %184, %agg.tmp166
  br i1 %cmp.i.i1270, label %eh.resume.sink.split, label %if.else.i.i1272

if.else.i.i1272:                                  ; preds = %ehcleanup175
  %tobool.not.i.i1271 = icmp eq ptr %184, null
  br i1 %tobool.not.i.i1271, label %eh.resume, label %eh.resume.sink.split

lpad182:                                          ; preds = %invoke.cont181
  %185 = landingpad { ptr, i32 }
          cleanup
  %186 = load ptr, ptr %__f_.i.i.i714, align 16, !tbaa !21
  %cmp.i.i1279 = icmp eq ptr %186, %agg.tmp178
  br i1 %cmp.i.i1279, label %if.end8.sink.split.i.i1285, label %if.else.i.i1281

if.else.i.i1281:                                  ; preds = %lpad182
  %tobool.not.i.i1280 = icmp eq ptr %186, null
  br i1 %tobool.not.i.i1280, label %ehcleanup185, label %if.end8.sink.split.i.i1285

if.end8.sink.split.i.i1285:                       ; preds = %if.else.i.i1281, %lpad182
  %.sink.i.i1282 = phi i64 [ 4, %lpad182 ], [ 5, %if.else.i.i1281 ]
  %vtable6.i.i1283 = load ptr, ptr %186, align 8, !tbaa !15
  %vfn7.i.i1284 = getelementptr inbounds ptr, ptr %vtable6.i.i1283, i64 %.sink.i.i1282
  %187 = load ptr, ptr %vfn7.i.i1284, align 8
  call void %187(ptr noundef nonnull align 8 dereferenceable(8) %186) #24
  br label %ehcleanup185

ehcleanup185:                                     ; preds = %if.end8.sink.split.i.i1285, %if.else.i.i1281
  %188 = load ptr, ptr %__f_.i.i.i713, align 16, !tbaa !21
  %cmp.i.i1288 = icmp eq ptr %188, %agg.tmp176
  br i1 %cmp.i.i1288, label %eh.resume.sink.split, label %if.else.i.i1290

if.else.i.i1290:                                  ; preds = %ehcleanup185
  %tobool.not.i.i1289 = icmp eq ptr %188, null
  br i1 %tobool.not.i.i1289, label %eh.resume, label %eh.resume.sink.split

lpad192:                                          ; preds = %invoke.cont191
  %189 = landingpad { ptr, i32 }
          cleanup
  %190 = load ptr, ptr %__f_.i.i.i734, align 16, !tbaa !23
  %cmp.i.i1297 = icmp eq ptr %190, %agg.tmp188
  br i1 %cmp.i.i1297, label %if.end8.sink.split.i.i1303, label %if.else.i.i1299

if.else.i.i1299:                                  ; preds = %lpad192
  %tobool.not.i.i1298 = icmp eq ptr %190, null
  br i1 %tobool.not.i.i1298, label %ehcleanup195, label %if.end8.sink.split.i.i1303

if.end8.sink.split.i.i1303:                       ; preds = %if.else.i.i1299, %lpad192
  %.sink.i.i1300 = phi i64 [ 4, %lpad192 ], [ 5, %if.else.i.i1299 ]
  %vtable6.i.i1301 = load ptr, ptr %190, align 8, !tbaa !15
  %vfn7.i.i1302 = getelementptr inbounds ptr, ptr %vtable6.i.i1301, i64 %.sink.i.i1300
  %191 = load ptr, ptr %vfn7.i.i1302, align 8
  call void %191(ptr noundef nonnull align 8 dereferenceable(8) %190) #24
  br label %ehcleanup195

ehcleanup195:                                     ; preds = %if.end8.sink.split.i.i1303, %if.else.i.i1299
  %192 = load ptr, ptr %__f_.i.i.i733, align 16, !tbaa !23
  %cmp.i.i1306 = icmp eq ptr %192, %agg.tmp186
  br i1 %cmp.i.i1306, label %eh.resume.sink.split, label %if.else.i.i1308

if.else.i.i1308:                                  ; preds = %ehcleanup195
  %tobool.not.i.i1307 = icmp eq ptr %192, null
  br i1 %tobool.not.i.i1307, label %eh.resume, label %eh.resume.sink.split

lpad206:                                          ; preds = %invoke.cont205
  %193 = landingpad { ptr, i32 }
          cleanup
  %194 = load ptr, ptr %__f_.i.i.i754, align 16, !tbaa !17
  %cmp.i.i1315 = icmp eq ptr %194, %agg.tmp202
  br i1 %cmp.i.i1315, label %if.end8.sink.split.i.i1321, label %if.else.i.i1317

if.else.i.i1317:                                  ; preds = %lpad206
  %tobool.not.i.i1316 = icmp eq ptr %194, null
  br i1 %tobool.not.i.i1316, label %ehcleanup209, label %if.end8.sink.split.i.i1321

if.end8.sink.split.i.i1321:                       ; preds = %if.else.i.i1317, %lpad206
  %.sink.i.i1318 = phi i64 [ 4, %lpad206 ], [ 5, %if.else.i.i1317 ]
  %vtable6.i.i1319 = load ptr, ptr %194, align 8, !tbaa !15
  %vfn7.i.i1320 = getelementptr inbounds ptr, ptr %vtable6.i.i1319, i64 %.sink.i.i1318
  %195 = load ptr, ptr %vfn7.i.i1320, align 8
  call void %195(ptr noundef nonnull align 8 dereferenceable(8) %194) #24
  br label %ehcleanup209

ehcleanup209:                                     ; preds = %if.end8.sink.split.i.i1321, %if.else.i.i1317
  %196 = load ptr, ptr %__f_.i.i.i753, align 16, !tbaa !17
  %cmp.i.i1324 = icmp eq ptr %196, %agg.tmp200
  br i1 %cmp.i.i1324, label %eh.resume.sink.split, label %if.else.i.i1326

if.else.i.i1326:                                  ; preds = %ehcleanup209
  %tobool.not.i.i1325 = icmp eq ptr %196, null
  br i1 %tobool.not.i.i1325, label %eh.resume, label %eh.resume.sink.split

lpad216:                                          ; preds = %invoke.cont215
  %197 = landingpad { ptr, i32 }
          cleanup
  %198 = load ptr, ptr %__f_.i.i.i774, align 16, !tbaa !21
  %cmp.i.i1333 = icmp eq ptr %198, %agg.tmp212
  br i1 %cmp.i.i1333, label %if.end8.sink.split.i.i1339, label %if.else.i.i1335

if.else.i.i1335:                                  ; preds = %lpad216
  %tobool.not.i.i1334 = icmp eq ptr %198, null
  br i1 %tobool.not.i.i1334, label %ehcleanup219, label %if.end8.sink.split.i.i1339

if.end8.sink.split.i.i1339:                       ; preds = %if.else.i.i1335, %lpad216
  %.sink.i.i1336 = phi i64 [ 4, %lpad216 ], [ 5, %if.else.i.i1335 ]
  %vtable6.i.i1337 = load ptr, ptr %198, align 8, !tbaa !15
  %vfn7.i.i1338 = getelementptr inbounds ptr, ptr %vtable6.i.i1337, i64 %.sink.i.i1336
  %199 = load ptr, ptr %vfn7.i.i1338, align 8
  call void %199(ptr noundef nonnull align 8 dereferenceable(8) %198) #24
  br label %ehcleanup219

ehcleanup219:                                     ; preds = %if.end8.sink.split.i.i1339, %if.else.i.i1335
  %200 = load ptr, ptr %__f_.i.i.i773, align 16, !tbaa !21
  %cmp.i.i1342 = icmp eq ptr %200, %agg.tmp210
  br i1 %cmp.i.i1342, label %eh.resume.sink.split, label %if.else.i.i1344

if.else.i.i1344:                                  ; preds = %ehcleanup219
  %tobool.not.i.i1343 = icmp eq ptr %200, null
  br i1 %tobool.not.i.i1343, label %eh.resume, label %eh.resume.sink.split

lpad226:                                          ; preds = %invoke.cont225
  %201 = landingpad { ptr, i32 }
          cleanup
  %202 = load ptr, ptr %__f_.i.i.i794, align 16, !tbaa !23
  %cmp.i.i1351 = icmp eq ptr %202, %agg.tmp222
  br i1 %cmp.i.i1351, label %if.end8.sink.split.i.i1357, label %if.else.i.i1353

if.else.i.i1353:                                  ; preds = %lpad226
  %tobool.not.i.i1352 = icmp eq ptr %202, null
  br i1 %tobool.not.i.i1352, label %ehcleanup229, label %if.end8.sink.split.i.i1357

if.end8.sink.split.i.i1357:                       ; preds = %if.else.i.i1353, %lpad226
  %.sink.i.i1354 = phi i64 [ 4, %lpad226 ], [ 5, %if.else.i.i1353 ]
  %vtable6.i.i1355 = load ptr, ptr %202, align 8, !tbaa !15
  %vfn7.i.i1356 = getelementptr inbounds ptr, ptr %vtable6.i.i1355, i64 %.sink.i.i1354
  %203 = load ptr, ptr %vfn7.i.i1356, align 8
  call void %203(ptr noundef nonnull align 8 dereferenceable(8) %202) #24
  br label %ehcleanup229

ehcleanup229:                                     ; preds = %if.end8.sink.split.i.i1357, %if.else.i.i1353
  %204 = load ptr, ptr %__f_.i.i.i793, align 16, !tbaa !23
  %cmp.i.i1360 = icmp eq ptr %204, %agg.tmp220
  br i1 %cmp.i.i1360, label %eh.resume.sink.split, label %if.else.i.i1362

if.else.i.i1362:                                  ; preds = %ehcleanup229
  %tobool.not.i.i1361 = icmp eq ptr %204, null
  br i1 %tobool.not.i.i1361, label %eh.resume, label %eh.resume.sink.split

lpad240:                                          ; preds = %invoke.cont239
  %205 = landingpad { ptr, i32 }
          cleanup
  %206 = load ptr, ptr %__f_.i.i.i814, align 16, !tbaa !17
  %cmp.i.i1369 = icmp eq ptr %206, %agg.tmp236
  br i1 %cmp.i.i1369, label %if.end8.sink.split.i.i1375, label %if.else.i.i1371

if.else.i.i1371:                                  ; preds = %lpad240
  %tobool.not.i.i1370 = icmp eq ptr %206, null
  br i1 %tobool.not.i.i1370, label %ehcleanup243, label %if.end8.sink.split.i.i1375

if.end8.sink.split.i.i1375:                       ; preds = %if.else.i.i1371, %lpad240
  %.sink.i.i1372 = phi i64 [ 4, %lpad240 ], [ 5, %if.else.i.i1371 ]
  %vtable6.i.i1373 = load ptr, ptr %206, align 8, !tbaa !15
  %vfn7.i.i1374 = getelementptr inbounds ptr, ptr %vtable6.i.i1373, i64 %.sink.i.i1372
  %207 = load ptr, ptr %vfn7.i.i1374, align 8
  call void %207(ptr noundef nonnull align 8 dereferenceable(8) %206) #24
  br label %ehcleanup243

ehcleanup243:                                     ; preds = %if.end8.sink.split.i.i1375, %if.else.i.i1371
  %208 = load ptr, ptr %__f_.i.i.i813, align 16, !tbaa !17
  %cmp.i.i1378 = icmp eq ptr %208, %agg.tmp234
  br i1 %cmp.i.i1378, label %eh.resume.sink.split, label %if.else.i.i1380

if.else.i.i1380:                                  ; preds = %ehcleanup243
  %tobool.not.i.i1379 = icmp eq ptr %208, null
  br i1 %tobool.not.i.i1379, label %eh.resume, label %eh.resume.sink.split

lpad250:                                          ; preds = %invoke.cont249
  %209 = landingpad { ptr, i32 }
          cleanup
  %210 = load ptr, ptr %__f_.i.i.i834, align 16, !tbaa !21
  %cmp.i.i1387 = icmp eq ptr %210, %agg.tmp246
  br i1 %cmp.i.i1387, label %if.end8.sink.split.i.i1393, label %if.else.i.i1389

if.else.i.i1389:                                  ; preds = %lpad250
  %tobool.not.i.i1388 = icmp eq ptr %210, null
  br i1 %tobool.not.i.i1388, label %ehcleanup253, label %if.end8.sink.split.i.i1393

if.end8.sink.split.i.i1393:                       ; preds = %if.else.i.i1389, %lpad250
  %.sink.i.i1390 = phi i64 [ 4, %lpad250 ], [ 5, %if.else.i.i1389 ]
  %vtable6.i.i1391 = load ptr, ptr %210, align 8, !tbaa !15
  %vfn7.i.i1392 = getelementptr inbounds ptr, ptr %vtable6.i.i1391, i64 %.sink.i.i1390
  %211 = load ptr, ptr %vfn7.i.i1392, align 8
  call void %211(ptr noundef nonnull align 8 dereferenceable(8) %210) #24
  br label %ehcleanup253

ehcleanup253:                                     ; preds = %if.end8.sink.split.i.i1393, %if.else.i.i1389
  %212 = load ptr, ptr %__f_.i.i.i833, align 16, !tbaa !21
  %cmp.i.i1396 = icmp eq ptr %212, %agg.tmp244
  br i1 %cmp.i.i1396, label %eh.resume.sink.split, label %if.else.i.i1398

if.else.i.i1398:                                  ; preds = %ehcleanup253
  %tobool.not.i.i1397 = icmp eq ptr %212, null
  br i1 %tobool.not.i.i1397, label %eh.resume, label %eh.resume.sink.split

lpad260:                                          ; preds = %invoke.cont259
  %213 = landingpad { ptr, i32 }
          cleanup
  %214 = load ptr, ptr %__f_.i.i.i854, align 16, !tbaa !23
  %cmp.i.i1405 = icmp eq ptr %214, %agg.tmp256
  br i1 %cmp.i.i1405, label %if.end8.sink.split.i.i1411, label %if.else.i.i1407

if.else.i.i1407:                                  ; preds = %lpad260
  %tobool.not.i.i1406 = icmp eq ptr %214, null
  br i1 %tobool.not.i.i1406, label %ehcleanup263, label %if.end8.sink.split.i.i1411

if.end8.sink.split.i.i1411:                       ; preds = %if.else.i.i1407, %lpad260
  %.sink.i.i1408 = phi i64 [ 4, %lpad260 ], [ 5, %if.else.i.i1407 ]
  %vtable6.i.i1409 = load ptr, ptr %214, align 8, !tbaa !15
  %vfn7.i.i1410 = getelementptr inbounds ptr, ptr %vtable6.i.i1409, i64 %.sink.i.i1408
  %215 = load ptr, ptr %vfn7.i.i1410, align 8
  call void %215(ptr noundef nonnull align 8 dereferenceable(8) %214) #24
  br label %ehcleanup263

ehcleanup263:                                     ; preds = %if.end8.sink.split.i.i1411, %if.else.i.i1407
  %216 = load ptr, ptr %__f_.i.i.i853, align 16, !tbaa !23
  %cmp.i.i1414 = icmp eq ptr %216, %agg.tmp254
  br i1 %cmp.i.i1414, label %eh.resume.sink.split, label %if.else.i.i1416

if.else.i.i1416:                                  ; preds = %ehcleanup263
  %tobool.not.i.i1415 = icmp eq ptr %216, null
  br i1 %tobool.not.i.i1415, label %eh.resume, label %eh.resume.sink.split

lpad274:                                          ; preds = %invoke.cont273
  %217 = landingpad { ptr, i32 }
          cleanup
  %218 = load ptr, ptr %__f_.i.i.i874, align 16, !tbaa !25
  %cmp.i.i1423 = icmp eq ptr %218, %agg.tmp270
  br i1 %cmp.i.i1423, label %if.end8.sink.split.i.i1429, label %if.else.i.i1425

if.else.i.i1425:                                  ; preds = %lpad274
  %tobool.not.i.i1424 = icmp eq ptr %218, null
  br i1 %tobool.not.i.i1424, label %ehcleanup277, label %if.end8.sink.split.i.i1429

if.end8.sink.split.i.i1429:                       ; preds = %if.else.i.i1425, %lpad274
  %.sink.i.i1426 = phi i64 [ 4, %lpad274 ], [ 5, %if.else.i.i1425 ]
  %vtable6.i.i1427 = load ptr, ptr %218, align 8, !tbaa !15
  %vfn7.i.i1428 = getelementptr inbounds ptr, ptr %vtable6.i.i1427, i64 %.sink.i.i1426
  %219 = load ptr, ptr %vfn7.i.i1428, align 8
  call void %219(ptr noundef nonnull align 8 dereferenceable(8) %218) #24
  br label %ehcleanup277

ehcleanup277:                                     ; preds = %if.end8.sink.split.i.i1429, %if.else.i.i1425
  %220 = load ptr, ptr %__f_.i.i.i873, align 16, !tbaa !25
  %cmp.i.i1432 = icmp eq ptr %220, %agg.tmp268
  br i1 %cmp.i.i1432, label %eh.resume.sink.split, label %if.else.i.i1434

if.else.i.i1434:                                  ; preds = %ehcleanup277
  %tobool.not.i.i1433 = icmp eq ptr %220, null
  br i1 %tobool.not.i.i1433, label %eh.resume, label %eh.resume.sink.split

lpad284:                                          ; preds = %invoke.cont283
  %221 = landingpad { ptr, i32 }
          cleanup
  %222 = load ptr, ptr %__f_.i.i.i893, align 16, !tbaa !27
  %cmp.i.i1441 = icmp eq ptr %222, %agg.tmp280
  br i1 %cmp.i.i1441, label %if.end8.sink.split.i.i1447, label %if.else.i.i1443

if.else.i.i1443:                                  ; preds = %lpad284
  %tobool.not.i.i1442 = icmp eq ptr %222, null
  br i1 %tobool.not.i.i1442, label %ehcleanup287, label %if.end8.sink.split.i.i1447

if.end8.sink.split.i.i1447:                       ; preds = %if.else.i.i1443, %lpad284
  %.sink.i.i1444 = phi i64 [ 4, %lpad284 ], [ 5, %if.else.i.i1443 ]
  %vtable6.i.i1445 = load ptr, ptr %222, align 8, !tbaa !15
  %vfn7.i.i1446 = getelementptr inbounds ptr, ptr %vtable6.i.i1445, i64 %.sink.i.i1444
  %223 = load ptr, ptr %vfn7.i.i1446, align 8
  call void %223(ptr noundef nonnull align 8 dereferenceable(8) %222) #24
  br label %ehcleanup287

ehcleanup287:                                     ; preds = %if.end8.sink.split.i.i1447, %if.else.i.i1443
  %224 = load ptr, ptr %__f_.i.i.i892, align 16, !tbaa !27
  %cmp.i.i1450 = icmp eq ptr %224, %agg.tmp278
  br i1 %cmp.i.i1450, label %eh.resume.sink.split, label %if.else.i.i1452

if.else.i.i1452:                                  ; preds = %ehcleanup287
  %tobool.not.i.i1451 = icmp eq ptr %224, null
  br i1 %tobool.not.i.i1451, label %eh.resume, label %eh.resume.sink.split

lpad294:                                          ; preds = %invoke.cont293
  %225 = landingpad { ptr, i32 }
          cleanup
  %226 = load ptr, ptr %__f_.i.i.i912, align 16, !tbaa !29
  %cmp.i.i1459 = icmp eq ptr %226, %agg.tmp290
  br i1 %cmp.i.i1459, label %if.end8.sink.split.i.i1465, label %if.else.i.i1461

if.else.i.i1461:                                  ; preds = %lpad294
  %tobool.not.i.i1460 = icmp eq ptr %226, null
  br i1 %tobool.not.i.i1460, label %ehcleanup297, label %if.end8.sink.split.i.i1465

if.end8.sink.split.i.i1465:                       ; preds = %if.else.i.i1461, %lpad294
  %.sink.i.i1462 = phi i64 [ 4, %lpad294 ], [ 5, %if.else.i.i1461 ]
  %vtable6.i.i1463 = load ptr, ptr %226, align 8, !tbaa !15
  %vfn7.i.i1464 = getelementptr inbounds ptr, ptr %vtable6.i.i1463, i64 %.sink.i.i1462
  %227 = load ptr, ptr %vfn7.i.i1464, align 8
  call void %227(ptr noundef nonnull align 8 dereferenceable(8) %226) #24
  br label %ehcleanup297

ehcleanup297:                                     ; preds = %if.end8.sink.split.i.i1465, %if.else.i.i1461
  %228 = load ptr, ptr %__f_.i.i.i911, align 16, !tbaa !29
  %cmp.i.i1468 = icmp eq ptr %228, %agg.tmp288
  br i1 %cmp.i.i1468, label %eh.resume.sink.split, label %if.else.i.i1470

if.else.i.i1470:                                  ; preds = %ehcleanup297
  %tobool.not.i.i1469 = icmp eq ptr %228, null
  br i1 %tobool.not.i.i1469, label %eh.resume, label %eh.resume.sink.split

lpad308:                                          ; preds = %invoke.cont307
  %229 = landingpad { ptr, i32 }
          cleanup
  %230 = load ptr, ptr %__f_.i.i.i931, align 16, !tbaa !27
  %cmp.i.i1477 = icmp eq ptr %230, %agg.tmp304
  br i1 %cmp.i.i1477, label %if.end8.sink.split.i.i1483, label %if.else.i.i1479

if.else.i.i1479:                                  ; preds = %lpad308
  %tobool.not.i.i1478 = icmp eq ptr %230, null
  br i1 %tobool.not.i.i1478, label %ehcleanup311, label %if.end8.sink.split.i.i1483

if.end8.sink.split.i.i1483:                       ; preds = %if.else.i.i1479, %lpad308
  %.sink.i.i1480 = phi i64 [ 4, %lpad308 ], [ 5, %if.else.i.i1479 ]
  %vtable6.i.i1481 = load ptr, ptr %230, align 8, !tbaa !15
  %vfn7.i.i1482 = getelementptr inbounds ptr, ptr %vtable6.i.i1481, i64 %.sink.i.i1480
  %231 = load ptr, ptr %vfn7.i.i1482, align 8
  call void %231(ptr noundef nonnull align 8 dereferenceable(8) %230) #24
  br label %ehcleanup311

ehcleanup311:                                     ; preds = %if.end8.sink.split.i.i1483, %if.else.i.i1479
  %232 = load ptr, ptr %__f_.i.i.i930, align 16, !tbaa !27
  %cmp.i.i1486 = icmp eq ptr %232, %agg.tmp302
  br i1 %cmp.i.i1486, label %eh.resume.sink.split, label %if.else.i.i1488

if.else.i.i1488:                                  ; preds = %ehcleanup311
  %tobool.not.i.i1487 = icmp eq ptr %232, null
  br i1 %tobool.not.i.i1487, label %eh.resume, label %eh.resume.sink.split

lpad318:                                          ; preds = %invoke.cont317
  %233 = landingpad { ptr, i32 }
          cleanup
  %234 = load ptr, ptr %__f_.i.i.i951, align 16, !tbaa !25
  %cmp.i.i1495 = icmp eq ptr %234, %agg.tmp314
  br i1 %cmp.i.i1495, label %if.end8.sink.split.i.i1501, label %if.else.i.i1497

if.else.i.i1497:                                  ; preds = %lpad318
  %tobool.not.i.i1496 = icmp eq ptr %234, null
  br i1 %tobool.not.i.i1496, label %ehcleanup321, label %if.end8.sink.split.i.i1501

if.end8.sink.split.i.i1501:                       ; preds = %if.else.i.i1497, %lpad318
  %.sink.i.i1498 = phi i64 [ 4, %lpad318 ], [ 5, %if.else.i.i1497 ]
  %vtable6.i.i1499 = load ptr, ptr %234, align 8, !tbaa !15
  %vfn7.i.i1500 = getelementptr inbounds ptr, ptr %vtable6.i.i1499, i64 %.sink.i.i1498
  %235 = load ptr, ptr %vfn7.i.i1500, align 8
  call void %235(ptr noundef nonnull align 8 dereferenceable(8) %234) #24
  br label %ehcleanup321

ehcleanup321:                                     ; preds = %if.end8.sink.split.i.i1501, %if.else.i.i1497
  %236 = load ptr, ptr %__f_.i.i.i950, align 16, !tbaa !25
  %cmp.i.i1504 = icmp eq ptr %236, %agg.tmp312
  br i1 %cmp.i.i1504, label %eh.resume.sink.split, label %if.else.i.i1506

if.else.i.i1506:                                  ; preds = %ehcleanup321
  %tobool.not.i.i1505 = icmp eq ptr %236, null
  br i1 %tobool.not.i.i1505, label %eh.resume, label %eh.resume.sink.split

lpad328:                                          ; preds = %invoke.cont327
  %237 = landingpad { ptr, i32 }
          cleanup
  %238 = load ptr, ptr %__f_.i.i.i971, align 16, !tbaa !29
  %cmp.i.i1513 = icmp eq ptr %238, %agg.tmp324
  br i1 %cmp.i.i1513, label %if.end8.sink.split.i.i1519, label %if.else.i.i1515

if.else.i.i1515:                                  ; preds = %lpad328
  %tobool.not.i.i1514 = icmp eq ptr %238, null
  br i1 %tobool.not.i.i1514, label %ehcleanup331, label %if.end8.sink.split.i.i1519

if.end8.sink.split.i.i1519:                       ; preds = %if.else.i.i1515, %lpad328
  %.sink.i.i1516 = phi i64 [ 4, %lpad328 ], [ 5, %if.else.i.i1515 ]
  %vtable6.i.i1517 = load ptr, ptr %238, align 8, !tbaa !15
  %vfn7.i.i1518 = getelementptr inbounds ptr, ptr %vtable6.i.i1517, i64 %.sink.i.i1516
  %239 = load ptr, ptr %vfn7.i.i1518, align 8
  call void %239(ptr noundef nonnull align 8 dereferenceable(8) %238) #24
  br label %ehcleanup331

ehcleanup331:                                     ; preds = %if.end8.sink.split.i.i1519, %if.else.i.i1515
  %240 = load ptr, ptr %__f_.i.i.i970, align 16, !tbaa !29
  %cmp.i.i1522 = icmp eq ptr %240, %agg.tmp322
  br i1 %cmp.i.i1522, label %eh.resume.sink.split, label %if.else.i.i1524

if.else.i.i1524:                                  ; preds = %ehcleanup331
  %tobool.not.i.i1523 = icmp eq ptr %240, null
  br i1 %tobool.not.i.i1523, label %eh.resume, label %eh.resume.sink.split

eh.resume.sink.split:                             ; preds = %ehcleanup331, %if.else.i.i1524, %ehcleanup321, %if.else.i.i1506, %ehcleanup311, %if.else.i.i1488, %ehcleanup297, %if.else.i.i1470, %ehcleanup287, %if.else.i.i1452, %ehcleanup277, %if.else.i.i1434, %ehcleanup263, %if.else.i.i1416, %ehcleanup253, %if.else.i.i1398, %ehcleanup243, %if.else.i.i1380, %ehcleanup229, %if.else.i.i1362, %ehcleanup219, %if.else.i.i1344, %ehcleanup209, %if.else.i.i1326, %ehcleanup195, %if.else.i.i1308, %ehcleanup185, %if.else.i.i1290, %ehcleanup175, %if.else.i.i1272, %ehcleanup161, %if.else.i.i1254, %ehcleanup151, %if.else.i.i1236, %ehcleanup141, %if.else.i.i1218, %ehcleanup127, %if.else.i.i1200, %ehcleanup117, %if.else.i.i1182, %ehcleanup107, %if.else.i.i1164, %ehcleanup93, %if.else.i.i1146, %ehcleanup83, %if.else.i.i1128, %ehcleanup73, %if.else.i.i1110, %ehcleanup59, %if.else.i.i1092, %ehcleanup49, %if.else.i.i1074, %ehcleanup39, %if.else.i.i1056, %ehcleanup25, %if.else.i.i1038, %ehcleanup15, %if.else.i.i1020, %ehcleanup, %if.else.i.i1002
  %.sink1531 = phi ptr [ %124, %if.else.i.i1002 ], [ %124, %ehcleanup ], [ %128, %if.else.i.i1020 ], [ %128, %ehcleanup15 ], [ %132, %if.else.i.i1038 ], [ %132, %ehcleanup25 ], [ %136, %if.else.i.i1056 ], [ %136, %ehcleanup39 ], [ %140, %if.else.i.i1074 ], [ %140, %ehcleanup49 ], [ %144, %if.else.i.i1092 ], [ %144, %ehcleanup59 ], [ %148, %if.else.i.i1110 ], [ %148, %ehcleanup73 ], [ %152, %if.else.i.i1128 ], [ %152, %ehcleanup83 ], [ %156, %if.else.i.i1146 ], [ %156, %ehcleanup93 ], [ %160, %if.else.i.i1164 ], [ %160, %ehcleanup107 ], [ %164, %if.else.i.i1182 ], [ %164, %ehcleanup117 ], [ %168, %if.else.i.i1200 ], [ %168, %ehcleanup127 ], [ %172, %if.else.i.i1218 ], [ %172, %ehcleanup141 ], [ %176, %if.else.i.i1236 ], [ %176, %ehcleanup151 ], [ %180, %if.else.i.i1254 ], [ %180, %ehcleanup161 ], [ %184, %if.else.i.i1272 ], [ %184, %ehcleanup175 ], [ %188, %if.else.i.i1290 ], [ %188, %ehcleanup185 ], [ %192, %if.else.i.i1308 ], [ %192, %ehcleanup195 ], [ %196, %if.else.i.i1326 ], [ %196, %ehcleanup209 ], [ %200, %if.else.i.i1344 ], [ %200, %ehcleanup219 ], [ %204, %if.else.i.i1362 ], [ %204, %ehcleanup229 ], [ %208, %if.else.i.i1380 ], [ %208, %ehcleanup243 ], [ %212, %if.else.i.i1398 ], [ %212, %ehcleanup253 ], [ %216, %if.else.i.i1416 ], [ %216, %ehcleanup263 ], [ %220, %if.else.i.i1434 ], [ %220, %ehcleanup277 ], [ %224, %if.else.i.i1452 ], [ %224, %ehcleanup287 ], [ %228, %if.else.i.i1470 ], [ %228, %ehcleanup297 ], [ %232, %if.else.i.i1488 ], [ %232, %ehcleanup311 ], [ %236, %if.else.i.i1506 ], [ %236, %ehcleanup321 ], [ %240, %if.else.i.i1524 ], [ %240, %ehcleanup331 ]
  %.sink.i.i1525.sink = phi i64 [ 5, %if.else.i.i1002 ], [ 4, %ehcleanup ], [ 5, %if.else.i.i1020 ], [ 4, %ehcleanup15 ], [ 5, %if.else.i.i1038 ], [ 4, %ehcleanup25 ], [ 5, %if.else.i.i1056 ], [ 4, %ehcleanup39 ], [ 5, %if.else.i.i1074 ], [ 4, %ehcleanup49 ], [ 5, %if.else.i.i1092 ], [ 4, %ehcleanup59 ], [ 5, %if.else.i.i1110 ], [ 4, %ehcleanup73 ], [ 5, %if.else.i.i1128 ], [ 4, %ehcleanup83 ], [ 5, %if.else.i.i1146 ], [ 4, %ehcleanup93 ], [ 5, %if.else.i.i1164 ], [ 4, %ehcleanup107 ], [ 5, %if.else.i.i1182 ], [ 4, %ehcleanup117 ], [ 5, %if.else.i.i1200 ], [ 4, %ehcleanup127 ], [ 5, %if.else.i.i1218 ], [ 4, %ehcleanup141 ], [ 5, %if.else.i.i1236 ], [ 4, %ehcleanup151 ], [ 5, %if.else.i.i1254 ], [ 4, %ehcleanup161 ], [ 5, %if.else.i.i1272 ], [ 4, %ehcleanup175 ], [ 5, %if.else.i.i1290 ], [ 4, %ehcleanup185 ], [ 5, %if.else.i.i1308 ], [ 4, %ehcleanup195 ], [ 5, %if.else.i.i1326 ], [ 4, %ehcleanup209 ], [ 5, %if.else.i.i1344 ], [ 4, %ehcleanup219 ], [ 5, %if.else.i.i1362 ], [ 4, %ehcleanup229 ], [ 5, %if.else.i.i1380 ], [ 4, %ehcleanup243 ], [ 5, %if.else.i.i1398 ], [ 4, %ehcleanup253 ], [ 5, %if.else.i.i1416 ], [ 4, %ehcleanup263 ], [ 5, %if.else.i.i1434 ], [ 4, %ehcleanup277 ], [ 5, %if.else.i.i1452 ], [ 4, %ehcleanup287 ], [ 5, %if.else.i.i1470 ], [ 4, %ehcleanup297 ], [ 5, %if.else.i.i1488 ], [ 4, %ehcleanup311 ], [ 5, %if.else.i.i1506 ], [ 4, %ehcleanup321 ], [ 5, %if.else.i.i1524 ], [ 4, %ehcleanup331 ]
  %.pn401.pn.pn.ph = phi { ptr, i32 } [ %121, %if.else.i.i1002 ], [ %121, %ehcleanup ], [ %125, %if.else.i.i1020 ], [ %125, %ehcleanup15 ], [ %129, %if.else.i.i1038 ], [ %129, %ehcleanup25 ], [ %133, %if.else.i.i1056 ], [ %133, %ehcleanup39 ], [ %137, %if.else.i.i1074 ], [ %137, %ehcleanup49 ], [ %141, %if.else.i.i1092 ], [ %141, %ehcleanup59 ], [ %145, %if.else.i.i1110 ], [ %145, %ehcleanup73 ], [ %149, %if.else.i.i1128 ], [ %149, %ehcleanup83 ], [ %153, %if.else.i.i1146 ], [ %153, %ehcleanup93 ], [ %157, %if.else.i.i1164 ], [ %157, %ehcleanup107 ], [ %161, %if.else.i.i1182 ], [ %161, %ehcleanup117 ], [ %165, %if.else.i.i1200 ], [ %165, %ehcleanup127 ], [ %169, %if.else.i.i1218 ], [ %169, %ehcleanup141 ], [ %173, %if.else.i.i1236 ], [ %173, %ehcleanup151 ], [ %177, %if.else.i.i1254 ], [ %177, %ehcleanup161 ], [ %181, %if.else.i.i1272 ], [ %181, %ehcleanup175 ], [ %185, %if.else.i.i1290 ], [ %185, %ehcleanup185 ], [ %189, %if.else.i.i1308 ], [ %189, %ehcleanup195 ], [ %193, %if.else.i.i1326 ], [ %193, %ehcleanup209 ], [ %197, %if.else.i.i1344 ], [ %197, %ehcleanup219 ], [ %201, %if.else.i.i1362 ], [ %201, %ehcleanup229 ], [ %205, %if.else.i.i1380 ], [ %205, %ehcleanup243 ], [ %209, %if.else.i.i1398 ], [ %209, %ehcleanup253 ], [ %213, %if.else.i.i1416 ], [ %213, %ehcleanup263 ], [ %217, %if.else.i.i1434 ], [ %217, %ehcleanup277 ], [ %221, %if.else.i.i1452 ], [ %221, %ehcleanup287 ], [ %225, %if.else.i.i1470 ], [ %225, %ehcleanup297 ], [ %229, %if.else.i.i1488 ], [ %229, %ehcleanup311 ], [ %233, %if.else.i.i1506 ], [ %233, %ehcleanup321 ], [ %237, %if.else.i.i1524 ], [ %237, %ehcleanup331 ]
  %vtable6.i.i1526 = load ptr, ptr %.sink1531, align 8, !tbaa !15
  %vfn7.i.i1527 = getelementptr inbounds ptr, ptr %vtable6.i.i1526, i64 %.sink.i.i1525.sink
  %241 = load ptr, ptr %vfn7.i.i1527, align 8
  call void %241(ptr noundef nonnull align 8 dereferenceable(8) %.sink1531) #24
  br label %eh.resume

eh.resume:                                        ; preds = %eh.resume.sink.split, %if.else.i.i1524, %if.else.i.i1506, %if.else.i.i1488, %if.else.i.i1470, %if.else.i.i1452, %if.else.i.i1434, %if.else.i.i1416, %if.else.i.i1398, %if.else.i.i1380, %if.else.i.i1362, %if.else.i.i1344, %if.else.i.i1326, %if.else.i.i1308, %if.else.i.i1290, %if.else.i.i1272, %if.else.i.i1254, %if.else.i.i1236, %if.else.i.i1218, %if.else.i.i1200, %if.else.i.i1182, %if.else.i.i1164, %if.else.i.i1146, %if.else.i.i1128, %if.else.i.i1110, %if.else.i.i1092, %if.else.i.i1074, %if.else.i.i1056, %if.else.i.i1038, %if.else.i.i1020, %if.else.i.i1002
  %.pn401.pn.pn = phi { ptr, i32 } [ %121, %if.else.i.i1002 ], [ %125, %if.else.i.i1020 ], [ %129, %if.else.i.i1038 ], [ %133, %if.else.i.i1056 ], [ %137, %if.else.i.i1074 ], [ %141, %if.else.i.i1092 ], [ %145, %if.else.i.i1110 ], [ %149, %if.else.i.i1128 ], [ %153, %if.else.i.i1146 ], [ %157, %if.else.i.i1164 ], [ %161, %if.else.i.i1182 ], [ %165, %if.else.i.i1200 ], [ %169, %if.else.i.i1218 ], [ %173, %if.else.i.i1236 ], [ %177, %if.else.i.i1254 ], [ %181, %if.else.i.i1272 ], [ %185, %if.else.i.i1290 ], [ %189, %if.else.i.i1308 ], [ %193, %if.else.i.i1326 ], [ %197, %if.else.i.i1344 ], [ %201, %if.else.i.i1362 ], [ %205, %if.else.i.i1380 ], [ %209, %if.else.i.i1398 ], [ %213, %if.else.i.i1416 ], [ %217, %if.else.i.i1434 ], [ %221, %if.else.i.i1452 ], [ %225, %if.else.i.i1470 ], [ %229, %if.else.i.i1488 ], [ %233, %if.else.i.i1506 ], [ %237, %if.else.i.i1524 ], [ %.pn401.pn.pn.ph, %eh.resume.sink.split ]
  resume { ptr, i32 } %.pn401.pn.pn
}

; Function Attrs: mustprogress nocallback nofree nosync nounwind willreturn memory(argmem: readwrite)
declare void @llvm.lifetime.start.p0(i64 immarg, ptr nocapture) #1

; Function Attrs: mustprogress nocallback nofree nounwind willreturn memory(argmem: readwrite)
declare void @llvm.memcpy.p0.p0.i64(ptr noalias nocapture writeonly, ptr noalias nocapture readonly, i64, i1 immarg) #2

; Function Attrs: mustprogress nocallback nofree nosync nounwind willreturn memory(argmem: readwrite)
declare void @llvm.lifetime.end.p0(i64 immarg, ptr nocapture) #1

; Function Attrs: norecurse uwtable
define internal fastcc void @_ZL37checkOverlappingMemoryOneRuntimeCheckIhEvNSt3__18functionIFvPT_S3_jEEES5_PKc(ptr noundef %ScalarFn, ptr noundef %VectorFn, ptr noundef %Name) unnamed_addr #0 personality ptr @__gxx_personality_v0 {
entry:
  %__arg.addr.i.i = alloca ptr, align 8
  %__arg.addr2.i.i = alloca ptr, align 8
  %__arg.addr4.i.i = alloca i32, align 4
  %StartPtr.i = alloca ptr, align 8
  %ref.tmp.i = alloca ptr, align 8
  %N = alloca i32, align 4
  %call1.i = tail call noundef nonnull align 8 dereferenceable(8) ptr @_ZNSt3__124__put_character_sequenceB7v170000IcNS_11char_traitsIcEEEERNS_13basic_ostreamIT_T0_EES7_PKS4_m(ptr noundef nonnull align 8 dereferenceable(8) @_ZNSt3__14coutE, ptr noundef nonnull @.str.30, i64 noundef 9)
  %call.i.i.i23 = tail call i64 @strlen(ptr noundef nonnull dereferenceable(1) %Name) #24
  %call1.i24 = tail call noundef nonnull align 8 dereferenceable(8) ptr @_ZNSt3__124__put_character_sequenceB7v170000IcNS_11char_traitsIcEEEERNS_13basic_ostreamIT_T0_EES7_PKS4_m(ptr noundef nonnull align 8 dereferenceable(8) %call1.i, ptr noundef %Name, i64 noundef %call.i.i.i23)
  %call1.i26 = tail call noundef nonnull align 8 dereferenceable(8) ptr @_ZNSt3__124__put_character_sequenceB7v170000IcNS_11char_traitsIcEEEERNS_13basic_ostreamIT_T0_EES7_PKS4_m(ptr noundef nonnull align 8 dereferenceable(8) %call1.i24, ptr noundef nonnull @.str.31, i64 noundef 1)
  call void @llvm.lifetime.start.p0(i64 4, ptr nonnull %N) #24
  store i32 100, ptr %N, align 4, !tbaa !31
  %call3 = tail call noalias noundef nonnull dereferenceable(800) ptr @_Znam(i64 noundef 800) #25
  %call5 = invoke noalias noundef nonnull dereferenceable(800) ptr @_Znam(i64 noundef 800) #25
          to label %invoke.cont unwind label %lpad

invoke.cont:                                      ; preds = %entry
  %call9 = invoke noalias noundef nonnull dereferenceable(800) ptr @_Znam(i64 noundef 800) #25
          to label %for.cond.preheader unwind label %lpad7

for.cond.preheader:                               ; preds = %invoke.cont
  %arrayidx.i.i = getelementptr inbounds i8, ptr %call5, i64 400
  %__f_.i.i.i = getelementptr inbounds %"class.std::__1::__function::__value_func", ptr %ScalarFn, i64 0, i32 1
  %arrayidx.i26.i = getelementptr inbounds i8, ptr %call9, i64 400
  br label %_ZNSt3__125__independent_bits_engineINS_23mersenne_twister_engineImLm32ELm624ELm397ELm31ELm2567483615ELm11ELm4294967295ELm7ELm2636928640ELm15ELm4022730752ELm18ELm1812433253EEEmEC2ERS2_m.exit.i.preheader

_ZNSt3__125__independent_bits_engineINS_23mersenne_twister_engineImLm32ELm624ELm397ELm31ELm2567483615ELm11ELm4294967295ELm7ELm2636928640ELm15ELm4022730752ELm18ELm1812433253EEEmEC2ERS2_m.exit.i.preheader: ; preds = %for.cond.preheader, %for.inc
  %indvars.iv = phi i64 [ -100, %for.cond.preheader ], [ %indvars.iv.next, %for.inc ]
  %.pre.pre.i.pre = load i64, ptr getelementptr inbounds (%"class.std::__1::mersenne_twister_engine", ptr @_ZL3rng, i64 0, i32 1), align 8, !tbaa !11
  br label %_ZNSt3__125__independent_bits_engineINS_23mersenne_twister_engineImLm32ELm624ELm397ELm31ELm2567483615ELm11ELm4294967295ELm7ELm2636928640ELm15ELm4022730752ELm18ELm1812433253EEEmEC2ERS2_m.exit.i

_ZNSt3__110unique_ptrIA_hNS_14default_deleteIS1_EEED2B7v170000Ev.exit32: ; preds = %for.inc
  call void @_ZdaPv(ptr noundef nonnull %call9) #26
  call void @_ZdaPv(ptr noundef nonnull %call5) #26
  call void @_ZdaPv(ptr noundef nonnull %call3) #26
  call void @llvm.lifetime.end.p0(i64 4, ptr nonnull %N) #24
  ret void

lpad:                                             ; preds = %entry
  %0 = landingpad { ptr, i32 }
          cleanup
  br label %_ZNSt3__110unique_ptrIA_hNS_14default_deleteIS1_EEED2B7v170000Ev.exit48

lpad7:                                            ; preds = %invoke.cont
  %1 = landingpad { ptr, i32 }
          cleanup
  br label %_ZNSt3__110unique_ptrIA_hNS_14default_deleteIS1_EEED2B7v170000Ev.exit45

_ZNSt3__125__independent_bits_engineINS_23mersenne_twister_engineImLm32ELm624ELm397ELm31ELm2567483615ELm11ELm4294967295ELm7ELm2636928640ELm15ELm4022730752ELm18ELm1812433253EEEmEC2ERS2_m.exit.i: ; preds = %_ZNSt3__125__independent_bits_engineINS_23mersenne_twister_engineImLm32ELm624ELm397ELm31ELm2567483615ELm11ELm4294967295ELm7ELm2636928640ELm15ELm4022730752ELm18ELm1812433253EEEmEC2ERS2_m.exit.i.preheader, %do.end.i66
  %.pre.pre.i = phi i64 [ %rem.i.i59, %do.end.i66 ], [ %.pre.pre.i.pre, %_ZNSt3__125__independent_bits_engineINS_23mersenne_twister_engineImLm32ELm624ELm397ELm31ELm2567483615ELm11ELm4294967295ELm7ELm2636928640ELm15ELm4022730752ELm18ELm1812433253EEEmEC2ERS2_m.exit.i.preheader ]
  %indvars.iv.i.i = phi i64 [ %indvars.iv.next.i.i, %do.end.i66 ], [ 0, %_ZNSt3__125__independent_bits_engineINS_23mersenne_twister_engineImLm32ELm624ELm397ELm31ELm2567483615ELm11ELm4294967295ELm7ELm2636928640ELm15ELm4022730752ELm18ELm1812433253EEEmEC2ERS2_m.exit.i.preheader ]
  br label %do.body.i61

do.body.i61:                                      ; preds = %do.body.i61, %_ZNSt3__125__independent_bits_engineINS_23mersenne_twister_engineImLm32ELm624ELm397ELm31ELm2567483615ELm11ELm4294967295ELm7ELm2636928640ELm15ELm4022730752ELm18ELm1812433253EEEmEC2ERS2_m.exit.i
  %2 = phi i64 [ %.pre.pre.i, %_ZNSt3__125__independent_bits_engineINS_23mersenne_twister_engineImLm32ELm624ELm397ELm31ELm2567483615ELm11ELm4294967295ELm7ELm2636928640ELm15ELm4022730752ELm18ELm1812433253EEEmEC2ERS2_m.exit.i ], [ %rem.i.i59, %do.body.i61 ]
  %add.i.i58 = add i64 %2, 1
  %rem.i.i59 = urem i64 %add.i.i58, 624
  %arrayidx.i.i60 = getelementptr inbounds [624 x i64], ptr @_ZL3rng, i64 0, i64 %2
  %3 = load i64, ptr %arrayidx.i.i60, align 8, !tbaa !5
  %and.i.i = and i64 %3, -2147483648
  %arrayidx4.i.i = getelementptr inbounds [624 x i64], ptr @_ZL3rng, i64 0, i64 %rem.i.i59
  %4 = load i64, ptr %arrayidx4.i.i, align 8, !tbaa !5
  %and5.i.i = and i64 %4, 2147483646
  %or.i.i = or i64 %and5.i.i, %and.i.i
  %add7.i.i = add i64 %2, 397
  %rem8.i.i = urem i64 %add7.i.i, 624
  %arrayidx10.i.i = getelementptr inbounds [624 x i64], ptr @_ZL3rng, i64 0, i64 %rem8.i.i
  %5 = load i64, ptr %arrayidx10.i.i, align 8, !tbaa !5
  %shr.i.i.i = lshr exact i64 %or.i.i, 1
  %xor.i.i = xor i64 %shr.i.i.i, %5
  %6 = and i64 %4, 1
  %.not.i.i = icmp eq i64 %6, 0
  %mul.i.i = select i1 %.not.i.i, i64 0, i64 2567483615
  %xor12.i.i = xor i64 %xor.i.i, %mul.i.i
  store i64 %xor12.i.i, ptr %arrayidx.i.i60, align 8, !tbaa !5
  %7 = load i64, ptr getelementptr inbounds (%"class.std::__1::mersenne_twister_engine", ptr @_ZL3rng, i64 0, i32 1), align 8, !tbaa !11
  %arrayidx18.i.i = getelementptr inbounds [624 x i64], ptr @_ZL3rng, i64 0, i64 %7
  %8 = load i64, ptr %arrayidx18.i.i, align 8, !tbaa !5
  %shr.i41.i.i = lshr i64 %8, 11
  %and23.i.i = and i64 %shr.i41.i.i, 4294967295
  %xor24.i.i = xor i64 %and23.i.i, %8
  store i64 %rem.i.i59, ptr getelementptr inbounds (%"class.std::__1::mersenne_twister_engine", ptr @_ZL3rng, i64 0, i32 1), align 8, !tbaa !11
  %shl.i.i.i = shl i64 %xor24.i.i, 7
  %and27.i.i = and i64 %shl.i.i.i, 2636928640
  %xor28.i.i = xor i64 %and27.i.i, %xor24.i.i
  %shl.i42.i.i = shl i64 %xor28.i.i, 15
  %and30.i.i = and i64 %shl.i42.i.i, 4022730752
  %xor31.i.i = xor i64 %and30.i.i, %xor28.i.i
  %shr.i44.i.i = lshr i64 %xor31.i.i, 18
  %xor33.i.i = xor i64 %shr.i44.i.i, %xor31.i.i
  %cmp3.not.i = icmp ult i64 %xor33.i.i, 4294967296
  br i1 %cmp3.not.i, label %do.end.i66, label %do.body.i61, !llvm.loop !33

do.end.i66:                                       ; preds = %do.body.i61
  %conv4.i.i = trunc i64 %xor33.i.i to i8
  %arrayidx.i.i.i = getelementptr inbounds i8, ptr %call3, i64 %indvars.iv.i.i
  store i8 %conv4.i.i, ptr %arrayidx.i.i.i, align 1, !tbaa !14
  %indvars.iv.next.i.i = add nuw nsw i64 %indvars.iv.i.i, 1
  %exitcond.not.i.i = icmp eq i64 %indvars.iv.next.i.i, 800
  br i1 %exitcond.not.i.i, label %for.body.i.preheader, label %_ZNSt3__125__independent_bits_engineINS_23mersenne_twister_engineImLm32ELm624ELm397ELm31ELm2567483615ELm11ELm4294967295ELm7ELm2636928640ELm15ELm4022730752ELm18ELm1812433253EEEmEC2ERS2_m.exit.i, !llvm.loop !34

for.body.i.preheader:                             ; preds = %do.end.i66
  call void @llvm.memcpy.p0.p0.i64(ptr noundef nonnull align 1 dereferenceable(800) %call5, ptr noundef nonnull align 1 dereferenceable(800) %call3, i64 800, i1 false), !tbaa !14
  call void @llvm.memcpy.p0.p0.i64(ptr noundef nonnull align 1 dereferenceable(800) %call9, ptr noundef nonnull align 1 dereferenceable(800) %call3, i64 800, i1 false), !tbaa !14
  %add.ptr.i = getelementptr inbounds i8, ptr %arrayidx.i.i, i64 %indvars.iv
  %9 = load i32, ptr %N, align 4, !tbaa !31
  call void @llvm.lifetime.start.p0(i64 8, ptr nonnull %__arg.addr.i.i)
  call void @llvm.lifetime.start.p0(i64 8, ptr nonnull %__arg.addr2.i.i)
  call void @llvm.lifetime.start.p0(i64 4, ptr nonnull %__arg.addr4.i.i)
  store ptr %add.ptr.i, ptr %__arg.addr.i.i, align 8, !tbaa !35
  store ptr %arrayidx.i.i, ptr %__arg.addr2.i.i, align 8, !tbaa !35
  store i32 %9, ptr %__arg.addr4.i.i, align 4, !tbaa !31
  %10 = load ptr, ptr %__f_.i.i.i, align 16, !tbaa !17
  %cmp.i.i.i = icmp eq ptr %10, null
  br i1 %cmp.i.i.i, label %if.then.i.i.i, label %_ZNKSt3__18functionIFvPhS1_jEEclES1_S1_j.exit.i

if.then.i.i.i:                                    ; preds = %for.body.i.preheader
  invoke void @_ZNSt3__125__throw_bad_function_callB7v170000Ev() #27
          to label %.noexc unwind label %_ZNSt3__110unique_ptrIA_hNS_14default_deleteIS1_EEED2B7v170000Ev.exit42.loopexit.split-lp

.noexc:                                           ; preds = %if.then.i.i.i
  unreachable

_ZNKSt3__18functionIFvPhS1_jEEclES1_S1_j.exit.i:  ; preds = %for.body.i.preheader
  %vtable.i.i.i = load ptr, ptr %10, align 8, !tbaa !15
  %vfn.i.i.i = getelementptr inbounds ptr, ptr %vtable.i.i.i, i64 6
  %11 = load ptr, ptr %vfn.i.i.i, align 8
  invoke void %11(ptr noundef nonnull align 8 dereferenceable(8) %10, ptr noundef nonnull align 8 dereferenceable(8) %__arg.addr.i.i, ptr noundef nonnull align 8 dereferenceable(8) %__arg.addr2.i.i, ptr noundef nonnull align 4 dereferenceable(4) %__arg.addr4.i.i)
          to label %.noexc35 unwind label %_ZNSt3__110unique_ptrIA_hNS_14default_deleteIS1_EEED2B7v170000Ev.exit42.loopexit

.noexc35:                                         ; preds = %_ZNKSt3__18functionIFvPhS1_jEEclES1_S1_j.exit.i
  call void @llvm.lifetime.end.p0(i64 8, ptr nonnull %__arg.addr.i.i)
  call void @llvm.lifetime.end.p0(i64 8, ptr nonnull %__arg.addr2.i.i)
  call void @llvm.lifetime.end.p0(i64 4, ptr nonnull %__arg.addr4.i.i)
  call void @llvm.lifetime.start.p0(i64 8, ptr nonnull %StartPtr.i) #24
  store ptr %arrayidx.i26.i, ptr %StartPtr.i, align 8, !tbaa !35
  call void @llvm.lifetime.start.p0(i64 8, ptr nonnull %ref.tmp.i) #24
  %add.ptr14.i = getelementptr inbounds i8, ptr %arrayidx.i26.i, i64 %indvars.iv
  store ptr %add.ptr14.i, ptr %ref.tmp.i, align 8, !tbaa !35
  invoke fastcc void @_ZL18callThroughOptnoneIRNSt3__18functionIFvPhS2_jEEEJS2_RS2_RjEEvOT_DpOT0_(ptr noundef nonnull align 16 dereferenceable(48) %VectorFn, ptr noundef nonnull align 8 dereferenceable(8) %ref.tmp.i, ptr noundef nonnull align 8 dereferenceable(8) %StartPtr.i, ptr noundef nonnull align 4 dereferenceable(4) %N)
          to label %for.body.i.i.i.preheader.i unwind label %_ZNSt3__110unique_ptrIA_hNS_14default_deleteIS1_EEED2B7v170000Ev.exit42.loopexit

for.body.i.i.i.preheader.i:                       ; preds = %.noexc35
  call void @llvm.lifetime.end.p0(i64 8, ptr nonnull %ref.tmp.i) #24
  br label %for.body.i.i.i.i

for.body.i.i.i.i:                                 ; preds = %for.inc.i.i.i.i.4, %for.body.i.i.i.preheader.i
  %__first2.addr.07.i.i.i.i = phi ptr [ %call9, %for.body.i.i.i.preheader.i ], [ %incdec.ptr1.i.i.i.i.4, %for.inc.i.i.i.i.4 ]
  %__first1.addr.06.i.i.i.i.idx = phi i64 [ 0, %for.body.i.i.i.preheader.i ], [ %__first1.addr.06.i.i.i.i.add.4, %for.inc.i.i.i.i.4 ]
  %__first1.addr.06.i.i.i.i.ptr = getelementptr inbounds i8, ptr %call5, i64 %__first1.addr.06.i.i.i.i.idx
  %12 = load i8, ptr %__first1.addr.06.i.i.i.i.ptr, align 1, !tbaa !14
  %13 = load i8, ptr %__first2.addr.07.i.i.i.i, align 1, !tbaa !14
  %cmp.i.i.i.i.i = icmp eq i8 %12, %13
  br i1 %cmp.i.i.i.i.i, label %for.inc.i.i.i.i, label %if.then.i.i

for.inc.i.i.i.i:                                  ; preds = %for.body.i.i.i.i
  %__first1.addr.06.i.i.i.i.add = add nuw nsw i64 %__first1.addr.06.i.i.i.i.idx, 1
  %incdec.ptr1.i.i.i.i = getelementptr inbounds i8, ptr %__first2.addr.07.i.i.i.i, i64 1
  %__first1.addr.06.i.i.i.i.ptr.1 = getelementptr inbounds i8, ptr %call5, i64 %__first1.addr.06.i.i.i.i.add
  %14 = load i8, ptr %__first1.addr.06.i.i.i.i.ptr.1, align 1, !tbaa !14
  %15 = load i8, ptr %incdec.ptr1.i.i.i.i, align 1, !tbaa !14
  %cmp.i.i.i.i.i.1 = icmp eq i8 %14, %15
  br i1 %cmp.i.i.i.i.i.1, label %for.inc.i.i.i.i.1, label %if.then.i.i

for.inc.i.i.i.i.1:                                ; preds = %for.inc.i.i.i.i
  %__first1.addr.06.i.i.i.i.add.1 = add nuw nsw i64 %__first1.addr.06.i.i.i.i.idx, 2
  %incdec.ptr1.i.i.i.i.1 = getelementptr inbounds i8, ptr %__first2.addr.07.i.i.i.i, i64 2
  %__first1.addr.06.i.i.i.i.ptr.2 = getelementptr inbounds i8, ptr %call5, i64 %__first1.addr.06.i.i.i.i.add.1
  %16 = load i8, ptr %__first1.addr.06.i.i.i.i.ptr.2, align 1, !tbaa !14
  %17 = load i8, ptr %incdec.ptr1.i.i.i.i.1, align 1, !tbaa !14
  %cmp.i.i.i.i.i.2 = icmp eq i8 %16, %17
  br i1 %cmp.i.i.i.i.i.2, label %for.inc.i.i.i.i.2, label %if.then.i.i

for.inc.i.i.i.i.2:                                ; preds = %for.inc.i.i.i.i.1
  %__first1.addr.06.i.i.i.i.add.2 = add nuw nsw i64 %__first1.addr.06.i.i.i.i.idx, 3
  %incdec.ptr1.i.i.i.i.2 = getelementptr inbounds i8, ptr %__first2.addr.07.i.i.i.i, i64 3
  %__first1.addr.06.i.i.i.i.ptr.3 = getelementptr inbounds i8, ptr %call5, i64 %__first1.addr.06.i.i.i.i.add.2
  %18 = load i8, ptr %__first1.addr.06.i.i.i.i.ptr.3, align 1, !tbaa !14
  %19 = load i8, ptr %incdec.ptr1.i.i.i.i.2, align 1, !tbaa !14
  %cmp.i.i.i.i.i.3 = icmp eq i8 %18, %19
  br i1 %cmp.i.i.i.i.i.3, label %for.inc.i.i.i.i.3, label %if.then.i.i

for.inc.i.i.i.i.3:                                ; preds = %for.inc.i.i.i.i.2
  %__first1.addr.06.i.i.i.i.add.3 = add nuw nsw i64 %__first1.addr.06.i.i.i.i.idx, 4
  %incdec.ptr1.i.i.i.i.3 = getelementptr inbounds i8, ptr %__first2.addr.07.i.i.i.i, i64 4
  %__first1.addr.06.i.i.i.i.ptr.4 = getelementptr inbounds i8, ptr %call5, i64 %__first1.addr.06.i.i.i.i.add.3
  %20 = load i8, ptr %__first1.addr.06.i.i.i.i.ptr.4, align 1, !tbaa !14
  %21 = load i8, ptr %incdec.ptr1.i.i.i.i.3, align 1, !tbaa !14
  %cmp.i.i.i.i.i.4 = icmp eq i8 %20, %21
  br i1 %cmp.i.i.i.i.i.4, label %for.inc.i.i.i.i.4, label %if.then.i.i

for.inc.i.i.i.i.4:                                ; preds = %for.inc.i.i.i.i.3
  %__first1.addr.06.i.i.i.i.add.4 = add nuw nsw i64 %__first1.addr.06.i.i.i.i.idx, 5
  %incdec.ptr1.i.i.i.i.4 = getelementptr inbounds i8, ptr %__first2.addr.07.i.i.i.i, i64 5
  %cmp.not.i.i.i.i.4 = icmp eq i64 %__first1.addr.06.i.i.i.i.add.4, 800
  br i1 %cmp.not.i.i.i.i.4, label %for.inc, label %for.body.i.i.i.i, !llvm.loop !36

if.then.i.i:                                      ; preds = %for.inc.i.i.i.i.3, %for.inc.i.i.i.i.2, %for.inc.i.i.i.i.1, %for.inc.i.i.i.i, %for.body.i.i.i.i
  %call1.i5051 = invoke noundef nonnull align 8 dereferenceable(8) ptr @_ZNSt3__124__put_character_sequenceB7v170000IcNS_11char_traitsIcEEEERNS_13basic_ostreamIT_T0_EES7_PKS4_m(ptr noundef nonnull align 8 dereferenceable(8) @_ZNSt3__14cerrE, ptr noundef nonnull @.str.33, i64 noundef 23)
          to label %call4.i.i.noexc unwind label %_ZNSt3__110unique_ptrIA_hNS_14default_deleteIS1_EEED2B7v170000Ev.exit42.loopexit.split-lp

call4.i.i.noexc:                                  ; preds = %if.then.i.i
  %22 = trunc i64 %indvars.iv to i32
  %call5.i.i38 = invoke noundef nonnull align 8 dereferenceable(8) ptr @_ZNSt3__113basic_ostreamIcNS_11char_traitsIcEEElsEi(ptr noundef nonnull align 8 dereferenceable(8) %call1.i5051, i32 noundef %22)
          to label %call5.i.i.noexc unwind label %_ZNSt3__110unique_ptrIA_hNS_14default_deleteIS1_EEED2B7v170000Ev.exit42.loopexit.split-lp

call5.i.i.noexc:                                  ; preds = %call4.i.i.noexc
  %call6.i.i39 = invoke noundef nonnull align 8 dereferenceable(8) ptr @_ZNSt3__1lsB7v170000INS_11char_traitsIcEEEERNS_13basic_ostreamIcT_EES6_PKc(ptr noundef nonnull align 8 dereferenceable(8) %call5.i.i38, ptr noundef nonnull @.str.31)
          to label %call6.i.i.noexc unwind label %_ZNSt3__110unique_ptrIA_hNS_14default_deleteIS1_EEED2B7v170000Ev.exit42.loopexit.split-lp

call6.i.i.noexc:                                  ; preds = %call5.i.i.noexc
  call void @exit(i32 noundef 1) #28
  unreachable

for.inc:                                          ; preds = %for.inc.i.i.i.i.4
  call void @llvm.lifetime.end.p0(i64 8, ptr nonnull %StartPtr.i) #24
  %indvars.iv.next = add nsw i64 %indvars.iv, 1
  %exitcond.not = icmp eq i64 %indvars.iv.next, 101
  br i1 %exitcond.not, label %_ZNSt3__110unique_ptrIA_hNS_14default_deleteIS1_EEED2B7v170000Ev.exit32, label %_ZNSt3__125__independent_bits_engineINS_23mersenne_twister_engineImLm32ELm624ELm397ELm31ELm2567483615ELm11ELm4294967295ELm7ELm2636928640ELm15ELm4022730752ELm18ELm1812433253EEEmEC2ERS2_m.exit.i.preheader, !llvm.loop !37

_ZNSt3__110unique_ptrIA_hNS_14default_deleteIS1_EEED2B7v170000Ev.exit42.loopexit: ; preds = %_ZNKSt3__18functionIFvPhS1_jEEclES1_S1_j.exit.i, %.noexc35
  %lpad.loopexit = landingpad { ptr, i32 }
          cleanup
  br label %_ZNSt3__110unique_ptrIA_hNS_14default_deleteIS1_EEED2B7v170000Ev.exit42

_ZNSt3__110unique_ptrIA_hNS_14default_deleteIS1_EEED2B7v170000Ev.exit42.loopexit.split-lp: ; preds = %if.then.i.i.i, %call4.i.i.noexc, %call5.i.i.noexc, %if.then.i.i
  %lpad.loopexit.split-lp = landingpad { ptr, i32 }
          cleanup
  br label %_ZNSt3__110unique_ptrIA_hNS_14default_deleteIS1_EEED2B7v170000Ev.exit42

_ZNSt3__110unique_ptrIA_hNS_14default_deleteIS1_EEED2B7v170000Ev.exit42: ; preds = %_ZNSt3__110unique_ptrIA_hNS_14default_deleteIS1_EEED2B7v170000Ev.exit42.loopexit.split-lp, %_ZNSt3__110unique_ptrIA_hNS_14default_deleteIS1_EEED2B7v170000Ev.exit42.loopexit
  %lpad.phi = phi { ptr, i32 } [ %lpad.loopexit, %_ZNSt3__110unique_ptrIA_hNS_14default_deleteIS1_EEED2B7v170000Ev.exit42.loopexit ], [ %lpad.loopexit.split-lp, %_ZNSt3__110unique_ptrIA_hNS_14default_deleteIS1_EEED2B7v170000Ev.exit42.loopexit.split-lp ]
  call void @_ZdaPv(ptr noundef nonnull %call9) #26
  br label %_ZNSt3__110unique_ptrIA_hNS_14default_deleteIS1_EEED2B7v170000Ev.exit45

_ZNSt3__110unique_ptrIA_hNS_14default_deleteIS1_EEED2B7v170000Ev.exit45: ; preds = %_ZNSt3__110unique_ptrIA_hNS_14default_deleteIS1_EEED2B7v170000Ev.exit42, %lpad7
  %.pn = phi { ptr, i32 } [ %lpad.phi, %_ZNSt3__110unique_ptrIA_hNS_14default_deleteIS1_EEED2B7v170000Ev.exit42 ], [ %1, %lpad7 ]
  call void @_ZdaPv(ptr noundef nonnull %call5) #26
  br label %_ZNSt3__110unique_ptrIA_hNS_14default_deleteIS1_EEED2B7v170000Ev.exit48

_ZNSt3__110unique_ptrIA_hNS_14default_deleteIS1_EEED2B7v170000Ev.exit48: ; preds = %_ZNSt3__110unique_ptrIA_hNS_14default_deleteIS1_EEED2B7v170000Ev.exit45, %lpad
  %.pn.pn = phi { ptr, i32 } [ %.pn, %_ZNSt3__110unique_ptrIA_hNS_14default_deleteIS1_EEED2B7v170000Ev.exit45 ], [ %0, %lpad ]
  call void @_ZdaPv(ptr noundef nonnull %call3) #26
  call void @llvm.lifetime.end.p0(i64 4, ptr nonnull %N) #24
  resume { ptr, i32 } %.pn.pn
}

declare i32 @__gxx_personality_v0(...)

; Function Attrs: norecurse uwtable
define internal fastcc void @_ZL37checkOverlappingMemoryOneRuntimeCheckIjEvNSt3__18functionIFvPT_S3_jEEES5_PKc(ptr noundef %ScalarFn, ptr noundef %VectorFn, ptr noundef %Name) unnamed_addr #0 personality ptr @__gxx_personality_v0 {
entry:
  %__arg.addr.i.i = alloca ptr, align 8
  %__arg.addr2.i.i = alloca ptr, align 8
  %__arg.addr4.i.i = alloca i32, align 4
  %StartPtr.i = alloca ptr, align 8
  %ref.tmp.i = alloca ptr, align 8
  %N = alloca i32, align 4
  %call1.i = tail call noundef nonnull align 8 dereferenceable(8) ptr @_ZNSt3__124__put_character_sequenceB7v170000IcNS_11char_traitsIcEEEERNS_13basic_ostreamIT_T0_EES7_PKS4_m(ptr noundef nonnull align 8 dereferenceable(8) @_ZNSt3__14coutE, ptr noundef nonnull @.str.30, i64 noundef 9)
  %call.i.i.i23 = tail call i64 @strlen(ptr noundef nonnull dereferenceable(1) %Name) #24
  %call1.i24 = tail call noundef nonnull align 8 dereferenceable(8) ptr @_ZNSt3__124__put_character_sequenceB7v170000IcNS_11char_traitsIcEEEERNS_13basic_ostreamIT_T0_EES7_PKS4_m(ptr noundef nonnull align 8 dereferenceable(8) %call1.i, ptr noundef %Name, i64 noundef %call.i.i.i23)
  %call1.i26 = tail call noundef nonnull align 8 dereferenceable(8) ptr @_ZNSt3__124__put_character_sequenceB7v170000IcNS_11char_traitsIcEEEERNS_13basic_ostreamIT_T0_EES7_PKS4_m(ptr noundef nonnull align 8 dereferenceable(8) %call1.i24, ptr noundef nonnull @.str.31, i64 noundef 1)
  call void @llvm.lifetime.start.p0(i64 4, ptr nonnull %N) #24
  store i32 100, ptr %N, align 4, !tbaa !31
  %call3 = tail call noalias noundef nonnull dereferenceable(3200) ptr @_Znam(i64 noundef 3200) #25
  %call5 = invoke noalias noundef nonnull dereferenceable(3200) ptr @_Znam(i64 noundef 3200) #25
          to label %invoke.cont unwind label %lpad

invoke.cont:                                      ; preds = %entry
  %call9 = invoke noalias noundef nonnull dereferenceable(3200) ptr @_Znam(i64 noundef 3200) #25
          to label %for.cond.preheader unwind label %lpad7

for.cond.preheader:                               ; preds = %invoke.cont
  %arrayidx.i.i = getelementptr inbounds i32, ptr %call5, i64 400
  %__f_.i.i.i = getelementptr inbounds %"class.std::__1::__function::__value_func.5", ptr %ScalarFn, i64 0, i32 1
  %arrayidx.i26.i = getelementptr inbounds i32, ptr %call9, i64 400
  br label %_ZNSt3__125__independent_bits_engineINS_23mersenne_twister_engineImLm32ELm624ELm397ELm31ELm2567483615ELm11ELm4294967295ELm7ELm2636928640ELm15ELm4022730752ELm18ELm1812433253EEEmEC2ERS2_m.exit.i.preheader

_ZNSt3__125__independent_bits_engineINS_23mersenne_twister_engineImLm32ELm624ELm397ELm31ELm2567483615ELm11ELm4294967295ELm7ELm2636928640ELm15ELm4022730752ELm18ELm1812433253EEEmEC2ERS2_m.exit.i.preheader: ; preds = %for.cond.preheader, %for.inc
  %indvars.iv = phi i64 [ -100, %for.cond.preheader ], [ %indvars.iv.next, %for.inc ]
  %.pre.pre.i.pre = load i64, ptr getelementptr inbounds (%"class.std::__1::mersenne_twister_engine", ptr @_ZL3rng, i64 0, i32 1), align 8, !tbaa !11
  br label %_ZNSt3__125__independent_bits_engineINS_23mersenne_twister_engineImLm32ELm624ELm397ELm31ELm2567483615ELm11ELm4294967295ELm7ELm2636928640ELm15ELm4022730752ELm18ELm1812433253EEEmEC2ERS2_m.exit.i

_ZNSt3__110unique_ptrIA_jNS_14default_deleteIS1_EEED2B7v170000Ev.exit32: ; preds = %for.inc
  call void @_ZdaPv(ptr noundef nonnull %call9) #26
  call void @_ZdaPv(ptr noundef nonnull %call5) #26
  call void @_ZdaPv(ptr noundef nonnull %call3) #26
  call void @llvm.lifetime.end.p0(i64 4, ptr nonnull %N) #24
  ret void

lpad:                                             ; preds = %entry
  %0 = landingpad { ptr, i32 }
          cleanup
  br label %_ZNSt3__110unique_ptrIA_jNS_14default_deleteIS1_EEED2B7v170000Ev.exit48

lpad7:                                            ; preds = %invoke.cont
  %1 = landingpad { ptr, i32 }
          cleanup
  br label %_ZNSt3__110unique_ptrIA_jNS_14default_deleteIS1_EEED2B7v170000Ev.exit45

_ZNSt3__125__independent_bits_engineINS_23mersenne_twister_engineImLm32ELm624ELm397ELm31ELm2567483615ELm11ELm4294967295ELm7ELm2636928640ELm15ELm4022730752ELm18ELm1812433253EEEmEC2ERS2_m.exit.i: ; preds = %_ZNSt3__125__independent_bits_engineINS_23mersenne_twister_engineImLm32ELm624ELm397ELm31ELm2567483615ELm11ELm4294967295ELm7ELm2636928640ELm15ELm4022730752ELm18ELm1812433253EEEmEC2ERS2_m.exit.i.preheader, %do.end.i66
  %.pre.pre.i = phi i64 [ %rem.i.i59, %do.end.i66 ], [ %.pre.pre.i.pre, %_ZNSt3__125__independent_bits_engineINS_23mersenne_twister_engineImLm32ELm624ELm397ELm31ELm2567483615ELm11ELm4294967295ELm7ELm2636928640ELm15ELm4022730752ELm18ELm1812433253EEEmEC2ERS2_m.exit.i.preheader ]
  %indvars.iv.i.i = phi i64 [ %indvars.iv.next.i.i, %do.end.i66 ], [ 0, %_ZNSt3__125__independent_bits_engineINS_23mersenne_twister_engineImLm32ELm624ELm397ELm31ELm2567483615ELm11ELm4294967295ELm7ELm2636928640ELm15ELm4022730752ELm18ELm1812433253EEEmEC2ERS2_m.exit.i.preheader ]
  br label %do.body.i61

do.body.i61:                                      ; preds = %do.body.i61, %_ZNSt3__125__independent_bits_engineINS_23mersenne_twister_engineImLm32ELm624ELm397ELm31ELm2567483615ELm11ELm4294967295ELm7ELm2636928640ELm15ELm4022730752ELm18ELm1812433253EEEmEC2ERS2_m.exit.i
  %2 = phi i64 [ %.pre.pre.i, %_ZNSt3__125__independent_bits_engineINS_23mersenne_twister_engineImLm32ELm624ELm397ELm31ELm2567483615ELm11ELm4294967295ELm7ELm2636928640ELm15ELm4022730752ELm18ELm1812433253EEEmEC2ERS2_m.exit.i ], [ %rem.i.i59, %do.body.i61 ]
  %add.i.i58 = add i64 %2, 1
  %rem.i.i59 = urem i64 %add.i.i58, 624
  %arrayidx.i.i60 = getelementptr inbounds [624 x i64], ptr @_ZL3rng, i64 0, i64 %2
  %3 = load i64, ptr %arrayidx.i.i60, align 8, !tbaa !5
  %and.i.i = and i64 %3, -2147483648
  %arrayidx4.i.i = getelementptr inbounds [624 x i64], ptr @_ZL3rng, i64 0, i64 %rem.i.i59
  %4 = load i64, ptr %arrayidx4.i.i, align 8, !tbaa !5
  %and5.i.i = and i64 %4, 2147483646
  %or.i.i = or i64 %and5.i.i, %and.i.i
  %add7.i.i = add i64 %2, 397
  %rem8.i.i = urem i64 %add7.i.i, 624
  %arrayidx10.i.i = getelementptr inbounds [624 x i64], ptr @_ZL3rng, i64 0, i64 %rem8.i.i
  %5 = load i64, ptr %arrayidx10.i.i, align 8, !tbaa !5
  %shr.i.i.i = lshr exact i64 %or.i.i, 1
  %xor.i.i = xor i64 %shr.i.i.i, %5
  %6 = and i64 %4, 1
  %.not.i.i = icmp eq i64 %6, 0
  %mul.i.i = select i1 %.not.i.i, i64 0, i64 2567483615
  %xor12.i.i = xor i64 %xor.i.i, %mul.i.i
  store i64 %xor12.i.i, ptr %arrayidx.i.i60, align 8, !tbaa !5
  %7 = load i64, ptr getelementptr inbounds (%"class.std::__1::mersenne_twister_engine", ptr @_ZL3rng, i64 0, i32 1), align 8, !tbaa !11
  %arrayidx18.i.i = getelementptr inbounds [624 x i64], ptr @_ZL3rng, i64 0, i64 %7
  %8 = load i64, ptr %arrayidx18.i.i, align 8, !tbaa !5
  %shr.i41.i.i = lshr i64 %8, 11
  %and23.i.i = and i64 %shr.i41.i.i, 4294967295
  %xor24.i.i = xor i64 %and23.i.i, %8
  store i64 %rem.i.i59, ptr getelementptr inbounds (%"class.std::__1::mersenne_twister_engine", ptr @_ZL3rng, i64 0, i32 1), align 8, !tbaa !11
  %shl.i.i.i = shl i64 %xor24.i.i, 7
  %and27.i.i = and i64 %shl.i.i.i, 2636928640
  %xor28.i.i = xor i64 %and27.i.i, %xor24.i.i
  %shl.i42.i.i = shl i64 %xor28.i.i, 15
  %and30.i.i = and i64 %shl.i42.i.i, 4022730752
  %xor31.i.i = xor i64 %and30.i.i, %xor28.i.i
  %shr.i44.i.i = lshr i64 %xor31.i.i, 18
  %xor33.i.i = xor i64 %shr.i44.i.i, %xor31.i.i
  %cmp3.not.i = icmp ult i64 %xor33.i.i, 4294967296
  br i1 %cmp3.not.i, label %do.end.i66, label %do.body.i61, !llvm.loop !33

do.end.i66:                                       ; preds = %do.body.i61
  %conv4.i.i = trunc i64 %xor33.i.i to i32
  %arrayidx.i.i.i = getelementptr inbounds i32, ptr %call3, i64 %indvars.iv.i.i
  store i32 %conv4.i.i, ptr %arrayidx.i.i.i, align 4, !tbaa !31
  %indvars.iv.next.i.i = add nuw nsw i64 %indvars.iv.i.i, 1
  %exitcond.not.i.i = icmp eq i64 %indvars.iv.next.i.i, 800
  br i1 %exitcond.not.i.i, label %for.body.i.preheader, label %_ZNSt3__125__independent_bits_engineINS_23mersenne_twister_engineImLm32ELm624ELm397ELm31ELm2567483615ELm11ELm4294967295ELm7ELm2636928640ELm15ELm4022730752ELm18ELm1812433253EEEmEC2ERS2_m.exit.i, !llvm.loop !38

for.body.i.preheader:                             ; preds = %do.end.i66
  call void @llvm.memcpy.p0.p0.i64(ptr noundef nonnull align 4 dereferenceable(3200) %call5, ptr noundef nonnull align 4 dereferenceable(3200) %call3, i64 3200, i1 false), !tbaa !31
  call void @llvm.memcpy.p0.p0.i64(ptr noundef nonnull align 4 dereferenceable(3200) %call9, ptr noundef nonnull align 4 dereferenceable(3200) %call3, i64 3200, i1 false), !tbaa !31
  %add.ptr.i = getelementptr inbounds i32, ptr %arrayidx.i.i, i64 %indvars.iv
  %9 = load i32, ptr %N, align 4, !tbaa !31
  call void @llvm.lifetime.start.p0(i64 8, ptr nonnull %__arg.addr.i.i)
  call void @llvm.lifetime.start.p0(i64 8, ptr nonnull %__arg.addr2.i.i)
  call void @llvm.lifetime.start.p0(i64 4, ptr nonnull %__arg.addr4.i.i)
  store ptr %add.ptr.i, ptr %__arg.addr.i.i, align 8, !tbaa !35
  store ptr %arrayidx.i.i, ptr %__arg.addr2.i.i, align 8, !tbaa !35
  store i32 %9, ptr %__arg.addr4.i.i, align 4, !tbaa !31
  %10 = load ptr, ptr %__f_.i.i.i, align 16, !tbaa !21
  %cmp.i.i.i = icmp eq ptr %10, null
  br i1 %cmp.i.i.i, label %if.then.i.i.i, label %_ZNKSt3__18functionIFvPjS1_jEEclES1_S1_j.exit.i

if.then.i.i.i:                                    ; preds = %for.body.i.preheader
  invoke void @_ZNSt3__125__throw_bad_function_callB7v170000Ev() #27
          to label %.noexc unwind label %_ZNSt3__110unique_ptrIA_jNS_14default_deleteIS1_EEED2B7v170000Ev.exit42.loopexit.split-lp

.noexc:                                           ; preds = %if.then.i.i.i
  unreachable

_ZNKSt3__18functionIFvPjS1_jEEclES1_S1_j.exit.i:  ; preds = %for.body.i.preheader
  %vtable.i.i.i = load ptr, ptr %10, align 8, !tbaa !15
  %vfn.i.i.i = getelementptr inbounds ptr, ptr %vtable.i.i.i, i64 6
  %11 = load ptr, ptr %vfn.i.i.i, align 8
  invoke void %11(ptr noundef nonnull align 8 dereferenceable(8) %10, ptr noundef nonnull align 8 dereferenceable(8) %__arg.addr.i.i, ptr noundef nonnull align 8 dereferenceable(8) %__arg.addr2.i.i, ptr noundef nonnull align 4 dereferenceable(4) %__arg.addr4.i.i)
          to label %.noexc35 unwind label %_ZNSt3__110unique_ptrIA_jNS_14default_deleteIS1_EEED2B7v170000Ev.exit42.loopexit

.noexc35:                                         ; preds = %_ZNKSt3__18functionIFvPjS1_jEEclES1_S1_j.exit.i
  call void @llvm.lifetime.end.p0(i64 8, ptr nonnull %__arg.addr.i.i)
  call void @llvm.lifetime.end.p0(i64 8, ptr nonnull %__arg.addr2.i.i)
  call void @llvm.lifetime.end.p0(i64 4, ptr nonnull %__arg.addr4.i.i)
  call void @llvm.lifetime.start.p0(i64 8, ptr nonnull %StartPtr.i) #24
  store ptr %arrayidx.i26.i, ptr %StartPtr.i, align 8, !tbaa !35
  call void @llvm.lifetime.start.p0(i64 8, ptr nonnull %ref.tmp.i) #24
  %add.ptr14.i = getelementptr inbounds i32, ptr %arrayidx.i26.i, i64 %indvars.iv
  store ptr %add.ptr14.i, ptr %ref.tmp.i, align 8, !tbaa !35
  invoke fastcc void @_ZL18callThroughOptnoneIRNSt3__18functionIFvPjS2_jEEEJS2_RS2_RjEEvOT_DpOT0_(ptr noundef nonnull align 16 dereferenceable(48) %VectorFn, ptr noundef nonnull align 8 dereferenceable(8) %ref.tmp.i, ptr noundef nonnull align 8 dereferenceable(8) %StartPtr.i, ptr noundef nonnull align 4 dereferenceable(4) %N)
          to label %for.body.i.i.i.preheader.i unwind label %_ZNSt3__110unique_ptrIA_jNS_14default_deleteIS1_EEED2B7v170000Ev.exit42.loopexit

for.body.i.i.i.preheader.i:                       ; preds = %.noexc35
  call void @llvm.lifetime.end.p0(i64 8, ptr nonnull %ref.tmp.i) #24
  br label %for.body.i.i.i.i

for.body.i.i.i.i:                                 ; preds = %for.inc.i.i.i.i.4, %for.body.i.i.i.preheader.i
  %__first2.addr.07.i.i.i.i = phi ptr [ %call9, %for.body.i.i.i.preheader.i ], [ %incdec.ptr1.i.i.i.i.4, %for.inc.i.i.i.i.4 ]
  %__first1.addr.06.i.i.i.i.idx = phi i64 [ 0, %for.body.i.i.i.preheader.i ], [ %__first1.addr.06.i.i.i.i.add.4, %for.inc.i.i.i.i.4 ]
  %__first1.addr.06.i.i.i.i.ptr = getelementptr inbounds i32, ptr %call5, i64 %__first1.addr.06.i.i.i.i.idx
  %12 = load i32, ptr %__first1.addr.06.i.i.i.i.ptr, align 4, !tbaa !31
  %13 = load i32, ptr %__first2.addr.07.i.i.i.i, align 4, !tbaa !31
  %cmp.i.i.i.i.i = icmp eq i32 %12, %13
  br i1 %cmp.i.i.i.i.i, label %for.inc.i.i.i.i, label %if.then.i.i

for.inc.i.i.i.i:                                  ; preds = %for.body.i.i.i.i
  %__first1.addr.06.i.i.i.i.add = add nuw nsw i64 %__first1.addr.06.i.i.i.i.idx, 1
  %incdec.ptr1.i.i.i.i = getelementptr inbounds i32, ptr %__first2.addr.07.i.i.i.i, i64 1
  %__first1.addr.06.i.i.i.i.ptr.1 = getelementptr inbounds i32, ptr %call5, i64 %__first1.addr.06.i.i.i.i.add
  %14 = load i32, ptr %__first1.addr.06.i.i.i.i.ptr.1, align 4, !tbaa !31
  %15 = load i32, ptr %incdec.ptr1.i.i.i.i, align 4, !tbaa !31
  %cmp.i.i.i.i.i.1 = icmp eq i32 %14, %15
  br i1 %cmp.i.i.i.i.i.1, label %for.inc.i.i.i.i.1, label %if.then.i.i

for.inc.i.i.i.i.1:                                ; preds = %for.inc.i.i.i.i
  %__first1.addr.06.i.i.i.i.add.1 = add nuw nsw i64 %__first1.addr.06.i.i.i.i.idx, 2
  %incdec.ptr1.i.i.i.i.1 = getelementptr inbounds i32, ptr %__first2.addr.07.i.i.i.i, i64 2
  %__first1.addr.06.i.i.i.i.ptr.2 = getelementptr inbounds i32, ptr %call5, i64 %__first1.addr.06.i.i.i.i.add.1
  %16 = load i32, ptr %__first1.addr.06.i.i.i.i.ptr.2, align 4, !tbaa !31
  %17 = load i32, ptr %incdec.ptr1.i.i.i.i.1, align 4, !tbaa !31
  %cmp.i.i.i.i.i.2 = icmp eq i32 %16, %17
  br i1 %cmp.i.i.i.i.i.2, label %for.inc.i.i.i.i.2, label %if.then.i.i

for.inc.i.i.i.i.2:                                ; preds = %for.inc.i.i.i.i.1
  %__first1.addr.06.i.i.i.i.add.2 = add nuw nsw i64 %__first1.addr.06.i.i.i.i.idx, 3
  %incdec.ptr1.i.i.i.i.2 = getelementptr inbounds i32, ptr %__first2.addr.07.i.i.i.i, i64 3
  %__first1.addr.06.i.i.i.i.ptr.3 = getelementptr inbounds i32, ptr %call5, i64 %__first1.addr.06.i.i.i.i.add.2
  %18 = load i32, ptr %__first1.addr.06.i.i.i.i.ptr.3, align 4, !tbaa !31
  %19 = load i32, ptr %incdec.ptr1.i.i.i.i.2, align 4, !tbaa !31
  %cmp.i.i.i.i.i.3 = icmp eq i32 %18, %19
  br i1 %cmp.i.i.i.i.i.3, label %for.inc.i.i.i.i.3, label %if.then.i.i

for.inc.i.i.i.i.3:                                ; preds = %for.inc.i.i.i.i.2
  %__first1.addr.06.i.i.i.i.add.3 = add nuw nsw i64 %__first1.addr.06.i.i.i.i.idx, 4
  %incdec.ptr1.i.i.i.i.3 = getelementptr inbounds i32, ptr %__first2.addr.07.i.i.i.i, i64 4
  %__first1.addr.06.i.i.i.i.ptr.4 = getelementptr inbounds i32, ptr %call5, i64 %__first1.addr.06.i.i.i.i.add.3
  %20 = load i32, ptr %__first1.addr.06.i.i.i.i.ptr.4, align 4, !tbaa !31
  %21 = load i32, ptr %incdec.ptr1.i.i.i.i.3, align 4, !tbaa !31
  %cmp.i.i.i.i.i.4 = icmp eq i32 %20, %21
  br i1 %cmp.i.i.i.i.i.4, label %for.inc.i.i.i.i.4, label %if.then.i.i

for.inc.i.i.i.i.4:                                ; preds = %for.inc.i.i.i.i.3
  %__first1.addr.06.i.i.i.i.add.4 = add nuw nsw i64 %__first1.addr.06.i.i.i.i.idx, 5
  %incdec.ptr1.i.i.i.i.4 = getelementptr inbounds i32, ptr %__first2.addr.07.i.i.i.i, i64 5
  %cmp.not.i.i.i.i.4 = icmp eq i64 %__first1.addr.06.i.i.i.i.add.4, 800
  br i1 %cmp.not.i.i.i.i.4, label %for.inc, label %for.body.i.i.i.i, !llvm.loop !39

if.then.i.i:                                      ; preds = %for.inc.i.i.i.i.3, %for.inc.i.i.i.i.2, %for.inc.i.i.i.i.1, %for.inc.i.i.i.i, %for.body.i.i.i.i
  %call1.i5051 = invoke noundef nonnull align 8 dereferenceable(8) ptr @_ZNSt3__124__put_character_sequenceB7v170000IcNS_11char_traitsIcEEEERNS_13basic_ostreamIT_T0_EES7_PKS4_m(ptr noundef nonnull align 8 dereferenceable(8) @_ZNSt3__14cerrE, ptr noundef nonnull @.str.33, i64 noundef 23)
          to label %call4.i.i.noexc unwind label %_ZNSt3__110unique_ptrIA_jNS_14default_deleteIS1_EEED2B7v170000Ev.exit42.loopexit.split-lp

call4.i.i.noexc:                                  ; preds = %if.then.i.i
  %22 = trunc i64 %indvars.iv to i32
  %call5.i.i38 = invoke noundef nonnull align 8 dereferenceable(8) ptr @_ZNSt3__113basic_ostreamIcNS_11char_traitsIcEEElsEi(ptr noundef nonnull align 8 dereferenceable(8) %call1.i5051, i32 noundef %22)
          to label %call5.i.i.noexc unwind label %_ZNSt3__110unique_ptrIA_jNS_14default_deleteIS1_EEED2B7v170000Ev.exit42.loopexit.split-lp

call5.i.i.noexc:                                  ; preds = %call4.i.i.noexc
  %call6.i.i39 = invoke noundef nonnull align 8 dereferenceable(8) ptr @_ZNSt3__1lsB7v170000INS_11char_traitsIcEEEERNS_13basic_ostreamIcT_EES6_PKc(ptr noundef nonnull align 8 dereferenceable(8) %call5.i.i38, ptr noundef nonnull @.str.31)
          to label %call6.i.i.noexc unwind label %_ZNSt3__110unique_ptrIA_jNS_14default_deleteIS1_EEED2B7v170000Ev.exit42.loopexit.split-lp

call6.i.i.noexc:                                  ; preds = %call5.i.i.noexc
  call void @exit(i32 noundef 1) #28
  unreachable

for.inc:                                          ; preds = %for.inc.i.i.i.i.4
  call void @llvm.lifetime.end.p0(i64 8, ptr nonnull %StartPtr.i) #24
  %indvars.iv.next = add nsw i64 %indvars.iv, 1
  %exitcond.not = icmp eq i64 %indvars.iv.next, 101
  br i1 %exitcond.not, label %_ZNSt3__110unique_ptrIA_jNS_14default_deleteIS1_EEED2B7v170000Ev.exit32, label %_ZNSt3__125__independent_bits_engineINS_23mersenne_twister_engineImLm32ELm624ELm397ELm31ELm2567483615ELm11ELm4294967295ELm7ELm2636928640ELm15ELm4022730752ELm18ELm1812433253EEEmEC2ERS2_m.exit.i.preheader, !llvm.loop !40

_ZNSt3__110unique_ptrIA_jNS_14default_deleteIS1_EEED2B7v170000Ev.exit42.loopexit: ; preds = %_ZNKSt3__18functionIFvPjS1_jEEclES1_S1_j.exit.i, %.noexc35
  %lpad.loopexit = landingpad { ptr, i32 }
          cleanup
  br label %_ZNSt3__110unique_ptrIA_jNS_14default_deleteIS1_EEED2B7v170000Ev.exit42

_ZNSt3__110unique_ptrIA_jNS_14default_deleteIS1_EEED2B7v170000Ev.exit42.loopexit.split-lp: ; preds = %if.then.i.i.i, %call4.i.i.noexc, %call5.i.i.noexc, %if.then.i.i
  %lpad.loopexit.split-lp = landingpad { ptr, i32 }
          cleanup
  br label %_ZNSt3__110unique_ptrIA_jNS_14default_deleteIS1_EEED2B7v170000Ev.exit42

_ZNSt3__110unique_ptrIA_jNS_14default_deleteIS1_EEED2B7v170000Ev.exit42: ; preds = %_ZNSt3__110unique_ptrIA_jNS_14default_deleteIS1_EEED2B7v170000Ev.exit42.loopexit.split-lp, %_ZNSt3__110unique_ptrIA_jNS_14default_deleteIS1_EEED2B7v170000Ev.exit42.loopexit
  %lpad.phi = phi { ptr, i32 } [ %lpad.loopexit, %_ZNSt3__110unique_ptrIA_jNS_14default_deleteIS1_EEED2B7v170000Ev.exit42.loopexit ], [ %lpad.loopexit.split-lp, %_ZNSt3__110unique_ptrIA_jNS_14default_deleteIS1_EEED2B7v170000Ev.exit42.loopexit.split-lp ]
  call void @_ZdaPv(ptr noundef nonnull %call9) #26
  br label %_ZNSt3__110unique_ptrIA_jNS_14default_deleteIS1_EEED2B7v170000Ev.exit45

_ZNSt3__110unique_ptrIA_jNS_14default_deleteIS1_EEED2B7v170000Ev.exit45: ; preds = %_ZNSt3__110unique_ptrIA_jNS_14default_deleteIS1_EEED2B7v170000Ev.exit42, %lpad7
  %.pn = phi { ptr, i32 } [ %lpad.phi, %_ZNSt3__110unique_ptrIA_jNS_14default_deleteIS1_EEED2B7v170000Ev.exit42 ], [ %1, %lpad7 ]
  call void @_ZdaPv(ptr noundef nonnull %call5) #26
  br label %_ZNSt3__110unique_ptrIA_jNS_14default_deleteIS1_EEED2B7v170000Ev.exit48

_ZNSt3__110unique_ptrIA_jNS_14default_deleteIS1_EEED2B7v170000Ev.exit48: ; preds = %_ZNSt3__110unique_ptrIA_jNS_14default_deleteIS1_EEED2B7v170000Ev.exit45, %lpad
  %.pn.pn = phi { ptr, i32 } [ %.pn, %_ZNSt3__110unique_ptrIA_jNS_14default_deleteIS1_EEED2B7v170000Ev.exit45 ], [ %0, %lpad ]
  call void @_ZdaPv(ptr noundef nonnull %call3) #26
  call void @llvm.lifetime.end.p0(i64 4, ptr nonnull %N) #24
  resume { ptr, i32 } %.pn.pn
}

; Function Attrs: norecurse uwtable
define internal fastcc void @_ZL37checkOverlappingMemoryOneRuntimeCheckImEvNSt3__18functionIFvPT_S3_jEEES5_PKc(ptr noundef %ScalarFn, ptr noundef %VectorFn, ptr noundef %Name) unnamed_addr #0 personality ptr @__gxx_personality_v0 {
entry:
  %__arg.addr.i.i = alloca ptr, align 8
  %__arg.addr2.i.i = alloca ptr, align 8
  %__arg.addr4.i.i = alloca i32, align 4
  %StartPtr.i = alloca ptr, align 8
  %ref.tmp.i = alloca ptr, align 8
  %N = alloca i32, align 4
  %call1.i = tail call noundef nonnull align 8 dereferenceable(8) ptr @_ZNSt3__124__put_character_sequenceB7v170000IcNS_11char_traitsIcEEEERNS_13basic_ostreamIT_T0_EES7_PKS4_m(ptr noundef nonnull align 8 dereferenceable(8) @_ZNSt3__14coutE, ptr noundef nonnull @.str.30, i64 noundef 9)
  %call.i.i.i23 = tail call i64 @strlen(ptr noundef nonnull dereferenceable(1) %Name) #24
  %call1.i24 = tail call noundef nonnull align 8 dereferenceable(8) ptr @_ZNSt3__124__put_character_sequenceB7v170000IcNS_11char_traitsIcEEEERNS_13basic_ostreamIT_T0_EES7_PKS4_m(ptr noundef nonnull align 8 dereferenceable(8) %call1.i, ptr noundef %Name, i64 noundef %call.i.i.i23)
  %call1.i26 = tail call noundef nonnull align 8 dereferenceable(8) ptr @_ZNSt3__124__put_character_sequenceB7v170000IcNS_11char_traitsIcEEEERNS_13basic_ostreamIT_T0_EES7_PKS4_m(ptr noundef nonnull align 8 dereferenceable(8) %call1.i24, ptr noundef nonnull @.str.31, i64 noundef 1)
  call void @llvm.lifetime.start.p0(i64 4, ptr nonnull %N) #24
  store i32 100, ptr %N, align 4, !tbaa !31
  %call3 = tail call noalias noundef nonnull dereferenceable(6400) ptr @_Znam(i64 noundef 6400) #25
  %call5 = invoke noalias noundef nonnull dereferenceable(6400) ptr @_Znam(i64 noundef 6400) #25
          to label %invoke.cont unwind label %lpad

invoke.cont:                                      ; preds = %entry
  %call9 = invoke noalias noundef nonnull dereferenceable(6400) ptr @_Znam(i64 noundef 6400) #25
          to label %for.cond.preheader unwind label %lpad7

for.cond.preheader:                               ; preds = %invoke.cont
  %arrayidx.i.i = getelementptr inbounds i64, ptr %call5, i64 400
  %__f_.i.i.i = getelementptr inbounds %"class.std::__1::__function::__value_func.11", ptr %ScalarFn, i64 0, i32 1
  %arrayidx.i26.i = getelementptr inbounds i64, ptr %call9, i64 400
  br label %do.body.preheader.lr.ph.i72.preheader

do.body.preheader.lr.ph.i72.preheader:            ; preds = %for.cond.preheader, %for.inc
  %indvars.iv = phi i64 [ -100, %for.cond.preheader ], [ %indvars.iv.next, %for.inc ]
  %.pre.pre.i71.pre = load i64, ptr getelementptr inbounds (%"class.std::__1::mersenne_twister_engine", ptr @_ZL3rng, i64 0, i32 1), align 8, !tbaa !11
  br label %do.body.preheader.lr.ph.i72

_ZNSt3__110unique_ptrIA_mNS_14default_deleteIS1_EEED2B7v170000Ev.exit32: ; preds = %for.inc
  call void @_ZdaPv(ptr noundef nonnull %call9) #26
  call void @_ZdaPv(ptr noundef nonnull %call5) #26
  call void @_ZdaPv(ptr noundef nonnull %call3) #26
  call void @llvm.lifetime.end.p0(i64 4, ptr nonnull %N) #24
  ret void

lpad:                                             ; preds = %entry
  %0 = landingpad { ptr, i32 }
          cleanup
  br label %_ZNSt3__110unique_ptrIA_mNS_14default_deleteIS1_EEED2B7v170000Ev.exit48

lpad7:                                            ; preds = %invoke.cont
  %1 = landingpad { ptr, i32 }
          cleanup
  br label %_ZNSt3__110unique_ptrIA_mNS_14default_deleteIS1_EEED2B7v170000Ev.exit45

do.body.preheader.lr.ph.i72:                      ; preds = %do.body.preheader.lr.ph.i72.preheader, %do.end.i124.1
  %.pre.pre.i71 = phi i64 [ %rem.i.i89.1, %do.end.i124.1 ], [ %.pre.pre.i71.pre, %do.body.preheader.lr.ph.i72.preheader ]
  %indvars.iv.i.i = phi i64 [ %indvars.iv.next.i.i, %do.end.i124.1 ], [ 0, %do.body.preheader.lr.ph.i72.preheader ]
  br label %do.body.i116

do.body.i116:                                     ; preds = %do.body.i116, %do.body.preheader.lr.ph.i72
  %2 = phi i64 [ %.pre.pre.i71, %do.body.preheader.lr.ph.i72 ], [ %rem.i.i89, %do.body.i116 ]
  %add.i.i88 = add i64 %2, 1
  %rem.i.i89 = urem i64 %add.i.i88, 624
  %arrayidx.i.i90 = getelementptr inbounds [624 x i64], ptr @_ZL3rng, i64 0, i64 %2
  %3 = load i64, ptr %arrayidx.i.i90, align 8, !tbaa !5
  %and.i.i91 = and i64 %3, -2147483648
  %arrayidx4.i.i92 = getelementptr inbounds [624 x i64], ptr @_ZL3rng, i64 0, i64 %rem.i.i89
  %4 = load i64, ptr %arrayidx4.i.i92, align 8, !tbaa !5
  %and5.i.i93 = and i64 %4, 2147483646
  %or.i.i94 = or i64 %and5.i.i93, %and.i.i91
  %add7.i.i95 = add i64 %2, 397
  %rem8.i.i96 = urem i64 %add7.i.i95, 624
  %arrayidx10.i.i97 = getelementptr inbounds [624 x i64], ptr @_ZL3rng, i64 0, i64 %rem8.i.i96
  %5 = load i64, ptr %arrayidx10.i.i97, align 8, !tbaa !5
  %shr.i.i.i98 = lshr exact i64 %or.i.i94, 1
  %xor.i.i99 = xor i64 %shr.i.i.i98, %5
  %6 = and i64 %4, 1
  %.not.i.i100 = icmp eq i64 %6, 0
  %mul.i.i101 = select i1 %.not.i.i100, i64 0, i64 2567483615
  %xor12.i.i102 = xor i64 %xor.i.i99, %mul.i.i101
  store i64 %xor12.i.i102, ptr %arrayidx.i.i90, align 8, !tbaa !5
  %7 = load i64, ptr getelementptr inbounds (%"class.std::__1::mersenne_twister_engine", ptr @_ZL3rng, i64 0, i32 1), align 8, !tbaa !11
  %arrayidx18.i.i103 = getelementptr inbounds [624 x i64], ptr @_ZL3rng, i64 0, i64 %7
  %8 = load i64, ptr %arrayidx18.i.i103, align 8, !tbaa !5
  %shr.i41.i.i104 = lshr i64 %8, 11
  %and23.i.i105 = and i64 %shr.i41.i.i104, 4294967295
  %xor24.i.i106 = xor i64 %and23.i.i105, %8
  store i64 %rem.i.i89, ptr getelementptr inbounds (%"class.std::__1::mersenne_twister_engine", ptr @_ZL3rng, i64 0, i32 1), align 8, !tbaa !11
  %shl.i.i.i107 = shl i64 %xor24.i.i106, 7
  %and27.i.i108 = and i64 %shl.i.i.i107, 2636928640
  %xor28.i.i109 = xor i64 %and27.i.i108, %xor24.i.i106
  %shl.i42.i.i110 = shl i64 %xor28.i.i109, 15
  %and30.i.i111 = and i64 %shl.i42.i.i110, 4022730752
  %xor31.i.i112 = xor i64 %and30.i.i111, %xor28.i.i109
  %shr.i44.i.i113 = lshr i64 %xor31.i.i112, 18
  %xor33.i.i114 = xor i64 %shr.i44.i.i113, %xor31.i.i112
  %cmp3.not.i115 = icmp ult i64 %xor33.i.i114, 4294967296
  br i1 %cmp3.not.i115, label %do.body.i116.1, label %do.body.i116, !llvm.loop !33

do.body.i116.1:                                   ; preds = %do.body.i116, %do.body.i116.1
  %9 = phi i64 [ %rem.i.i89.1, %do.body.i116.1 ], [ %rem.i.i89, %do.body.i116 ]
  %add.i.i88.1 = add nuw nsw i64 %9, 1
  %rem.i.i89.1 = urem i64 %add.i.i88.1, 624
  %arrayidx.i.i90.1 = getelementptr inbounds [624 x i64], ptr @_ZL3rng, i64 0, i64 %9
  %10 = load i64, ptr %arrayidx.i.i90.1, align 8, !tbaa !5
  %and.i.i91.1 = and i64 %10, -2147483648
  %arrayidx4.i.i92.1 = getelementptr inbounds [624 x i64], ptr @_ZL3rng, i64 0, i64 %rem.i.i89.1
  %11 = load i64, ptr %arrayidx4.i.i92.1, align 8, !tbaa !5
  %and5.i.i93.1 = and i64 %11, 2147483646
  %or.i.i94.1 = or i64 %and5.i.i93.1, %and.i.i91.1
  %add7.i.i95.1 = add nuw nsw i64 %9, 397
  %rem8.i.i96.1 = urem i64 %add7.i.i95.1, 624
  %arrayidx10.i.i97.1 = getelementptr inbounds [624 x i64], ptr @_ZL3rng, i64 0, i64 %rem8.i.i96.1
  %12 = load i64, ptr %arrayidx10.i.i97.1, align 8, !tbaa !5
  %shr.i.i.i98.1 = lshr exact i64 %or.i.i94.1, 1
  %xor.i.i99.1 = xor i64 %shr.i.i.i98.1, %12
  %13 = and i64 %11, 1
  %.not.i.i100.1 = icmp eq i64 %13, 0
  %mul.i.i101.1 = select i1 %.not.i.i100.1, i64 0, i64 2567483615
  %xor12.i.i102.1 = xor i64 %xor.i.i99.1, %mul.i.i101.1
  store i64 %xor12.i.i102.1, ptr %arrayidx.i.i90.1, align 8, !tbaa !5
  %14 = load i64, ptr getelementptr inbounds (%"class.std::__1::mersenne_twister_engine", ptr @_ZL3rng, i64 0, i32 1), align 8, !tbaa !11
  %arrayidx18.i.i103.1 = getelementptr inbounds [624 x i64], ptr @_ZL3rng, i64 0, i64 %14
  %15 = load i64, ptr %arrayidx18.i.i103.1, align 8, !tbaa !5
  %shr.i41.i.i104.1 = lshr i64 %15, 11
  %and23.i.i105.1 = and i64 %shr.i41.i.i104.1, 4294967295
  %xor24.i.i106.1 = xor i64 %and23.i.i105.1, %15
  store i64 %rem.i.i89.1, ptr getelementptr inbounds (%"class.std::__1::mersenne_twister_engine", ptr @_ZL3rng, i64 0, i32 1), align 8, !tbaa !11
  %shl.i.i.i107.1 = shl i64 %xor24.i.i106.1, 7
  %and27.i.i108.1 = and i64 %shl.i.i.i107.1, 2636928640
  %xor28.i.i109.1 = xor i64 %and27.i.i108.1, %xor24.i.i106.1
  %shl.i42.i.i110.1 = shl i64 %xor28.i.i109.1, 15
  %and30.i.i111.1 = and i64 %shl.i42.i.i110.1, 4022730752
  %xor31.i.i112.1 = xor i64 %and30.i.i111.1, %xor28.i.i109.1
  %shr.i44.i.i113.1 = lshr i64 %xor31.i.i112.1, 18
  %xor33.i.i114.1 = xor i64 %shr.i44.i.i113.1, %xor31.i.i112.1
  %cmp3.not.i115.1 = icmp ult i64 %xor33.i.i114.1, 4294967296
  br i1 %cmp3.not.i115.1, label %do.end.i124.1, label %do.body.i116.1, !llvm.loop !33

do.end.i124.1:                                    ; preds = %do.body.i116.1
  %and.i120 = shl i64 %xor33.i.i114, 32
  %add.i121.1 = or i64 %xor33.i.i114.1, %and.i120
  %arrayidx.i.i.i = getelementptr inbounds i64, ptr %call3, i64 %indvars.iv.i.i
  store i64 %add.i121.1, ptr %arrayidx.i.i.i, align 8, !tbaa !5
  %indvars.iv.next.i.i = add nuw nsw i64 %indvars.iv.i.i, 1
  %exitcond.not.i.i = icmp eq i64 %indvars.iv.next.i.i, 800
  br i1 %exitcond.not.i.i, label %for.body.i.preheader, label %do.body.preheader.lr.ph.i72, !llvm.loop !41

for.body.i.preheader:                             ; preds = %do.end.i124.1
  call void @llvm.memcpy.p0.p0.i64(ptr noundef nonnull align 8 dereferenceable(6400) %call5, ptr noundef nonnull align 8 dereferenceable(6400) %call3, i64 6400, i1 false), !tbaa !5
  call void @llvm.memcpy.p0.p0.i64(ptr noundef nonnull align 8 dereferenceable(6400) %call9, ptr noundef nonnull align 8 dereferenceable(6400) %call3, i64 6400, i1 false), !tbaa !5
  %add.ptr.i = getelementptr inbounds i64, ptr %arrayidx.i.i, i64 %indvars.iv
  %16 = load i32, ptr %N, align 4, !tbaa !31
  call void @llvm.lifetime.start.p0(i64 8, ptr nonnull %__arg.addr.i.i)
  call void @llvm.lifetime.start.p0(i64 8, ptr nonnull %__arg.addr2.i.i)
  call void @llvm.lifetime.start.p0(i64 4, ptr nonnull %__arg.addr4.i.i)
  store ptr %add.ptr.i, ptr %__arg.addr.i.i, align 8, !tbaa !35
  store ptr %arrayidx.i.i, ptr %__arg.addr2.i.i, align 8, !tbaa !35
  store i32 %16, ptr %__arg.addr4.i.i, align 4, !tbaa !31
  %17 = load ptr, ptr %__f_.i.i.i, align 16, !tbaa !23
  %cmp.i.i.i = icmp eq ptr %17, null
  br i1 %cmp.i.i.i, label %if.then.i.i.i, label %_ZNKSt3__18functionIFvPmS1_jEEclES1_S1_j.exit.i

if.then.i.i.i:                                    ; preds = %for.body.i.preheader
  invoke void @_ZNSt3__125__throw_bad_function_callB7v170000Ev() #27
          to label %.noexc unwind label %_ZNSt3__110unique_ptrIA_mNS_14default_deleteIS1_EEED2B7v170000Ev.exit42.loopexit.split-lp

.noexc:                                           ; preds = %if.then.i.i.i
  unreachable

_ZNKSt3__18functionIFvPmS1_jEEclES1_S1_j.exit.i:  ; preds = %for.body.i.preheader
  %vtable.i.i.i = load ptr, ptr %17, align 8, !tbaa !15
  %vfn.i.i.i = getelementptr inbounds ptr, ptr %vtable.i.i.i, i64 6
  %18 = load ptr, ptr %vfn.i.i.i, align 8
  invoke void %18(ptr noundef nonnull align 8 dereferenceable(8) %17, ptr noundef nonnull align 8 dereferenceable(8) %__arg.addr.i.i, ptr noundef nonnull align 8 dereferenceable(8) %__arg.addr2.i.i, ptr noundef nonnull align 4 dereferenceable(4) %__arg.addr4.i.i)
          to label %.noexc35 unwind label %_ZNSt3__110unique_ptrIA_mNS_14default_deleteIS1_EEED2B7v170000Ev.exit42.loopexit

.noexc35:                                         ; preds = %_ZNKSt3__18functionIFvPmS1_jEEclES1_S1_j.exit.i
  call void @llvm.lifetime.end.p0(i64 8, ptr nonnull %__arg.addr.i.i)
  call void @llvm.lifetime.end.p0(i64 8, ptr nonnull %__arg.addr2.i.i)
  call void @llvm.lifetime.end.p0(i64 4, ptr nonnull %__arg.addr4.i.i)
  call void @llvm.lifetime.start.p0(i64 8, ptr nonnull %StartPtr.i) #24
  store ptr %arrayidx.i26.i, ptr %StartPtr.i, align 8, !tbaa !35
  call void @llvm.lifetime.start.p0(i64 8, ptr nonnull %ref.tmp.i) #24
  %add.ptr14.i = getelementptr inbounds i64, ptr %arrayidx.i26.i, i64 %indvars.iv
  store ptr %add.ptr14.i, ptr %ref.tmp.i, align 8, !tbaa !35
  invoke fastcc void @_ZL18callThroughOptnoneIRNSt3__18functionIFvPmS2_jEEEJS2_RS2_RjEEvOT_DpOT0_(ptr noundef nonnull align 16 dereferenceable(48) %VectorFn, ptr noundef nonnull align 8 dereferenceable(8) %ref.tmp.i, ptr noundef nonnull align 8 dereferenceable(8) %StartPtr.i, ptr noundef nonnull align 4 dereferenceable(4) %N)
          to label %for.body.i.i.i.preheader.i unwind label %_ZNSt3__110unique_ptrIA_mNS_14default_deleteIS1_EEED2B7v170000Ev.exit42.loopexit

for.body.i.i.i.preheader.i:                       ; preds = %.noexc35
  call void @llvm.lifetime.end.p0(i64 8, ptr nonnull %ref.tmp.i) #24
  br label %for.body.i.i.i.i

for.body.i.i.i.i:                                 ; preds = %for.inc.i.i.i.i.4, %for.body.i.i.i.preheader.i
  %__first2.addr.07.i.i.i.i = phi ptr [ %call9, %for.body.i.i.i.preheader.i ], [ %incdec.ptr1.i.i.i.i.4, %for.inc.i.i.i.i.4 ]
  %__first1.addr.06.i.i.i.i.idx = phi i64 [ 0, %for.body.i.i.i.preheader.i ], [ %__first1.addr.06.i.i.i.i.add.4, %for.inc.i.i.i.i.4 ]
  %__first1.addr.06.i.i.i.i.ptr = getelementptr inbounds i64, ptr %call5, i64 %__first1.addr.06.i.i.i.i.idx
  %19 = load i64, ptr %__first1.addr.06.i.i.i.i.ptr, align 8, !tbaa !5
  %20 = load i64, ptr %__first2.addr.07.i.i.i.i, align 8, !tbaa !5
  %cmp.i.i.i.i.i = icmp eq i64 %19, %20
  br i1 %cmp.i.i.i.i.i, label %for.inc.i.i.i.i, label %if.then.i.i

for.inc.i.i.i.i:                                  ; preds = %for.body.i.i.i.i
  %__first1.addr.06.i.i.i.i.add = add nuw nsw i64 %__first1.addr.06.i.i.i.i.idx, 1
  %incdec.ptr1.i.i.i.i = getelementptr inbounds i64, ptr %__first2.addr.07.i.i.i.i, i64 1
  %__first1.addr.06.i.i.i.i.ptr.1 = getelementptr inbounds i64, ptr %call5, i64 %__first1.addr.06.i.i.i.i.add
  %21 = load i64, ptr %__first1.addr.06.i.i.i.i.ptr.1, align 8, !tbaa !5
  %22 = load i64, ptr %incdec.ptr1.i.i.i.i, align 8, !tbaa !5
  %cmp.i.i.i.i.i.1 = icmp eq i64 %21, %22
  br i1 %cmp.i.i.i.i.i.1, label %for.inc.i.i.i.i.1, label %if.then.i.i

for.inc.i.i.i.i.1:                                ; preds = %for.inc.i.i.i.i
  %__first1.addr.06.i.i.i.i.add.1 = add nuw nsw i64 %__first1.addr.06.i.i.i.i.idx, 2
  %incdec.ptr1.i.i.i.i.1 = getelementptr inbounds i64, ptr %__first2.addr.07.i.i.i.i, i64 2
  %__first1.addr.06.i.i.i.i.ptr.2 = getelementptr inbounds i64, ptr %call5, i64 %__first1.addr.06.i.i.i.i.add.1
  %23 = load i64, ptr %__first1.addr.06.i.i.i.i.ptr.2, align 8, !tbaa !5
  %24 = load i64, ptr %incdec.ptr1.i.i.i.i.1, align 8, !tbaa !5
  %cmp.i.i.i.i.i.2 = icmp eq i64 %23, %24
  br i1 %cmp.i.i.i.i.i.2, label %for.inc.i.i.i.i.2, label %if.then.i.i

for.inc.i.i.i.i.2:                                ; preds = %for.inc.i.i.i.i.1
  %__first1.addr.06.i.i.i.i.add.2 = add nuw nsw i64 %__first1.addr.06.i.i.i.i.idx, 3
  %incdec.ptr1.i.i.i.i.2 = getelementptr inbounds i64, ptr %__first2.addr.07.i.i.i.i, i64 3
  %__first1.addr.06.i.i.i.i.ptr.3 = getelementptr inbounds i64, ptr %call5, i64 %__first1.addr.06.i.i.i.i.add.2
  %25 = load i64, ptr %__first1.addr.06.i.i.i.i.ptr.3, align 8, !tbaa !5
  %26 = load i64, ptr %incdec.ptr1.i.i.i.i.2, align 8, !tbaa !5
  %cmp.i.i.i.i.i.3 = icmp eq i64 %25, %26
  br i1 %cmp.i.i.i.i.i.3, label %for.inc.i.i.i.i.3, label %if.then.i.i

for.inc.i.i.i.i.3:                                ; preds = %for.inc.i.i.i.i.2
  %__first1.addr.06.i.i.i.i.add.3 = add nuw nsw i64 %__first1.addr.06.i.i.i.i.idx, 4
  %incdec.ptr1.i.i.i.i.3 = getelementptr inbounds i64, ptr %__first2.addr.07.i.i.i.i, i64 4
  %__first1.addr.06.i.i.i.i.ptr.4 = getelementptr inbounds i64, ptr %call5, i64 %__first1.addr.06.i.i.i.i.add.3
  %27 = load i64, ptr %__first1.addr.06.i.i.i.i.ptr.4, align 8, !tbaa !5
  %28 = load i64, ptr %incdec.ptr1.i.i.i.i.3, align 8, !tbaa !5
  %cmp.i.i.i.i.i.4 = icmp eq i64 %27, %28
  br i1 %cmp.i.i.i.i.i.4, label %for.inc.i.i.i.i.4, label %if.then.i.i

for.inc.i.i.i.i.4:                                ; preds = %for.inc.i.i.i.i.3
  %__first1.addr.06.i.i.i.i.add.4 = add nuw nsw i64 %__first1.addr.06.i.i.i.i.idx, 5
  %incdec.ptr1.i.i.i.i.4 = getelementptr inbounds i64, ptr %__first2.addr.07.i.i.i.i, i64 5
  %cmp.not.i.i.i.i.4 = icmp eq i64 %__first1.addr.06.i.i.i.i.add.4, 800
  br i1 %cmp.not.i.i.i.i.4, label %for.inc, label %for.body.i.i.i.i, !llvm.loop !42

if.then.i.i:                                      ; preds = %for.inc.i.i.i.i.3, %for.inc.i.i.i.i.2, %for.inc.i.i.i.i.1, %for.inc.i.i.i.i, %for.body.i.i.i.i
  %call1.i5051 = invoke noundef nonnull align 8 dereferenceable(8) ptr @_ZNSt3__124__put_character_sequenceB7v170000IcNS_11char_traitsIcEEEERNS_13basic_ostreamIT_T0_EES7_PKS4_m(ptr noundef nonnull align 8 dereferenceable(8) @_ZNSt3__14cerrE, ptr noundef nonnull @.str.33, i64 noundef 23)
          to label %call4.i.i.noexc unwind label %_ZNSt3__110unique_ptrIA_mNS_14default_deleteIS1_EEED2B7v170000Ev.exit42.loopexit.split-lp

call4.i.i.noexc:                                  ; preds = %if.then.i.i
  %29 = trunc i64 %indvars.iv to i32
  %call5.i.i38 = invoke noundef nonnull align 8 dereferenceable(8) ptr @_ZNSt3__113basic_ostreamIcNS_11char_traitsIcEEElsEi(ptr noundef nonnull align 8 dereferenceable(8) %call1.i5051, i32 noundef %29)
          to label %call5.i.i.noexc unwind label %_ZNSt3__110unique_ptrIA_mNS_14default_deleteIS1_EEED2B7v170000Ev.exit42.loopexit.split-lp

call5.i.i.noexc:                                  ; preds = %call4.i.i.noexc
  %call6.i.i39 = invoke noundef nonnull align 8 dereferenceable(8) ptr @_ZNSt3__1lsB7v170000INS_11char_traitsIcEEEERNS_13basic_ostreamIcT_EES6_PKc(ptr noundef nonnull align 8 dereferenceable(8) %call5.i.i38, ptr noundef nonnull @.str.31)
          to label %call6.i.i.noexc unwind label %_ZNSt3__110unique_ptrIA_mNS_14default_deleteIS1_EEED2B7v170000Ev.exit42.loopexit.split-lp

call6.i.i.noexc:                                  ; preds = %call5.i.i.noexc
  call void @exit(i32 noundef 1) #28
  unreachable

for.inc:                                          ; preds = %for.inc.i.i.i.i.4
  call void @llvm.lifetime.end.p0(i64 8, ptr nonnull %StartPtr.i) #24
  %indvars.iv.next = add nsw i64 %indvars.iv, 1
  %exitcond.not = icmp eq i64 %indvars.iv.next, 101
  br i1 %exitcond.not, label %_ZNSt3__110unique_ptrIA_mNS_14default_deleteIS1_EEED2B7v170000Ev.exit32, label %do.body.preheader.lr.ph.i72.preheader, !llvm.loop !43

_ZNSt3__110unique_ptrIA_mNS_14default_deleteIS1_EEED2B7v170000Ev.exit42.loopexit: ; preds = %_ZNKSt3__18functionIFvPmS1_jEEclES1_S1_j.exit.i, %.noexc35
  %lpad.loopexit = landingpad { ptr, i32 }
          cleanup
  br label %_ZNSt3__110unique_ptrIA_mNS_14default_deleteIS1_EEED2B7v170000Ev.exit42

_ZNSt3__110unique_ptrIA_mNS_14default_deleteIS1_EEED2B7v170000Ev.exit42.loopexit.split-lp: ; preds = %if.then.i.i.i, %call4.i.i.noexc, %call5.i.i.noexc, %if.then.i.i
  %lpad.loopexit.split-lp = landingpad { ptr, i32 }
          cleanup
  br label %_ZNSt3__110unique_ptrIA_mNS_14default_deleteIS1_EEED2B7v170000Ev.exit42

_ZNSt3__110unique_ptrIA_mNS_14default_deleteIS1_EEED2B7v170000Ev.exit42: ; preds = %_ZNSt3__110unique_ptrIA_mNS_14default_deleteIS1_EEED2B7v170000Ev.exit42.loopexit.split-lp, %_ZNSt3__110unique_ptrIA_mNS_14default_deleteIS1_EEED2B7v170000Ev.exit42.loopexit
  %lpad.phi = phi { ptr, i32 } [ %lpad.loopexit, %_ZNSt3__110unique_ptrIA_mNS_14default_deleteIS1_EEED2B7v170000Ev.exit42.loopexit ], [ %lpad.loopexit.split-lp, %_ZNSt3__110unique_ptrIA_mNS_14default_deleteIS1_EEED2B7v170000Ev.exit42.loopexit.split-lp ]
  call void @_ZdaPv(ptr noundef nonnull %call9) #26
  br label %_ZNSt3__110unique_ptrIA_mNS_14default_deleteIS1_EEED2B7v170000Ev.exit45

_ZNSt3__110unique_ptrIA_mNS_14default_deleteIS1_EEED2B7v170000Ev.exit45: ; preds = %_ZNSt3__110unique_ptrIA_mNS_14default_deleteIS1_EEED2B7v170000Ev.exit42, %lpad7
  %.pn = phi { ptr, i32 } [ %lpad.phi, %_ZNSt3__110unique_ptrIA_mNS_14default_deleteIS1_EEED2B7v170000Ev.exit42 ], [ %1, %lpad7 ]
  call void @_ZdaPv(ptr noundef nonnull %call5) #26
  br label %_ZNSt3__110unique_ptrIA_mNS_14default_deleteIS1_EEED2B7v170000Ev.exit48

_ZNSt3__110unique_ptrIA_mNS_14default_deleteIS1_EEED2B7v170000Ev.exit48: ; preds = %_ZNSt3__110unique_ptrIA_mNS_14default_deleteIS1_EEED2B7v170000Ev.exit45, %lpad
  %.pn.pn = phi { ptr, i32 } [ %.pn, %_ZNSt3__110unique_ptrIA_mNS_14default_deleteIS1_EEED2B7v170000Ev.exit45 ], [ %0, %lpad ]
  call void @_ZdaPv(ptr noundef nonnull %call3) #26
  call void @llvm.lifetime.end.p0(i64 4, ptr nonnull %N) #24
  resume { ptr, i32 } %.pn.pn
}

; Function Attrs: norecurse uwtable
define internal fastcc void @_ZL38checkOverlappingMemoryTwoRuntimeChecksIjEvNSt3__18functionIFvPT_S3_S3_jEEES5_PKc(ptr noundef %ScalarFn, ptr noundef %VectorFn, ptr noundef %Name) unnamed_addr #0 personality ptr @__gxx_personality_v0 {
entry:
  %__arg.addr.i.i = alloca ptr, align 8
  %__arg.addr2.i.i = alloca ptr, align 8
  %__arg.addr4.i.i = alloca ptr, align 8
  %__arg.addr6.i.i = alloca i32, align 4
  %StartPtr.i = alloca ptr, align 8
  %ref.tmp.i = alloca ptr, align 8
  %ref.tmp16.i = alloca ptr, align 8
  %N = alloca i32, align 4
  %call1.i = tail call noundef nonnull align 8 dereferenceable(8) ptr @_ZNSt3__124__put_character_sequenceB7v170000IcNS_11char_traitsIcEEEERNS_13basic_ostreamIT_T0_EES7_PKS4_m(ptr noundef nonnull align 8 dereferenceable(8) @_ZNSt3__14coutE, ptr noundef nonnull @.str.30, i64 noundef 9)
  %call.i.i.i30 = tail call i64 @strlen(ptr noundef nonnull dereferenceable(1) %Name) #24
  %call1.i31 = tail call noundef nonnull align 8 dereferenceable(8) ptr @_ZNSt3__124__put_character_sequenceB7v170000IcNS_11char_traitsIcEEEERNS_13basic_ostreamIT_T0_EES7_PKS4_m(ptr noundef nonnull align 8 dereferenceable(8) %call1.i, ptr noundef %Name, i64 noundef %call.i.i.i30)
  %call1.i33 = tail call noundef nonnull align 8 dereferenceable(8) ptr @_ZNSt3__124__put_character_sequenceB7v170000IcNS_11char_traitsIcEEEERNS_13basic_ostreamIT_T0_EES7_PKS4_m(ptr noundef nonnull align 8 dereferenceable(8) %call1.i31, ptr noundef nonnull @.str.31, i64 noundef 1)
  call void @llvm.lifetime.start.p0(i64 4, ptr nonnull %N) #24
  store i32 100, ptr %N, align 4, !tbaa !31
  %call3 = tail call noalias noundef nonnull dereferenceable(3200) ptr @_Znam(i64 noundef 3200) #25
  %call5 = invoke noalias noundef nonnull dereferenceable(3200) ptr @_Znam(i64 noundef 3200) #25
          to label %invoke.cont unwind label %lpad

invoke.cont:                                      ; preds = %entry
  %call9 = invoke noalias noundef nonnull dereferenceable(3200) ptr @_Znam(i64 noundef 3200) #25
          to label %invoke.cont8 unwind label %lpad7

invoke.cont8:                                     ; preds = %invoke.cont
  %call13 = invoke noalias noundef nonnull dereferenceable(3200) ptr @_Znam(i64 noundef 3200) #25
          to label %for.cond.preheader unwind label %lpad11

for.cond.preheader:                               ; preds = %invoke.cont8
  %arrayidx.i.i = getelementptr inbounds i32, ptr %call9, i64 400
  %__f_.i.i.i = getelementptr inbounds %"class.std::__1::__function::__value_func.49", ptr %ScalarFn, i64 0, i32 1
  %arrayidx.i42.i = getelementptr inbounds i32, ptr %call13, i64 400
  br label %_ZNSt3__125__independent_bits_engineINS_23mersenne_twister_engineImLm32ELm624ELm397ELm31ELm2567483615ELm11ELm4294967295ELm7ELm2636928640ELm15ELm4022730752ELm18ELm1812433253EEEmEC2ERS2_m.exit.i139.preheader

_ZNSt3__125__independent_bits_engineINS_23mersenne_twister_engineImLm32ELm624ELm397ELm31ELm2567483615ELm11ELm4294967295ELm7ELm2636928640ELm15ELm4022730752ELm18ELm1812433253EEEmEC2ERS2_m.exit.i139.preheader: ; preds = %for.cond.preheader, %for.inc
  %indvars.iv = phi i64 [ -100, %for.cond.preheader ], [ %indvars.iv.next, %for.inc ]
  %.pre.pre.i271.pre = load i64, ptr getelementptr inbounds (%"class.std::__1::mersenne_twister_engine", ptr @_ZL3rng, i64 0, i32 1), align 8, !tbaa !11
  br label %_ZNSt3__125__independent_bits_engineINS_23mersenne_twister_engineImLm32ELm624ELm397ELm31ELm2567483615ELm11ELm4294967295ELm7ELm2636928640ELm15ELm4022730752ELm18ELm1812433253EEEmEC2ERS2_m.exit.i139

_ZNSt3__110unique_ptrIA_jNS_14default_deleteIS1_EEED2B7v170000Ev.exit42: ; preds = %for.inc
  call void @_ZdaPv(ptr noundef nonnull %call13) #26
  call void @_ZdaPv(ptr noundef nonnull %call9) #26
  call void @_ZdaPv(ptr noundef nonnull %call5) #26
  call void @_ZdaPv(ptr noundef nonnull %call3) #26
  call void @llvm.lifetime.end.p0(i64 4, ptr nonnull %N) #24
  ret void

lpad:                                             ; preds = %entry
  %0 = landingpad { ptr, i32 }
          cleanup
  br label %_ZNSt3__110unique_ptrIA_jNS_14default_deleteIS1_EEED2B7v170000Ev.exit62

lpad7:                                            ; preds = %invoke.cont
  %1 = landingpad { ptr, i32 }
          cleanup
  br label %_ZNSt3__110unique_ptrIA_jNS_14default_deleteIS1_EEED2B7v170000Ev.exit59

lpad11:                                           ; preds = %invoke.cont8
  %2 = landingpad { ptr, i32 }
          cleanup
  br label %_ZNSt3__110unique_ptrIA_jNS_14default_deleteIS1_EEED2B7v170000Ev.exit56

_ZNSt3__125__independent_bits_engineINS_23mersenne_twister_engineImLm32ELm624ELm397ELm31ELm2567483615ELm11ELm4294967295ELm7ELm2636928640ELm15ELm4022730752ELm18ELm1812433253EEEmEC2ERS2_m.exit.i139: ; preds = %_ZNSt3__125__independent_bits_engineINS_23mersenne_twister_engineImLm32ELm624ELm397ELm31ELm2567483615ELm11ELm4294967295ELm7ELm2636928640ELm15ELm4022730752ELm18ELm1812433253EEEmEC2ERS2_m.exit.i139.preheader, %do.end.i324
  %.pre.pre.i271 = phi i64 [ %rem.i.i289, %do.end.i324 ], [ %.pre.pre.i271.pre, %_ZNSt3__125__independent_bits_engineINS_23mersenne_twister_engineImLm32ELm624ELm397ELm31ELm2567483615ELm11ELm4294967295ELm7ELm2636928640ELm15ELm4022730752ELm18ELm1812433253EEEmEC2ERS2_m.exit.i139.preheader ]
  %indvars.iv.i.i = phi i64 [ %indvars.iv.next.i.i, %do.end.i324 ], [ 0, %_ZNSt3__125__independent_bits_engineINS_23mersenne_twister_engineImLm32ELm624ELm397ELm31ELm2567483615ELm11ELm4294967295ELm7ELm2636928640ELm15ELm4022730752ELm18ELm1812433253EEEmEC2ERS2_m.exit.i139.preheader ]
  br label %do.body.i316

do.body.i316:                                     ; preds = %do.body.i316, %_ZNSt3__125__independent_bits_engineINS_23mersenne_twister_engineImLm32ELm624ELm397ELm31ELm2567483615ELm11ELm4294967295ELm7ELm2636928640ELm15ELm4022730752ELm18ELm1812433253EEEmEC2ERS2_m.exit.i139
  %3 = phi i64 [ %.pre.pre.i271, %_ZNSt3__125__independent_bits_engineINS_23mersenne_twister_engineImLm32ELm624ELm397ELm31ELm2567483615ELm11ELm4294967295ELm7ELm2636928640ELm15ELm4022730752ELm18ELm1812433253EEEmEC2ERS2_m.exit.i139 ], [ %rem.i.i289, %do.body.i316 ]
  %add.i.i288 = add i64 %3, 1
  %rem.i.i289 = urem i64 %add.i.i288, 624
  %arrayidx.i.i290 = getelementptr inbounds [624 x i64], ptr @_ZL3rng, i64 0, i64 %3
  %4 = load i64, ptr %arrayidx.i.i290, align 8, !tbaa !5
  %and.i.i291 = and i64 %4, -2147483648
  %arrayidx4.i.i292 = getelementptr inbounds [624 x i64], ptr @_ZL3rng, i64 0, i64 %rem.i.i289
  %5 = load i64, ptr %arrayidx4.i.i292, align 8, !tbaa !5
  %and5.i.i293 = and i64 %5, 2147483646
  %or.i.i294 = or i64 %and5.i.i293, %and.i.i291
  %add7.i.i295 = add i64 %3, 397
  %rem8.i.i296 = urem i64 %add7.i.i295, 624
  %arrayidx10.i.i297 = getelementptr inbounds [624 x i64], ptr @_ZL3rng, i64 0, i64 %rem8.i.i296
  %6 = load i64, ptr %arrayidx10.i.i297, align 8, !tbaa !5
  %shr.i.i.i298 = lshr exact i64 %or.i.i294, 1
  %xor.i.i299 = xor i64 %shr.i.i.i298, %6
  %7 = and i64 %5, 1
  %.not.i.i300 = icmp eq i64 %7, 0
  %mul.i.i301 = select i1 %.not.i.i300, i64 0, i64 2567483615
  %xor12.i.i302 = xor i64 %xor.i.i299, %mul.i.i301
  store i64 %xor12.i.i302, ptr %arrayidx.i.i290, align 8, !tbaa !5
  %8 = load i64, ptr getelementptr inbounds (%"class.std::__1::mersenne_twister_engine", ptr @_ZL3rng, i64 0, i32 1), align 8, !tbaa !11
  %arrayidx18.i.i303 = getelementptr inbounds [624 x i64], ptr @_ZL3rng, i64 0, i64 %8
  %9 = load i64, ptr %arrayidx18.i.i303, align 8, !tbaa !5
  %shr.i41.i.i304 = lshr i64 %9, 11
  %and23.i.i305 = and i64 %shr.i41.i.i304, 4294967295
  %xor24.i.i306 = xor i64 %and23.i.i305, %9
  store i64 %rem.i.i289, ptr getelementptr inbounds (%"class.std::__1::mersenne_twister_engine", ptr @_ZL3rng, i64 0, i32 1), align 8, !tbaa !11
  %shl.i.i.i307 = shl i64 %xor24.i.i306, 7
  %and27.i.i308 = and i64 %shl.i.i.i307, 2636928640
  %xor28.i.i309 = xor i64 %and27.i.i308, %xor24.i.i306
  %shl.i42.i.i310 = shl i64 %xor28.i.i309, 15
  %and30.i.i311 = and i64 %shl.i42.i.i310, 4022730752
  %xor31.i.i312 = xor i64 %and30.i.i311, %xor28.i.i309
  %shr.i44.i.i313 = lshr i64 %xor31.i.i312, 18
  %xor33.i.i314 = xor i64 %shr.i44.i.i313, %xor31.i.i312
  %cmp3.not.i315 = icmp ult i64 %xor33.i.i314, 4294967296
  br i1 %cmp3.not.i315, label %do.end.i324, label %do.body.i316, !llvm.loop !33

do.end.i324:                                      ; preds = %do.body.i316
  %conv4.i.i = trunc i64 %xor33.i.i314 to i32
  %arrayidx.i.i.i = getelementptr inbounds i32, ptr %call3, i64 %indvars.iv.i.i
  store i32 %conv4.i.i, ptr %arrayidx.i.i.i, align 4, !tbaa !31
  %indvars.iv.next.i.i = add nuw nsw i64 %indvars.iv.i.i, 1
  %exitcond.not.i.i = icmp eq i64 %indvars.iv.next.i.i, 800
  br i1 %exitcond.not.i.i, label %_ZNSt3__125__independent_bits_engineINS_23mersenne_twister_engineImLm32ELm624ELm397ELm31ELm2567483615ELm11ELm4294967295ELm7ELm2636928640ELm15ELm4022730752ELm18ELm1812433253EEEmEC2ERS2_m.exit.i, label %_ZNSt3__125__independent_bits_engineINS_23mersenne_twister_engineImLm32ELm624ELm397ELm31ELm2567483615ELm11ELm4294967295ELm7ELm2636928640ELm15ELm4022730752ELm18ELm1812433253EEEmEC2ERS2_m.exit.i139, !llvm.loop !38

_ZNSt3__125__independent_bits_engineINS_23mersenne_twister_engineImLm32ELm624ELm397ELm31ELm2567483615ELm11ELm4294967295ELm7ELm2636928640ELm15ELm4022730752ELm18ELm1812433253EEEmEC2ERS2_m.exit.i: ; preds = %do.end.i324, %do.end.i160
  %.pre.pre.i = phi i64 [ %rem.i.i153, %do.end.i160 ], [ %rem.i.i289, %do.end.i324 ]
  %indvars.iv.i34.i = phi i64 [ %indvars.iv.next.i38.i, %do.end.i160 ], [ 0, %do.end.i324 ]
  br label %do.body.i155

do.body.i155:                                     ; preds = %do.body.i155, %_ZNSt3__125__independent_bits_engineINS_23mersenne_twister_engineImLm32ELm624ELm397ELm31ELm2567483615ELm11ELm4294967295ELm7ELm2636928640ELm15ELm4022730752ELm18ELm1812433253EEEmEC2ERS2_m.exit.i
  %10 = phi i64 [ %.pre.pre.i, %_ZNSt3__125__independent_bits_engineINS_23mersenne_twister_engineImLm32ELm624ELm397ELm31ELm2567483615ELm11ELm4294967295ELm7ELm2636928640ELm15ELm4022730752ELm18ELm1812433253EEEmEC2ERS2_m.exit.i ], [ %rem.i.i153, %do.body.i155 ]
  %add.i.i152 = add nuw nsw i64 %10, 1
  %rem.i.i153 = urem i64 %add.i.i152, 624
  %arrayidx.i.i154 = getelementptr inbounds [624 x i64], ptr @_ZL3rng, i64 0, i64 %10
  %11 = load i64, ptr %arrayidx.i.i154, align 8, !tbaa !5
  %and.i.i = and i64 %11, -2147483648
  %arrayidx4.i.i = getelementptr inbounds [624 x i64], ptr @_ZL3rng, i64 0, i64 %rem.i.i153
  %12 = load i64, ptr %arrayidx4.i.i, align 8, !tbaa !5
  %and5.i.i = and i64 %12, 2147483646
  %or.i.i = or i64 %and5.i.i, %and.i.i
  %add7.i.i = add nuw nsw i64 %10, 397
  %rem8.i.i = urem i64 %add7.i.i, 624
  %arrayidx10.i.i = getelementptr inbounds [624 x i64], ptr @_ZL3rng, i64 0, i64 %rem8.i.i
  %13 = load i64, ptr %arrayidx10.i.i, align 8, !tbaa !5
  %shr.i.i.i = lshr exact i64 %or.i.i, 1
  %xor.i.i = xor i64 %shr.i.i.i, %13
  %14 = and i64 %12, 1
  %.not.i.i = icmp eq i64 %14, 0
  %mul.i.i = select i1 %.not.i.i, i64 0, i64 2567483615
  %xor12.i.i = xor i64 %xor.i.i, %mul.i.i
  store i64 %xor12.i.i, ptr %arrayidx.i.i154, align 8, !tbaa !5
  %15 = load i64, ptr getelementptr inbounds (%"class.std::__1::mersenne_twister_engine", ptr @_ZL3rng, i64 0, i32 1), align 8, !tbaa !11
  %arrayidx18.i.i = getelementptr inbounds [624 x i64], ptr @_ZL3rng, i64 0, i64 %15
  %16 = load i64, ptr %arrayidx18.i.i, align 8, !tbaa !5
  %shr.i41.i.i = lshr i64 %16, 11
  %and23.i.i = and i64 %shr.i41.i.i, 4294967295
  %xor24.i.i = xor i64 %and23.i.i, %16
  store i64 %rem.i.i153, ptr getelementptr inbounds (%"class.std::__1::mersenne_twister_engine", ptr @_ZL3rng, i64 0, i32 1), align 8, !tbaa !11
  %shl.i.i.i = shl i64 %xor24.i.i, 7
  %and27.i.i = and i64 %shl.i.i.i, 2636928640
  %xor28.i.i = xor i64 %and27.i.i, %xor24.i.i
  %shl.i42.i.i = shl i64 %xor28.i.i, 15
  %and30.i.i = and i64 %shl.i42.i.i, 4022730752
  %xor31.i.i = xor i64 %and30.i.i, %xor28.i.i
  %shr.i44.i.i = lshr i64 %xor31.i.i, 18
  %xor33.i.i = xor i64 %shr.i44.i.i, %xor31.i.i
  %cmp3.not.i = icmp ult i64 %xor33.i.i, 4294967296
  br i1 %cmp3.not.i, label %do.end.i160, label %do.body.i155, !llvm.loop !33

do.end.i160:                                      ; preds = %do.body.i155
  %conv4.i36.i = trunc i64 %xor33.i.i to i32
  %arrayidx.i.i37.i = getelementptr inbounds i32, ptr %call5, i64 %indvars.iv.i34.i
  store i32 %conv4.i36.i, ptr %arrayidx.i.i37.i, align 4, !tbaa !31
  %indvars.iv.next.i38.i = add nuw nsw i64 %indvars.iv.i34.i, 1
  %exitcond.not.i39.i = icmp eq i64 %indvars.iv.next.i38.i, 800
  br i1 %exitcond.not.i39.i, label %for.body.i.preheader, label %_ZNSt3__125__independent_bits_engineINS_23mersenne_twister_engineImLm32ELm624ELm397ELm31ELm2567483615ELm11ELm4294967295ELm7ELm2636928640ELm15ELm4022730752ELm18ELm1812433253EEEmEC2ERS2_m.exit.i, !llvm.loop !38

for.body.i.preheader:                             ; preds = %do.end.i160
  call void @llvm.memcpy.p0.p0.i64(ptr noundef nonnull align 4 dereferenceable(3200) %call9, ptr noundef nonnull align 4 dereferenceable(3200) %call3, i64 3200, i1 false), !tbaa !31
  call void @llvm.memcpy.p0.p0.i64(ptr noundef nonnull align 4 dereferenceable(3200) %call13, ptr noundef nonnull align 4 dereferenceable(3200) %call3, i64 3200, i1 false), !tbaa !31
  %add.ptr.i = getelementptr inbounds i32, ptr %arrayidx.i.i, i64 %indvars.iv
  %17 = load i32, ptr %N, align 4, !tbaa !31
  call void @llvm.lifetime.start.p0(i64 8, ptr nonnull %__arg.addr.i.i)
  call void @llvm.lifetime.start.p0(i64 8, ptr nonnull %__arg.addr2.i.i)
  call void @llvm.lifetime.start.p0(i64 8, ptr nonnull %__arg.addr4.i.i)
  call void @llvm.lifetime.start.p0(i64 4, ptr nonnull %__arg.addr6.i.i)
  store ptr %add.ptr.i, ptr %__arg.addr.i.i, align 8, !tbaa !35
  store ptr %call5, ptr %__arg.addr2.i.i, align 8, !tbaa !35
  store ptr %arrayidx.i.i, ptr %__arg.addr4.i.i, align 8, !tbaa !35
  store i32 %17, ptr %__arg.addr6.i.i, align 4, !tbaa !31
  %18 = load ptr, ptr %__f_.i.i.i, align 16, !tbaa !25
  %cmp.i.i.i = icmp eq ptr %18, null
  br i1 %cmp.i.i.i, label %if.then.i.i.i, label %_ZNKSt3__18functionIFvPjS1_S1_jEEclES1_S1_S1_j.exit.i

if.then.i.i.i:                                    ; preds = %for.body.i.preheader
  invoke void @_ZNSt3__125__throw_bad_function_callB7v170000Ev() #27
          to label %.noexc unwind label %_ZNSt3__110unique_ptrIA_jNS_14default_deleteIS1_EEED2B7v170000Ev.exit53.loopexit.split-lp

.noexc:                                           ; preds = %if.then.i.i.i
  unreachable

_ZNKSt3__18functionIFvPjS1_S1_jEEclES1_S1_S1_j.exit.i: ; preds = %for.body.i.preheader
  %vtable.i.i.i = load ptr, ptr %18, align 8, !tbaa !15
  %vfn.i.i.i = getelementptr inbounds ptr, ptr %vtable.i.i.i, i64 6
  %19 = load ptr, ptr %vfn.i.i.i, align 8
  invoke void %19(ptr noundef nonnull align 8 dereferenceable(8) %18, ptr noundef nonnull align 8 dereferenceable(8) %__arg.addr.i.i, ptr noundef nonnull align 8 dereferenceable(8) %__arg.addr2.i.i, ptr noundef nonnull align 8 dereferenceable(8) %__arg.addr4.i.i, ptr noundef nonnull align 4 dereferenceable(4) %__arg.addr6.i.i)
          to label %.noexc46 unwind label %_ZNSt3__110unique_ptrIA_jNS_14default_deleteIS1_EEED2B7v170000Ev.exit53.loopexit

.noexc46:                                         ; preds = %_ZNKSt3__18functionIFvPjS1_S1_jEEclES1_S1_S1_j.exit.i
  call void @llvm.lifetime.end.p0(i64 8, ptr nonnull %__arg.addr.i.i)
  call void @llvm.lifetime.end.p0(i64 8, ptr nonnull %__arg.addr2.i.i)
  call void @llvm.lifetime.end.p0(i64 8, ptr nonnull %__arg.addr4.i.i)
  call void @llvm.lifetime.end.p0(i64 4, ptr nonnull %__arg.addr6.i.i)
  call void @llvm.lifetime.start.p0(i64 8, ptr nonnull %StartPtr.i) #24
  store ptr %arrayidx.i42.i, ptr %StartPtr.i, align 8, !tbaa !35
  call void @llvm.lifetime.start.p0(i64 8, ptr nonnull %ref.tmp.i) #24
  %add.ptr15.i = getelementptr inbounds i32, ptr %arrayidx.i42.i, i64 %indvars.iv
  store ptr %add.ptr15.i, ptr %ref.tmp.i, align 8, !tbaa !35
  call void @llvm.lifetime.start.p0(i64 8, ptr nonnull %ref.tmp16.i) #24
  store ptr %call5, ptr %ref.tmp16.i, align 8, !tbaa !35
  invoke fastcc void @_ZL18callThroughOptnoneIRNSt3__18functionIFvPjS2_S2_jEEEJS2_S2_RS2_RjEEvOT_DpOT0_(ptr noundef nonnull align 16 dereferenceable(48) %VectorFn, ptr noundef nonnull align 8 dereferenceable(8) %ref.tmp.i, ptr noundef nonnull align 8 dereferenceable(8) %ref.tmp16.i, ptr noundef nonnull align 8 dereferenceable(8) %StartPtr.i, ptr noundef nonnull align 4 dereferenceable(4) %N)
          to label %for.body.i.i.i.preheader.i unwind label %_ZNSt3__110unique_ptrIA_jNS_14default_deleteIS1_EEED2B7v170000Ev.exit53.loopexit

for.body.i.i.i.preheader.i:                       ; preds = %.noexc46
  call void @llvm.lifetime.end.p0(i64 8, ptr nonnull %ref.tmp16.i) #24
  call void @llvm.lifetime.end.p0(i64 8, ptr nonnull %ref.tmp.i) #24
  br label %for.body.i.i.i.i

for.body.i.i.i.i:                                 ; preds = %for.inc.i.i.i.i.4, %for.body.i.i.i.preheader.i
  %__first2.addr.07.i.i.i.i = phi ptr [ %call13, %for.body.i.i.i.preheader.i ], [ %incdec.ptr1.i.i.i.i.4, %for.inc.i.i.i.i.4 ]
  %__first1.addr.06.i.i.i.i.idx = phi i64 [ 0, %for.body.i.i.i.preheader.i ], [ %__first1.addr.06.i.i.i.i.add.4, %for.inc.i.i.i.i.4 ]
  %__first1.addr.06.i.i.i.i.ptr = getelementptr inbounds i32, ptr %call9, i64 %__first1.addr.06.i.i.i.i.idx
  %20 = load i32, ptr %__first1.addr.06.i.i.i.i.ptr, align 4, !tbaa !31
  %21 = load i32, ptr %__first2.addr.07.i.i.i.i, align 4, !tbaa !31
  %cmp.i.i.i.i.i = icmp eq i32 %20, %21
  br i1 %cmp.i.i.i.i.i, label %for.inc.i.i.i.i, label %if.then.i.i

for.inc.i.i.i.i:                                  ; preds = %for.body.i.i.i.i
  %__first1.addr.06.i.i.i.i.add = add nuw nsw i64 %__first1.addr.06.i.i.i.i.idx, 1
  %incdec.ptr1.i.i.i.i = getelementptr inbounds i32, ptr %__first2.addr.07.i.i.i.i, i64 1
  %__first1.addr.06.i.i.i.i.ptr.1 = getelementptr inbounds i32, ptr %call9, i64 %__first1.addr.06.i.i.i.i.add
  %22 = load i32, ptr %__first1.addr.06.i.i.i.i.ptr.1, align 4, !tbaa !31
  %23 = load i32, ptr %incdec.ptr1.i.i.i.i, align 4, !tbaa !31
  %cmp.i.i.i.i.i.1 = icmp eq i32 %22, %23
  br i1 %cmp.i.i.i.i.i.1, label %for.inc.i.i.i.i.1, label %if.then.i.i

for.inc.i.i.i.i.1:                                ; preds = %for.inc.i.i.i.i
  %__first1.addr.06.i.i.i.i.add.1 = add nuw nsw i64 %__first1.addr.06.i.i.i.i.idx, 2
  %incdec.ptr1.i.i.i.i.1 = getelementptr inbounds i32, ptr %__first2.addr.07.i.i.i.i, i64 2
  %__first1.addr.06.i.i.i.i.ptr.2 = getelementptr inbounds i32, ptr %call9, i64 %__first1.addr.06.i.i.i.i.add.1
  %24 = load i32, ptr %__first1.addr.06.i.i.i.i.ptr.2, align 4, !tbaa !31
  %25 = load i32, ptr %incdec.ptr1.i.i.i.i.1, align 4, !tbaa !31
  %cmp.i.i.i.i.i.2 = icmp eq i32 %24, %25
  br i1 %cmp.i.i.i.i.i.2, label %for.inc.i.i.i.i.2, label %if.then.i.i

for.inc.i.i.i.i.2:                                ; preds = %for.inc.i.i.i.i.1
  %__first1.addr.06.i.i.i.i.add.2 = add nuw nsw i64 %__first1.addr.06.i.i.i.i.idx, 3
  %incdec.ptr1.i.i.i.i.2 = getelementptr inbounds i32, ptr %__first2.addr.07.i.i.i.i, i64 3
  %__first1.addr.06.i.i.i.i.ptr.3 = getelementptr inbounds i32, ptr %call9, i64 %__first1.addr.06.i.i.i.i.add.2
  %26 = load i32, ptr %__first1.addr.06.i.i.i.i.ptr.3, align 4, !tbaa !31
  %27 = load i32, ptr %incdec.ptr1.i.i.i.i.2, align 4, !tbaa !31
  %cmp.i.i.i.i.i.3 = icmp eq i32 %26, %27
  br i1 %cmp.i.i.i.i.i.3, label %for.inc.i.i.i.i.3, label %if.then.i.i

for.inc.i.i.i.i.3:                                ; preds = %for.inc.i.i.i.i.2
  %__first1.addr.06.i.i.i.i.add.3 = add nuw nsw i64 %__first1.addr.06.i.i.i.i.idx, 4
  %incdec.ptr1.i.i.i.i.3 = getelementptr inbounds i32, ptr %__first2.addr.07.i.i.i.i, i64 4
  %__first1.addr.06.i.i.i.i.ptr.4 = getelementptr inbounds i32, ptr %call9, i64 %__first1.addr.06.i.i.i.i.add.3
  %28 = load i32, ptr %__first1.addr.06.i.i.i.i.ptr.4, align 4, !tbaa !31
  %29 = load i32, ptr %incdec.ptr1.i.i.i.i.3, align 4, !tbaa !31
  %cmp.i.i.i.i.i.4 = icmp eq i32 %28, %29
  br i1 %cmp.i.i.i.i.i.4, label %for.inc.i.i.i.i.4, label %if.then.i.i

for.inc.i.i.i.i.4:                                ; preds = %for.inc.i.i.i.i.3
  %__first1.addr.06.i.i.i.i.add.4 = add nuw nsw i64 %__first1.addr.06.i.i.i.i.idx, 5
  %incdec.ptr1.i.i.i.i.4 = getelementptr inbounds i32, ptr %__first2.addr.07.i.i.i.i, i64 5
  %cmp.not.i.i.i.i.4 = icmp eq i64 %__first1.addr.06.i.i.i.i.add.4, 800
  br i1 %cmp.not.i.i.i.i.4, label %for.inc, label %for.body.i.i.i.i, !llvm.loop !39

if.then.i.i:                                      ; preds = %for.inc.i.i.i.i.3, %for.inc.i.i.i.i.2, %for.inc.i.i.i.i.1, %for.inc.i.i.i.i, %for.body.i.i.i.i
  %call1.i6465 = invoke noundef nonnull align 8 dereferenceable(8) ptr @_ZNSt3__124__put_character_sequenceB7v170000IcNS_11char_traitsIcEEEERNS_13basic_ostreamIT_T0_EES7_PKS4_m(ptr noundef nonnull align 8 dereferenceable(8) @_ZNSt3__14cerrE, ptr noundef nonnull @.str.33, i64 noundef 23)
          to label %call4.i.i.noexc unwind label %_ZNSt3__110unique_ptrIA_jNS_14default_deleteIS1_EEED2B7v170000Ev.exit53.loopexit.split-lp

call4.i.i.noexc:                                  ; preds = %if.then.i.i
  %30 = trunc i64 %indvars.iv to i32
  %call5.i.i49 = invoke noundef nonnull align 8 dereferenceable(8) ptr @_ZNSt3__113basic_ostreamIcNS_11char_traitsIcEEElsEi(ptr noundef nonnull align 8 dereferenceable(8) %call1.i6465, i32 noundef %30)
          to label %call5.i.i.noexc unwind label %_ZNSt3__110unique_ptrIA_jNS_14default_deleteIS1_EEED2B7v170000Ev.exit53.loopexit.split-lp

call5.i.i.noexc:                                  ; preds = %call4.i.i.noexc
  %call6.i.i50 = invoke noundef nonnull align 8 dereferenceable(8) ptr @_ZNSt3__1lsB7v170000INS_11char_traitsIcEEEERNS_13basic_ostreamIcT_EES6_PKc(ptr noundef nonnull align 8 dereferenceable(8) %call5.i.i49, ptr noundef nonnull @.str.31)
          to label %call6.i.i.noexc unwind label %_ZNSt3__110unique_ptrIA_jNS_14default_deleteIS1_EEED2B7v170000Ev.exit53.loopexit.split-lp

call6.i.i.noexc:                                  ; preds = %call5.i.i.noexc
  call void @exit(i32 noundef 1) #28
  unreachable

for.inc:                                          ; preds = %for.inc.i.i.i.i.4
  call void @llvm.lifetime.end.p0(i64 8, ptr nonnull %StartPtr.i) #24
  %indvars.iv.next = add nsw i64 %indvars.iv, 1
  %exitcond.not = icmp eq i64 %indvars.iv.next, 101
  br i1 %exitcond.not, label %_ZNSt3__110unique_ptrIA_jNS_14default_deleteIS1_EEED2B7v170000Ev.exit42, label %_ZNSt3__125__independent_bits_engineINS_23mersenne_twister_engineImLm32ELm624ELm397ELm31ELm2567483615ELm11ELm4294967295ELm7ELm2636928640ELm15ELm4022730752ELm18ELm1812433253EEEmEC2ERS2_m.exit.i139.preheader, !llvm.loop !44

_ZNSt3__110unique_ptrIA_jNS_14default_deleteIS1_EEED2B7v170000Ev.exit53.loopexit: ; preds = %_ZNKSt3__18functionIFvPjS1_S1_jEEclES1_S1_S1_j.exit.i, %.noexc46
  %lpad.loopexit = landingpad { ptr, i32 }
          cleanup
  br label %_ZNSt3__110unique_ptrIA_jNS_14default_deleteIS1_EEED2B7v170000Ev.exit53

_ZNSt3__110unique_ptrIA_jNS_14default_deleteIS1_EEED2B7v170000Ev.exit53.loopexit.split-lp: ; preds = %if.then.i.i.i, %call4.i.i.noexc, %call5.i.i.noexc, %if.then.i.i
  %lpad.loopexit.split-lp = landingpad { ptr, i32 }
          cleanup
  br label %_ZNSt3__110unique_ptrIA_jNS_14default_deleteIS1_EEED2B7v170000Ev.exit53

_ZNSt3__110unique_ptrIA_jNS_14default_deleteIS1_EEED2B7v170000Ev.exit53: ; preds = %_ZNSt3__110unique_ptrIA_jNS_14default_deleteIS1_EEED2B7v170000Ev.exit53.loopexit.split-lp, %_ZNSt3__110unique_ptrIA_jNS_14default_deleteIS1_EEED2B7v170000Ev.exit53.loopexit
  %lpad.phi = phi { ptr, i32 } [ %lpad.loopexit, %_ZNSt3__110unique_ptrIA_jNS_14default_deleteIS1_EEED2B7v170000Ev.exit53.loopexit ], [ %lpad.loopexit.split-lp, %_ZNSt3__110unique_ptrIA_jNS_14default_deleteIS1_EEED2B7v170000Ev.exit53.loopexit.split-lp ]
  call void @_ZdaPv(ptr noundef nonnull %call13) #26
  br label %_ZNSt3__110unique_ptrIA_jNS_14default_deleteIS1_EEED2B7v170000Ev.exit56

_ZNSt3__110unique_ptrIA_jNS_14default_deleteIS1_EEED2B7v170000Ev.exit56: ; preds = %_ZNSt3__110unique_ptrIA_jNS_14default_deleteIS1_EEED2B7v170000Ev.exit53, %lpad11
  %.pn = phi { ptr, i32 } [ %lpad.phi, %_ZNSt3__110unique_ptrIA_jNS_14default_deleteIS1_EEED2B7v170000Ev.exit53 ], [ %2, %lpad11 ]
  call void @_ZdaPv(ptr noundef nonnull %call9) #26
  br label %_ZNSt3__110unique_ptrIA_jNS_14default_deleteIS1_EEED2B7v170000Ev.exit59

_ZNSt3__110unique_ptrIA_jNS_14default_deleteIS1_EEED2B7v170000Ev.exit59: ; preds = %_ZNSt3__110unique_ptrIA_jNS_14default_deleteIS1_EEED2B7v170000Ev.exit56, %lpad7
  %.pn.pn = phi { ptr, i32 } [ %.pn, %_ZNSt3__110unique_ptrIA_jNS_14default_deleteIS1_EEED2B7v170000Ev.exit56 ], [ %1, %lpad7 ]
  call void @_ZdaPv(ptr noundef nonnull %call5) #26
  br label %_ZNSt3__110unique_ptrIA_jNS_14default_deleteIS1_EEED2B7v170000Ev.exit62

_ZNSt3__110unique_ptrIA_jNS_14default_deleteIS1_EEED2B7v170000Ev.exit62: ; preds = %_ZNSt3__110unique_ptrIA_jNS_14default_deleteIS1_EEED2B7v170000Ev.exit59, %lpad
  %.pn.pn.pn = phi { ptr, i32 } [ %.pn.pn, %_ZNSt3__110unique_ptrIA_jNS_14default_deleteIS1_EEED2B7v170000Ev.exit59 ], [ %0, %lpad ]
  call void @_ZdaPv(ptr noundef nonnull %call3) #26
  call void @llvm.lifetime.end.p0(i64 4, ptr nonnull %N) #24
  resume { ptr, i32 } %.pn.pn.pn
}

; Function Attrs: norecurse uwtable
define internal fastcc void @_ZL38checkOverlappingMemoryTwoRuntimeChecksIhEvNSt3__18functionIFvPT_S3_S3_jEEES5_PKc(ptr noundef %ScalarFn, ptr noundef %VectorFn, ptr noundef %Name) unnamed_addr #0 personality ptr @__gxx_personality_v0 {
entry:
  %__arg.addr.i.i = alloca ptr, align 8
  %__arg.addr2.i.i = alloca ptr, align 8
  %__arg.addr4.i.i = alloca ptr, align 8
  %__arg.addr6.i.i = alloca i32, align 4
  %StartPtr.i = alloca ptr, align 8
  %ref.tmp.i = alloca ptr, align 8
  %ref.tmp16.i = alloca ptr, align 8
  %N = alloca i32, align 4
  %call1.i = tail call noundef nonnull align 8 dereferenceable(8) ptr @_ZNSt3__124__put_character_sequenceB7v170000IcNS_11char_traitsIcEEEERNS_13basic_ostreamIT_T0_EES7_PKS4_m(ptr noundef nonnull align 8 dereferenceable(8) @_ZNSt3__14coutE, ptr noundef nonnull @.str.30, i64 noundef 9)
  %call.i.i.i30 = tail call i64 @strlen(ptr noundef nonnull dereferenceable(1) %Name) #24
  %call1.i31 = tail call noundef nonnull align 8 dereferenceable(8) ptr @_ZNSt3__124__put_character_sequenceB7v170000IcNS_11char_traitsIcEEEERNS_13basic_ostreamIT_T0_EES7_PKS4_m(ptr noundef nonnull align 8 dereferenceable(8) %call1.i, ptr noundef %Name, i64 noundef %call.i.i.i30)
  %call1.i33 = tail call noundef nonnull align 8 dereferenceable(8) ptr @_ZNSt3__124__put_character_sequenceB7v170000IcNS_11char_traitsIcEEEERNS_13basic_ostreamIT_T0_EES7_PKS4_m(ptr noundef nonnull align 8 dereferenceable(8) %call1.i31, ptr noundef nonnull @.str.31, i64 noundef 1)
  call void @llvm.lifetime.start.p0(i64 4, ptr nonnull %N) #24
  store i32 100, ptr %N, align 4, !tbaa !31
  %call3 = tail call noalias noundef nonnull dereferenceable(800) ptr @_Znam(i64 noundef 800) #25
  %call5 = invoke noalias noundef nonnull dereferenceable(800) ptr @_Znam(i64 noundef 800) #25
          to label %invoke.cont unwind label %lpad

invoke.cont:                                      ; preds = %entry
  %call9 = invoke noalias noundef nonnull dereferenceable(800) ptr @_Znam(i64 noundef 800) #25
          to label %invoke.cont8 unwind label %lpad7

invoke.cont8:                                     ; preds = %invoke.cont
  %call13 = invoke noalias noundef nonnull dereferenceable(800) ptr @_Znam(i64 noundef 800) #25
          to label %for.cond.preheader unwind label %lpad11

for.cond.preheader:                               ; preds = %invoke.cont8
  %arrayidx.i.i = getelementptr inbounds i8, ptr %call9, i64 400
  %__f_.i.i.i = getelementptr inbounds %"class.std::__1::__function::__value_func.55", ptr %ScalarFn, i64 0, i32 1
  %arrayidx.i42.i = getelementptr inbounds i8, ptr %call13, i64 400
  br label %_ZNSt3__125__independent_bits_engineINS_23mersenne_twister_engineImLm32ELm624ELm397ELm31ELm2567483615ELm11ELm4294967295ELm7ELm2636928640ELm15ELm4022730752ELm18ELm1812433253EEEmEC2ERS2_m.exit.i139.preheader

_ZNSt3__125__independent_bits_engineINS_23mersenne_twister_engineImLm32ELm624ELm397ELm31ELm2567483615ELm11ELm4294967295ELm7ELm2636928640ELm15ELm4022730752ELm18ELm1812433253EEEmEC2ERS2_m.exit.i139.preheader: ; preds = %for.cond.preheader, %for.inc
  %indvars.iv = phi i64 [ -100, %for.cond.preheader ], [ %indvars.iv.next, %for.inc ]
  %.pre.pre.i271.pre = load i64, ptr getelementptr inbounds (%"class.std::__1::mersenne_twister_engine", ptr @_ZL3rng, i64 0, i32 1), align 8, !tbaa !11
  br label %_ZNSt3__125__independent_bits_engineINS_23mersenne_twister_engineImLm32ELm624ELm397ELm31ELm2567483615ELm11ELm4294967295ELm7ELm2636928640ELm15ELm4022730752ELm18ELm1812433253EEEmEC2ERS2_m.exit.i139

_ZNSt3__110unique_ptrIA_hNS_14default_deleteIS1_EEED2B7v170000Ev.exit42: ; preds = %for.inc
  call void @_ZdaPv(ptr noundef nonnull %call13) #26
  call void @_ZdaPv(ptr noundef nonnull %call9) #26
  call void @_ZdaPv(ptr noundef nonnull %call5) #26
  call void @_ZdaPv(ptr noundef nonnull %call3) #26
  call void @llvm.lifetime.end.p0(i64 4, ptr nonnull %N) #24
  ret void

lpad:                                             ; preds = %entry
  %0 = landingpad { ptr, i32 }
          cleanup
  br label %_ZNSt3__110unique_ptrIA_hNS_14default_deleteIS1_EEED2B7v170000Ev.exit62

lpad7:                                            ; preds = %invoke.cont
  %1 = landingpad { ptr, i32 }
          cleanup
  br label %_ZNSt3__110unique_ptrIA_hNS_14default_deleteIS1_EEED2B7v170000Ev.exit59

lpad11:                                           ; preds = %invoke.cont8
  %2 = landingpad { ptr, i32 }
          cleanup
  br label %_ZNSt3__110unique_ptrIA_hNS_14default_deleteIS1_EEED2B7v170000Ev.exit56

_ZNSt3__125__independent_bits_engineINS_23mersenne_twister_engineImLm32ELm624ELm397ELm31ELm2567483615ELm11ELm4294967295ELm7ELm2636928640ELm15ELm4022730752ELm18ELm1812433253EEEmEC2ERS2_m.exit.i139: ; preds = %_ZNSt3__125__independent_bits_engineINS_23mersenne_twister_engineImLm32ELm624ELm397ELm31ELm2567483615ELm11ELm4294967295ELm7ELm2636928640ELm15ELm4022730752ELm18ELm1812433253EEEmEC2ERS2_m.exit.i139.preheader, %do.end.i324
  %.pre.pre.i271 = phi i64 [ %rem.i.i289, %do.end.i324 ], [ %.pre.pre.i271.pre, %_ZNSt3__125__independent_bits_engineINS_23mersenne_twister_engineImLm32ELm624ELm397ELm31ELm2567483615ELm11ELm4294967295ELm7ELm2636928640ELm15ELm4022730752ELm18ELm1812433253EEEmEC2ERS2_m.exit.i139.preheader ]
  %indvars.iv.i.i = phi i64 [ %indvars.iv.next.i.i, %do.end.i324 ], [ 0, %_ZNSt3__125__independent_bits_engineINS_23mersenne_twister_engineImLm32ELm624ELm397ELm31ELm2567483615ELm11ELm4294967295ELm7ELm2636928640ELm15ELm4022730752ELm18ELm1812433253EEEmEC2ERS2_m.exit.i139.preheader ]
  br label %do.body.i316

do.body.i316:                                     ; preds = %do.body.i316, %_ZNSt3__125__independent_bits_engineINS_23mersenne_twister_engineImLm32ELm624ELm397ELm31ELm2567483615ELm11ELm4294967295ELm7ELm2636928640ELm15ELm4022730752ELm18ELm1812433253EEEmEC2ERS2_m.exit.i139
  %3 = phi i64 [ %.pre.pre.i271, %_ZNSt3__125__independent_bits_engineINS_23mersenne_twister_engineImLm32ELm624ELm397ELm31ELm2567483615ELm11ELm4294967295ELm7ELm2636928640ELm15ELm4022730752ELm18ELm1812433253EEEmEC2ERS2_m.exit.i139 ], [ %rem.i.i289, %do.body.i316 ]
  %add.i.i288 = add i64 %3, 1
  %rem.i.i289 = urem i64 %add.i.i288, 624
  %arrayidx.i.i290 = getelementptr inbounds [624 x i64], ptr @_ZL3rng, i64 0, i64 %3
  %4 = load i64, ptr %arrayidx.i.i290, align 8, !tbaa !5
  %and.i.i291 = and i64 %4, -2147483648
  %arrayidx4.i.i292 = getelementptr inbounds [624 x i64], ptr @_ZL3rng, i64 0, i64 %rem.i.i289
  %5 = load i64, ptr %arrayidx4.i.i292, align 8, !tbaa !5
  %and5.i.i293 = and i64 %5, 2147483646
  %or.i.i294 = or i64 %and5.i.i293, %and.i.i291
  %add7.i.i295 = add i64 %3, 397
  %rem8.i.i296 = urem i64 %add7.i.i295, 624
  %arrayidx10.i.i297 = getelementptr inbounds [624 x i64], ptr @_ZL3rng, i64 0, i64 %rem8.i.i296
  %6 = load i64, ptr %arrayidx10.i.i297, align 8, !tbaa !5
  %shr.i.i.i298 = lshr exact i64 %or.i.i294, 1
  %xor.i.i299 = xor i64 %shr.i.i.i298, %6
  %7 = and i64 %5, 1
  %.not.i.i300 = icmp eq i64 %7, 0
  %mul.i.i301 = select i1 %.not.i.i300, i64 0, i64 2567483615
  %xor12.i.i302 = xor i64 %xor.i.i299, %mul.i.i301
  store i64 %xor12.i.i302, ptr %arrayidx.i.i290, align 8, !tbaa !5
  %8 = load i64, ptr getelementptr inbounds (%"class.std::__1::mersenne_twister_engine", ptr @_ZL3rng, i64 0, i32 1), align 8, !tbaa !11
  %arrayidx18.i.i303 = getelementptr inbounds [624 x i64], ptr @_ZL3rng, i64 0, i64 %8
  %9 = load i64, ptr %arrayidx18.i.i303, align 8, !tbaa !5
  %shr.i41.i.i304 = lshr i64 %9, 11
  %and23.i.i305 = and i64 %shr.i41.i.i304, 4294967295
  %xor24.i.i306 = xor i64 %and23.i.i305, %9
  store i64 %rem.i.i289, ptr getelementptr inbounds (%"class.std::__1::mersenne_twister_engine", ptr @_ZL3rng, i64 0, i32 1), align 8, !tbaa !11
  %shl.i.i.i307 = shl i64 %xor24.i.i306, 7
  %and27.i.i308 = and i64 %shl.i.i.i307, 2636928640
  %xor28.i.i309 = xor i64 %and27.i.i308, %xor24.i.i306
  %shl.i42.i.i310 = shl i64 %xor28.i.i309, 15
  %and30.i.i311 = and i64 %shl.i42.i.i310, 4022730752
  %xor31.i.i312 = xor i64 %and30.i.i311, %xor28.i.i309
  %shr.i44.i.i313 = lshr i64 %xor31.i.i312, 18
  %xor33.i.i314 = xor i64 %shr.i44.i.i313, %xor31.i.i312
  %cmp3.not.i315 = icmp ult i64 %xor33.i.i314, 4294967296
  br i1 %cmp3.not.i315, label %do.end.i324, label %do.body.i316, !llvm.loop !33

do.end.i324:                                      ; preds = %do.body.i316
  %conv4.i.i = trunc i64 %xor33.i.i314 to i8
  %arrayidx.i.i.i = getelementptr inbounds i8, ptr %call3, i64 %indvars.iv.i.i
  store i8 %conv4.i.i, ptr %arrayidx.i.i.i, align 1, !tbaa !14
  %indvars.iv.next.i.i = add nuw nsw i64 %indvars.iv.i.i, 1
  %exitcond.not.i.i = icmp eq i64 %indvars.iv.next.i.i, 800
  br i1 %exitcond.not.i.i, label %_ZNSt3__125__independent_bits_engineINS_23mersenne_twister_engineImLm32ELm624ELm397ELm31ELm2567483615ELm11ELm4294967295ELm7ELm2636928640ELm15ELm4022730752ELm18ELm1812433253EEEmEC2ERS2_m.exit.i, label %_ZNSt3__125__independent_bits_engineINS_23mersenne_twister_engineImLm32ELm624ELm397ELm31ELm2567483615ELm11ELm4294967295ELm7ELm2636928640ELm15ELm4022730752ELm18ELm1812433253EEEmEC2ERS2_m.exit.i139, !llvm.loop !34

_ZNSt3__125__independent_bits_engineINS_23mersenne_twister_engineImLm32ELm624ELm397ELm31ELm2567483615ELm11ELm4294967295ELm7ELm2636928640ELm15ELm4022730752ELm18ELm1812433253EEEmEC2ERS2_m.exit.i: ; preds = %do.end.i324, %do.end.i160
  %.pre.pre.i = phi i64 [ %rem.i.i153, %do.end.i160 ], [ %rem.i.i289, %do.end.i324 ]
  %indvars.iv.i34.i = phi i64 [ %indvars.iv.next.i38.i, %do.end.i160 ], [ 0, %do.end.i324 ]
  br label %do.body.i155

do.body.i155:                                     ; preds = %do.body.i155, %_ZNSt3__125__independent_bits_engineINS_23mersenne_twister_engineImLm32ELm624ELm397ELm31ELm2567483615ELm11ELm4294967295ELm7ELm2636928640ELm15ELm4022730752ELm18ELm1812433253EEEmEC2ERS2_m.exit.i
  %10 = phi i64 [ %.pre.pre.i, %_ZNSt3__125__independent_bits_engineINS_23mersenne_twister_engineImLm32ELm624ELm397ELm31ELm2567483615ELm11ELm4294967295ELm7ELm2636928640ELm15ELm4022730752ELm18ELm1812433253EEEmEC2ERS2_m.exit.i ], [ %rem.i.i153, %do.body.i155 ]
  %add.i.i152 = add nuw nsw i64 %10, 1
  %rem.i.i153 = urem i64 %add.i.i152, 624
  %arrayidx.i.i154 = getelementptr inbounds [624 x i64], ptr @_ZL3rng, i64 0, i64 %10
  %11 = load i64, ptr %arrayidx.i.i154, align 8, !tbaa !5
  %and.i.i = and i64 %11, -2147483648
  %arrayidx4.i.i = getelementptr inbounds [624 x i64], ptr @_ZL3rng, i64 0, i64 %rem.i.i153
  %12 = load i64, ptr %arrayidx4.i.i, align 8, !tbaa !5
  %and5.i.i = and i64 %12, 2147483646
  %or.i.i = or i64 %and5.i.i, %and.i.i
  %add7.i.i = add nuw nsw i64 %10, 397
  %rem8.i.i = urem i64 %add7.i.i, 624
  %arrayidx10.i.i = getelementptr inbounds [624 x i64], ptr @_ZL3rng, i64 0, i64 %rem8.i.i
  %13 = load i64, ptr %arrayidx10.i.i, align 8, !tbaa !5
  %shr.i.i.i = lshr exact i64 %or.i.i, 1
  %xor.i.i = xor i64 %shr.i.i.i, %13
  %14 = and i64 %12, 1
  %.not.i.i = icmp eq i64 %14, 0
  %mul.i.i = select i1 %.not.i.i, i64 0, i64 2567483615
  %xor12.i.i = xor i64 %xor.i.i, %mul.i.i
  store i64 %xor12.i.i, ptr %arrayidx.i.i154, align 8, !tbaa !5
  %15 = load i64, ptr getelementptr inbounds (%"class.std::__1::mersenne_twister_engine", ptr @_ZL3rng, i64 0, i32 1), align 8, !tbaa !11
  %arrayidx18.i.i = getelementptr inbounds [624 x i64], ptr @_ZL3rng, i64 0, i64 %15
  %16 = load i64, ptr %arrayidx18.i.i, align 8, !tbaa !5
  %shr.i41.i.i = lshr i64 %16, 11
  %and23.i.i = and i64 %shr.i41.i.i, 4294967295
  %xor24.i.i = xor i64 %and23.i.i, %16
  store i64 %rem.i.i153, ptr getelementptr inbounds (%"class.std::__1::mersenne_twister_engine", ptr @_ZL3rng, i64 0, i32 1), align 8, !tbaa !11
  %shl.i.i.i = shl i64 %xor24.i.i, 7
  %and27.i.i = and i64 %shl.i.i.i, 2636928640
  %xor28.i.i = xor i64 %and27.i.i, %xor24.i.i
  %shl.i42.i.i = shl i64 %xor28.i.i, 15
  %and30.i.i = and i64 %shl.i42.i.i, 4022730752
  %xor31.i.i = xor i64 %and30.i.i, %xor28.i.i
  %shr.i44.i.i = lshr i64 %xor31.i.i, 18
  %xor33.i.i = xor i64 %shr.i44.i.i, %xor31.i.i
  %cmp3.not.i = icmp ult i64 %xor33.i.i, 4294967296
  br i1 %cmp3.not.i, label %do.end.i160, label %do.body.i155, !llvm.loop !33

do.end.i160:                                      ; preds = %do.body.i155
  %conv4.i36.i = trunc i64 %xor33.i.i to i8
  %arrayidx.i.i37.i = getelementptr inbounds i8, ptr %call5, i64 %indvars.iv.i34.i
  store i8 %conv4.i36.i, ptr %arrayidx.i.i37.i, align 1, !tbaa !14
  %indvars.iv.next.i38.i = add nuw nsw i64 %indvars.iv.i34.i, 1
  %exitcond.not.i39.i = icmp eq i64 %indvars.iv.next.i38.i, 800
  br i1 %exitcond.not.i39.i, label %for.body.i.preheader, label %_ZNSt3__125__independent_bits_engineINS_23mersenne_twister_engineImLm32ELm624ELm397ELm31ELm2567483615ELm11ELm4294967295ELm7ELm2636928640ELm15ELm4022730752ELm18ELm1812433253EEEmEC2ERS2_m.exit.i, !llvm.loop !34

for.body.i.preheader:                             ; preds = %do.end.i160
  call void @llvm.memcpy.p0.p0.i64(ptr noundef nonnull align 1 dereferenceable(800) %call9, ptr noundef nonnull align 1 dereferenceable(800) %call3, i64 800, i1 false), !tbaa !14
  call void @llvm.memcpy.p0.p0.i64(ptr noundef nonnull align 1 dereferenceable(800) %call13, ptr noundef nonnull align 1 dereferenceable(800) %call3, i64 800, i1 false), !tbaa !14
  %add.ptr.i = getelementptr inbounds i8, ptr %arrayidx.i.i, i64 %indvars.iv
  %17 = load i32, ptr %N, align 4, !tbaa !31
  call void @llvm.lifetime.start.p0(i64 8, ptr nonnull %__arg.addr.i.i)
  call void @llvm.lifetime.start.p0(i64 8, ptr nonnull %__arg.addr2.i.i)
  call void @llvm.lifetime.start.p0(i64 8, ptr nonnull %__arg.addr4.i.i)
  call void @llvm.lifetime.start.p0(i64 4, ptr nonnull %__arg.addr6.i.i)
  store ptr %add.ptr.i, ptr %__arg.addr.i.i, align 8, !tbaa !35
  store ptr %call5, ptr %__arg.addr2.i.i, align 8, !tbaa !35
  store ptr %arrayidx.i.i, ptr %__arg.addr4.i.i, align 8, !tbaa !35
  store i32 %17, ptr %__arg.addr6.i.i, align 4, !tbaa !31
  %18 = load ptr, ptr %__f_.i.i.i, align 16, !tbaa !27
  %cmp.i.i.i = icmp eq ptr %18, null
  br i1 %cmp.i.i.i, label %if.then.i.i.i, label %_ZNKSt3__18functionIFvPhS1_S1_jEEclES1_S1_S1_j.exit.i

if.then.i.i.i:                                    ; preds = %for.body.i.preheader
  invoke void @_ZNSt3__125__throw_bad_function_callB7v170000Ev() #27
          to label %.noexc unwind label %_ZNSt3__110unique_ptrIA_hNS_14default_deleteIS1_EEED2B7v170000Ev.exit53.loopexit.split-lp

.noexc:                                           ; preds = %if.then.i.i.i
  unreachable

_ZNKSt3__18functionIFvPhS1_S1_jEEclES1_S1_S1_j.exit.i: ; preds = %for.body.i.preheader
  %vtable.i.i.i = load ptr, ptr %18, align 8, !tbaa !15
  %vfn.i.i.i = getelementptr inbounds ptr, ptr %vtable.i.i.i, i64 6
  %19 = load ptr, ptr %vfn.i.i.i, align 8
  invoke void %19(ptr noundef nonnull align 8 dereferenceable(8) %18, ptr noundef nonnull align 8 dereferenceable(8) %__arg.addr.i.i, ptr noundef nonnull align 8 dereferenceable(8) %__arg.addr2.i.i, ptr noundef nonnull align 8 dereferenceable(8) %__arg.addr4.i.i, ptr noundef nonnull align 4 dereferenceable(4) %__arg.addr6.i.i)
          to label %.noexc46 unwind label %_ZNSt3__110unique_ptrIA_hNS_14default_deleteIS1_EEED2B7v170000Ev.exit53.loopexit

.noexc46:                                         ; preds = %_ZNKSt3__18functionIFvPhS1_S1_jEEclES1_S1_S1_j.exit.i
  call void @llvm.lifetime.end.p0(i64 8, ptr nonnull %__arg.addr.i.i)
  call void @llvm.lifetime.end.p0(i64 8, ptr nonnull %__arg.addr2.i.i)
  call void @llvm.lifetime.end.p0(i64 8, ptr nonnull %__arg.addr4.i.i)
  call void @llvm.lifetime.end.p0(i64 4, ptr nonnull %__arg.addr6.i.i)
  call void @llvm.lifetime.start.p0(i64 8, ptr nonnull %StartPtr.i) #24
  store ptr %arrayidx.i42.i, ptr %StartPtr.i, align 8, !tbaa !35
  call void @llvm.lifetime.start.p0(i64 8, ptr nonnull %ref.tmp.i) #24
  %add.ptr15.i = getelementptr inbounds i8, ptr %arrayidx.i42.i, i64 %indvars.iv
  store ptr %add.ptr15.i, ptr %ref.tmp.i, align 8, !tbaa !35
  call void @llvm.lifetime.start.p0(i64 8, ptr nonnull %ref.tmp16.i) #24
  store ptr %call5, ptr %ref.tmp16.i, align 8, !tbaa !35
  invoke fastcc void @_ZL18callThroughOptnoneIRNSt3__18functionIFvPhS2_S2_jEEEJS2_S2_RS2_RjEEvOT_DpOT0_(ptr noundef nonnull align 16 dereferenceable(48) %VectorFn, ptr noundef nonnull align 8 dereferenceable(8) %ref.tmp.i, ptr noundef nonnull align 8 dereferenceable(8) %ref.tmp16.i, ptr noundef nonnull align 8 dereferenceable(8) %StartPtr.i, ptr noundef nonnull align 4 dereferenceable(4) %N)
          to label %for.body.i.i.i.preheader.i unwind label %_ZNSt3__110unique_ptrIA_hNS_14default_deleteIS1_EEED2B7v170000Ev.exit53.loopexit

for.body.i.i.i.preheader.i:                       ; preds = %.noexc46
  call void @llvm.lifetime.end.p0(i64 8, ptr nonnull %ref.tmp16.i) #24
  call void @llvm.lifetime.end.p0(i64 8, ptr nonnull %ref.tmp.i) #24
  br label %for.body.i.i.i.i

for.body.i.i.i.i:                                 ; preds = %for.inc.i.i.i.i.4, %for.body.i.i.i.preheader.i
  %__first2.addr.07.i.i.i.i = phi ptr [ %call13, %for.body.i.i.i.preheader.i ], [ %incdec.ptr1.i.i.i.i.4, %for.inc.i.i.i.i.4 ]
  %__first1.addr.06.i.i.i.i.idx = phi i64 [ 0, %for.body.i.i.i.preheader.i ], [ %__first1.addr.06.i.i.i.i.add.4, %for.inc.i.i.i.i.4 ]
  %__first1.addr.06.i.i.i.i.ptr = getelementptr inbounds i8, ptr %call9, i64 %__first1.addr.06.i.i.i.i.idx
  %20 = load i8, ptr %__first1.addr.06.i.i.i.i.ptr, align 1, !tbaa !14
  %21 = load i8, ptr %__first2.addr.07.i.i.i.i, align 1, !tbaa !14
  %cmp.i.i.i.i.i = icmp eq i8 %20, %21
  br i1 %cmp.i.i.i.i.i, label %for.inc.i.i.i.i, label %if.then.i.i

for.inc.i.i.i.i:                                  ; preds = %for.body.i.i.i.i
  %__first1.addr.06.i.i.i.i.add = add nuw nsw i64 %__first1.addr.06.i.i.i.i.idx, 1
  %incdec.ptr1.i.i.i.i = getelementptr inbounds i8, ptr %__first2.addr.07.i.i.i.i, i64 1
  %__first1.addr.06.i.i.i.i.ptr.1 = getelementptr inbounds i8, ptr %call9, i64 %__first1.addr.06.i.i.i.i.add
  %22 = load i8, ptr %__first1.addr.06.i.i.i.i.ptr.1, align 1, !tbaa !14
  %23 = load i8, ptr %incdec.ptr1.i.i.i.i, align 1, !tbaa !14
  %cmp.i.i.i.i.i.1 = icmp eq i8 %22, %23
  br i1 %cmp.i.i.i.i.i.1, label %for.inc.i.i.i.i.1, label %if.then.i.i

for.inc.i.i.i.i.1:                                ; preds = %for.inc.i.i.i.i
  %__first1.addr.06.i.i.i.i.add.1 = add nuw nsw i64 %__first1.addr.06.i.i.i.i.idx, 2
  %incdec.ptr1.i.i.i.i.1 = getelementptr inbounds i8, ptr %__first2.addr.07.i.i.i.i, i64 2
  %__first1.addr.06.i.i.i.i.ptr.2 = getelementptr inbounds i8, ptr %call9, i64 %__first1.addr.06.i.i.i.i.add.1
  %24 = load i8, ptr %__first1.addr.06.i.i.i.i.ptr.2, align 1, !tbaa !14
  %25 = load i8, ptr %incdec.ptr1.i.i.i.i.1, align 1, !tbaa !14
  %cmp.i.i.i.i.i.2 = icmp eq i8 %24, %25
  br i1 %cmp.i.i.i.i.i.2, label %for.inc.i.i.i.i.2, label %if.then.i.i

for.inc.i.i.i.i.2:                                ; preds = %for.inc.i.i.i.i.1
  %__first1.addr.06.i.i.i.i.add.2 = add nuw nsw i64 %__first1.addr.06.i.i.i.i.idx, 3
  %incdec.ptr1.i.i.i.i.2 = getelementptr inbounds i8, ptr %__first2.addr.07.i.i.i.i, i64 3
  %__first1.addr.06.i.i.i.i.ptr.3 = getelementptr inbounds i8, ptr %call9, i64 %__first1.addr.06.i.i.i.i.add.2
  %26 = load i8, ptr %__first1.addr.06.i.i.i.i.ptr.3, align 1, !tbaa !14
  %27 = load i8, ptr %incdec.ptr1.i.i.i.i.2, align 1, !tbaa !14
  %cmp.i.i.i.i.i.3 = icmp eq i8 %26, %27
  br i1 %cmp.i.i.i.i.i.3, label %for.inc.i.i.i.i.3, label %if.then.i.i

for.inc.i.i.i.i.3:                                ; preds = %for.inc.i.i.i.i.2
  %__first1.addr.06.i.i.i.i.add.3 = add nuw nsw i64 %__first1.addr.06.i.i.i.i.idx, 4
  %incdec.ptr1.i.i.i.i.3 = getelementptr inbounds i8, ptr %__first2.addr.07.i.i.i.i, i64 4
  %__first1.addr.06.i.i.i.i.ptr.4 = getelementptr inbounds i8, ptr %call9, i64 %__first1.addr.06.i.i.i.i.add.3
  %28 = load i8, ptr %__first1.addr.06.i.i.i.i.ptr.4, align 1, !tbaa !14
  %29 = load i8, ptr %incdec.ptr1.i.i.i.i.3, align 1, !tbaa !14
  %cmp.i.i.i.i.i.4 = icmp eq i8 %28, %29
  br i1 %cmp.i.i.i.i.i.4, label %for.inc.i.i.i.i.4, label %if.then.i.i

for.inc.i.i.i.i.4:                                ; preds = %for.inc.i.i.i.i.3
  %__first1.addr.06.i.i.i.i.add.4 = add nuw nsw i64 %__first1.addr.06.i.i.i.i.idx, 5
  %incdec.ptr1.i.i.i.i.4 = getelementptr inbounds i8, ptr %__first2.addr.07.i.i.i.i, i64 5
  %cmp.not.i.i.i.i.4 = icmp eq i64 %__first1.addr.06.i.i.i.i.add.4, 800
  br i1 %cmp.not.i.i.i.i.4, label %for.inc, label %for.body.i.i.i.i, !llvm.loop !36

if.then.i.i:                                      ; preds = %for.inc.i.i.i.i.3, %for.inc.i.i.i.i.2, %for.inc.i.i.i.i.1, %for.inc.i.i.i.i, %for.body.i.i.i.i
  %call1.i6465 = invoke noundef nonnull align 8 dereferenceable(8) ptr @_ZNSt3__124__put_character_sequenceB7v170000IcNS_11char_traitsIcEEEERNS_13basic_ostreamIT_T0_EES7_PKS4_m(ptr noundef nonnull align 8 dereferenceable(8) @_ZNSt3__14cerrE, ptr noundef nonnull @.str.33, i64 noundef 23)
          to label %call4.i.i.noexc unwind label %_ZNSt3__110unique_ptrIA_hNS_14default_deleteIS1_EEED2B7v170000Ev.exit53.loopexit.split-lp

call4.i.i.noexc:                                  ; preds = %if.then.i.i
  %30 = trunc i64 %indvars.iv to i32
  %call5.i.i49 = invoke noundef nonnull align 8 dereferenceable(8) ptr @_ZNSt3__113basic_ostreamIcNS_11char_traitsIcEEElsEi(ptr noundef nonnull align 8 dereferenceable(8) %call1.i6465, i32 noundef %30)
          to label %call5.i.i.noexc unwind label %_ZNSt3__110unique_ptrIA_hNS_14default_deleteIS1_EEED2B7v170000Ev.exit53.loopexit.split-lp

call5.i.i.noexc:                                  ; preds = %call4.i.i.noexc
  %call6.i.i50 = invoke noundef nonnull align 8 dereferenceable(8) ptr @_ZNSt3__1lsB7v170000INS_11char_traitsIcEEEERNS_13basic_ostreamIcT_EES6_PKc(ptr noundef nonnull align 8 dereferenceable(8) %call5.i.i49, ptr noundef nonnull @.str.31)
          to label %call6.i.i.noexc unwind label %_ZNSt3__110unique_ptrIA_hNS_14default_deleteIS1_EEED2B7v170000Ev.exit53.loopexit.split-lp

call6.i.i.noexc:                                  ; preds = %call5.i.i.noexc
  call void @exit(i32 noundef 1) #28
  unreachable

for.inc:                                          ; preds = %for.inc.i.i.i.i.4
  call void @llvm.lifetime.end.p0(i64 8, ptr nonnull %StartPtr.i) #24
  %indvars.iv.next = add nsw i64 %indvars.iv, 1
  %exitcond.not = icmp eq i64 %indvars.iv.next, 101
  br i1 %exitcond.not, label %_ZNSt3__110unique_ptrIA_hNS_14default_deleteIS1_EEED2B7v170000Ev.exit42, label %_ZNSt3__125__independent_bits_engineINS_23mersenne_twister_engineImLm32ELm624ELm397ELm31ELm2567483615ELm11ELm4294967295ELm7ELm2636928640ELm15ELm4022730752ELm18ELm1812433253EEEmEC2ERS2_m.exit.i139.preheader, !llvm.loop !45

_ZNSt3__110unique_ptrIA_hNS_14default_deleteIS1_EEED2B7v170000Ev.exit53.loopexit: ; preds = %_ZNKSt3__18functionIFvPhS1_S1_jEEclES1_S1_S1_j.exit.i, %.noexc46
  %lpad.loopexit = landingpad { ptr, i32 }
          cleanup
  br label %_ZNSt3__110unique_ptrIA_hNS_14default_deleteIS1_EEED2B7v170000Ev.exit53

_ZNSt3__110unique_ptrIA_hNS_14default_deleteIS1_EEED2B7v170000Ev.exit53.loopexit.split-lp: ; preds = %if.then.i.i.i, %call4.i.i.noexc, %call5.i.i.noexc, %if.then.i.i
  %lpad.loopexit.split-lp = landingpad { ptr, i32 }
          cleanup
  br label %_ZNSt3__110unique_ptrIA_hNS_14default_deleteIS1_EEED2B7v170000Ev.exit53

_ZNSt3__110unique_ptrIA_hNS_14default_deleteIS1_EEED2B7v170000Ev.exit53: ; preds = %_ZNSt3__110unique_ptrIA_hNS_14default_deleteIS1_EEED2B7v170000Ev.exit53.loopexit.split-lp, %_ZNSt3__110unique_ptrIA_hNS_14default_deleteIS1_EEED2B7v170000Ev.exit53.loopexit
  %lpad.phi = phi { ptr, i32 } [ %lpad.loopexit, %_ZNSt3__110unique_ptrIA_hNS_14default_deleteIS1_EEED2B7v170000Ev.exit53.loopexit ], [ %lpad.loopexit.split-lp, %_ZNSt3__110unique_ptrIA_hNS_14default_deleteIS1_EEED2B7v170000Ev.exit53.loopexit.split-lp ]
  call void @_ZdaPv(ptr noundef nonnull %call13) #26
  br label %_ZNSt3__110unique_ptrIA_hNS_14default_deleteIS1_EEED2B7v170000Ev.exit56

_ZNSt3__110unique_ptrIA_hNS_14default_deleteIS1_EEED2B7v170000Ev.exit56: ; preds = %_ZNSt3__110unique_ptrIA_hNS_14default_deleteIS1_EEED2B7v170000Ev.exit53, %lpad11
  %.pn = phi { ptr, i32 } [ %lpad.phi, %_ZNSt3__110unique_ptrIA_hNS_14default_deleteIS1_EEED2B7v170000Ev.exit53 ], [ %2, %lpad11 ]
  call void @_ZdaPv(ptr noundef nonnull %call9) #26
  br label %_ZNSt3__110unique_ptrIA_hNS_14default_deleteIS1_EEED2B7v170000Ev.exit59

_ZNSt3__110unique_ptrIA_hNS_14default_deleteIS1_EEED2B7v170000Ev.exit59: ; preds = %_ZNSt3__110unique_ptrIA_hNS_14default_deleteIS1_EEED2B7v170000Ev.exit56, %lpad7
  %.pn.pn = phi { ptr, i32 } [ %.pn, %_ZNSt3__110unique_ptrIA_hNS_14default_deleteIS1_EEED2B7v170000Ev.exit56 ], [ %1, %lpad7 ]
  call void @_ZdaPv(ptr noundef nonnull %call5) #26
  br label %_ZNSt3__110unique_ptrIA_hNS_14default_deleteIS1_EEED2B7v170000Ev.exit62

_ZNSt3__110unique_ptrIA_hNS_14default_deleteIS1_EEED2B7v170000Ev.exit62: ; preds = %_ZNSt3__110unique_ptrIA_hNS_14default_deleteIS1_EEED2B7v170000Ev.exit59, %lpad
  %.pn.pn.pn = phi { ptr, i32 } [ %.pn.pn, %_ZNSt3__110unique_ptrIA_hNS_14default_deleteIS1_EEED2B7v170000Ev.exit59 ], [ %0, %lpad ]
  call void @_ZdaPv(ptr noundef nonnull %call3) #26
  call void @llvm.lifetime.end.p0(i64 4, ptr nonnull %N) #24
  resume { ptr, i32 } %.pn.pn.pn
}

; Function Attrs: norecurse uwtable
define internal fastcc void @_ZL38checkOverlappingMemoryTwoRuntimeChecksImEvNSt3__18functionIFvPT_S3_S3_jEEES5_PKc(ptr noundef %ScalarFn, ptr noundef %VectorFn, ptr noundef %Name) unnamed_addr #0 personality ptr @__gxx_personality_v0 {
entry:
  %__arg.addr.i.i = alloca ptr, align 8
  %__arg.addr2.i.i = alloca ptr, align 8
  %__arg.addr4.i.i = alloca ptr, align 8
  %__arg.addr6.i.i = alloca i32, align 4
  %StartPtr.i = alloca ptr, align 8
  %ref.tmp.i = alloca ptr, align 8
  %ref.tmp16.i = alloca ptr, align 8
  %N = alloca i32, align 4
  %call1.i = tail call noundef nonnull align 8 dereferenceable(8) ptr @_ZNSt3__124__put_character_sequenceB7v170000IcNS_11char_traitsIcEEEERNS_13basic_ostreamIT_T0_EES7_PKS4_m(ptr noundef nonnull align 8 dereferenceable(8) @_ZNSt3__14coutE, ptr noundef nonnull @.str.30, i64 noundef 9)
  %call.i.i.i30 = tail call i64 @strlen(ptr noundef nonnull dereferenceable(1) %Name) #24
  %call1.i31 = tail call noundef nonnull align 8 dereferenceable(8) ptr @_ZNSt3__124__put_character_sequenceB7v170000IcNS_11char_traitsIcEEEERNS_13basic_ostreamIT_T0_EES7_PKS4_m(ptr noundef nonnull align 8 dereferenceable(8) %call1.i, ptr noundef %Name, i64 noundef %call.i.i.i30)
  %call1.i33 = tail call noundef nonnull align 8 dereferenceable(8) ptr @_ZNSt3__124__put_character_sequenceB7v170000IcNS_11char_traitsIcEEEERNS_13basic_ostreamIT_T0_EES7_PKS4_m(ptr noundef nonnull align 8 dereferenceable(8) %call1.i31, ptr noundef nonnull @.str.31, i64 noundef 1)
  call void @llvm.lifetime.start.p0(i64 4, ptr nonnull %N) #24
  store i32 100, ptr %N, align 4, !tbaa !31
  %call3 = tail call noalias noundef nonnull dereferenceable(6400) ptr @_Znam(i64 noundef 6400) #25
  %call5 = invoke noalias noundef nonnull dereferenceable(6400) ptr @_Znam(i64 noundef 6400) #25
          to label %invoke.cont unwind label %lpad

invoke.cont:                                      ; preds = %entry
  %call9 = invoke noalias noundef nonnull dereferenceable(6400) ptr @_Znam(i64 noundef 6400) #25
          to label %invoke.cont8 unwind label %lpad7

invoke.cont8:                                     ; preds = %invoke.cont
  %call13 = invoke noalias noundef nonnull dereferenceable(6400) ptr @_Znam(i64 noundef 6400) #25
          to label %for.cond.preheader unwind label %lpad11

for.cond.preheader:                               ; preds = %invoke.cont8
  %arrayidx.i.i = getelementptr inbounds i64, ptr %call9, i64 400
  %__f_.i.i.i = getelementptr inbounds %"class.std::__1::__function::__value_func.61", ptr %ScalarFn, i64 0, i32 1
  %arrayidx.i41.i = getelementptr inbounds i64, ptr %call13, i64 400
  br label %do.body.preheader.lr.ph.i374.preheader

do.body.preheader.lr.ph.i374.preheader:           ; preds = %for.cond.preheader, %for.inc
  %indvars.iv = phi i64 [ -100, %for.cond.preheader ], [ %indvars.iv.next, %for.inc ]
  %.pre.pre.i373.pre = load i64, ptr getelementptr inbounds (%"class.std::__1::mersenne_twister_engine", ptr @_ZL3rng, i64 0, i32 1), align 8, !tbaa !11
  br label %do.body.preheader.lr.ph.i374

_ZNSt3__110unique_ptrIA_mNS_14default_deleteIS1_EEED2B7v170000Ev.exit42: ; preds = %for.inc
  call void @_ZdaPv(ptr noundef nonnull %call13) #26
  call void @_ZdaPv(ptr noundef nonnull %call9) #26
  call void @_ZdaPv(ptr noundef nonnull %call5) #26
  call void @_ZdaPv(ptr noundef nonnull %call3) #26
  call void @llvm.lifetime.end.p0(i64 4, ptr nonnull %N) #24
  ret void

lpad:                                             ; preds = %entry
  %0 = landingpad { ptr, i32 }
          cleanup
  br label %_ZNSt3__110unique_ptrIA_mNS_14default_deleteIS1_EEED2B7v170000Ev.exit62

lpad7:                                            ; preds = %invoke.cont
  %1 = landingpad { ptr, i32 }
          cleanup
  br label %_ZNSt3__110unique_ptrIA_mNS_14default_deleteIS1_EEED2B7v170000Ev.exit59

lpad11:                                           ; preds = %invoke.cont8
  %2 = landingpad { ptr, i32 }
          cleanup
  br label %_ZNSt3__110unique_ptrIA_mNS_14default_deleteIS1_EEED2B7v170000Ev.exit56

do.body.preheader.lr.ph.i374:                     ; preds = %do.body.preheader.lr.ph.i374.preheader, %do.end.i426.1
  %.pre.pre.i373 = phi i64 [ %rem.i.i391.1, %do.end.i426.1 ], [ %.pre.pre.i373.pre, %do.body.preheader.lr.ph.i374.preheader ]
  %indvars.iv.i.i = phi i64 [ %indvars.iv.next.i.i, %do.end.i426.1 ], [ 0, %do.body.preheader.lr.ph.i374.preheader ]
  br label %do.body.i418

do.body.i418:                                     ; preds = %do.body.i418, %do.body.preheader.lr.ph.i374
  %3 = phi i64 [ %.pre.pre.i373, %do.body.preheader.lr.ph.i374 ], [ %rem.i.i391, %do.body.i418 ]
  %add.i.i390 = add i64 %3, 1
  %rem.i.i391 = urem i64 %add.i.i390, 624
  %arrayidx.i.i392 = getelementptr inbounds [624 x i64], ptr @_ZL3rng, i64 0, i64 %3
  %4 = load i64, ptr %arrayidx.i.i392, align 8, !tbaa !5
  %and.i.i393 = and i64 %4, -2147483648
  %arrayidx4.i.i394 = getelementptr inbounds [624 x i64], ptr @_ZL3rng, i64 0, i64 %rem.i.i391
  %5 = load i64, ptr %arrayidx4.i.i394, align 8, !tbaa !5
  %and5.i.i395 = and i64 %5, 2147483646
  %or.i.i396 = or i64 %and5.i.i395, %and.i.i393
  %add7.i.i397 = add i64 %3, 397
  %rem8.i.i398 = urem i64 %add7.i.i397, 624
  %arrayidx10.i.i399 = getelementptr inbounds [624 x i64], ptr @_ZL3rng, i64 0, i64 %rem8.i.i398
  %6 = load i64, ptr %arrayidx10.i.i399, align 8, !tbaa !5
  %shr.i.i.i400 = lshr exact i64 %or.i.i396, 1
  %xor.i.i401 = xor i64 %shr.i.i.i400, %6
  %7 = and i64 %5, 1
  %.not.i.i402 = icmp eq i64 %7, 0
  %mul.i.i403 = select i1 %.not.i.i402, i64 0, i64 2567483615
  %xor12.i.i404 = xor i64 %xor.i.i401, %mul.i.i403
  store i64 %xor12.i.i404, ptr %arrayidx.i.i392, align 8, !tbaa !5
  %8 = load i64, ptr getelementptr inbounds (%"class.std::__1::mersenne_twister_engine", ptr @_ZL3rng, i64 0, i32 1), align 8, !tbaa !11
  %arrayidx18.i.i405 = getelementptr inbounds [624 x i64], ptr @_ZL3rng, i64 0, i64 %8
  %9 = load i64, ptr %arrayidx18.i.i405, align 8, !tbaa !5
  %shr.i41.i.i406 = lshr i64 %9, 11
  %and23.i.i407 = and i64 %shr.i41.i.i406, 4294967295
  %xor24.i.i408 = xor i64 %and23.i.i407, %9
  store i64 %rem.i.i391, ptr getelementptr inbounds (%"class.std::__1::mersenne_twister_engine", ptr @_ZL3rng, i64 0, i32 1), align 8, !tbaa !11
  %shl.i.i.i409 = shl i64 %xor24.i.i408, 7
  %and27.i.i410 = and i64 %shl.i.i.i409, 2636928640
  %xor28.i.i411 = xor i64 %and27.i.i410, %xor24.i.i408
  %shl.i42.i.i412 = shl i64 %xor28.i.i411, 15
  %and30.i.i413 = and i64 %shl.i42.i.i412, 4022730752
  %xor31.i.i414 = xor i64 %and30.i.i413, %xor28.i.i411
  %shr.i44.i.i415 = lshr i64 %xor31.i.i414, 18
  %xor33.i.i416 = xor i64 %shr.i44.i.i415, %xor31.i.i414
  %cmp3.not.i417 = icmp ult i64 %xor33.i.i416, 4294967296
  br i1 %cmp3.not.i417, label %do.body.i418.1, label %do.body.i418, !llvm.loop !33

do.body.i418.1:                                   ; preds = %do.body.i418, %do.body.i418.1
  %10 = phi i64 [ %rem.i.i391.1, %do.body.i418.1 ], [ %rem.i.i391, %do.body.i418 ]
  %add.i.i390.1 = add nuw nsw i64 %10, 1
  %rem.i.i391.1 = urem i64 %add.i.i390.1, 624
  %arrayidx.i.i392.1 = getelementptr inbounds [624 x i64], ptr @_ZL3rng, i64 0, i64 %10
  %11 = load i64, ptr %arrayidx.i.i392.1, align 8, !tbaa !5
  %and.i.i393.1 = and i64 %11, -2147483648
  %arrayidx4.i.i394.1 = getelementptr inbounds [624 x i64], ptr @_ZL3rng, i64 0, i64 %rem.i.i391.1
  %12 = load i64, ptr %arrayidx4.i.i394.1, align 8, !tbaa !5
  %and5.i.i395.1 = and i64 %12, 2147483646
  %or.i.i396.1 = or i64 %and5.i.i395.1, %and.i.i393.1
  %add7.i.i397.1 = add nuw nsw i64 %10, 397
  %rem8.i.i398.1 = urem i64 %add7.i.i397.1, 624
  %arrayidx10.i.i399.1 = getelementptr inbounds [624 x i64], ptr @_ZL3rng, i64 0, i64 %rem8.i.i398.1
  %13 = load i64, ptr %arrayidx10.i.i399.1, align 8, !tbaa !5
  %shr.i.i.i400.1 = lshr exact i64 %or.i.i396.1, 1
  %xor.i.i401.1 = xor i64 %shr.i.i.i400.1, %13
  %14 = and i64 %12, 1
  %.not.i.i402.1 = icmp eq i64 %14, 0
  %mul.i.i403.1 = select i1 %.not.i.i402.1, i64 0, i64 2567483615
  %xor12.i.i404.1 = xor i64 %xor.i.i401.1, %mul.i.i403.1
  store i64 %xor12.i.i404.1, ptr %arrayidx.i.i392.1, align 8, !tbaa !5
  %15 = load i64, ptr getelementptr inbounds (%"class.std::__1::mersenne_twister_engine", ptr @_ZL3rng, i64 0, i32 1), align 8, !tbaa !11
  %arrayidx18.i.i405.1 = getelementptr inbounds [624 x i64], ptr @_ZL3rng, i64 0, i64 %15
  %16 = load i64, ptr %arrayidx18.i.i405.1, align 8, !tbaa !5
  %shr.i41.i.i406.1 = lshr i64 %16, 11
  %and23.i.i407.1 = and i64 %shr.i41.i.i406.1, 4294967295
  %xor24.i.i408.1 = xor i64 %and23.i.i407.1, %16
  store i64 %rem.i.i391.1, ptr getelementptr inbounds (%"class.std::__1::mersenne_twister_engine", ptr @_ZL3rng, i64 0, i32 1), align 8, !tbaa !11
  %shl.i.i.i409.1 = shl i64 %xor24.i.i408.1, 7
  %and27.i.i410.1 = and i64 %shl.i.i.i409.1, 2636928640
  %xor28.i.i411.1 = xor i64 %and27.i.i410.1, %xor24.i.i408.1
  %shl.i42.i.i412.1 = shl i64 %xor28.i.i411.1, 15
  %and30.i.i413.1 = and i64 %shl.i42.i.i412.1, 4022730752
  %xor31.i.i414.1 = xor i64 %and30.i.i413.1, %xor28.i.i411.1
  %shr.i44.i.i415.1 = lshr i64 %xor31.i.i414.1, 18
  %xor33.i.i416.1 = xor i64 %shr.i44.i.i415.1, %xor31.i.i414.1
  %cmp3.not.i417.1 = icmp ult i64 %xor33.i.i416.1, 4294967296
  br i1 %cmp3.not.i417.1, label %do.end.i426.1, label %do.body.i418.1, !llvm.loop !33

do.end.i426.1:                                    ; preds = %do.body.i418.1
  %and.i422 = shl i64 %xor33.i.i416, 32
  %add.i423.1 = or i64 %xor33.i.i416.1, %and.i422
  %arrayidx.i.i.i = getelementptr inbounds i64, ptr %call3, i64 %indvars.iv.i.i
  store i64 %add.i423.1, ptr %arrayidx.i.i.i, align 8, !tbaa !5
  %indvars.iv.next.i.i = add nuw nsw i64 %indvars.iv.i.i, 1
  %exitcond.not.i.i = icmp eq i64 %indvars.iv.next.i.i, 800
  br i1 %exitcond.not.i.i, label %do.body.preheader.lr.ph.i166, label %do.body.preheader.lr.ph.i374, !llvm.loop !41

do.body.preheader.lr.ph.i166:                     ; preds = %do.end.i426.1, %do.end.i218.1
  %.pre.pre.i165 = phi i64 [ %rem.i.i183.1, %do.end.i218.1 ], [ %rem.i.i391.1, %do.end.i426.1 ]
  %indvars.iv.i34.i = phi i64 [ %indvars.iv.next.i37.i, %do.end.i218.1 ], [ 0, %do.end.i426.1 ]
  br label %do.body.i210

do.body.i210:                                     ; preds = %do.body.i210, %do.body.preheader.lr.ph.i166
  %17 = phi i64 [ %.pre.pre.i165, %do.body.preheader.lr.ph.i166 ], [ %rem.i.i183, %do.body.i210 ]
  %add.i.i182 = add nuw nsw i64 %17, 1
  %rem.i.i183 = urem i64 %add.i.i182, 624
  %arrayidx.i.i184 = getelementptr inbounds [624 x i64], ptr @_ZL3rng, i64 0, i64 %17
  %18 = load i64, ptr %arrayidx.i.i184, align 8, !tbaa !5
  %and.i.i185 = and i64 %18, -2147483648
  %arrayidx4.i.i186 = getelementptr inbounds [624 x i64], ptr @_ZL3rng, i64 0, i64 %rem.i.i183
  %19 = load i64, ptr %arrayidx4.i.i186, align 8, !tbaa !5
  %and5.i.i187 = and i64 %19, 2147483646
  %or.i.i188 = or i64 %and5.i.i187, %and.i.i185
  %add7.i.i189 = add nuw nsw i64 %17, 397
  %rem8.i.i190 = urem i64 %add7.i.i189, 624
  %arrayidx10.i.i191 = getelementptr inbounds [624 x i64], ptr @_ZL3rng, i64 0, i64 %rem8.i.i190
  %20 = load i64, ptr %arrayidx10.i.i191, align 8, !tbaa !5
  %shr.i.i.i192 = lshr exact i64 %or.i.i188, 1
  %xor.i.i193 = xor i64 %shr.i.i.i192, %20
  %21 = and i64 %19, 1
  %.not.i.i194 = icmp eq i64 %21, 0
  %mul.i.i195 = select i1 %.not.i.i194, i64 0, i64 2567483615
  %xor12.i.i196 = xor i64 %xor.i.i193, %mul.i.i195
  store i64 %xor12.i.i196, ptr %arrayidx.i.i184, align 8, !tbaa !5
  %22 = load i64, ptr getelementptr inbounds (%"class.std::__1::mersenne_twister_engine", ptr @_ZL3rng, i64 0, i32 1), align 8, !tbaa !11
  %arrayidx18.i.i197 = getelementptr inbounds [624 x i64], ptr @_ZL3rng, i64 0, i64 %22
  %23 = load i64, ptr %arrayidx18.i.i197, align 8, !tbaa !5
  %shr.i41.i.i198 = lshr i64 %23, 11
  %and23.i.i199 = and i64 %shr.i41.i.i198, 4294967295
  %xor24.i.i200 = xor i64 %and23.i.i199, %23
  store i64 %rem.i.i183, ptr getelementptr inbounds (%"class.std::__1::mersenne_twister_engine", ptr @_ZL3rng, i64 0, i32 1), align 8, !tbaa !11
  %shl.i.i.i201 = shl i64 %xor24.i.i200, 7
  %and27.i.i202 = and i64 %shl.i.i.i201, 2636928640
  %xor28.i.i203 = xor i64 %and27.i.i202, %xor24.i.i200
  %shl.i42.i.i204 = shl i64 %xor28.i.i203, 15
  %and30.i.i205 = and i64 %shl.i42.i.i204, 4022730752
  %xor31.i.i206 = xor i64 %and30.i.i205, %xor28.i.i203
  %shr.i44.i.i207 = lshr i64 %xor31.i.i206, 18
  %xor33.i.i208 = xor i64 %shr.i44.i.i207, %xor31.i.i206
  %cmp3.not.i209 = icmp ult i64 %xor33.i.i208, 4294967296
  br i1 %cmp3.not.i209, label %do.body.i210.1, label %do.body.i210, !llvm.loop !33

do.body.i210.1:                                   ; preds = %do.body.i210, %do.body.i210.1
  %24 = phi i64 [ %rem.i.i183.1, %do.body.i210.1 ], [ %rem.i.i183, %do.body.i210 ]
  %add.i.i182.1 = add nuw nsw i64 %24, 1
  %rem.i.i183.1 = urem i64 %add.i.i182.1, 624
  %arrayidx.i.i184.1 = getelementptr inbounds [624 x i64], ptr @_ZL3rng, i64 0, i64 %24
  %25 = load i64, ptr %arrayidx.i.i184.1, align 8, !tbaa !5
  %and.i.i185.1 = and i64 %25, -2147483648
  %arrayidx4.i.i186.1 = getelementptr inbounds [624 x i64], ptr @_ZL3rng, i64 0, i64 %rem.i.i183.1
  %26 = load i64, ptr %arrayidx4.i.i186.1, align 8, !tbaa !5
  %and5.i.i187.1 = and i64 %26, 2147483646
  %or.i.i188.1 = or i64 %and5.i.i187.1, %and.i.i185.1
  %add7.i.i189.1 = add nuw nsw i64 %24, 397
  %rem8.i.i190.1 = urem i64 %add7.i.i189.1, 624
  %arrayidx10.i.i191.1 = getelementptr inbounds [624 x i64], ptr @_ZL3rng, i64 0, i64 %rem8.i.i190.1
  %27 = load i64, ptr %arrayidx10.i.i191.1, align 8, !tbaa !5
  %shr.i.i.i192.1 = lshr exact i64 %or.i.i188.1, 1
  %xor.i.i193.1 = xor i64 %shr.i.i.i192.1, %27
  %28 = and i64 %26, 1
  %.not.i.i194.1 = icmp eq i64 %28, 0
  %mul.i.i195.1 = select i1 %.not.i.i194.1, i64 0, i64 2567483615
  %xor12.i.i196.1 = xor i64 %xor.i.i193.1, %mul.i.i195.1
  store i64 %xor12.i.i196.1, ptr %arrayidx.i.i184.1, align 8, !tbaa !5
  %29 = load i64, ptr getelementptr inbounds (%"class.std::__1::mersenne_twister_engine", ptr @_ZL3rng, i64 0, i32 1), align 8, !tbaa !11
  %arrayidx18.i.i197.1 = getelementptr inbounds [624 x i64], ptr @_ZL3rng, i64 0, i64 %29
  %30 = load i64, ptr %arrayidx18.i.i197.1, align 8, !tbaa !5
  %shr.i41.i.i198.1 = lshr i64 %30, 11
  %and23.i.i199.1 = and i64 %shr.i41.i.i198.1, 4294967295
  %xor24.i.i200.1 = xor i64 %and23.i.i199.1, %30
  store i64 %rem.i.i183.1, ptr getelementptr inbounds (%"class.std::__1::mersenne_twister_engine", ptr @_ZL3rng, i64 0, i32 1), align 8, !tbaa !11
  %shl.i.i.i201.1 = shl i64 %xor24.i.i200.1, 7
  %and27.i.i202.1 = and i64 %shl.i.i.i201.1, 2636928640
  %xor28.i.i203.1 = xor i64 %and27.i.i202.1, %xor24.i.i200.1
  %shl.i42.i.i204.1 = shl i64 %xor28.i.i203.1, 15
  %and30.i.i205.1 = and i64 %shl.i42.i.i204.1, 4022730752
  %xor31.i.i206.1 = xor i64 %and30.i.i205.1, %xor28.i.i203.1
  %shr.i44.i.i207.1 = lshr i64 %xor31.i.i206.1, 18
  %xor33.i.i208.1 = xor i64 %shr.i44.i.i207.1, %xor31.i.i206.1
  %cmp3.not.i209.1 = icmp ult i64 %xor33.i.i208.1, 4294967296
  br i1 %cmp3.not.i209.1, label %do.end.i218.1, label %do.body.i210.1, !llvm.loop !33

do.end.i218.1:                                    ; preds = %do.body.i210.1
  %and.i214 = shl i64 %xor33.i.i208, 32
  %add.i215.1 = or i64 %xor33.i.i208.1, %and.i214
  %arrayidx.i.i36.i = getelementptr inbounds i64, ptr %call5, i64 %indvars.iv.i34.i
  store i64 %add.i215.1, ptr %arrayidx.i.i36.i, align 8, !tbaa !5
  %indvars.iv.next.i37.i = add nuw nsw i64 %indvars.iv.i34.i, 1
  %exitcond.not.i38.i = icmp eq i64 %indvars.iv.next.i37.i, 800
  br i1 %exitcond.not.i38.i, label %for.body.i.preheader, label %do.body.preheader.lr.ph.i166, !llvm.loop !41

for.body.i.preheader:                             ; preds = %do.end.i218.1
  call void @llvm.memcpy.p0.p0.i64(ptr noundef nonnull align 8 dereferenceable(6400) %call9, ptr noundef nonnull align 8 dereferenceable(6400) %call3, i64 6400, i1 false), !tbaa !5
  call void @llvm.memcpy.p0.p0.i64(ptr noundef nonnull align 8 dereferenceable(6400) %call13, ptr noundef nonnull align 8 dereferenceable(6400) %call3, i64 6400, i1 false), !tbaa !5
  %add.ptr.i = getelementptr inbounds i64, ptr %arrayidx.i.i, i64 %indvars.iv
  %31 = load i32, ptr %N, align 4, !tbaa !31
  call void @llvm.lifetime.start.p0(i64 8, ptr nonnull %__arg.addr.i.i)
  call void @llvm.lifetime.start.p0(i64 8, ptr nonnull %__arg.addr2.i.i)
  call void @llvm.lifetime.start.p0(i64 8, ptr nonnull %__arg.addr4.i.i)
  call void @llvm.lifetime.start.p0(i64 4, ptr nonnull %__arg.addr6.i.i)
  store ptr %add.ptr.i, ptr %__arg.addr.i.i, align 8, !tbaa !35
  store ptr %call5, ptr %__arg.addr2.i.i, align 8, !tbaa !35
  store ptr %arrayidx.i.i, ptr %__arg.addr4.i.i, align 8, !tbaa !35
  store i32 %31, ptr %__arg.addr6.i.i, align 4, !tbaa !31
  %32 = load ptr, ptr %__f_.i.i.i, align 16, !tbaa !29
  %cmp.i.i.i = icmp eq ptr %32, null
  br i1 %cmp.i.i.i, label %if.then.i.i.i, label %_ZNKSt3__18functionIFvPmS1_S1_jEEclES1_S1_S1_j.exit.i

if.then.i.i.i:                                    ; preds = %for.body.i.preheader
  invoke void @_ZNSt3__125__throw_bad_function_callB7v170000Ev() #27
          to label %.noexc unwind label %_ZNSt3__110unique_ptrIA_mNS_14default_deleteIS1_EEED2B7v170000Ev.exit53.loopexit.split-lp

.noexc:                                           ; preds = %if.then.i.i.i
  unreachable

_ZNKSt3__18functionIFvPmS1_S1_jEEclES1_S1_S1_j.exit.i: ; preds = %for.body.i.preheader
  %vtable.i.i.i = load ptr, ptr %32, align 8, !tbaa !15
  %vfn.i.i.i = getelementptr inbounds ptr, ptr %vtable.i.i.i, i64 6
  %33 = load ptr, ptr %vfn.i.i.i, align 8
  invoke void %33(ptr noundef nonnull align 8 dereferenceable(8) %32, ptr noundef nonnull align 8 dereferenceable(8) %__arg.addr.i.i, ptr noundef nonnull align 8 dereferenceable(8) %__arg.addr2.i.i, ptr noundef nonnull align 8 dereferenceable(8) %__arg.addr4.i.i, ptr noundef nonnull align 4 dereferenceable(4) %__arg.addr6.i.i)
          to label %.noexc46 unwind label %_ZNSt3__110unique_ptrIA_mNS_14default_deleteIS1_EEED2B7v170000Ev.exit53.loopexit

.noexc46:                                         ; preds = %_ZNKSt3__18functionIFvPmS1_S1_jEEclES1_S1_S1_j.exit.i
  call void @llvm.lifetime.end.p0(i64 8, ptr nonnull %__arg.addr.i.i)
  call void @llvm.lifetime.end.p0(i64 8, ptr nonnull %__arg.addr2.i.i)
  call void @llvm.lifetime.end.p0(i64 8, ptr nonnull %__arg.addr4.i.i)
  call void @llvm.lifetime.end.p0(i64 4, ptr nonnull %__arg.addr6.i.i)
  call void @llvm.lifetime.start.p0(i64 8, ptr nonnull %StartPtr.i) #24
  store ptr %arrayidx.i41.i, ptr %StartPtr.i, align 8, !tbaa !35
  call void @llvm.lifetime.start.p0(i64 8, ptr nonnull %ref.tmp.i) #24
  %add.ptr15.i = getelementptr inbounds i64, ptr %arrayidx.i41.i, i64 %indvars.iv
  store ptr %add.ptr15.i, ptr %ref.tmp.i, align 8, !tbaa !35
  call void @llvm.lifetime.start.p0(i64 8, ptr nonnull %ref.tmp16.i) #24
  store ptr %call5, ptr %ref.tmp16.i, align 8, !tbaa !35
  invoke fastcc void @_ZL18callThroughOptnoneIRNSt3__18functionIFvPmS2_S2_jEEEJS2_S2_RS2_RjEEvOT_DpOT0_(ptr noundef nonnull align 16 dereferenceable(48) %VectorFn, ptr noundef nonnull align 8 dereferenceable(8) %ref.tmp.i, ptr noundef nonnull align 8 dereferenceable(8) %ref.tmp16.i, ptr noundef nonnull align 8 dereferenceable(8) %StartPtr.i, ptr noundef nonnull align 4 dereferenceable(4) %N)
          to label %for.body.i.i.i.preheader.i unwind label %_ZNSt3__110unique_ptrIA_mNS_14default_deleteIS1_EEED2B7v170000Ev.exit53.loopexit

for.body.i.i.i.preheader.i:                       ; preds = %.noexc46
  call void @llvm.lifetime.end.p0(i64 8, ptr nonnull %ref.tmp16.i) #24
  call void @llvm.lifetime.end.p0(i64 8, ptr nonnull %ref.tmp.i) #24
  br label %for.body.i.i.i.i

for.body.i.i.i.i:                                 ; preds = %for.inc.i.i.i.i.4, %for.body.i.i.i.preheader.i
  %__first2.addr.07.i.i.i.i = phi ptr [ %call13, %for.body.i.i.i.preheader.i ], [ %incdec.ptr1.i.i.i.i.4, %for.inc.i.i.i.i.4 ]
  %__first1.addr.06.i.i.i.i.idx = phi i64 [ 0, %for.body.i.i.i.preheader.i ], [ %__first1.addr.06.i.i.i.i.add.4, %for.inc.i.i.i.i.4 ]
  %__first1.addr.06.i.i.i.i.ptr = getelementptr inbounds i64, ptr %call9, i64 %__first1.addr.06.i.i.i.i.idx
  %34 = load i64, ptr %__first1.addr.06.i.i.i.i.ptr, align 8, !tbaa !5
  %35 = load i64, ptr %__first2.addr.07.i.i.i.i, align 8, !tbaa !5
  %cmp.i.i.i.i.i = icmp eq i64 %34, %35
  br i1 %cmp.i.i.i.i.i, label %for.inc.i.i.i.i, label %if.then.i.i

for.inc.i.i.i.i:                                  ; preds = %for.body.i.i.i.i
  %__first1.addr.06.i.i.i.i.add = add nuw nsw i64 %__first1.addr.06.i.i.i.i.idx, 1
  %incdec.ptr1.i.i.i.i = getelementptr inbounds i64, ptr %__first2.addr.07.i.i.i.i, i64 1
  %__first1.addr.06.i.i.i.i.ptr.1 = getelementptr inbounds i64, ptr %call9, i64 %__first1.addr.06.i.i.i.i.add
  %36 = load i64, ptr %__first1.addr.06.i.i.i.i.ptr.1, align 8, !tbaa !5
  %37 = load i64, ptr %incdec.ptr1.i.i.i.i, align 8, !tbaa !5
  %cmp.i.i.i.i.i.1 = icmp eq i64 %36, %37
  br i1 %cmp.i.i.i.i.i.1, label %for.inc.i.i.i.i.1, label %if.then.i.i

for.inc.i.i.i.i.1:                                ; preds = %for.inc.i.i.i.i
  %__first1.addr.06.i.i.i.i.add.1 = add nuw nsw i64 %__first1.addr.06.i.i.i.i.idx, 2
  %incdec.ptr1.i.i.i.i.1 = getelementptr inbounds i64, ptr %__first2.addr.07.i.i.i.i, i64 2
  %__first1.addr.06.i.i.i.i.ptr.2 = getelementptr inbounds i64, ptr %call9, i64 %__first1.addr.06.i.i.i.i.add.1
  %38 = load i64, ptr %__first1.addr.06.i.i.i.i.ptr.2, align 8, !tbaa !5
  %39 = load i64, ptr %incdec.ptr1.i.i.i.i.1, align 8, !tbaa !5
  %cmp.i.i.i.i.i.2 = icmp eq i64 %38, %39
  br i1 %cmp.i.i.i.i.i.2, label %for.inc.i.i.i.i.2, label %if.then.i.i

for.inc.i.i.i.i.2:                                ; preds = %for.inc.i.i.i.i.1
  %__first1.addr.06.i.i.i.i.add.2 = add nuw nsw i64 %__first1.addr.06.i.i.i.i.idx, 3
  %incdec.ptr1.i.i.i.i.2 = getelementptr inbounds i64, ptr %__first2.addr.07.i.i.i.i, i64 3
  %__first1.addr.06.i.i.i.i.ptr.3 = getelementptr inbounds i64, ptr %call9, i64 %__first1.addr.06.i.i.i.i.add.2
  %40 = load i64, ptr %__first1.addr.06.i.i.i.i.ptr.3, align 8, !tbaa !5
  %41 = load i64, ptr %incdec.ptr1.i.i.i.i.2, align 8, !tbaa !5
  %cmp.i.i.i.i.i.3 = icmp eq i64 %40, %41
  br i1 %cmp.i.i.i.i.i.3, label %for.inc.i.i.i.i.3, label %if.then.i.i

for.inc.i.i.i.i.3:                                ; preds = %for.inc.i.i.i.i.2
  %__first1.addr.06.i.i.i.i.add.3 = add nuw nsw i64 %__first1.addr.06.i.i.i.i.idx, 4
  %incdec.ptr1.i.i.i.i.3 = getelementptr inbounds i64, ptr %__first2.addr.07.i.i.i.i, i64 4
  %__first1.addr.06.i.i.i.i.ptr.4 = getelementptr inbounds i64, ptr %call9, i64 %__first1.addr.06.i.i.i.i.add.3
  %42 = load i64, ptr %__first1.addr.06.i.i.i.i.ptr.4, align 8, !tbaa !5
  %43 = load i64, ptr %incdec.ptr1.i.i.i.i.3, align 8, !tbaa !5
  %cmp.i.i.i.i.i.4 = icmp eq i64 %42, %43
  br i1 %cmp.i.i.i.i.i.4, label %for.inc.i.i.i.i.4, label %if.then.i.i

for.inc.i.i.i.i.4:                                ; preds = %for.inc.i.i.i.i.3
  %__first1.addr.06.i.i.i.i.add.4 = add nuw nsw i64 %__first1.addr.06.i.i.i.i.idx, 5
  %incdec.ptr1.i.i.i.i.4 = getelementptr inbounds i64, ptr %__first2.addr.07.i.i.i.i, i64 5
  %cmp.not.i.i.i.i.4 = icmp eq i64 %__first1.addr.06.i.i.i.i.add.4, 800
  br i1 %cmp.not.i.i.i.i.4, label %for.inc, label %for.body.i.i.i.i, !llvm.loop !42

if.then.i.i:                                      ; preds = %for.inc.i.i.i.i.3, %for.inc.i.i.i.i.2, %for.inc.i.i.i.i.1, %for.inc.i.i.i.i, %for.body.i.i.i.i
  %call1.i6465 = invoke noundef nonnull align 8 dereferenceable(8) ptr @_ZNSt3__124__put_character_sequenceB7v170000IcNS_11char_traitsIcEEEERNS_13basic_ostreamIT_T0_EES7_PKS4_m(ptr noundef nonnull align 8 dereferenceable(8) @_ZNSt3__14cerrE, ptr noundef nonnull @.str.33, i64 noundef 23)
          to label %call4.i.i.noexc unwind label %_ZNSt3__110unique_ptrIA_mNS_14default_deleteIS1_EEED2B7v170000Ev.exit53.loopexit.split-lp

call4.i.i.noexc:                                  ; preds = %if.then.i.i
  %44 = trunc i64 %indvars.iv to i32
  %call5.i.i49 = invoke noundef nonnull align 8 dereferenceable(8) ptr @_ZNSt3__113basic_ostreamIcNS_11char_traitsIcEEElsEi(ptr noundef nonnull align 8 dereferenceable(8) %call1.i6465, i32 noundef %44)
          to label %call5.i.i.noexc unwind label %_ZNSt3__110unique_ptrIA_mNS_14default_deleteIS1_EEED2B7v170000Ev.exit53.loopexit.split-lp

call5.i.i.noexc:                                  ; preds = %call4.i.i.noexc
  %call6.i.i50 = invoke noundef nonnull align 8 dereferenceable(8) ptr @_ZNSt3__1lsB7v170000INS_11char_traitsIcEEEERNS_13basic_ostreamIcT_EES6_PKc(ptr noundef nonnull align 8 dereferenceable(8) %call5.i.i49, ptr noundef nonnull @.str.31)
          to label %call6.i.i.noexc unwind label %_ZNSt3__110unique_ptrIA_mNS_14default_deleteIS1_EEED2B7v170000Ev.exit53.loopexit.split-lp

call6.i.i.noexc:                                  ; preds = %call5.i.i.noexc
  call void @exit(i32 noundef 1) #28
  unreachable

for.inc:                                          ; preds = %for.inc.i.i.i.i.4
  call void @llvm.lifetime.end.p0(i64 8, ptr nonnull %StartPtr.i) #24
  %indvars.iv.next = add nsw i64 %indvars.iv, 1
  %exitcond.not = icmp eq i64 %indvars.iv.next, 101
  br i1 %exitcond.not, label %_ZNSt3__110unique_ptrIA_mNS_14default_deleteIS1_EEED2B7v170000Ev.exit42, label %do.body.preheader.lr.ph.i374.preheader, !llvm.loop !46

_ZNSt3__110unique_ptrIA_mNS_14default_deleteIS1_EEED2B7v170000Ev.exit53.loopexit: ; preds = %_ZNKSt3__18functionIFvPmS1_S1_jEEclES1_S1_S1_j.exit.i, %.noexc46
  %lpad.loopexit = landingpad { ptr, i32 }
          cleanup
  br label %_ZNSt3__110unique_ptrIA_mNS_14default_deleteIS1_EEED2B7v170000Ev.exit53

_ZNSt3__110unique_ptrIA_mNS_14default_deleteIS1_EEED2B7v170000Ev.exit53.loopexit.split-lp: ; preds = %if.then.i.i.i, %call4.i.i.noexc, %call5.i.i.noexc, %if.then.i.i
  %lpad.loopexit.split-lp = landingpad { ptr, i32 }
          cleanup
  br label %_ZNSt3__110unique_ptrIA_mNS_14default_deleteIS1_EEED2B7v170000Ev.exit53

_ZNSt3__110unique_ptrIA_mNS_14default_deleteIS1_EEED2B7v170000Ev.exit53: ; preds = %_ZNSt3__110unique_ptrIA_mNS_14default_deleteIS1_EEED2B7v170000Ev.exit53.loopexit.split-lp, %_ZNSt3__110unique_ptrIA_mNS_14default_deleteIS1_EEED2B7v170000Ev.exit53.loopexit
  %lpad.phi = phi { ptr, i32 } [ %lpad.loopexit, %_ZNSt3__110unique_ptrIA_mNS_14default_deleteIS1_EEED2B7v170000Ev.exit53.loopexit ], [ %lpad.loopexit.split-lp, %_ZNSt3__110unique_ptrIA_mNS_14default_deleteIS1_EEED2B7v170000Ev.exit53.loopexit.split-lp ]
  call void @_ZdaPv(ptr noundef nonnull %call13) #26
  br label %_ZNSt3__110unique_ptrIA_mNS_14default_deleteIS1_EEED2B7v170000Ev.exit56

_ZNSt3__110unique_ptrIA_mNS_14default_deleteIS1_EEED2B7v170000Ev.exit56: ; preds = %_ZNSt3__110unique_ptrIA_mNS_14default_deleteIS1_EEED2B7v170000Ev.exit53, %lpad11
  %.pn = phi { ptr, i32 } [ %lpad.phi, %_ZNSt3__110unique_ptrIA_mNS_14default_deleteIS1_EEED2B7v170000Ev.exit53 ], [ %2, %lpad11 ]
  call void @_ZdaPv(ptr noundef nonnull %call9) #26
  br label %_ZNSt3__110unique_ptrIA_mNS_14default_deleteIS1_EEED2B7v170000Ev.exit59

_ZNSt3__110unique_ptrIA_mNS_14default_deleteIS1_EEED2B7v170000Ev.exit59: ; preds = %_ZNSt3__110unique_ptrIA_mNS_14default_deleteIS1_EEED2B7v170000Ev.exit56, %lpad7
  %.pn.pn = phi { ptr, i32 } [ %.pn, %_ZNSt3__110unique_ptrIA_mNS_14default_deleteIS1_EEED2B7v170000Ev.exit56 ], [ %1, %lpad7 ]
  call void @_ZdaPv(ptr noundef nonnull %call5) #26
  br label %_ZNSt3__110unique_ptrIA_mNS_14default_deleteIS1_EEED2B7v170000Ev.exit62

_ZNSt3__110unique_ptrIA_mNS_14default_deleteIS1_EEED2B7v170000Ev.exit62: ; preds = %_ZNSt3__110unique_ptrIA_mNS_14default_deleteIS1_EEED2B7v170000Ev.exit59, %lpad
  %.pn.pn.pn = phi { ptr, i32 } [ %.pn.pn, %_ZNSt3__110unique_ptrIA_mNS_14default_deleteIS1_EEED2B7v170000Ev.exit59 ], [ %0, %lpad ]
  call void @_ZdaPv(ptr noundef nonnull %call3) #26
  call void @llvm.lifetime.end.p0(i64 4, ptr nonnull %N) #24
  resume { ptr, i32 } %.pn.pn.pn
}

; Function Attrs: mustprogress uwtable
define linkonce_odr hidden noundef nonnull align 8 dereferenceable(8) ptr @_ZNSt3__1lsB7v170000INS_11char_traitsIcEEEERNS_13basic_ostreamIcT_EES6_PKc(ptr noundef nonnull align 8 dereferenceable(8) %__os, ptr noundef %__str) local_unnamed_addr #3 comdat personality ptr @__gxx_personality_v0 {
entry:
  %call.i.i = tail call i64 @strlen(ptr noundef nonnull dereferenceable(1) %__str) #24
  %call1 = tail call noundef nonnull align 8 dereferenceable(8) ptr @_ZNSt3__124__put_character_sequenceB7v170000IcNS_11char_traitsIcEEEERNS_13basic_ostreamIT_T0_EES7_PKS4_m(ptr noundef nonnull align 8 dereferenceable(8) %__os, ptr noundef %__str, i64 noundef %call.i.i)
  ret ptr %call1
}

; Function Attrs: nobuiltin allocsize(0)
declare noundef nonnull ptr @_Znam(i64 noundef) local_unnamed_addr #4

; Function Attrs: uwtable
define linkonce_odr hidden noundef nonnull align 8 dereferenceable(8) ptr @_ZNSt3__124__put_character_sequenceB7v170000IcNS_11char_traitsIcEEEERNS_13basic_ostreamIT_T0_EES7_PKS4_m(ptr noundef nonnull align 8 dereferenceable(8) %__os, ptr noundef %__str, i64 noundef %__len) local_unnamed_addr #5 comdat personality ptr @__gxx_personality_v0 {
entry:
  %ref.tmp.i.i = alloca %"class.std::__1::locale", align 8
  %__s = alloca %"class.std::__1::basic_ostream<char>::sentry", align 8
  call void @llvm.lifetime.start.p0(i64 16, ptr nonnull %__s) #24
  invoke void @_ZNSt3__113basic_ostreamIcNS_11char_traitsIcEEE6sentryC1ERS3_(ptr noundef nonnull align 8 dereferenceable(16) %__s, ptr noundef nonnull align 8 dereferenceable(8) %__os)
          to label %invoke.cont unwind label %lpad

invoke.cont:                                      ; preds = %entry
  %0 = load i8, ptr %__s, align 8, !tbaa !47, !range !50, !noundef !51
  %tobool.i.not = icmp eq i8 %0, 0
  br i1 %tobool.i.not, label %if.end28, label %if.then

if.then:                                          ; preds = %invoke.cont
  %vtable.i = load ptr, ptr %__os, align 8, !tbaa !15
  %vbase.offset.ptr.i = getelementptr i8, ptr %vtable.i, i64 -24
  %vbase.offset.i = load i64, ptr %vbase.offset.ptr.i, align 8
  %add.ptr.i = getelementptr inbounds i8, ptr %__os, i64 %vbase.offset.i
  %__rdbuf_.i.i.i = getelementptr inbounds %"class.std::__1::ios_base", ptr %add.ptr.i, i64 0, i32 6
  %1 = load ptr, ptr %__rdbuf_.i.i.i, align 8, !tbaa !52
  %__fmtflags_.i = getelementptr inbounds %"class.std::__1::ios_base", ptr %add.ptr.i, i64 0, i32 1
  %2 = load i32, ptr %__fmtflags_.i, align 8, !tbaa !54
  %__fill_.i = getelementptr inbounds %"class.std::__1::basic_ios", ptr %add.ptr.i, i64 0, i32 2
  %3 = load i32, ptr %__fill_.i, align 8, !tbaa !55
  %cmp.i.i = icmp eq i32 %3, -1
  br i1 %cmp.i.i, label %if.then.i, label %invoke.cont16

if.then.i:                                        ; preds = %if.then
  call void @llvm.lifetime.start.p0(i64 8, ptr nonnull %ref.tmp.i.i) #24
  invoke void @_ZNKSt3__18ios_base6getlocEv(ptr nonnull sret(%"class.std::__1::locale") align 8 %ref.tmp.i.i, ptr noundef nonnull align 8 dereferenceable(136) %add.ptr.i)
          to label %.noexc unwind label %lpad3

.noexc:                                           ; preds = %if.then.i
  %call.i5.i.i = invoke noundef ptr @_ZNKSt3__16locale9use_facetERNS0_2idE(ptr noundef nonnull align 8 dereferenceable(8) %ref.tmp.i.i, ptr noundef nonnull align 8 dereferenceable(12) @_ZNSt3__15ctypeIcE2idE)
          to label %invoke.cont.i.i unwind label %lpad.i.i

invoke.cont.i.i:                                  ; preds = %.noexc
  %vtable.i.i.i = load ptr, ptr %call.i5.i.i, align 8, !tbaa !15
  %vfn.i.i.i = getelementptr inbounds ptr, ptr %vtable.i.i.i, i64 7
  %4 = load ptr, ptr %vfn.i.i.i, align 8
  %call.i6.i.i = invoke noundef signext i8 %4(ptr noundef nonnull align 8 dereferenceable(25) %call.i5.i.i, i8 noundef signext 32)
          to label %_ZNKSt3__19basic_iosIcNS_11char_traitsIcEEE5widenB7v170000Ec.exit.i unwind label %lpad.i.i

lpad.i.i:                                         ; preds = %invoke.cont.i.i, %.noexc
  %5 = landingpad { ptr, i32 }
          catch ptr null
  call void @_ZNSt3__16localeD1Ev(ptr noundef nonnull align 8 dereferenceable(8) %ref.tmp.i.i) #24
  call void @llvm.lifetime.end.p0(i64 8, ptr nonnull %ref.tmp.i.i) #24
  br label %ehcleanup

_ZNKSt3__19basic_iosIcNS_11char_traitsIcEEE5widenB7v170000Ec.exit.i: ; preds = %invoke.cont.i.i
  call void @_ZNSt3__16localeD1Ev(ptr noundef nonnull align 8 dereferenceable(8) %ref.tmp.i.i) #24
  call void @llvm.lifetime.end.p0(i64 8, ptr nonnull %ref.tmp.i.i) #24
  %conv.i = sext i8 %call.i6.i.i to i32
  store i32 %conv.i, ptr %__fill_.i, align 8, !tbaa !55
  br label %invoke.cont16

invoke.cont16:                                    ; preds = %_ZNKSt3__19basic_iosIcNS_11char_traitsIcEEE5widenB7v170000Ec.exit.i, %if.then
  %6 = phi i32 [ %conv.i, %_ZNKSt3__19basic_iosIcNS_11char_traitsIcEEE5widenB7v170000Ec.exit.i ], [ %3, %if.then ]
  %conv6.i = trunc i32 %6 to i8
  %and = and i32 %2, 176
  %cmp = icmp eq i32 %and, 32
  %add.ptr6 = getelementptr inbounds i8, ptr %__str, i64 %__len
  %cond = select i1 %cmp, ptr %add.ptr6, ptr %__str
  %call19 = invoke ptr @_ZNSt3__116__pad_and_outputB7v170000IcNS_11char_traitsIcEEEENS_19ostreambuf_iteratorIT_T0_EES6_PKS4_S8_S8_RNS_8ios_baseES4_(ptr %1, ptr noundef %__str, ptr noundef %cond, ptr noundef %add.ptr6, ptr noundef nonnull align 8 dereferenceable(136) %add.ptr.i, i8 noundef signext %conv6.i)
          to label %invoke.cont18 unwind label %lpad3

invoke.cont18:                                    ; preds = %invoke.cont16
  %cmp.i = icmp eq ptr %call19, null
  br i1 %cmp.i, label %if.then22, label %if.end28

if.then22:                                        ; preds = %invoke.cont18
  %vtable23 = load ptr, ptr %__os, align 8, !tbaa !15
  %vbase.offset.ptr24 = getelementptr i8, ptr %vtable23, i64 -24
  %vbase.offset25 = load i64, ptr %vbase.offset.ptr24, align 8
  %add.ptr26 = getelementptr inbounds i8, ptr %__os, i64 %vbase.offset25
  %__rdstate_.i.i = getelementptr inbounds %"class.std::__1::ios_base", ptr %add.ptr26, i64 0, i32 4
  %7 = load i32, ptr %__rdstate_.i.i, align 8, !tbaa !57
  %or.i.i = or i32 %7, 5
  invoke void @_ZNSt3__18ios_base5clearEj(ptr noundef nonnull align 8 dereferenceable(136) %add.ptr26, i32 noundef %or.i.i)
          to label %if.end28 unwind label %lpad1

lpad:                                             ; preds = %entry
  %8 = landingpad { ptr, i32 }
          catch ptr null
  br label %ehcleanup29

lpad1:                                            ; preds = %if.then22
  %9 = landingpad { ptr, i32 }
          catch ptr null
  br label %ehcleanup

lpad3:                                            ; preds = %if.then.i, %invoke.cont16
  %10 = landingpad { ptr, i32 }
          catch ptr null
  br label %ehcleanup

if.end28:                                         ; preds = %if.then22, %invoke.cont18, %invoke.cont
  call void @_ZNSt3__113basic_ostreamIcNS_11char_traitsIcEEE6sentryD1Ev(ptr noundef nonnull align 8 dereferenceable(16) %__s) #24
  call void @llvm.lifetime.end.p0(i64 16, ptr nonnull %__s) #24
  br label %try.cont

ehcleanup:                                        ; preds = %lpad3, %lpad.i.i, %lpad1
  %.pn = phi { ptr, i32 } [ %9, %lpad1 ], [ %10, %lpad3 ], [ %5, %lpad.i.i ]
  call void @_ZNSt3__113basic_ostreamIcNS_11char_traitsIcEEE6sentryD1Ev(ptr noundef nonnull align 8 dereferenceable(16) %__s) #24
  br label %ehcleanup29

ehcleanup29:                                      ; preds = %ehcleanup, %lpad
  %.pn.pn = phi { ptr, i32 } [ %.pn, %ehcleanup ], [ %8, %lpad ]
  %exn.slot.1 = extractvalue { ptr, i32 } %.pn.pn, 0
  call void @llvm.lifetime.end.p0(i64 16, ptr nonnull %__s) #24
  %11 = call ptr @__cxa_begin_catch(ptr %exn.slot.1) #24
  %vtable30 = load ptr, ptr %__os, align 8, !tbaa !15
  %vbase.offset.ptr31 = getelementptr i8, ptr %vtable30, i64 -24
  %vbase.offset32 = load i64, ptr %vbase.offset.ptr31, align 8
  %add.ptr33 = getelementptr inbounds i8, ptr %__os, i64 %vbase.offset32
  invoke void @_ZNSt3__18ios_base33__set_badbit_and_consider_rethrowEv(ptr noundef nonnull align 8 dereferenceable(136) %add.ptr33)
          to label %invoke.cont35 unwind label %lpad34

invoke.cont35:                                    ; preds = %ehcleanup29
  call void @__cxa_end_catch()
  br label %try.cont

try.cont:                                         ; preds = %invoke.cont35, %if.end28
  ret ptr %__os

lpad34:                                           ; preds = %ehcleanup29
  %12 = landingpad { ptr, i32 }
          cleanup
  invoke void @__cxa_end_catch()
          to label %eh.resume unwind label %terminate.lpad

eh.resume:                                        ; preds = %lpad34
  resume { ptr, i32 } %12

terminate.lpad:                                   ; preds = %lpad34
  %13 = landingpad { ptr, i32 }
          catch ptr null
  %14 = extractvalue { ptr, i32 } %13, 0
  call void @__clang_call_terminate(ptr %14) #28
  unreachable
}

declare void @_ZNSt3__113basic_ostreamIcNS_11char_traitsIcEEE6sentryC1ERS3_(ptr noundef nonnull align 8 dereferenceable(16), ptr noundef nonnull align 8 dereferenceable(8)) unnamed_addr #6

; Function Attrs: uwtable
define linkonce_odr hidden ptr @_ZNSt3__116__pad_and_outputB7v170000IcNS_11char_traitsIcEEEENS_19ostreambuf_iteratorIT_T0_EES6_PKS4_S8_S8_RNS_8ios_baseES4_(ptr %__s.coerce, ptr noundef %__ob, ptr noundef %__op, ptr noundef %__oe, ptr noundef nonnull align 8 dereferenceable(136) %__iob, i8 noundef signext %__fl) local_unnamed_addr #5 comdat personality ptr @__gxx_personality_v0 {
entry:
  %__sp = alloca %"class.std::__1::basic_string", align 8
  %cmp = icmp eq ptr %__s.coerce, null
  br i1 %cmp, label %return, label %if.end

if.end:                                           ; preds = %entry
  %sub.ptr.lhs.cast = ptrtoint ptr %__oe to i64
  %sub.ptr.rhs.cast = ptrtoint ptr %__ob to i64
  %sub.ptr.sub = sub i64 %sub.ptr.lhs.cast, %sub.ptr.rhs.cast
  %__width_.i = getelementptr inbounds %"class.std::__1::ios_base", ptr %__iob, i64 0, i32 3
  %0 = load i64, ptr %__width_.i, align 8, !tbaa !58
  %cmp1 = icmp sgt i64 %0, %sub.ptr.sub
  %sub = sub nsw i64 %0, %sub.ptr.sub
  %__ns.0 = select i1 %cmp1, i64 %sub, i64 0
  %sub.ptr.lhs.cast4 = ptrtoint ptr %__op to i64
  %sub.ptr.sub6 = sub i64 %sub.ptr.lhs.cast4, %sub.ptr.rhs.cast
  %cmp7 = icmp sgt i64 %sub.ptr.sub6, 0
  br i1 %cmp7, label %if.then8, label %if.end15

if.then8:                                         ; preds = %if.end
  %vtable.i = load ptr, ptr %__s.coerce, align 8, !tbaa !15
  %vfn.i = getelementptr inbounds ptr, ptr %vtable.i, i64 12
  %1 = load ptr, ptr %vfn.i, align 8
  %call.i = tail call noundef i64 %1(ptr noundef nonnull align 8 dereferenceable(64) %__s.coerce, ptr noundef %__ob, i64 noundef %sub.ptr.sub6)
  %cmp11.not = icmp eq i64 %call.i, %sub.ptr.sub6
  br i1 %cmp11.not, label %if.end15, label %return

if.end15:                                         ; preds = %if.then8, %if.end
  %cmp16 = icmp sgt i64 %__ns.0, 0
  br i1 %cmp16, label %if.end.i.i, label %if.end26

if.end.i.i:                                       ; preds = %if.end15
  call void @llvm.lifetime.start.p0(i64 24, ptr nonnull %__sp) #24
  %cmp.i.i.i = icmp ult i64 %__ns.0, 23
  br i1 %cmp.i.i.i, label %if.end9.i.i, label %if.end9.thread.i.i

if.end9.thread.i.i:                               ; preds = %if.end.i.i
  %sub.i.i.i = or i64 %__ns.0, 15
  %add.i.i = add nuw i64 %sub.i.i.i, 1
  %call.i5.i.i.i.i.i = tail call noalias noundef nonnull ptr @_Znwm(i64 noundef %add.i.i) #25
  %__data_.i23.i.i = getelementptr inbounds %"struct.std::__1::basic_string<char>::__long", ptr %__sp, i64 0, i32 2
  store ptr %call.i5.i.i.i.i.i, ptr %__data_.i23.i.i, align 8, !tbaa !14
  %bf.set6.i.i.i = or i64 %add.i.i, 1
  store i64 %bf.set6.i.i.i, ptr %__sp, align 8
  %__size_.i.i.i = getelementptr inbounds %"struct.std::__1::basic_string<char>::__long", ptr %__sp, i64 0, i32 1
  store i64 %__ns.0, ptr %__size_.i.i.i, align 8, !tbaa !14
  br label %_ZNSt3__112basic_stringIcNS_11char_traitsIcEENS_9allocatorIcEEEC2B7v170000Emc.exit

if.end9.i.i:                                      ; preds = %if.end.i.i
  %conv.i.i.i = trunc i64 %__ns.0 to i8
  %bf.shl.i.i.i = shl nuw nsw i8 %conv.i.i.i, 1
  store i8 %bf.shl.i.i.i, ptr %__sp, align 8
  %__data_.i.i.i = getelementptr inbounds %"struct.std::__1::basic_string<char>::__short", ptr %__sp, i64 0, i32 2
  br label %_ZNSt3__112basic_stringIcNS_11char_traitsIcEENS_9allocatorIcEEEC2B7v170000Emc.exit

_ZNSt3__112basic_stringIcNS_11char_traitsIcEENS_9allocatorIcEEEC2B7v170000Emc.exit: ; preds = %if.end9.thread.i.i, %if.end9.i.i
  %__p.026.i.i = phi ptr [ %call.i5.i.i.i.i.i, %if.end9.thread.i.i ], [ %__data_.i.i.i, %if.end9.i.i ]
  call void @llvm.memset.p0.i64(ptr nonnull align 1 %__p.026.i.i, i8 %__fl, i64 %__ns.0, i1 false), !tbaa !14
  %arrayidx.i.i = getelementptr inbounds i8, ptr %__p.026.i.i, i64 %__ns.0
  store i8 0, ptr %arrayidx.i.i, align 1, !tbaa !14
  %bf.load.i.i.i = load i8, ptr %__sp, align 8
  %bf.clear.i.i.i = and i8 %bf.load.i.i.i, 1
  %tobool.i.not.i.i = icmp eq i8 %bf.clear.i.i.i, 0
  %__data_.i.i.i69 = getelementptr inbounds %"struct.std::__1::basic_string<char>::__long", ptr %__sp, i64 0, i32 2
  %2 = load ptr, ptr %__data_.i.i.i69, align 8
  %__data_.i4.i.i = getelementptr inbounds %"struct.std::__1::basic_string<char>::__short", ptr %__sp, i64 0, i32 2
  %cond.i.i = select i1 %tobool.i.not.i.i, ptr %__data_.i4.i.i, ptr %2
  %vtable.i70 = load ptr, ptr %__s.coerce, align 8, !tbaa !15
  %vfn.i71 = getelementptr inbounds ptr, ptr %vtable.i70, i64 12
  %3 = load ptr, ptr %vfn.i71, align 8
  %call.i7273 = invoke noundef i64 %3(ptr noundef nonnull align 8 dereferenceable(64) %__s.coerce, ptr noundef %cond.i.i, i64 noundef %__ns.0)
          to label %invoke.cont unwind label %lpad

invoke.cont:                                      ; preds = %_ZNSt3__112basic_stringIcNS_11char_traitsIcEENS_9allocatorIcEEEC2B7v170000Emc.exit
  %cmp21.not = icmp eq i64 %call.i7273, %__ns.0
  %bf.load.i.i = load i8, ptr %__sp, align 8
  %bf.clear.i.i = and i8 %bf.load.i.i, 1
  %tobool.i.not.i = icmp eq i8 %bf.clear.i.i, 0
  br i1 %tobool.i.not.i, label %_ZNSt3__112basic_stringIcNS_11char_traitsIcEENS_9allocatorIcEEED2Ev.exit, label %if.then.i

if.then.i:                                        ; preds = %invoke.cont
  %4 = load ptr, ptr %__data_.i.i.i69, align 8, !tbaa !14
  call void @_ZdlPv(ptr noundef %4) #26
  br label %_ZNSt3__112basic_stringIcNS_11char_traitsIcEENS_9allocatorIcEEED2Ev.exit

_ZNSt3__112basic_stringIcNS_11char_traitsIcEENS_9allocatorIcEEED2Ev.exit: ; preds = %invoke.cont, %if.then.i
  call void @llvm.lifetime.end.p0(i64 24, ptr nonnull %__sp) #24
  br i1 %cmp21.not, label %if.end26, label %return

lpad:                                             ; preds = %_ZNSt3__112basic_stringIcNS_11char_traitsIcEENS_9allocatorIcEEEC2B7v170000Emc.exit
  %5 = landingpad { ptr, i32 }
          cleanup
  %bf.load.i.i74 = load i8, ptr %__sp, align 8
  %bf.clear.i.i75 = and i8 %bf.load.i.i74, 1
  %tobool.i.not.i76 = icmp eq i8 %bf.clear.i.i75, 0
  br i1 %tobool.i.not.i76, label %_ZNSt3__112basic_stringIcNS_11char_traitsIcEENS_9allocatorIcEEED2Ev.exit79, label %if.then.i78

if.then.i78:                                      ; preds = %lpad
  %6 = load ptr, ptr %__data_.i.i.i69, align 8, !tbaa !14
  call void @_ZdlPv(ptr noundef %6) #26
  br label %_ZNSt3__112basic_stringIcNS_11char_traitsIcEENS_9allocatorIcEEED2Ev.exit79

_ZNSt3__112basic_stringIcNS_11char_traitsIcEENS_9allocatorIcEEED2Ev.exit79: ; preds = %lpad, %if.then.i78
  call void @llvm.lifetime.end.p0(i64 24, ptr nonnull %__sp) #24
  resume { ptr, i32 } %5

if.end26:                                         ; preds = %_ZNSt3__112basic_stringIcNS_11char_traitsIcEENS_9allocatorIcEEED2Ev.exit, %if.end15
  %sub.ptr.sub29 = sub i64 %sub.ptr.lhs.cast, %sub.ptr.lhs.cast4
  %cmp30 = icmp sgt i64 %sub.ptr.sub29, 0
  br i1 %cmp30, label %if.then31, label %if.end38

if.then31:                                        ; preds = %if.end26
  %vtable.i80 = load ptr, ptr %__s.coerce, align 8, !tbaa !15
  %vfn.i81 = getelementptr inbounds ptr, ptr %vtable.i80, i64 12
  %7 = load ptr, ptr %vfn.i81, align 8
  %call.i82 = call noundef i64 %7(ptr noundef nonnull align 8 dereferenceable(64) %__s.coerce, ptr noundef %__op, i64 noundef %sub.ptr.sub29)
  %cmp34.not = icmp eq i64 %call.i82, %sub.ptr.sub29
  br i1 %cmp34.not, label %if.end38, label %return

if.end38:                                         ; preds = %if.then31, %if.end26
  store i64 0, ptr %__width_.i, align 8, !tbaa !58
  br label %return

return:                                           ; preds = %if.end38, %_ZNSt3__112basic_stringIcNS_11char_traitsIcEENS_9allocatorIcEEED2Ev.exit, %if.then8, %if.then31, %entry
  %retval.sroa.0.2 = phi ptr [ null, %entry ], [ %__s.coerce, %if.end38 ], [ null, %_ZNSt3__112basic_stringIcNS_11char_traitsIcEENS_9allocatorIcEEED2Ev.exit ], [ null, %if.then8 ], [ null, %if.then31 ]
  ret ptr %retval.sroa.0.2
}

; Function Attrs: nounwind
declare void @_ZNSt3__113basic_ostreamIcNS_11char_traitsIcEEE6sentryD1Ev(ptr noundef nonnull align 8 dereferenceable(16)) unnamed_addr #7

declare ptr @__cxa_begin_catch(ptr) local_unnamed_addr

declare void @_ZNSt3__18ios_base33__set_badbit_and_consider_rethrowEv(ptr noundef nonnull align 8 dereferenceable(136)) local_unnamed_addr #6

declare void @__cxa_end_catch() local_unnamed_addr

; Function Attrs: noinline noreturn nounwind
define linkonce_odr hidden void @__clang_call_terminate(ptr noundef %0) local_unnamed_addr #8 comdat {
  %2 = tail call ptr @__cxa_begin_catch(ptr %0) #24
  tail call void @_ZSt9terminatev() #28
  unreachable
}

declare void @_ZSt9terminatev() local_unnamed_addr

declare ptr @__cxa_allocate_exception(i64) local_unnamed_addr

declare void @__cxa_throw(ptr, ptr, ptr) local_unnamed_addr

; Function Attrs: nobuiltin allocsize(0)
declare noundef nonnull ptr @_Znwm(i64 noundef) local_unnamed_addr #4

; Function Attrs: nobuiltin nounwind
declare void @_ZdlPv(ptr noundef) local_unnamed_addr #9

declare void @_ZNKSt3__18ios_base6getlocEv(ptr sret(%"class.std::__1::locale") align 8, ptr noundef nonnull align 8 dereferenceable(136)) local_unnamed_addr #6

; Function Attrs: nounwind
declare void @_ZNSt3__16localeD1Ev(ptr noundef nonnull align 8 dereferenceable(8)) unnamed_addr #7

declare noundef ptr @_ZNKSt3__16locale9use_facetERNS0_2idE(ptr noundef nonnull align 8 dereferenceable(8), ptr noundef nonnull align 8 dereferenceable(12)) local_unnamed_addr #6

declare void @_ZNSt3__18ios_base5clearEj(ptr noundef nonnull align 8 dereferenceable(136), i32 noundef) local_unnamed_addr #6

; Function Attrs: mustprogress nofree nounwind willreturn memory(argmem: read)
declare i64 @strlen(ptr nocapture noundef) local_unnamed_addr #10

; Function Attrs: mustprogress uwtable
define linkonce_odr dso_local void @_ZNKSt3__18functionIFvPhS1_jEEclES1_S1_j(ptr noundef nonnull align 16 dereferenceable(48) %this, ptr noundef %__arg, ptr noundef %__arg1, i32 noundef %__arg3) local_unnamed_addr #3 comdat align 2 {
entry:
  %__arg.addr = alloca ptr, align 8
  %__arg.addr2 = alloca ptr, align 8
  %__arg.addr4 = alloca i32, align 4
  store ptr %__arg, ptr %__arg.addr, align 8, !tbaa !35
  store ptr %__arg1, ptr %__arg.addr2, align 8, !tbaa !35
  store i32 %__arg3, ptr %__arg.addr4, align 4, !tbaa !31
  %__f_.i = getelementptr inbounds %"class.std::__1::__function::__value_func", ptr %this, i64 0, i32 1
  %0 = load ptr, ptr %__f_.i, align 16, !tbaa !17
  %cmp.i = icmp eq ptr %0, null
  br i1 %cmp.i, label %if.then.i, label %_ZNKSt3__110__function12__value_funcIFvPhS2_jEEclB7v170000EOS2_S5_Oj.exit

if.then.i:                                        ; preds = %entry
  tail call void @_ZNSt3__125__throw_bad_function_callB7v170000Ev() #27
  unreachable

_ZNKSt3__110__function12__value_funcIFvPhS2_jEEclB7v170000EOS2_S5_Oj.exit: ; preds = %entry
  %vtable.i = load ptr, ptr %0, align 8, !tbaa !15
  %vfn.i = getelementptr inbounds ptr, ptr %vtable.i, i64 6
  %1 = load ptr, ptr %vfn.i, align 8
  call void %1(ptr noundef nonnull align 8 dereferenceable(8) %0, ptr noundef nonnull align 8 dereferenceable(8) %__arg.addr, ptr noundef nonnull align 8 dereferenceable(8) %__arg.addr2, ptr noundef nonnull align 4 dereferenceable(4) %__arg.addr4)
  ret void
}

; Function Attrs: mustprogress noinline norecurse optnone uwtable
define internal fastcc void @_ZL18callThroughOptnoneIRNSt3__18functionIFvPhS2_jEEEJS2_RS2_RjEEvOT_DpOT0_(ptr noundef nonnull align 16 dereferenceable(48) %f, ptr noundef nonnull align 8 dereferenceable(8) %args, ptr noundef nonnull align 8 dereferenceable(8) %args1, ptr noundef nonnull align 4 dereferenceable(4) %args3) unnamed_addr #11 {
entry:
  %f.addr = alloca ptr, align 8
  %args.addr = alloca ptr, align 8
  %args.addr2 = alloca ptr, align 8
  %args.addr4 = alloca ptr, align 8
  store ptr %f, ptr %f.addr, align 8, !tbaa !35
  store ptr %args, ptr %args.addr, align 8, !tbaa !35
  store ptr %args1, ptr %args.addr2, align 8, !tbaa !35
  store ptr %args3, ptr %args.addr4, align 8, !tbaa !35
  %0 = load ptr, ptr %f.addr, align 8, !tbaa !35
  %1 = load ptr, ptr %args.addr, align 8, !tbaa !35
  %2 = load ptr, ptr %1, align 8, !tbaa !35
  %3 = load ptr, ptr %args.addr2, align 8, !tbaa !35
  %4 = load ptr, ptr %3, align 8, !tbaa !35
  %5 = load ptr, ptr %args.addr4, align 8, !tbaa !35
  %6 = load i32, ptr %5, align 4, !tbaa !31
  call void @_ZNKSt3__18functionIFvPhS1_jEEclES1_S1_j(ptr noundef nonnull align 16 dereferenceable(48) %0, ptr noundef %2, ptr noundef %4, i32 noundef %6)
  ret void
}

; Function Attrs: inlinehint noreturn uwtable
define linkonce_odr hidden void @_ZNSt3__125__throw_bad_function_callB7v170000Ev() local_unnamed_addr #12 comdat {
entry:
  %exception = tail call ptr @__cxa_allocate_exception(i64 8) #24
  store ptr getelementptr inbounds ({ [5 x ptr] }, ptr @_ZTVNSt3__117bad_function_callE, i64 0, inrange i32 0, i64 2), ptr %exception, align 8, !tbaa !15
  tail call void @__cxa_throw(ptr nonnull %exception, ptr nonnull @_ZTINSt3__117bad_function_callE, ptr nonnull @_ZNSt9exceptionD2Ev) #27
  unreachable
}

; Function Attrs: mustprogress nocallback nofree nounwind willreturn memory(argmem: write)
declare void @llvm.memset.p0.i64(ptr nocapture writeonly, i8, i64, i1 immarg) #13

; Function Attrs: nounwind
declare void @_ZNSt9exceptionD2Ev(ptr noundef nonnull align 8 dereferenceable(8)) unnamed_addr #7

; Function Attrs: nounwind uwtable
define linkonce_odr dso_local void @_ZNSt3__117bad_function_callD0Ev(ptr noundef nonnull align 8 dereferenceable(8) %this) unnamed_addr #14 comdat align 2 {
entry:
  tail call void @_ZNSt9exceptionD2Ev(ptr noundef nonnull align 8 dereferenceable(8) %this) #24
  tail call void @_ZdlPv(ptr noundef nonnull %this) #26
  ret void
}

; Function Attrs: nounwind
declare noundef ptr @_ZNKSt9exception4whatEv(ptr noundef nonnull align 8 dereferenceable(8)) unnamed_addr #7

declare noundef nonnull align 8 dereferenceable(8) ptr @_ZNSt3__113basic_ostreamIcNS_11char_traitsIcEEElsEi(ptr noundef nonnull align 8 dereferenceable(8), i32 noundef) local_unnamed_addr #6

; Function Attrs: noreturn nounwind
declare void @exit(i32 noundef) local_unnamed_addr #15

; Function Attrs: nobuiltin nounwind
declare void @_ZdaPv(ptr noundef) local_unnamed_addr #9

; Function Attrs: inlinehint nounwind uwtable
define internal void @"_ZNSt3__110__function6__funcIZ4mainE3$_0NS_9allocatorIS2_EEFvPhS5_jEED0Ev"(ptr noundef nonnull align 8 dereferenceable(9) %this) unnamed_addr #16 align 2 {
entry:
  tail call void @_ZdlPv(ptr noundef nonnull %this) #26
  ret void
}

; Function Attrs: uwtable
define internal noundef ptr @"_ZNKSt3__110__function6__funcIZ4mainE3$_0NS_9allocatorIS2_EEFvPhS5_jEE7__cloneEv"(ptr nocapture nonnull readnone align 8 %this) unnamed_addr #5 align 2 personality ptr @__gxx_personality_v0 {
"_ZNSt3__110unique_ptrINS_10__function6__funcIZ4mainE3$_0NS_9allocatorIS3_EEFvPhS6_jEEENS_22__allocator_destructorINS4_IS8_EEEEED2B7v170000Ev.exit":
  %call.i5.i.i = tail call noalias noundef nonnull dereferenceable(16) ptr @_Znwm(i64 noundef 16) #25
  store ptr getelementptr inbounds ({ [11 x ptr] }, ptr @"_ZTVNSt3__110__function6__funcIZ4mainE3$_0NS_9allocatorIS2_EEFvPhS5_jEEE", i64 0, inrange i32 0, i64 2), ptr %call.i5.i.i, align 8, !tbaa !15
  ret ptr %call.i5.i.i
}

; Function Attrs: mustprogress nofree norecurse nosync nounwind willreturn memory(argmem: write) uwtable
define internal void @"_ZNKSt3__110__function6__funcIZ4mainE3$_0NS_9allocatorIS2_EEFvPhS5_jEE7__cloneEPNS0_6__baseIS6_EE"(ptr nocapture nonnull readnone align 8 %this, ptr nocapture noundef writeonly %__p) unnamed_addr #17 align 2 personality ptr @__gxx_personality_v0 {
entry:
  store ptr getelementptr inbounds ({ [11 x ptr] }, ptr @"_ZTVNSt3__110__function6__funcIZ4mainE3$_0NS_9allocatorIS2_EEFvPhS5_jEEE", i64 0, inrange i32 0, i64 2), ptr %__p, align 8, !tbaa !15
  ret void
}

; Function Attrs: mustprogress nofree norecurse nosync nounwind willreturn memory(none) uwtable
define internal void @"_ZNSt3__110__function6__funcIZ4mainE3$_0NS_9allocatorIS2_EEFvPhS5_jEE7destroyEv"(ptr nocapture nonnull align 8 %this) unnamed_addr #18 align 2 {
entry:
  ret void
}

; Function Attrs: mustprogress nounwind uwtable
define internal void @"_ZNSt3__110__function6__funcIZ4mainE3$_0NS_9allocatorIS2_EEFvPhS5_jEE18destroy_deallocateEv"(ptr noundef nonnull align 8 dereferenceable(9) %this) unnamed_addr #19 align 2 personality ptr @__gxx_personality_v0 {
entry:
  tail call void @_ZdlPv(ptr noundef nonnull %this) #26
  ret void
}

; Function Attrs: mustprogress nofree norecurse nosync nounwind memory(readwrite, inaccessiblemem: none) uwtable
define internal void @"_ZNSt3__110__function6__funcIZ4mainE3$_0NS_9allocatorIS2_EEFvPhS5_jEEclEOS5_S8_Oj"(ptr nocapture nonnull readnone align 8 %this, ptr nocapture noundef nonnull readonly align 8 dereferenceable(8) %__arg, ptr nocapture noundef nonnull readonly align 8 dereferenceable(8) %__arg1, ptr nocapture noundef nonnull readonly align 4 dereferenceable(4) %__arg3) unnamed_addr #20 align 2 {
entry:
  %__arg.val = load ptr, ptr %__arg, align 8, !tbaa !35
  %__arg1.val = load ptr, ptr %__arg1, align 8, !tbaa !35
  %__arg3.val = load i32, ptr %__arg3, align 4, !tbaa !31
  %cmp1.not.i.i.i.i = icmp eq i32 %__arg3.val, 0
  br i1 %cmp1.not.i.i.i.i, label %"_ZNSt3__110__function12__alloc_funcIZ4mainE3$_0NS_9allocatorIS2_EEFvPhS5_jEEclB7v170000EOS5_S8_Oj.exit", label %for.body.preheader.i.i.i.i

for.body.preheader.i.i.i.i:                       ; preds = %entry
  %wide.trip.count.i.i.i.i = zext i32 %__arg3.val to i64
  %xtraiter = and i64 %wide.trip.count.i.i.i.i, 3
  %0 = icmp ult i32 %__arg3.val, 4
  br i1 %0, label %"_ZNSt3__110__function12__alloc_funcIZ4mainE3$_0NS_9allocatorIS2_EEFvPhS5_jEEclB7v170000EOS5_S8_Oj.exit.loopexit.unr-lcssa", label %for.body.preheader.i.i.i.i.new

for.body.preheader.i.i.i.i.new:                   ; preds = %for.body.preheader.i.i.i.i
  %unroll_iter = and i64 %wide.trip.count.i.i.i.i, 4294967292
  br label %for.body.i.i.i.i

for.body.i.i.i.i:                                 ; preds = %for.body.i.i.i.i, %for.body.preheader.i.i.i.i.new
  %indvars.iv.i.i.i.i = phi i64 [ 0, %for.body.preheader.i.i.i.i.new ], [ %indvars.iv.next.i.i.i.i.3, %for.body.i.i.i.i ]
  %niter = phi i64 [ 0, %for.body.preheader.i.i.i.i.new ], [ %niter.next.3, %for.body.i.i.i.i ]
  %arrayidx.i.i.i.i = getelementptr inbounds i8, ptr %__arg1.val, i64 %indvars.iv.i.i.i.i
  %1 = load i8, ptr %arrayidx.i.i.i.i, align 1, !tbaa !14
  %add.i.i.i.i = add i8 %1, 10
  %arrayidx4.i.i.i.i = getelementptr inbounds i8, ptr %__arg.val, i64 %indvars.iv.i.i.i.i
  store i8 %add.i.i.i.i, ptr %arrayidx4.i.i.i.i, align 1, !tbaa !14
  %indvars.iv.next.i.i.i.i = or i64 %indvars.iv.i.i.i.i, 1
  %arrayidx.i.i.i.i.1 = getelementptr inbounds i8, ptr %__arg1.val, i64 %indvars.iv.next.i.i.i.i
  %2 = load i8, ptr %arrayidx.i.i.i.i.1, align 1, !tbaa !14
  %add.i.i.i.i.1 = add i8 %2, 10
  %arrayidx4.i.i.i.i.1 = getelementptr inbounds i8, ptr %__arg.val, i64 %indvars.iv.next.i.i.i.i
  store i8 %add.i.i.i.i.1, ptr %arrayidx4.i.i.i.i.1, align 1, !tbaa !14
  %indvars.iv.next.i.i.i.i.1 = or i64 %indvars.iv.i.i.i.i, 2
  %arrayidx.i.i.i.i.2 = getelementptr inbounds i8, ptr %__arg1.val, i64 %indvars.iv.next.i.i.i.i.1
  %3 = load i8, ptr %arrayidx.i.i.i.i.2, align 1, !tbaa !14
  %add.i.i.i.i.2 = add i8 %3, 10
  %arrayidx4.i.i.i.i.2 = getelementptr inbounds i8, ptr %__arg.val, i64 %indvars.iv.next.i.i.i.i.1
  store i8 %add.i.i.i.i.2, ptr %arrayidx4.i.i.i.i.2, align 1, !tbaa !14
  %indvars.iv.next.i.i.i.i.2 = or i64 %indvars.iv.i.i.i.i, 3
  %arrayidx.i.i.i.i.3 = getelementptr inbounds i8, ptr %__arg1.val, i64 %indvars.iv.next.i.i.i.i.2
  %4 = load i8, ptr %arrayidx.i.i.i.i.3, align 1, !tbaa !14
  %add.i.i.i.i.3 = add i8 %4, 10
  %arrayidx4.i.i.i.i.3 = getelementptr inbounds i8, ptr %__arg.val, i64 %indvars.iv.next.i.i.i.i.2
  store i8 %add.i.i.i.i.3, ptr %arrayidx4.i.i.i.i.3, align 1, !tbaa !14
  %indvars.iv.next.i.i.i.i.3 = add nuw nsw i64 %indvars.iv.i.i.i.i, 4
  %niter.next.3 = add i64 %niter, 4
  %niter.ncmp.3 = icmp eq i64 %niter.next.3, %unroll_iter
  br i1 %niter.ncmp.3, label %"_ZNSt3__110__function12__alloc_funcIZ4mainE3$_0NS_9allocatorIS2_EEFvPhS5_jEEclB7v170000EOS5_S8_Oj.exit.loopexit.unr-lcssa", label %for.body.i.i.i.i, !llvm.loop !59

"_ZNSt3__110__function12__alloc_funcIZ4mainE3$_0NS_9allocatorIS2_EEFvPhS5_jEEclB7v170000EOS5_S8_Oj.exit.loopexit.unr-lcssa": ; preds = %for.body.i.i.i.i, %for.body.preheader.i.i.i.i
  %indvars.iv.i.i.i.i.unr = phi i64 [ 0, %for.body.preheader.i.i.i.i ], [ %indvars.iv.next.i.i.i.i.3, %for.body.i.i.i.i ]
  %lcmp.mod.not = icmp eq i64 %xtraiter, 0
  br i1 %lcmp.mod.not, label %"_ZNSt3__110__function12__alloc_funcIZ4mainE3$_0NS_9allocatorIS2_EEFvPhS5_jEEclB7v170000EOS5_S8_Oj.exit", label %for.body.i.i.i.i.epil

for.body.i.i.i.i.epil:                            ; preds = %"_ZNSt3__110__function12__alloc_funcIZ4mainE3$_0NS_9allocatorIS2_EEFvPhS5_jEEclB7v170000EOS5_S8_Oj.exit.loopexit.unr-lcssa", %for.body.i.i.i.i.epil
  %indvars.iv.i.i.i.i.epil = phi i64 [ %indvars.iv.next.i.i.i.i.epil, %for.body.i.i.i.i.epil ], [ %indvars.iv.i.i.i.i.unr, %"_ZNSt3__110__function12__alloc_funcIZ4mainE3$_0NS_9allocatorIS2_EEFvPhS5_jEEclB7v170000EOS5_S8_Oj.exit.loopexit.unr-lcssa" ]
  %epil.iter = phi i64 [ %epil.iter.next, %for.body.i.i.i.i.epil ], [ 0, %"_ZNSt3__110__function12__alloc_funcIZ4mainE3$_0NS_9allocatorIS2_EEFvPhS5_jEEclB7v170000EOS5_S8_Oj.exit.loopexit.unr-lcssa" ]
  %arrayidx.i.i.i.i.epil = getelementptr inbounds i8, ptr %__arg1.val, i64 %indvars.iv.i.i.i.i.epil
  %5 = load i8, ptr %arrayidx.i.i.i.i.epil, align 1, !tbaa !14
  %add.i.i.i.i.epil = add i8 %5, 10
  %arrayidx4.i.i.i.i.epil = getelementptr inbounds i8, ptr %__arg.val, i64 %indvars.iv.i.i.i.i.epil
  store i8 %add.i.i.i.i.epil, ptr %arrayidx4.i.i.i.i.epil, align 1, !tbaa !14
  %indvars.iv.next.i.i.i.i.epil = add nuw nsw i64 %indvars.iv.i.i.i.i.epil, 1
  %epil.iter.next = add i64 %epil.iter, 1
  %epil.iter.cmp.not = icmp eq i64 %epil.iter.next, %xtraiter
  br i1 %epil.iter.cmp.not, label %"_ZNSt3__110__function12__alloc_funcIZ4mainE3$_0NS_9allocatorIS2_EEFvPhS5_jEEclB7v170000EOS5_S8_Oj.exit", label %for.body.i.i.i.i.epil, !llvm.loop !61

"_ZNSt3__110__function12__alloc_funcIZ4mainE3$_0NS_9allocatorIS2_EEFvPhS5_jEEclB7v170000EOS5_S8_Oj.exit": ; preds = %"_ZNSt3__110__function12__alloc_funcIZ4mainE3$_0NS_9allocatorIS2_EEFvPhS5_jEEclB7v170000EOS5_S8_Oj.exit.loopexit.unr-lcssa", %for.body.i.i.i.i.epil, %entry
  ret void
}

; Function Attrs: mustprogress nofree norecurse nosync nounwind willreturn memory(argmem: read) uwtable
define internal noundef ptr @"_ZNKSt3__110__function6__funcIZ4mainE3$_0NS_9allocatorIS2_EEFvPhS5_jEE6targetERKSt9type_info"(ptr noundef nonnull readnone align 8 dereferenceable(9) %this, ptr nocapture noundef nonnull readonly align 8 dereferenceable(16) %__ti) unnamed_addr #21 align 2 {
entry:
  %__type_name.i = getelementptr inbounds %"class.std::type_info", ptr %__ti, i64 0, i32 1
  %0 = load ptr, ptr %__type_name.i, align 8, !tbaa !63
  %cmp.i.i = icmp eq ptr %0, @"_ZTSZ4mainE3$_0"
  %__f_ = getelementptr inbounds %"class.std::__1::__function::__func", ptr %this, i64 0, i32 1
  %spec.select = select i1 %cmp.i.i, ptr %__f_, ptr null
  ret ptr %spec.select
}

; Function Attrs: mustprogress nofree norecurse nosync nounwind willreturn memory(none) uwtable
define internal noundef nonnull align 8 dereferenceable(16) ptr @"_ZNKSt3__110__function6__funcIZ4mainE3$_0NS_9allocatorIS2_EEFvPhS5_jEE11target_typeEv"(ptr nocapture nonnull readnone align 8 %this) unnamed_addr #18 align 2 {
entry:
  ret ptr @"_ZTIZ4mainE3$_0"
}

; Function Attrs: inlinehint nounwind uwtable
define internal void @"_ZNSt3__110__function6__funcIZ4mainE3$_1NS_9allocatorIS2_EEFvPhS5_jEED0Ev"(ptr noundef nonnull align 8 dereferenceable(9) %this) unnamed_addr #16 align 2 {
entry:
  tail call void @_ZdlPv(ptr noundef nonnull %this) #26
  ret void
}

; Function Attrs: uwtable
define internal noundef ptr @"_ZNKSt3__110__function6__funcIZ4mainE3$_1NS_9allocatorIS2_EEFvPhS5_jEE7__cloneEv"(ptr nocapture nonnull readnone align 8 %this) unnamed_addr #5 align 2 personality ptr @__gxx_personality_v0 {
"_ZNSt3__110unique_ptrINS_10__function6__funcIZ4mainE3$_1NS_9allocatorIS3_EEFvPhS6_jEEENS_22__allocator_destructorINS4_IS8_EEEEED2B7v170000Ev.exit":
  %call.i5.i.i = tail call noalias noundef nonnull dereferenceable(16) ptr @_Znwm(i64 noundef 16) #25
  store ptr getelementptr inbounds ({ [11 x ptr] }, ptr @"_ZTVNSt3__110__function6__funcIZ4mainE3$_1NS_9allocatorIS2_EEFvPhS5_jEEE", i64 0, inrange i32 0, i64 2), ptr %call.i5.i.i, align 8, !tbaa !15
  ret ptr %call.i5.i.i
}

; Function Attrs: mustprogress nofree norecurse nosync nounwind willreturn memory(argmem: write) uwtable
define internal void @"_ZNKSt3__110__function6__funcIZ4mainE3$_1NS_9allocatorIS2_EEFvPhS5_jEE7__cloneEPNS0_6__baseIS6_EE"(ptr nocapture nonnull readnone align 8 %this, ptr nocapture noundef writeonly %__p) unnamed_addr #17 align 2 personality ptr @__gxx_personality_v0 {
entry:
  store ptr getelementptr inbounds ({ [11 x ptr] }, ptr @"_ZTVNSt3__110__function6__funcIZ4mainE3$_1NS_9allocatorIS2_EEFvPhS5_jEEE", i64 0, inrange i32 0, i64 2), ptr %__p, align 8, !tbaa !15
  ret void
}

; Function Attrs: mustprogress nofree norecurse nosync nounwind willreturn memory(none) uwtable
define internal void @"_ZNSt3__110__function6__funcIZ4mainE3$_1NS_9allocatorIS2_EEFvPhS5_jEE7destroyEv"(ptr nocapture nonnull align 8 %this) unnamed_addr #18 align 2 {
entry:
  ret void
}

; Function Attrs: mustprogress nounwind uwtable
define internal void @"_ZNSt3__110__function6__funcIZ4mainE3$_1NS_9allocatorIS2_EEFvPhS5_jEE18destroy_deallocateEv"(ptr noundef nonnull align 8 dereferenceable(9) %this) unnamed_addr #19 align 2 personality ptr @__gxx_personality_v0 {
entry:
  tail call void @_ZdlPv(ptr noundef nonnull %this) #26
  ret void
}

; Function Attrs: mustprogress nofree norecurse nosync nounwind memory(readwrite, inaccessiblemem: none) uwtable
define internal void @"_ZNSt3__110__function6__funcIZ4mainE3$_1NS_9allocatorIS2_EEFvPhS5_jEEclEOS5_S8_Oj"(ptr nocapture nonnull readnone align 8 %this, ptr nocapture noundef nonnull readonly align 8 dereferenceable(8) %__arg, ptr nocapture noundef nonnull readonly align 8 dereferenceable(8) %__arg1, ptr nocapture noundef nonnull readonly align 4 dereferenceable(4) %__arg3) unnamed_addr #20 align 2 {
entry:
  %__arg.val = load ptr, ptr %__arg, align 8, !tbaa !35
  %__arg1.val = load ptr, ptr %__arg1, align 8, !tbaa !35
  %__arg3.val = load i32, ptr %__arg3, align 4, !tbaa !31
  %cmp1.not.i.i.i.i = icmp eq i32 %__arg3.val, 0
  br i1 %cmp1.not.i.i.i.i, label %"_ZNSt3__110__function12__alloc_funcIZ4mainE3$_1NS_9allocatorIS2_EEFvPhS5_jEEclB7v170000EOS5_S8_Oj.exit", label %iter.check

iter.check:                                       ; preds = %entry
  %__arg1.val7 = ptrtoint ptr %__arg1.val to i64
  %__arg.val6 = ptrtoint ptr %__arg.val to i64
  %wide.trip.count.i.i.i.i = zext i32 %__arg3.val to i64
  %min.iters.check = icmp ult i32 %__arg3.val, 8
  %0 = sub i64 %__arg.val6, %__arg1.val7
  %diff.check = icmp ult i64 %0, 32
  %or.cond = select i1 %min.iters.check, i1 true, i1 %diff.check
  br i1 %or.cond, label %for.body.i.i.i.i.preheader, label %vector.main.loop.iter.check

vector.main.loop.iter.check:                      ; preds = %iter.check
  %min.iters.check8 = icmp ult i32 %__arg3.val, 32
  br i1 %min.iters.check8, label %vec.epilog.ph, label %vector.ph

vector.ph:                                        ; preds = %vector.main.loop.iter.check
  %n.vec = and i64 %wide.trip.count.i.i.i.i, 4294967264
  br label %vector.body

vector.body:                                      ; preds = %vector.body, %vector.ph
  %index = phi i64 [ 0, %vector.ph ], [ %index.next, %vector.body ]
  %1 = getelementptr inbounds i8, ptr %__arg1.val, i64 %index
  %wide.load = load <16 x i8>, ptr %1, align 1, !tbaa !14
  %2 = getelementptr inbounds i8, ptr %1, i64 16
  %wide.load9 = load <16 x i8>, ptr %2, align 1, !tbaa !14
  %3 = add <16 x i8> %wide.load, <i8 10, i8 10, i8 10, i8 10, i8 10, i8 10, i8 10, i8 10, i8 10, i8 10, i8 10, i8 10, i8 10, i8 10, i8 10, i8 10>
  %4 = add <16 x i8> %wide.load9, <i8 10, i8 10, i8 10, i8 10, i8 10, i8 10, i8 10, i8 10, i8 10, i8 10, i8 10, i8 10, i8 10, i8 10, i8 10, i8 10>
  %5 = getelementptr inbounds i8, ptr %__arg.val, i64 %index
  store <16 x i8> %3, ptr %5, align 1, !tbaa !14
  %6 = getelementptr inbounds i8, ptr %5, i64 16
  store <16 x i8> %4, ptr %6, align 1, !tbaa !14
  %index.next = add nuw i64 %index, 32
  %7 = icmp eq i64 %index.next, %n.vec
  br i1 %7, label %middle.block, label %vector.body, !llvm.loop !65

middle.block:                                     ; preds = %vector.body
  %cmp.n = icmp eq i64 %n.vec, %wide.trip.count.i.i.i.i
  br i1 %cmp.n, label %"_ZNSt3__110__function12__alloc_funcIZ4mainE3$_1NS_9allocatorIS2_EEFvPhS5_jEEclB7v170000EOS5_S8_Oj.exit", label %vec.epilog.iter.check

vec.epilog.iter.check:                            ; preds = %middle.block
  %n.vec.remaining = and i64 %wide.trip.count.i.i.i.i, 24
  %min.epilog.iters.check = icmp eq i64 %n.vec.remaining, 0
  br i1 %min.epilog.iters.check, label %for.body.i.i.i.i.preheader, label %vec.epilog.ph

vec.epilog.ph:                                    ; preds = %vector.main.loop.iter.check, %vec.epilog.iter.check
  %vec.epilog.resume.val = phi i64 [ %n.vec, %vec.epilog.iter.check ], [ 0, %vector.main.loop.iter.check ]
  %n.vec11 = and i64 %wide.trip.count.i.i.i.i, 4294967288
  br label %vec.epilog.vector.body

vec.epilog.vector.body:                           ; preds = %vec.epilog.vector.body, %vec.epilog.ph
  %index13 = phi i64 [ %vec.epilog.resume.val, %vec.epilog.ph ], [ %index.next15, %vec.epilog.vector.body ]
  %8 = getelementptr inbounds i8, ptr %__arg1.val, i64 %index13
  %wide.load14 = load <8 x i8>, ptr %8, align 1, !tbaa !14
  %9 = add <8 x i8> %wide.load14, <i8 10, i8 10, i8 10, i8 10, i8 10, i8 10, i8 10, i8 10>
  %10 = getelementptr inbounds i8, ptr %__arg.val, i64 %index13
  store <8 x i8> %9, ptr %10, align 1, !tbaa !14
  %index.next15 = add nuw i64 %index13, 8
  %11 = icmp eq i64 %index.next15, %n.vec11
  br i1 %11, label %vec.epilog.middle.block, label %vec.epilog.vector.body, !llvm.loop !68

vec.epilog.middle.block:                          ; preds = %vec.epilog.vector.body
  %cmp.n12 = icmp eq i64 %n.vec11, %wide.trip.count.i.i.i.i
  br i1 %cmp.n12, label %"_ZNSt3__110__function12__alloc_funcIZ4mainE3$_1NS_9allocatorIS2_EEFvPhS5_jEEclB7v170000EOS5_S8_Oj.exit", label %for.body.i.i.i.i.preheader

for.body.i.i.i.i.preheader:                       ; preds = %iter.check, %vec.epilog.iter.check, %vec.epilog.middle.block
  %indvars.iv.i.i.i.i.ph = phi i64 [ 0, %iter.check ], [ %n.vec, %vec.epilog.iter.check ], [ %n.vec11, %vec.epilog.middle.block ]
  %12 = xor i64 %indvars.iv.i.i.i.i.ph, -1
  %13 = add nsw i64 %12, %wide.trip.count.i.i.i.i
  %xtraiter = and i64 %wide.trip.count.i.i.i.i, 3
  %lcmp.mod.not = icmp eq i64 %xtraiter, 0
  br i1 %lcmp.mod.not, label %for.body.i.i.i.i.prol.loopexit, label %for.body.i.i.i.i.prol

for.body.i.i.i.i.prol:                            ; preds = %for.body.i.i.i.i.preheader, %for.body.i.i.i.i.prol
  %indvars.iv.i.i.i.i.prol = phi i64 [ %indvars.iv.next.i.i.i.i.prol, %for.body.i.i.i.i.prol ], [ %indvars.iv.i.i.i.i.ph, %for.body.i.i.i.i.preheader ]
  %prol.iter = phi i64 [ %prol.iter.next, %for.body.i.i.i.i.prol ], [ 0, %for.body.i.i.i.i.preheader ]
  %arrayidx.i.i.i.i.prol = getelementptr inbounds i8, ptr %__arg1.val, i64 %indvars.iv.i.i.i.i.prol
  %14 = load i8, ptr %arrayidx.i.i.i.i.prol, align 1, !tbaa !14
  %add.i.i.i.i.prol = add i8 %14, 10
  %arrayidx4.i.i.i.i.prol = getelementptr inbounds i8, ptr %__arg.val, i64 %indvars.iv.i.i.i.i.prol
  store i8 %add.i.i.i.i.prol, ptr %arrayidx4.i.i.i.i.prol, align 1, !tbaa !14
  %indvars.iv.next.i.i.i.i.prol = add nuw nsw i64 %indvars.iv.i.i.i.i.prol, 1
  %prol.iter.next = add i64 %prol.iter, 1
  %prol.iter.cmp.not = icmp eq i64 %prol.iter.next, %xtraiter
  br i1 %prol.iter.cmp.not, label %for.body.i.i.i.i.prol.loopexit, label %for.body.i.i.i.i.prol, !llvm.loop !69

for.body.i.i.i.i.prol.loopexit:                   ; preds = %for.body.i.i.i.i.prol, %for.body.i.i.i.i.preheader
  %indvars.iv.i.i.i.i.unr = phi i64 [ %indvars.iv.i.i.i.i.ph, %for.body.i.i.i.i.preheader ], [ %indvars.iv.next.i.i.i.i.prol, %for.body.i.i.i.i.prol ]
  %15 = icmp ult i64 %13, 3
  br i1 %15, label %"_ZNSt3__110__function12__alloc_funcIZ4mainE3$_1NS_9allocatorIS2_EEFvPhS5_jEEclB7v170000EOS5_S8_Oj.exit", label %for.body.i.i.i.i

for.body.i.i.i.i:                                 ; preds = %for.body.i.i.i.i.prol.loopexit, %for.body.i.i.i.i
  %indvars.iv.i.i.i.i = phi i64 [ %indvars.iv.next.i.i.i.i.3, %for.body.i.i.i.i ], [ %indvars.iv.i.i.i.i.unr, %for.body.i.i.i.i.prol.loopexit ]
  %arrayidx.i.i.i.i = getelementptr inbounds i8, ptr %__arg1.val, i64 %indvars.iv.i.i.i.i
  %16 = load i8, ptr %arrayidx.i.i.i.i, align 1, !tbaa !14
  %add.i.i.i.i = add i8 %16, 10
  %arrayidx4.i.i.i.i = getelementptr inbounds i8, ptr %__arg.val, i64 %indvars.iv.i.i.i.i
  store i8 %add.i.i.i.i, ptr %arrayidx4.i.i.i.i, align 1, !tbaa !14
  %indvars.iv.next.i.i.i.i = add nuw nsw i64 %indvars.iv.i.i.i.i, 1
  %arrayidx.i.i.i.i.1 = getelementptr inbounds i8, ptr %__arg1.val, i64 %indvars.iv.next.i.i.i.i
  %17 = load i8, ptr %arrayidx.i.i.i.i.1, align 1, !tbaa !14
  %add.i.i.i.i.1 = add i8 %17, 10
  %arrayidx4.i.i.i.i.1 = getelementptr inbounds i8, ptr %__arg.val, i64 %indvars.iv.next.i.i.i.i
  store i8 %add.i.i.i.i.1, ptr %arrayidx4.i.i.i.i.1, align 1, !tbaa !14
  %indvars.iv.next.i.i.i.i.1 = add nuw nsw i64 %indvars.iv.i.i.i.i, 2
  %arrayidx.i.i.i.i.2 = getelementptr inbounds i8, ptr %__arg1.val, i64 %indvars.iv.next.i.i.i.i.1
  %18 = load i8, ptr %arrayidx.i.i.i.i.2, align 1, !tbaa !14
  %add.i.i.i.i.2 = add i8 %18, 10
  %arrayidx4.i.i.i.i.2 = getelementptr inbounds i8, ptr %__arg.val, i64 %indvars.iv.next.i.i.i.i.1
  store i8 %add.i.i.i.i.2, ptr %arrayidx4.i.i.i.i.2, align 1, !tbaa !14
  %indvars.iv.next.i.i.i.i.2 = add nuw nsw i64 %indvars.iv.i.i.i.i, 3
  %arrayidx.i.i.i.i.3 = getelementptr inbounds i8, ptr %__arg1.val, i64 %indvars.iv.next.i.i.i.i.2
  %19 = load i8, ptr %arrayidx.i.i.i.i.3, align 1, !tbaa !14
  %add.i.i.i.i.3 = add i8 %19, 10
  %arrayidx4.i.i.i.i.3 = getelementptr inbounds i8, ptr %__arg.val, i64 %indvars.iv.next.i.i.i.i.2
  store i8 %add.i.i.i.i.3, ptr %arrayidx4.i.i.i.i.3, align 1, !tbaa !14
  %indvars.iv.next.i.i.i.i.3 = add nuw nsw i64 %indvars.iv.i.i.i.i, 4
  %exitcond.not.i.i.i.i.3 = icmp eq i64 %indvars.iv.next.i.i.i.i.3, %wide.trip.count.i.i.i.i
  br i1 %exitcond.not.i.i.i.i.3, label %"_ZNSt3__110__function12__alloc_funcIZ4mainE3$_1NS_9allocatorIS2_EEFvPhS5_jEEclB7v170000EOS5_S8_Oj.exit", label %for.body.i.i.i.i, !llvm.loop !70

"_ZNSt3__110__function12__alloc_funcIZ4mainE3$_1NS_9allocatorIS2_EEFvPhS5_jEEclB7v170000EOS5_S8_Oj.exit": ; preds = %for.body.i.i.i.i.prol.loopexit, %for.body.i.i.i.i, %middle.block, %vec.epilog.middle.block, %entry
  ret void
}

; Function Attrs: mustprogress nofree norecurse nosync nounwind willreturn memory(argmem: read) uwtable
define internal noundef ptr @"_ZNKSt3__110__function6__funcIZ4mainE3$_1NS_9allocatorIS2_EEFvPhS5_jEE6targetERKSt9type_info"(ptr noundef nonnull readnone align 8 dereferenceable(9) %this, ptr nocapture noundef nonnull readonly align 8 dereferenceable(16) %__ti) unnamed_addr #21 align 2 {
entry:
  %__type_name.i = getelementptr inbounds %"class.std::type_info", ptr %__ti, i64 0, i32 1
  %0 = load ptr, ptr %__type_name.i, align 8, !tbaa !63
  %cmp.i.i = icmp eq ptr %0, @"_ZTSZ4mainE3$_1"
  %__f_ = getelementptr inbounds %"class.std::__1::__function::__func.107", ptr %this, i64 0, i32 1
  %spec.select = select i1 %cmp.i.i, ptr %__f_, ptr null
  ret ptr %spec.select
}

; Function Attrs: mustprogress nofree norecurse nosync nounwind willreturn memory(none) uwtable
define internal noundef nonnull align 8 dereferenceable(16) ptr @"_ZNKSt3__110__function6__funcIZ4mainE3$_1NS_9allocatorIS2_EEFvPhS5_jEE11target_typeEv"(ptr nocapture nonnull readnone align 8 %this) unnamed_addr #18 align 2 {
entry:
  ret ptr @"_ZTIZ4mainE3$_1"
}

; Function Attrs: mustprogress uwtable
define linkonce_odr dso_local void @_ZNKSt3__18functionIFvPjS1_jEEclES1_S1_j(ptr noundef nonnull align 16 dereferenceable(48) %this, ptr noundef %__arg, ptr noundef %__arg1, i32 noundef %__arg3) local_unnamed_addr #3 comdat align 2 {
entry:
  %__arg.addr = alloca ptr, align 8
  %__arg.addr2 = alloca ptr, align 8
  %__arg.addr4 = alloca i32, align 4
  store ptr %__arg, ptr %__arg.addr, align 8, !tbaa !35
  store ptr %__arg1, ptr %__arg.addr2, align 8, !tbaa !35
  store i32 %__arg3, ptr %__arg.addr4, align 4, !tbaa !31
  %__f_.i = getelementptr inbounds %"class.std::__1::__function::__value_func.5", ptr %this, i64 0, i32 1
  %0 = load ptr, ptr %__f_.i, align 16, !tbaa !21
  %cmp.i = icmp eq ptr %0, null
  br i1 %cmp.i, label %if.then.i, label %_ZNKSt3__110__function12__value_funcIFvPjS2_jEEclB7v170000EOS2_S5_Oj.exit

if.then.i:                                        ; preds = %entry
  tail call void @_ZNSt3__125__throw_bad_function_callB7v170000Ev() #27
  unreachable

_ZNKSt3__110__function12__value_funcIFvPjS2_jEEclB7v170000EOS2_S5_Oj.exit: ; preds = %entry
  %vtable.i = load ptr, ptr %0, align 8, !tbaa !15
  %vfn.i = getelementptr inbounds ptr, ptr %vtable.i, i64 6
  %1 = load ptr, ptr %vfn.i, align 8
  call void %1(ptr noundef nonnull align 8 dereferenceable(8) %0, ptr noundef nonnull align 8 dereferenceable(8) %__arg.addr, ptr noundef nonnull align 8 dereferenceable(8) %__arg.addr2, ptr noundef nonnull align 4 dereferenceable(4) %__arg.addr4)
  ret void
}

; Function Attrs: mustprogress noinline norecurse optnone uwtable
define internal fastcc void @_ZL18callThroughOptnoneIRNSt3__18functionIFvPjS2_jEEEJS2_RS2_RjEEvOT_DpOT0_(ptr noundef nonnull align 16 dereferenceable(48) %f, ptr noundef nonnull align 8 dereferenceable(8) %args, ptr noundef nonnull align 8 dereferenceable(8) %args1, ptr noundef nonnull align 4 dereferenceable(4) %args3) unnamed_addr #11 {
entry:
  %f.addr = alloca ptr, align 8
  %args.addr = alloca ptr, align 8
  %args.addr2 = alloca ptr, align 8
  %args.addr4 = alloca ptr, align 8
  store ptr %f, ptr %f.addr, align 8, !tbaa !35
  store ptr %args, ptr %args.addr, align 8, !tbaa !35
  store ptr %args1, ptr %args.addr2, align 8, !tbaa !35
  store ptr %args3, ptr %args.addr4, align 8, !tbaa !35
  %0 = load ptr, ptr %f.addr, align 8, !tbaa !35
  %1 = load ptr, ptr %args.addr, align 8, !tbaa !35
  %2 = load ptr, ptr %1, align 8, !tbaa !35
  %3 = load ptr, ptr %args.addr2, align 8, !tbaa !35
  %4 = load ptr, ptr %3, align 8, !tbaa !35
  %5 = load ptr, ptr %args.addr4, align 8, !tbaa !35
  %6 = load i32, ptr %5, align 4, !tbaa !31
  call void @_ZNKSt3__18functionIFvPjS1_jEEclES1_S1_j(ptr noundef nonnull align 16 dereferenceable(48) %0, ptr noundef %2, ptr noundef %4, i32 noundef %6)
  ret void
}

; Function Attrs: inlinehint nounwind uwtable
define internal void @"_ZNSt3__110__function6__funcIZ4mainE3$_0NS_9allocatorIS2_EEFvPjS5_jEED0Ev"(ptr noundef nonnull align 8 dereferenceable(9) %this) unnamed_addr #16 align 2 {
entry:
  tail call void @_ZdlPv(ptr noundef nonnull %this) #26
  ret void
}

; Function Attrs: uwtable
define internal noundef ptr @"_ZNKSt3__110__function6__funcIZ4mainE3$_0NS_9allocatorIS2_EEFvPjS5_jEE7__cloneEv"(ptr nocapture nonnull readnone align 8 %this) unnamed_addr #5 align 2 personality ptr @__gxx_personality_v0 {
"_ZNSt3__110unique_ptrINS_10__function6__funcIZ4mainE3$_0NS_9allocatorIS3_EEFvPjS6_jEEENS_22__allocator_destructorINS4_IS8_EEEEED2B7v170000Ev.exit":
  %call.i5.i.i = tail call noalias noundef nonnull dereferenceable(16) ptr @_Znwm(i64 noundef 16) #25
  store ptr getelementptr inbounds ({ [11 x ptr] }, ptr @"_ZTVNSt3__110__function6__funcIZ4mainE3$_0NS_9allocatorIS2_EEFvPjS5_jEEE", i64 0, inrange i32 0, i64 2), ptr %call.i5.i.i, align 8, !tbaa !15
  ret ptr %call.i5.i.i
}

; Function Attrs: mustprogress nofree norecurse nosync nounwind willreturn memory(argmem: write) uwtable
define internal void @"_ZNKSt3__110__function6__funcIZ4mainE3$_0NS_9allocatorIS2_EEFvPjS5_jEE7__cloneEPNS0_6__baseIS6_EE"(ptr nocapture nonnull readnone align 8 %this, ptr nocapture noundef writeonly %__p) unnamed_addr #17 align 2 personality ptr @__gxx_personality_v0 {
entry:
  store ptr getelementptr inbounds ({ [11 x ptr] }, ptr @"_ZTVNSt3__110__function6__funcIZ4mainE3$_0NS_9allocatorIS2_EEFvPjS5_jEEE", i64 0, inrange i32 0, i64 2), ptr %__p, align 8, !tbaa !15
  ret void
}

; Function Attrs: mustprogress nofree norecurse nosync nounwind willreturn memory(none) uwtable
define internal void @"_ZNSt3__110__function6__funcIZ4mainE3$_0NS_9allocatorIS2_EEFvPjS5_jEE7destroyEv"(ptr nocapture nonnull align 8 %this) unnamed_addr #18 align 2 {
entry:
  ret void
}

; Function Attrs: mustprogress nounwind uwtable
define internal void @"_ZNSt3__110__function6__funcIZ4mainE3$_0NS_9allocatorIS2_EEFvPjS5_jEE18destroy_deallocateEv"(ptr noundef nonnull align 8 dereferenceable(9) %this) unnamed_addr #19 align 2 personality ptr @__gxx_personality_v0 {
entry:
  tail call void @_ZdlPv(ptr noundef nonnull %this) #26
  ret void
}

; Function Attrs: mustprogress nofree norecurse nosync nounwind memory(readwrite, inaccessiblemem: none) uwtable
define internal void @"_ZNSt3__110__function6__funcIZ4mainE3$_0NS_9allocatorIS2_EEFvPjS5_jEEclEOS5_S8_Oj"(ptr nocapture nonnull readnone align 8 %this, ptr nocapture noundef nonnull readonly align 8 dereferenceable(8) %__arg, ptr nocapture noundef nonnull readonly align 8 dereferenceable(8) %__arg1, ptr nocapture noundef nonnull readonly align 4 dereferenceable(4) %__arg3) unnamed_addr #20 align 2 {
entry:
  %__arg.val = load ptr, ptr %__arg, align 8, !tbaa !35
  %__arg1.val = load ptr, ptr %__arg1, align 8, !tbaa !35
  %__arg3.val = load i32, ptr %__arg3, align 4, !tbaa !31
  %cmp1.not.i.i.i.i = icmp eq i32 %__arg3.val, 0
  br i1 %cmp1.not.i.i.i.i, label %"_ZNSt3__110__function12__alloc_funcIZ4mainE3$_0NS_9allocatorIS2_EEFvPjS5_jEEclB7v170000EOS5_S8_Oj.exit", label %for.body.preheader.i.i.i.i

for.body.preheader.i.i.i.i:                       ; preds = %entry
  %wide.trip.count.i.i.i.i = zext i32 %__arg3.val to i64
  %xtraiter = and i64 %wide.trip.count.i.i.i.i, 3
  %0 = icmp ult i32 %__arg3.val, 4
  br i1 %0, label %"_ZNSt3__110__function12__alloc_funcIZ4mainE3$_0NS_9allocatorIS2_EEFvPjS5_jEEclB7v170000EOS5_S8_Oj.exit.loopexit.unr-lcssa", label %for.body.preheader.i.i.i.i.new

for.body.preheader.i.i.i.i.new:                   ; preds = %for.body.preheader.i.i.i.i
  %unroll_iter = and i64 %wide.trip.count.i.i.i.i, 4294967292
  br label %for.body.i.i.i.i

for.body.i.i.i.i:                                 ; preds = %for.body.i.i.i.i, %for.body.preheader.i.i.i.i.new
  %indvars.iv.i.i.i.i = phi i64 [ 0, %for.body.preheader.i.i.i.i.new ], [ %indvars.iv.next.i.i.i.i.3, %for.body.i.i.i.i ]
  %niter = phi i64 [ 0, %for.body.preheader.i.i.i.i.new ], [ %niter.next.3, %for.body.i.i.i.i ]
  %arrayidx.i.i.i.i = getelementptr inbounds i32, ptr %__arg1.val, i64 %indvars.iv.i.i.i.i
  %1 = load i32, ptr %arrayidx.i.i.i.i, align 4, !tbaa !31
  %add.i.i.i.i = add i32 %1, 10
  %arrayidx3.i.i.i.i = getelementptr inbounds i32, ptr %__arg.val, i64 %indvars.iv.i.i.i.i
  store i32 %add.i.i.i.i, ptr %arrayidx3.i.i.i.i, align 4, !tbaa !31
  %indvars.iv.next.i.i.i.i = or i64 %indvars.iv.i.i.i.i, 1
  %arrayidx.i.i.i.i.1 = getelementptr inbounds i32, ptr %__arg1.val, i64 %indvars.iv.next.i.i.i.i
  %2 = load i32, ptr %arrayidx.i.i.i.i.1, align 4, !tbaa !31
  %add.i.i.i.i.1 = add i32 %2, 10
  %arrayidx3.i.i.i.i.1 = getelementptr inbounds i32, ptr %__arg.val, i64 %indvars.iv.next.i.i.i.i
  store i32 %add.i.i.i.i.1, ptr %arrayidx3.i.i.i.i.1, align 4, !tbaa !31
  %indvars.iv.next.i.i.i.i.1 = or i64 %indvars.iv.i.i.i.i, 2
  %arrayidx.i.i.i.i.2 = getelementptr inbounds i32, ptr %__arg1.val, i64 %indvars.iv.next.i.i.i.i.1
  %3 = load i32, ptr %arrayidx.i.i.i.i.2, align 4, !tbaa !31
  %add.i.i.i.i.2 = add i32 %3, 10
  %arrayidx3.i.i.i.i.2 = getelementptr inbounds i32, ptr %__arg.val, i64 %indvars.iv.next.i.i.i.i.1
  store i32 %add.i.i.i.i.2, ptr %arrayidx3.i.i.i.i.2, align 4, !tbaa !31
  %indvars.iv.next.i.i.i.i.2 = or i64 %indvars.iv.i.i.i.i, 3
  %arrayidx.i.i.i.i.3 = getelementptr inbounds i32, ptr %__arg1.val, i64 %indvars.iv.next.i.i.i.i.2
  %4 = load i32, ptr %arrayidx.i.i.i.i.3, align 4, !tbaa !31
  %add.i.i.i.i.3 = add i32 %4, 10
  %arrayidx3.i.i.i.i.3 = getelementptr inbounds i32, ptr %__arg.val, i64 %indvars.iv.next.i.i.i.i.2
  store i32 %add.i.i.i.i.3, ptr %arrayidx3.i.i.i.i.3, align 4, !tbaa !31
  %indvars.iv.next.i.i.i.i.3 = add nuw nsw i64 %indvars.iv.i.i.i.i, 4
  %niter.next.3 = add i64 %niter, 4
  %niter.ncmp.3 = icmp eq i64 %niter.next.3, %unroll_iter
  br i1 %niter.ncmp.3, label %"_ZNSt3__110__function12__alloc_funcIZ4mainE3$_0NS_9allocatorIS2_EEFvPjS5_jEEclB7v170000EOS5_S8_Oj.exit.loopexit.unr-lcssa", label %for.body.i.i.i.i, !llvm.loop !71

"_ZNSt3__110__function12__alloc_funcIZ4mainE3$_0NS_9allocatorIS2_EEFvPjS5_jEEclB7v170000EOS5_S8_Oj.exit.loopexit.unr-lcssa": ; preds = %for.body.i.i.i.i, %for.body.preheader.i.i.i.i
  %indvars.iv.i.i.i.i.unr = phi i64 [ 0, %for.body.preheader.i.i.i.i ], [ %indvars.iv.next.i.i.i.i.3, %for.body.i.i.i.i ]
  %lcmp.mod.not = icmp eq i64 %xtraiter, 0
  br i1 %lcmp.mod.not, label %"_ZNSt3__110__function12__alloc_funcIZ4mainE3$_0NS_9allocatorIS2_EEFvPjS5_jEEclB7v170000EOS5_S8_Oj.exit", label %for.body.i.i.i.i.epil

for.body.i.i.i.i.epil:                            ; preds = %"_ZNSt3__110__function12__alloc_funcIZ4mainE3$_0NS_9allocatorIS2_EEFvPjS5_jEEclB7v170000EOS5_S8_Oj.exit.loopexit.unr-lcssa", %for.body.i.i.i.i.epil
  %indvars.iv.i.i.i.i.epil = phi i64 [ %indvars.iv.next.i.i.i.i.epil, %for.body.i.i.i.i.epil ], [ %indvars.iv.i.i.i.i.unr, %"_ZNSt3__110__function12__alloc_funcIZ4mainE3$_0NS_9allocatorIS2_EEFvPjS5_jEEclB7v170000EOS5_S8_Oj.exit.loopexit.unr-lcssa" ]
  %epil.iter = phi i64 [ %epil.iter.next, %for.body.i.i.i.i.epil ], [ 0, %"_ZNSt3__110__function12__alloc_funcIZ4mainE3$_0NS_9allocatorIS2_EEFvPjS5_jEEclB7v170000EOS5_S8_Oj.exit.loopexit.unr-lcssa" ]
  %arrayidx.i.i.i.i.epil = getelementptr inbounds i32, ptr %__arg1.val, i64 %indvars.iv.i.i.i.i.epil
  %5 = load i32, ptr %arrayidx.i.i.i.i.epil, align 4, !tbaa !31
  %add.i.i.i.i.epil = add i32 %5, 10
  %arrayidx3.i.i.i.i.epil = getelementptr inbounds i32, ptr %__arg.val, i64 %indvars.iv.i.i.i.i.epil
  store i32 %add.i.i.i.i.epil, ptr %arrayidx3.i.i.i.i.epil, align 4, !tbaa !31
  %indvars.iv.next.i.i.i.i.epil = add nuw nsw i64 %indvars.iv.i.i.i.i.epil, 1
  %epil.iter.next = add i64 %epil.iter, 1
  %epil.iter.cmp.not = icmp eq i64 %epil.iter.next, %xtraiter
  br i1 %epil.iter.cmp.not, label %"_ZNSt3__110__function12__alloc_funcIZ4mainE3$_0NS_9allocatorIS2_EEFvPjS5_jEEclB7v170000EOS5_S8_Oj.exit", label %for.body.i.i.i.i.epil, !llvm.loop !72

"_ZNSt3__110__function12__alloc_funcIZ4mainE3$_0NS_9allocatorIS2_EEFvPjS5_jEEclB7v170000EOS5_S8_Oj.exit": ; preds = %"_ZNSt3__110__function12__alloc_funcIZ4mainE3$_0NS_9allocatorIS2_EEFvPjS5_jEEclB7v170000EOS5_S8_Oj.exit.loopexit.unr-lcssa", %for.body.i.i.i.i.epil, %entry
  ret void
}

; Function Attrs: mustprogress nofree norecurse nosync nounwind willreturn memory(argmem: read) uwtable
define internal noundef ptr @"_ZNKSt3__110__function6__funcIZ4mainE3$_0NS_9allocatorIS2_EEFvPjS5_jEE6targetERKSt9type_info"(ptr noundef nonnull readnone align 8 dereferenceable(9) %this, ptr nocapture noundef nonnull readonly align 8 dereferenceable(16) %__ti) unnamed_addr #21 align 2 {
entry:
  %__type_name.i = getelementptr inbounds %"class.std::type_info", ptr %__ti, i64 0, i32 1
  %0 = load ptr, ptr %__type_name.i, align 8, !tbaa !63
  %cmp.i.i = icmp eq ptr %0, @"_ZTSZ4mainE3$_0"
  %__f_ = getelementptr inbounds %"class.std::__1::__function::__func.144", ptr %this, i64 0, i32 1
  %spec.select = select i1 %cmp.i.i, ptr %__f_, ptr null
  ret ptr %spec.select
}

; Function Attrs: mustprogress nofree norecurse nosync nounwind willreturn memory(none) uwtable
define internal noundef nonnull align 8 dereferenceable(16) ptr @"_ZNKSt3__110__function6__funcIZ4mainE3$_0NS_9allocatorIS2_EEFvPjS5_jEE11target_typeEv"(ptr nocapture nonnull readnone align 8 %this) unnamed_addr #18 align 2 {
entry:
  ret ptr @"_ZTIZ4mainE3$_0"
}

; Function Attrs: inlinehint nounwind uwtable
define internal void @"_ZNSt3__110__function6__funcIZ4mainE3$_1NS_9allocatorIS2_EEFvPjS5_jEED0Ev"(ptr noundef nonnull align 8 dereferenceable(9) %this) unnamed_addr #16 align 2 {
entry:
  tail call void @_ZdlPv(ptr noundef nonnull %this) #26
  ret void
}

; Function Attrs: uwtable
define internal noundef ptr @"_ZNKSt3__110__function6__funcIZ4mainE3$_1NS_9allocatorIS2_EEFvPjS5_jEE7__cloneEv"(ptr nocapture nonnull readnone align 8 %this) unnamed_addr #5 align 2 personality ptr @__gxx_personality_v0 {
"_ZNSt3__110unique_ptrINS_10__function6__funcIZ4mainE3$_1NS_9allocatorIS3_EEFvPjS6_jEEENS_22__allocator_destructorINS4_IS8_EEEEED2B7v170000Ev.exit":
  %call.i5.i.i = tail call noalias noundef nonnull dereferenceable(16) ptr @_Znwm(i64 noundef 16) #25
  store ptr getelementptr inbounds ({ [11 x ptr] }, ptr @"_ZTVNSt3__110__function6__funcIZ4mainE3$_1NS_9allocatorIS2_EEFvPjS5_jEEE", i64 0, inrange i32 0, i64 2), ptr %call.i5.i.i, align 8, !tbaa !15
  ret ptr %call.i5.i.i
}

; Function Attrs: mustprogress nofree norecurse nosync nounwind willreturn memory(argmem: write) uwtable
define internal void @"_ZNKSt3__110__function6__funcIZ4mainE3$_1NS_9allocatorIS2_EEFvPjS5_jEE7__cloneEPNS0_6__baseIS6_EE"(ptr nocapture nonnull readnone align 8 %this, ptr nocapture noundef writeonly %__p) unnamed_addr #17 align 2 personality ptr @__gxx_personality_v0 {
entry:
  store ptr getelementptr inbounds ({ [11 x ptr] }, ptr @"_ZTVNSt3__110__function6__funcIZ4mainE3$_1NS_9allocatorIS2_EEFvPjS5_jEEE", i64 0, inrange i32 0, i64 2), ptr %__p, align 8, !tbaa !15
  ret void
}

; Function Attrs: mustprogress nofree norecurse nosync nounwind willreturn memory(none) uwtable
define internal void @"_ZNSt3__110__function6__funcIZ4mainE3$_1NS_9allocatorIS2_EEFvPjS5_jEE7destroyEv"(ptr nocapture nonnull align 8 %this) unnamed_addr #18 align 2 {
entry:
  ret void
}

; Function Attrs: mustprogress nounwind uwtable
define internal void @"_ZNSt3__110__function6__funcIZ4mainE3$_1NS_9allocatorIS2_EEFvPjS5_jEE18destroy_deallocateEv"(ptr noundef nonnull align 8 dereferenceable(9) %this) unnamed_addr #19 align 2 personality ptr @__gxx_personality_v0 {
entry:
  tail call void @_ZdlPv(ptr noundef nonnull %this) #26
  ret void
}

; Function Attrs: mustprogress nofree norecurse nosync nounwind memory(readwrite, inaccessiblemem: none) uwtable
define internal void @"_ZNSt3__110__function6__funcIZ4mainE3$_1NS_9allocatorIS2_EEFvPjS5_jEEclEOS5_S8_Oj"(ptr nocapture nonnull readnone align 8 %this, ptr nocapture noundef nonnull readonly align 8 dereferenceable(8) %__arg, ptr nocapture noundef nonnull readonly align 8 dereferenceable(8) %__arg1, ptr nocapture noundef nonnull readonly align 4 dereferenceable(4) %__arg3) unnamed_addr #20 align 2 {
entry:
  %__arg.val = load ptr, ptr %__arg, align 8, !tbaa !35
  %__arg1.val = load ptr, ptr %__arg1, align 8, !tbaa !35
  %__arg3.val = load i32, ptr %__arg3, align 4, !tbaa !31
  %cmp1.not.i.i.i.i = icmp eq i32 %__arg3.val, 0
  br i1 %cmp1.not.i.i.i.i, label %"_ZNSt3__110__function12__alloc_funcIZ4mainE3$_1NS_9allocatorIS2_EEFvPjS5_jEEclB7v170000EOS5_S8_Oj.exit", label %for.body.preheader.i.i.i.i

for.body.preheader.i.i.i.i:                       ; preds = %entry
  %__arg1.val7 = ptrtoint ptr %__arg1.val to i64
  %__arg.val6 = ptrtoint ptr %__arg.val to i64
  %wide.trip.count.i.i.i.i = zext i32 %__arg3.val to i64
  %min.iters.check = icmp ult i32 %__arg3.val, 8
  %0 = sub i64 %__arg.val6, %__arg1.val7
  %diff.check = icmp ult i64 %0, 32
  %or.cond = select i1 %min.iters.check, i1 true, i1 %diff.check
  br i1 %or.cond, label %for.body.i.i.i.i.preheader, label %vector.ph

vector.ph:                                        ; preds = %for.body.preheader.i.i.i.i
  %n.vec = and i64 %wide.trip.count.i.i.i.i, 4294967288
  br label %vector.body

vector.body:                                      ; preds = %vector.body, %vector.ph
  %index = phi i64 [ 0, %vector.ph ], [ %index.next, %vector.body ]
  %1 = getelementptr inbounds i32, ptr %__arg1.val, i64 %index
  %wide.load = load <4 x i32>, ptr %1, align 4, !tbaa !31
  %2 = getelementptr inbounds i32, ptr %1, i64 4
  %wide.load8 = load <4 x i32>, ptr %2, align 4, !tbaa !31
  %3 = add <4 x i32> %wide.load, <i32 10, i32 10, i32 10, i32 10>
  %4 = add <4 x i32> %wide.load8, <i32 10, i32 10, i32 10, i32 10>
  %5 = getelementptr inbounds i32, ptr %__arg.val, i64 %index
  store <4 x i32> %3, ptr %5, align 4, !tbaa !31
  %6 = getelementptr inbounds i32, ptr %5, i64 4
  store <4 x i32> %4, ptr %6, align 4, !tbaa !31
  %index.next = add nuw i64 %index, 8
  %7 = icmp eq i64 %index.next, %n.vec
  br i1 %7, label %middle.block, label %vector.body, !llvm.loop !73

middle.block:                                     ; preds = %vector.body
  %cmp.n = icmp eq i64 %n.vec, %wide.trip.count.i.i.i.i
  br i1 %cmp.n, label %"_ZNSt3__110__function12__alloc_funcIZ4mainE3$_1NS_9allocatorIS2_EEFvPjS5_jEEclB7v170000EOS5_S8_Oj.exit", label %for.body.i.i.i.i.preheader

for.body.i.i.i.i.preheader:                       ; preds = %for.body.preheader.i.i.i.i, %middle.block
  %indvars.iv.i.i.i.i.ph = phi i64 [ 0, %for.body.preheader.i.i.i.i ], [ %n.vec, %middle.block ]
  %8 = xor i64 %indvars.iv.i.i.i.i.ph, -1
  %9 = add nsw i64 %8, %wide.trip.count.i.i.i.i
  %xtraiter = and i64 %wide.trip.count.i.i.i.i, 3
  %lcmp.mod.not = icmp eq i64 %xtraiter, 0
  br i1 %lcmp.mod.not, label %for.body.i.i.i.i.prol.loopexit, label %for.body.i.i.i.i.prol

for.body.i.i.i.i.prol:                            ; preds = %for.body.i.i.i.i.preheader, %for.body.i.i.i.i.prol
  %indvars.iv.i.i.i.i.prol = phi i64 [ %indvars.iv.next.i.i.i.i.prol, %for.body.i.i.i.i.prol ], [ %indvars.iv.i.i.i.i.ph, %for.body.i.i.i.i.preheader ]
  %prol.iter = phi i64 [ %prol.iter.next, %for.body.i.i.i.i.prol ], [ 0, %for.body.i.i.i.i.preheader ]
  %arrayidx.i.i.i.i.prol = getelementptr inbounds i32, ptr %__arg1.val, i64 %indvars.iv.i.i.i.i.prol
  %10 = load i32, ptr %arrayidx.i.i.i.i.prol, align 4, !tbaa !31
  %add.i.i.i.i.prol = add i32 %10, 10
  %arrayidx3.i.i.i.i.prol = getelementptr inbounds i32, ptr %__arg.val, i64 %indvars.iv.i.i.i.i.prol
  store i32 %add.i.i.i.i.prol, ptr %arrayidx3.i.i.i.i.prol, align 4, !tbaa !31
  %indvars.iv.next.i.i.i.i.prol = add nuw nsw i64 %indvars.iv.i.i.i.i.prol, 1
  %prol.iter.next = add i64 %prol.iter, 1
  %prol.iter.cmp.not = icmp eq i64 %prol.iter.next, %xtraiter
  br i1 %prol.iter.cmp.not, label %for.body.i.i.i.i.prol.loopexit, label %for.body.i.i.i.i.prol, !llvm.loop !74

for.body.i.i.i.i.prol.loopexit:                   ; preds = %for.body.i.i.i.i.prol, %for.body.i.i.i.i.preheader
  %indvars.iv.i.i.i.i.unr = phi i64 [ %indvars.iv.i.i.i.i.ph, %for.body.i.i.i.i.preheader ], [ %indvars.iv.next.i.i.i.i.prol, %for.body.i.i.i.i.prol ]
  %11 = icmp ult i64 %9, 3
  br i1 %11, label %"_ZNSt3__110__function12__alloc_funcIZ4mainE3$_1NS_9allocatorIS2_EEFvPjS5_jEEclB7v170000EOS5_S8_Oj.exit", label %for.body.i.i.i.i

for.body.i.i.i.i:                                 ; preds = %for.body.i.i.i.i.prol.loopexit, %for.body.i.i.i.i
  %indvars.iv.i.i.i.i = phi i64 [ %indvars.iv.next.i.i.i.i.3, %for.body.i.i.i.i ], [ %indvars.iv.i.i.i.i.unr, %for.body.i.i.i.i.prol.loopexit ]
  %arrayidx.i.i.i.i = getelementptr inbounds i32, ptr %__arg1.val, i64 %indvars.iv.i.i.i.i
  %12 = load i32, ptr %arrayidx.i.i.i.i, align 4, !tbaa !31
  %add.i.i.i.i = add i32 %12, 10
  %arrayidx3.i.i.i.i = getelementptr inbounds i32, ptr %__arg.val, i64 %indvars.iv.i.i.i.i
  store i32 %add.i.i.i.i, ptr %arrayidx3.i.i.i.i, align 4, !tbaa !31
  %indvars.iv.next.i.i.i.i = add nuw nsw i64 %indvars.iv.i.i.i.i, 1
  %arrayidx.i.i.i.i.1 = getelementptr inbounds i32, ptr %__arg1.val, i64 %indvars.iv.next.i.i.i.i
  %13 = load i32, ptr %arrayidx.i.i.i.i.1, align 4, !tbaa !31
  %add.i.i.i.i.1 = add i32 %13, 10
  %arrayidx3.i.i.i.i.1 = getelementptr inbounds i32, ptr %__arg.val, i64 %indvars.iv.next.i.i.i.i
  store i32 %add.i.i.i.i.1, ptr %arrayidx3.i.i.i.i.1, align 4, !tbaa !31
  %indvars.iv.next.i.i.i.i.1 = add nuw nsw i64 %indvars.iv.i.i.i.i, 2
  %arrayidx.i.i.i.i.2 = getelementptr inbounds i32, ptr %__arg1.val, i64 %indvars.iv.next.i.i.i.i.1
  %14 = load i32, ptr %arrayidx.i.i.i.i.2, align 4, !tbaa !31
  %add.i.i.i.i.2 = add i32 %14, 10
  %arrayidx3.i.i.i.i.2 = getelementptr inbounds i32, ptr %__arg.val, i64 %indvars.iv.next.i.i.i.i.1
  store i32 %add.i.i.i.i.2, ptr %arrayidx3.i.i.i.i.2, align 4, !tbaa !31
  %indvars.iv.next.i.i.i.i.2 = add nuw nsw i64 %indvars.iv.i.i.i.i, 3
  %arrayidx.i.i.i.i.3 = getelementptr inbounds i32, ptr %__arg1.val, i64 %indvars.iv.next.i.i.i.i.2
  %15 = load i32, ptr %arrayidx.i.i.i.i.3, align 4, !tbaa !31
  %add.i.i.i.i.3 = add i32 %15, 10
  %arrayidx3.i.i.i.i.3 = getelementptr inbounds i32, ptr %__arg.val, i64 %indvars.iv.next.i.i.i.i.2
  store i32 %add.i.i.i.i.3, ptr %arrayidx3.i.i.i.i.3, align 4, !tbaa !31
  %indvars.iv.next.i.i.i.i.3 = add nuw nsw i64 %indvars.iv.i.i.i.i, 4
  %exitcond.not.i.i.i.i.3 = icmp eq i64 %indvars.iv.next.i.i.i.i.3, %wide.trip.count.i.i.i.i
  br i1 %exitcond.not.i.i.i.i.3, label %"_ZNSt3__110__function12__alloc_funcIZ4mainE3$_1NS_9allocatorIS2_EEFvPjS5_jEEclB7v170000EOS5_S8_Oj.exit", label %for.body.i.i.i.i, !llvm.loop !75

"_ZNSt3__110__function12__alloc_funcIZ4mainE3$_1NS_9allocatorIS2_EEFvPjS5_jEEclB7v170000EOS5_S8_Oj.exit": ; preds = %for.body.i.i.i.i.prol.loopexit, %for.body.i.i.i.i, %middle.block, %entry
  ret void
}

; Function Attrs: mustprogress nofree norecurse nosync nounwind willreturn memory(argmem: read) uwtable
define internal noundef ptr @"_ZNKSt3__110__function6__funcIZ4mainE3$_1NS_9allocatorIS2_EEFvPjS5_jEE6targetERKSt9type_info"(ptr noundef nonnull readnone align 8 dereferenceable(9) %this, ptr nocapture noundef nonnull readonly align 8 dereferenceable(16) %__ti) unnamed_addr #21 align 2 {
entry:
  %__type_name.i = getelementptr inbounds %"class.std::type_info", ptr %__ti, i64 0, i32 1
  %0 = load ptr, ptr %__type_name.i, align 8, !tbaa !63
  %cmp.i.i = icmp eq ptr %0, @"_ZTSZ4mainE3$_1"
  %__f_ = getelementptr inbounds %"class.std::__1::__function::__func.155", ptr %this, i64 0, i32 1
  %spec.select = select i1 %cmp.i.i, ptr %__f_, ptr null
  ret ptr %spec.select
}

; Function Attrs: mustprogress nofree norecurse nosync nounwind willreturn memory(none) uwtable
define internal noundef nonnull align 8 dereferenceable(16) ptr @"_ZNKSt3__110__function6__funcIZ4mainE3$_1NS_9allocatorIS2_EEFvPjS5_jEE11target_typeEv"(ptr nocapture nonnull readnone align 8 %this) unnamed_addr #18 align 2 {
entry:
  ret ptr @"_ZTIZ4mainE3$_1"
}

; Function Attrs: mustprogress uwtable
define linkonce_odr dso_local void @_ZNKSt3__18functionIFvPmS1_jEEclES1_S1_j(ptr noundef nonnull align 16 dereferenceable(48) %this, ptr noundef %__arg, ptr noundef %__arg1, i32 noundef %__arg3) local_unnamed_addr #3 comdat align 2 {
entry:
  %__arg.addr = alloca ptr, align 8
  %__arg.addr2 = alloca ptr, align 8
  %__arg.addr4 = alloca i32, align 4
  store ptr %__arg, ptr %__arg.addr, align 8, !tbaa !35
  store ptr %__arg1, ptr %__arg.addr2, align 8, !tbaa !35
  store i32 %__arg3, ptr %__arg.addr4, align 4, !tbaa !31
  %__f_.i = getelementptr inbounds %"class.std::__1::__function::__value_func.11", ptr %this, i64 0, i32 1
  %0 = load ptr, ptr %__f_.i, align 16, !tbaa !23
  %cmp.i = icmp eq ptr %0, null
  br i1 %cmp.i, label %if.then.i, label %_ZNKSt3__110__function12__value_funcIFvPmS2_jEEclB7v170000EOS2_S5_Oj.exit

if.then.i:                                        ; preds = %entry
  tail call void @_ZNSt3__125__throw_bad_function_callB7v170000Ev() #27
  unreachable

_ZNKSt3__110__function12__value_funcIFvPmS2_jEEclB7v170000EOS2_S5_Oj.exit: ; preds = %entry
  %vtable.i = load ptr, ptr %0, align 8, !tbaa !15
  %vfn.i = getelementptr inbounds ptr, ptr %vtable.i, i64 6
  %1 = load ptr, ptr %vfn.i, align 8
  call void %1(ptr noundef nonnull align 8 dereferenceable(8) %0, ptr noundef nonnull align 8 dereferenceable(8) %__arg.addr, ptr noundef nonnull align 8 dereferenceable(8) %__arg.addr2, ptr noundef nonnull align 4 dereferenceable(4) %__arg.addr4)
  ret void
}

; Function Attrs: mustprogress noinline norecurse optnone uwtable
define internal fastcc void @_ZL18callThroughOptnoneIRNSt3__18functionIFvPmS2_jEEEJS2_RS2_RjEEvOT_DpOT0_(ptr noundef nonnull align 16 dereferenceable(48) %f, ptr noundef nonnull align 8 dereferenceable(8) %args, ptr noundef nonnull align 8 dereferenceable(8) %args1, ptr noundef nonnull align 4 dereferenceable(4) %args3) unnamed_addr #11 {
entry:
  %f.addr = alloca ptr, align 8
  %args.addr = alloca ptr, align 8
  %args.addr2 = alloca ptr, align 8
  %args.addr4 = alloca ptr, align 8
  store ptr %f, ptr %f.addr, align 8, !tbaa !35
  store ptr %args, ptr %args.addr, align 8, !tbaa !35
  store ptr %args1, ptr %args.addr2, align 8, !tbaa !35
  store ptr %args3, ptr %args.addr4, align 8, !tbaa !35
  %0 = load ptr, ptr %f.addr, align 8, !tbaa !35
  %1 = load ptr, ptr %args.addr, align 8, !tbaa !35
  %2 = load ptr, ptr %1, align 8, !tbaa !35
  %3 = load ptr, ptr %args.addr2, align 8, !tbaa !35
  %4 = load ptr, ptr %3, align 8, !tbaa !35
  %5 = load ptr, ptr %args.addr4, align 8, !tbaa !35
  %6 = load i32, ptr %5, align 4, !tbaa !31
  call void @_ZNKSt3__18functionIFvPmS1_jEEclES1_S1_j(ptr noundef nonnull align 16 dereferenceable(48) %0, ptr noundef %2, ptr noundef %4, i32 noundef %6)
  ret void
}

; Function Attrs: inlinehint nounwind uwtable
define internal void @"_ZNSt3__110__function6__funcIZ4mainE3$_0NS_9allocatorIS2_EEFvPmS5_jEED0Ev"(ptr noundef nonnull align 8 dereferenceable(9) %this) unnamed_addr #16 align 2 {
entry:
  tail call void @_ZdlPv(ptr noundef nonnull %this) #26
  ret void
}

; Function Attrs: uwtable
define internal noundef ptr @"_ZNKSt3__110__function6__funcIZ4mainE3$_0NS_9allocatorIS2_EEFvPmS5_jEE7__cloneEv"(ptr nocapture nonnull readnone align 8 %this) unnamed_addr #5 align 2 personality ptr @__gxx_personality_v0 {
"_ZNSt3__110unique_ptrINS_10__function6__funcIZ4mainE3$_0NS_9allocatorIS3_EEFvPmS6_jEEENS_22__allocator_destructorINS4_IS8_EEEEED2B7v170000Ev.exit":
  %call.i5.i.i = tail call noalias noundef nonnull dereferenceable(16) ptr @_Znwm(i64 noundef 16) #25
  store ptr getelementptr inbounds ({ [11 x ptr] }, ptr @"_ZTVNSt3__110__function6__funcIZ4mainE3$_0NS_9allocatorIS2_EEFvPmS5_jEEE", i64 0, inrange i32 0, i64 2), ptr %call.i5.i.i, align 8, !tbaa !15
  ret ptr %call.i5.i.i
}

; Function Attrs: mustprogress nofree norecurse nosync nounwind willreturn memory(argmem: write) uwtable
define internal void @"_ZNKSt3__110__function6__funcIZ4mainE3$_0NS_9allocatorIS2_EEFvPmS5_jEE7__cloneEPNS0_6__baseIS6_EE"(ptr nocapture nonnull readnone align 8 %this, ptr nocapture noundef writeonly %__p) unnamed_addr #17 align 2 personality ptr @__gxx_personality_v0 {
entry:
  store ptr getelementptr inbounds ({ [11 x ptr] }, ptr @"_ZTVNSt3__110__function6__funcIZ4mainE3$_0NS_9allocatorIS2_EEFvPmS5_jEEE", i64 0, inrange i32 0, i64 2), ptr %__p, align 8, !tbaa !15
  ret void
}

; Function Attrs: mustprogress nofree norecurse nosync nounwind willreturn memory(none) uwtable
define internal void @"_ZNSt3__110__function6__funcIZ4mainE3$_0NS_9allocatorIS2_EEFvPmS5_jEE7destroyEv"(ptr nocapture nonnull align 8 %this) unnamed_addr #18 align 2 {
entry:
  ret void
}

; Function Attrs: mustprogress nounwind uwtable
define internal void @"_ZNSt3__110__function6__funcIZ4mainE3$_0NS_9allocatorIS2_EEFvPmS5_jEE18destroy_deallocateEv"(ptr noundef nonnull align 8 dereferenceable(9) %this) unnamed_addr #19 align 2 personality ptr @__gxx_personality_v0 {
entry:
  tail call void @_ZdlPv(ptr noundef nonnull %this) #26
  ret void
}

; Function Attrs: mustprogress nofree norecurse nosync nounwind memory(readwrite, inaccessiblemem: none) uwtable
define internal void @"_ZNSt3__110__function6__funcIZ4mainE3$_0NS_9allocatorIS2_EEFvPmS5_jEEclEOS5_S8_Oj"(ptr nocapture nonnull readnone align 8 %this, ptr nocapture noundef nonnull readonly align 8 dereferenceable(8) %__arg, ptr nocapture noundef nonnull readonly align 8 dereferenceable(8) %__arg1, ptr nocapture noundef nonnull readonly align 4 dereferenceable(4) %__arg3) unnamed_addr #20 align 2 {
entry:
  %__arg.val = load ptr, ptr %__arg, align 8, !tbaa !35
  %__arg1.val = load ptr, ptr %__arg1, align 8, !tbaa !35
  %__arg3.val = load i32, ptr %__arg3, align 4, !tbaa !31
  %cmp1.not.i.i.i.i = icmp eq i32 %__arg3.val, 0
  br i1 %cmp1.not.i.i.i.i, label %"_ZNSt3__110__function12__alloc_funcIZ4mainE3$_0NS_9allocatorIS2_EEFvPmS5_jEEclB7v170000EOS5_S8_Oj.exit", label %for.body.preheader.i.i.i.i

for.body.preheader.i.i.i.i:                       ; preds = %entry
  %wide.trip.count.i.i.i.i = zext i32 %__arg3.val to i64
  %xtraiter = and i64 %wide.trip.count.i.i.i.i, 3
  %0 = icmp ult i32 %__arg3.val, 4
  br i1 %0, label %"_ZNSt3__110__function12__alloc_funcIZ4mainE3$_0NS_9allocatorIS2_EEFvPmS5_jEEclB7v170000EOS5_S8_Oj.exit.loopexit.unr-lcssa", label %for.body.preheader.i.i.i.i.new

for.body.preheader.i.i.i.i.new:                   ; preds = %for.body.preheader.i.i.i.i
  %unroll_iter = and i64 %wide.trip.count.i.i.i.i, 4294967292
  br label %for.body.i.i.i.i

for.body.i.i.i.i:                                 ; preds = %for.body.i.i.i.i, %for.body.preheader.i.i.i.i.new
  %indvars.iv.i.i.i.i = phi i64 [ 0, %for.body.preheader.i.i.i.i.new ], [ %indvars.iv.next.i.i.i.i.3, %for.body.i.i.i.i ]
  %niter = phi i64 [ 0, %for.body.preheader.i.i.i.i.new ], [ %niter.next.3, %for.body.i.i.i.i ]
  %arrayidx.i.i.i.i = getelementptr inbounds i64, ptr %__arg1.val, i64 %indvars.iv.i.i.i.i
  %1 = load i64, ptr %arrayidx.i.i.i.i, align 8, !tbaa !5
  %add.i.i.i.i = add i64 %1, 10
  %arrayidx3.i.i.i.i = getelementptr inbounds i64, ptr %__arg.val, i64 %indvars.iv.i.i.i.i
  store i64 %add.i.i.i.i, ptr %arrayidx3.i.i.i.i, align 8, !tbaa !5
  %indvars.iv.next.i.i.i.i = or i64 %indvars.iv.i.i.i.i, 1
  %arrayidx.i.i.i.i.1 = getelementptr inbounds i64, ptr %__arg1.val, i64 %indvars.iv.next.i.i.i.i
  %2 = load i64, ptr %arrayidx.i.i.i.i.1, align 8, !tbaa !5
  %add.i.i.i.i.1 = add i64 %2, 10
  %arrayidx3.i.i.i.i.1 = getelementptr inbounds i64, ptr %__arg.val, i64 %indvars.iv.next.i.i.i.i
  store i64 %add.i.i.i.i.1, ptr %arrayidx3.i.i.i.i.1, align 8, !tbaa !5
  %indvars.iv.next.i.i.i.i.1 = or i64 %indvars.iv.i.i.i.i, 2
  %arrayidx.i.i.i.i.2 = getelementptr inbounds i64, ptr %__arg1.val, i64 %indvars.iv.next.i.i.i.i.1
  %3 = load i64, ptr %arrayidx.i.i.i.i.2, align 8, !tbaa !5
  %add.i.i.i.i.2 = add i64 %3, 10
  %arrayidx3.i.i.i.i.2 = getelementptr inbounds i64, ptr %__arg.val, i64 %indvars.iv.next.i.i.i.i.1
  store i64 %add.i.i.i.i.2, ptr %arrayidx3.i.i.i.i.2, align 8, !tbaa !5
  %indvars.iv.next.i.i.i.i.2 = or i64 %indvars.iv.i.i.i.i, 3
  %arrayidx.i.i.i.i.3 = getelementptr inbounds i64, ptr %__arg1.val, i64 %indvars.iv.next.i.i.i.i.2
  %4 = load i64, ptr %arrayidx.i.i.i.i.3, align 8, !tbaa !5
  %add.i.i.i.i.3 = add i64 %4, 10
  %arrayidx3.i.i.i.i.3 = getelementptr inbounds i64, ptr %__arg.val, i64 %indvars.iv.next.i.i.i.i.2
  store i64 %add.i.i.i.i.3, ptr %arrayidx3.i.i.i.i.3, align 8, !tbaa !5
  %indvars.iv.next.i.i.i.i.3 = add nuw nsw i64 %indvars.iv.i.i.i.i, 4
  %niter.next.3 = add i64 %niter, 4
  %niter.ncmp.3 = icmp eq i64 %niter.next.3, %unroll_iter
  br i1 %niter.ncmp.3, label %"_ZNSt3__110__function12__alloc_funcIZ4mainE3$_0NS_9allocatorIS2_EEFvPmS5_jEEclB7v170000EOS5_S8_Oj.exit.loopexit.unr-lcssa", label %for.body.i.i.i.i, !llvm.loop !76

"_ZNSt3__110__function12__alloc_funcIZ4mainE3$_0NS_9allocatorIS2_EEFvPmS5_jEEclB7v170000EOS5_S8_Oj.exit.loopexit.unr-lcssa": ; preds = %for.body.i.i.i.i, %for.body.preheader.i.i.i.i
  %indvars.iv.i.i.i.i.unr = phi i64 [ 0, %for.body.preheader.i.i.i.i ], [ %indvars.iv.next.i.i.i.i.3, %for.body.i.i.i.i ]
  %lcmp.mod.not = icmp eq i64 %xtraiter, 0
  br i1 %lcmp.mod.not, label %"_ZNSt3__110__function12__alloc_funcIZ4mainE3$_0NS_9allocatorIS2_EEFvPmS5_jEEclB7v170000EOS5_S8_Oj.exit", label %for.body.i.i.i.i.epil

for.body.i.i.i.i.epil:                            ; preds = %"_ZNSt3__110__function12__alloc_funcIZ4mainE3$_0NS_9allocatorIS2_EEFvPmS5_jEEclB7v170000EOS5_S8_Oj.exit.loopexit.unr-lcssa", %for.body.i.i.i.i.epil
  %indvars.iv.i.i.i.i.epil = phi i64 [ %indvars.iv.next.i.i.i.i.epil, %for.body.i.i.i.i.epil ], [ %indvars.iv.i.i.i.i.unr, %"_ZNSt3__110__function12__alloc_funcIZ4mainE3$_0NS_9allocatorIS2_EEFvPmS5_jEEclB7v170000EOS5_S8_Oj.exit.loopexit.unr-lcssa" ]
  %epil.iter = phi i64 [ %epil.iter.next, %for.body.i.i.i.i.epil ], [ 0, %"_ZNSt3__110__function12__alloc_funcIZ4mainE3$_0NS_9allocatorIS2_EEFvPmS5_jEEclB7v170000EOS5_S8_Oj.exit.loopexit.unr-lcssa" ]
  %arrayidx.i.i.i.i.epil = getelementptr inbounds i64, ptr %__arg1.val, i64 %indvars.iv.i.i.i.i.epil
  %5 = load i64, ptr %arrayidx.i.i.i.i.epil, align 8, !tbaa !5
  %add.i.i.i.i.epil = add i64 %5, 10
  %arrayidx3.i.i.i.i.epil = getelementptr inbounds i64, ptr %__arg.val, i64 %indvars.iv.i.i.i.i.epil
  store i64 %add.i.i.i.i.epil, ptr %arrayidx3.i.i.i.i.epil, align 8, !tbaa !5
  %indvars.iv.next.i.i.i.i.epil = add nuw nsw i64 %indvars.iv.i.i.i.i.epil, 1
  %epil.iter.next = add i64 %epil.iter, 1
  %epil.iter.cmp.not = icmp eq i64 %epil.iter.next, %xtraiter
  br i1 %epil.iter.cmp.not, label %"_ZNSt3__110__function12__alloc_funcIZ4mainE3$_0NS_9allocatorIS2_EEFvPmS5_jEEclB7v170000EOS5_S8_Oj.exit", label %for.body.i.i.i.i.epil, !llvm.loop !77

"_ZNSt3__110__function12__alloc_funcIZ4mainE3$_0NS_9allocatorIS2_EEFvPmS5_jEEclB7v170000EOS5_S8_Oj.exit": ; preds = %"_ZNSt3__110__function12__alloc_funcIZ4mainE3$_0NS_9allocatorIS2_EEFvPmS5_jEEclB7v170000EOS5_S8_Oj.exit.loopexit.unr-lcssa", %for.body.i.i.i.i.epil, %entry
  ret void
}

; Function Attrs: mustprogress nofree norecurse nosync nounwind willreturn memory(argmem: read) uwtable
define internal noundef ptr @"_ZNKSt3__110__function6__funcIZ4mainE3$_0NS_9allocatorIS2_EEFvPmS5_jEE6targetERKSt9type_info"(ptr noundef nonnull readnone align 8 dereferenceable(9) %this, ptr nocapture noundef nonnull readonly align 8 dereferenceable(16) %__ti) unnamed_addr #21 align 2 {
entry:
  %__type_name.i = getelementptr inbounds %"class.std::type_info", ptr %__ti, i64 0, i32 1
  %0 = load ptr, ptr %__type_name.i, align 8, !tbaa !63
  %cmp.i.i = icmp eq ptr %0, @"_ZTSZ4mainE3$_0"
  %__f_ = getelementptr inbounds %"class.std::__1::__function::__func.173", ptr %this, i64 0, i32 1
  %spec.select = select i1 %cmp.i.i, ptr %__f_, ptr null
  ret ptr %spec.select
}

; Function Attrs: mustprogress nofree norecurse nosync nounwind willreturn memory(none) uwtable
define internal noundef nonnull align 8 dereferenceable(16) ptr @"_ZNKSt3__110__function6__funcIZ4mainE3$_0NS_9allocatorIS2_EEFvPmS5_jEE11target_typeEv"(ptr nocapture nonnull readnone align 8 %this) unnamed_addr #18 align 2 {
entry:
  ret ptr @"_ZTIZ4mainE3$_0"
}

; Function Attrs: inlinehint nounwind uwtable
define internal void @"_ZNSt3__110__function6__funcIZ4mainE3$_1NS_9allocatorIS2_EEFvPmS5_jEED0Ev"(ptr noundef nonnull align 8 dereferenceable(9) %this) unnamed_addr #16 align 2 {
entry:
  tail call void @_ZdlPv(ptr noundef nonnull %this) #26
  ret void
}

; Function Attrs: uwtable
define internal noundef ptr @"_ZNKSt3__110__function6__funcIZ4mainE3$_1NS_9allocatorIS2_EEFvPmS5_jEE7__cloneEv"(ptr nocapture nonnull readnone align 8 %this) unnamed_addr #5 align 2 personality ptr @__gxx_personality_v0 {
"_ZNSt3__110unique_ptrINS_10__function6__funcIZ4mainE3$_1NS_9allocatorIS3_EEFvPmS6_jEEENS_22__allocator_destructorINS4_IS8_EEEEED2B7v170000Ev.exit":
  %call.i5.i.i = tail call noalias noundef nonnull dereferenceable(16) ptr @_Znwm(i64 noundef 16) #25
  store ptr getelementptr inbounds ({ [11 x ptr] }, ptr @"_ZTVNSt3__110__function6__funcIZ4mainE3$_1NS_9allocatorIS2_EEFvPmS5_jEEE", i64 0, inrange i32 0, i64 2), ptr %call.i5.i.i, align 8, !tbaa !15
  ret ptr %call.i5.i.i
}

; Function Attrs: mustprogress nofree norecurse nosync nounwind willreturn memory(argmem: write) uwtable
define internal void @"_ZNKSt3__110__function6__funcIZ4mainE3$_1NS_9allocatorIS2_EEFvPmS5_jEE7__cloneEPNS0_6__baseIS6_EE"(ptr nocapture nonnull readnone align 8 %this, ptr nocapture noundef writeonly %__p) unnamed_addr #17 align 2 personality ptr @__gxx_personality_v0 {
entry:
