; ModuleID = '/local/mnt2/workspace2/mnadeem/llvm/llvm-test-suite/MultiSource/Benchmarks/DOE-ProxyApps-C++/CLAMR/mesh.cpp'
source_filename = "/local/mnt2/workspace2/mnadeem/llvm/llvm-test-suite/MultiSource/Benchmarks/DOE-ProxyApps-C++/CLAMR/mesh.cpp"
target datalayout = "e-m:e-p270:32:32-p271:32:32-p272:64:64-i64:64-f80:128-n8:16:32:64-S128"
target triple = "x86_64-unknown-linux-gnu"

%"class.std::__1::vector" = type { ptr, ptr, %"class.std::__1::__compressed_pair.16" }
%"class.std::__1::__compressed_pair.16" = type { %"struct.std::__1::__compressed_pair_elem.17" }
%"struct.std::__1::__compressed_pair_elem.17" = type { ptr }
%class.Mesh = type { i32, %class.MallocPlus, %class.MallocPlus, [24 x double], [24 x i64], [4 x i32], [4 x i32], i8, i8, i32, i32, i32, i32, i32, ptr, ptr, float, double, i32, %"class.std::__1::vector", %"class.std::__1::vector", %"class.std::__1::vector", %"class.std::__1::vector", ptr, %struct.TKDTree, %"class.std::__1::vector", %"class.std::__1::vector", %"class.std::__1::vector", %"class.std::__1::vector", %"class.std::__1::vector", %"class.std::__1::vector", %"class.std::__1::vector", %"class.std::__1::vector", %"class.std::__1::vector.22", %"class.std::__1::vector.22", %"class.std::__1::vector.22", i32, i32, i32, i32, i32, i32, i32, i32, i32, i64, i64, i64, double, double, double, double, double, double, double, double, double, double, double, double, double, double, double, %"class.std::__1::vector", ptr, ptr, ptr, ptr, ptr, ptr, ptr, ptr, ptr, ptr, ptr, %"class.std::__1::vector.22", %"class.std::__1::vector.22", %"class.std::__1::vector.22", %"class.std::__1::vector.22", %"class.std::__1::vector.22", %"class.std::__1::vector.22", i32, i32, %"class.std::__1::vector", %"class.std::__1::vector", %"class.std::__1::vector", %"class.std::__1::vector", %"class.std::__1::vector", %"class.std::__1::vector", %"class.std::__1::vector", %"class.std::__1::vector", %"class.std::__1::vector", %"class.std::__1::vector", %"class.std::__1::vector", %"class.std::__1::vector", %"class.std::__1::vector", %"class.std::__1::vector", %"class.std::__1::vector", %"class.std::__1::vector", %"class.std::__1::vector", %"class.std::__1::vector", %"class.std::__1::vector", %"class.std::__1::vector", %"class.std::__1::vector", %"class.std::__1::vector", %"class.std::__1::vector", %"class.std::__1::vector", %"class.std::__1::vector", %"class.std::__1::vector", %"class.std::__1::vector", %"class.std::__1::vector", %"class.std::__1::vector", %"class.std::__1::vector" }
%class.MallocPlus = type { %"class.std::__1::map", %"class.std::__1::map.4" }
%"class.std::__1::map" = type { %"class.std::__1::__tree" }
%"class.std::__1::__tree" = type { ptr, %"class.std::__1::__compressed_pair", %"class.std::__1::__compressed_pair.1" }
%"class.std::__1::__compressed_pair" = type { %"struct.std::__1::__compressed_pair_elem" }
%"struct.std::__1::__compressed_pair_elem" = type { %"class.std::__1::__tree_end_node" }
%"class.std::__1::__tree_end_node" = type { ptr }
%"class.std::__1::__compressed_pair.1" = type { %"struct.std::__1::__compressed_pair_elem.2" }
%"struct.std::__1::__compressed_pair_elem.2" = type { i64 }
%"class.std::__1::map.4" = type { %"class.std::__1::__tree.5" }
%"class.std::__1::__tree.5" = type { ptr, %"class.std::__1::__compressed_pair.6", %"class.std::__1::__compressed_pair.11" }
%"class.std::__1::__compressed_pair.6" = type { %"struct.std::__1::__compressed_pair_elem" }
%"class.std::__1::__compressed_pair.11" = type { %"struct.std::__1::__compressed_pair_elem.2" }
%struct.TKDTree = type { %struct.TBounds, i32, i32, ptr, i8, i32, ptr, ptr }
%struct.TBounds = type { %struct.TVector, %struct.TVector }
%struct.TVector = type { double, double }
%"class.std::__1::vector.22" = type { ptr, ptr, %"class.std::__1::__compressed_pair.23" }
%"class.std::__1::__compressed_pair.23" = type { %"struct.std::__1::__compressed_pair_elem.24" }
%"struct.std::__1::__compressed_pair_elem.24" = type { ptr }
%struct.timeval = type { i64, i64 }
%"class.std::__1::__tree_node.45" = type { %"class.std::__1::__tree_node_base.base", %"struct.std::__1::__value_type.46" }
%"class.std::__1::__tree_node_base.base" = type <{ %"class.std::__1::__tree_end_node", ptr, ptr, i8 }>
%"struct.std::__1::__value_type.46" = type { %"struct.std::__1::pair.47" }
%"struct.std::__1::pair.47" = type { %"class.std::__1::basic_string", ptr }
%"class.std::__1::basic_string" = type { %"class.std::__1::__compressed_pair.48" }
%"class.std::__1::__compressed_pair.48" = type { %"struct.std::__1::__compressed_pair_elem.49" }
%"struct.std::__1::__compressed_pair_elem.49" = type { %"struct.std::__1::basic_string<char>::__rep" }
%"struct.std::__1::basic_string<char>::__rep" = type { %union.anon }
%union.anon = type { %"struct.std::__1::basic_string<char>::__long" }
%"struct.std::__1::basic_string<char>::__long" = type { %struct.anon, i64, ptr }
%struct.anon = type { i64 }
%"class.std::__1::__tree_node_base" = type <{ %"class.std::__1::__tree_end_node", ptr, ptr, i8, [7 x i8] }>
%struct.malloc_plus_memory_entry = type { ptr, i64, ptr, i64, i64, i32, ptr }
%"struct.std::__1::__less.89" = type { i8 }
%"struct.std::__1::__less.93" = type { i8 }
%"class.std::__1::vector.36" = type { ptr, ptr, %"class.std::__1::__compressed_pair.37" }
%"class.std::__1::__compressed_pair.37" = type { %"struct.std::__1::__compressed_pair_elem.38" }
%"struct.std::__1::__compressed_pair_elem.38" = type { ptr }
%"struct.std::__1::__less.71" = type { i8 }
%"struct.std::__1::basic_string<char>::__short" = type { %struct.anon.50, [0 x i8], [23 x i8] }
%struct.anon.50 = type { i8 }
%"class.std::__1::__tree_node" = type { %"class.std::__1::__tree_node_base.base", %"struct.std::__1::__value_type" }
%"struct.std::__1::__value_type" = type { %"struct.std::__1::pair" }
%"struct.std::__1::pair" = type { ptr, ptr }

$_ZNSt3__16vectorIiNS_9allocatorIiEEED2B7v170000Ev = comdat any

$_ZN10MallocPlusD2Ev = comdat any

$_ZNSt3__16__treeINS_12__value_typeIPvP24malloc_plus_memory_entryEENS_19__map_value_compareIS2_S5_NS_4lessIS2_EELb1EEENS_9allocatorIS5_EEE7destroyEPNS_11__tree_nodeIS5_S2_EE = comdat any

$_ZNSt3__16__treeINS_12__value_typeINS_12basic_stringIcNS_11char_traitsIcEENS_9allocatorIcEEEEP24malloc_plus_memory_entryEENS_19__map_value_compareIS7_SA_NS_4lessIS7_EELb1EEENS5_ISA_EEE7destroyEPNS_11__tree_nodeISA_PvEE = comdat any

$_ZNSt3__16__treeINS_12__value_typeINS_12basic_stringIcNS_11char_traitsIcEENS_9allocatorIcEEEEP24malloc_plus_memory_entryEENS_19__map_value_compareIS7_SA_NS_4lessIS7_EELb1EEENS5_ISA_EEE30__emplace_hint_unique_key_argsIS7_JRKNS_4pairIKS7_S9_EEEEENSI_INS_15__tree_iteratorISA_PNS_11__tree_nodeISA_PvEElEEbEENS_21__tree_const_iteratorISA_SR_lEERKT_DpOT0_ = comdat any

$_ZNSt3__16__treeINS_12__value_typeINS_12basic_stringIcNS_11char_traitsIcEENS_9allocatorIcEEEEP24malloc_plus_memory_entryEENS_19__map_value_compareIS7_SA_NS_4lessIS7_EELb1EEENS5_ISA_EEE12__find_equalIS7_EERPNS_16__tree_node_baseIPvEENS_21__tree_const_iteratorISA_PNS_11__tree_nodeISA_SJ_EElEERPNS_15__tree_end_nodeISL_EESM_RKT_ = comdat any

$_ZNSt3__16__treeINS_12__value_typeINS_12basic_stringIcNS_11char_traitsIcEENS_9allocatorIcEEEEP24malloc_plus_memory_entryEENS_19__map_value_compareIS7_SA_NS_4lessIS7_EELb1EEENS5_ISA_EEE12__find_equalIS7_EERPNS_16__tree_node_baseIPvEERPNS_15__tree_end_nodeISL_EERKT_ = comdat any

$_ZSt28__throw_bad_array_new_lengthB7v170000v = comdat any

$_ZNSt3__127__tree_balance_after_insertB7v170000IPNS_16__tree_node_baseIPvEEEEvT_S5_ = comdat any

$_ZNSt3__13mapIPvP24malloc_plus_memory_entryNS_4lessIS1_EENS_9allocatorINS_4pairIKS1_S3_EEEEE6insertB7v170000INS_20__map_const_iteratorINS_21__tree_const_iteratorINS_12__value_typeIS1_S3_EEPNS_11__tree_nodeISG_S1_EElEEEEEEvT_SM_ = comdat any

$_ZNSt3__16__treeINS_12__value_typeIPvP24malloc_plus_memory_entryEENS_19__map_value_compareIS2_S5_NS_4lessIS2_EELb1EEENS_9allocatorIS5_EEE12__find_equalIS2_EERPNS_16__tree_node_baseIS2_EENS_21__tree_const_iteratorIS5_PNS_11__tree_nodeIS5_S2_EElEERPNS_15__tree_end_nodeISG_EESH_RKT_ = comdat any

$_ZNSt3__16vectorIiNS_9allocatorIiEEE8__appendEm = comdat any

$_ZNKSt3__16vectorIiNS_9allocatorIiEEE20__throw_length_errorB7v170000Ev = comdat any

$_ZNSt3__120__throw_length_errorB7v170000EPKc = comdat any

$_ZNSt12length_errorC2B7v170000EPKc = comdat any

$_ZNKSt3__16vectorIdNS_9allocatorIdEEE20__throw_length_errorB7v170000Ev = comdat any

$_ZNSt3__16vectorIdNS_9allocatorIdEEE8__appendEm = comdat any

$_ZNSt3__16vectorIiNS_9allocatorIiEEE8__appendEmRKi = comdat any

$_ZNKSt3__16vectorIxNS_9allocatorIxEEE20__throw_length_errorB7v170000Ev = comdat any

@do_stencil_warning = dso_local local_unnamed_addr global i32 0, align 4
@calc_neighbor_type = dso_local local_unnamed_addr global i32 0, align 4
@dynamic_load_balance_on = dso_local local_unnamed_addr global i8 0, align 1
@neighbor_remap = dso_local local_unnamed_addr global i8 0, align 1
@.str = private unnamed_addr constant [13 x i8] c"grid%02d.gph\00", align 1
@.str.1 = private unnamed_addr constant [2 x i8] c"w\00", align 1
@.str.2 = private unnamed_addr constant [26 x i8] c"viewport %lf %lf %lf %lf\0A\00", align 1
@.str.3 = private unnamed_addr constant [29 x i8] c"rect  %lf   %lf   %lf   %lf\0A\00", align 1
@.str.4 = private unnamed_addr constant [19 x i8] c"line_init %lf %lf\0A\00", align 1
@.str.5 = private unnamed_addr constant [14 x i8] c"line %lf %lf\0A\00", align 1
@.str.6 = private unnamed_addr constant [17 x i8] c"text %lf %lf %d\0A\00", align 1
@.str.7 = private unnamed_addr constant [10 x i8] c"levmax %d\00", align 1
@.str.8 = private unnamed_addr constant [10 x i8] c"cells %ld\00", align 1
@.str.9 = private unnamed_addr constant [9 x i8] c"numpe %d\00", align 1
@.str.10 = private unnamed_addr constant [8 x i8] c"ndim %d\00", align 1
@.str.11 = private unnamed_addr constant [14 x i8] c"xaxis %lf %lf\00", align 1
@.str.12 = private unnamed_addr constant [14 x i8] c"yaxis %lf %lf\00", align 1
@.str.13 = private unnamed_addr constant [14 x i8] c"zaxis %lf %lf\00", align 1
@.str.14 = private unnamed_addr constant [12 x i8] c"%d %d %d %d\00", align 1
@.str.17 = private unnamed_addr constant [46 x i8] c"%6d %6d   %4d  %4d   %4d  %4d  %4d  %4d  %4d \00", align 1
@.str.18 = private unnamed_addr constant [29 x i8] c"%8.2lf %8.2lf %8.2lf %8.2lf\0A\00", align 1
@.str.19 = private unnamed_addr constant [63 x i8] c"%d:   index global  i     j     lev   nlft  nrht  nbot  ntop \0A\00", align 1
@.str.20 = private unnamed_addr constant [50 x i8] c"%d: %6d  %6d %4d  %4d   %4d  %4d  %4d  %4d  %4d \0A\00", align 1
@.str.21 = private unnamed_addr constant [32 x i8] c"%d:    index   i     j     lev\0A\00", align 1
@.str.22 = private unnamed_addr constant [27 x i8] c"%d: %6d  %4d  %4d   %4d  \0A\00", align 1
@.str.23 = private unnamed_addr constant [80 x i8] c"DEBUG rezone 3 at cycle %d celltype_global & celltype_check_global %d %d  %d  \0A\00", align 1
@.str.24 = private unnamed_addr constant [66 x i8] c"DEBUG rezone 3 at cycle %d i_global & i_check_global %d %d  %d  \0A\00", align 1
@.str.25 = private unnamed_addr constant [66 x i8] c"DEBUG rezone 3 at cycle %d j_global & j_check_global %d %d  %d  \0A\00", align 1
@.str.26 = private unnamed_addr constant [74 x i8] c"DEBUG rezone 3 at cycle %d level_global & level_check_global %d %d  %d  \0A\00", align 1
@.str.27 = private unnamed_addr constant [67 x i8] c"DEBUG graphics at cycle %d x_global & x_check_global  %d %lf %lf \0A\00", align 1
@.str.28 = private unnamed_addr constant [68 x i8] c"DEBUG graphics at cycle %d dx_global & dx_check_global %d %lf %lf \0A\00", align 1
@.str.29 = private unnamed_addr constant [67 x i8] c"DEBUG graphics at cycle %d y_global & y_check_global  %d %lf %lf \0A\00", align 1
@.str.30 = private unnamed_addr constant [68 x i8] c"DEBUG graphics at cycle %d dy_global & dy_check_global %d %lf %lf \0A\00", align 1
@.str.31 = private unnamed_addr constant [67 x i8] c"DEBUG graphics at cycle %d H_global & H_check_global  %d %lf %lf \0A\00", align 1
@.str.32 = private unnamed_addr constant [88 x i8] c"%d: DEBUG refine_potential 3 at cycle %d cell %d mpot_global & mpot_save_global %d %d \0A\00", align 1
@_ZZN4Mesh10rezone_allEiiNSt3__16vectorIiNS0_9allocatorIiEEEEiR10MallocPlusE13celltype_save = internal global %"class.std::__1::vector" zeroinitializer, align 8
@_ZGVZN4Mesh10rezone_allEiiNSt3__16vectorIiNS0_9allocatorIiEEEEiR10MallocPlusE13celltype_save = internal global i64 0, align 8
@__dso_handle = external hidden global i8
@_ZZN4Mesh10rezone_allEiiNSt3__16vectorIiNS0_9allocatorIiEEEEiR10MallocPlusE10new_ncells = internal unnamed_addr global i32 0, align 4
@_ZZN4Mesh10rezone_allEiiNSt3__16vectorIiNS0_9allocatorIiEEEEiR10MallocPlusE5i_old = internal global ptr null, align 8
@_ZZN4Mesh10rezone_allEiiNSt3__16vectorIiNS0_9allocatorIiEEEEiR10MallocPlusE5j_old = internal global ptr null, align 8
@_ZZN4Mesh10rezone_allEiiNSt3__16vectorIiNS0_9allocatorIiEEEEiR10MallocPlusE9level_old = internal global ptr null, align 8
@_ZZN4Mesh10rezone_allEiiNSt3__16vectorIiNS0_9allocatorIiEEEEiR10MallocPlusE6new_ic = internal global %"class.std::__1::vector" zeroinitializer, align 8
@_ZGVZN4Mesh10rezone_allEiiNSt3__16vectorIiNS0_9allocatorIiEEEEiR10MallocPlusE6new_ic = internal global i64 0, align 8
@.str.33 = private unnamed_addr constant [6 x i8] c"i_old\00", align 1
@.str.34 = private unnamed_addr constant [6 x i8] c"j_old\00", align 1
@.str.35 = private unnamed_addr constant [10 x i8] c"level_old\00", align 1
@_ZZN4Mesh10rezone_allEiiNSt3__16vectorIiNS0_9allocatorIiEEEEiR10MallocPlusE5order = internal global %"class.std::__1::vector" zeroinitializer, align 8
@_ZGVZN4Mesh10rezone_allEiiNSt3__16vectorIiNS0_9allocatorIiEEEEiR10MallocPlusE5order = internal global i64 0, align 8
@.str.36 = private unnamed_addr constant [18 x i8] c"state_temp_double\00", align 1
@.str.37 = private unnamed_addr constant [17 x i8] c"state_temp_float\00", align 1
@_ZZN4Mesh10rezone_allEiiNSt3__16vectorIiNS0_9allocatorIiEEEEiR10MallocPlusE8nlft_old = internal global ptr null, align 8
@_ZZN4Mesh10rezone_allEiiNSt3__16vectorIiNS0_9allocatorIiEEEEiR10MallocPlusE8nrht_old = internal global ptr null, align 8
@_ZZN4Mesh10rezone_allEiiNSt3__16vectorIiNS0_9allocatorIiEEEEiR10MallocPlusE8nbot_old = internal global ptr null, align 8
@_ZZN4Mesh10rezone_allEiiNSt3__16vectorIiNS0_9allocatorIiEEEEiR10MallocPlusE8ntop_old = internal global ptr null, align 8
@.str.38 = private unnamed_addr constant [9 x i8] c"nlft_old\00", align 1
@.str.39 = private unnamed_addr constant [9 x i8] c"nrht_old\00", align 1
@.str.40 = private unnamed_addr constant [9 x i8] c"nbot_old\00", align 1
@.str.41 = private unnamed_addr constant [9 x i8] c"ntop_old\00", align 1
@_ZZN4Mesh14calc_neighborsEiE9nlft_size = internal unnamed_addr global i32 0, align 4
@.str.42 = private unnamed_addr constant [5 x i8] c"nlft\00", align 1
@.str.43 = private unnamed_addr constant [5 x i8] c"nrht\00", align 1
@.str.44 = private unnamed_addr constant [5 x i8] c"nbot\00", align 1
@.str.45 = private unnamed_addr constant [5 x i8] c"ntop\00", align 1
@write_hash = external local_unnamed_addr global ptr, align 8
@read_hash = external local_unnamed_addr global ptr, align 8
@_ZZN4Mesh20calc_neighbors_localEvE4hash = internal unnamed_addr global ptr null, align 8
@_ZZN4Mesh20calc_neighbors_localEvE8imaxcalc = internal unnamed_addr global i32 0, align 4
@_ZZN4Mesh20calc_neighbors_localEvE8jmaxcalc = internal unnamed_addr global i32 0, align 4
@.str.47 = private unnamed_addr constant [21 x i8] c"hash table size %ld\0A\00", align 1
@.str.49 = private unnamed_addr constant [9 x i8] c"celltype\00", align 1
@.str.50 = private unnamed_addr constant [2 x i8] c"i\00", align 1
@.str.51 = private unnamed_addr constant [2 x i8] c"j\00", align 1
@.str.52 = private unnamed_addr constant [6 x i8] c"level\00", align 1
@.str.54 = private unnamed_addr constant [21 x i8] c"Dimensionality : %d\0A\00", align 1
@.str.55 = private unnamed_addr constant [58 x i8] c"Parallel info  : mype %d numpe %d noffset %d parallel %d\0A\00", align 1
@.str.56 = private unnamed_addr constant [47 x i8] c"Sizes          : ncells %ld ncells_ghost %ld\0A\0A\00", align 1
@.str.57 = private unnamed_addr constant [52 x i8] c"vector celltype  ptr : %p nelements %ld elsize %ld\0A\00", align 1
@.str.58 = private unnamed_addr constant [52 x i8] c"vector level     ptr : %p nelements %ld elsize %ld\0A\00", align 1
@.str.59 = private unnamed_addr constant [52 x i8] c"vector i         ptr : %p nelements %ld elsize %ld\0A\00", align 1
@.str.60 = private unnamed_addr constant [52 x i8] c"vector j         ptr : %p nelements %ld elsize %ld\0A\00", align 1
@.str.61 = private unnamed_addr constant [52 x i8] c"vector nlft      ptr : %p nelements %ld elsize %ld\0A\00", align 1
@.str.62 = private unnamed_addr constant [52 x i8] c"vector nrht      ptr : %p nelements %ld elsize %ld\0A\00", align 1
@.str.63 = private unnamed_addr constant [52 x i8] c"vector nbot      ptr : %p nelements %ld elsize %ld\0A\00", align 1
@.str.64 = private unnamed_addr constant [52 x i8] c"vector ntop      ptr : %p nelements %ld elsize %ld\0A\00", align 1
@localStencil = external local_unnamed_addr global i8, align 1
@.str.66 = private unnamed_addr constant [108 x i8] c"/local/mnt2/workspace2/mnadeem/llvm/llvm-test-suite/MultiSource/Benchmarks/DOE-ProxyApps-C++/CLAMR/mesh.cpp\00", align 1
@.str.67 = private unnamed_addr constant [35 x i8] c"DEBUG -- x face_flag for level %d\0A\00", align 1
@.str.68 = private unnamed_addr constant [38 x i8] c"DEBUG -- sizes isize+1 %d jsize+1 %d\0A\00", align 1
@.str.69 = private unnamed_addr constant [28 x i8] c"                           \00", align 1
@.str.70 = private unnamed_addr constant [6 x i8] c" %4d \00", align 1
@.str.72 = private unnamed_addr constant [27 x i8] c"DEBUG -- j  %4d:          \00", align 1
@.str.73 = private unnamed_addr constant [7 x i8] c"      \00", align 1
@.str.74 = private unnamed_addr constant [35 x i8] c"DEBUG -- y face_flag for level %d\0A\00", align 1
@.str.75 = private unnamed_addr constant [11 x i8] c"          \00", align 1
@.str.76 = private unnamed_addr constant [19 x i8] c"CPU: %.*s%-30.30s\09\00", align 1
@reltable._ZN4Mesh12timer_outputE11mesh_timers17mesh_device_typesi = internal unnamed_addr constant [24 x i32] [i32 trunc (i64 sub (i64 ptrtoint (ptr @.str.113 to i64), i64 ptrtoint (ptr @reltable._ZN4Mesh12timer_outputE11mesh_timers17mesh_device_typesi to i64)) to i32), i32 trunc (i64 sub (i64 ptrtoint (ptr @.str.114 to i64), i64 ptrtoint (ptr @reltable._ZN4Mesh12timer_outputE11mesh_timers17mesh_device_typesi to i64)) to i32), i32 trunc (i64 sub (i64 ptrtoint (ptr @.str.115 to i64), i64 ptrtoint (ptr @reltable._ZN4Mesh12timer_outputE11mesh_timers17mesh_device_typesi to i64)) to i32), i32 trunc (i64 sub (i64 ptrtoint (ptr @.str.116 to i64), i64 ptrtoint (ptr @reltable._ZN4Mesh12timer_outputE11mesh_timers17mesh_device_typesi to i64)) to i32), i32 trunc (i64 sub (i64 ptrtoint (ptr @.str.117 to i64), i64 ptrtoint (ptr @reltable._ZN4Mesh12timer_outputE11mesh_timers17mesh_device_typesi to i64)) to i32), i32 trunc (i64 sub (i64 ptrtoint (ptr @.str.118 to i64), i64 ptrtoint (ptr @reltable._ZN4Mesh12timer_outputE11mesh_timers17mesh_device_typesi to i64)) to i32), i32 trunc (i64 sub (i64 ptrtoint (ptr @.str.119 to i64), i64 ptrtoint (ptr @reltable._ZN4Mesh12timer_outputE11mesh_timers17mesh_device_typesi to i64)) to i32), i32 trunc (i64 sub (i64 ptrtoint (ptr @.str.120 to i64), i64 ptrtoint (ptr @reltable._ZN4Mesh12timer_outputE11mesh_timers17mesh_device_typesi to i64)) to i32), i32 trunc (i64 sub (i64 ptrtoint (ptr @.str.121 to i64), i64 ptrtoint (ptr @reltable._ZN4Mesh12timer_outputE11mesh_timers17mesh_device_typesi to i64)) to i32), i32 trunc (i64 sub (i64 ptrtoint (ptr @.str.122 to i64), i64 ptrtoint (ptr @reltable._ZN4Mesh12timer_outputE11mesh_timers17mesh_device_typesi to i64)) to i32), i32 trunc (i64 sub (i64 ptrtoint (ptr @.str.123 to i64), i64 ptrtoint (ptr @reltable._ZN4Mesh12timer_outputE11mesh_timers17mesh_device_typesi to i64)) to i32), i32 trunc (i64 sub (i64 ptrtoint (ptr @.str.124 to i64), i64 ptrtoint (ptr @reltable._ZN4Mesh12timer_outputE11mesh_timers17mesh_device_typesi to i64)) to i32), i32 trunc (i64 sub (i64 ptrtoint (ptr @.str.125 to i64), i64 ptrtoint (ptr @reltable._ZN4Mesh12timer_outputE11mesh_timers17mesh_device_typesi to i64)) to i32), i32 trunc (i64 sub (i64 ptrtoint (ptr @.str.126 to i64), i64 ptrtoint (ptr @reltable._ZN4Mesh12timer_outputE11mesh_timers17mesh_device_typesi to i64)) to i32), i32 trunc (i64 sub (i64 ptrtoint (ptr @.str.127 to i64), i64 ptrtoint (ptr @reltable._ZN4Mesh12timer_outputE11mesh_timers17mesh_device_typesi to i64)) to i32), i32 trunc (i64 sub (i64 ptrtoint (ptr @.str.128 to i64), i64 ptrtoint (ptr @reltable._ZN4Mesh12timer_outputE11mesh_timers17mesh_device_typesi to i64)) to i32), i32 trunc (i64 sub (i64 ptrtoint (ptr @.str.129 to i64), i64 ptrtoint (ptr @reltable._ZN4Mesh12timer_outputE11mesh_timers17mesh_device_typesi to i64)) to i32), i32 trunc (i64 sub (i64 ptrtoint (ptr @.str.130 to i64), i64 ptrtoint (ptr @reltable._ZN4Mesh12timer_outputE11mesh_timers17mesh_device_typesi to i64)) to i32), i32 trunc (i64 sub (i64 ptrtoint (ptr @.str.131 to i64), i64 ptrtoint (ptr @reltable._ZN4Mesh12timer_outputE11mesh_timers17mesh_device_typesi to i64)) to i32), i32 trunc (i64 sub (i64 ptrtoint (ptr @.str.132 to i64), i64 ptrtoint (ptr @reltable._ZN4Mesh12timer_outputE11mesh_timers17mesh_device_typesi to i64)) to i32), i32 trunc (i64 sub (i64 ptrtoint (ptr @.str.133 to i64), i64 ptrtoint (ptr @reltable._ZN4Mesh12timer_outputE11mesh_timers17mesh_device_typesi to i64)) to i32), i32 trunc (i64 sub (i64 ptrtoint (ptr @.str.134 to i64), i64 ptrtoint (ptr @reltable._ZN4Mesh12timer_outputE11mesh_timers17mesh_device_typesi to i64)) to i32), i32 trunc (i64 sub (i64 ptrtoint (ptr @.str.135 to i64), i64 ptrtoint (ptr @reltable._ZN4Mesh12timer_outputE11mesh_timers17mesh_device_typesi to i64)) to i32), i32 trunc (i64 sub (i64 ptrtoint (ptr @.str.136 to i64), i64 ptrtoint (ptr @reltable._ZN4Mesh12timer_outputE11mesh_timers17mesh_device_typesi to i64)) to i32)], align 4
@.str.77 = private unnamed_addr constant [19 x i8] c"GPU: %.*s%-30.30s\09\00", align 1
@.str.78 = private unnamed_addr constant [2 x i8] c"s\00", align 1
@.str.79 = private unnamed_addr constant [4 x i8] c"%s\09\00", align 1
@.str.80 = private unnamed_addr constant [11 x i8] c"%.*s%8.4f\09\00", align 1
@.str.82 = private unnamed_addr constant [51 x i8] c"%.*s%8.4f\09%.*s%8.4f\09%.*s%8.4f   %s min/median/max\0A\00", align 1
@.str.83 = private unnamed_addr constant [12 x i8] c"%.*s%10lld\09\00", align 1
@.str.84 = private unnamed_addr constant [54 x i8] c"%.*s%10lld\09%.*s%10lld\09%.*s%10lld   %s min/median/max\0A\00", align 1
@.str.85 = private unnamed_addr constant [10 x i8] c"%.*s%10d\09\00", align 1
@.str.86 = private unnamed_addr constant [48 x i8] c"%.*s%10d\09%.*s%10d\09%.*s%10d   %s min/median/max\0A\00", align 1
@.str.87 = private unnamed_addr constant [8 x i8] c"storage\00", align 1
@.str.88 = private unnamed_addr constant [19 x i8] c"mesh_int_dist_vals\00", align 1
@.str.89 = private unnamed_addr constant [14 x i8] c"mesh_int_vals\00", align 1
@.str.90 = private unnamed_addr constant [17 x i8] c"mesh_double_vals\00", align 1
@.str.91 = private unnamed_addr constant [18 x i8] c"mesh_cpu_counters\00", align 1
@.str.92 = private unnamed_addr constant [18 x i8] c"mesh_gpu_counters\00", align 1
@.str.93 = private unnamed_addr constant [16 x i8] c"mesh_cpu_timers\00", align 1
@.str.94 = private unnamed_addr constant [16 x i8] c"mesh_gpu_timers\00", align 1
@.str.95 = private unnamed_addr constant [83 x i8] c"CRUX version mismatch for mesh data, version on file is %d, version in code is %d\0A\00", align 1
@.str.96 = private unnamed_addr constant [7 x i8] c"ncells\00", align 1
@.str.97 = private unnamed_addr constant [13 x i8] c"ncells_ghost\00", align 1
@.str.98 = private unnamed_addr constant [20 x i8] c"offtile_local_count\00", align 1
@.str.99 = private unnamed_addr constant [18 x i8] c"CRUX_MESH_VERSION\00", align 1
@.str.100 = private unnamed_addr constant [5 x i8] c"ndim\00", align 1
@.str.101 = private unnamed_addr constant [6 x i8] c"levmx\00", align 1
@.str.103 = private unnamed_addr constant [17 x i8] c"       %-30s %d\0A\00", align 1
@.str.105 = private unnamed_addr constant [20 x i8] c"offtile_ratio_local\00", align 1
@.str.107 = private unnamed_addr constant [18 x i8] c"       %-30s %lf\0A\00", align 1
@.str.112 = private unnamed_addr constant [19 x i8] c"       %-30s %lld\0A\00", align 1
@_ZTISt20bad_array_new_length = external constant ptr
@.str.113 = private unnamed_addr constant [21 x i8] c"mesh_timer_count_BCs\00", align 1
@.str.114 = private unnamed_addr constant [26 x i8] c"mesh_timer_calc_neighbors\00", align 1
@.str.115 = private unnamed_addr constant [22 x i8] c"mesh_timer_hash_setup\00", align 1
@.str.116 = private unnamed_addr constant [22 x i8] c"mesh_timer_hash_query\00", align 1
@.str.117 = private unnamed_addr constant [25 x i8] c"mesh_timer_find_boundary\00", align 1
@.str.118 = private unnamed_addr constant [22 x i8] c"mesh_timer_push_setup\00", align 1
@.str.119 = private unnamed_addr constant [25 x i8] c"mesh_timer_push_boundary\00", align 1
@.str.120 = private unnamed_addr constant [22 x i8] c"mesh_timer_local_list\00", align 1
@.str.121 = private unnamed_addr constant [18 x i8] c"mesh_timer_layer1\00", align 1
@.str.122 = private unnamed_addr constant [18 x i8] c"mesh_timer_layer2\00", align 1
@.str.123 = private unnamed_addr constant [22 x i8] c"mesh_timer_layer_list\00", align 1
@.str.124 = private unnamed_addr constant [26 x i8] c"mesh_timer_copy_mesh_data\00", align 1
@.str.125 = private unnamed_addr constant [27 x i8] c"mesh_timer_fill_mesh_ghost\00", align 1
@.str.126 = private unnamed_addr constant [28 x i8] c"mesh_timer_fill_neigh_ghost\00", align 1
@.str.127 = private unnamed_addr constant [28 x i8] c"mesh_timer_set_corner_neigh\00", align 1
@.str.128 = private unnamed_addr constant [24 x i8] c"mesh_timer_neigh_adjust\00", align 1
@.str.129 = private unnamed_addr constant [22 x i8] c"mesh_timer_setup_comm\00", align 1
@.str.130 = private unnamed_addr constant [24 x i8] c"mesh_timer_kdtree_setup\00", align 1
@.str.131 = private unnamed_addr constant [24 x i8] c"mesh_timer_kdtree_query\00", align 1
@.str.132 = private unnamed_addr constant [25 x i8] c"mesh_timer_refine_smooth\00", align 1
@.str.133 = private unnamed_addr constant [22 x i8] c"mesh_timer_rezone_all\00", align 1
@.str.134 = private unnamed_addr constant [21 x i8] c"mesh_timer_partition\00", align 1
@.str.135 = private unnamed_addr constant [36 x i8] c"mesh_timer_calc_spatial_coordinates\00", align 1
@.str.136 = private unnamed_addr constant [24 x i8] c"mesh_timer_load_balance\00", align 1
@.str.137 = private unnamed_addr constant [20 x i8] c"mesh_counter_rezone\00", align 1
@.str.138 = private unnamed_addr constant [27 x i8] c"mesh_counter_refine_smooth\00", align 1
@.str.139 = private unnamed_addr constant [24 x i8] c"mesh_counter_calc_neigh\00", align 1
@.str.140 = private unnamed_addr constant [26 x i8] c"mesh_counter_load_balance\00", align 1
@.str.141 = private unnamed_addr constant [7 x i8] c"vector\00", align 1
@_ZTISt12length_error = external constant ptr
@_ZTVSt12length_error = external unnamed_addr constant { [5 x ptr] }, align 8
@str = private unnamed_addr constant [52 x i8] c"Error -- cells read does not match number specified\00", align 1
@str.142 = private unnamed_addr constant [94 x i8] c"index orig index   i     j     lev   nlft  nrht  nbot  ntop   xlow    xhigh     ylow    yhigh\00", align 1
@str.143 = private unnamed_addr constant [31 x i8] c"Nonlocal case for the stencil.\00", align 1
@str.144 = private unnamed_addr constant [38 x i8] c"Using k-D tree to calculate neighbors\00", align 1
@str.145 = private unnamed_addr constant [41 x i8] c"Using hash tables to calculate neighbors\00", align 1
@str.146 = private unnamed_addr constant [29 x i8] c" ---- Mesh object info -----\00", align 1
@str.148 = private unnamed_addr constant [40 x i8] c"       === Restored mesh gpu timers ===\00", align 1
@str.150 = private unnamed_addr constant [40 x i8] c"       === Restored mesh cpu timers ===\00", align 1
@str.152 = private unnamed_addr constant [42 x i8] c"       === Restored mesh cpu counters ===\00", align 1
@str.154 = private unnamed_addr constant [42 x i8] c"       === Restored mesh gpu counters ===\00", align 1
@str.156 = private unnamed_addr constant [41 x i8] c"       === Restored mesh double_vals ===\00", align 1
@str.157 = private unnamed_addr constant [43 x i8] c"       === Restored mesh int_dist_vals ===\00", align 1
@str.159 = private unnamed_addr constant [38 x i8] c"       === Restored mesh int_vals ===\00", align 1

@_ZN4MeshC1EP8_IO_FILEPi = dso_local unnamed_addr alias void (ptr, ptr, ptr), ptr @_ZN4MeshC2EP8_IO_FILEPi
@_ZN4MeshC1Eiiiiddiii = dso_local unnamed_addr alias void (ptr, i32, i32, i32, i32, double, double, i32, i32, i32), ptr @_ZN4MeshC2Eiiiiddiii

; Function Attrs: mustprogress nofree nounwind uwtable
define dso_local void @_ZN4Mesh10write_gridEi(ptr nocapture noundef nonnull readonly align 8 dereferenceable(2192) %this, i32 noundef %ncycle) local_unnamed_addr #0 align 2 {
entry:
  %filename = alloca [20 x i8], align 16
  call void @llvm.lifetime.start.p0(i64 20, ptr nonnull %filename) #32
  %spec.store.select = tail call i32 @llvm.smax.i32(i32 %ncycle, i32 0)
  %call = call i32 (ptr, ptr, ...) @sprintf(ptr noundef nonnull dereferenceable(1) %filename, ptr noundef nonnull dereferenceable(1) @.str, i32 noundef %spec.store.select) #32
  %call3 = call ptr @fopen(ptr noundef nonnull %filename, ptr noundef nonnull @.str.1)
  %xmin = getelementptr inbounds %class.Mesh, ptr %this, i64 0, i32 48
  %0 = load double, ptr %xmin, align 8, !tbaa !5
  %ymin = getelementptr inbounds %class.Mesh, ptr %this, i64 0, i32 50
  %1 = load double, ptr %ymin, align 8, !tbaa !36
  %xmax = getelementptr inbounds %class.Mesh, ptr %this, i64 0, i32 49
  %2 = load double, ptr %xmax, align 8, !tbaa !37
  %ymax = getelementptr inbounds %class.Mesh, ptr %this, i64 0, i32 51
  %3 = load double, ptr %ymax, align 8, !tbaa !38
  %call4 = tail call i32 (ptr, ptr, ...) @fprintf(ptr noundef %call3, ptr noundef nonnull @.str.2, double noundef %0, double noundef %1, double noundef %2, double noundef %3)
  %ncells = getelementptr inbounds %class.Mesh, ptr %this, i64 0, i32 45
  %4 = load i64, ptr %ncells, align 8, !tbaa !39
  %cmp5126.not = icmp eq i64 %4, 0
  br i1 %cmp5126.not, label %for.cond.cleanup, label %for.body.lr.ph

for.body.lr.ph:                                   ; preds = %entry
  %x = getelementptr inbounds %class.Mesh, ptr %this, i64 0, i32 75
  %y = getelementptr inbounds %class.Mesh, ptr %this, i64 0, i32 77
  %dx = getelementptr inbounds %class.Mesh, ptr %this, i64 0, i32 76
  %dy = getelementptr inbounds %class.Mesh, ptr %this, i64 0, i32 78
  br label %for.body

for.cond.cleanup:                                 ; preds = %for.body, %entry
  %x22 = getelementptr inbounds %class.Mesh, ptr %this, i64 0, i32 75
  %5 = load ptr, ptr %x22, align 8, !tbaa !40
  %6 = load double, ptr %5, align 8, !tbaa !41
  %dx24 = getelementptr inbounds %class.Mesh, ptr %this, i64 0, i32 76
  %7 = load ptr, ptr %dx24, align 8, !tbaa !40
  %8 = load double, ptr %7, align 8, !tbaa !41
  %mul = fmul double %8, 5.000000e-01
  %add26 = fadd double %6, %mul
  %y27 = getelementptr inbounds %class.Mesh, ptr %this, i64 0, i32 77
  %9 = load ptr, ptr %y27, align 8, !tbaa !40
  %10 = load double, ptr %9, align 8, !tbaa !41
  %dy29 = getelementptr inbounds %class.Mesh, ptr %this, i64 0, i32 78
  %11 = load ptr, ptr %dy29, align 8, !tbaa !40
  %12 = load double, ptr %11, align 8, !tbaa !41
  %mul31 = fmul double %12, 5.000000e-01
  %add32 = fadd double %10, %mul31
  %call33 = tail call i32 (ptr, ptr, ...) @fprintf(ptr noundef %call3, ptr noundef nonnull @.str.4, double noundef %add26, double noundef %add32)
  %13 = load i64, ptr %ncells, align 8, !tbaa !39
  %cmp38129 = icmp ugt i64 %13, 1
  br i1 %cmp38129, label %for.body40, label %for.cond62.preheader

for.body:                                         ; preds = %for.body.lr.ph, %for.body
  %conv128 = phi i64 [ 0, %for.body.lr.ph ], [ %conv, %for.body ]
  %14 = load ptr, ptr %x, align 8, !tbaa !40
  %arrayidx.i = getelementptr inbounds double, ptr %14, i64 %conv128
  %15 = load double, ptr %arrayidx.i, align 8, !tbaa !41
  %16 = load ptr, ptr %y, align 8, !tbaa !40
  %arrayidx.i113 = getelementptr inbounds double, ptr %16, i64 %conv128
  %17 = load double, ptr %arrayidx.i113, align 8, !tbaa !41
  %18 = load ptr, ptr %dx, align 8, !tbaa !40
  %arrayidx.i115 = getelementptr inbounds double, ptr %18, i64 %conv128
  %19 = load double, ptr %arrayidx.i115, align 8, !tbaa !41
  %add = fadd double %15, %19
  %20 = load ptr, ptr %dy, align 8, !tbaa !40
  %arrayidx.i117 = getelementptr inbounds double, ptr %20, i64 %conv128
  %21 = load double, ptr %arrayidx.i117, align 8, !tbaa !41
  %add20 = fadd double %17, %21
  %call21 = tail call i32 (ptr, ptr, ...) @fprintf(ptr noundef %call3, ptr noundef nonnull @.str.3, double noundef %15, double noundef %17, double noundef %add, double noundef %add20)
  %inc = add nuw nsw i64 %conv128, 1
  %conv = and i64 %inc, 4294967295
  %22 = load i64, ptr %ncells, align 8, !tbaa !39
  %cmp5 = icmp ugt i64 %22, %conv
  br i1 %cmp5, label %for.body, label %for.cond.cleanup, !llvm.loop !42

for.cond62.preheader:                             ; preds = %for.body40, %for.cond.cleanup
  %23 = phi i64 [ %13, %for.cond.cleanup ], [ %32, %for.body40 ]
  %cmp65132.not = icmp eq i64 %23, 0
  br i1 %cmp65132.not, label %for.cond.cleanup66, label %for.body67

for.body40:                                       ; preds = %for.cond.cleanup, %for.body40
  %conv36131 = phi i64 [ %conv36, %for.body40 ], [ 1, %for.cond.cleanup ]
  %24 = load ptr, ptr %x22, align 8, !tbaa !40
  %arrayidx.i118 = getelementptr inbounds double, ptr %24, i64 %conv36131
  %25 = load double, ptr %arrayidx.i118, align 8, !tbaa !41
  %26 = load ptr, ptr %dx24, align 8, !tbaa !40
  %arrayidx.i119 = getelementptr inbounds double, ptr %26, i64 %conv36131
  %27 = load double, ptr %arrayidx.i119, align 8, !tbaa !41
  %mul47 = fmul double %27, 5.000000e-01
  %add48 = fadd double %25, %mul47
  %28 = load ptr, ptr %y27, align 8, !tbaa !40
  %arrayidx.i120 = getelementptr inbounds double, ptr %28, i64 %conv36131
  %29 = load double, ptr %arrayidx.i120, align 8, !tbaa !41
  %30 = load ptr, ptr %dy29, align 8, !tbaa !40
  %arrayidx.i121 = getelementptr inbounds double, ptr %30, i64 %conv36131
  %31 = load double, ptr %arrayidx.i121, align 8, !tbaa !41
  %mul55 = fmul double %31, 5.000000e-01
  %add56 = fadd double %29, %mul55
  %call57 = tail call i32 (ptr, ptr, ...) @fprintf(ptr noundef %call3, ptr noundef nonnull @.str.5, double noundef %add48, double noundef %add56)
  %inc59 = add nuw nsw i64 %conv36131, 1
  %conv36 = and i64 %inc59, 4294967295
  %32 = load i64, ptr %ncells, align 8, !tbaa !39
  %cmp38 = icmp ugt i64 %32, %conv36
  br i1 %cmp38, label %for.body40, label %for.cond62.preheader, !llvm.loop !44

for.cond.cleanup66:                               ; preds = %for.body67, %for.cond62.preheader
  %call88 = tail call i32 @fclose(ptr noundef %call3)
  call void @llvm.lifetime.end.p0(i64 20, ptr nonnull %filename) #32
  ret void

for.body67:                                       ; preds = %for.cond62.preheader, %for.body67
  %conv63134 = phi i64 [ %conv63, %for.body67 ], [ 0, %for.cond62.preheader ]
  %indvars136 = trunc i64 %conv63134 to i32
  %33 = load ptr, ptr %x22, align 8, !tbaa !40
  %arrayidx.i122 = getelementptr inbounds double, ptr %33, i64 %conv63134
  %34 = load double, ptr %arrayidx.i122, align 8, !tbaa !41
  %35 = load ptr, ptr %dx24, align 8, !tbaa !40
  %arrayidx.i123 = getelementptr inbounds double, ptr %35, i64 %conv63134
  %36 = load double, ptr %arrayidx.i123, align 8, !tbaa !41
  %mul74 = fmul double %36, 5.000000e-01
  %add75 = fadd double %34, %mul74
  %37 = load ptr, ptr %y27, align 8, !tbaa !40
  %arrayidx.i124 = getelementptr inbounds double, ptr %37, i64 %conv63134
  %38 = load double, ptr %arrayidx.i124, align 8, !tbaa !41
  %39 = load ptr, ptr %dy29, align 8, !tbaa !40
  %arrayidx.i125 = getelementptr inbounds double, ptr %39, i64 %conv63134
  %40 = load double, ptr %arrayidx.i125, align 8, !tbaa !41
  %mul82 = fmul double %40, 5.000000e-01
  %add83 = fadd double %38, %mul82
  %call84 = tail call i32 (ptr, ptr, ...) @fprintf(ptr noundef %call3, ptr noundef nonnull @.str.6, double noundef %add75, double noundef %add83, i32 noundef %indvars136)
  %inc86 = add nuw nsw i64 %conv63134, 1
  %conv63 = and i64 %inc86, 4294967295
  %41 = load i64, ptr %ncells, align 8, !tbaa !39
  %cmp65 = icmp ugt i64 %41, %conv63
  br i1 %cmp65, label %for.body67, label %for.cond.cleanup66, !llvm.loop !45
}

; Function Attrs: mustprogress nocallback nofree nosync nounwind willreturn memory(argmem: readwrite)
declare void @llvm.lifetime.start.p0(i64 immarg, ptr nocapture) #1

; Function Attrs: nofree nounwind
declare noundef i32 @sprintf(ptr noalias nocapture noundef writeonly, ptr nocapture noundef readonly, ...) local_unnamed_addr #2

; Function Attrs: nofree nounwind
declare noalias noundef ptr @fopen(ptr nocapture noundef readonly, ptr nocapture noundef readonly) local_unnamed_addr #2

; Function Attrs: nofree nounwind
declare noundef i32 @fprintf(ptr nocapture noundef, ptr nocapture noundef readonly, ...) local_unnamed_addr #2

; Function Attrs: mustprogress nocallback nofree nosync nounwind willreturn memory(argmem: readwrite)
declare void @llvm.lifetime.end.p0(i64 immarg, ptr nocapture) #1

; Function Attrs: nofree nounwind
declare noundef i32 @fclose(ptr nocapture noundef) local_unnamed_addr #2

; Function Attrs: uwtable
define dso_local void @_ZN4MeshC2EP8_IO_FILEPi(ptr noundef nonnull align 8 dereferenceable(2192) %this, ptr nocapture noundef %fin, ptr noundef %numpe) unnamed_addr #3 align 2 personality ptr @__gxx_personality_v0 {
entry:
  %string = alloca [80 x i8], align 16
  %trand = alloca i64, align 8
  %mesh_memory = getelementptr inbounds %class.Mesh, ptr %this, i64 0, i32 1
  %__pair1_.i.i.i = getelementptr inbounds %class.Mesh, ptr %this, i64 0, i32 1, i32 0, i32 0, i32 1
  tail call void @llvm.memset.p0.i64(ptr noundef nonnull align 8 dereferenceable(16) %__pair1_.i.i.i, i8 0, i64 16, i1 false)
  store ptr %__pair1_.i.i.i, ptr %mesh_memory, align 8, !tbaa !46
  %memory_ptr_dict.i = getelementptr inbounds %class.Mesh, ptr %this, i64 0, i32 1, i32 1
  %__pair1_.i.i2.i = getelementptr inbounds %class.Mesh, ptr %this, i64 0, i32 1, i32 1, i32 0, i32 1
  tail call void @llvm.memset.p0.i64(ptr noundef nonnull align 8 dereferenceable(16) %__pair1_.i.i2.i, i8 0, i64 16, i1 false)
  store ptr %__pair1_.i.i2.i, ptr %memory_ptr_dict.i, align 8, !tbaa !46
  %gpu_mesh_memory = getelementptr inbounds %class.Mesh, ptr %this, i64 0, i32 2
  %__pair1_.i.i.i164 = getelementptr inbounds %class.Mesh, ptr %this, i64 0, i32 2, i32 0, i32 0, i32 1
  tail call void @llvm.memset.p0.i64(ptr noundef nonnull align 8 dereferenceable(16) %__pair1_.i.i.i164, i8 0, i64 16, i1 false)
  store ptr %__pair1_.i.i.i164, ptr %gpu_mesh_memory, align 8, !tbaa !46
  %memory_ptr_dict.i165 = getelementptr inbounds %class.Mesh, ptr %this, i64 0, i32 2, i32 1
  %__pair1_.i.i2.i166 = getelementptr inbounds %class.Mesh, ptr %this, i64 0, i32 2, i32 1, i32 0, i32 1
  tail call void @llvm.memset.p0.i64(ptr noundef nonnull align 8 dereferenceable(16) %__pair1_.i.i2.i166, i8 0, i64 16, i1 false)
  store ptr %__pair1_.i.i2.i166, ptr %memory_ptr_dict.i165, align 8, !tbaa !46
  %corners_i = getelementptr inbounds %class.Mesh, ptr %this, i64 0, i32 19
  %corners_j = getelementptr inbounds %class.Mesh, ptr %this, i64 0, i32 20
  %nsizes = getelementptr inbounds %class.Mesh, ptr %this, i64 0, i32 21
  %ndispl = getelementptr inbounds %class.Mesh, ptr %this, i64 0, i32 22
  %proc = getelementptr inbounds %class.Mesh, ptr %this, i64 0, i32 25
  %lev_ibegin = getelementptr inbounds %class.Mesh, ptr %this, i64 0, i32 26
  %lev_iend = getelementptr inbounds %class.Mesh, ptr %this, i64 0, i32 27
  %lev_jbegin = getelementptr inbounds %class.Mesh, ptr %this, i64 0, i32 28
  %lev_jend = getelementptr inbounds %class.Mesh, ptr %this, i64 0, i32 29
  %lev_kbegin = getelementptr inbounds %class.Mesh, ptr %this, i64 0, i32 30
  %lev_kend = getelementptr inbounds %class.Mesh, ptr %this, i64 0, i32 31
  %levtable = getelementptr inbounds %class.Mesh, ptr %this, i64 0, i32 32
  %lev_deltax = getelementptr inbounds %class.Mesh, ptr %this, i64 0, i32 33
  %lev_deltay = getelementptr inbounds %class.Mesh, ptr %this, i64 0, i32 34
  %lev_deltaz = getelementptr inbounds %class.Mesh, ptr %this, i64 0, i32 35
  %index = getelementptr inbounds %class.Mesh, ptr %this, i64 0, i32 63
  tail call void @llvm.memset.p0.i64(ptr noundef nonnull align 8 dereferenceable(24) %index, i8 0, i64 24, i1 false)
  %x = getelementptr inbounds %class.Mesh, ptr %this, i64 0, i32 75
  %dx = getelementptr inbounds %class.Mesh, ptr %this, i64 0, i32 76
  %y = getelementptr inbounds %class.Mesh, ptr %this, i64 0, i32 77
  %dy = getelementptr inbounds %class.Mesh, ptr %this, i64 0, i32 78
  %z = getelementptr inbounds %class.Mesh, ptr %this, i64 0, i32 79
  %dz = getelementptr inbounds %class.Mesh, ptr %this, i64 0, i32 80
  %xface_i = getelementptr inbounds %class.Mesh, ptr %this, i64 0, i32 83
  %xface_j = getelementptr inbounds %class.Mesh, ptr %this, i64 0, i32 84
  %xface_level = getelementptr inbounds %class.Mesh, ptr %this, i64 0, i32 85
  %map_xface2cell_lower = getelementptr inbounds %class.Mesh, ptr %this, i64 0, i32 86
  %map_xface2cell_upper = getelementptr inbounds %class.Mesh, ptr %this, i64 0, i32 87
  %map_xcell2face_left1 = getelementptr inbounds %class.Mesh, ptr %this, i64 0, i32 88
  %map_xcell2face_left2 = getelementptr inbounds %class.Mesh, ptr %this, i64 0, i32 89
  %map_xcell2face_right1 = getelementptr inbounds %class.Mesh, ptr %this, i64 0, i32 90
  %map_xcell2face_right2 = getelementptr inbounds %class.Mesh, ptr %this, i64 0, i32 91
  %ixmin_level = getelementptr inbounds %class.Mesh, ptr %this, i64 0, i32 92
  %ixmax_level = getelementptr inbounds %class.Mesh, ptr %this, i64 0, i32 93
  %jxmin_level = getelementptr inbounds %class.Mesh, ptr %this, i64 0, i32 94
  %jxmax_level = getelementptr inbounds %class.Mesh, ptr %this, i64 0, i32 95
  %ixadjust = getelementptr inbounds %class.Mesh, ptr %this, i64 0, i32 96
  %jxadjust = getelementptr inbounds %class.Mesh, ptr %this, i64 0, i32 97
  %yface_i = getelementptr inbounds %class.Mesh, ptr %this, i64 0, i32 98
  %yface_j = getelementptr inbounds %class.Mesh, ptr %this, i64 0, i32 99
  %yface_level = getelementptr inbounds %class.Mesh, ptr %this, i64 0, i32 100
  %map_yface2cell_lower = getelementptr inbounds %class.Mesh, ptr %this, i64 0, i32 101
  %map_yface2cell_upper = getelementptr inbounds %class.Mesh, ptr %this, i64 0, i32 102
  %map_ycell2face_bot1 = getelementptr inbounds %class.Mesh, ptr %this, i64 0, i32 103
  %map_ycell2face_bot2 = getelementptr inbounds %class.Mesh, ptr %this, i64 0, i32 104
  %map_ycell2face_top1 = getelementptr inbounds %class.Mesh, ptr %this, i64 0, i32 105
  %map_ycell2face_top2 = getelementptr inbounds %class.Mesh, ptr %this, i64 0, i32 106
  %iymin_level = getelementptr inbounds %class.Mesh, ptr %this, i64 0, i32 107
  %iymax_level = getelementptr inbounds %class.Mesh, ptr %this, i64 0, i32 108
  %jymin_level = getelementptr inbounds %class.Mesh, ptr %this, i64 0, i32 109
  %jymax_level = getelementptr inbounds %class.Mesh, ptr %this, i64 0, i32 110
  %iyadjust = getelementptr inbounds %class.Mesh, ptr %this, i64 0, i32 111
  %jyadjust = getelementptr inbounds %class.Mesh, ptr %this, i64 0, i32 112
  tail call void @llvm.memset.p0.i64(ptr noundef nonnull align 8 dereferenceable(96) %corners_i, i8 0, i64 96, i1 false)
  tail call void @llvm.memset.p0.i64(ptr noundef nonnull align 8 dereferenceable(264) %proc, i8 0, i64 264, i1 false)
  tail call void @llvm.memset.p0.i64(ptr noundef nonnull align 8 dereferenceable(144) %x, i8 0, i64 144, i1 false)
  tail call void @llvm.memset.p0.i64(ptr noundef nonnull align 8 dereferenceable(720) %xface_i, i8 0, i64 720, i1 false)
  call void @llvm.lifetime.start.p0(i64 80, ptr nonnull %string) #32
  %ibase = getelementptr inbounds %class.Mesh, ptr %this, i64 0, i32 38
  store i32 1, ptr %ibase, align 8, !tbaa !47
  call void @llvm.lifetime.start.p0(i64 8, ptr nonnull %trand) #32
  %call = call i64 @time(ptr noundef nonnull %trand) #32
  %0 = load i64, ptr %trand, align 8, !tbaa !48
  call void @srand48(i64 noundef %0) #32
  %call2 = call ptr @fgets(ptr noundef nonnull %string, i32 noundef 80, ptr noundef %fin)
  %cmp = icmp eq ptr %call2, null
  br i1 %cmp, label %if.then, label %if.end

if.then:                                          ; preds = %entry
  call void @exit(i32 noundef -1) #33
  unreachable

lpad:                                             ; preds = %call3.i.noexc, %call.i.noexc, %invoke.cont65, %if.then.i
  %1 = landingpad { ptr, i32 }
          cleanup
  br label %ehcleanup

if.end:                                           ; preds = %entry
  %levmx = getelementptr inbounds %class.Mesh, ptr %this, i64 0, i32 36
  %call4 = call i32 (ptr, ptr, ...) @sscanf(ptr noundef nonnull %string, ptr noundef nonnull @.str.7, ptr noundef nonnull %levmx) #32
  %call7 = call ptr @fgets(ptr noundef nonnull %string, i32 noundef 80, ptr noundef %fin)
  %cmp8 = icmp eq ptr %call7, null
  br i1 %cmp8, label %if.then9, label %if.end10

if.then9:                                         ; preds = %if.end
  call void @exit(i32 noundef -1) #33
  unreachable

if.end10:                                         ; preds = %if.end
  %ncells = getelementptr inbounds %class.Mesh, ptr %this, i64 0, i32 45
  %call12 = call i32 (ptr, ptr, ...) @sscanf(ptr noundef nonnull %string, ptr noundef nonnull @.str.8, ptr noundef nonnull %ncells) #32
  %call15 = call ptr @fgets(ptr noundef nonnull %string, i32 noundef 80, ptr noundef %fin)
  %cmp16 = icmp eq ptr %call15, null
  br i1 %cmp16, label %if.then17, label %if.end18

if.then17:                                        ; preds = %if.end10
  call void @exit(i32 noundef -1) #33
  unreachable

if.end18:                                         ; preds = %if.end10
  %call20 = call i32 (ptr, ptr, ...) @sscanf(ptr noundef nonnull %string, ptr noundef nonnull @.str.9, ptr noundef %numpe) #32
  %call23 = call ptr @fgets(ptr noundef nonnull %string, i32 noundef 80, ptr noundef %fin)
  %cmp24 = icmp eq ptr %call23, null
  br i1 %cmp24, label %if.then25, label %if.end26

if.then25:                                        ; preds = %if.end18
  call void @exit(i32 noundef -1) #33
  unreachable

if.end26:                                         ; preds = %if.end18
  %call28 = call i32 (ptr, ptr, ...) @sscanf(ptr noundef nonnull %string, ptr noundef nonnull @.str.10, ptr noundef nonnull %this) #32
  %call31 = call ptr @fgets(ptr noundef nonnull %string, i32 noundef 80, ptr noundef %fin)
  %cmp32 = icmp eq ptr %call31, null
  br i1 %cmp32, label %if.then33, label %if.end34

if.then33:                                        ; preds = %if.end26
  call void @exit(i32 noundef -1) #33
  unreachable

if.end34:                                         ; preds = %if.end26
  %xmin = getelementptr inbounds %class.Mesh, ptr %this, i64 0, i32 48
  %deltax = getelementptr inbounds %class.Mesh, ptr %this, i64 0, i32 60
  %call36 = call i32 (ptr, ptr, ...) @sscanf(ptr noundef nonnull %string, ptr noundef nonnull @.str.11, ptr noundef nonnull %xmin, ptr noundef nonnull %deltax) #32
  %call39 = call ptr @fgets(ptr noundef nonnull %string, i32 noundef 80, ptr noundef %fin)
  %cmp40 = icmp eq ptr %call39, null
  br i1 %cmp40, label %if.then41, label %if.end42

if.then41:                                        ; preds = %if.end34
  call void @exit(i32 noundef -1) #33
  unreachable

if.end42:                                         ; preds = %if.end34
  %ymin = getelementptr inbounds %class.Mesh, ptr %this, i64 0, i32 50
  %deltay = getelementptr inbounds %class.Mesh, ptr %this, i64 0, i32 61
  %call44 = call i32 (ptr, ptr, ...) @sscanf(ptr noundef nonnull %string, ptr noundef nonnull @.str.12, ptr noundef nonnull %ymin, ptr noundef nonnull %deltay) #32
  %2 = load i32, ptr %this, align 8, !tbaa !49
  %cmp46 = icmp eq i32 %2, 3
  br i1 %cmp46, label %if.then47, label %if.end56

if.then47:                                        ; preds = %if.end42
  %call50 = call ptr @fgets(ptr noundef nonnull %string, i32 noundef 80, ptr noundef %fin)
  %cmp51 = icmp eq ptr %call50, null
  br i1 %cmp51, label %if.then52, label %if.end53

if.then52:                                        ; preds = %if.then47
  call void @exit(i32 noundef -1) #33
  unreachable

if.end53:                                         ; preds = %if.then47
  %zmin = getelementptr inbounds %class.Mesh, ptr %this, i64 0, i32 52
  %deltaz = getelementptr inbounds %class.Mesh, ptr %this, i64 0, i32 62
  %call55 = call i32 (ptr, ptr, ...) @sscanf(ptr noundef nonnull %string, ptr noundef nonnull @.str.13, ptr noundef nonnull %zmin, ptr noundef nonnull %deltaz) #32
  br label %if.end56

if.end56:                                         ; preds = %if.end53, %if.end42
  %call59 = call ptr @fgets(ptr noundef nonnull %string, i32 noundef 80, ptr noundef %fin)
  %cmp60 = icmp eq ptr %call59, null
  br i1 %cmp60, label %if.then61, label %if.end62

if.then61:                                        ; preds = %if.end56
  call void @exit(i32 noundef -1) #33
  unreachable

if.end62:                                         ; preds = %if.end56
  %3 = load i64, ptr %ncells, align 8, !tbaa !39
  %__end_.i.i = getelementptr inbounds %class.Mesh, ptr %this, i64 0, i32 63, i32 1
  %4 = load ptr, ptr %__end_.i.i, align 8, !tbaa !50
  %5 = load ptr, ptr %index, align 8, !tbaa !51
  %sub.ptr.lhs.cast.i.i = ptrtoint ptr %4 to i64
  %sub.ptr.rhs.cast.i.i = ptrtoint ptr %5 to i64
  %sub.ptr.sub.i.i = sub i64 %sub.ptr.lhs.cast.i.i, %sub.ptr.rhs.cast.i.i
  %sub.ptr.div.i.i = ashr exact i64 %sub.ptr.sub.i.i, 2
  %cmp.i = icmp ugt i64 %3, %sub.ptr.div.i.i
  br i1 %cmp.i, label %if.then.i, label %if.else.i

if.then.i:                                        ; preds = %if.end62
  %sub.i = sub i64 %3, %sub.ptr.div.i.i
  invoke void @_ZNSt3__16vectorIiNS_9allocatorIiEEE8__appendEm(ptr noundef nonnull align 8 dereferenceable(24) %index, i64 noundef %sub.i)
          to label %if.then.i.invoke.cont65_crit_edge unwind label %lpad

if.then.i.invoke.cont65_crit_edge:                ; preds = %if.then.i
  %.pre = load i64, ptr %ncells, align 8, !tbaa !39
  br label %invoke.cont65

if.else.i:                                        ; preds = %if.end62
  %cmp2.i = icmp ult i64 %3, %sub.ptr.div.i.i
  br i1 %cmp2.i, label %if.then3.i, label %invoke.cont65

if.then3.i:                                       ; preds = %if.else.i
  %add.ptr.i = getelementptr inbounds i32, ptr %5, i64 %3
  store ptr %add.ptr.i, ptr %__end_.i.i, align 8, !tbaa !50
  br label %invoke.cont65

invoke.cont65:                                    ; preds = %if.then.i.invoke.cont65_crit_edge, %if.then3.i, %if.else.i
  %6 = phi i64 [ %.pre, %if.then.i.invoke.cont65_crit_edge ], [ %3, %if.then3.i ], [ %3, %if.else.i ]
  %call.i167 = invoke noundef ptr @_ZN10MallocPlus13memory_mallocEmmPKci(ptr noundef nonnull align 8 dereferenceable(48) %mesh_memory, i64 noundef %6, i64 noundef 4, ptr noundef nonnull @.str.50, i32 noundef 16)
          to label %call.i.noexc unwind label %lpad

call.i.noexc:                                     ; preds = %invoke.cont65
  %i.i = getelementptr inbounds %class.Mesh, ptr %this, i64 0, i32 64
  store ptr %call.i167, ptr %i.i, align 8, !tbaa !52
  %call3.i168 = invoke noundef ptr @_ZN10MallocPlus13memory_mallocEmmPKci(ptr noundef nonnull align 8 dereferenceable(48) %mesh_memory, i64 noundef %6, i64 noundef 4, ptr noundef nonnull @.str.51, i32 noundef 16)
          to label %call3.i.noexc unwind label %lpad

call3.i.noexc:                                    ; preds = %call.i.noexc
  %j.i = getelementptr inbounds %class.Mesh, ptr %this, i64 0, i32 65
  store ptr %call3.i168, ptr %j.i, align 8, !tbaa !53
  %call5.i169 = invoke noundef ptr @_ZN10MallocPlus13memory_mallocEmmPKci(ptr noundef nonnull align 8 dereferenceable(48) %mesh_memory, i64 noundef %6, i64 noundef 4, ptr noundef nonnull @.str.52, i32 noundef 16)
          to label %_ZN4Mesh8allocateEm.exit unwind label %lpad

_ZN4Mesh8allocateEm.exit:                         ; preds = %call3.i.noexc
  %level.i = getelementptr inbounds %class.Mesh, ptr %this, i64 0, i32 67
  store ptr %call5.i169, ptr %level.i, align 8, !tbaa !54
  %call71373 = call ptr @fgets(ptr noundef nonnull %string, i32 noundef 80, ptr noundef %fin)
  %cmp72.not374 = icmp eq ptr %call71373, null
  br i1 %cmp72.not374, label %while.end, label %while.body

while.body:                                       ; preds = %_ZN4Mesh8allocateEm.exit, %while.body
  %ic.0375 = phi i32 [ %inc, %while.body ], [ 0, %_ZN4Mesh8allocateEm.exit ]
  %conv = zext i32 %ic.0375 to i64
  %7 = load ptr, ptr %index, align 8, !tbaa !51
  %arrayidx.i = getelementptr inbounds i32, ptr %7, i64 %conv
  %8 = load ptr, ptr %i.i, align 8, !tbaa !52
  %arrayidx = getelementptr inbounds i32, ptr %8, i64 %conv
  %9 = load ptr, ptr %j.i, align 8, !tbaa !53
  %arrayidx77 = getelementptr inbounds i32, ptr %9, i64 %conv
  %10 = load ptr, ptr %level.i, align 8, !tbaa !54
  %arrayidx79 = getelementptr inbounds i32, ptr %10, i64 %conv
  %call80 = call i32 (ptr, ptr, ...) @sscanf(ptr noundef nonnull %string, ptr noundef nonnull @.str.14, ptr noundef nonnull %arrayidx.i, ptr noundef %arrayidx, ptr noundef %arrayidx77, ptr noundef %arrayidx79) #32
  %inc = add i32 %ic.0375, 1
  %call71 = call ptr @fgets(ptr noundef nonnull %string, i32 noundef 80, ptr noundef %fin)
  %cmp72.not = icmp eq ptr %call71, null
  br i1 %cmp72.not, label %while.end, label %while.body, !llvm.loop !55

lpad69:                                           ; preds = %invoke.cont83, %while.end
  %11 = landingpad { ptr, i32 }
          cleanup
  br label %ehcleanup

while.end:                                        ; preds = %while.body, %_ZN4Mesh8allocateEm.exit
  %ic.0.lcssa = phi i32 [ 0, %_ZN4Mesh8allocateEm.exit ], [ %inc, %while.body ]
  store i32 0, ptr %ibase, align 8, !tbaa !47
  invoke void @_ZN4Mesh24calc_spatial_coordinatesEi(ptr noundef nonnull align 8 dereferenceable(2192) %this, i32 noundef 0)
          to label %invoke.cont83 unwind label %lpad69

invoke.cont83:                                    ; preds = %while.end
  %tree84 = getelementptr inbounds %class.Mesh, ptr %this, i64 0, i32 24
  invoke void @KDTree_Initialize(ptr noundef nonnull %tree84)
          to label %invoke.cont85 unwind label %lpad69

invoke.cont85:                                    ; preds = %invoke.cont83
  call void @_ZN4Mesh5printEv(ptr noundef nonnull align 8 dereferenceable(2192) %this)
  %conv87 = zext i32 %ic.0.lcssa to i64
  %12 = load i64, ptr %ncells, align 8, !tbaa !39
  %cmp89.not = icmp eq i64 %12, %conv87
  br i1 %cmp89.not, label %if.end93, label %if.then90

if.then90:                                        ; preds = %invoke.cont85
  %puts = call i32 @puts(ptr nonnull dereferenceable(1) @str)
  br label %if.end93

if.end93:                                         ; preds = %if.then90, %invoke.cont85
  call void @llvm.lifetime.end.p0(i64 8, ptr nonnull %trand) #32
  call void @llvm.lifetime.end.p0(i64 80, ptr nonnull %string) #32
  ret void

ehcleanup:                                        ; preds = %lpad69, %lpad
  %.pn = phi { ptr, i32 } [ %11, %lpad69 ], [ %1, %lpad ]
  call void @llvm.lifetime.end.p0(i64 8, ptr nonnull %trand) #32
  call void @llvm.lifetime.end.p0(i64 80, ptr nonnull %string) #32
  %13 = load ptr, ptr %jyadjust, align 8, !tbaa !51
  %cmp.not.i.i = icmp eq ptr %13, null
  br i1 %cmp.not.i.i, label %_ZNSt3__16vectorIiNS_9allocatorIiEEED2B7v170000Ev.exit, label %if.then.i.i

if.then.i.i:                                      ; preds = %ehcleanup
  %__end_.i.i.i.i = getelementptr inbounds %class.Mesh, ptr %this, i64 0, i32 112, i32 1
  store ptr %13, ptr %__end_.i.i.i.i, align 8, !tbaa !50
  call void @_ZdlPv(ptr noundef nonnull %13) #34
  br label %_ZNSt3__16vectorIiNS_9allocatorIiEEED2B7v170000Ev.exit

_ZNSt3__16vectorIiNS_9allocatorIiEEED2B7v170000Ev.exit: ; preds = %ehcleanup, %if.then.i.i
  %14 = load ptr, ptr %iyadjust, align 8, !tbaa !51
  %cmp.not.i.i170 = icmp eq ptr %14, null
  br i1 %cmp.not.i.i170, label %_ZNSt3__16vectorIiNS_9allocatorIiEEED2B7v170000Ev.exit173, label %if.then.i.i172

if.then.i.i172:                                   ; preds = %_ZNSt3__16vectorIiNS_9allocatorIiEEED2B7v170000Ev.exit
  %__end_.i.i.i.i171 = getelementptr inbounds %class.Mesh, ptr %this, i64 0, i32 111, i32 1
  store ptr %14, ptr %__end_.i.i.i.i171, align 8, !tbaa !50
  call void @_ZdlPv(ptr noundef nonnull %14) #34
  br label %_ZNSt3__16vectorIiNS_9allocatorIiEEED2B7v170000Ev.exit173

_ZNSt3__16vectorIiNS_9allocatorIiEEED2B7v170000Ev.exit173: ; preds = %_ZNSt3__16vectorIiNS_9allocatorIiEEED2B7v170000Ev.exit, %if.then.i.i172
  %15 = load ptr, ptr %jymax_level, align 8, !tbaa !51
  %cmp.not.i.i174 = icmp eq ptr %15, null
  br i1 %cmp.not.i.i174, label %_ZNSt3__16vectorIiNS_9allocatorIiEEED2B7v170000Ev.exit177, label %if.then.i.i176

if.then.i.i176:                                   ; preds = %_ZNSt3__16vectorIiNS_9allocatorIiEEED2B7v170000Ev.exit173
  %__end_.i.i.i.i175 = getelementptr inbounds %class.Mesh, ptr %this, i64 0, i32 110, i32 1
  store ptr %15, ptr %__end_.i.i.i.i175, align 8, !tbaa !50
  call void @_ZdlPv(ptr noundef nonnull %15) #34
  br label %_ZNSt3__16vectorIiNS_9allocatorIiEEED2B7v170000Ev.exit177

_ZNSt3__16vectorIiNS_9allocatorIiEEED2B7v170000Ev.exit177: ; preds = %_ZNSt3__16vectorIiNS_9allocatorIiEEED2B7v170000Ev.exit173, %if.then.i.i176
  %16 = load ptr, ptr %jymin_level, align 8, !tbaa !51
  %cmp.not.i.i178 = icmp eq ptr %16, null
  br i1 %cmp.not.i.i178, label %_ZNSt3__16vectorIiNS_9allocatorIiEEED2B7v170000Ev.exit181, label %if.then.i.i180

if.then.i.i180:                                   ; preds = %_ZNSt3__16vectorIiNS_9allocatorIiEEED2B7v170000Ev.exit177
  %__end_.i.i.i.i179 = getelementptr inbounds %class.Mesh, ptr %this, i64 0, i32 109, i32 1
  store ptr %16, ptr %__end_.i.i.i.i179, align 8, !tbaa !50
  call void @_ZdlPv(ptr noundef nonnull %16) #34
  br label %_ZNSt3__16vectorIiNS_9allocatorIiEEED2B7v170000Ev.exit181

_ZNSt3__16vectorIiNS_9allocatorIiEEED2B7v170000Ev.exit181: ; preds = %_ZNSt3__16vectorIiNS_9allocatorIiEEED2B7v170000Ev.exit177, %if.then.i.i180
  %17 = load ptr, ptr %iymax_level, align 8, !tbaa !51
  %cmp.not.i.i182 = icmp eq ptr %17, null
  br i1 %cmp.not.i.i182, label %_ZNSt3__16vectorIiNS_9allocatorIiEEED2B7v170000Ev.exit185, label %if.then.i.i184

if.then.i.i184:                                   ; preds = %_ZNSt3__16vectorIiNS_9allocatorIiEEED2B7v170000Ev.exit181
  %__end_.i.i.i.i183 = getelementptr inbounds %class.Mesh, ptr %this, i64 0, i32 108, i32 1
  store ptr %17, ptr %__end_.i.i.i.i183, align 8, !tbaa !50
  call void @_ZdlPv(ptr noundef nonnull %17) #34
  br label %_ZNSt3__16vectorIiNS_9allocatorIiEEED2B7v170000Ev.exit185

_ZNSt3__16vectorIiNS_9allocatorIiEEED2B7v170000Ev.exit185: ; preds = %_ZNSt3__16vectorIiNS_9allocatorIiEEED2B7v170000Ev.exit181, %if.then.i.i184
  %18 = load ptr, ptr %iymin_level, align 8, !tbaa !51
  %cmp.not.i.i186 = icmp eq ptr %18, null
  br i1 %cmp.not.i.i186, label %_ZNSt3__16vectorIiNS_9allocatorIiEEED2B7v170000Ev.exit189, label %if.then.i.i188

if.then.i.i188:                                   ; preds = %_ZNSt3__16vectorIiNS_9allocatorIiEEED2B7v170000Ev.exit185
  %__end_.i.i.i.i187 = getelementptr inbounds %class.Mesh, ptr %this, i64 0, i32 107, i32 1
  store ptr %18, ptr %__end_.i.i.i.i187, align 8, !tbaa !50
  call void @_ZdlPv(ptr noundef nonnull %18) #34
  br label %_ZNSt3__16vectorIiNS_9allocatorIiEEED2B7v170000Ev.exit189

_ZNSt3__16vectorIiNS_9allocatorIiEEED2B7v170000Ev.exit189: ; preds = %_ZNSt3__16vectorIiNS_9allocatorIiEEED2B7v170000Ev.exit185, %if.then.i.i188
  %19 = load ptr, ptr %map_ycell2face_top2, align 8, !tbaa !51
  %cmp.not.i.i190 = icmp eq ptr %19, null
  br i1 %cmp.not.i.i190, label %_ZNSt3__16vectorIiNS_9allocatorIiEEED2B7v170000Ev.exit193, label %if.then.i.i192

if.then.i.i192:                                   ; preds = %_ZNSt3__16vectorIiNS_9allocatorIiEEED2B7v170000Ev.exit189
  %__end_.i.i.i.i191 = getelementptr inbounds %class.Mesh, ptr %this, i64 0, i32 106, i32 1
  store ptr %19, ptr %__end_.i.i.i.i191, align 8, !tbaa !50
  call void @_ZdlPv(ptr noundef nonnull %19) #34
  br label %_ZNSt3__16vectorIiNS_9allocatorIiEEED2B7v170000Ev.exit193

_ZNSt3__16vectorIiNS_9allocatorIiEEED2B7v170000Ev.exit193: ; preds = %_ZNSt3__16vectorIiNS_9allocatorIiEEED2B7v170000Ev.exit189, %if.then.i.i192
  %20 = load ptr, ptr %map_ycell2face_top1, align 8, !tbaa !51
  %cmp.not.i.i194 = icmp eq ptr %20, null
  br i1 %cmp.not.i.i194, label %_ZNSt3__16vectorIiNS_9allocatorIiEEED2B7v170000Ev.exit197, label %if.then.i.i196

if.then.i.i196:                                   ; preds = %_ZNSt3__16vectorIiNS_9allocatorIiEEED2B7v170000Ev.exit193
  %__end_.i.i.i.i195 = getelementptr inbounds %class.Mesh, ptr %this, i64 0, i32 105, i32 1
  store ptr %20, ptr %__end_.i.i.i.i195, align 8, !tbaa !50
  call void @_ZdlPv(ptr noundef nonnull %20) #34
  br label %_ZNSt3__16vectorIiNS_9allocatorIiEEED2B7v170000Ev.exit197

_ZNSt3__16vectorIiNS_9allocatorIiEEED2B7v170000Ev.exit197: ; preds = %_ZNSt3__16vectorIiNS_9allocatorIiEEED2B7v170000Ev.exit193, %if.then.i.i196
  %21 = load ptr, ptr %map_ycell2face_bot2, align 8, !tbaa !51
  %cmp.not.i.i198 = icmp eq ptr %21, null
  br i1 %cmp.not.i.i198, label %_ZNSt3__16vectorIiNS_9allocatorIiEEED2B7v170000Ev.exit201, label %if.then.i.i200

if.then.i.i200:                                   ; preds = %_ZNSt3__16vectorIiNS_9allocatorIiEEED2B7v170000Ev.exit197
  %__end_.i.i.i.i199 = getelementptr inbounds %class.Mesh, ptr %this, i64 0, i32 104, i32 1
  store ptr %21, ptr %__end_.i.i.i.i199, align 8, !tbaa !50
  call void @_ZdlPv(ptr noundef nonnull %21) #34
  br label %_ZNSt3__16vectorIiNS_9allocatorIiEEED2B7v170000Ev.exit201

_ZNSt3__16vectorIiNS_9allocatorIiEEED2B7v170000Ev.exit201: ; preds = %_ZNSt3__16vectorIiNS_9allocatorIiEEED2B7v170000Ev.exit197, %if.then.i.i200
  %22 = load ptr, ptr %map_ycell2face_bot1, align 8, !tbaa !51
  %cmp.not.i.i202 = icmp eq ptr %22, null
  br i1 %cmp.not.i.i202, label %_ZNSt3__16vectorIiNS_9allocatorIiEEED2B7v170000Ev.exit205, label %if.then.i.i204

if.then.i.i204:                                   ; preds = %_ZNSt3__16vectorIiNS_9allocatorIiEEED2B7v170000Ev.exit201
  %__end_.i.i.i.i203 = getelementptr inbounds %class.Mesh, ptr %this, i64 0, i32 103, i32 1
  store ptr %22, ptr %__end_.i.i.i.i203, align 8, !tbaa !50
  call void @_ZdlPv(ptr noundef nonnull %22) #34
  br label %_ZNSt3__16vectorIiNS_9allocatorIiEEED2B7v170000Ev.exit205

_ZNSt3__16vectorIiNS_9allocatorIiEEED2B7v170000Ev.exit205: ; preds = %_ZNSt3__16vectorIiNS_9allocatorIiEEED2B7v170000Ev.exit201, %if.then.i.i204
  %23 = load ptr, ptr %map_yface2cell_upper, align 8, !tbaa !51
  %cmp.not.i.i206 = icmp eq ptr %23, null
  br i1 %cmp.not.i.i206, label %_ZNSt3__16vectorIiNS_9allocatorIiEEED2B7v170000Ev.exit209, label %if.then.i.i208

if.then.i.i208:                                   ; preds = %_ZNSt3__16vectorIiNS_9allocatorIiEEED2B7v170000Ev.exit205
  %__end_.i.i.i.i207 = getelementptr inbounds %class.Mesh, ptr %this, i64 0, i32 102, i32 1
  store ptr %23, ptr %__end_.i.i.i.i207, align 8, !tbaa !50
  call void @_ZdlPv(ptr noundef nonnull %23) #34
  br label %_ZNSt3__16vectorIiNS_9allocatorIiEEED2B7v170000Ev.exit209

_ZNSt3__16vectorIiNS_9allocatorIiEEED2B7v170000Ev.exit209: ; preds = %_ZNSt3__16vectorIiNS_9allocatorIiEEED2B7v170000Ev.exit205, %if.then.i.i208
  %24 = load ptr, ptr %map_yface2cell_lower, align 8, !tbaa !51
  %cmp.not.i.i210 = icmp eq ptr %24, null
  br i1 %cmp.not.i.i210, label %_ZNSt3__16vectorIiNS_9allocatorIiEEED2B7v170000Ev.exit213, label %if.then.i.i212

if.then.i.i212:                                   ; preds = %_ZNSt3__16vectorIiNS_9allocatorIiEEED2B7v170000Ev.exit209
  %__end_.i.i.i.i211 = getelementptr inbounds %class.Mesh, ptr %this, i64 0, i32 101, i32 1
  store ptr %24, ptr %__end_.i.i.i.i211, align 8, !tbaa !50
  call void @_ZdlPv(ptr noundef nonnull %24) #34
  br label %_ZNSt3__16vectorIiNS_9allocatorIiEEED2B7v170000Ev.exit213

_ZNSt3__16vectorIiNS_9allocatorIiEEED2B7v170000Ev.exit213: ; preds = %_ZNSt3__16vectorIiNS_9allocatorIiEEED2B7v170000Ev.exit209, %if.then.i.i212
  %25 = load ptr, ptr %yface_level, align 8, !tbaa !51
  %cmp.not.i.i214 = icmp eq ptr %25, null
  br i1 %cmp.not.i.i214, label %_ZNSt3__16vectorIiNS_9allocatorIiEEED2B7v170000Ev.exit217, label %if.then.i.i216

if.then.i.i216:                                   ; preds = %_ZNSt3__16vectorIiNS_9allocatorIiEEED2B7v170000Ev.exit213
  %__end_.i.i.i.i215 = getelementptr inbounds %class.Mesh, ptr %this, i64 0, i32 100, i32 1
  store ptr %25, ptr %__end_.i.i.i.i215, align 8, !tbaa !50
  call void @_ZdlPv(ptr noundef nonnull %25) #34
  br label %_ZNSt3__16vectorIiNS_9allocatorIiEEED2B7v170000Ev.exit217

_ZNSt3__16vectorIiNS_9allocatorIiEEED2B7v170000Ev.exit217: ; preds = %_ZNSt3__16vectorIiNS_9allocatorIiEEED2B7v170000Ev.exit213, %if.then.i.i216
  %26 = load ptr, ptr %yface_j, align 8, !tbaa !51
  %cmp.not.i.i218 = icmp eq ptr %26, null
  br i1 %cmp.not.i.i218, label %_ZNSt3__16vectorIiNS_9allocatorIiEEED2B7v170000Ev.exit221, label %if.then.i.i220

if.then.i.i220:                                   ; preds = %_ZNSt3__16vectorIiNS_9allocatorIiEEED2B7v170000Ev.exit217
  %__end_.i.i.i.i219 = getelementptr inbounds %class.Mesh, ptr %this, i64 0, i32 99, i32 1
  store ptr %26, ptr %__end_.i.i.i.i219, align 8, !tbaa !50
  call void @_ZdlPv(ptr noundef nonnull %26) #34
  br label %_ZNSt3__16vectorIiNS_9allocatorIiEEED2B7v170000Ev.exit221

_ZNSt3__16vectorIiNS_9allocatorIiEEED2B7v170000Ev.exit221: ; preds = %_ZNSt3__16vectorIiNS_9allocatorIiEEED2B7v170000Ev.exit217, %if.then.i.i220
  %27 = load ptr, ptr %yface_i, align 8, !tbaa !51
  %cmp.not.i.i222 = icmp eq ptr %27, null
  br i1 %cmp.not.i.i222, label %_ZNSt3__16vectorIiNS_9allocatorIiEEED2B7v170000Ev.exit225, label %if.then.i.i224

if.then.i.i224:                                   ; preds = %_ZNSt3__16vectorIiNS_9allocatorIiEEED2B7v170000Ev.exit221
  %__end_.i.i.i.i223 = getelementptr inbounds %class.Mesh, ptr %this, i64 0, i32 98, i32 1
  store ptr %27, ptr %__end_.i.i.i.i223, align 8, !tbaa !50
  call void @_ZdlPv(ptr noundef nonnull %27) #34
  br label %_ZNSt3__16vectorIiNS_9allocatorIiEEED2B7v170000Ev.exit225

_ZNSt3__16vectorIiNS_9allocatorIiEEED2B7v170000Ev.exit225: ; preds = %_ZNSt3__16vectorIiNS_9allocatorIiEEED2B7v170000Ev.exit221, %if.then.i.i224
  %28 = load ptr, ptr %jxadjust, align 8, !tbaa !51
  %cmp.not.i.i226 = icmp eq ptr %28, null
  br i1 %cmp.not.i.i226, label %_ZNSt3__16vectorIiNS_9allocatorIiEEED2B7v170000Ev.exit229, label %if.then.i.i228

if.then.i.i228:                                   ; preds = %_ZNSt3__16vectorIiNS_9allocatorIiEEED2B7v170000Ev.exit225
  %__end_.i.i.i.i227 = getelementptr inbounds %class.Mesh, ptr %this, i64 0, i32 97, i32 1
  store ptr %28, ptr %__end_.i.i.i.i227, align 8, !tbaa !50
  call void @_ZdlPv(ptr noundef nonnull %28) #34
  br label %_ZNSt3__16vectorIiNS_9allocatorIiEEED2B7v170000Ev.exit229

_ZNSt3__16vectorIiNS_9allocatorIiEEED2B7v170000Ev.exit229: ; preds = %_ZNSt3__16vectorIiNS_9allocatorIiEEED2B7v170000Ev.exit225, %if.then.i.i228
  %29 = load ptr, ptr %ixadjust, align 8, !tbaa !51
  %cmp.not.i.i230 = icmp eq ptr %29, null
  br i1 %cmp.not.i.i230, label %_ZNSt3__16vectorIiNS_9allocatorIiEEED2B7v170000Ev.exit233, label %if.then.i.i232

if.then.i.i232:                                   ; preds = %_ZNSt3__16vectorIiNS_9allocatorIiEEED2B7v170000Ev.exit229
  %__end_.i.i.i.i231 = getelementptr inbounds %class.Mesh, ptr %this, i64 0, i32 96, i32 1
  store ptr %29, ptr %__end_.i.i.i.i231, align 8, !tbaa !50
  call void @_ZdlPv(ptr noundef nonnull %29) #34
  br label %_ZNSt3__16vectorIiNS_9allocatorIiEEED2B7v170000Ev.exit233

_ZNSt3__16vectorIiNS_9allocatorIiEEED2B7v170000Ev.exit233: ; preds = %_ZNSt3__16vectorIiNS_9allocatorIiEEED2B7v170000Ev.exit229, %if.then.i.i232
  %30 = load ptr, ptr %jxmax_level, align 8, !tbaa !51
  %cmp.not.i.i234 = icmp eq ptr %30, null
  br i1 %cmp.not.i.i234, label %_ZNSt3__16vectorIiNS_9allocatorIiEEED2B7v170000Ev.exit237, label %if.then.i.i236

if.then.i.i236:                                   ; preds = %_ZNSt3__16vectorIiNS_9allocatorIiEEED2B7v170000Ev.exit233
  %__end_.i.i.i.i235 = getelementptr inbounds %class.Mesh, ptr %this, i64 0, i32 95, i32 1
  store ptr %30, ptr %__end_.i.i.i.i235, align 8, !tbaa !50
  call void @_ZdlPv(ptr noundef nonnull %30) #34
  br label %_ZNSt3__16vectorIiNS_9allocatorIiEEED2B7v170000Ev.exit237

_ZNSt3__16vectorIiNS_9allocatorIiEEED2B7v170000Ev.exit237: ; preds = %_ZNSt3__16vectorIiNS_9allocatorIiEEED2B7v170000Ev.exit233, %if.then.i.i236
  %31 = load ptr, ptr %jxmin_level, align 8, !tbaa !51
  %cmp.not.i.i238 = icmp eq ptr %31, null
  br i1 %cmp.not.i.i238, label %_ZNSt3__16vectorIiNS_9allocatorIiEEED2B7v170000Ev.exit241, label %if.then.i.i240

if.then.i.i240:                                   ; preds = %_ZNSt3__16vectorIiNS_9allocatorIiEEED2B7v170000Ev.exit237
  %__end_.i.i.i.i239 = getelementptr inbounds %class.Mesh, ptr %this, i64 0, i32 94, i32 1
  store ptr %31, ptr %__end_.i.i.i.i239, align 8, !tbaa !50
  call void @_ZdlPv(ptr noundef nonnull %31) #34
  br label %_ZNSt3__16vectorIiNS_9allocatorIiEEED2B7v170000Ev.exit241

_ZNSt3__16vectorIiNS_9allocatorIiEEED2B7v170000Ev.exit241: ; preds = %_ZNSt3__16vectorIiNS_9allocatorIiEEED2B7v170000Ev.exit237, %if.then.i.i240
  %32 = load ptr, ptr %ixmax_level, align 8, !tbaa !51
  %cmp.not.i.i242 = icmp eq ptr %32, null
  br i1 %cmp.not.i.i242, label %_ZNSt3__16vectorIiNS_9allocatorIiEEED2B7v170000Ev.exit245, label %if.then.i.i244

if.then.i.i244:                                   ; preds = %_ZNSt3__16vectorIiNS_9allocatorIiEEED2B7v170000Ev.exit241
  %__end_.i.i.i.i243 = getelementptr inbounds %class.Mesh, ptr %this, i64 0, i32 93, i32 1
  store ptr %32, ptr %__end_.i.i.i.i243, align 8, !tbaa !50
  call void @_ZdlPv(ptr noundef nonnull %32) #34
  br label %_ZNSt3__16vectorIiNS_9allocatorIiEEED2B7v170000Ev.exit245

_ZNSt3__16vectorIiNS_9allocatorIiEEED2B7v170000Ev.exit245: ; preds = %_ZNSt3__16vectorIiNS_9allocatorIiEEED2B7v170000Ev.exit241, %if.then.i.i244
  %33 = load ptr, ptr %ixmin_level, align 8, !tbaa !51
  %cmp.not.i.i246 = icmp eq ptr %33, null
  br i1 %cmp.not.i.i246, label %_ZNSt3__16vectorIiNS_9allocatorIiEEED2B7v170000Ev.exit249, label %if.then.i.i248

if.then.i.i248:                                   ; preds = %_ZNSt3__16vectorIiNS_9allocatorIiEEED2B7v170000Ev.exit245
  %__end_.i.i.i.i247 = getelementptr inbounds %class.Mesh, ptr %this, i64 0, i32 92, i32 1
  store ptr %33, ptr %__end_.i.i.i.i247, align 8, !tbaa !50
  call void @_ZdlPv(ptr noundef nonnull %33) #34
  br label %_ZNSt3__16vectorIiNS_9allocatorIiEEED2B7v170000Ev.exit249

_ZNSt3__16vectorIiNS_9allocatorIiEEED2B7v170000Ev.exit249: ; preds = %_ZNSt3__16vectorIiNS_9allocatorIiEEED2B7v170000Ev.exit245, %if.then.i.i248
  %34 = load ptr, ptr %map_xcell2face_right2, align 8, !tbaa !51
  %cmp.not.i.i250 = icmp eq ptr %34, null
  br i1 %cmp.not.i.i250, label %_ZNSt3__16vectorIiNS_9allocatorIiEEED2B7v170000Ev.exit253, label %if.then.i.i252

if.then.i.i252:                                   ; preds = %_ZNSt3__16vectorIiNS_9allocatorIiEEED2B7v170000Ev.exit249
  %__end_.i.i.i.i251 = getelementptr inbounds %class.Mesh, ptr %this, i64 0, i32 91, i32 1
  store ptr %34, ptr %__end_.i.i.i.i251, align 8, !tbaa !50
  call void @_ZdlPv(ptr noundef nonnull %34) #34
  br label %_ZNSt3__16vectorIiNS_9allocatorIiEEED2B7v170000Ev.exit253

_ZNSt3__16vectorIiNS_9allocatorIiEEED2B7v170000Ev.exit253: ; preds = %_ZNSt3__16vectorIiNS_9allocatorIiEEED2B7v170000Ev.exit249, %if.then.i.i252
  %35 = load ptr, ptr %map_xcell2face_right1, align 8, !tbaa !51
  %cmp.not.i.i254 = icmp eq ptr %35, null
  br i1 %cmp.not.i.i254, label %_ZNSt3__16vectorIiNS_9allocatorIiEEED2B7v170000Ev.exit257, label %if.then.i.i256

if.then.i.i256:                                   ; preds = %_ZNSt3__16vectorIiNS_9allocatorIiEEED2B7v170000Ev.exit253
  %__end_.i.i.i.i255 = getelementptr inbounds %class.Mesh, ptr %this, i64 0, i32 90, i32 1
  store ptr %35, ptr %__end_.i.i.i.i255, align 8, !tbaa !50
  call void @_ZdlPv(ptr noundef nonnull %35) #34
  br label %_ZNSt3__16vectorIiNS_9allocatorIiEEED2B7v170000Ev.exit257

_ZNSt3__16vectorIiNS_9allocatorIiEEED2B7v170000Ev.exit257: ; preds = %_ZNSt3__16vectorIiNS_9allocatorIiEEED2B7v170000Ev.exit253, %if.then.i.i256
  %36 = load ptr, ptr %map_xcell2face_left2, align 8, !tbaa !51
  %cmp.not.i.i258 = icmp eq ptr %36, null
  br i1 %cmp.not.i.i258, label %_ZNSt3__16vectorIiNS_9allocatorIiEEED2B7v170000Ev.exit261, label %if.then.i.i260

if.then.i.i260:                                   ; preds = %_ZNSt3__16vectorIiNS_9allocatorIiEEED2B7v170000Ev.exit257
  %__end_.i.i.i.i259 = getelementptr inbounds %class.Mesh, ptr %this, i64 0, i32 89, i32 1
  store ptr %36, ptr %__end_.i.i.i.i259, align 8, !tbaa !50
  call void @_ZdlPv(ptr noundef nonnull %36) #34
  br label %_ZNSt3__16vectorIiNS_9allocatorIiEEED2B7v170000Ev.exit261

_ZNSt3__16vectorIiNS_9allocatorIiEEED2B7v170000Ev.exit261: ; preds = %_ZNSt3__16vectorIiNS_9allocatorIiEEED2B7v170000Ev.exit257, %if.then.i.i260
  %37 = load ptr, ptr %map_xcell2face_left1, align 8, !tbaa !51
  %cmp.not.i.i262 = icmp eq ptr %37, null
  br i1 %cmp.not.i.i262, label %_ZNSt3__16vectorIiNS_9allocatorIiEEED2B7v170000Ev.exit265, label %if.then.i.i264

if.then.i.i264:                                   ; preds = %_ZNSt3__16vectorIiNS_9allocatorIiEEED2B7v170000Ev.exit261
  %__end_.i.i.i.i263 = getelementptr inbounds %class.Mesh, ptr %this, i64 0, i32 88, i32 1
  store ptr %37, ptr %__end_.i.i.i.i263, align 8, !tbaa !50
  call void @_ZdlPv(ptr noundef nonnull %37) #34
  br label %_ZNSt3__16vectorIiNS_9allocatorIiEEED2B7v170000Ev.exit265

_ZNSt3__16vectorIiNS_9allocatorIiEEED2B7v170000Ev.exit265: ; preds = %_ZNSt3__16vectorIiNS_9allocatorIiEEED2B7v170000Ev.exit261, %if.then.i.i264
  %38 = load ptr, ptr %map_xface2cell_upper, align 8, !tbaa !51
  %cmp.not.i.i266 = icmp eq ptr %38, null
  br i1 %cmp.not.i.i266, label %_ZNSt3__16vectorIiNS_9allocatorIiEEED2B7v170000Ev.exit269, label %if.then.i.i268

if.then.i.i268:                                   ; preds = %_ZNSt3__16vectorIiNS_9allocatorIiEEED2B7v170000Ev.exit265
  %__end_.i.i.i.i267 = getelementptr inbounds %class.Mesh, ptr %this, i64 0, i32 87, i32 1
  store ptr %38, ptr %__end_.i.i.i.i267, align 8, !tbaa !50
  call void @_ZdlPv(ptr noundef nonnull %38) #34
  br label %_ZNSt3__16vectorIiNS_9allocatorIiEEED2B7v170000Ev.exit269

_ZNSt3__16vectorIiNS_9allocatorIiEEED2B7v170000Ev.exit269: ; preds = %_ZNSt3__16vectorIiNS_9allocatorIiEEED2B7v170000Ev.exit265, %if.then.i.i268
  %39 = load ptr, ptr %map_xface2cell_lower, align 8, !tbaa !51
  %cmp.not.i.i270 = icmp eq ptr %39, null
  br i1 %cmp.not.i.i270, label %_ZNSt3__16vectorIiNS_9allocatorIiEEED2B7v170000Ev.exit273, label %if.then.i.i272

if.then.i.i272:                                   ; preds = %_ZNSt3__16vectorIiNS_9allocatorIiEEED2B7v170000Ev.exit269
  %__end_.i.i.i.i271 = getelementptr inbounds %class.Mesh, ptr %this, i64 0, i32 86, i32 1
  store ptr %39, ptr %__end_.i.i.i.i271, align 8, !tbaa !50
  call void @_ZdlPv(ptr noundef nonnull %39) #34
  br label %_ZNSt3__16vectorIiNS_9allocatorIiEEED2B7v170000Ev.exit273

_ZNSt3__16vectorIiNS_9allocatorIiEEED2B7v170000Ev.exit273: ; preds = %_ZNSt3__16vectorIiNS_9allocatorIiEEED2B7v170000Ev.exit269, %if.then.i.i272
  %40 = load ptr, ptr %xface_level, align 8, !tbaa !51
  %cmp.not.i.i274 = icmp eq ptr %40, null
  br i1 %cmp.not.i.i274, label %_ZNSt3__16vectorIiNS_9allocatorIiEEED2B7v170000Ev.exit277, label %if.then.i.i276

if.then.i.i276:                                   ; preds = %_ZNSt3__16vectorIiNS_9allocatorIiEEED2B7v170000Ev.exit273
  %__end_.i.i.i.i275 = getelementptr inbounds %class.Mesh, ptr %this, i64 0, i32 85, i32 1
  store ptr %40, ptr %__end_.i.i.i.i275, align 8, !tbaa !50
  call void @_ZdlPv(ptr noundef nonnull %40) #34
  br label %_ZNSt3__16vectorIiNS_9allocatorIiEEED2B7v170000Ev.exit277

_ZNSt3__16vectorIiNS_9allocatorIiEEED2B7v170000Ev.exit277: ; preds = %_ZNSt3__16vectorIiNS_9allocatorIiEEED2B7v170000Ev.exit273, %if.then.i.i276
  %41 = load ptr, ptr %xface_j, align 8, !tbaa !51
  %cmp.not.i.i278 = icmp eq ptr %41, null
  br i1 %cmp.not.i.i278, label %_ZNSt3__16vectorIiNS_9allocatorIiEEED2B7v170000Ev.exit281, label %if.then.i.i280

if.then.i.i280:                                   ; preds = %_ZNSt3__16vectorIiNS_9allocatorIiEEED2B7v170000Ev.exit277
  %__end_.i.i.i.i279 = getelementptr inbounds %class.Mesh, ptr %this, i64 0, i32 84, i32 1
  store ptr %41, ptr %__end_.i.i.i.i279, align 8, !tbaa !50
  call void @_ZdlPv(ptr noundef nonnull %41) #34
  br label %_ZNSt3__16vectorIiNS_9allocatorIiEEED2B7v170000Ev.exit281

_ZNSt3__16vectorIiNS_9allocatorIiEEED2B7v170000Ev.exit281: ; preds = %_ZNSt3__16vectorIiNS_9allocatorIiEEED2B7v170000Ev.exit277, %if.then.i.i280
  %42 = load ptr, ptr %xface_i, align 8, !tbaa !51
  %cmp.not.i.i282 = icmp eq ptr %42, null
  br i1 %cmp.not.i.i282, label %_ZNSt3__16vectorIiNS_9allocatorIiEEED2B7v170000Ev.exit285, label %if.then.i.i284

if.then.i.i284:                                   ; preds = %_ZNSt3__16vectorIiNS_9allocatorIiEEED2B7v170000Ev.exit281
  %__end_.i.i.i.i283 = getelementptr inbounds %class.Mesh, ptr %this, i64 0, i32 83, i32 1
  store ptr %42, ptr %__end_.i.i.i.i283, align 8, !tbaa !50
  call void @_ZdlPv(ptr noundef nonnull %42) #34
  br label %_ZNSt3__16vectorIiNS_9allocatorIiEEED2B7v170000Ev.exit285

_ZNSt3__16vectorIiNS_9allocatorIiEEED2B7v170000Ev.exit285: ; preds = %_ZNSt3__16vectorIiNS_9allocatorIiEEED2B7v170000Ev.exit281, %if.then.i.i284
  %43 = load ptr, ptr %dz, align 8, !tbaa !40
  %cmp.not.i.i286 = icmp eq ptr %43, null
  br i1 %cmp.not.i.i286, label %_ZNSt3__16vectorIdNS_9allocatorIdEEED2B7v170000Ev.exit, label %if.then.i.i288

if.then.i.i288:                                   ; preds = %_ZNSt3__16vectorIiNS_9allocatorIiEEED2B7v170000Ev.exit285
  %__end_.i.i.i.i287 = getelementptr inbounds %class.Mesh, ptr %this, i64 0, i32 80, i32 1
  store ptr %43, ptr %__end_.i.i.i.i287, align 8, !tbaa !56
  call void @_ZdlPv(ptr noundef nonnull %43) #34
  br label %_ZNSt3__16vectorIdNS_9allocatorIdEEED2B7v170000Ev.exit

_ZNSt3__16vectorIdNS_9allocatorIdEEED2B7v170000Ev.exit: ; preds = %_ZNSt3__16vectorIiNS_9allocatorIiEEED2B7v170000Ev.exit285, %if.then.i.i288
  %44 = load ptr, ptr %z, align 8, !tbaa !40
  %cmp.not.i.i289 = icmp eq ptr %44, null
  br i1 %cmp.not.i.i289, label %_ZNSt3__16vectorIdNS_9allocatorIdEEED2B7v170000Ev.exit292, label %if.then.i.i291

if.then.i.i291:                                   ; preds = %_ZNSt3__16vectorIdNS_9allocatorIdEEED2B7v170000Ev.exit
  %__end_.i.i.i.i290 = getelementptr inbounds %class.Mesh, ptr %this, i64 0, i32 79, i32 1
  store ptr %44, ptr %__end_.i.i.i.i290, align 8, !tbaa !56
  call void @_ZdlPv(ptr noundef nonnull %44) #34
  br label %_ZNSt3__16vectorIdNS_9allocatorIdEEED2B7v170000Ev.exit292

_ZNSt3__16vectorIdNS_9allocatorIdEEED2B7v170000Ev.exit292: ; preds = %_ZNSt3__16vectorIdNS_9allocatorIdEEED2B7v170000Ev.exit, %if.then.i.i291
  %45 = load ptr, ptr %dy, align 8, !tbaa !40
  %cmp.not.i.i293 = icmp eq ptr %45, null
  br i1 %cmp.not.i.i293, label %_ZNSt3__16vectorIdNS_9allocatorIdEEED2B7v170000Ev.exit296, label %if.then.i.i295

if.then.i.i295:                                   ; preds = %_ZNSt3__16vectorIdNS_9allocatorIdEEED2B7v170000Ev.exit292
  %__end_.i.i.i.i294 = getelementptr inbounds %class.Mesh, ptr %this, i64 0, i32 78, i32 1
  store ptr %45, ptr %__end_.i.i.i.i294, align 8, !tbaa !56
  call void @_ZdlPv(ptr noundef nonnull %45) #34
  br label %_ZNSt3__16vectorIdNS_9allocatorIdEEED2B7v170000Ev.exit296

_ZNSt3__16vectorIdNS_9allocatorIdEEED2B7v170000Ev.exit296: ; preds = %_ZNSt3__16vectorIdNS_9allocatorIdEEED2B7v170000Ev.exit292, %if.then.i.i295
  %46 = load ptr, ptr %y, align 8, !tbaa !40
  %cmp.not.i.i297 = icmp eq ptr %46, null
  br i1 %cmp.not.i.i297, label %_ZNSt3__16vectorIdNS_9allocatorIdEEED2B7v170000Ev.exit300, label %if.then.i.i299

if.then.i.i299:                                   ; preds = %_ZNSt3__16vectorIdNS_9allocatorIdEEED2B7v170000Ev.exit296
  %__end_.i.i.i.i298 = getelementptr inbounds %class.Mesh, ptr %this, i64 0, i32 77, i32 1
  store ptr %46, ptr %__end_.i.i.i.i298, align 8, !tbaa !56
  call void @_ZdlPv(ptr noundef nonnull %46) #34
  br label %_ZNSt3__16vectorIdNS_9allocatorIdEEED2B7v170000Ev.exit300

_ZNSt3__16vectorIdNS_9allocatorIdEEED2B7v170000Ev.exit300: ; preds = %_ZNSt3__16vectorIdNS_9allocatorIdEEED2B7v170000Ev.exit296, %if.then.i.i299
  %47 = load ptr, ptr %dx, align 8, !tbaa !40
  %cmp.not.i.i301 = icmp eq ptr %47, null
  br i1 %cmp.not.i.i301, label %_ZNSt3__16vectorIdNS_9allocatorIdEEED2B7v170000Ev.exit304, label %if.then.i.i303

if.then.i.i303:                                   ; preds = %_ZNSt3__16vectorIdNS_9allocatorIdEEED2B7v170000Ev.exit300
  %__end_.i.i.i.i302 = getelementptr inbounds %class.Mesh, ptr %this, i64 0, i32 76, i32 1
  store ptr %47, ptr %__end_.i.i.i.i302, align 8, !tbaa !56
  call void @_ZdlPv(ptr noundef nonnull %47) #34
  br label %_ZNSt3__16vectorIdNS_9allocatorIdEEED2B7v170000Ev.exit304

_ZNSt3__16vectorIdNS_9allocatorIdEEED2B7v170000Ev.exit304: ; preds = %_ZNSt3__16vectorIdNS_9allocatorIdEEED2B7v170000Ev.exit300, %if.then.i.i303
  %48 = load ptr, ptr %x, align 8, !tbaa !40
  %cmp.not.i.i305 = icmp eq ptr %48, null
  br i1 %cmp.not.i.i305, label %_ZNSt3__16vectorIdNS_9allocatorIdEEED2B7v170000Ev.exit308, label %if.then.i.i307

if.then.i.i307:                                   ; preds = %_ZNSt3__16vectorIdNS_9allocatorIdEEED2B7v170000Ev.exit304
  %__end_.i.i.i.i306 = getelementptr inbounds %class.Mesh, ptr %this, i64 0, i32 75, i32 1
  store ptr %48, ptr %__end_.i.i.i.i306, align 8, !tbaa !56
  call void @_ZdlPv(ptr noundef nonnull %48) #34
  br label %_ZNSt3__16vectorIdNS_9allocatorIdEEED2B7v170000Ev.exit308

_ZNSt3__16vectorIdNS_9allocatorIdEEED2B7v170000Ev.exit308: ; preds = %_ZNSt3__16vectorIdNS_9allocatorIdEEED2B7v170000Ev.exit304, %if.then.i.i307
  %49 = load ptr, ptr %index, align 8, !tbaa !51
  %cmp.not.i.i309 = icmp eq ptr %49, null
  br i1 %cmp.not.i.i309, label %_ZNSt3__16vectorIiNS_9allocatorIiEEED2B7v170000Ev.exit312, label %if.then.i.i311

if.then.i.i311:                                   ; preds = %_ZNSt3__16vectorIdNS_9allocatorIdEEED2B7v170000Ev.exit308
  store ptr %49, ptr %__end_.i.i, align 8, !tbaa !50
  call void @_ZdlPv(ptr noundef nonnull %49) #34
  br label %_ZNSt3__16vectorIiNS_9allocatorIiEEED2B7v170000Ev.exit312

_ZNSt3__16vectorIiNS_9allocatorIiEEED2B7v170000Ev.exit312: ; preds = %_ZNSt3__16vectorIdNS_9allocatorIdEEED2B7v170000Ev.exit308, %if.then.i.i311
  %50 = load ptr, ptr %lev_deltaz, align 8, !tbaa !40
  %cmp.not.i.i313 = icmp eq ptr %50, null
  br i1 %cmp.not.i.i313, label %_ZNSt3__16vectorIdNS_9allocatorIdEEED2B7v170000Ev.exit316, label %if.then.i.i315

if.then.i.i315:                                   ; preds = %_ZNSt3__16vectorIiNS_9allocatorIiEEED2B7v170000Ev.exit312
  %__end_.i.i.i.i314 = getelementptr inbounds %class.Mesh, ptr %this, i64 0, i32 35, i32 1
  store ptr %50, ptr %__end_.i.i.i.i314, align 8, !tbaa !56
  call void @_ZdlPv(ptr noundef nonnull %50) #34
  br label %_ZNSt3__16vectorIdNS_9allocatorIdEEED2B7v170000Ev.exit316

_ZNSt3__16vectorIdNS_9allocatorIdEEED2B7v170000Ev.exit316: ; preds = %_ZNSt3__16vectorIiNS_9allocatorIiEEED2B7v170000Ev.exit312, %if.then.i.i315
  %51 = load ptr, ptr %lev_deltay, align 8, !tbaa !40
  %cmp.not.i.i317 = icmp eq ptr %51, null
  br i1 %cmp.not.i.i317, label %_ZNSt3__16vectorIdNS_9allocatorIdEEED2B7v170000Ev.exit320, label %if.then.i.i319

if.then.i.i319:                                   ; preds = %_ZNSt3__16vectorIdNS_9allocatorIdEEED2B7v170000Ev.exit316
  %__end_.i.i.i.i318 = getelementptr inbounds %class.Mesh, ptr %this, i64 0, i32 34, i32 1
  store ptr %51, ptr %__end_.i.i.i.i318, align 8, !tbaa !56
  call void @_ZdlPv(ptr noundef nonnull %51) #34
  br label %_ZNSt3__16vectorIdNS_9allocatorIdEEED2B7v170000Ev.exit320

_ZNSt3__16vectorIdNS_9allocatorIdEEED2B7v170000Ev.exit320: ; preds = %_ZNSt3__16vectorIdNS_9allocatorIdEEED2B7v170000Ev.exit316, %if.then.i.i319
  %52 = load ptr, ptr %lev_deltax, align 8, !tbaa !40
  %cmp.not.i.i321 = icmp eq ptr %52, null
  br i1 %cmp.not.i.i321, label %_ZNSt3__16vectorIdNS_9allocatorIdEEED2B7v170000Ev.exit324, label %if.then.i.i323

if.then.i.i323:                                   ; preds = %_ZNSt3__16vectorIdNS_9allocatorIdEEED2B7v170000Ev.exit320
  %__end_.i.i.i.i322 = getelementptr inbounds %class.Mesh, ptr %this, i64 0, i32 33, i32 1
  store ptr %52, ptr %__end_.i.i.i.i322, align 8, !tbaa !56
  call void @_ZdlPv(ptr noundef nonnull %52) #34
  br label %_ZNSt3__16vectorIdNS_9allocatorIdEEED2B7v170000Ev.exit324

_ZNSt3__16vectorIdNS_9allocatorIdEEED2B7v170000Ev.exit324: ; preds = %_ZNSt3__16vectorIdNS_9allocatorIdEEED2B7v170000Ev.exit320, %if.then.i.i323
  %53 = load ptr, ptr %levtable, align 8, !tbaa !51
  %cmp.not.i.i325 = icmp eq ptr %53, null
  br i1 %cmp.not.i.i325, label %_ZNSt3__16vectorIiNS_9allocatorIiEEED2B7v170000Ev.exit328, label %if.then.i.i327

if.then.i.i327:                                   ; preds = %_ZNSt3__16vectorIdNS_9allocatorIdEEED2B7v170000Ev.exit324
  %__end_.i.i.i.i326 = getelementptr inbounds %class.Mesh, ptr %this, i64 0, i32 32, i32 1
  store ptr %53, ptr %__end_.i.i.i.i326, align 8, !tbaa !50
  call void @_ZdlPv(ptr noundef nonnull %53) #34
  br label %_ZNSt3__16vectorIiNS_9allocatorIiEEED2B7v170000Ev.exit328

_ZNSt3__16vectorIiNS_9allocatorIiEEED2B7v170000Ev.exit328: ; preds = %_ZNSt3__16vectorIdNS_9allocatorIdEEED2B7v170000Ev.exit324, %if.then.i.i327
  %54 = load ptr, ptr %lev_kend, align 8, !tbaa !51
  %cmp.not.i.i329 = icmp eq ptr %54, null
  br i1 %cmp.not.i.i329, label %_ZNSt3__16vectorIiNS_9allocatorIiEEED2B7v170000Ev.exit332, label %if.then.i.i331

if.then.i.i331:                                   ; preds = %_ZNSt3__16vectorIiNS_9allocatorIiEEED2B7v170000Ev.exit328
  %__end_.i.i.i.i330 = getelementptr inbounds %class.Mesh, ptr %this, i64 0, i32 31, i32 1
  store ptr %54, ptr %__end_.i.i.i.i330, align 8, !tbaa !50
  call void @_ZdlPv(ptr noundef nonnull %54) #34
  br label %_ZNSt3__16vectorIiNS_9allocatorIiEEED2B7v170000Ev.exit332

_ZNSt3__16vectorIiNS_9allocatorIiEEED2B7v170000Ev.exit332: ; preds = %_ZNSt3__16vectorIiNS_9allocatorIiEEED2B7v170000Ev.exit328, %if.then.i.i331
  %55 = load ptr, ptr %lev_kbegin, align 8, !tbaa !51
  %cmp.not.i.i333 = icmp eq ptr %55, null
  br i1 %cmp.not.i.i333, label %_ZNSt3__16vectorIiNS_9allocatorIiEEED2B7v170000Ev.exit336, label %if.then.i.i335

if.then.i.i335:                                   ; preds = %_ZNSt3__16vectorIiNS_9allocatorIiEEED2B7v170000Ev.exit332
  %__end_.i.i.i.i334 = getelementptr inbounds %class.Mesh, ptr %this, i64 0, i32 30, i32 1
  store ptr %55, ptr %__end_.i.i.i.i334, align 8, !tbaa !50
  call void @_ZdlPv(ptr noundef nonnull %55) #34
  br label %_ZNSt3__16vectorIiNS_9allocatorIiEEED2B7v170000Ev.exit336

_ZNSt3__16vectorIiNS_9allocatorIiEEED2B7v170000Ev.exit336: ; preds = %_ZNSt3__16vectorIiNS_9allocatorIiEEED2B7v170000Ev.exit332, %if.then.i.i335
  %56 = load ptr, ptr %lev_jend, align 8, !tbaa !51
  %cmp.not.i.i337 = icmp eq ptr %56, null
  br i1 %cmp.not.i.i337, label %_ZNSt3__16vectorIiNS_9allocatorIiEEED2B7v170000Ev.exit340, label %if.then.i.i339

if.then.i.i339:                                   ; preds = %_ZNSt3__16vectorIiNS_9allocatorIiEEED2B7v170000Ev.exit336
  %__end_.i.i.i.i338 = getelementptr inbounds %class.Mesh, ptr %this, i64 0, i32 29, i32 1
  store ptr %56, ptr %__end_.i.i.i.i338, align 8, !tbaa !50
  call void @_ZdlPv(ptr noundef nonnull %56) #34
  br label %_ZNSt3__16vectorIiNS_9allocatorIiEEED2B7v170000Ev.exit340

_ZNSt3__16vectorIiNS_9allocatorIiEEED2B7v170000Ev.exit340: ; preds = %_ZNSt3__16vectorIiNS_9allocatorIiEEED2B7v170000Ev.exit336, %if.then.i.i339
  %57 = load ptr, ptr %lev_jbegin, align 8, !tbaa !51
  %cmp.not.i.i341 = icmp eq ptr %57, null
  br i1 %cmp.not.i.i341, label %_ZNSt3__16vectorIiNS_9allocatorIiEEED2B7v170000Ev.exit344, label %if.then.i.i343

if.then.i.i343:                                   ; preds = %_ZNSt3__16vectorIiNS_9allocatorIiEEED2B7v170000Ev.exit340
  %__end_.i.i.i.i342 = getelementptr inbounds %class.Mesh, ptr %this, i64 0, i32 28, i32 1
  store ptr %57, ptr %__end_.i.i.i.i342, align 8, !tbaa !50
  call void @_ZdlPv(ptr noundef nonnull %57) #34
  br label %_ZNSt3__16vectorIiNS_9allocatorIiEEED2B7v170000Ev.exit344

_ZNSt3__16vectorIiNS_9allocatorIiEEED2B7v170000Ev.exit344: ; preds = %_ZNSt3__16vectorIiNS_9allocatorIiEEED2B7v170000Ev.exit340, %if.then.i.i343
  %58 = load ptr, ptr %lev_iend, align 8, !tbaa !51
  %cmp.not.i.i345 = icmp eq ptr %58, null
  br i1 %cmp.not.i.i345, label %_ZNSt3__16vectorIiNS_9allocatorIiEEED2B7v170000Ev.exit348, label %if.then.i.i347

if.then.i.i347:                                   ; preds = %_ZNSt3__16vectorIiNS_9allocatorIiEEED2B7v170000Ev.exit344
  %__end_.i.i.i.i346 = getelementptr inbounds %class.Mesh, ptr %this, i64 0, i32 27, i32 1
  store ptr %58, ptr %__end_.i.i.i.i346, align 8, !tbaa !50
  call void @_ZdlPv(ptr noundef nonnull %58) #34
  br label %_ZNSt3__16vectorIiNS_9allocatorIiEEED2B7v170000Ev.exit348

_ZNSt3__16vectorIiNS_9allocatorIiEEED2B7v170000Ev.exit348: ; preds = %_ZNSt3__16vectorIiNS_9allocatorIiEEED2B7v170000Ev.exit344, %if.then.i.i347
  %59 = load ptr, ptr %lev_ibegin, align 8, !tbaa !51
  %cmp.not.i.i349 = icmp eq ptr %59, null
  br i1 %cmp.not.i.i349, label %_ZNSt3__16vectorIiNS_9allocatorIiEEED2B7v170000Ev.exit352, label %if.then.i.i351

if.then.i.i351:                                   ; preds = %_ZNSt3__16vectorIiNS_9allocatorIiEEED2B7v170000Ev.exit348
  %__end_.i.i.i.i350 = getelementptr inbounds %class.Mesh, ptr %this, i64 0, i32 26, i32 1
  store ptr %59, ptr %__end_.i.i.i.i350, align 8, !tbaa !50
  call void @_ZdlPv(ptr noundef nonnull %59) #34
  br label %_ZNSt3__16vectorIiNS_9allocatorIiEEED2B7v170000Ev.exit352

_ZNSt3__16vectorIiNS_9allocatorIiEEED2B7v170000Ev.exit352: ; preds = %_ZNSt3__16vectorIiNS_9allocatorIiEEED2B7v170000Ev.exit348, %if.then.i.i351
  %60 = load ptr, ptr %proc, align 8, !tbaa !51
  %cmp.not.i.i353 = icmp eq ptr %60, null
  br i1 %cmp.not.i.i353, label %_ZNSt3__16vectorIiNS_9allocatorIiEEED2B7v170000Ev.exit356, label %if.then.i.i355

if.then.i.i355:                                   ; preds = %_ZNSt3__16vectorIiNS_9allocatorIiEEED2B7v170000Ev.exit352
  %__end_.i.i.i.i354 = getelementptr inbounds %class.Mesh, ptr %this, i64 0, i32 25, i32 1
  store ptr %60, ptr %__end_.i.i.i.i354, align 8, !tbaa !50
  call void @_ZdlPv(ptr noundef nonnull %60) #34
  br label %_ZNSt3__16vectorIiNS_9allocatorIiEEED2B7v170000Ev.exit356

_ZNSt3__16vectorIiNS_9allocatorIiEEED2B7v170000Ev.exit356: ; preds = %_ZNSt3__16vectorIiNS_9allocatorIiEEED2B7v170000Ev.exit352, %if.then.i.i355
  %61 = load ptr, ptr %ndispl, align 8, !tbaa !51
  %cmp.not.i.i357 = icmp eq ptr %61, null
  br i1 %cmp.not.i.i357, label %_ZNSt3__16vectorIiNS_9allocatorIiEEED2B7v170000Ev.exit360, label %if.then.i.i359

if.then.i.i359:                                   ; preds = %_ZNSt3__16vectorIiNS_9allocatorIiEEED2B7v170000Ev.exit356
  %__end_.i.i.i.i358 = getelementptr inbounds %class.Mesh, ptr %this, i64 0, i32 22, i32 1
  store ptr %61, ptr %__end_.i.i.i.i358, align 8, !tbaa !50
  call void @_ZdlPv(ptr noundef nonnull %61) #34
  br label %_ZNSt3__16vectorIiNS_9allocatorIiEEED2B7v170000Ev.exit360

_ZNSt3__16vectorIiNS_9allocatorIiEEED2B7v170000Ev.exit360: ; preds = %_ZNSt3__16vectorIiNS_9allocatorIiEEED2B7v170000Ev.exit356, %if.then.i.i359
  %62 = load ptr, ptr %nsizes, align 8, !tbaa !51
  %cmp.not.i.i361 = icmp eq ptr %62, null
  br i1 %cmp.not.i.i361, label %_ZNSt3__16vectorIiNS_9allocatorIiEEED2B7v170000Ev.exit364, label %if.then.i.i363

if.then.i.i363:                                   ; preds = %_ZNSt3__16vectorIiNS_9allocatorIiEEED2B7v170000Ev.exit360
  %__end_.i.i.i.i362 = getelementptr inbounds %class.Mesh, ptr %this, i64 0, i32 21, i32 1
  store ptr %62, ptr %__end_.i.i.i.i362, align 8, !tbaa !50
  call void @_ZdlPv(ptr noundef nonnull %62) #34
  br label %_ZNSt3__16vectorIiNS_9allocatorIiEEED2B7v170000Ev.exit364

_ZNSt3__16vectorIiNS_9allocatorIiEEED2B7v170000Ev.exit364: ; preds = %_ZNSt3__16vectorIiNS_9allocatorIiEEED2B7v170000Ev.exit360, %if.then.i.i363
  %63 = load ptr, ptr %corners_j, align 8, !tbaa !51
  %cmp.not.i.i365 = icmp eq ptr %63, null
  br i1 %cmp.not.i.i365, label %_ZNSt3__16vectorIiNS_9allocatorIiEEED2B7v170000Ev.exit368, label %if.then.i.i367

if.then.i.i367:                                   ; preds = %_ZNSt3__16vectorIiNS_9allocatorIiEEED2B7v170000Ev.exit364
  %__end_.i.i.i.i366 = getelementptr inbounds %class.Mesh, ptr %this, i64 0, i32 20, i32 1
  store ptr %63, ptr %__end_.i.i.i.i366, align 8, !tbaa !50
  call void @_ZdlPv(ptr noundef nonnull %63) #34
  br label %_ZNSt3__16vectorIiNS_9allocatorIiEEED2B7v170000Ev.exit368

_ZNSt3__16vectorIiNS_9allocatorIiEEED2B7v170000Ev.exit368: ; preds = %_ZNSt3__16vectorIiNS_9allocatorIiEEED2B7v170000Ev.exit364, %if.then.i.i367
  %64 = load ptr, ptr %corners_i, align 8, !tbaa !51
  %cmp.not.i.i369 = icmp eq ptr %64, null
  br i1 %cmp.not.i.i369, label %_ZNSt3__16vectorIiNS_9allocatorIiEEED2B7v170000Ev.exit372, label %if.then.i.i371

if.then.i.i371:                                   ; preds = %_ZNSt3__16vectorIiNS_9allocatorIiEEED2B7v170000Ev.exit368
  %__end_.i.i.i.i370 = getelementptr inbounds %class.Mesh, ptr %this, i64 0, i32 19, i32 1
  store ptr %64, ptr %__end_.i.i.i.i370, align 8, !tbaa !50
  call void @_ZdlPv(ptr noundef nonnull %64) #34
  br label %_ZNSt3__16vectorIiNS_9allocatorIiEEED2B7v170000Ev.exit372

_ZNSt3__16vectorIiNS_9allocatorIiEEED2B7v170000Ev.exit372: ; preds = %_ZNSt3__16vectorIiNS_9allocatorIiEEED2B7v170000Ev.exit368, %if.then.i.i371
  call void @_ZN10MallocPlusD2Ev(ptr noundef nonnull align 8 dereferenceable(48) %gpu_mesh_memory) #32
  call void @_ZN10MallocPlusD2Ev(ptr noundef nonnull align 8 dereferenceable(48) %mesh_memory) #32
  resume { ptr, i32 } %.pn
}

; Function Attrs: nounwind
declare i64 @time(ptr noundef) local_unnamed_addr #4

; Function Attrs: nounwind
declare void @srand48(i64 noundef) local_unnamed_addr #4

; Function Attrs: nofree nounwind
declare noundef ptr @fgets(ptr noundef, i32 noundef, ptr nocapture noundef) local_unnamed_addr #2

declare i32 @__gxx_personality_v0(...)

; Function Attrs: noreturn nounwind
declare void @exit(i32 noundef) local_unnamed_addr #5

; Function Attrs: nofree nounwind
declare noundef i32 @sscanf(ptr nocapture noundef readonly, ptr nocapture noundef readonly, ...) local_unnamed_addr #2

; Function Attrs: mustprogress uwtable
define dso_local void @_ZN4Mesh8allocateEm(ptr noundef nonnull align 8 dereferenceable(2192) %this, i64 noundef %ncells) local_unnamed_addr #6 align 2 {
entry:
  %mesh_memory = getelementptr inbounds %class.Mesh, ptr %this, i64 0, i32 1
  %call = tail call noundef ptr @_ZN10MallocPlus13memory_mallocEmmPKci(ptr noundef nonnull align 8 dereferenceable(48) %mesh_memory, i64 noundef %ncells, i64 noundef 4, ptr noundef nonnull @.str.50, i32 noundef 16)
  %i = getelementptr inbounds %class.Mesh, ptr %this, i64 0, i32 64
  store ptr %call, ptr %i, align 8, !tbaa !52
  %call3 = tail call noundef ptr @_ZN10MallocPlus13memory_mallocEmmPKci(ptr noundef nonnull align 8 dereferenceable(48) %mesh_memory, i64 noundef %ncells, i64 noundef 4, ptr noundef nonnull @.str.51, i32 noundef 16)
  %j = getelementptr inbounds %class.Mesh, ptr %this, i64 0, i32 65
  store ptr %call3, ptr %j, align 8, !tbaa !53
  %call5 = tail call noundef ptr @_ZN10MallocPlus13memory_mallocEmmPKci(ptr noundef nonnull align 8 dereferenceable(48) %mesh_memory, i64 noundef %ncells, i64 noundef 4, ptr noundef nonnull @.str.52, i32 noundef 16)
  %level = getelementptr inbounds %class.Mesh, ptr %this, i64 0, i32 67
  store ptr %call5, ptr %level, align 8, !tbaa !54
  ret void
}

; Function Attrs: mustprogress uwtable
define dso_local void @_ZN4Mesh24calc_spatial_coordinatesEi(ptr noundef nonnull align 8 dereferenceable(2192) %this, i32 noundef %ibase) local_unnamed_addr #6 align 2 personality ptr @__gxx_personality_v0 {
entry:
  %tstart_cpu = alloca %struct.timeval, align 8
  call void @llvm.lifetime.start.p0(i64 16, ptr nonnull %tstart_cpu) #32
  call void @cpu_timer_start(ptr noundef nonnull %tstart_cpu)
  %x = getelementptr inbounds %class.Mesh, ptr %this, i64 0, i32 75
  %ncells = getelementptr inbounds %class.Mesh, ptr %this, i64 0, i32 45
  %0 = load i64, ptr %ncells, align 8, !tbaa !39
  %__end_.i.i = getelementptr inbounds %class.Mesh, ptr %this, i64 0, i32 75, i32 1
  %1 = load ptr, ptr %__end_.i.i, align 8, !tbaa !56
  %2 = load ptr, ptr %x, align 8, !tbaa !40
  %sub.ptr.lhs.cast.i.i = ptrtoint ptr %1 to i64
  %sub.ptr.rhs.cast.i.i = ptrtoint ptr %2 to i64
  %sub.ptr.sub.i.i = sub i64 %sub.ptr.lhs.cast.i.i, %sub.ptr.rhs.cast.i.i
  %sub.ptr.div.i.i = ashr exact i64 %sub.ptr.sub.i.i, 3
  %cmp.i = icmp ugt i64 %0, %sub.ptr.div.i.i
  br i1 %cmp.i, label %if.then.i, label %if.else.i

if.then.i:                                        ; preds = %entry
  %sub.i = sub i64 %0, %sub.ptr.div.i.i
  call void @_ZNSt3__16vectorIdNS_9allocatorIdEEE8__appendEm(ptr noundef nonnull align 8 dereferenceable(24) %x, i64 noundef %sub.i)
  %.pre = load i64, ptr %ncells, align 8, !tbaa !39
  br label %_ZNSt3__16vectorIdNS_9allocatorIdEEE6resizeEm.exit

if.else.i:                                        ; preds = %entry
  %cmp2.i = icmp ult i64 %0, %sub.ptr.div.i.i
  br i1 %cmp2.i, label %if.then3.i, label %_ZNSt3__16vectorIdNS_9allocatorIdEEE6resizeEm.exit

if.then3.i:                                       ; preds = %if.else.i
  %add.ptr.i = getelementptr inbounds double, ptr %2, i64 %0
  store ptr %add.ptr.i, ptr %__end_.i.i, align 8, !tbaa !56
  br label %_ZNSt3__16vectorIdNS_9allocatorIdEEE6resizeEm.exit

_ZNSt3__16vectorIdNS_9allocatorIdEEE6resizeEm.exit: ; preds = %if.then.i, %if.else.i, %if.then3.i
  %3 = phi i64 [ %.pre, %if.then.i ], [ %0, %if.else.i ], [ %0, %if.then3.i ]
  %dx = getelementptr inbounds %class.Mesh, ptr %this, i64 0, i32 76
  %__end_.i.i120 = getelementptr inbounds %class.Mesh, ptr %this, i64 0, i32 76, i32 1
  %4 = load ptr, ptr %__end_.i.i120, align 8, !tbaa !56
  %5 = load ptr, ptr %dx, align 8, !tbaa !40
  %sub.ptr.lhs.cast.i.i121 = ptrtoint ptr %4 to i64
  %sub.ptr.rhs.cast.i.i122 = ptrtoint ptr %5 to i64
  %sub.ptr.sub.i.i123 = sub i64 %sub.ptr.lhs.cast.i.i121, %sub.ptr.rhs.cast.i.i122
  %sub.ptr.div.i.i124 = ashr exact i64 %sub.ptr.sub.i.i123, 3
  %cmp.i125 = icmp ugt i64 %3, %sub.ptr.div.i.i124
  br i1 %cmp.i125, label %if.then.i127, label %if.else.i129

if.then.i127:                                     ; preds = %_ZNSt3__16vectorIdNS_9allocatorIdEEE6resizeEm.exit
  %sub.i126 = sub i64 %3, %sub.ptr.div.i.i124
  call void @_ZNSt3__16vectorIdNS_9allocatorIdEEE8__appendEm(ptr noundef nonnull align 8 dereferenceable(24) %dx, i64 noundef %sub.i126)
  %.pre194 = load i64, ptr %ncells, align 8, !tbaa !39
  br label %_ZNSt3__16vectorIdNS_9allocatorIdEEE6resizeEm.exit132

if.else.i129:                                     ; preds = %_ZNSt3__16vectorIdNS_9allocatorIdEEE6resizeEm.exit
  %cmp2.i128 = icmp ult i64 %3, %sub.ptr.div.i.i124
  br i1 %cmp2.i128, label %if.then3.i131, label %_ZNSt3__16vectorIdNS_9allocatorIdEEE6resizeEm.exit132

if.then3.i131:                                    ; preds = %if.else.i129
  %add.ptr.i130 = getelementptr inbounds double, ptr %5, i64 %3
  store ptr %add.ptr.i130, ptr %__end_.i.i120, align 8, !tbaa !56
  br label %_ZNSt3__16vectorIdNS_9allocatorIdEEE6resizeEm.exit132

_ZNSt3__16vectorIdNS_9allocatorIdEEE6resizeEm.exit132: ; preds = %if.then.i127, %if.else.i129, %if.then3.i131
  %6 = phi i64 [ %.pre194, %if.then.i127 ], [ %3, %if.else.i129 ], [ %3, %if.then3.i131 ]
  %y = getelementptr inbounds %class.Mesh, ptr %this, i64 0, i32 77
  %__end_.i.i133 = getelementptr inbounds %class.Mesh, ptr %this, i64 0, i32 77, i32 1
  %7 = load ptr, ptr %__end_.i.i133, align 8, !tbaa !56
  %8 = load ptr, ptr %y, align 8, !tbaa !40
  %sub.ptr.lhs.cast.i.i134 = ptrtoint ptr %7 to i64
  %sub.ptr.rhs.cast.i.i135 = ptrtoint ptr %8 to i64
  %sub.ptr.sub.i.i136 = sub i64 %sub.ptr.lhs.cast.i.i134, %sub.ptr.rhs.cast.i.i135
  %sub.ptr.div.i.i137 = ashr exact i64 %sub.ptr.sub.i.i136, 3
  %cmp.i138 = icmp ugt i64 %6, %sub.ptr.div.i.i137
  br i1 %cmp.i138, label %if.then.i140, label %if.else.i142

if.then.i140:                                     ; preds = %_ZNSt3__16vectorIdNS_9allocatorIdEEE6resizeEm.exit132
  %sub.i139 = sub i64 %6, %sub.ptr.div.i.i137
  call void @_ZNSt3__16vectorIdNS_9allocatorIdEEE8__appendEm(ptr noundef nonnull align 8 dereferenceable(24) %y, i64 noundef %sub.i139)
  %.pre195 = load i64, ptr %ncells, align 8, !tbaa !39
  br label %_ZNSt3__16vectorIdNS_9allocatorIdEEE6resizeEm.exit145

if.else.i142:                                     ; preds = %_ZNSt3__16vectorIdNS_9allocatorIdEEE6resizeEm.exit132
  %cmp2.i141 = icmp ult i64 %6, %sub.ptr.div.i.i137
  br i1 %cmp2.i141, label %if.then3.i144, label %_ZNSt3__16vectorIdNS_9allocatorIdEEE6resizeEm.exit145

if.then3.i144:                                    ; preds = %if.else.i142
  %add.ptr.i143 = getelementptr inbounds double, ptr %8, i64 %6
  store ptr %add.ptr.i143, ptr %__end_.i.i133, align 8, !tbaa !56
  br label %_ZNSt3__16vectorIdNS_9allocatorIdEEE6resizeEm.exit145

_ZNSt3__16vectorIdNS_9allocatorIdEEE6resizeEm.exit145: ; preds = %if.then.i140, %if.else.i142, %if.then3.i144
  %9 = phi i64 [ %.pre195, %if.then.i140 ], [ %6, %if.else.i142 ], [ %6, %if.then3.i144 ]
  %dy = getelementptr inbounds %class.Mesh, ptr %this, i64 0, i32 78
  %__end_.i.i146 = getelementptr inbounds %class.Mesh, ptr %this, i64 0, i32 78, i32 1
  %10 = load ptr, ptr %__end_.i.i146, align 8, !tbaa !56
  %11 = load ptr, ptr %dy, align 8, !tbaa !40
  %sub.ptr.lhs.cast.i.i147 = ptrtoint ptr %10 to i64
  %sub.ptr.rhs.cast.i.i148 = ptrtoint ptr %11 to i64
  %sub.ptr.sub.i.i149 = sub i64 %sub.ptr.lhs.cast.i.i147, %sub.ptr.rhs.cast.i.i148
  %sub.ptr.div.i.i150 = ashr exact i64 %sub.ptr.sub.i.i149, 3
  %cmp.i151 = icmp ugt i64 %9, %sub.ptr.div.i.i150
  br i1 %cmp.i151, label %if.then.i153, label %if.else.i155

if.then.i153:                                     ; preds = %_ZNSt3__16vectorIdNS_9allocatorIdEEE6resizeEm.exit145
  %sub.i152 = sub i64 %9, %sub.ptr.div.i.i150
  call void @_ZNSt3__16vectorIdNS_9allocatorIdEEE8__appendEm(ptr noundef nonnull align 8 dereferenceable(24) %dy, i64 noundef %sub.i152)
  %.pre196 = load i64, ptr %ncells, align 8, !tbaa !39
  br label %_ZNSt3__16vectorIdNS_9allocatorIdEEE6resizeEm.exit158

if.else.i155:                                     ; preds = %_ZNSt3__16vectorIdNS_9allocatorIdEEE6resizeEm.exit145
  %cmp2.i154 = icmp ult i64 %9, %sub.ptr.div.i.i150
  br i1 %cmp2.i154, label %if.then3.i157, label %_ZNSt3__16vectorIdNS_9allocatorIdEEE6resizeEm.exit158

if.then3.i157:                                    ; preds = %if.else.i155
  %add.ptr.i156 = getelementptr inbounds double, ptr %11, i64 %9
  store ptr %add.ptr.i156, ptr %__end_.i.i146, align 8, !tbaa !56
  br label %_ZNSt3__16vectorIdNS_9allocatorIdEEE6resizeEm.exit158

_ZNSt3__16vectorIdNS_9allocatorIdEEE6resizeEm.exit158: ; preds = %if.then.i153, %if.else.i155, %if.then3.i157
  %12 = phi i64 [ %.pre196, %if.then.i153 ], [ %9, %if.else.i155 ], [ %9, %if.then3.i157 ]
  %lowerBound_Global.i = getelementptr inbounds %class.Mesh, ptr %this, i64 0, i32 14
  %13 = load ptr, ptr %lowerBound_Global.i, align 8, !tbaa !57
  %cmp.i159 = icmp eq ptr %13, null
  br i1 %cmp.i159, label %if.then.i160, label %if.end.i

if.then.i160:                                     ; preds = %_ZNSt3__16vectorIdNS_9allocatorIdEEE6resizeEm.exit158
  %call.i = call noalias dereferenceable_or_null(4) ptr @malloc(i64 noundef 4) #35
  store ptr %call.i, ptr %lowerBound_Global.i, align 8, !tbaa !57
  br label %if.end.i

if.end.i:                                         ; preds = %if.then.i160, %_ZNSt3__16vectorIdNS_9allocatorIdEEE6resizeEm.exit158
  %14 = phi ptr [ %call.i, %if.then.i160 ], [ %13, %_ZNSt3__16vectorIdNS_9allocatorIdEEE6resizeEm.exit158 ]
  %upperBound_Global.i = getelementptr inbounds %class.Mesh, ptr %this, i64 0, i32 15
  %15 = load ptr, ptr %upperBound_Global.i, align 8, !tbaa !58
  %cmp3.i = icmp eq ptr %15, null
  br i1 %cmp3.i, label %if.then4.i, label %_ZN4Mesh10set_boundsEi.exit

if.then4.i:                                       ; preds = %if.end.i
  %call5.i = call noalias dereferenceable_or_null(4) ptr @malloc(i64 noundef 4) #35
  store ptr %call5.i, ptr %upperBound_Global.i, align 8, !tbaa !58
  br label %_ZN4Mesh10set_boundsEi.exit

_ZN4Mesh10set_boundsEi.exit:                      ; preds = %if.end.i, %if.then4.i
  %16 = phi ptr [ %call5.i, %if.then4.i ], [ %15, %if.end.i ]
  %conv.i = trunc i64 %12 to i32
  store i32 0, ptr %14, align 4, !tbaa !59
  store i32 %conv.i, ptr %16, align 4, !tbaa !59
  %have_boundary = getelementptr inbounds %class.Mesh, ptr %this, i64 0, i32 37
  %17 = load i32, ptr %have_boundary, align 4, !tbaa !60
  %tobool.not = icmp eq i32 %17, 0
  %cmp38185.not = icmp eq i32 %conv.i, 0
  br i1 %tobool.not, label %for.cond37.preheader, label %for.cond.preheader

for.cond.preheader:                               ; preds = %_ZN4Mesh10set_boundsEi.exit
  br i1 %cmp38185.not, label %if.end, label %for.body.lr.ph

for.body.lr.ph:                                   ; preds = %for.cond.preheader
  %level = getelementptr inbounds %class.Mesh, ptr %this, i64 0, i32 67
  %18 = load ptr, ptr %level, align 8, !tbaa !54
  %xmin = getelementptr inbounds %class.Mesh, ptr %this, i64 0, i32 48
  %lev_deltax = getelementptr inbounds %class.Mesh, ptr %this, i64 0, i32 33
  %19 = load ptr, ptr %lev_deltax, align 8, !tbaa !40
  %i = getelementptr inbounds %class.Mesh, ptr %this, i64 0, i32 64
  %20 = load ptr, ptr %i, align 8, !tbaa !52
  %21 = load ptr, ptr %x, align 8, !tbaa !40
  %22 = load ptr, ptr %dx, align 8, !tbaa !40
  %ymin = getelementptr inbounds %class.Mesh, ptr %this, i64 0, i32 50
  %lev_deltay = getelementptr inbounds %class.Mesh, ptr %this, i64 0, i32 34
  %23 = load ptr, ptr %lev_deltay, align 8, !tbaa !40
  %j = getelementptr inbounds %class.Mesh, ptr %this, i64 0, i32 65
  %24 = load ptr, ptr %j, align 8, !tbaa !53
  %25 = load ptr, ptr %y, align 8, !tbaa !40
  %26 = load ptr, ptr %dy, align 8, !tbaa !40
  %wide.trip.count = and i64 %12, 4294967295
  br label %for.body

for.cond37.preheader:                             ; preds = %_ZN4Mesh10set_boundsEi.exit
  br i1 %cmp38185.not, label %if.end, label %for.body40.lr.ph

for.body40.lr.ph:                                 ; preds = %for.cond37.preheader
  %level42 = getelementptr inbounds %class.Mesh, ptr %this, i64 0, i32 67
  %27 = load ptr, ptr %level42, align 8, !tbaa !54
  %xmin45 = getelementptr inbounds %class.Mesh, ptr %this, i64 0, i32 48
  %lev_deltax46 = getelementptr inbounds %class.Mesh, ptr %this, i64 0, i32 33
  %28 = load ptr, ptr %lev_deltax46, align 8, !tbaa !40
  %i49 = getelementptr inbounds %class.Mesh, ptr %this, i64 0, i32 64
  %29 = load ptr, ptr %i49, align 8, !tbaa !52
  %lev_ibegin = getelementptr inbounds %class.Mesh, ptr %this, i64 0, i32 26
  %30 = load ptr, ptr %lev_ibegin, align 8, !tbaa !51
  %31 = load ptr, ptr %x, align 8, !tbaa !40
  %32 = load ptr, ptr %dx, align 8, !tbaa !40
  %ymin67 = getelementptr inbounds %class.Mesh, ptr %this, i64 0, i32 50
  %lev_deltay68 = getelementptr inbounds %class.Mesh, ptr %this, i64 0, i32 34
  %33 = load ptr, ptr %lev_deltay68, align 8, !tbaa !40
  %j71 = getelementptr inbounds %class.Mesh, ptr %this, i64 0, i32 65
  %34 = load ptr, ptr %j71, align 8, !tbaa !53
  %lev_jbegin = getelementptr inbounds %class.Mesh, ptr %this, i64 0, i32 28
  %35 = load ptr, ptr %lev_jbegin, align 8, !tbaa !51
  %36 = load ptr, ptr %y, align 8, !tbaa !40
  %37 = load ptr, ptr %dy, align 8, !tbaa !40
  %wide.trip.count192 = and i64 %12, 4294967295
  br label %for.body40

for.body:                                         ; preds = %for.body.lr.ph, %for.body
  %indvars.iv = phi i64 [ 0, %for.body.lr.ph ], [ %indvars.iv.next, %for.body ]
  %arrayidx = getelementptr inbounds i32, ptr %18, i64 %indvars.iv
  %38 = load i32, ptr %arrayidx, align 4, !tbaa !59
  %39 = load double, ptr %xmin, align 8, !tbaa !5
  %conv6 = sext i32 %38 to i64
  %arrayidx.i = getelementptr inbounds double, ptr %19, i64 %conv6
  %40 = load double, ptr %arrayidx.i, align 8, !tbaa !41
  %arrayidx8 = getelementptr inbounds i32, ptr %20, i64 %indvars.iv
  %41 = load i32, ptr %arrayidx8, align 4, !tbaa !59
  %sub = sub nsw i32 %41, %ibase
  %conv9 = sitofp i32 %sub to double
  %mul = fmul double %40, %conv9
  %add = fadd double %39, %mul
  %arrayidx.i163 = getelementptr inbounds double, ptr %21, i64 %indvars.iv
  store double %add, ptr %arrayidx.i163, align 8, !tbaa !41
  %42 = load double, ptr %arrayidx.i, align 8, !tbaa !41
  %arrayidx.i165 = getelementptr inbounds double, ptr %22, i64 %indvars.iv
  store double %42, ptr %arrayidx.i165, align 8, !tbaa !41
  %43 = load double, ptr %ymin, align 8, !tbaa !36
  %arrayidx.i166 = getelementptr inbounds double, ptr %23, i64 %conv6
  %44 = load double, ptr %arrayidx.i166, align 8, !tbaa !41
  %arrayidx22 = getelementptr inbounds i32, ptr %24, i64 %indvars.iv
  %45 = load i32, ptr %arrayidx22, align 4, !tbaa !59
  %sub23 = sub nsw i32 %45, %ibase
  %conv24 = sitofp i32 %sub23 to double
  %mul25 = fmul double %44, %conv24
  %add26 = fadd double %43, %mul25
  %arrayidx.i167 = getelementptr inbounds double, ptr %25, i64 %indvars.iv
  store double %add26, ptr %arrayidx.i167, align 8, !tbaa !41
  %46 = load double, ptr %arrayidx.i166, align 8, !tbaa !41
  %arrayidx.i169 = getelementptr inbounds double, ptr %26, i64 %indvars.iv
  store double %46, ptr %arrayidx.i169, align 8, !tbaa !41
  %indvars.iv.next = add nuw nsw i64 %indvars.iv, 1
  %exitcond.not = icmp eq i64 %indvars.iv.next, %wide.trip.count
  br i1 %exitcond.not, label %if.end, label %for.body, !llvm.loop !61

for.body40:                                       ; preds = %for.body40.lr.ph, %for.body40
  %indvars.iv189 = phi i64 [ 0, %for.body40.lr.ph ], [ %indvars.iv.next190, %for.body40 ]
  %arrayidx44 = getelementptr inbounds i32, ptr %27, i64 %indvars.iv189
  %47 = load i32, ptr %arrayidx44, align 4, !tbaa !59
  %48 = load double, ptr %xmin45, align 8, !tbaa !5
  %conv47 = sext i32 %47 to i64
  %arrayidx.i170 = getelementptr inbounds double, ptr %28, i64 %conv47
  %49 = load double, ptr %arrayidx.i170, align 8, !tbaa !41
  %arrayidx51 = getelementptr inbounds i32, ptr %29, i64 %indvars.iv189
  %50 = load i32, ptr %arrayidx51, align 4, !tbaa !59
  %arrayidx.i171 = getelementptr inbounds i32, ptr %30, i64 %conv47
  %51 = load i32, ptr %arrayidx.i171, align 4, !tbaa !59
  %sub54 = sub nsw i32 %50, %51
  %conv55 = sitofp i32 %sub54 to double
  %mul56 = fmul double %49, %conv55
  %add57 = fadd double %48, %mul56
  %arrayidx.i172 = getelementptr inbounds double, ptr %31, i64 %indvars.iv189
  store double %add57, ptr %arrayidx.i172, align 8, !tbaa !41
  %52 = load double, ptr %arrayidx.i170, align 8, !tbaa !41
  %arrayidx.i174 = getelementptr inbounds double, ptr %32, i64 %indvars.iv189
  store double %52, ptr %arrayidx.i174, align 8, !tbaa !41
  %53 = load double, ptr %ymin67, align 8, !tbaa !36
  %arrayidx.i175 = getelementptr inbounds double, ptr %33, i64 %conv47
  %54 = load double, ptr %arrayidx.i175, align 8, !tbaa !41
  %arrayidx73 = getelementptr inbounds i32, ptr %34, i64 %indvars.iv189
  %55 = load i32, ptr %arrayidx73, align 4, !tbaa !59
  %arrayidx.i176 = getelementptr inbounds i32, ptr %35, i64 %conv47
  %56 = load i32, ptr %arrayidx.i176, align 4, !tbaa !59
  %sub76 = sub nsw i32 %55, %56
  %conv77 = sitofp i32 %sub76 to double
  %mul78 = fmul double %54, %conv77
  %add79 = fadd double %53, %mul78
  %arrayidx.i177 = getelementptr inbounds double, ptr %36, i64 %indvars.iv189
  store double %add79, ptr %arrayidx.i177, align 8, !tbaa !41
  %57 = load double, ptr %arrayidx.i175, align 8, !tbaa !41
  %arrayidx.i179 = getelementptr inbounds double, ptr %37, i64 %indvars.iv189
  store double %57, ptr %arrayidx.i179, align 8, !tbaa !41
  %indvars.iv.next190 = add nuw nsw i64 %indvars.iv189, 1
  %exitcond193.not = icmp eq i64 %indvars.iv.next190, %wide.trip.count192
  br i1 %exitcond193.not, label %if.end, label %for.body40, !llvm.loop !62

if.end:                                           ; preds = %for.body, %for.body40, %for.cond.preheader, %for.cond37.preheader
  %agg.tmp.sroa.0.0.copyload = load i64, ptr %tstart_cpu, align 8, !tbaa.struct !63
  %agg.tmp.sroa.2.0.tstart_cpu.sroa_idx = getelementptr inbounds i8, ptr %tstart_cpu, i64 8
  %agg.tmp.sroa.2.0.copyload = load i64, ptr %agg.tmp.sroa.2.0.tstart_cpu.sroa_idx, align 8, !tbaa.struct !64
  %call92 = call double @cpu_timer_stop(i64 %agg.tmp.sroa.0.0.copyload, i64 %agg.tmp.sroa.2.0.copyload)
  %arrayidx93 = getelementptr inbounds %class.Mesh, ptr %this, i64 0, i32 3, i64 22
  %58 = load double, ptr %arrayidx93, align 8, !tbaa !41
  %add94 = fadd double %call92, %58
  store double %add94, ptr %arrayidx93, align 8, !tbaa !41
  call void @llvm.lifetime.end.p0(i64 16, ptr nonnull %tstart_cpu) #32
  ret void
}

declare void @KDTree_Initialize(ptr noundef) local_unnamed_addr #7

; Function Attrs: mustprogress nofree nounwind uwtable
define dso_local void @_ZN4Mesh5printEv(ptr nocapture noundef nonnull readonly align 8 dereferenceable(2192) %this) local_unnamed_addr #0 align 2 {
entry:
  %puts = tail call i32 @puts(ptr nonnull dereferenceable(1) @str.142)
  %ncells = getelementptr inbounds %class.Mesh, ptr %this, i64 0, i32 45
  %0 = load i64, ptr %ncells, align 8, !tbaa !39
  %cmp55.not = icmp eq i64 %0, 0
  br i1 %cmp55.not, label %for.cond.cleanup, label %for.body.lr.ph

for.body.lr.ph:                                   ; preds = %entry
  %index = getelementptr inbounds %class.Mesh, ptr %this, i64 0, i32 63
  %i = getelementptr inbounds %class.Mesh, ptr %this, i64 0, i32 64
  %j = getelementptr inbounds %class.Mesh, ptr %this, i64 0, i32 65
  %level = getelementptr inbounds %class.Mesh, ptr %this, i64 0, i32 67
  %nlft = getelementptr inbounds %class.Mesh, ptr %this, i64 0, i32 69
  %nrht = getelementptr inbounds %class.Mesh, ptr %this, i64 0, i32 70
  %nbot = getelementptr inbounds %class.Mesh, ptr %this, i64 0, i32 71
  %ntop = getelementptr inbounds %class.Mesh, ptr %this, i64 0, i32 72
  %x = getelementptr inbounds %class.Mesh, ptr %this, i64 0, i32 75
  %dx = getelementptr inbounds %class.Mesh, ptr %this, i64 0, i32 76
  %y = getelementptr inbounds %class.Mesh, ptr %this, i64 0, i32 77
  %dy = getelementptr inbounds %class.Mesh, ptr %this, i64 0, i32 78
  br label %for.body

for.cond.cleanup:                                 ; preds = %for.body, %entry
  ret void

for.body:                                         ; preds = %for.body.lr.ph, %for.body
  %conv57 = phi i64 [ 0, %for.body.lr.ph ], [ %conv, %for.body ]
  %indvars = trunc i64 %conv57 to i32
  %1 = load ptr, ptr %index, align 8, !tbaa !51
  %arrayidx.i = getelementptr inbounds i32, ptr %1, i64 %conv57
  %2 = load i32, ptr %arrayidx.i, align 4, !tbaa !59
  %3 = load ptr, ptr %i, align 8, !tbaa !52
  %arrayidx = getelementptr inbounds i32, ptr %3, i64 %conv57
  %4 = load i32, ptr %arrayidx, align 4, !tbaa !59
  %5 = load ptr, ptr %j, align 8, !tbaa !53
  %arrayidx5 = getelementptr inbounds i32, ptr %5, i64 %conv57
  %6 = load i32, ptr %arrayidx5, align 4, !tbaa !59
  %7 = load ptr, ptr %level, align 8, !tbaa !54
  %arrayidx7 = getelementptr inbounds i32, ptr %7, i64 %conv57
  %8 = load i32, ptr %arrayidx7, align 4, !tbaa !59
  %9 = load ptr, ptr %nlft, align 8, !tbaa !65
  %arrayidx9 = getelementptr inbounds i32, ptr %9, i64 %conv57
  %10 = load i32, ptr %arrayidx9, align 4, !tbaa !59
  %11 = load ptr, ptr %nrht, align 8, !tbaa !66
  %arrayidx11 = getelementptr inbounds i32, ptr %11, i64 %conv57
  %12 = load i32, ptr %arrayidx11, align 4, !tbaa !59
  %13 = load ptr, ptr %nbot, align 8, !tbaa !67
  %arrayidx13 = getelementptr inbounds i32, ptr %13, i64 %conv57
  %14 = load i32, ptr %arrayidx13, align 4, !tbaa !59
  %15 = load ptr, ptr %ntop, align 8, !tbaa !68
  %arrayidx15 = getelementptr inbounds i32, ptr %15, i64 %conv57
  %16 = load i32, ptr %arrayidx15, align 4, !tbaa !59
  %call16 = tail call i32 (ptr, ...) @printf(ptr noundef nonnull dereferenceable(1) @.str.17, i32 noundef %indvars, i32 noundef %2, i32 noundef %4, i32 noundef %6, i32 noundef %8, i32 noundef %10, i32 noundef %12, i32 noundef %14, i32 noundef %16)
  %17 = load ptr, ptr %x, align 8, !tbaa !40
  %arrayidx.i49 = getelementptr inbounds double, ptr %17, i64 %conv57
  %18 = load double, ptr %arrayidx.i49, align 8, !tbaa !41
  %19 = load ptr, ptr %dx, align 8, !tbaa !40
  %arrayidx.i51 = getelementptr inbounds double, ptr %19, i64 %conv57
  %20 = load double, ptr %arrayidx.i51, align 8, !tbaa !41
  %add = fadd double %18, %20
  %21 = load ptr, ptr %y, align 8, !tbaa !40
  %arrayidx.i52 = getelementptr inbounds double, ptr %21, i64 %conv57
  %22 = load double, ptr %arrayidx.i52, align 8, !tbaa !41
  %23 = load ptr, ptr %dy, align 8, !tbaa !40
  %arrayidx.i54 = getelementptr inbounds double, ptr %23, i64 %conv57
  %24 = load double, ptr %arrayidx.i54, align 8, !tbaa !41
  %add31 = fadd double %22, %24
  %call32 = tail call i32 (ptr, ...) @printf(ptr noundef nonnull dereferenceable(1) @.str.18, double noundef %18, double noundef %add, double noundef %22, double noundef %add31)
  %inc = add nuw nsw i64 %conv57, 1
  %conv = and i64 %inc, 4294967295
  %25 = load i64, ptr %ncells, align 8, !tbaa !39
  %cmp = icmp ugt i64 %25, %conv
  br i1 %cmp, label %for.body, label %for.cond.cleanup, !llvm.loop !69
}

; Function Attrs: nofree nounwind
declare noundef i32 @printf(ptr nocapture noundef readonly, ...) local_unnamed_addr #2

; Function Attrs: nounwind uwtable
define linkonce_odr hidden void @_ZNSt3__16vectorIiNS_9allocatorIiEEED2B7v170000Ev(ptr noundef nonnull align 8 dereferenceable(24) %this) unnamed_addr #8 comdat align 2 personality ptr @__gxx_personality_v0 {
entry:
  %0 = load ptr, ptr %this, align 8, !tbaa !51
  %cmp.not.i = icmp eq ptr %0, null
  br i1 %cmp.not.i, label %invoke.cont2, label %if.then.i

if.then.i:                                        ; preds = %entry
  %__end_.i.i.i = getelementptr inbounds %"class.std::__1::vector", ptr %this, i64 0, i32 1
  store ptr %0, ptr %__end_.i.i.i, align 8, !tbaa !50
  tail call void @_ZdlPv(ptr noundef nonnull %0) #34
  br label %invoke.cont2

invoke.cont2:                                     ; preds = %if.then.i, %entry
  ret void
}

; Function Attrs: inlinehint nounwind uwtable
define linkonce_odr dso_local void @_ZN10MallocPlusD2Ev(ptr noundef nonnull align 8 dereferenceable(48) %this) unnamed_addr #9 comdat align 2 {
entry:
  %memory_ptr_dict = getelementptr inbounds %class.MallocPlus, ptr %this, i64 0, i32 1
  %__pair1_.i.i.i.i = getelementptr inbounds %class.MallocPlus, ptr %this, i64 0, i32 1, i32 0, i32 1
  %0 = load ptr, ptr %__pair1_.i.i.i.i, align 8, !tbaa !70
  tail call void @_ZNSt3__16__treeINS_12__value_typeIPvP24malloc_plus_memory_entryEENS_19__map_value_compareIS2_S5_NS_4lessIS2_EELb1EEENS_9allocatorIS5_EEE7destroyEPNS_11__tree_nodeIS5_S2_EE(ptr noundef nonnull align 8 dereferenceable(24) %memory_ptr_dict, ptr noundef %0) #32
  %__pair1_.i.i.i.i2 = getelementptr inbounds %"class.std::__1::__tree", ptr %this, i64 0, i32 1
  %1 = load ptr, ptr %__pair1_.i.i.i.i2, align 8, !tbaa !70
  tail call void @_ZNSt3__16__treeINS_12__value_typeINS_12basic_stringIcNS_11char_traitsIcEENS_9allocatorIcEEEEP24malloc_plus_memory_entryEENS_19__map_value_compareIS7_SA_NS_4lessIS7_EELb1EEENS5_ISA_EEE7destroyEPNS_11__tree_nodeISA_PvEE(ptr noundef nonnull align 8 dereferenceable(24) %this, ptr noundef %1) #32
  ret void
}

; Function Attrs: mustprogress uwtable
define dso_local void @_ZN4Mesh11print_localEv(ptr noundef nonnull align 8 dereferenceable(2192) %this) local_unnamed_addr #6 align 2 {
entry:
  %mesh_memory = getelementptr inbounds %class.Mesh, ptr %this, i64 0, i32 1
  %nlft = getelementptr inbounds %class.Mesh, ptr %this, i64 0, i32 69
  %0 = load ptr, ptr %nlft, align 8, !tbaa !65
  %call = tail call noundef i64 @_ZN10MallocPlus15get_memory_sizeEPv(ptr noundef nonnull align 8 dereferenceable(48) %mesh_memory, ptr noundef %0)
  %ncells_ghost = getelementptr inbounds %class.Mesh, ptr %this, i64 0, i32 47
  %1 = load i64, ptr %ncells_ghost, align 8, !tbaa !71
  %cmp.not = icmp ult i64 %call, %1
  %fp58 = getelementptr inbounds %class.Mesh, ptr %this, i64 0, i32 23
  %2 = load ptr, ptr %fp58, align 8, !tbaa !72
  %mype59 = getelementptr inbounds %class.Mesh, ptr %this, i64 0, i32 9
  %3 = load i32, ptr %mype59, align 4, !tbaa !73
  br i1 %cmp.not, label %if.else, label %if.then

if.then:                                          ; preds = %entry
  %call2 = tail call i32 (ptr, ptr, ...) @fprintf(ptr noundef %2, ptr noundef nonnull @.str.19, i32 noundef %3)
  %ncells = getelementptr inbounds %class.Mesh, ptr %this, i64 0, i32 45
  %4 = load i64, ptr %ncells, align 8, !tbaa !39
  %cmp3109.not = icmp eq i64 %4, 0
  br i1 %cmp3109.not, label %for.cond.cleanup, label %for.body.lr.ph

for.body.lr.ph:                                   ; preds = %if.then
  %noffset = getelementptr inbounds %class.Mesh, ptr %this, i64 0, i32 13
  %i = getelementptr inbounds %class.Mesh, ptr %this, i64 0, i32 64
  %j = getelementptr inbounds %class.Mesh, ptr %this, i64 0, i32 65
  %level = getelementptr inbounds %class.Mesh, ptr %this, i64 0, i32 67
  %nrht = getelementptr inbounds %class.Mesh, ptr %this, i64 0, i32 70
  %nbot = getelementptr inbounds %class.Mesh, ptr %this, i64 0, i32 71
  %ntop = getelementptr inbounds %class.Mesh, ptr %this, i64 0, i32 72
  br label %for.body

for.cond.cleanup.loopexit:                        ; preds = %for.body
  %5 = and i64 %24, 4294967295
  br label %for.cond.cleanup

for.cond.cleanup:                                 ; preds = %for.cond.cleanup.loopexit, %if.then
  %.lcssa = phi i64 [ 0, %if.then ], [ %5, %for.cond.cleanup.loopexit ]
  %6 = load i64, ptr %ncells_ghost, align 8, !tbaa !71
  %cmp26113 = icmp ugt i64 %6, %.lcssa
  br i1 %cmp26113, label %for.body28.lr.ph, label %if.end

for.body28.lr.ph:                                 ; preds = %for.cond.cleanup
  %noffset31 = getelementptr inbounds %class.Mesh, ptr %this, i64 0, i32 13
  %i33 = getelementptr inbounds %class.Mesh, ptr %this, i64 0, i32 64
  %j36 = getelementptr inbounds %class.Mesh, ptr %this, i64 0, i32 65
  %level39 = getelementptr inbounds %class.Mesh, ptr %this, i64 0, i32 67
  %nrht45 = getelementptr inbounds %class.Mesh, ptr %this, i64 0, i32 70
  %nbot48 = getelementptr inbounds %class.Mesh, ptr %this, i64 0, i32 71
  %ntop51 = getelementptr inbounds %class.Mesh, ptr %this, i64 0, i32 72
  br label %for.body28

for.body:                                         ; preds = %for.body.lr.ph, %for.body
  %conv111 = phi i64 [ 0, %for.body.lr.ph ], [ %conv, %for.body ]
  %indvars = trunc i64 %conv111 to i32
  %7 = load ptr, ptr %fp58, align 8, !tbaa !72
  %8 = load i32, ptr %mype59, align 4, !tbaa !73
  %9 = load i32, ptr %noffset, align 4, !tbaa !74
  %add = add i32 %9, %indvars
  %10 = load ptr, ptr %i, align 8, !tbaa !52
  %arrayidx = getelementptr inbounds i32, ptr %10, i64 %conv111
  %11 = load i32, ptr %arrayidx, align 4, !tbaa !59
  %12 = load ptr, ptr %j, align 8, !tbaa !53
  %arrayidx7 = getelementptr inbounds i32, ptr %12, i64 %conv111
  %13 = load i32, ptr %arrayidx7, align 4, !tbaa !59
  %14 = load ptr, ptr %level, align 8, !tbaa !54
  %arrayidx9 = getelementptr inbounds i32, ptr %14, i64 %conv111
  %15 = load i32, ptr %arrayidx9, align 4, !tbaa !59
  %16 = load ptr, ptr %nlft, align 8, !tbaa !65
  %arrayidx12 = getelementptr inbounds i32, ptr %16, i64 %conv111
  %17 = load i32, ptr %arrayidx12, align 4, !tbaa !59
  %18 = load ptr, ptr %nrht, align 8, !tbaa !66
  %arrayidx14 = getelementptr inbounds i32, ptr %18, i64 %conv111
  %19 = load i32, ptr %arrayidx14, align 4, !tbaa !59
  %20 = load ptr, ptr %nbot, align 8, !tbaa !67
  %arrayidx16 = getelementptr inbounds i32, ptr %20, i64 %conv111
  %21 = load i32, ptr %arrayidx16, align 4, !tbaa !59
  %22 = load ptr, ptr %ntop, align 8, !tbaa !68
  %arrayidx18 = getelementptr inbounds i32, ptr %22, i64 %conv111
  %23 = load i32, ptr %arrayidx18, align 4, !tbaa !59
  %call19 = tail call i32 (ptr, ptr, ...) @fprintf(ptr noundef %7, ptr noundef nonnull @.str.20, i32 noundef %8, i32 noundef %indvars, i32 noundef %add, i32 noundef %11, i32 noundef %13, i32 noundef %15, i32 noundef %17, i32 noundef %19, i32 noundef %21, i32 noundef %23)
  %inc = add nuw nsw i64 %conv111, 1
  %conv = and i64 %inc, 4294967295
  %24 = load i64, ptr %ncells, align 8, !tbaa !39
  %cmp3 = icmp ugt i64 %24, %conv
  br i1 %cmp3, label %for.body, label %for.cond.cleanup.loopexit, !llvm.loop !75

for.body28:                                       ; preds = %for.body28.lr.ph, %for.body28
  %conv24115 = phi i64 [ %.lcssa, %for.body28.lr.ph ], [ %conv24, %for.body28 ]
  %indvars121 = trunc i64 %conv24115 to i32
  %25 = load ptr, ptr %fp58, align 8, !tbaa !72
  %26 = load i32, ptr %mype59, align 4, !tbaa !73
  %27 = load i32, ptr %noffset31, align 4, !tbaa !74
  %add32 = add i32 %27, %indvars121
  %28 = load ptr, ptr %i33, align 8, !tbaa !52
  %arrayidx35 = getelementptr inbounds i32, ptr %28, i64 %conv24115
  %29 = load i32, ptr %arrayidx35, align 4, !tbaa !59
  %30 = load ptr, ptr %j36, align 8, !tbaa !53
  %arrayidx38 = getelementptr inbounds i32, ptr %30, i64 %conv24115
  %31 = load i32, ptr %arrayidx38, align 4, !tbaa !59
  %32 = load ptr, ptr %level39, align 8, !tbaa !54
  %arrayidx41 = getelementptr inbounds i32, ptr %32, i64 %conv24115
  %33 = load i32, ptr %arrayidx41, align 4, !tbaa !59
  %34 = load ptr, ptr %nlft, align 8, !tbaa !65
  %arrayidx44 = getelementptr inbounds i32, ptr %34, i64 %conv24115
  %35 = load i32, ptr %arrayidx44, align 4, !tbaa !59
  %36 = load ptr, ptr %nrht45, align 8, !tbaa !66
  %arrayidx47 = getelementptr inbounds i32, ptr %36, i64 %conv24115
  %37 = load i32, ptr %arrayidx47, align 4, !tbaa !59
  %38 = load ptr, ptr %nbot48, align 8, !tbaa !67
  %arrayidx50 = getelementptr inbounds i32, ptr %38, i64 %conv24115
  %39 = load i32, ptr %arrayidx50, align 4, !tbaa !59
  %40 = load ptr, ptr %ntop51, align 8, !tbaa !68
  %arrayidx53 = getelementptr inbounds i32, ptr %40, i64 %conv24115
  %41 = load i32, ptr %arrayidx53, align 4, !tbaa !59
  %call54 = tail call i32 (ptr, ptr, ...) @fprintf(ptr noundef %25, ptr noundef nonnull @.str.20, i32 noundef %26, i32 noundef %indvars121, i32 noundef %add32, i32 noundef %29, i32 noundef %31, i32 noundef %33, i32 noundef %35, i32 noundef %37, i32 noundef %39, i32 noundef %41)
  %inc56 = add nuw nsw i64 %conv24115, 1
  %conv24 = and i64 %inc56, 4294967295
  %42 = load i64, ptr %ncells_ghost, align 8, !tbaa !71
  %cmp26 = icmp ugt i64 %42, %conv24
  br i1 %cmp26, label %for.body28, label %if.end, !llvm.loop !76

if.else:                                          ; preds = %entry
  %call60 = tail call i32 (ptr, ptr, ...) @fprintf(ptr noundef %2, ptr noundef nonnull @.str.21, i32 noundef %3)
  %43 = load i64, ptr %ncells_ghost, align 8, !tbaa !71
  %cmp65116.not = icmp eq i64 %43, 0
  br i1 %cmp65116.not, label %if.end, label %for.body67.lr.ph

for.body67.lr.ph:                                 ; preds = %if.else
  %i70 = getelementptr inbounds %class.Mesh, ptr %this, i64 0, i32 64
  %j73 = getelementptr inbounds %class.Mesh, ptr %this, i64 0, i32 65
  %level76 = getelementptr inbounds %class.Mesh, ptr %this, i64 0, i32 67
  br label %for.body67

for.body67:                                       ; preds = %for.body67.lr.ph, %for.body67
  %conv63118 = phi i64 [ 0, %for.body67.lr.ph ], [ %conv63, %for.body67 ]
  %indvars122 = trunc i64 %conv63118 to i32
  %44 = load ptr, ptr %fp58, align 8, !tbaa !72
  %45 = load i32, ptr %mype59, align 4, !tbaa !73
  %46 = load ptr, ptr %i70, align 8, !tbaa !52
  %arrayidx72 = getelementptr inbounds i32, ptr %46, i64 %conv63118
  %47 = load i32, ptr %arrayidx72, align 4, !tbaa !59
  %48 = load ptr, ptr %j73, align 8, !tbaa !53
  %arrayidx75 = getelementptr inbounds i32, ptr %48, i64 %conv63118
  %49 = load i32, ptr %arrayidx75, align 4, !tbaa !59
  %50 = load ptr, ptr %level76, align 8, !tbaa !54
  %arrayidx78 = getelementptr inbounds i32, ptr %50, i64 %conv63118
  %51 = load i32, ptr %arrayidx78, align 4, !tbaa !59
  %call79 = tail call i32 (ptr, ptr, ...) @fprintf(ptr noundef %44, ptr noundef nonnull @.str.22, i32 noundef %45, i32 noundef %indvars122, i32 noundef %47, i32 noundef %49, i32 noundef %51)
  %inc81 = add nuw nsw i64 %conv63118, 1
  %conv63 = and i64 %inc81, 4294967295
  %52 = load i64, ptr %ncells_ghost, align 8, !tbaa !71
  %cmp65 = icmp ugt i64 %52, %conv63
  br i1 %cmp65, label %for.body67, label %if.end, !llvm.loop !77

if.end:                                           ; preds = %for.body28, %for.body67, %for.cond.cleanup, %if.else
  ret void
}

declare noundef i64 @_ZN10MallocPlus15get_memory_sizeEPv(ptr noundef nonnull align 8 dereferenceable(48), ptr noundef) local_unnamed_addr #7

; Function Attrs: mustprogress nofree norecurse nosync nounwind willreturn memory(none) uwtable
define dso_local void @_ZN4Mesh41compare_neighbors_cpu_local_to_cpu_globalEjjPS_PiS1_(ptr nocapture noundef nonnull align 8 dereferenceable(2192) %this, i32 noundef %ncells_ghost, i32 noundef %ncells_global, ptr nocapture noundef %mesh_global, ptr nocapture noundef %nsizes, ptr nocapture noundef %ndispl) local_unnamed_addr #10 align 2 {
entry:
  ret void
}

; Function Attrs: uwtable
define dso_local void @_ZN4Mesh39compare_indices_cpu_local_to_cpu_globalEjPS_PiS1_i(ptr nocapture noundef nonnull readnone align 8 dereferenceable(2192) %this, i32 noundef %ncells_global, ptr nocapture noundef readonly %mesh_global, ptr nocapture noundef readnone %nsizes, ptr nocapture noundef readnone %ndispl, i32 noundef %cycle) local_unnamed_addr #3 align 2 personality ptr @__gxx_personality_v0 {
entry:
  %celltype = getelementptr inbounds %class.Mesh, ptr %mesh_global, i64 0, i32 68
  %0 = load ptr, ptr %celltype, align 8, !tbaa !78
  %i = getelementptr inbounds %class.Mesh, ptr %mesh_global, i64 0, i32 64
  %1 = load ptr, ptr %i, align 8, !tbaa !52
  %j = getelementptr inbounds %class.Mesh, ptr %mesh_global, i64 0, i32 65
  %2 = load ptr, ptr %j, align 8, !tbaa !53
  %level = getelementptr inbounds %class.Mesh, ptr %mesh_global, i64 0, i32 67
  %3 = load ptr, ptr %level, align 8, !tbaa !54
  %conv = zext i32 %ncells_global to i64
  %cmp.not.i = icmp eq i32 %ncells_global, 0
  br i1 %cmp.not.i, label %_ZNSt3__16vectorIiNS_9allocatorIiEEED2B7v170000Ev.exit160, label %if.then.i

if.then.i:                                        ; preds = %entry
  %mul.i.i.i.i = shl nuw nsw i64 %conv, 2
  %call.i5.i.i.i.i7.i = tail call noalias noundef nonnull ptr @_Znwm(i64 noundef %mul.i.i.i.i) #36
  tail call void @llvm.memset.p0.i64(ptr nonnull align 4 %call.i5.i.i.i.i7.i, i8 0, i64 %mul.i.i.i.i, i1 false), !tbaa !59
  %call.i5.i.i.i.i7.i110 = invoke noalias noundef nonnull ptr @_Znwm(i64 noundef %mul.i.i.i.i) #36
          to label %if.then.i122 unwind label %_ZNSt3__128__exception_guard_exceptionsINS_6vectorIiNS_9allocatorIiEEE16__destroy_vectorEED2B7v170000Ev.exit.i117

_ZNSt3__128__exception_guard_exceptionsINS_6vectorIiNS_9allocatorIiEEE16__destroy_vectorEED2B7v170000Ev.exit.i117: ; preds = %if.then.i
  %4 = landingpad { ptr, i32 }
          cleanup
  br label %_ZNSt3__16vectorIiNS_9allocatorIiEEED2B7v170000Ev.exit179

if.then.i122:                                     ; preds = %if.then.i
  tail call void @llvm.memset.p0.i64(ptr nonnull align 4 %call.i5.i.i.i.i7.i110, i8 0, i64 %mul.i.i.i.i, i1 false), !tbaa !59
  %call.i5.i.i.i.i7.i124 = invoke noalias noundef nonnull ptr @_Znwm(i64 noundef %mul.i.i.i.i) #36
          to label %if.then.i137 unwind label %_ZNSt3__128__exception_guard_exceptionsINS_6vectorIiNS_9allocatorIiEEE16__destroy_vectorEED2B7v170000Ev.exit.i131

_ZNSt3__128__exception_guard_exceptionsINS_6vectorIiNS_9allocatorIiEEE16__destroy_vectorEED2B7v170000Ev.exit.i131: ; preds = %if.then.i122
  %5 = landingpad { ptr, i32 }
          cleanup
  br label %_ZNSt3__16vectorIiNS_9allocatorIiEEED2B7v170000Ev.exit175

if.then.i137:                                     ; preds = %if.then.i122
  tail call void @llvm.memset.p0.i64(ptr nonnull align 4 %call.i5.i.i.i.i7.i124, i8 0, i64 %mul.i.i.i.i, i1 false), !tbaa !59
  %call.i5.i.i.i.i7.i139 = invoke noalias noundef nonnull ptr @_Znwm(i64 noundef %mul.i.i.i.i) #36
          to label %for.body.preheader unwind label %_ZNSt3__16vectorIiNS_9allocatorIiEEED2B7v170000Ev.exit164

for.body.preheader:                               ; preds = %if.then.i137
  tail call void @llvm.memset.p0.i64(ptr nonnull align 4 %call.i5.i.i.i.i7.i139, i8 0, i64 %mul.i.i.i.i, i1 false), !tbaa !59
  br label %for.body

if.then.i.i159:                                   ; preds = %for.inc
  tail call void @_ZdlPv(ptr noundef nonnull %call.i5.i.i.i.i7.i139) #34
  tail call void @_ZdlPv(ptr noundef nonnull %call.i5.i.i.i.i7.i124) #34
  tail call void @_ZdlPv(ptr noundef nonnull %call.i5.i.i.i.i7.i110) #34
  tail call void @_ZdlPv(ptr noundef nonnull %call.i5.i.i.i.i7.i) #34
  br label %_ZNSt3__16vectorIiNS_9allocatorIiEEED2B7v170000Ev.exit160

_ZNSt3__16vectorIiNS_9allocatorIiEEED2B7v170000Ev.exit160: ; preds = %entry, %if.then.i.i159
  ret void

_ZNSt3__16vectorIiNS_9allocatorIiEEED2B7v170000Ev.exit164: ; preds = %if.then.i137
  %6 = landingpad { ptr, i32 }
          cleanup
  tail call void @_ZdlPv(ptr noundef nonnull %call.i5.i.i.i.i7.i124) #34
  br label %_ZNSt3__16vectorIiNS_9allocatorIiEEED2B7v170000Ev.exit175

for.body:                                         ; preds = %for.body.preheader, %for.inc
  %indvars.iv = phi i64 [ 0, %for.body.preheader ], [ %indvars.iv.next, %for.inc ]
  %arrayidx = getelementptr inbounds i32, ptr %0, i64 %indvars.iv
  %7 = load i32, ptr %arrayidx, align 4, !tbaa !59
  %arrayidx.i = getelementptr inbounds i32, ptr %call.i5.i.i.i.i7.i139, i64 %indvars.iv
  %8 = load i32, ptr %arrayidx.i, align 4, !tbaa !59
  %cmp10.not = icmp eq i32 %7, %8
  br i1 %cmp10.not, label %if.end, label %if.then

if.then:                                          ; preds = %for.body
  %9 = trunc i64 %indvars.iv to i32
  %call17 = tail call i32 (ptr, ...) @printf(ptr noundef nonnull dereferenceable(1) @.str.23, i32 noundef %cycle, i32 noundef %9, i32 noundef %7, i32 noundef %8)
  br label %if.end

if.end:                                           ; preds = %if.then, %for.body
  %arrayidx19 = getelementptr inbounds i32, ptr %1, i64 %indvars.iv
  %10 = load i32, ptr %arrayidx19, align 4, !tbaa !59
  %arrayidx.i166 = getelementptr inbounds i32, ptr %call.i5.i.i.i.i7.i, i64 %indvars.iv
  %11 = load i32, ptr %arrayidx.i166, align 4, !tbaa !59
  %cmp22.not = icmp eq i32 %10, %11
  br i1 %cmp22.not, label %if.end30, label %if.then23

if.then23:                                        ; preds = %if.end
  %12 = trunc i64 %indvars.iv to i32
  %call29 = tail call i32 (ptr, ...) @printf(ptr noundef nonnull dereferenceable(1) @.str.24, i32 noundef %cycle, i32 noundef %12, i32 noundef %10, i32 noundef %11)
  br label %if.end30

if.end30:                                         ; preds = %if.then23, %if.end
  %arrayidx32 = getelementptr inbounds i32, ptr %2, i64 %indvars.iv
  %13 = load i32, ptr %arrayidx32, align 4, !tbaa !59
  %arrayidx.i168 = getelementptr inbounds i32, ptr %call.i5.i.i.i.i7.i110, i64 %indvars.iv
  %14 = load i32, ptr %arrayidx.i168, align 4, !tbaa !59
  %cmp35.not = icmp eq i32 %13, %14
  br i1 %cmp35.not, label %if.end43, label %if.then36

if.then36:                                        ; preds = %if.end30
  %15 = trunc i64 %indvars.iv to i32
  %call42 = tail call i32 (ptr, ...) @printf(ptr noundef nonnull dereferenceable(1) @.str.25, i32 noundef %cycle, i32 noundef %15, i32 noundef %13, i32 noundef %14)
  br label %if.end43

if.end43:                                         ; preds = %if.then36, %if.end30
  %arrayidx45 = getelementptr inbounds i32, ptr %3, i64 %indvars.iv
  %16 = load i32, ptr %arrayidx45, align 4, !tbaa !59
  %arrayidx.i170 = getelementptr inbounds i32, ptr %call.i5.i.i.i.i7.i124, i64 %indvars.iv
  %17 = load i32, ptr %arrayidx.i170, align 4, !tbaa !59
  %cmp48.not = icmp eq i32 %16, %17
  br i1 %cmp48.not, label %for.inc, label %if.then49

if.then49:                                        ; preds = %if.end43
  %18 = trunc i64 %indvars.iv to i32
  %call55 = tail call i32 (ptr, ...) @printf(ptr noundef nonnull dereferenceable(1) @.str.26, i32 noundef %cycle, i32 noundef %18, i32 noundef %16, i32 noundef %17)
  br label %for.inc

for.inc:                                          ; preds = %if.end43, %if.then49
  %indvars.iv.next = add nuw nsw i64 %indvars.iv, 1
  %exitcond.not = icmp eq i64 %indvars.iv.next, %conv
  br i1 %exitcond.not, label %if.then.i.i159, label %for.body, !llvm.loop !79

_ZNSt3__16vectorIiNS_9allocatorIiEEED2B7v170000Ev.exit175: ; preds = %_ZNSt3__128__exception_guard_exceptionsINS_6vectorIiNS_9allocatorIiEEE16__destroy_vectorEED2B7v170000Ev.exit.i131, %_ZNSt3__16vectorIiNS_9allocatorIiEEED2B7v170000Ev.exit164
  %.pn.ph = phi { ptr, i32 } [ %5, %_ZNSt3__128__exception_guard_exceptionsINS_6vectorIiNS_9allocatorIiEEE16__destroy_vectorEED2B7v170000Ev.exit.i131 ], [ %6, %_ZNSt3__16vectorIiNS_9allocatorIiEEED2B7v170000Ev.exit164 ]
  tail call void @_ZdlPv(ptr noundef nonnull %call.i5.i.i.i.i7.i110) #34
  br label %_ZNSt3__16vectorIiNS_9allocatorIiEEED2B7v170000Ev.exit179

_ZNSt3__16vectorIiNS_9allocatorIiEEED2B7v170000Ev.exit179: ; preds = %_ZNSt3__128__exception_guard_exceptionsINS_6vectorIiNS_9allocatorIiEEE16__destroy_vectorEED2B7v170000Ev.exit.i117, %_ZNSt3__16vectorIiNS_9allocatorIiEEED2B7v170000Ev.exit175
  %.pn.pn.ph = phi { ptr, i32 } [ %4, %_ZNSt3__128__exception_guard_exceptionsINS_6vectorIiNS_9allocatorIiEEE16__destroy_vectorEED2B7v170000Ev.exit.i117 ], [ %.pn.ph, %_ZNSt3__16vectorIiNS_9allocatorIiEEED2B7v170000Ev.exit175 ]
  tail call void @_ZdlPv(ptr noundef nonnull %call.i5.i.i.i.i7.i) #34
  resume { ptr, i32 } %.pn.pn.ph
}

; Function Attrs: uwtable
define dso_local void @_ZN4Mesh50compare_coordinates_cpu_local_to_cpu_global_doubleEjPiS0_PdS1_S1_S1_S1_S1_S1_S1_S1_S1_i(ptr nocapture noundef nonnull readnone align 8 dereferenceable(2192) %this, i32 noundef %ncells_global, ptr nocapture noundef readnone %nsizes, ptr nocapture noundef readnone %ndispl, ptr nocapture noundef readnone %x, ptr nocapture noundef readnone %dx, ptr nocapture noundef readnone %y, ptr nocapture noundef readnone %dy, ptr nocapture noundef readnone %H, ptr nocapture noundef readonly %x_global, ptr nocapture noundef readonly %dx_global, ptr nocapture noundef readonly %y_global, ptr nocapture noundef readonly %dy_global, ptr nocapture noundef readonly %H_global, i32 noundef %cycle) local_unnamed_addr #3 align 2 personality ptr @__gxx_personality_v0 {
entry:
  %conv = zext i32 %ncells_global to i64
  %cmp.not.i = icmp eq i32 %ncells_global, 0
  br i1 %cmp.not.i, label %_ZNSt3__16vectorIdNS_9allocatorIdEEED2B7v170000Ev.exit203, label %if.then.i

if.then.i:                                        ; preds = %entry
  %mul.i.i.i.i = shl nuw nsw i64 %conv, 3
  %call.i5.i.i.i.i7.i = tail call noalias noundef nonnull ptr @_Znwm(i64 noundef %mul.i.i.i.i) #36
  tail call void @llvm.memset.p0.i64(ptr nonnull align 8 %call.i5.i.i.i.i7.i, i8 0, i64 %mul.i.i.i.i, i1 false), !tbaa !41
  %call.i5.i.i.i.i7.i134 = invoke noalias noundef nonnull ptr @_Znwm(i64 noundef %mul.i.i.i.i) #36
          to label %if.then.i146 unwind label %_ZNSt3__128__exception_guard_exceptionsINS_6vectorIdNS_9allocatorIdEEE16__destroy_vectorEED2B7v170000Ev.exit.i141

_ZNSt3__128__exception_guard_exceptionsINS_6vectorIdNS_9allocatorIdEEE16__destroy_vectorEED2B7v170000Ev.exit.i141: ; preds = %if.then.i
  %0 = landingpad { ptr, i32 }
          cleanup
  br label %_ZNSt3__16vectorIdNS_9allocatorIdEEED2B7v170000Ev.exit228

if.then.i146:                                     ; preds = %if.then.i
  tail call void @llvm.memset.p0.i64(ptr nonnull align 8 %call.i5.i.i.i.i7.i134, i8 0, i64 %mul.i.i.i.i, i1 false), !tbaa !41
  %call.i5.i.i.i.i7.i148 = invoke noalias noundef nonnull ptr @_Znwm(i64 noundef %mul.i.i.i.i) #36
          to label %if.then.i161 unwind label %_ZNSt3__128__exception_guard_exceptionsINS_6vectorIdNS_9allocatorIdEEE16__destroy_vectorEED2B7v170000Ev.exit.i155

_ZNSt3__128__exception_guard_exceptionsINS_6vectorIdNS_9allocatorIdEEE16__destroy_vectorEED2B7v170000Ev.exit.i155: ; preds = %if.then.i146
  %1 = landingpad { ptr, i32 }
          cleanup
  br label %_ZNSt3__16vectorIdNS_9allocatorIdEEED2B7v170000Ev.exit224

if.then.i161:                                     ; preds = %if.then.i146
  tail call void @llvm.memset.p0.i64(ptr nonnull align 8 %call.i5.i.i.i.i7.i148, i8 0, i64 %mul.i.i.i.i, i1 false), !tbaa !41
  %call.i5.i.i.i.i7.i163 = invoke noalias noundef nonnull ptr @_Znwm(i64 noundef %mul.i.i.i.i) #36
          to label %if.then.i176 unwind label %_ZNSt3__128__exception_guard_exceptionsINS_6vectorIdNS_9allocatorIdEEE16__destroy_vectorEED2B7v170000Ev.exit.i170

_ZNSt3__128__exception_guard_exceptionsINS_6vectorIdNS_9allocatorIdEEE16__destroy_vectorEED2B7v170000Ev.exit.i170: ; preds = %if.then.i161
  %2 = landingpad { ptr, i32 }
          cleanup
  br label %_ZNSt3__16vectorIdNS_9allocatorIdEEED2B7v170000Ev.exit220

if.then.i176:                                     ; preds = %if.then.i161
  tail call void @llvm.memset.p0.i64(ptr nonnull align 8 %call.i5.i.i.i.i7.i163, i8 0, i64 %mul.i.i.i.i, i1 false), !tbaa !41
  %call.i5.i.i.i.i7.i178 = invoke noalias noundef nonnull ptr @_Znwm(i64 noundef %mul.i.i.i.i) #36
          to label %for.body.preheader unwind label %_ZNSt3__16vectorIdNS_9allocatorIdEEED2B7v170000Ev.exit207

for.body.preheader:                               ; preds = %if.then.i176
  tail call void @llvm.memset.p0.i64(ptr nonnull align 8 %call.i5.i.i.i.i7.i178, i8 0, i64 %mul.i.i.i.i, i1 false), !tbaa !41
  br label %for.body

if.then.i.i202:                                   ; preds = %for.inc
  tail call void @_ZdlPv(ptr noundef nonnull %call.i5.i.i.i.i7.i178) #34
  tail call void @_ZdlPv(ptr noundef nonnull %call.i5.i.i.i.i7.i163) #34
  tail call void @_ZdlPv(ptr noundef nonnull %call.i5.i.i.i.i7.i148) #34
  tail call void @_ZdlPv(ptr noundef nonnull %call.i5.i.i.i.i7.i134) #34
  tail call void @_ZdlPv(ptr noundef nonnull %call.i5.i.i.i.i7.i) #34
  br label %_ZNSt3__16vectorIdNS_9allocatorIdEEED2B7v170000Ev.exit203

_ZNSt3__16vectorIdNS_9allocatorIdEEED2B7v170000Ev.exit203: ; preds = %entry, %if.then.i.i202
  ret void

_ZNSt3__16vectorIdNS_9allocatorIdEEED2B7v170000Ev.exit207: ; preds = %if.then.i176
  %3 = landingpad { ptr, i32 }
          cleanup
  tail call void @_ZdlPv(ptr noundef nonnull %call.i5.i.i.i.i7.i163) #34
  br label %_ZNSt3__16vectorIdNS_9allocatorIdEEED2B7v170000Ev.exit220

for.body:                                         ; preds = %for.body.preheader, %for.inc
  %indvars.iv = phi i64 [ 0, %for.body.preheader ], [ %indvars.iv.next, %for.inc ]
  %arrayidx = getelementptr inbounds double, ptr %x_global, i64 %indvars.iv
  %4 = load double, ptr %arrayidx, align 8, !tbaa !41
  %arrayidx.i = getelementptr inbounds double, ptr %call.i5.i.i.i.i7.i, i64 %indvars.iv
  %5 = load double, ptr %arrayidx.i, align 8, !tbaa !41
  %sub = fsub double %4, %5
  %6 = tail call double @llvm.fabs.f64(double %sub)
  %cmp13 = fcmp ogt double %6, 2.500000e-02
  br i1 %cmp13, label %if.then, label %if.end

if.then:                                          ; preds = %for.body
  %7 = trunc i64 %indvars.iv to i32
  %call20 = tail call i32 (ptr, ...) @printf(ptr noundef nonnull dereferenceable(1) @.str.27, i32 noundef %cycle, i32 noundef %7, double noundef %4, double noundef %5)
  br label %if.end

if.end:                                           ; preds = %if.then, %for.body
  %arrayidx22 = getelementptr inbounds double, ptr %dx_global, i64 %indvars.iv
  %8 = load double, ptr %arrayidx22, align 8, !tbaa !41
  %arrayidx.i209 = getelementptr inbounds double, ptr %call.i5.i.i.i.i7.i134, i64 %indvars.iv
  %9 = load double, ptr %arrayidx.i209, align 8, !tbaa !41
  %sub25 = fsub double %8, %9
  %10 = tail call double @llvm.fabs.f64(double %sub25)
  %cmp26 = fcmp ogt double %10, 2.500000e-02
  br i1 %cmp26, label %if.then27, label %if.end34

if.then27:                                        ; preds = %if.end
  %11 = trunc i64 %indvars.iv to i32
  %call33 = tail call i32 (ptr, ...) @printf(ptr noundef nonnull dereferenceable(1) @.str.28, i32 noundef %cycle, i32 noundef %11, double noundef %8, double noundef %9)
  br label %if.end34

if.end34:                                         ; preds = %if.then27, %if.end
  %arrayidx36 = getelementptr inbounds double, ptr %y_global, i64 %indvars.iv
  %12 = load double, ptr %arrayidx36, align 8, !tbaa !41
  %arrayidx.i211 = getelementptr inbounds double, ptr %call.i5.i.i.i.i7.i148, i64 %indvars.iv
  %13 = load double, ptr %arrayidx.i211, align 8, !tbaa !41
  %sub39 = fsub double %12, %13
  %14 = tail call double @llvm.fabs.f64(double %sub39)
  %cmp40 = fcmp ogt double %14, 2.500000e-02
  br i1 %cmp40, label %if.then41, label %if.end48

if.then41:                                        ; preds = %if.end34
  %15 = trunc i64 %indvars.iv to i32
  %call47 = tail call i32 (ptr, ...) @printf(ptr noundef nonnull dereferenceable(1) @.str.29, i32 noundef %cycle, i32 noundef %15, double noundef %12, double noundef %13)
  br label %if.end48

if.end48:                                         ; preds = %if.then41, %if.end34
  %arrayidx50 = getelementptr inbounds double, ptr %dy_global, i64 %indvars.iv
  %16 = load double, ptr %arrayidx50, align 8, !tbaa !41
  %arrayidx.i213 = getelementptr inbounds double, ptr %call.i5.i.i.i.i7.i163, i64 %indvars.iv
  %17 = load double, ptr %arrayidx.i213, align 8, !tbaa !41
  %sub53 = fsub double %16, %17
  %18 = tail call double @llvm.fabs.f64(double %sub53)
  %cmp54 = fcmp ogt double %18, 2.500000e-02
  br i1 %cmp54, label %if.then55, label %if.end62

if.then55:                                        ; preds = %if.end48
  %19 = trunc i64 %indvars.iv to i32
  %call61 = tail call i32 (ptr, ...) @printf(ptr noundef nonnull dereferenceable(1) @.str.30, i32 noundef %cycle, i32 noundef %19, double noundef %16, double noundef %17)
  br label %if.end62

if.end62:                                         ; preds = %if.then55, %if.end48
  %arrayidx64 = getelementptr inbounds double, ptr %H_global, i64 %indvars.iv
  %20 = load double, ptr %arrayidx64, align 8, !tbaa !41
  %arrayidx.i215 = getelementptr inbounds double, ptr %call.i5.i.i.i.i7.i178, i64 %indvars.iv
  %21 = load double, ptr %arrayidx.i215, align 8, !tbaa !41
  %sub67 = fsub double %20, %21
  %22 = tail call double @llvm.fabs.f64(double %sub67)
  %cmp68 = fcmp ogt double %22, 2.500000e-02
  br i1 %cmp68, label %if.then69, label %for.inc

if.then69:                                        ; preds = %if.end62
  %23 = trunc i64 %indvars.iv to i32
  %call75 = tail call i32 (ptr, ...) @printf(ptr noundef nonnull dereferenceable(1) @.str.31, i32 noundef %cycle, i32 noundef %23, double noundef %20, double noundef %21)
  br label %for.inc

for.inc:                                          ; preds = %if.end62, %if.then69
  %indvars.iv.next = add nuw nsw i64 %indvars.iv, 1
  %exitcond.not = icmp eq i64 %indvars.iv.next, %conv
  br i1 %exitcond.not, label %if.then.i.i202, label %for.body, !llvm.loop !80

_ZNSt3__16vectorIdNS_9allocatorIdEEED2B7v170000Ev.exit220: ; preds = %_ZNSt3__128__exception_guard_exceptionsINS_6vectorIdNS_9allocatorIdEEE16__destroy_vectorEED2B7v170000Ev.exit.i170, %_ZNSt3__16vectorIdNS_9allocatorIdEEED2B7v170000Ev.exit207
  %.pn.ph = phi { ptr, i32 } [ %2, %_ZNSt3__128__exception_guard_exceptionsINS_6vectorIdNS_9allocatorIdEEE16__destroy_vectorEED2B7v170000Ev.exit.i170 ], [ %3, %_ZNSt3__16vectorIdNS_9allocatorIdEEED2B7v170000Ev.exit207 ]
  tail call void @_ZdlPv(ptr noundef nonnull %call.i5.i.i.i.i7.i148) #34
  br label %_ZNSt3__16vectorIdNS_9allocatorIdEEED2B7v170000Ev.exit224

_ZNSt3__16vectorIdNS_9allocatorIdEEED2B7v170000Ev.exit224: ; preds = %_ZNSt3__128__exception_guard_exceptionsINS_6vectorIdNS_9allocatorIdEEE16__destroy_vectorEED2B7v170000Ev.exit.i155, %_ZNSt3__16vectorIdNS_9allocatorIdEEED2B7v170000Ev.exit220
  %.pn.pn.ph = phi { ptr, i32 } [ %1, %_ZNSt3__128__exception_guard_exceptionsINS_6vectorIdNS_9allocatorIdEEE16__destroy_vectorEED2B7v170000Ev.exit.i155 ], [ %.pn.ph, %_ZNSt3__16vectorIdNS_9allocatorIdEEED2B7v170000Ev.exit220 ]
  tail call void @_ZdlPv(ptr noundef nonnull %call.i5.i.i.i.i7.i134) #34
  br label %_ZNSt3__16vectorIdNS_9allocatorIdEEED2B7v170000Ev.exit228

_ZNSt3__16vectorIdNS_9allocatorIdEEED2B7v170000Ev.exit228: ; preds = %_ZNSt3__128__exception_guard_exceptionsINS_6vectorIdNS_9allocatorIdEEE16__destroy_vectorEED2B7v170000Ev.exit.i141, %_ZNSt3__16vectorIdNS_9allocatorIdEEED2B7v170000Ev.exit224
  %.pn.pn.pn.ph = phi { ptr, i32 } [ %0, %_ZNSt3__128__exception_guard_exceptionsINS_6vectorIdNS_9allocatorIdEEE16__destroy_vectorEED2B7v170000Ev.exit.i141 ], [ %.pn.pn.ph, %_ZNSt3__16vectorIdNS_9allocatorIdEEED2B7v170000Ev.exit224 ]
  tail call void @_ZdlPv(ptr noundef nonnull %call.i5.i.i.i.i7.i) #34
  resume { ptr, i32 } %.pn.pn.pn.ph
}

; Function Attrs: mustprogress nocallback nofree nosync nounwind speculatable willreturn memory(none)
declare double @llvm.fabs.f64(double) #11

; Function Attrs: uwtable
define dso_local void @_ZN4Mesh49compare_coordinates_cpu_local_to_cpu_global_floatEjPiS0_PdS1_S1_S1_PfS1_S1_S1_S1_S2_i(ptr nocapture noundef nonnull readnone align 8 dereferenceable(2192) %this, i32 noundef %ncells_global, ptr nocapture noundef readnone %nsizes, ptr nocapture noundef readnone %ndispl, ptr nocapture noundef readnone %x, ptr nocapture noundef readnone %dx, ptr nocapture noundef readnone %y, ptr nocapture noundef readnone %dy, ptr nocapture noundef readnone %H, ptr nocapture noundef readonly %x_global, ptr nocapture noundef readonly %dx_global, ptr nocapture noundef readonly %y_global, ptr nocapture noundef readonly %dy_global, ptr nocapture noundef readonly %H_global, i32 noundef %cycle) local_unnamed_addr #3 align 2 personality ptr @__gxx_personality_v0 {
entry:
  %conv = zext i32 %ncells_global to i64
  %cmp.not.i = icmp eq i32 %ncells_global, 0
  br i1 %cmp.not.i, label %_ZNSt3__16vectorIdNS_9allocatorIdEEED2B7v170000Ev.exit201, label %if.then.i

if.then.i:                                        ; preds = %entry
  %mul.i.i.i.i = shl nuw nsw i64 %conv, 3
  %call.i5.i.i.i.i7.i = tail call noalias noundef nonnull ptr @_Znwm(i64 noundef %mul.i.i.i.i) #36
  tail call void @llvm.memset.p0.i64(ptr nonnull align 8 %call.i5.i.i.i.i7.i, i8 0, i64 %mul.i.i.i.i, i1 false), !tbaa !41
  %call.i5.i.i.i.i7.i138 = invoke noalias noundef nonnull ptr @_Znwm(i64 noundef %mul.i.i.i.i) #36
          to label %if.then.i150 unwind label %_ZNSt3__128__exception_guard_exceptionsINS_6vectorIdNS_9allocatorIdEEE16__destroy_vectorEED2B7v170000Ev.exit.i145

_ZNSt3__128__exception_guard_exceptionsINS_6vectorIdNS_9allocatorIdEEE16__destroy_vectorEED2B7v170000Ev.exit.i145: ; preds = %if.then.i
  %0 = landingpad { ptr, i32 }
          cleanup
  br label %_ZNSt3__16vectorIdNS_9allocatorIdEEED2B7v170000Ev.exit226

if.then.i150:                                     ; preds = %if.then.i
  tail call void @llvm.memset.p0.i64(ptr nonnull align 8 %call.i5.i.i.i.i7.i138, i8 0, i64 %mul.i.i.i.i, i1 false), !tbaa !41
  %call.i5.i.i.i.i7.i152 = invoke noalias noundef nonnull ptr @_Znwm(i64 noundef %mul.i.i.i.i) #36
          to label %if.then.i165 unwind label %_ZNSt3__128__exception_guard_exceptionsINS_6vectorIdNS_9allocatorIdEEE16__destroy_vectorEED2B7v170000Ev.exit.i159

_ZNSt3__128__exception_guard_exceptionsINS_6vectorIdNS_9allocatorIdEEE16__destroy_vectorEED2B7v170000Ev.exit.i159: ; preds = %if.then.i150
  %1 = landingpad { ptr, i32 }
          cleanup
  br label %_ZNSt3__16vectorIdNS_9allocatorIdEEED2B7v170000Ev.exit222

if.then.i165:                                     ; preds = %if.then.i150
  tail call void @llvm.memset.p0.i64(ptr nonnull align 8 %call.i5.i.i.i.i7.i152, i8 0, i64 %mul.i.i.i.i, i1 false), !tbaa !41
  %call.i5.i.i.i.i7.i167 = invoke noalias noundef nonnull ptr @_Znwm(i64 noundef %mul.i.i.i.i) #36
          to label %if.then.i180 unwind label %_ZNSt3__128__exception_guard_exceptionsINS_6vectorIdNS_9allocatorIdEEE16__destroy_vectorEED2B7v170000Ev.exit.i174

_ZNSt3__128__exception_guard_exceptionsINS_6vectorIdNS_9allocatorIdEEE16__destroy_vectorEED2B7v170000Ev.exit.i174: ; preds = %if.then.i165
  %2 = landingpad { ptr, i32 }
          cleanup
  br label %_ZNSt3__16vectorIdNS_9allocatorIdEEED2B7v170000Ev.exit218

if.then.i180:                                     ; preds = %if.then.i165
  tail call void @llvm.memset.p0.i64(ptr nonnull align 8 %call.i5.i.i.i.i7.i167, i8 0, i64 %mul.i.i.i.i, i1 false), !tbaa !41
  %mul.i.i.i.i181 = shl nuw nsw i64 %conv, 2
  %call.i5.i.i.i.i8.i = invoke noalias noundef nonnull ptr @_Znwm(i64 noundef %mul.i.i.i.i181) #36
          to label %for.body.preheader unwind label %_ZNSt3__16vectorIdNS_9allocatorIdEEED2B7v170000Ev.exit205

for.body.preheader:                               ; preds = %if.then.i180
  tail call void @llvm.memset.p0.i64(ptr nonnull align 4 %call.i5.i.i.i.i8.i, i8 0, i64 %mul.i.i.i.i181, i1 false), !tbaa !81
  br label %for.body

if.then.i.i200:                                   ; preds = %for.inc
  tail call void @_ZdlPv(ptr noundef nonnull %call.i5.i.i.i.i8.i) #34
  tail call void @_ZdlPv(ptr noundef nonnull %call.i5.i.i.i.i7.i167) #34
  tail call void @_ZdlPv(ptr noundef nonnull %call.i5.i.i.i.i7.i152) #34
  tail call void @_ZdlPv(ptr noundef nonnull %call.i5.i.i.i.i7.i138) #34
  tail call void @_ZdlPv(ptr noundef nonnull %call.i5.i.i.i.i7.i) #34
  br label %_ZNSt3__16vectorIdNS_9allocatorIdEEED2B7v170000Ev.exit201

_ZNSt3__16vectorIdNS_9allocatorIdEEED2B7v170000Ev.exit201: ; preds = %entry, %if.then.i.i200
  ret void

_ZNSt3__16vectorIdNS_9allocatorIdEEED2B7v170000Ev.exit205: ; preds = %if.then.i180
  %3 = landingpad { ptr, i32 }
          cleanup
  tail call void @_ZdlPv(ptr noundef nonnull %call.i5.i.i.i.i7.i167) #34
  br label %_ZNSt3__16vectorIdNS_9allocatorIdEEED2B7v170000Ev.exit218

for.body:                                         ; preds = %for.body.preheader, %for.inc
  %indvars.iv = phi i64 [ 0, %for.body.preheader ], [ %indvars.iv.next, %for.inc ]
  %arrayidx = getelementptr inbounds double, ptr %x_global, i64 %indvars.iv
  %4 = load double, ptr %arrayidx, align 8, !tbaa !41
  %arrayidx.i = getelementptr inbounds double, ptr %call.i5.i.i.i.i7.i, i64 %indvars.iv
  %5 = load double, ptr %arrayidx.i, align 8, !tbaa !41
  %sub = fsub double %4, %5
  %6 = tail call double @llvm.fabs.f64(double %sub)
  %cmp13 = fcmp ogt double %6, 2.500000e-02
  br i1 %cmp13, label %if.then, label %if.end

if.then:                                          ; preds = %for.body
  %7 = trunc i64 %indvars.iv to i32
  %call20 = tail call i32 (ptr, ...) @printf(ptr noundef nonnull dereferenceable(1) @.str.27, i32 noundef %cycle, i32 noundef %7, double noundef %4, double noundef %5)
  br label %if.end

if.end:                                           ; preds = %if.then, %for.body
  %arrayidx22 = getelementptr inbounds double, ptr %dx_global, i64 %indvars.iv
  %8 = load double, ptr %arrayidx22, align 8, !tbaa !41
  %arrayidx.i207 = getelementptr inbounds double, ptr %call.i5.i.i.i.i7.i138, i64 %indvars.iv
  %9 = load double, ptr %arrayidx.i207, align 8, !tbaa !41
  %sub25 = fsub double %8, %9
  %10 = tail call double @llvm.fabs.f64(double %sub25)
  %cmp26 = fcmp ogt double %10, 2.500000e-02
  br i1 %cmp26, label %if.then27, label %if.end34

if.then27:                                        ; preds = %if.end
  %11 = trunc i64 %indvars.iv to i32
  %call33 = tail call i32 (ptr, ...) @printf(ptr noundef nonnull dereferenceable(1) @.str.28, i32 noundef %cycle, i32 noundef %11, double noundef %8, double noundef %9)
  br label %if.end34

if.end34:                                         ; preds = %if.then27, %if.end
  %arrayidx36 = getelementptr inbounds double, ptr %y_global, i64 %indvars.iv
  %12 = load double, ptr %arrayidx36, align 8, !tbaa !41
  %arrayidx.i209 = getelementptr inbounds double, ptr %call.i5.i.i.i.i7.i152, i64 %indvars.iv
  %13 = load double, ptr %arrayidx.i209, align 8, !tbaa !41
  %sub39 = fsub double %12, %13
  %14 = tail call double @llvm.fabs.f64(double %sub39)
  %cmp40 = fcmp ogt double %14, 2.500000e-02
  br i1 %cmp40, label %if.then41, label %if.end48

if.then41:                                        ; preds = %if.end34
  %15 = trunc i64 %indvars.iv to i32
  %call47 = tail call i32 (ptr, ...) @printf(ptr noundef nonnull dereferenceable(1) @.str.29, i32 noundef %cycle, i32 noundef %15, double noundef %12, double noundef %13)
  br label %if.end48

if.end48:                                         ; preds = %if.then41, %if.end34
  %arrayidx50 = getelementptr inbounds double, ptr %dy_global, i64 %indvars.iv
  %16 = load double, ptr %arrayidx50, align 8, !tbaa !41
  %arrayidx.i211 = getelementptr inbounds double, ptr %call.i5.i.i.i.i7.i167, i64 %indvars.iv
  %17 = load double, ptr %arrayidx.i211, align 8, !tbaa !41
  %sub53 = fsub double %16, %17
  %18 = tail call double @llvm.fabs.f64(double %sub53)
  %cmp54 = fcmp ogt double %18, 2.500000e-02
  br i1 %cmp54, label %if.then55, label %if.end62

if.then55:                                        ; preds = %if.end48
  %19 = trunc i64 %indvars.iv to i32
  %call61 = tail call i32 (ptr, ...) @printf(ptr noundef nonnull dereferenceable(1) @.str.30, i32 noundef %cycle, i32 noundef %19, double noundef %16, double noundef %17)
  br label %if.end62

if.end62:                                         ; preds = %if.then55, %if.end48
  %arrayidx64 = getelementptr inbounds float, ptr %H_global, i64 %indvars.iv
  %20 = load float, ptr %arrayidx64, align 4, !tbaa !81
  %arrayidx.i213 = getelementptr inbounds float, ptr %call.i5.i.i.i.i8.i, i64 %indvars.iv
  %21 = load float, ptr %arrayidx.i213, align 4, !tbaa !81
  %sub67 = fsub float %20, %21
  %22 = tail call float @llvm.fabs.f32(float %sub67)
  %conv69 = fpext float %22 to double
  %cmp70 = fcmp ogt double %conv69, 2.500000e-02
  br i1 %cmp70, label %if.then71, label %for.inc

if.then71:                                        ; preds = %if.end62
  %conv74 = fpext float %20 to double
  %conv77 = fpext float %21 to double
  %23 = trunc i64 %indvars.iv to i32
  %call79 = tail call i32 (ptr, ...) @printf(ptr noundef nonnull dereferenceable(1) @.str.31, i32 noundef %cycle, i32 noundef %23, double noundef %conv74, double noundef %conv77)
  br label %for.inc

for.inc:                                          ; preds = %if.end62, %if.then71
  %indvars.iv.next = add nuw nsw i64 %indvars.iv, 1
  %exitcond.not = icmp eq i64 %indvars.iv.next, %conv
  br i1 %exitcond.not, label %if.then.i.i200, label %for.body, !llvm.loop !82

_ZNSt3__16vectorIdNS_9allocatorIdEEED2B7v170000Ev.exit218: ; preds = %_ZNSt3__128__exception_guard_exceptionsINS_6vectorIdNS_9allocatorIdEEE16__destroy_vectorEED2B7v170000Ev.exit.i174, %_ZNSt3__16vectorIdNS_9allocatorIdEEED2B7v170000Ev.exit205
  %.pn.ph = phi { ptr, i32 } [ %2, %_ZNSt3__128__exception_guard_exceptionsINS_6vectorIdNS_9allocatorIdEEE16__destroy_vectorEED2B7v170000Ev.exit.i174 ], [ %3, %_ZNSt3__16vectorIdNS_9allocatorIdEEED2B7v170000Ev.exit205 ]
  tail call void @_ZdlPv(ptr noundef nonnull %call.i5.i.i.i.i7.i152) #34
  br label %_ZNSt3__16vectorIdNS_9allocatorIdEEED2B7v170000Ev.exit222

_ZNSt3__16vectorIdNS_9allocatorIdEEED2B7v170000Ev.exit222: ; preds = %_ZNSt3__128__exception_guard_exceptionsINS_6vectorIdNS_9allocatorIdEEE16__destroy_vectorEED2B7v170000Ev.exit.i159, %_ZNSt3__16vectorIdNS_9allocatorIdEEED2B7v170000Ev.exit218
  %.pn.pn.ph = phi { ptr, i32 } [ %1, %_ZNSt3__128__exception_guard_exceptionsINS_6vectorIdNS_9allocatorIdEEE16__destroy_vectorEED2B7v170000Ev.exit.i159 ], [ %.pn.ph, %_ZNSt3__16vectorIdNS_9allocatorIdEEED2B7v170000Ev.exit218 ]
  tail call void @_ZdlPv(ptr noundef nonnull %call.i5.i.i.i.i7.i138) #34
  br label %_ZNSt3__16vectorIdNS_9allocatorIdEEED2B7v170000Ev.exit226

_ZNSt3__16vectorIdNS_9allocatorIdEEED2B7v170000Ev.exit226: ; preds = %_ZNSt3__128__exception_guard_exceptionsINS_6vectorIdNS_9allocatorIdEEE16__destroy_vectorEED2B7v170000Ev.exit.i145, %_ZNSt3__16vectorIdNS_9allocatorIdEEED2B7v170000Ev.exit222
  %.pn.pn.pn.ph = phi { ptr, i32 } [ %0, %_ZNSt3__128__exception_guard_exceptionsINS_6vectorIdNS_9allocatorIdEEE16__destroy_vectorEED2B7v170000Ev.exit.i145 ], [ %.pn.pn.ph, %_ZNSt3__16vectorIdNS_9allocatorIdEEED2B7v170000Ev.exit222 ]
  tail call void @_ZdlPv(ptr noundef nonnull %call.i5.i.i.i.i7.i) #34
  resume { ptr, i32 } %.pn.pn.pn.ph
}

; Function Attrs: uwtable
define dso_local void @_ZN4Mesh36compare_mpot_cpu_local_to_cpu_globalEjPiS0_S0_S0_i(ptr nocapture noundef nonnull readonly align 8 dereferenceable(2192) %this, i32 noundef %ncells_global, ptr nocapture noundef readnone %nsizes, ptr nocapture noundef readnone %ndispl, ptr nocapture noundef readnone %mpot, ptr nocapture noundef readonly %mpot_global, i32 noundef %cycle) local_unnamed_addr #3 align 2 personality ptr @__gxx_personality_v0 {
entry:
  %cmp.not.i = icmp eq i32 %ncells_global, 0
  br i1 %cmp.not.i, label %_ZNSt3__16vectorIiNS_9allocatorIiEEED2B7v170000Ev.exit, label %for.body.lr.ph

for.body.lr.ph:                                   ; preds = %entry
  %conv = zext i32 %ncells_global to i64
  %mul.i.i.i.i = shl nuw nsw i64 %conv, 2
  %call.i5.i.i.i.i7.i = tail call noalias noundef nonnull ptr @_Znwm(i64 noundef %mul.i.i.i.i) #36
  tail call void @llvm.memset.p0.i64(ptr nonnull align 4 %call.i5.i.i.i.i7.i, i8 0, i64 %mul.i.i.i.i, i1 false), !tbaa !59
  %mype = getelementptr inbounds %class.Mesh, ptr %this, i64 0, i32 9
  %wide.trip.count = zext i32 %ncells_global to i64
  br label %for.body

if.then.i.i:                                      ; preds = %for.inc
  tail call void @_ZdlPv(ptr noundef nonnull %call.i5.i.i.i.i7.i) #34
  br label %_ZNSt3__16vectorIiNS_9allocatorIiEEED2B7v170000Ev.exit

_ZNSt3__16vectorIiNS_9allocatorIiEEED2B7v170000Ev.exit: ; preds = %entry, %if.then.i.i
  ret void

for.body:                                         ; preds = %for.body.lr.ph, %for.inc
  %indvars.iv = phi i64 [ 0, %for.body.lr.ph ], [ %indvars.iv.next, %for.inc ]
  %arrayidx = getelementptr inbounds i32, ptr %mpot_global, i64 %indvars.iv
  %0 = load i32, ptr %arrayidx, align 4, !tbaa !59
  %arrayidx.i = getelementptr inbounds i32, ptr %call.i5.i.i.i.i7.i, i64 %indvars.iv
  %1 = load i32, ptr %arrayidx.i, align 4, !tbaa !59
  %cmp3.not = icmp ne i32 %0, %1
  %2 = load i32, ptr %mype, align 4
  %cmp4 = icmp eq i32 %2, 0
  %or.cond = select i1 %cmp3.not, i1 %cmp4, i1 false
  br i1 %or.cond, label %if.then5, label %for.inc

if.then5:                                         ; preds = %for.body
  %3 = trunc i64 %indvars.iv to i32
  %call11 = tail call i32 (ptr, ...) @printf(ptr noundef nonnull dereferenceable(1) @.str.32, i32 noundef 0, i32 noundef %cycle, i32 noundef %3, i32 noundef %0, i32 noundef %1)
  br label %for.inc

for.inc:                                          ; preds = %for.body, %if.then5
  %indvars.iv.next = add nuw nsw i64 %indvars.iv, 1
  %exitcond.not = icmp eq i64 %indvars.iv.next, %wide.trip.count
  br i1 %exitcond.not, label %if.then.i.i, label %for.body, !llvm.loop !83
}

; Function Attrs: uwtable
define dso_local void @_ZN4MeshC2Eiiiiddiii(ptr noundef nonnull align 8 dereferenceable(2192) %this, i32 noundef %nx, i32 noundef %ny, i32 noundef %levmx_in, i32 noundef %ndim_in, double noundef %deltax_in, double noundef %deltay_in, i32 noundef %boundary, i32 noundef %parallel_in, i32 %do_gpu_calc) unnamed_addr #3 align 2 personality ptr @__gxx_personality_v0 {
entry:
  %i_corner = alloca [4 x i32], align 16
  %j_corner = alloca [4 x i32], align 16
  %mesh_memory = getelementptr inbounds %class.Mesh, ptr %this, i64 0, i32 1
  %__pair1_.i.i.i = getelementptr inbounds %class.Mesh, ptr %this, i64 0, i32 1, i32 0, i32 0, i32 1
  tail call void @llvm.memset.p0.i64(ptr noundef nonnull align 8 dereferenceable(16) %__pair1_.i.i.i, i8 0, i64 16, i1 false)
  store ptr %__pair1_.i.i.i, ptr %mesh_memory, align 8, !tbaa !46
  %memory_ptr_dict.i = getelementptr inbounds %class.Mesh, ptr %this, i64 0, i32 1, i32 1
  %__pair1_.i.i2.i = getelementptr inbounds %class.Mesh, ptr %this, i64 0, i32 1, i32 1, i32 0, i32 1
  tail call void @llvm.memset.p0.i64(ptr noundef nonnull align 8 dereferenceable(16) %__pair1_.i.i2.i, i8 0, i64 16, i1 false)
  store ptr %__pair1_.i.i2.i, ptr %memory_ptr_dict.i, align 8, !tbaa !46
  %gpu_mesh_memory = getelementptr inbounds %class.Mesh, ptr %this, i64 0, i32 2
  %__pair1_.i.i.i314 = getelementptr inbounds %class.Mesh, ptr %this, i64 0, i32 2, i32 0, i32 0, i32 1
  tail call void @llvm.memset.p0.i64(ptr noundef nonnull align 8 dereferenceable(16) %__pair1_.i.i.i314, i8 0, i64 16, i1 false)
  store ptr %__pair1_.i.i.i314, ptr %gpu_mesh_memory, align 8, !tbaa !46
  %memory_ptr_dict.i315 = getelementptr inbounds %class.Mesh, ptr %this, i64 0, i32 2, i32 1
  %__pair1_.i.i2.i316 = getelementptr inbounds %class.Mesh, ptr %this, i64 0, i32 2, i32 1, i32 0, i32 1
  tail call void @llvm.memset.p0.i64(ptr noundef nonnull align 8 dereferenceable(16) %__pair1_.i.i2.i316, i8 0, i64 16, i1 false)
  store ptr %__pair1_.i.i2.i316, ptr %memory_ptr_dict.i315, align 8, !tbaa !46
  %corners_i = getelementptr inbounds %class.Mesh, ptr %this, i64 0, i32 19
  %corners_j = getelementptr inbounds %class.Mesh, ptr %this, i64 0, i32 20
  %nsizes = getelementptr inbounds %class.Mesh, ptr %this, i64 0, i32 21
  %ndispl = getelementptr inbounds %class.Mesh, ptr %this, i64 0, i32 22
  %proc = getelementptr inbounds %class.Mesh, ptr %this, i64 0, i32 25
  %lev_ibegin = getelementptr inbounds %class.Mesh, ptr %this, i64 0, i32 26
  %lev_iend = getelementptr inbounds %class.Mesh, ptr %this, i64 0, i32 27
  %lev_jbegin = getelementptr inbounds %class.Mesh, ptr %this, i64 0, i32 28
  %lev_jend = getelementptr inbounds %class.Mesh, ptr %this, i64 0, i32 29
  %lev_kbegin = getelementptr inbounds %class.Mesh, ptr %this, i64 0, i32 30
  %lev_kend = getelementptr inbounds %class.Mesh, ptr %this, i64 0, i32 31
  %levtable = getelementptr inbounds %class.Mesh, ptr %this, i64 0, i32 32
  %lev_deltax = getelementptr inbounds %class.Mesh, ptr %this, i64 0, i32 33
  %lev_deltay = getelementptr inbounds %class.Mesh, ptr %this, i64 0, i32 34
  %lev_deltaz = getelementptr inbounds %class.Mesh, ptr %this, i64 0, i32 35
  %index = getelementptr inbounds %class.Mesh, ptr %this, i64 0, i32 63
  tail call void @llvm.memset.p0.i64(ptr noundef nonnull align 8 dereferenceable(24) %index, i8 0, i64 24, i1 false)
  %x = getelementptr inbounds %class.Mesh, ptr %this, i64 0, i32 75
  %dx = getelementptr inbounds %class.Mesh, ptr %this, i64 0, i32 76
  %y = getelementptr inbounds %class.Mesh, ptr %this, i64 0, i32 77
  %dy = getelementptr inbounds %class.Mesh, ptr %this, i64 0, i32 78
  %z = getelementptr inbounds %class.Mesh, ptr %this, i64 0, i32 79
  %dz = getelementptr inbounds %class.Mesh, ptr %this, i64 0, i32 80
  %xface_i = getelementptr inbounds %class.Mesh, ptr %this, i64 0, i32 83
  %xface_j = getelementptr inbounds %class.Mesh, ptr %this, i64 0, i32 84
  %xface_level = getelementptr inbounds %class.Mesh, ptr %this, i64 0, i32 85
  %map_xface2cell_lower = getelementptr inbounds %class.Mesh, ptr %this, i64 0, i32 86
  %map_xface2cell_upper = getelementptr inbounds %class.Mesh, ptr %this, i64 0, i32 87
  %map_xcell2face_left1 = getelementptr inbounds %class.Mesh, ptr %this, i64 0, i32 88
  %map_xcell2face_left2 = getelementptr inbounds %class.Mesh, ptr %this, i64 0, i32 89
  %map_xcell2face_right1 = getelementptr inbounds %class.Mesh, ptr %this, i64 0, i32 90
  %map_xcell2face_right2 = getelementptr inbounds %class.Mesh, ptr %this, i64 0, i32 91
  %ixmin_level = getelementptr inbounds %class.Mesh, ptr %this, i64 0, i32 92
  %ixmax_level = getelementptr inbounds %class.Mesh, ptr %this, i64 0, i32 93
  %jxmin_level = getelementptr inbounds %class.Mesh, ptr %this, i64 0, i32 94
  %jxmax_level = getelementptr inbounds %class.Mesh, ptr %this, i64 0, i32 95
  %ixadjust = getelementptr inbounds %class.Mesh, ptr %this, i64 0, i32 96
  %jxadjust = getelementptr inbounds %class.Mesh, ptr %this, i64 0, i32 97
  %yface_i = getelementptr inbounds %class.Mesh, ptr %this, i64 0, i32 98
  %yface_j = getelementptr inbounds %class.Mesh, ptr %this, i64 0, i32 99
  %yface_level = getelementptr inbounds %class.Mesh, ptr %this, i64 0, i32 100
  %map_yface2cell_lower = getelementptr inbounds %class.Mesh, ptr %this, i64 0, i32 101
  %map_yface2cell_upper = getelementptr inbounds %class.Mesh, ptr %this, i64 0, i32 102
  %map_ycell2face_bot1 = getelementptr inbounds %class.Mesh, ptr %this, i64 0, i32 103
  %map_ycell2face_bot2 = getelementptr inbounds %class.Mesh, ptr %this, i64 0, i32 104
  %map_ycell2face_top1 = getelementptr inbounds %class.Mesh, ptr %this, i64 0, i32 105
  %map_ycell2face_top2 = getelementptr inbounds %class.Mesh, ptr %this, i64 0, i32 106
  %iymin_level = getelementptr inbounds %class.Mesh, ptr %this, i64 0, i32 107
  %iymax_level = getelementptr inbounds %class.Mesh, ptr %this, i64 0, i32 108
  %jymin_level = getelementptr inbounds %class.Mesh, ptr %this, i64 0, i32 109
  %jymax_level = getelementptr inbounds %class.Mesh, ptr %this, i64 0, i32 110
  %iyadjust = getelementptr inbounds %class.Mesh, ptr %this, i64 0, i32 111
  %jyadjust = getelementptr inbounds %class.Mesh, ptr %this, i64 0, i32 112
  %lowerBound_Global = getelementptr inbounds %class.Mesh, ptr %this, i64 0, i32 14
  %uglygep = getelementptr i8, ptr %this, i64 104
  tail call void @llvm.memset.p0.i64(ptr noundef nonnull align 8 dereferenceable(416) %uglygep, i8 0, i64 416, i1 false)
  tail call void @llvm.memset.p0.i64(ptr noundef nonnull align 8 dereferenceable(16) %lowerBound_Global, i8 0, i64 16, i1 false)
  tail call void @llvm.memset.p0.i64(ptr noundef nonnull align 8 dereferenceable(96) %corners_i, i8 0, i64 96, i1 false)
  tail call void @llvm.memset.p0.i64(ptr noundef nonnull align 8 dereferenceable(264) %proc, i8 0, i64 264, i1 false)
  tail call void @llvm.memset.p0.i64(ptr noundef nonnull align 8 dereferenceable(144) %x, i8 0, i64 144, i1 false)
  tail call void @llvm.memset.p0.i64(ptr noundef nonnull align 8 dereferenceable(720) %xface_i, i8 0, i64 720, i1 false)
  store i32 %ndim_in, ptr %this, align 8, !tbaa !49
  %levmx = getelementptr inbounds %class.Mesh, ptr %this, i64 0, i32 36
  store i32 %levmx_in, ptr %levmx, align 8, !tbaa !84
  %offtile_ratio_local = getelementptr inbounds %class.Mesh, ptr %this, i64 0, i32 17
  store double 0.000000e+00, ptr %offtile_ratio_local, align 8, !tbaa !85
  %offtile_local_count = getelementptr inbounds %class.Mesh, ptr %this, i64 0, i32 18
  store i32 1, ptr %offtile_local_count, align 8, !tbaa !86
  %mype = getelementptr inbounds %class.Mesh, ptr %this, i64 0, i32 9
  store i32 0, ptr %mype, align 4, !tbaa !73
  %numpe = getelementptr inbounds %class.Mesh, ptr %this, i64 0, i32 10
  store i32 1, ptr %numpe, align 8, !tbaa !87
  %ncells = getelementptr inbounds %class.Mesh, ptr %this, i64 0, i32 45
  store i64 0, ptr %ncells, align 8, !tbaa !39
  %ncells_ghost = getelementptr inbounds %class.Mesh, ptr %this, i64 0, i32 47
  store i64 0, ptr %ncells_ghost, align 8, !tbaa !71
  %parallel = getelementptr inbounds %class.Mesh, ptr %this, i64 0, i32 11
  store i32 %parallel_in, ptr %parallel, align 4, !tbaa !88
  %noffset = getelementptr inbounds %class.Mesh, ptr %this, i64 0, i32 13
  store i32 0, ptr %noffset, align 4, !tbaa !74
  %mem_factor = getelementptr inbounds %class.Mesh, ptr %this, i64 0, i32 16
  %cell_handle = getelementptr inbounds %class.Mesh, ptr %this, i64 0, i32 12
  store i32 0, ptr %cell_handle, align 8, !tbaa !89
  store float 1.000000e+00, ptr %mem_factor, align 8, !tbaa !90
  %deltax = getelementptr inbounds %class.Mesh, ptr %this, i64 0, i32 60
  store double %deltax_in, ptr %deltax, align 8, !tbaa !91
  %deltay = getelementptr inbounds %class.Mesh, ptr %this, i64 0, i32 61
  store double %deltay_in, ptr %deltay, align 8, !tbaa !92
  %have_boundary = getelementptr inbounds %class.Mesh, ptr %this, i64 0, i32 37
  store i32 %boundary, ptr %have_boundary, align 4, !tbaa !60
  %imin = getelementptr inbounds %class.Mesh, ptr %this, i64 0, i32 39
  store i32 0, ptr %imin, align 4, !tbaa !93
  %jmin = getelementptr inbounds %class.Mesh, ptr %this, i64 0, i32 41
  store i32 0, ptr %jmin, align 4, !tbaa !94
  %add = add nsw i32 %nx, 1
  %imax = getelementptr inbounds %class.Mesh, ptr %this, i64 0, i32 40
  store i32 %add, ptr %imax, align 8, !tbaa !95
  %add19 = add nsw i32 %ny, 1
  %jmax = getelementptr inbounds %class.Mesh, ptr %this, i64 0, i32 42
  store i32 %add19, ptr %jmax, align 8, !tbaa !96
  %tobool.not = icmp eq i32 %boundary, 0
  br i1 %tobool.not, label %if.end30, label %if.then21

if.then21:                                        ; preds = %entry
  %add22 = add nsw i32 %nx, 2
  %add23 = add nsw i32 %ny, 2
  store i32 0, ptr %imin, align 4, !tbaa !93
  store i32 0, ptr %jmin, align 4, !tbaa !94
  store i32 %add, ptr %imax, align 8, !tbaa !95
  store i32 %add19, ptr %jmax, align 8, !tbaa !96
  br label %if.end30

if.end30:                                         ; preds = %if.then21, %entry
  %nxx.0 = phi i32 [ %add22, %if.then21 ], [ %nx, %entry ]
  %nyy.0 = phi i32 [ %add23, %if.then21 ], [ %ny, %entry ]
  %0 = insertelement <2 x double> poison, double %deltax_in, i64 0
  %1 = shufflevector <2 x double> %0, <2 x double> poison, <2 x i32> zeroinitializer
  %2 = fmul <2 x double> %1, <double -5.000000e-01, double 5.000000e-01>
  %conv = sitofp i32 %nxx.0 to double
  %xmin = getelementptr inbounds %class.Mesh, ptr %this, i64 0, i32 48
  %3 = insertelement <2 x double> poison, double %deltay_in, i64 0
  %4 = shufflevector <2 x double> %3, <2 x double> poison, <2 x i32> zeroinitializer
  %5 = fmul <2 x double> %4, <double -5.000000e-01, double 5.000000e-01>
  %conv36 = sitofp i32 %nyy.0 to double
  %ymin = getelementptr inbounds %class.Mesh, ptr %this, i64 0, i32 50
  %6 = insertelement <2 x double> poison, double %conv, i64 0
  %7 = shufflevector <2 x double> %6, <2 x double> poison, <2 x i32> zeroinitializer
  %8 = fmul <2 x double> %2, %7
  store <2 x double> %8, ptr %xmin, align 8, !tbaa !41
  %9 = insertelement <2 x double> poison, double %conv36, i64 0
  %10 = shufflevector <2 x double> %9, <2 x double> poison, <2 x i32> zeroinitializer
  %11 = fmul <2 x double> %5, %10
  store <2 x double> %11, ptr %ymin, align 8, !tbaa !41
  %add47 = add nsw i32 %levmx_in, 1
  %conv48 = sext i32 %add47 to i64
  %__end_.i.i = getelementptr inbounds %class.Mesh, ptr %this, i64 0, i32 32, i32 1
  %12 = load ptr, ptr %__end_.i.i, align 8, !tbaa !50
  %13 = load ptr, ptr %levtable, align 8, !tbaa !51
  %sub.ptr.lhs.cast.i.i = ptrtoint ptr %12 to i64
  %sub.ptr.rhs.cast.i.i = ptrtoint ptr %13 to i64
  %sub.ptr.sub.i.i = sub i64 %sub.ptr.lhs.cast.i.i, %sub.ptr.rhs.cast.i.i
  %sub.ptr.div.i.i = ashr exact i64 %sub.ptr.sub.i.i, 2
  %cmp.i = icmp ult i64 %sub.ptr.div.i.i, %conv48
  br i1 %cmp.i, label %if.then.i, label %if.else.i

if.then.i:                                        ; preds = %if.end30
  %sub.i = sub nsw i64 %conv48, %sub.ptr.div.i.i
  invoke void @_ZNSt3__16vectorIiNS_9allocatorIiEEE8__appendEm(ptr noundef nonnull align 8 dereferenceable(24) %levtable, i64 noundef %sub.i)
          to label %invoke.cont unwind label %lpad

if.else.i:                                        ; preds = %if.end30
  %cmp2.i = icmp ugt i64 %sub.ptr.div.i.i, %conv48
  br i1 %cmp2.i, label %if.then3.i, label %invoke.cont

if.then3.i:                                       ; preds = %if.else.i
  %add.ptr.i = getelementptr inbounds i32, ptr %13, i64 %conv48
  store ptr %add.ptr.i, ptr %__end_.i.i, align 8, !tbaa !50
  br label %invoke.cont

invoke.cont:                                      ; preds = %if.then3.i, %if.else.i, %if.then.i
  %__end_.i.i317 = getelementptr inbounds %class.Mesh, ptr %this, i64 0, i32 26, i32 1
  %14 = load ptr, ptr %__end_.i.i317, align 8, !tbaa !50
  %15 = load ptr, ptr %lev_ibegin, align 8, !tbaa !51
  %sub.ptr.lhs.cast.i.i318 = ptrtoint ptr %14 to i64
  %sub.ptr.rhs.cast.i.i319 = ptrtoint ptr %15 to i64
  %sub.ptr.sub.i.i320 = sub i64 %sub.ptr.lhs.cast.i.i318, %sub.ptr.rhs.cast.i.i319
  %sub.ptr.div.i.i321 = ashr exact i64 %sub.ptr.sub.i.i320, 2
  %cmp.i322 = icmp ult i64 %sub.ptr.div.i.i321, %conv48
  br i1 %cmp.i322, label %if.then.i324, label %if.else.i326

if.then.i324:                                     ; preds = %invoke.cont
  %sub.i323 = sub nsw i64 %conv48, %sub.ptr.div.i.i321
  invoke void @_ZNSt3__16vectorIiNS_9allocatorIiEEE8__appendEm(ptr noundef nonnull align 8 dereferenceable(24) %lev_ibegin, i64 noundef %sub.i323)
          to label %invoke.cont51 unwind label %lpad

if.else.i326:                                     ; preds = %invoke.cont
  %cmp2.i325 = icmp ugt i64 %sub.ptr.div.i.i321, %conv48
  br i1 %cmp2.i325, label %if.then3.i328, label %invoke.cont51

if.then3.i328:                                    ; preds = %if.else.i326
  %add.ptr.i327 = getelementptr inbounds i32, ptr %15, i64 %conv48
  store ptr %add.ptr.i327, ptr %__end_.i.i317, align 8, !tbaa !50
  br label %invoke.cont51

invoke.cont51:                                    ; preds = %if.then3.i328, %if.else.i326, %if.then.i324
  %__end_.i.i331 = getelementptr inbounds %class.Mesh, ptr %this, i64 0, i32 28, i32 1
  %16 = load ptr, ptr %__end_.i.i331, align 8, !tbaa !50
  %17 = load ptr, ptr %lev_jbegin, align 8, !tbaa !51
  %sub.ptr.lhs.cast.i.i332 = ptrtoint ptr %16 to i64
  %sub.ptr.rhs.cast.i.i333 = ptrtoint ptr %17 to i64
  %sub.ptr.sub.i.i334 = sub i64 %sub.ptr.lhs.cast.i.i332, %sub.ptr.rhs.cast.i.i333
  %sub.ptr.div.i.i335 = ashr exact i64 %sub.ptr.sub.i.i334, 2
  %cmp.i336 = icmp ult i64 %sub.ptr.div.i.i335, %conv48
  br i1 %cmp.i336, label %if.then.i338, label %if.else.i340

if.then.i338:                                     ; preds = %invoke.cont51
  %sub.i337 = sub nsw i64 %conv48, %sub.ptr.div.i.i335
  invoke void @_ZNSt3__16vectorIiNS_9allocatorIiEEE8__appendEm(ptr noundef nonnull align 8 dereferenceable(24) %lev_jbegin, i64 noundef %sub.i337)
          to label %invoke.cont53 unwind label %lpad

if.else.i340:                                     ; preds = %invoke.cont51
  %cmp2.i339 = icmp ugt i64 %sub.ptr.div.i.i335, %conv48
  br i1 %cmp2.i339, label %if.then3.i342, label %invoke.cont53

if.then3.i342:                                    ; preds = %if.else.i340
  %add.ptr.i341 = getelementptr inbounds i32, ptr %17, i64 %conv48
  store ptr %add.ptr.i341, ptr %__end_.i.i331, align 8, !tbaa !50
  br label %invoke.cont53

invoke.cont53:                                    ; preds = %if.then3.i342, %if.else.i340, %if.then.i338
  %__end_.i.i345 = getelementptr inbounds %class.Mesh, ptr %this, i64 0, i32 27, i32 1
  %18 = load ptr, ptr %__end_.i.i345, align 8, !tbaa !50
  %19 = load ptr, ptr %lev_iend, align 8, !tbaa !51
  %sub.ptr.lhs.cast.i.i346 = ptrtoint ptr %18 to i64
  %sub.ptr.rhs.cast.i.i347 = ptrtoint ptr %19 to i64
  %sub.ptr.sub.i.i348 = sub i64 %sub.ptr.lhs.cast.i.i346, %sub.ptr.rhs.cast.i.i347
  %sub.ptr.div.i.i349 = ashr exact i64 %sub.ptr.sub.i.i348, 2
  %cmp.i350 = icmp ult i64 %sub.ptr.div.i.i349, %conv48
  br i1 %cmp.i350, label %if.then.i352, label %if.else.i354

if.then.i352:                                     ; preds = %invoke.cont53
  %sub.i351 = sub nsw i64 %conv48, %sub.ptr.div.i.i349
  invoke void @_ZNSt3__16vectorIiNS_9allocatorIiEEE8__appendEm(ptr noundef nonnull align 8 dereferenceable(24) %lev_iend, i64 noundef %sub.i351)
          to label %invoke.cont55 unwind label %lpad

if.else.i354:                                     ; preds = %invoke.cont53
  %cmp2.i353 = icmp ugt i64 %sub.ptr.div.i.i349, %conv48
  br i1 %cmp2.i353, label %if.then3.i356, label %invoke.cont55

if.then3.i356:                                    ; preds = %if.else.i354
  %add.ptr.i355 = getelementptr inbounds i32, ptr %19, i64 %conv48
  store ptr %add.ptr.i355, ptr %__end_.i.i345, align 8, !tbaa !50
  br label %invoke.cont55

invoke.cont55:                                    ; preds = %if.then3.i356, %if.else.i354, %if.then.i352
  %__end_.i.i359 = getelementptr inbounds %class.Mesh, ptr %this, i64 0, i32 29, i32 1
  %20 = load ptr, ptr %__end_.i.i359, align 8, !tbaa !50
  %21 = load ptr, ptr %lev_jend, align 8, !tbaa !51
  %sub.ptr.lhs.cast.i.i360 = ptrtoint ptr %20 to i64
  %sub.ptr.rhs.cast.i.i361 = ptrtoint ptr %21 to i64
  %sub.ptr.sub.i.i362 = sub i64 %sub.ptr.lhs.cast.i.i360, %sub.ptr.rhs.cast.i.i361
  %sub.ptr.div.i.i363 = ashr exact i64 %sub.ptr.sub.i.i362, 2
  %cmp.i364 = icmp ult i64 %sub.ptr.div.i.i363, %conv48
  br i1 %cmp.i364, label %if.then.i366, label %if.else.i368

if.then.i366:                                     ; preds = %invoke.cont55
  %sub.i365 = sub nsw i64 %conv48, %sub.ptr.div.i.i363
  invoke void @_ZNSt3__16vectorIiNS_9allocatorIiEEE8__appendEm(ptr noundef nonnull align 8 dereferenceable(24) %lev_jend, i64 noundef %sub.i365)
          to label %invoke.cont57 unwind label %lpad

if.else.i368:                                     ; preds = %invoke.cont55
  %cmp2.i367 = icmp ugt i64 %sub.ptr.div.i.i363, %conv48
  br i1 %cmp2.i367, label %if.then3.i370, label %invoke.cont57

if.then3.i370:                                    ; preds = %if.else.i368
  %add.ptr.i369 = getelementptr inbounds i32, ptr %21, i64 %conv48
  store ptr %add.ptr.i369, ptr %__end_.i.i359, align 8, !tbaa !50
  br label %invoke.cont57

invoke.cont57:                                    ; preds = %if.then3.i370, %if.else.i368, %if.then.i366
  %__end_.i.i373 = getelementptr inbounds %class.Mesh, ptr %this, i64 0, i32 33, i32 1
  %22 = load ptr, ptr %__end_.i.i373, align 8, !tbaa !56
  %23 = load ptr, ptr %lev_deltax, align 8, !tbaa !40
  %sub.ptr.lhs.cast.i.i374 = ptrtoint ptr %22 to i64
  %sub.ptr.rhs.cast.i.i375 = ptrtoint ptr %23 to i64
  %sub.ptr.sub.i.i376 = sub i64 %sub.ptr.lhs.cast.i.i374, %sub.ptr.rhs.cast.i.i375
  %sub.ptr.div.i.i377 = ashr exact i64 %sub.ptr.sub.i.i376, 3
  %cmp.i378 = icmp ult i64 %sub.ptr.div.i.i377, %conv48
  br i1 %cmp.i378, label %if.then.i380, label %if.else.i382

if.then.i380:                                     ; preds = %invoke.cont57
  %sub.i379 = sub nsw i64 %conv48, %sub.ptr.div.i.i377
  invoke void @_ZNSt3__16vectorIdNS_9allocatorIdEEE8__appendEm(ptr noundef nonnull align 8 dereferenceable(24) %lev_deltax, i64 noundef %sub.i379)
          to label %invoke.cont59 unwind label %lpad

if.else.i382:                                     ; preds = %invoke.cont57
  %cmp2.i381 = icmp ugt i64 %sub.ptr.div.i.i377, %conv48
  br i1 %cmp2.i381, label %if.then3.i384, label %invoke.cont59

if.then3.i384:                                    ; preds = %if.else.i382
  %add.ptr.i383 = getelementptr inbounds double, ptr %23, i64 %conv48
  store ptr %add.ptr.i383, ptr %__end_.i.i373, align 8, !tbaa !56
  br label %invoke.cont59

invoke.cont59:                                    ; preds = %if.then3.i384, %if.else.i382, %if.then.i380
  %__end_.i.i386 = getelementptr inbounds %class.Mesh, ptr %this, i64 0, i32 34, i32 1
  %24 = load ptr, ptr %__end_.i.i386, align 8, !tbaa !56
  %25 = load ptr, ptr %lev_deltay, align 8, !tbaa !40
  %sub.ptr.lhs.cast.i.i387 = ptrtoint ptr %24 to i64
  %sub.ptr.rhs.cast.i.i388 = ptrtoint ptr %25 to i64
  %sub.ptr.sub.i.i389 = sub i64 %sub.ptr.lhs.cast.i.i387, %sub.ptr.rhs.cast.i.i388
  %sub.ptr.div.i.i390 = ashr exact i64 %sub.ptr.sub.i.i389, 3
  %cmp.i391 = icmp ult i64 %sub.ptr.div.i.i390, %conv48
  br i1 %cmp.i391, label %if.then.i393, label %if.else.i395

if.then.i393:                                     ; preds = %invoke.cont59
  %sub.i392 = sub nsw i64 %conv48, %sub.ptr.div.i.i390
  invoke void @_ZNSt3__16vectorIdNS_9allocatorIdEEE8__appendEm(ptr noundef nonnull align 8 dereferenceable(24) %lev_deltay, i64 noundef %sub.i392)
          to label %if.then.i393.invoke.cont61_crit_edge unwind label %lpad

if.then.i393.invoke.cont61_crit_edge:             ; preds = %if.then.i393
  %.pre = load ptr, ptr %lev_deltay, align 8, !tbaa !40
  br label %invoke.cont61

if.else.i395:                                     ; preds = %invoke.cont59
  %cmp2.i394 = icmp ugt i64 %sub.ptr.div.i.i390, %conv48
  br i1 %cmp2.i394, label %if.then3.i397, label %invoke.cont61

if.then3.i397:                                    ; preds = %if.else.i395
  %add.ptr.i396 = getelementptr inbounds double, ptr %25, i64 %conv48
  store ptr %add.ptr.i396, ptr %__end_.i.i386, align 8, !tbaa !56
  br label %invoke.cont61

invoke.cont61:                                    ; preds = %if.then.i393.invoke.cont61_crit_edge, %if.then3.i397, %if.else.i395
  %26 = phi ptr [ %.pre, %if.then.i393.invoke.cont61_crit_edge ], [ %25, %if.then3.i397 ], [ %25, %if.else.i395 ]
  %27 = load i32, ptr %imin, align 4, !tbaa !93
  %add63 = add nsw i32 %27, 1
  %28 = load ptr, ptr %lev_ibegin, align 8, !tbaa !51
  store i32 %add63, ptr %28, align 4, !tbaa !59
  %29 = load i32, ptr %imax, align 8, !tbaa !95
  %sub = add nsw i32 %29, -1
  %30 = load ptr, ptr %lev_iend, align 8, !tbaa !51
  store i32 %sub, ptr %30, align 4, !tbaa !59
  %31 = load i32, ptr %jmin, align 4, !tbaa !94
  %add69 = add nsw i32 %31, 1
  %32 = load ptr, ptr %lev_jbegin, align 8, !tbaa !51
  store i32 %add69, ptr %32, align 4, !tbaa !59
  %33 = load i32, ptr %jmax, align 8, !tbaa !96
  %sub73 = add nsw i32 %33, -1
  %34 = load ptr, ptr %lev_jend, align 8, !tbaa !51
  store i32 %sub73, ptr %34, align 4, !tbaa !59
  %35 = load double, ptr %deltax, align 8, !tbaa !91
  %36 = load ptr, ptr %lev_deltax, align 8, !tbaa !40
  store double %35, ptr %36, align 8, !tbaa !41
  %37 = load double, ptr %deltay, align 8, !tbaa !92
  store double %37, ptr %26, align 8, !tbaa !41
  %38 = load i32, ptr %levmx, align 8, !tbaa !84
  %cmp84.not675 = icmp slt i32 %38, 1
  br i1 %cmp84.not675, label %for.cond141.preheader, label %for.body86

for.cond141.preheader:                            ; preds = %for.body86, %invoke.cont61
  %.pre711715 = phi i32 [ %38, %invoke.cont61 ], [ %48, %for.body86 ]
  %cmp143677.not = icmp eq i32 %add47, 0
  br i1 %cmp143677.not, label %for.cond.cleanup144, label %for.body145.lr.ph

for.body145.lr.ph:                                ; preds = %for.cond141.preheader
  %39 = load ptr, ptr %levtable, align 8, !tbaa !51
  br label %for.body145

lpad:                                             ; preds = %if.then.i393, %if.then.i380, %if.then.i366, %if.then.i352, %if.then.i338, %if.then.i324, %if.then.i
  %40 = landingpad { ptr, i32 }
          cleanup
  br label %ehcleanup

for.body86:                                       ; preds = %invoke.cont61, %for.body86
  %indvars.iv = phi i64 [ %indvars.iv.next, %for.body86 ], [ 1, %invoke.cont61 ]
  %41 = add nsw i64 %indvars.iv, -1
  %arrayidx.i = getelementptr inbounds i32, ptr %28, i64 %41
  %42 = load i32, ptr %arrayidx.i, align 4, !tbaa !59
  %mul91 = shl nsw i32 %42, 1
  %arrayidx.i400 = getelementptr inbounds i32, ptr %28, i64 %indvars.iv
  store i32 %mul91, ptr %arrayidx.i400, align 4, !tbaa !59
  %arrayidx.i401 = getelementptr inbounds i32, ptr %30, i64 %41
  %43 = load i32, ptr %arrayidx.i401, align 4, !tbaa !59
  %mul99 = shl nsw i32 %43, 1
  %add100 = or i32 %mul99, 1
  %arrayidx.i402 = getelementptr inbounds i32, ptr %30, i64 %indvars.iv
  store i32 %add100, ptr %arrayidx.i402, align 4, !tbaa !59
  %arrayidx.i403 = getelementptr inbounds i32, ptr %32, i64 %41
  %44 = load i32, ptr %arrayidx.i403, align 4, !tbaa !59
  %mul108 = shl nsw i32 %44, 1
  %arrayidx.i404 = getelementptr inbounds i32, ptr %32, i64 %indvars.iv
  store i32 %mul108, ptr %arrayidx.i404, align 4, !tbaa !59
  %arrayidx.i405 = getelementptr inbounds i32, ptr %34, i64 %41
  %45 = load i32, ptr %arrayidx.i405, align 4, !tbaa !59
  %mul116 = shl nsw i32 %45, 1
  %add117 = or i32 %mul116, 1
  %arrayidx.i406 = getelementptr inbounds i32, ptr %34, i64 %indvars.iv
  store i32 %add117, ptr %arrayidx.i406, align 4, !tbaa !59
  %arrayidx.i407 = getelementptr inbounds double, ptr %36, i64 %41
  %46 = load double, ptr %arrayidx.i407, align 8, !tbaa !41
  %mul125 = fmul double %46, 5.000000e-01
  %arrayidx.i408 = getelementptr inbounds double, ptr %36, i64 %indvars.iv
  store double %mul125, ptr %arrayidx.i408, align 8, !tbaa !41
  %arrayidx.i409 = getelementptr inbounds double, ptr %26, i64 %41
  %47 = load double, ptr %arrayidx.i409, align 8, !tbaa !41
  %mul133 = fmul double %47, 5.000000e-01
  %arrayidx.i410 = getelementptr inbounds double, ptr %26, i64 %indvars.iv
  store double %mul133, ptr %arrayidx.i410, align 8, !tbaa !41
  %indvars.iv.next = add nuw nsw i64 %indvars.iv, 1
  %48 = load i32, ptr %levmx, align 8, !tbaa !84
  %49 = sext i32 %48 to i64
  %cmp84.not.not = icmp slt i64 %indvars.iv, %49
  br i1 %cmp84.not.not, label %for.body86, label %for.cond141.preheader, !llvm.loop !97

for.cond.cleanup144.loopexit:                     ; preds = %for.body145
  %.pre711.pre = load i32, ptr %levmx, align 8, !tbaa !84
  br label %for.cond.cleanup144

for.cond.cleanup144:                              ; preds = %for.cond.cleanup144.loopexit, %for.cond141.preheader
  %.pre711 = phi i32 [ %.pre711.pre, %for.cond.cleanup144.loopexit ], [ %.pre711715, %for.cond141.preheader ]
  %ibase = getelementptr inbounds %class.Mesh, ptr %this, i64 0, i32 38
  store i32 0, ptr %ibase, align 8, !tbaa !47
  call void @llvm.lifetime.start.p0(i64 16, ptr nonnull %i_corner) #32
  store i32 0, ptr %i_corner, align 16, !tbaa !59
  %arrayinit.element = getelementptr inbounds i32, ptr %i_corner, i64 1
  store i32 0, ptr %arrayinit.element, align 4, !tbaa !59
  %arrayinit.element155 = getelementptr inbounds i32, ptr %i_corner, i64 2
  %50 = load i32, ptr %imax, align 8, !tbaa !95
  store i32 %50, ptr %arrayinit.element155, align 8, !tbaa !59
  %arrayinit.element157 = getelementptr inbounds i32, ptr %i_corner, i64 3
  store i32 %50, ptr %arrayinit.element157, align 4, !tbaa !59
  call void @llvm.lifetime.start.p0(i64 16, ptr nonnull %j_corner) #32
  store i32 0, ptr %j_corner, align 16, !tbaa !59
  %arrayinit.element160 = getelementptr inbounds i32, ptr %j_corner, i64 1
  %51 = load i32, ptr %jmax, align 8, !tbaa !96
  store i32 %51, ptr %arrayinit.element160, align 4, !tbaa !59
  %arrayinit.element162 = getelementptr inbounds i32, ptr %j_corner, i64 2
  store i32 0, ptr %arrayinit.element162, align 8, !tbaa !59
  %arrayinit.element163 = getelementptr inbounds i32, ptr %j_corner, i64 3
  store i32 %51, ptr %arrayinit.element163, align 4, !tbaa !59
  %__end_.i = getelementptr inbounds %class.Mesh, ptr %this, i64 0, i32 19, i32 1
  %__end_cap_.i.i = getelementptr inbounds %class.Mesh, ptr %this, i64 0, i32 19, i32 2
  %__end_.i417 = getelementptr inbounds %class.Mesh, ptr %this, i64 0, i32 20, i32 1
  %__end_cap_.i.i418 = getelementptr inbounds %class.Mesh, ptr %this, i64 0, i32 20, i32 2
  br label %for.body168

for.body145:                                      ; preds = %for.body145.lr.ph, %for.body145
  %conv142679 = phi i64 [ 0, %for.body145.lr.ph ], [ %conv142, %for.body145 ]
  %indvars = trunc i64 %conv142679 to i32
  %shl = shl i32 2, %indvars
  %arrayidx.i411 = getelementptr inbounds i32, ptr %39, i64 %conv142679
  store i32 %shl, ptr %arrayidx.i411, align 4, !tbaa !59
  %inc150 = add nuw nsw i64 %conv142679, 1
  %conv142 = and i64 %inc150, 4294967295
  %cmp143 = icmp ult i64 %conv142, %conv48
  br i1 %cmp143, label %for.body145, label %for.cond.cleanup144.loopexit, !llvm.loop !98

for.cond.cleanup167:                              ; preds = %for.cond.cleanup182
  %do_rezone = getelementptr inbounds %class.Mesh, ptr %this, i64 0, i32 7
  store i8 1, ptr %do_rezone, align 8, !tbaa !99
  %gpu_do_rezone = getelementptr inbounds %class.Mesh, ptr %this, i64 0, i32 8
  store i8 1, ptr %gpu_do_rezone, align 1, !tbaa !100
  %celltype = getelementptr inbounds %class.Mesh, ptr %this, i64 0, i32 68
  tail call void @llvm.memset.p0.i64(ptr noundef nonnull align 8 dereferenceable(40) %celltype, i8 0, i64 40, i1 false)
  call void @llvm.lifetime.end.p0(i64 16, ptr nonnull %j_corner) #32
  call void @llvm.lifetime.end.p0(i64 16, ptr nonnull %i_corner) #32
  ret void

for.body168:                                      ; preds = %for.cond.cleanup144, %for.cond.cleanup182
  %52 = phi i32 [ %.pre711, %for.cond.cleanup144 ], [ %55, %for.cond.cleanup182 ]
  %53 = phi i32 [ %.pre711, %for.cond.cleanup144 ], [ %56, %for.cond.cleanup182 ]
  %indvars.iv707 = phi i64 [ 0, %for.cond.cleanup144 ], [ %indvars.iv.next708, %for.cond.cleanup182 ]
  %arrayidx170 = getelementptr inbounds [4 x i32], ptr %j_corner, i64 0, i64 %indvars.iv707
  %54 = load i32, ptr %arrayidx170, align 4, !tbaa !59
  %shl172 = shl i32 2, %53
  %mul173 = mul nsw i32 %shl172, %54
  %add177685 = add nsw i32 %54, 1
  %mul180687 = mul nsw i32 %shl172, %add177685
  %cmp181688 = icmp slt i32 %mul173, %mul180687
  br i1 %cmp181688, label %for.body183.lr.ph, label %for.cond.cleanup182

for.body183.lr.ph:                                ; preds = %for.body168
  %arrayidx185 = getelementptr inbounds [4 x i32], ptr %i_corner, i64 0, i64 %indvars.iv707
  %.pre712 = load i32, ptr %arrayidx185, align 4, !tbaa !59
  br label %for.body183

for.cond.cleanup182:                              ; preds = %for.cond.cleanup197, %for.body168
  %55 = phi i32 [ %52, %for.body168 ], [ %61, %for.cond.cleanup197 ]
  %56 = phi i32 [ %53, %for.body168 ], [ %61, %for.cond.cleanup197 ]
  %indvars.iv.next708 = add nuw nsw i64 %indvars.iv707, 1
  %exitcond.not = icmp eq i64 %indvars.iv.next708, 4
  br i1 %exitcond.not, label %for.cond.cleanup167, label %for.body168, !llvm.loop !101

for.body183:                                      ; preds = %for.body183.lr.ph, %for.cond.cleanup197
  %57 = phi i32 [ %52, %for.body183.lr.ph ], [ %61, %for.cond.cleanup197 ]
  %58 = phi i32 [ %54, %for.body183.lr.ph ], [ %62, %for.cond.cleanup197 ]
  %59 = phi i32 [ %53, %for.body183.lr.ph ], [ %61, %for.cond.cleanup197 ]
  %60 = phi i32 [ %.pre712, %for.body183.lr.ph ], [ %63, %for.cond.cleanup197 ]
  %shl179690 = phi i32 [ %shl172, %for.body183.lr.ph ], [ %shl179.pre-phi, %for.cond.cleanup197 ]
  %storemerge689 = phi i32 [ %mul173, %for.body183.lr.ph ], [ %inc208, %for.cond.cleanup197 ]
  %mul188 = mul nsw i32 %60, %shl179690
  %add192680 = add nsw i32 %60, 1
  %shl194681 = shl i32 2, %59
  %mul195682 = mul nsw i32 %shl194681, %add192680
  %cmp196683 = icmp slt i32 %mul188, %mul195682
  br i1 %cmp196683, label %for.body198, label %for.body183.for.cond.cleanup197_crit_edge

for.body183.for.cond.cleanup197_crit_edge:        ; preds = %for.body183
  %.pre716 = shl i32 2, %57
  br label %for.cond.cleanup197

for.cond.cleanup197.loopexit:                     ; preds = %for.inc204
  %.pre713 = load i32, ptr %arrayidx170, align 4, !tbaa !59
  br label %for.cond.cleanup197

for.cond.cleanup197:                              ; preds = %for.body183.for.cond.cleanup197_crit_edge, %for.cond.cleanup197.loopexit
  %shl179.pre-phi = phi i32 [ %.pre716, %for.body183.for.cond.cleanup197_crit_edge ], [ %shl194, %for.cond.cleanup197.loopexit ]
  %61 = phi i32 [ %57, %for.body183.for.cond.cleanup197_crit_edge ], [ %116, %for.cond.cleanup197.loopexit ]
  %62 = phi i32 [ %58, %for.body183.for.cond.cleanup197_crit_edge ], [ %.pre713, %for.cond.cleanup197.loopexit ]
  %63 = phi i32 [ %60, %for.body183.for.cond.cleanup197_crit_edge ], [ %115, %for.cond.cleanup197.loopexit ]
  %inc208 = add nsw i32 %storemerge689, 1
  %add177 = add nsw i32 %62, 1
  %mul180 = mul nsw i32 %shl179.pre-phi, %add177
  %cmp181 = icmp slt i32 %inc208, %mul180
  br i1 %cmp181, label %for.body183, label %for.cond.cleanup182, !llvm.loop !102

for.body198:                                      ; preds = %for.body183, %for.inc204
  %storemerge313684 = phi i32 [ %inc205, %for.inc204 ], [ %mul188, %for.body183 ]
  %64 = load ptr, ptr %__end_.i, align 8, !tbaa !50
  %65 = load ptr, ptr %__end_cap_.i.i, align 8, !tbaa !46
  %cmp.not.i = icmp eq ptr %64, %65
  br i1 %cmp.not.i, label %if.else.i413, label %if.then.i412

if.then.i412:                                     ; preds = %for.body198
  store i32 %storemerge313684, ptr %64, align 4, !tbaa !59
  %incdec.ptr.i.i = getelementptr inbounds i32, ptr %64, i64 1
  store ptr %incdec.ptr.i.i, ptr %__end_.i, align 8, !tbaa !50
  br label %invoke.cont201

if.else.i413:                                     ; preds = %for.body198
  %66 = load ptr, ptr %corners_i, align 8, !tbaa !51
  %sub.ptr.lhs.cast.i.i.i = ptrtoint ptr %64 to i64
  %sub.ptr.rhs.cast.i.i.i = ptrtoint ptr %66 to i64
  %sub.ptr.sub.i.i.i = sub i64 %sub.ptr.lhs.cast.i.i.i, %sub.ptr.rhs.cast.i.i.i
  %sub.ptr.div.i.i.i = ashr exact i64 %sub.ptr.sub.i.i.i, 2
  %add.i.i = add nsw i64 %sub.ptr.div.i.i.i, 1
  %cmp.i.i.i = icmp ugt i64 %add.i.i, 4611686018427387903
  br i1 %cmp.i.i.i, label %if.then.i.i.i.invoke, label %_ZNKSt3__16vectorIiNS_9allocatorIiEEE11__recommendB7v170000Em.exit.i.i

if.then.i.i.i.invoke:                             ; preds = %if.else.i428, %if.else.i413
  %67 = phi ptr [ %corners_i, %if.else.i413 ], [ %corners_j, %if.else.i428 ]
  invoke void @_ZNKSt3__16vectorIiNS_9allocatorIiEEE20__throw_length_errorB7v170000Ev(ptr noundef nonnull align 8 dereferenceable(24) %67) #37
          to label %if.then.i.i.i.cont unwind label %lpad200.loopexit.split-lp

if.then.i.i.i.cont:                               ; preds = %if.then.i.i.i.invoke
  unreachable

_ZNKSt3__16vectorIiNS_9allocatorIiEEE11__recommendB7v170000Em.exit.i.i: ; preds = %if.else.i413
  %cmp3.not.i.i.i = icmp ult i64 %sub.ptr.sub.i.i.i, 9223372036854775804
  %mul.i.i.i = lshr exact i64 %sub.ptr.sub.i.i.i, 1
  %.sroa.speculated.i.i.i = tail call i64 @llvm.umax.i64(i64 %mul.i.i.i, i64 %add.i.i)
  %retval.0.i.i.i = select i1 %cmp3.not.i.i.i, i64 %.sroa.speculated.i.i.i, i64 4611686018427387903
  %cmp.i16.i.i = icmp eq i64 %retval.0.i.i.i, 0
  br i1 %cmp.i16.i.i, label %invoke.cont.i.i, label %if.else.i.i.i

if.else.i.i.i:                                    ; preds = %_ZNKSt3__16vectorIiNS_9allocatorIiEEE11__recommendB7v170000Em.exit.i.i
  %cmp.i.i.i.i.i = icmp ugt i64 %retval.0.i.i.i, 4611686018427387903
  br i1 %cmp.i.i.i.i.i, label %if.then.i.i.i.i.i.invoke, label %_ZNSt3__119__allocate_at_leastB7v170000INS_9allocatorIiEEEENS_19__allocation_resultINS_16allocator_traitsIT_E7pointerEEERS5_m.exit.i.i.i

if.then.i.i.i.i.i.invoke:                         ; preds = %if.else.i.i.i437, %if.else.i.i.i
  invoke void @_ZSt28__throw_bad_array_new_lengthB7v170000v() #37
          to label %if.then.i.i.i.i.i.cont unwind label %lpad200.loopexit.split-lp

if.then.i.i.i.i.i.cont:                           ; preds = %if.then.i.i.i.i.i.invoke
  unreachable

_ZNSt3__119__allocate_at_leastB7v170000INS_9allocatorIiEEEENS_19__allocation_resultINS_16allocator_traitsIT_E7pointerEEERS5_m.exit.i.i.i: ; preds = %if.else.i.i.i
  %mul.i.i.i.i.i = shl nuw i64 %retval.0.i.i.i, 2
  %call.i5.i.i.i.i.i.i416 = invoke noalias noundef nonnull ptr @_Znwm(i64 noundef %mul.i.i.i.i.i) #36
          to label %invoke.cont.i.i unwind label %lpad200.loopexit

invoke.cont.i.i:                                  ; preds = %_ZNSt3__119__allocate_at_leastB7v170000INS_9allocatorIiEEEENS_19__allocation_resultINS_16allocator_traitsIT_E7pointerEEERS5_m.exit.i.i.i, %_ZNKSt3__16vectorIiNS_9allocatorIiEEE11__recommendB7v170000Em.exit.i.i
  %storemerge.i.i.i = phi ptr [ null, %_ZNKSt3__16vectorIiNS_9allocatorIiEEE11__recommendB7v170000Em.exit.i.i ], [ %call.i5.i.i.i.i.i.i416, %_ZNSt3__119__allocate_at_leastB7v170000INS_9allocatorIiEEEENS_19__allocation_resultINS_16allocator_traitsIT_E7pointerEEERS5_m.exit.i.i.i ]
  %storemerge.i.i.i735 = ptrtoint ptr %storemerge.i.i.i to i64
  %add.ptr.i.i.i = getelementptr inbounds i32, ptr %storemerge.i.i.i, i64 %sub.ptr.div.i.i.i
  %add.ptr6.i.i.i = getelementptr inbounds i32, ptr %storemerge.i.i.i, i64 %retval.0.i.i.i
  store i32 %storemerge313684, ptr %add.ptr.i.i.i, align 4, !tbaa !59
  %incdec.ptr.i4.i = getelementptr inbounds i32, ptr %add.ptr.i.i.i, i64 1
  %cmp.i.not13.i.i.i.i.i.i.i.i.i = icmp eq ptr %64, %66
  br i1 %cmp.i.not13.i.i.i.i.i.i.i.i.i, label %_ZNSt3__114__split_bufferIiRNS_9allocatorIiEEE5clearB7v170000Ev.exit.i.i.i, label %while.body.i.i.i.i.i.i.i.i.i.preheader

while.body.i.i.i.i.i.i.i.i.i.preheader:           ; preds = %invoke.cont.i.i
  %68 = add i64 %sub.ptr.lhs.cast.i.i.i, -4
  %69 = sub i64 %68, %sub.ptr.rhs.cast.i.i.i
  %70 = lshr i64 %69, 2
  %71 = add nuw nsw i64 %70, 1
  %min.iters.check739 = icmp ult i64 %69, 76
  br i1 %min.iters.check739, label %while.body.i.i.i.i.i.i.i.i.i.preheader762, label %vector.memcheck734

vector.memcheck734:                               ; preds = %while.body.i.i.i.i.i.i.i.i.i.preheader
  %72 = add i64 %sub.ptr.lhs.cast.i.i.i, -4
  %73 = add i64 %storemerge.i.i.i735, -4
  %74 = add i64 %73, %sub.ptr.sub.i.i.i
  %75 = sub i64 %72, %74
  %diff.check736 = icmp ult i64 %75, 32
  br i1 %diff.check736, label %while.body.i.i.i.i.i.i.i.i.i.preheader762, label %vector.ph740

vector.ph740:                                     ; preds = %vector.memcheck734
  %n.vec742 = and i64 %71, -8
  %76 = mul i64 %n.vec742, -4
  %ind.end743 = getelementptr i8, ptr %add.ptr.i.i.i, i64 %76
  %77 = mul i64 %n.vec742, -4
  %ind.end745 = getelementptr i8, ptr %64, i64 %77
  br label %vector.body748

vector.body748:                                   ; preds = %vector.body748, %vector.ph740
  %index749 = phi i64 [ 0, %vector.ph740 ], [ %index.next760, %vector.body748 ]
  %78 = mul i64 %index749, -4
  %next.gep750 = getelementptr i8, ptr %add.ptr.i.i.i, i64 %78
  %79 = mul i64 %index749, -4
  %next.gep752 = getelementptr i8, ptr %64, i64 %79
  %80 = getelementptr inbounds i32, ptr %next.gep752, i64 -1
  %81 = getelementptr inbounds i32, ptr %80, i64 -3
  %wide.load754 = load <4 x i32>, ptr %81, align 4, !tbaa !59, !noalias !103
  %82 = getelementptr inbounds i32, ptr %80, i64 -4
  %83 = getelementptr inbounds i32, ptr %82, i64 -3
  %wide.load756 = load <4 x i32>, ptr %83, align 4, !tbaa !59, !noalias !103
  %84 = getelementptr inbounds i32, ptr %next.gep750, i64 -1
  %85 = getelementptr inbounds i32, ptr %84, i64 -3
  store <4 x i32> %wide.load754, ptr %85, align 4, !tbaa !59, !noalias !103
  %86 = getelementptr inbounds i32, ptr %84, i64 -4
  %87 = getelementptr inbounds i32, ptr %86, i64 -3
  store <4 x i32> %wide.load756, ptr %87, align 4, !tbaa !59, !noalias !103
  %index.next760 = add nuw i64 %index749, 8
  %88 = icmp eq i64 %index.next760, %n.vec742
  br i1 %88, label %middle.block737, label %vector.body748, !llvm.loop !112

middle.block737:                                  ; preds = %vector.body748
  %cmp.n747 = icmp eq i64 %71, %n.vec742
  br i1 %cmp.n747, label %_ZNSt3__114__split_bufferIiRNS_9allocatorIiEEE5clearB7v170000Ev.exit.i.i.i, label %while.body.i.i.i.i.i.i.i.i.i.preheader762

while.body.i.i.i.i.i.i.i.i.i.preheader762:        ; preds = %vector.memcheck734, %while.body.i.i.i.i.i.i.i.i.i.preheader, %middle.block737
  %incdec.ptr.i15.i.i.i.i.i.i.i.i.i.ph = phi ptr [ %add.ptr.i.i.i, %vector.memcheck734 ], [ %add.ptr.i.i.i, %while.body.i.i.i.i.i.i.i.i.i.preheader ], [ %ind.end743, %middle.block737 ]
  %__first.sroa.2.014.i.i.i.i.i.i.i.i.i.ph = phi ptr [ %64, %vector.memcheck734 ], [ %64, %while.body.i.i.i.i.i.i.i.i.i.preheader ], [ %ind.end745, %middle.block737 ]
  br label %while.body.i.i.i.i.i.i.i.i.i

while.body.i.i.i.i.i.i.i.i.i:                     ; preds = %while.body.i.i.i.i.i.i.i.i.i.preheader762, %while.body.i.i.i.i.i.i.i.i.i
  %incdec.ptr.i15.i.i.i.i.i.i.i.i.i = phi ptr [ %incdec.ptr.i.i.i.i.i.i.i.i.i.i, %while.body.i.i.i.i.i.i.i.i.i ], [ %incdec.ptr.i15.i.i.i.i.i.i.i.i.i.ph, %while.body.i.i.i.i.i.i.i.i.i.preheader762 ]
  %__first.sroa.2.014.i.i.i.i.i.i.i.i.i = phi ptr [ %incdec.ptr.i.i.i.i.i.i.i.i.i.i.i, %while.body.i.i.i.i.i.i.i.i.i ], [ %__first.sroa.2.014.i.i.i.i.i.i.i.i.i.ph, %while.body.i.i.i.i.i.i.i.i.i.preheader762 ]
  %incdec.ptr.i.i.i.i.i.i.i.i.i.i.i = getelementptr inbounds i32, ptr %__first.sroa.2.014.i.i.i.i.i.i.i.i.i, i64 -1
  %89 = load i32, ptr %incdec.ptr.i.i.i.i.i.i.i.i.i.i.i, align 4, !tbaa !59, !noalias !103
  %incdec.ptr.i.i.i.i.i.i.i.i.i.i = getelementptr inbounds i32, ptr %incdec.ptr.i15.i.i.i.i.i.i.i.i.i, i64 -1
  store i32 %89, ptr %incdec.ptr.i.i.i.i.i.i.i.i.i.i, align 4, !tbaa !59, !noalias !103
  %cmp.i.not.i.i.i.i.i.i.i.i.i = icmp eq ptr %incdec.ptr.i.i.i.i.i.i.i.i.i.i.i, %66
  br i1 %cmp.i.not.i.i.i.i.i.i.i.i.i, label %_ZNSt3__114__split_bufferIiRNS_9allocatorIiEEE5clearB7v170000Ev.exit.i.i.i, label %while.body.i.i.i.i.i.i.i.i.i, !llvm.loop !115

_ZNSt3__114__split_bufferIiRNS_9allocatorIiEEE5clearB7v170000Ev.exit.i.i.i: ; preds = %while.body.i.i.i.i.i.i.i.i.i, %middle.block737, %invoke.cont.i.i
  %storemerge.i.i = phi ptr [ %add.ptr.i.i.i, %invoke.cont.i.i ], [ %ind.end743, %middle.block737 ], [ %incdec.ptr.i.i.i.i.i.i.i.i.i.i, %while.body.i.i.i.i.i.i.i.i.i ]
  store ptr %storemerge.i.i, ptr %corners_i, align 8, !tbaa !46
  store ptr %incdec.ptr.i4.i, ptr %__end_.i, align 8, !tbaa !46
  store ptr %add.ptr6.i.i.i, ptr %__end_cap_.i.i, align 8, !tbaa !46
  %tobool.not.i.i.i = icmp eq ptr %66, null
  br i1 %tobool.not.i.i.i, label %invoke.cont201, label %if.then.i19.i.i

if.then.i19.i.i:                                  ; preds = %_ZNSt3__114__split_bufferIiRNS_9allocatorIiEEE5clearB7v170000Ev.exit.i.i.i
  tail call void @_ZdlPv(ptr noundef nonnull %66) #34
  br label %invoke.cont201

invoke.cont201:                                   ; preds = %if.then.i19.i.i, %_ZNSt3__114__split_bufferIiRNS_9allocatorIiEEE5clearB7v170000Ev.exit.i.i.i, %if.then.i412
  %90 = load ptr, ptr %__end_.i417, align 8, !tbaa !50
  %91 = load ptr, ptr %__end_cap_.i.i418, align 8, !tbaa !46
  %cmp.not.i419 = icmp eq ptr %90, %91
  br i1 %cmp.not.i419, label %if.else.i428, label %if.then.i421

if.then.i421:                                     ; preds = %invoke.cont201
  store i32 %storemerge689, ptr %90, align 4, !tbaa !59
  %incdec.ptr.i.i420 = getelementptr inbounds i32, ptr %90, i64 1
  store ptr %incdec.ptr.i.i420, ptr %__end_.i417, align 8, !tbaa !50
  br label %for.inc204

if.else.i428:                                     ; preds = %invoke.cont201
  %92 = load ptr, ptr %corners_j, align 8, !tbaa !51
  %sub.ptr.lhs.cast.i.i.i422 = ptrtoint ptr %90 to i64
  %sub.ptr.rhs.cast.i.i.i423 = ptrtoint ptr %92 to i64
  %sub.ptr.sub.i.i.i424 = sub i64 %sub.ptr.lhs.cast.i.i.i422, %sub.ptr.rhs.cast.i.i.i423
  %sub.ptr.div.i.i.i425 = ashr exact i64 %sub.ptr.sub.i.i.i424, 2
  %add.i.i426 = add nsw i64 %sub.ptr.div.i.i.i425, 1
  %cmp.i.i.i427 = icmp ugt i64 %add.i.i426, 4611686018427387903
  br i1 %cmp.i.i.i427, label %if.then.i.i.i.invoke, label %_ZNKSt3__16vectorIiNS_9allocatorIiEEE11__recommendB7v170000Em.exit.i.i435

_ZNKSt3__16vectorIiNS_9allocatorIiEEE11__recommendB7v170000Em.exit.i.i435: ; preds = %if.else.i428
  %cmp3.not.i.i.i430 = icmp ult i64 %sub.ptr.sub.i.i.i424, 9223372036854775804
  %mul.i.i.i431 = lshr exact i64 %sub.ptr.sub.i.i.i424, 1
  %.sroa.speculated.i.i.i432 = tail call i64 @llvm.umax.i64(i64 %mul.i.i.i431, i64 %add.i.i426)
  %retval.0.i.i.i433 = select i1 %cmp3.not.i.i.i430, i64 %.sroa.speculated.i.i.i432, i64 4611686018427387903
  %cmp.i16.i.i434 = icmp eq i64 %retval.0.i.i.i433, 0
  br i1 %cmp.i16.i.i434, label %invoke.cont.i.i446, label %if.else.i.i.i437

if.else.i.i.i437:                                 ; preds = %_ZNKSt3__16vectorIiNS_9allocatorIiEEE11__recommendB7v170000Em.exit.i.i435
  %cmp.i.i.i.i.i436 = icmp ugt i64 %retval.0.i.i.i433, 4611686018427387903
  br i1 %cmp.i.i.i.i.i436, label %if.then.i.i.i.i.i.invoke, label %_ZNSt3__119__allocate_at_leastB7v170000INS_9allocatorIiEEEENS_19__allocation_resultINS_16allocator_traitsIT_E7pointerEEERS5_m.exit.i.i.i440

_ZNSt3__119__allocate_at_leastB7v170000INS_9allocatorIiEEEENS_19__allocation_resultINS_16allocator_traitsIT_E7pointerEEERS5_m.exit.i.i.i440: ; preds = %if.else.i.i.i437
  %mul.i.i.i.i.i439 = shl nuw i64 %retval.0.i.i.i433, 2
  %call.i5.i.i.i.i.i.i460 = invoke noalias noundef nonnull ptr @_Znwm(i64 noundef %mul.i.i.i.i.i439) #36
          to label %invoke.cont.i.i446 unwind label %lpad200.loopexit

invoke.cont.i.i446:                               ; preds = %_ZNSt3__119__allocate_at_leastB7v170000INS_9allocatorIiEEEENS_19__allocation_resultINS_16allocator_traitsIT_E7pointerEEERS5_m.exit.i.i.i440, %_ZNKSt3__16vectorIiNS_9allocatorIiEEE11__recommendB7v170000Em.exit.i.i435
  %storemerge.i.i.i441 = phi ptr [ null, %_ZNKSt3__16vectorIiNS_9allocatorIiEEE11__recommendB7v170000Em.exit.i.i435 ], [ %call.i5.i.i.i.i.i.i460, %_ZNSt3__119__allocate_at_leastB7v170000INS_9allocatorIiEEEENS_19__allocation_resultINS_16allocator_traitsIT_E7pointerEEERS5_m.exit.i.i.i440 ]
  %storemerge.i.i.i441723 = ptrtoint ptr %storemerge.i.i.i441 to i64
  %add.ptr.i.i.i442 = getelementptr inbounds i32, ptr %storemerge.i.i.i441, i64 %sub.ptr.div.i.i.i425
  %add.ptr6.i.i.i443 = getelementptr inbounds i32, ptr %storemerge.i.i.i441, i64 %retval.0.i.i.i433
  store i32 %storemerge689, ptr %add.ptr.i.i.i442, align 4, !tbaa !59
  %incdec.ptr.i4.i444 = getelementptr inbounds i32, ptr %add.ptr.i.i.i442, i64 1
  %cmp.i.not13.i.i.i.i.i.i.i.i.i445 = icmp eq ptr %90, %92
  br i1 %cmp.i.not13.i.i.i.i.i.i.i.i.i445, label %_ZNSt3__114__split_bufferIiRNS_9allocatorIiEEE5clearB7v170000Ev.exit.i.i.i455, label %while.body.i.i.i.i.i.i.i.i.i452.preheader

while.body.i.i.i.i.i.i.i.i.i452.preheader:        ; preds = %invoke.cont.i.i446
  %93 = add i64 %sub.ptr.lhs.cast.i.i.i422, -4
  %94 = sub i64 %93, %sub.ptr.rhs.cast.i.i.i423
  %95 = lshr i64 %94, 2
  %96 = add nuw nsw i64 %95, 1
  %min.iters.check = icmp ult i64 %94, 76
  br i1 %min.iters.check, label %while.body.i.i.i.i.i.i.i.i.i452.preheader761, label %vector.memcheck

vector.memcheck:                                  ; preds = %while.body.i.i.i.i.i.i.i.i.i452.preheader
  %97 = add i64 %sub.ptr.lhs.cast.i.i.i422, -4
  %98 = add i64 %storemerge.i.i.i441723, -4
  %99 = add i64 %98, %sub.ptr.sub.i.i.i424
  %100 = sub i64 %97, %99
  %diff.check = icmp ult i64 %100, 32
  br i1 %diff.check, label %while.body.i.i.i.i.i.i.i.i.i452.preheader761, label %vector.ph

vector.ph:                                        ; preds = %vector.memcheck
  %n.vec = and i64 %96, -8
  %101 = mul i64 %n.vec, -4
  %ind.end = getelementptr i8, ptr %add.ptr.i.i.i442, i64 %101
  %102 = mul i64 %n.vec, -4
  %ind.end724 = getelementptr i8, ptr %90, i64 %102
  br label %vector.body

vector.body:                                      ; preds = %vector.body, %vector.ph
  %index726 = phi i64 [ 0, %vector.ph ], [ %index.next, %vector.body ]
  %103 = mul i64 %index726, -4
  %next.gep = getelementptr i8, ptr %add.ptr.i.i.i442, i64 %103
  %104 = mul i64 %index726, -4
  %next.gep728 = getelementptr i8, ptr %90, i64 %104
  %105 = getelementptr inbounds i32, ptr %next.gep728, i64 -1
  %106 = getelementptr inbounds i32, ptr %105, i64 -3
  %wide.load = load <4 x i32>, ptr %106, align 4, !tbaa !59, !noalias !116
  %107 = getelementptr inbounds i32, ptr %105, i64 -4
  %108 = getelementptr inbounds i32, ptr %107, i64 -3
  %wide.load730 = load <4 x i32>, ptr %108, align 4, !tbaa !59, !noalias !116
  %109 = getelementptr inbounds i32, ptr %next.gep, i64 -1
  %110 = getelementptr inbounds i32, ptr %109, i64 -3
  store <4 x i32> %wide.load, ptr %110, align 4, !tbaa !59, !noalias !116
  %111 = getelementptr inbounds i32, ptr %109, i64 -4
  %112 = getelementptr inbounds i32, ptr %111, i64 -3
  store <4 x i32> %wide.load730, ptr %112, align 4, !tbaa !59, !noalias !116
  %index.next = add nuw i64 %index726, 8
  %113 = icmp eq i64 %index.next, %n.vec
  br i1 %113, label %middle.block, label %vector.body, !llvm.loop !125

middle.block:                                     ; preds = %vector.body
  %cmp.n = icmp eq i64 %96, %n.vec
  br i1 %cmp.n, label %_ZNSt3__114__split_bufferIiRNS_9allocatorIiEEE5clearB7v170000Ev.exit.i.i.i455, label %while.body.i.i.i.i.i.i.i.i.i452.preheader761

while.body.i.i.i.i.i.i.i.i.i452.preheader761:     ; preds = %vector.memcheck, %while.body.i.i.i.i.i.i.i.i.i452.preheader, %middle.block
  %incdec.ptr.i15.i.i.i.i.i.i.i.i.i447.ph = phi ptr [ %add.ptr.i.i.i442, %vector.memcheck ], [ %add.ptr.i.i.i442, %while.body.i.i.i.i.i.i.i.i.i452.preheader ], [ %ind.end, %middle.block ]
  %__first.sroa.2.014.i.i.i.i.i.i.i.i.i448.ph = phi ptr [ %90, %vector.memcheck ], [ %90, %while.body.i.i.i.i.i.i.i.i.i452.preheader ], [ %ind.end724, %middle.block ]
  br label %while.body.i.i.i.i.i.i.i.i.i452

while.body.i.i.i.i.i.i.i.i.i452:                  ; preds = %while.body.i.i.i.i.i.i.i.i.i452.preheader761, %while.body.i.i.i.i.i.i.i.i.i452
  %incdec.ptr.i15.i.i.i.i.i.i.i.i.i447 = phi ptr [ %incdec.ptr.i.i.i.i.i.i.i.i.i.i450, %while.body.i.i.i.i.i.i.i.i.i452 ], [ %incdec.ptr.i15.i.i.i.i.i.i.i.i.i447.ph, %while.body.i.i.i.i.i.i.i.i.i452.preheader761 ]
  %__first.sroa.2.014.i.i.i.i.i.i.i.i.i448 = phi ptr [ %incdec.ptr.i.i.i.i.i.i.i.i.i.i.i449, %while.body.i.i.i.i.i.i.i.i.i452 ], [ %__first.sroa.2.014.i.i.i.i.i.i.i.i.i448.ph, %while.body.i.i.i.i.i.i.i.i.i452.preheader761 ]
  %incdec.ptr.i.i.i.i.i.i.i.i.i.i.i449 = getelementptr inbounds i32, ptr %__first.sroa.2.014.i.i.i.i.i.i.i.i.i448, i64 -1
  %114 = load i32, ptr %incdec.ptr.i.i.i.i.i.i.i.i.i.i.i449, align 4, !tbaa !59, !noalias !116
  %incdec.ptr.i.i.i.i.i.i.i.i.i.i450 = getelementptr inbounds i32, ptr %incdec.ptr.i15.i.i.i.i.i.i.i.i.i447, i64 -1
  store i32 %114, ptr %incdec.ptr.i.i.i.i.i.i.i.i.i.i450, align 4, !tbaa !59, !noalias !116
  %cmp.i.not.i.i.i.i.i.i.i.i.i451 = icmp eq ptr %incdec.ptr.i.i.i.i.i.i.i.i.i.i.i449, %92
  br i1 %cmp.i.not.i.i.i.i.i.i.i.i.i451, label %_ZNSt3__114__split_bufferIiRNS_9allocatorIiEEE5clearB7v170000Ev.exit.i.i.i455, label %while.body.i.i.i.i.i.i.i.i.i452, !llvm.loop !126

_ZNSt3__114__split_bufferIiRNS_9allocatorIiEEE5clearB7v170000Ev.exit.i.i.i455: ; preds = %while.body.i.i.i.i.i.i.i.i.i452, %middle.block, %invoke.cont.i.i446
  %storemerge.i.i453 = phi ptr [ %add.ptr.i.i.i442, %invoke.cont.i.i446 ], [ %ind.end, %middle.block ], [ %incdec.ptr.i.i.i.i.i.i.i.i.i.i450, %while.body.i.i.i.i.i.i.i.i.i452 ]
  store ptr %storemerge.i.i453, ptr %corners_j, align 8, !tbaa !46
  store ptr %incdec.ptr.i4.i444, ptr %__end_.i417, align 8, !tbaa !46
  store ptr %add.ptr6.i.i.i443, ptr %__end_cap_.i.i418, align 8, !tbaa !46
  %tobool.not.i.i.i454 = icmp eq ptr %92, null
  br i1 %tobool.not.i.i.i454, label %for.inc204, label %if.then.i19.i.i456

if.then.i19.i.i456:                               ; preds = %_ZNSt3__114__split_bufferIiRNS_9allocatorIiEEE5clearB7v170000Ev.exit.i.i.i455
  tail call void @_ZdlPv(ptr noundef nonnull %92) #34
  br label %for.inc204

for.inc204:                                       ; preds = %if.then.i19.i.i456, %_ZNSt3__114__split_bufferIiRNS_9allocatorIiEEE5clearB7v170000Ev.exit.i.i.i455, %if.then.i421
  %inc205 = add nsw i32 %storemerge313684, 1
  %115 = load i32, ptr %arrayidx185, align 4, !tbaa !59
  %add192 = add nsw i32 %115, 1
  %116 = load i32, ptr %levmx, align 8, !tbaa !84
  %shl194 = shl i32 2, %116
  %mul195 = mul nsw i32 %shl194, %add192
  %cmp196 = icmp slt i32 %inc205, %mul195
  br i1 %cmp196, label %for.body198, label %for.cond.cleanup197.loopexit, !llvm.loop !127

lpad200.loopexit:                                 ; preds = %_ZNSt3__119__allocate_at_leastB7v170000INS_9allocatorIiEEEENS_19__allocation_resultINS_16allocator_traitsIT_E7pointerEEERS5_m.exit.i.i.i, %_ZNSt3__119__allocate_at_leastB7v170000INS_9allocatorIiEEEENS_19__allocation_resultINS_16allocator_traitsIT_E7pointerEEERS5_m.exit.i.i.i440
  %lpad.loopexit = landingpad { ptr, i32 }
          cleanup
  br label %lpad200

lpad200.loopexit.split-lp:                        ; preds = %if.then.i.i.i.i.i.invoke, %if.then.i.i.i.invoke
  %lpad.loopexit.split-lp = landingpad { ptr, i32 }
          cleanup
  br label %lpad200

lpad200:                                          ; preds = %lpad200.loopexit.split-lp, %lpad200.loopexit
  %lpad.phi = phi { ptr, i32 } [ %lpad.loopexit, %lpad200.loopexit ], [ %lpad.loopexit.split-lp, %lpad200.loopexit.split-lp ]
  call void @llvm.lifetime.end.p0(i64 16, ptr nonnull %j_corner) #32
  call void @llvm.lifetime.end.p0(i64 16, ptr nonnull %i_corner) #32
  br label %ehcleanup

ehcleanup:                                        ; preds = %lpad200, %lpad
  %.pn = phi { ptr, i32 } [ %lpad.phi, %lpad200 ], [ %40, %lpad ]
  %117 = load ptr, ptr %jyadjust, align 8, !tbaa !51
  %cmp.not.i.i = icmp eq ptr %117, null
  br i1 %cmp.not.i.i, label %_ZNSt3__16vectorIiNS_9allocatorIiEEED2B7v170000Ev.exit, label %if.then.i.i

if.then.i.i:                                      ; preds = %ehcleanup
  %__end_.i.i.i.i = getelementptr inbounds %class.Mesh, ptr %this, i64 0, i32 112, i32 1
  store ptr %117, ptr %__end_.i.i.i.i, align 8, !tbaa !50
  tail call void @_ZdlPv(ptr noundef nonnull %117) #34
  br label %_ZNSt3__16vectorIiNS_9allocatorIiEEED2B7v170000Ev.exit

_ZNSt3__16vectorIiNS_9allocatorIiEEED2B7v170000Ev.exit: ; preds = %ehcleanup, %if.then.i.i
  %118 = load ptr, ptr %iyadjust, align 8, !tbaa !51
  %cmp.not.i.i462 = icmp eq ptr %118, null
  br i1 %cmp.not.i.i462, label %_ZNSt3__16vectorIiNS_9allocatorIiEEED2B7v170000Ev.exit465, label %if.then.i.i464

if.then.i.i464:                                   ; preds = %_ZNSt3__16vectorIiNS_9allocatorIiEEED2B7v170000Ev.exit
  %__end_.i.i.i.i463 = getelementptr inbounds %class.Mesh, ptr %this, i64 0, i32 111, i32 1
  store ptr %118, ptr %__end_.i.i.i.i463, align 8, !tbaa !50
  tail call void @_ZdlPv(ptr noundef nonnull %118) #34
  br label %_ZNSt3__16vectorIiNS_9allocatorIiEEED2B7v170000Ev.exit465

_ZNSt3__16vectorIiNS_9allocatorIiEEED2B7v170000Ev.exit465: ; preds = %_ZNSt3__16vectorIiNS_9allocatorIiEEED2B7v170000Ev.exit, %if.then.i.i464
  %119 = load ptr, ptr %jymax_level, align 8, !tbaa !51
  %cmp.not.i.i466 = icmp eq ptr %119, null
  br i1 %cmp.not.i.i466, label %_ZNSt3__16vectorIiNS_9allocatorIiEEED2B7v170000Ev.exit469, label %if.then.i.i468

if.then.i.i468:                                   ; preds = %_ZNSt3__16vectorIiNS_9allocatorIiEEED2B7v170000Ev.exit465
  %__end_.i.i.i.i467 = getelementptr inbounds %class.Mesh, ptr %this, i64 0, i32 110, i32 1
  store ptr %119, ptr %__end_.i.i.i.i467, align 8, !tbaa !50
  tail call void @_ZdlPv(ptr noundef nonnull %119) #34
  br label %_ZNSt3__16vectorIiNS_9allocatorIiEEED2B7v170000Ev.exit469

_ZNSt3__16vectorIiNS_9allocatorIiEEED2B7v170000Ev.exit469: ; preds = %_ZNSt3__16vectorIiNS_9allocatorIiEEED2B7v170000Ev.exit465, %if.then.i.i468
  %120 = load ptr, ptr %jymin_level, align 8, !tbaa !51
  %cmp.not.i.i470 = icmp eq ptr %120, null
  br i1 %cmp.not.i.i470, label %_ZNSt3__16vectorIiNS_9allocatorIiEEED2B7v170000Ev.exit473, label %if.then.i.i472

if.then.i.i472:                                   ; preds = %_ZNSt3__16vectorIiNS_9allocatorIiEEED2B7v170000Ev.exit469
  %__end_.i.i.i.i471 = getelementptr inbounds %class.Mesh, ptr %this, i64 0, i32 109, i32 1
  store ptr %120, ptr %__end_.i.i.i.i471, align 8, !tbaa !50
  tail call void @_ZdlPv(ptr noundef nonnull %120) #34
  br label %_ZNSt3__16vectorIiNS_9allocatorIiEEED2B7v170000Ev.exit473

_ZNSt3__16vectorIiNS_9allocatorIiEEED2B7v170000Ev.exit473: ; preds = %_ZNSt3__16vectorIiNS_9allocatorIiEEED2B7v170000Ev.exit469, %if.then.i.i472
  %121 = load ptr, ptr %iymax_level, align 8, !tbaa !51
  %cmp.not.i.i474 = icmp eq ptr %121, null
  br i1 %cmp.not.i.i474, label %_ZNSt3__16vectorIiNS_9allocatorIiEEED2B7v170000Ev.exit477, label %if.then.i.i476

if.then.i.i476:                                   ; preds = %_ZNSt3__16vectorIiNS_9allocatorIiEEED2B7v170000Ev.exit473
  %__end_.i.i.i.i475 = getelementptr inbounds %class.Mesh, ptr %this, i64 0, i32 108, i32 1
  store ptr %121, ptr %__end_.i.i.i.i475, align 8, !tbaa !50
  tail call void @_ZdlPv(ptr noundef nonnull %121) #34
  br label %_ZNSt3__16vectorIiNS_9allocatorIiEEED2B7v170000Ev.exit477

_ZNSt3__16vectorIiNS_9allocatorIiEEED2B7v170000Ev.exit477: ; preds = %_ZNSt3__16vectorIiNS_9allocatorIiEEED2B7v170000Ev.exit473, %if.then.i.i476
  %122 = load ptr, ptr %iymin_level, align 8, !tbaa !51
  %cmp.not.i.i478 = icmp eq ptr %122, null
  br i1 %cmp.not.i.i478, label %_ZNSt3__16vectorIiNS_9allocatorIiEEED2B7v170000Ev.exit481, label %if.then.i.i480

if.then.i.i480:                                   ; preds = %_ZNSt3__16vectorIiNS_9allocatorIiEEED2B7v170000Ev.exit477
  %__end_.i.i.i.i479 = getelementptr inbounds %class.Mesh, ptr %this, i64 0, i32 107, i32 1
  store ptr %122, ptr %__end_.i.i.i.i479, align 8, !tbaa !50
  tail call void @_ZdlPv(ptr noundef nonnull %122) #34
  br label %_ZNSt3__16vectorIiNS_9allocatorIiEEED2B7v170000Ev.exit481

_ZNSt3__16vectorIiNS_9allocatorIiEEED2B7v170000Ev.exit481: ; preds = %_ZNSt3__16vectorIiNS_9allocatorIiEEED2B7v170000Ev.exit477, %if.then.i.i480
  %123 = load ptr, ptr %map_ycell2face_top2, align 8, !tbaa !51
  %cmp.not.i.i482 = icmp eq ptr %123, null
  br i1 %cmp.not.i.i482, label %_ZNSt3__16vectorIiNS_9allocatorIiEEED2B7v170000Ev.exit485, label %if.then.i.i484

if.then.i.i484:                                   ; preds = %_ZNSt3__16vectorIiNS_9allocatorIiEEED2B7v170000Ev.exit481
  %__end_.i.i.i.i483 = getelementptr inbounds %class.Mesh, ptr %this, i64 0, i32 106, i32 1
  store ptr %123, ptr %__end_.i.i.i.i483, align 8, !tbaa !50
  tail call void @_ZdlPv(ptr noundef nonnull %123) #34
  br label %_ZNSt3__16vectorIiNS_9allocatorIiEEED2B7v170000Ev.exit485

_ZNSt3__16vectorIiNS_9allocatorIiEEED2B7v170000Ev.exit485: ; preds = %_ZNSt3__16vectorIiNS_9allocatorIiEEED2B7v170000Ev.exit481, %if.then.i.i484
  %124 = load ptr, ptr %map_ycell2face_top1, align 8, !tbaa !51
  %cmp.not.i.i486 = icmp eq ptr %124, null
  br i1 %cmp.not.i.i486, label %_ZNSt3__16vectorIiNS_9allocatorIiEEED2B7v170000Ev.exit489, label %if.then.i.i488

if.then.i.i488:                                   ; preds = %_ZNSt3__16vectorIiNS_9allocatorIiEEED2B7v170000Ev.exit485
  %__end_.i.i.i.i487 = getelementptr inbounds %class.Mesh, ptr %this, i64 0, i32 105, i32 1
  store ptr %124, ptr %__end_.i.i.i.i487, align 8, !tbaa !50
  tail call void @_ZdlPv(ptr noundef nonnull %124) #34
  br label %_ZNSt3__16vectorIiNS_9allocatorIiEEED2B7v170000Ev.exit489

_ZNSt3__16vectorIiNS_9allocatorIiEEED2B7v170000Ev.exit489: ; preds = %_ZNSt3__16vectorIiNS_9allocatorIiEEED2B7v170000Ev.exit485, %if.then.i.i488
  %125 = load ptr, ptr %map_ycell2face_bot2, align 8, !tbaa !51
  %cmp.not.i.i490 = icmp eq ptr %125, null
  br i1 %cmp.not.i.i490, label %_ZNSt3__16vectorIiNS_9allocatorIiEEED2B7v170000Ev.exit493, label %if.then.i.i492

if.then.i.i492:                                   ; preds = %_ZNSt3__16vectorIiNS_9allocatorIiEEED2B7v170000Ev.exit489
  %__end_.i.i.i.i491 = getelementptr inbounds %class.Mesh, ptr %this, i64 0, i32 104, i32 1
  store ptr %125, ptr %__end_.i.i.i.i491, align 8, !tbaa !50
  tail call void @_ZdlPv(ptr noundef nonnull %125) #34
  br label %_ZNSt3__16vectorIiNS_9allocatorIiEEED2B7v170000Ev.exit493

_ZNSt3__16vectorIiNS_9allocatorIiEEED2B7v170000Ev.exit493: ; preds = %_ZNSt3__16vectorIiNS_9allocatorIiEEED2B7v170000Ev.exit489, %if.then.i.i492
  %126 = load ptr, ptr %map_ycell2face_bot1, align 8, !tbaa !51
  %cmp.not.i.i494 = icmp eq ptr %126, null
  br i1 %cmp.not.i.i494, label %_ZNSt3__16vectorIiNS_9allocatorIiEEED2B7v170000Ev.exit497, label %if.then.i.i496

if.then.i.i496:                                   ; preds = %_ZNSt3__16vectorIiNS_9allocatorIiEEED2B7v170000Ev.exit493
  %__end_.i.i.i.i495 = getelementptr inbounds %class.Mesh, ptr %this, i64 0, i32 103, i32 1
  store ptr %126, ptr %__end_.i.i.i.i495, align 8, !tbaa !50
  tail call void @_ZdlPv(ptr noundef nonnull %126) #34
  br label %_ZNSt3__16vectorIiNS_9allocatorIiEEED2B7v170000Ev.exit497

_ZNSt3__16vectorIiNS_9allocatorIiEEED2B7v170000Ev.exit497: ; preds = %_ZNSt3__16vectorIiNS_9allocatorIiEEED2B7v170000Ev.exit493, %if.then.i.i496
  %127 = load ptr, ptr %map_yface2cell_upper, align 8, !tbaa !51
  %cmp.not.i.i498 = icmp eq ptr %127, null
  br i1 %cmp.not.i.i498, label %_ZNSt3__16vectorIiNS_9allocatorIiEEED2B7v170000Ev.exit501, label %if.then.i.i500

if.then.i.i500:                                   ; preds = %_ZNSt3__16vectorIiNS_9allocatorIiEEED2B7v170000Ev.exit497
  %__end_.i.i.i.i499 = getelementptr inbounds %class.Mesh, ptr %this, i64 0, i32 102, i32 1
  store ptr %127, ptr %__end_.i.i.i.i499, align 8, !tbaa !50
  tail call void @_ZdlPv(ptr noundef nonnull %127) #34
  br label %_ZNSt3__16vectorIiNS_9allocatorIiEEED2B7v170000Ev.exit501

_ZNSt3__16vectorIiNS_9allocatorIiEEED2B7v170000Ev.exit501: ; preds = %_ZNSt3__16vectorIiNS_9allocatorIiEEED2B7v170000Ev.exit497, %if.then.i.i500
  %128 = load ptr, ptr %map_yface2cell_lower, align 8, !tbaa !51
  %cmp.not.i.i502 = icmp eq ptr %128, null
  br i1 %cmp.not.i.i502, label %_ZNSt3__16vectorIiNS_9allocatorIiEEED2B7v170000Ev.exit505, label %if.then.i.i504

if.then.i.i504:                                   ; preds = %_ZNSt3__16vectorIiNS_9allocatorIiEEED2B7v170000Ev.exit501
  %__end_.i.i.i.i503 = getelementptr inbounds %class.Mesh, ptr %this, i64 0, i32 101, i32 1
  store ptr %128, ptr %__end_.i.i.i.i503, align 8, !tbaa !50
  tail call void @_ZdlPv(ptr noundef nonnull %128) #34
  br label %_ZNSt3__16vectorIiNS_9allocatorIiEEED2B7v170000Ev.exit505

_ZNSt3__16vectorIiNS_9allocatorIiEEED2B7v170000Ev.exit505: ; preds = %_ZNSt3__16vectorIiNS_9allocatorIiEEED2B7v170000Ev.exit501, %if.then.i.i504
  %129 = load ptr, ptr %yface_level, align 8, !tbaa !51
  %cmp.not.i.i506 = icmp eq ptr %129, null
  br i1 %cmp.not.i.i506, label %_ZNSt3__16vectorIiNS_9allocatorIiEEED2B7v170000Ev.exit509, label %if.then.i.i508

if.then.i.i508:                                   ; preds = %_ZNSt3__16vectorIiNS_9allocatorIiEEED2B7v170000Ev.exit505
  %__end_.i.i.i.i507 = getelementptr inbounds %class.Mesh, ptr %this, i64 0, i32 100, i32 1
  store ptr %129, ptr %__end_.i.i.i.i507, align 8, !tbaa !50
  tail call void @_ZdlPv(ptr noundef nonnull %129) #34
  br label %_ZNSt3__16vectorIiNS_9allocatorIiEEED2B7v170000Ev.exit509

_ZNSt3__16vectorIiNS_9allocatorIiEEED2B7v170000Ev.exit509: ; preds = %_ZNSt3__16vectorIiNS_9allocatorIiEEED2B7v170000Ev.exit505, %if.then.i.i508
  %130 = load ptr, ptr %yface_j, align 8, !tbaa !51
  %cmp.not.i.i510 = icmp eq ptr %130, null
  br i1 %cmp.not.i.i510, label %_ZNSt3__16vectorIiNS_9allocatorIiEEED2B7v170000Ev.exit513, label %if.then.i.i512

if.then.i.i512:                                   ; preds = %_ZNSt3__16vectorIiNS_9allocatorIiEEED2B7v170000Ev.exit509
  %__end_.i.i.i.i511 = getelementptr inbounds %class.Mesh, ptr %this, i64 0, i32 99, i32 1
  store ptr %130, ptr %__end_.i.i.i.i511, align 8, !tbaa !50
  tail call void @_ZdlPv(ptr noundef nonnull %130) #34
  br label %_ZNSt3__16vectorIiNS_9allocatorIiEEED2B7v170000Ev.exit513

_ZNSt3__16vectorIiNS_9allocatorIiEEED2B7v170000Ev.exit513: ; preds = %_ZNSt3__16vectorIiNS_9allocatorIiEEED2B7v170000Ev.exit509, %if.then.i.i512
  %131 = load ptr, ptr %yface_i, align 8, !tbaa !51
  %cmp.not.i.i514 = icmp eq ptr %131, null
  br i1 %cmp.not.i.i514, label %_ZNSt3__16vectorIiNS_9allocatorIiEEED2B7v170000Ev.exit517, label %if.then.i.i516

if.then.i.i516:                                   ; preds = %_ZNSt3__16vectorIiNS_9allocatorIiEEED2B7v170000Ev.exit513
  %__end_.i.i.i.i515 = getelementptr inbounds %class.Mesh, ptr %this, i64 0, i32 98, i32 1
  store ptr %131, ptr %__end_.i.i.i.i515, align 8, !tbaa !50
  tail call void @_ZdlPv(ptr noundef nonnull %131) #34
  br label %_ZNSt3__16vectorIiNS_9allocatorIiEEED2B7v170000Ev.exit517

_ZNSt3__16vectorIiNS_9allocatorIiEEED2B7v170000Ev.exit517: ; preds = %_ZNSt3__16vectorIiNS_9allocatorIiEEED2B7v170000Ev.exit513, %if.then.i.i516
  %132 = load ptr, ptr %jxadjust, align 8, !tbaa !51
  %cmp.not.i.i518 = icmp eq ptr %132, null
  br i1 %cmp.not.i.i518, label %_ZNSt3__16vectorIiNS_9allocatorIiEEED2B7v170000Ev.exit521, label %if.then.i.i520

if.then.i.i520:                                   ; preds = %_ZNSt3__16vectorIiNS_9allocatorIiEEED2B7v170000Ev.exit517
  %__end_.i.i.i.i519 = getelementptr inbounds %class.Mesh, ptr %this, i64 0, i32 97, i32 1
  store ptr %132, ptr %__end_.i.i.i.i519, align 8, !tbaa !50
  tail call void @_ZdlPv(ptr noundef nonnull %132) #34
  br label %_ZNSt3__16vectorIiNS_9allocatorIiEEED2B7v170000Ev.exit521

_ZNSt3__16vectorIiNS_9allocatorIiEEED2B7v170000Ev.exit521: ; preds = %_ZNSt3__16vectorIiNS_9allocatorIiEEED2B7v170000Ev.exit517, %if.then.i.i520
  %133 = load ptr, ptr %ixadjust, align 8, !tbaa !51
  %cmp.not.i.i522 = icmp eq ptr %133, null
  br i1 %cmp.not.i.i522, label %_ZNSt3__16vectorIiNS_9allocatorIiEEED2B7v170000Ev.exit525, label %if.then.i.i524

if.then.i.i524:                                   ; preds = %_ZNSt3__16vectorIiNS_9allocatorIiEEED2B7v170000Ev.exit521
  %__end_.i.i.i.i523 = getelementptr inbounds %class.Mesh, ptr %this, i64 0, i32 96, i32 1
  store ptr %133, ptr %__end_.i.i.i.i523, align 8, !tbaa !50
  tail call void @_ZdlPv(ptr noundef nonnull %133) #34
  br label %_ZNSt3__16vectorIiNS_9allocatorIiEEED2B7v170000Ev.exit525

_ZNSt3__16vectorIiNS_9allocatorIiEEED2B7v170000Ev.exit525: ; preds = %_ZNSt3__16vectorIiNS_9allocatorIiEEED2B7v170000Ev.exit521, %if.then.i.i524
  %134 = load ptr, ptr %jxmax_level, align 8, !tbaa !51
  %cmp.not.i.i526 = icmp eq ptr %134, null
  br i1 %cmp.not.i.i526, label %_ZNSt3__16vectorIiNS_9allocatorIiEEED2B7v170000Ev.exit529, label %if.then.i.i528

if.then.i.i528:                                   ; preds = %_ZNSt3__16vectorIiNS_9allocatorIiEEED2B7v170000Ev.exit525
  %__end_.i.i.i.i527 = getelementptr inbounds %class.Mesh, ptr %this, i64 0, i32 95, i32 1
  store ptr %134, ptr %__end_.i.i.i.i527, align 8, !tbaa !50
  tail call void @_ZdlPv(ptr noundef nonnull %134) #34
  br label %_ZNSt3__16vectorIiNS_9allocatorIiEEED2B7v170000Ev.exit529

_ZNSt3__16vectorIiNS_9allocatorIiEEED2B7v170000Ev.exit529: ; preds = %_ZNSt3__16vectorIiNS_9allocatorIiEEED2B7v170000Ev.exit525, %if.then.i.i528
  %135 = load ptr, ptr %jxmin_level, align 8, !tbaa !51
  %cmp.not.i.i530 = icmp eq ptr %135, null
  br i1 %cmp.not.i.i530, label %_ZNSt3__16vectorIiNS_9allocatorIiEEED2B7v170000Ev.exit533, label %if.then.i.i532

if.then.i.i532:                                   ; preds = %_ZNSt3__16vectorIiNS_9allocatorIiEEED2B7v170000Ev.exit529
  %__end_.i.i.i.i531 = getelementptr inbounds %class.Mesh, ptr %this, i64 0, i32 94, i32 1
  store ptr %135, ptr %__end_.i.i.i.i531, align 8, !tbaa !50
  tail call void @_ZdlPv(ptr noundef nonnull %135) #34
  br label %_ZNSt3__16vectorIiNS_9allocatorIiEEED2B7v170000Ev.exit533

_ZNSt3__16vectorIiNS_9allocatorIiEEED2B7v170000Ev.exit533: ; preds = %_ZNSt3__16vectorIiNS_9allocatorIiEEED2B7v170000Ev.exit529, %if.then.i.i532
  %136 = load ptr, ptr %ixmax_level, align 8, !tbaa !51
  %cmp.not.i.i534 = icmp eq ptr %136, null
  br i1 %cmp.not.i.i534, label %_ZNSt3__16vectorIiNS_9allocatorIiEEED2B7v170000Ev.exit537, label %if.then.i.i536

if.then.i.i536:                                   ; preds = %_ZNSt3__16vectorIiNS_9allocatorIiEEED2B7v170000Ev.exit533
  %__end_.i.i.i.i535 = getelementptr inbounds %class.Mesh, ptr %this, i64 0, i32 93, i32 1
  store ptr %136, ptr %__end_.i.i.i.i535, align 8, !tbaa !50
  tail call void @_ZdlPv(ptr noundef nonnull %136) #34
  br label %_ZNSt3__16vectorIiNS_9allocatorIiEEED2B7v170000Ev.exit537

_ZNSt3__16vectorIiNS_9allocatorIiEEED2B7v170000Ev.exit537: ; preds = %_ZNSt3__16vectorIiNS_9allocatorIiEEED2B7v170000Ev.exit533, %if.then.i.i536
  %137 = load ptr, ptr %ixmin_level, align 8, !tbaa !51
  %cmp.not.i.i538 = icmp eq ptr %137, null
  br i1 %cmp.not.i.i538, label %_ZNSt3__16vectorIiNS_9allocatorIiEEED2B7v170000Ev.exit541, label %if.then.i.i540

if.then.i.i540:                                   ; preds = %_ZNSt3__16vectorIiNS_9allocatorIiEEED2B7v170000Ev.exit537
  %__end_.i.i.i.i539 = getelementptr inbounds %class.Mesh, ptr %this, i64 0, i32 92, i32 1
  store ptr %137, ptr %__end_.i.i.i.i539, align 8, !tbaa !50
  tail call void @_ZdlPv(ptr noundef nonnull %137) #34
  br label %_ZNSt3__16vectorIiNS_9allocatorIiEEED2B7v170000Ev.exit541

_ZNSt3__16vectorIiNS_9allocatorIiEEED2B7v170000Ev.exit541: ; preds = %_ZNSt3__16vectorIiNS_9allocatorIiEEED2B7v170000Ev.exit537, %if.then.i.i540
  %138 = load ptr, ptr %map_xcell2face_right2, align 8, !tbaa !51
  %cmp.not.i.i542 = icmp eq ptr %138, null
  br i1 %cmp.not.i.i542, label %_ZNSt3__16vectorIiNS_9allocatorIiEEED2B7v170000Ev.exit545, label %if.then.i.i544

if.then.i.i544:                                   ; preds = %_ZNSt3__16vectorIiNS_9allocatorIiEEED2B7v170000Ev.exit541
  %__end_.i.i.i.i543 = getelementptr inbounds %class.Mesh, ptr %this, i64 0, i32 91, i32 1
  store ptr %138, ptr %__end_.i.i.i.i543, align 8, !tbaa !50
  tail call void @_ZdlPv(ptr noundef nonnull %138) #34
  br label %_ZNSt3__16vectorIiNS_9allocatorIiEEED2B7v170000Ev.exit545

_ZNSt3__16vectorIiNS_9allocatorIiEEED2B7v170000Ev.exit545: ; preds = %_ZNSt3__16vectorIiNS_9allocatorIiEEED2B7v170000Ev.exit541, %if.then.i.i544
  %139 = load ptr, ptr %map_xcell2face_right1, align 8, !tbaa !51
  %cmp.not.i.i546 = icmp eq ptr %139, null
  br i1 %cmp.not.i.i546, label %_ZNSt3__16vectorIiNS_9allocatorIiEEED2B7v170000Ev.exit549, label %if.then.i.i548

if.then.i.i548:                                   ; preds = %_ZNSt3__16vectorIiNS_9allocatorIiEEED2B7v170000Ev.exit545
  %__end_.i.i.i.i547 = getelementptr inbounds %class.Mesh, ptr %this, i64 0, i32 90, i32 1
  store ptr %139, ptr %__end_.i.i.i.i547, align 8, !tbaa !50
  tail call void @_ZdlPv(ptr noundef nonnull %139) #34
  br label %_ZNSt3__16vectorIiNS_9allocatorIiEEED2B7v170000Ev.exit549

_ZNSt3__16vectorIiNS_9allocatorIiEEED2B7v170000Ev.exit549: ; preds = %_ZNSt3__16vectorIiNS_9allocatorIiEEED2B7v170000Ev.exit545, %if.then.i.i548
  %140 = load ptr, ptr %map_xcell2face_left2, align 8, !tbaa !51
  %cmp.not.i.i550 = icmp eq ptr %140, null
  br i1 %cmp.not.i.i550, label %_ZNSt3__16vectorIiNS_9allocatorIiEEED2B7v170000Ev.exit553, label %if.then.i.i552

if.then.i.i552:                                   ; preds = %_ZNSt3__16vectorIiNS_9allocatorIiEEED2B7v170000Ev.exit549
  %__end_.i.i.i.i551 = getelementptr inbounds %class.Mesh, ptr %this, i64 0, i32 89, i32 1
  store ptr %140, ptr %__end_.i.i.i.i551, align 8, !tbaa !50
  tail call void @_ZdlPv(ptr noundef nonnull %140) #34
  br label %_ZNSt3__16vectorIiNS_9allocatorIiEEED2B7v170000Ev.exit553

_ZNSt3__16vectorIiNS_9allocatorIiEEED2B7v170000Ev.exit553: ; preds = %_ZNSt3__16vectorIiNS_9allocatorIiEEED2B7v170000Ev.exit549, %if.then.i.i552
  %141 = load ptr, ptr %map_xcell2face_left1, align 8, !tbaa !51
  %cmp.not.i.i554 = icmp eq ptr %141, null
  br i1 %cmp.not.i.i554, label %_ZNSt3__16vectorIiNS_9allocatorIiEEED2B7v170000Ev.exit557, label %if.then.i.i556

if.then.i.i556:                                   ; preds = %_ZNSt3__16vectorIiNS_9allocatorIiEEED2B7v170000Ev.exit553
  %__end_.i.i.i.i555 = getelementptr inbounds %class.Mesh, ptr %this, i64 0, i32 88, i32 1
  store ptr %141, ptr %__end_.i.i.i.i555, align 8, !tbaa !50
  tail call void @_ZdlPv(ptr noundef nonnull %141) #34
  br label %_ZNSt3__16vectorIiNS_9allocatorIiEEED2B7v170000Ev.exit557

_ZNSt3__16vectorIiNS_9allocatorIiEEED2B7v170000Ev.exit557: ; preds = %_ZNSt3__16vectorIiNS_9allocatorIiEEED2B7v170000Ev.exit553, %if.then.i.i556
  %142 = load ptr, ptr %map_xface2cell_upper, align 8, !tbaa !51
  %cmp.not.i.i558 = icmp eq ptr %142, null
  br i1 %cmp.not.i.i558, label %_ZNSt3__16vectorIiNS_9allocatorIiEEED2B7v170000Ev.exit561, label %if.then.i.i560

if.then.i.i560:                                   ; preds = %_ZNSt3__16vectorIiNS_9allocatorIiEEED2B7v170000Ev.exit557
  %__end_.i.i.i.i559 = getelementptr inbounds %class.Mesh, ptr %this, i64 0, i32 87, i32 1
  store ptr %142, ptr %__end_.i.i.i.i559, align 8, !tbaa !50
  tail call void @_ZdlPv(ptr noundef nonnull %142) #34
  br label %_ZNSt3__16vectorIiNS_9allocatorIiEEED2B7v170000Ev.exit561

_ZNSt3__16vectorIiNS_9allocatorIiEEED2B7v170000Ev.exit561: ; preds = %_ZNSt3__16vectorIiNS_9allocatorIiEEED2B7v170000Ev.exit557, %if.then.i.i560
  %143 = load ptr, ptr %map_xface2cell_lower, align 8, !tbaa !51
  %cmp.not.i.i562 = icmp eq ptr %143, null
  br i1 %cmp.not.i.i562, label %_ZNSt3__16vectorIiNS_9allocatorIiEEED2B7v170000Ev.exit565, label %if.then.i.i564

if.then.i.i564:                                   ; preds = %_ZNSt3__16vectorIiNS_9allocatorIiEEED2B7v170000Ev.exit561
  %__end_.i.i.i.i563 = getelementptr inbounds %class.Mesh, ptr %this, i64 0, i32 86, i32 1
  store ptr %143, ptr %__end_.i.i.i.i563, align 8, !tbaa !50
  tail call void @_ZdlPv(ptr noundef nonnull %143) #34
  br label %_ZNSt3__16vectorIiNS_9allocatorIiEEED2B7v170000Ev.exit565

_ZNSt3__16vectorIiNS_9allocatorIiEEED2B7v170000Ev.exit565: ; preds = %_ZNSt3__16vectorIiNS_9allocatorIiEEED2B7v170000Ev.exit561, %if.then.i.i564
  %144 = load ptr, ptr %xface_level, align 8, !tbaa !51
  %cmp.not.i.i566 = icmp eq ptr %144, null
  br i1 %cmp.not.i.i566, label %_ZNSt3__16vectorIiNS_9allocatorIiEEED2B7v170000Ev.exit569, label %if.then.i.i568

if.then.i.i568:                                   ; preds = %_ZNSt3__16vectorIiNS_9allocatorIiEEED2B7v170000Ev.exit565
  %__end_.i.i.i.i567 = getelementptr inbounds %class.Mesh, ptr %this, i64 0, i32 85, i32 1
  store ptr %144, ptr %__end_.i.i.i.i567, align 8, !tbaa !50
  tail call void @_ZdlPv(ptr noundef nonnull %144) #34
  br label %_ZNSt3__16vectorIiNS_9allocatorIiEEED2B7v170000Ev.exit569

_ZNSt3__16vectorIiNS_9allocatorIiEEED2B7v170000Ev.exit569: ; preds = %_ZNSt3__16vectorIiNS_9allocatorIiEEED2B7v170000Ev.exit565, %if.then.i.i568
  %145 = load ptr, ptr %xface_j, align 8, !tbaa !51
  %cmp.not.i.i570 = icmp eq ptr %145, null
  br i1 %cmp.not.i.i570, label %_ZNSt3__16vectorIiNS_9allocatorIiEEED2B7v170000Ev.exit573, label %if.then.i.i572

if.then.i.i572:                                   ; preds = %_ZNSt3__16vectorIiNS_9allocatorIiEEED2B7v170000Ev.exit569
  %__end_.i.i.i.i571 = getelementptr inbounds %class.Mesh, ptr %this, i64 0, i32 84, i32 1
  store ptr %145, ptr %__end_.i.i.i.i571, align 8, !tbaa !50
  tail call void @_ZdlPv(ptr noundef nonnull %145) #34
  br label %_ZNSt3__16vectorIiNS_9allocatorIiEEED2B7v170000Ev.exit573

_ZNSt3__16vectorIiNS_9allocatorIiEEED2B7v170000Ev.exit573: ; preds = %_ZNSt3__16vectorIiNS_9allocatorIiEEED2B7v170000Ev.exit569, %if.then.i.i572
  %146 = load ptr, ptr %xface_i, align 8, !tbaa !51
  %cmp.not.i.i574 = icmp eq ptr %146, null
  br i1 %cmp.not.i.i574, label %_ZNSt3__16vectorIiNS_9allocatorIiEEED2B7v170000Ev.exit577, label %if.then.i.i576

if.then.i.i576:                                   ; preds = %_ZNSt3__16vectorIiNS_9allocatorIiEEED2B7v170000Ev.exit573
  %__end_.i.i.i.i575 = getelementptr inbounds %class.Mesh, ptr %this, i64 0, i32 83, i32 1
  store ptr %146, ptr %__end_.i.i.i.i575, align 8, !tbaa !50
  tail call void @_ZdlPv(ptr noundef nonnull %146) #34
  br label %_ZNSt3__16vectorIiNS_9allocatorIiEEED2B7v170000Ev.exit577

_ZNSt3__16vectorIiNS_9allocatorIiEEED2B7v170000Ev.exit577: ; preds = %_ZNSt3__16vectorIiNS_9allocatorIiEEED2B7v170000Ev.exit573, %if.then.i.i576
  %147 = load ptr, ptr %dz, align 8, !tbaa !40
  %cmp.not.i.i578 = icmp eq ptr %147, null
  br i1 %cmp.not.i.i578, label %_ZNSt3__16vectorIdNS_9allocatorIdEEED2B7v170000Ev.exit, label %if.then.i.i580

if.then.i.i580:                                   ; preds = %_ZNSt3__16vectorIiNS_9allocatorIiEEED2B7v170000Ev.exit577
  %__end_.i.i.i.i579 = getelementptr inbounds %class.Mesh, ptr %this, i64 0, i32 80, i32 1
  store ptr %147, ptr %__end_.i.i.i.i579, align 8, !tbaa !56
  tail call void @_ZdlPv(ptr noundef nonnull %147) #34
  br label %_ZNSt3__16vectorIdNS_9allocatorIdEEED2B7v170000Ev.exit

_ZNSt3__16vectorIdNS_9allocatorIdEEED2B7v170000Ev.exit: ; preds = %_ZNSt3__16vectorIiNS_9allocatorIiEEED2B7v170000Ev.exit577, %if.then.i.i580
  %148 = load ptr, ptr %z, align 8, !tbaa !40
  %cmp.not.i.i581 = icmp eq ptr %148, null
  br i1 %cmp.not.i.i581, label %_ZNSt3__16vectorIdNS_9allocatorIdEEED2B7v170000Ev.exit584, label %if.then.i.i583

if.then.i.i583:                                   ; preds = %_ZNSt3__16vectorIdNS_9allocatorIdEEED2B7v170000Ev.exit
  %__end_.i.i.i.i582 = getelementptr inbounds %class.Mesh, ptr %this, i64 0, i32 79, i32 1
  store ptr %148, ptr %__end_.i.i.i.i582, align 8, !tbaa !56
  tail call void @_ZdlPv(ptr noundef nonnull %148) #34
  br label %_ZNSt3__16vectorIdNS_9allocatorIdEEED2B7v170000Ev.exit584

_ZNSt3__16vectorIdNS_9allocatorIdEEED2B7v170000Ev.exit584: ; preds = %_ZNSt3__16vectorIdNS_9allocatorIdEEED2B7v170000Ev.exit, %if.then.i.i583
  %149 = load ptr, ptr %dy, align 8, !tbaa !40
  %cmp.not.i.i585 = icmp eq ptr %149, null
  br i1 %cmp.not.i.i585, label %_ZNSt3__16vectorIdNS_9allocatorIdEEED2B7v170000Ev.exit588, label %if.then.i.i587

if.then.i.i587:                                   ; preds = %_ZNSt3__16vectorIdNS_9allocatorIdEEED2B7v170000Ev.exit584
  %__end_.i.i.i.i586 = getelementptr inbounds %class.Mesh, ptr %this, i64 0, i32 78, i32 1
  store ptr %149, ptr %__end_.i.i.i.i586, align 8, !tbaa !56
  tail call void @_ZdlPv(ptr noundef nonnull %149) #34
  br label %_ZNSt3__16vectorIdNS_9allocatorIdEEED2B7v170000Ev.exit588

_ZNSt3__16vectorIdNS_9allocatorIdEEED2B7v170000Ev.exit588: ; preds = %_ZNSt3__16vectorIdNS_9allocatorIdEEED2B7v170000Ev.exit584, %if.then.i.i587
  %150 = load ptr, ptr %y, align 8, !tbaa !40
  %cmp.not.i.i589 = icmp eq ptr %150, null
  br i1 %cmp.not.i.i589, label %_ZNSt3__16vectorIdNS_9allocatorIdEEED2B7v170000Ev.exit592, label %if.then.i.i591

if.then.i.i591:                                   ; preds = %_ZNSt3__16vectorIdNS_9allocatorIdEEED2B7v170000Ev.exit588
  %__end_.i.i.i.i590 = getelementptr inbounds %class.Mesh, ptr %this, i64 0, i32 77, i32 1
  store ptr %150, ptr %__end_.i.i.i.i590, align 8, !tbaa !56
  tail call void @_ZdlPv(ptr noundef nonnull %150) #34
  br label %_ZNSt3__16vectorIdNS_9allocatorIdEEED2B7v170000Ev.exit592

_ZNSt3__16vectorIdNS_9allocatorIdEEED2B7v170000Ev.exit592: ; preds = %_ZNSt3__16vectorIdNS_9allocatorIdEEED2B7v170000Ev.exit588, %if.then.i.i591
  %151 = load ptr, ptr %dx, align 8, !tbaa !40
  %cmp.not.i.i593 = icmp eq ptr %151, null
  br i1 %cmp.not.i.i593, label %_ZNSt3__16vectorIdNS_9allocatorIdEEED2B7v170000Ev.exit596, label %if.then.i.i595

if.then.i.i595:                                   ; preds = %_ZNSt3__16vectorIdNS_9allocatorIdEEED2B7v170000Ev.exit592
  %__end_.i.i.i.i594 = getelementptr inbounds %class.Mesh, ptr %this, i64 0, i32 76, i32 1
  store ptr %151, ptr %__end_.i.i.i.i594, align 8, !tbaa !56
  tail call void @_ZdlPv(ptr noundef nonnull %151) #34
  br label %_ZNSt3__16vectorIdNS_9allocatorIdEEED2B7v170000Ev.exit596

_ZNSt3__16vectorIdNS_9allocatorIdEEED2B7v170000Ev.exit596: ; preds = %_ZNSt3__16vectorIdNS_9allocatorIdEEED2B7v170000Ev.exit592, %if.then.i.i595
  %152 = load ptr, ptr %x, align 8, !tbaa !40
  %cmp.not.i.i597 = icmp eq ptr %152, null
  br i1 %cmp.not.i.i597, label %_ZNSt3__16vectorIdNS_9allocatorIdEEED2B7v170000Ev.exit600, label %if.then.i.i599

if.then.i.i599:                                   ; preds = %_ZNSt3__16vectorIdNS_9allocatorIdEEED2B7v170000Ev.exit596
  %__end_.i.i.i.i598 = getelementptr inbounds %class.Mesh, ptr %this, i64 0, i32 75, i32 1
  store ptr %152, ptr %__end_.i.i.i.i598, align 8, !tbaa !56
  tail call void @_ZdlPv(ptr noundef nonnull %152) #34
  br label %_ZNSt3__16vectorIdNS_9allocatorIdEEED2B7v170000Ev.exit600

_ZNSt3__16vectorIdNS_9allocatorIdEEED2B7v170000Ev.exit600: ; preds = %_ZNSt3__16vectorIdNS_9allocatorIdEEED2B7v170000Ev.exit596, %if.then.i.i599
  %153 = load ptr, ptr %index, align 8, !tbaa !51
  %cmp.not.i.i601 = icmp eq ptr %153, null
  br i1 %cmp.not.i.i601, label %_ZNSt3__16vectorIiNS_9allocatorIiEEED2B7v170000Ev.exit604, label %if.then.i.i603

if.then.i.i603:                                   ; preds = %_ZNSt3__16vectorIdNS_9allocatorIdEEED2B7v170000Ev.exit600
  %__end_.i.i.i.i602 = getelementptr inbounds %class.Mesh, ptr %this, i64 0, i32 63, i32 1
  store ptr %153, ptr %__end_.i.i.i.i602, align 8, !tbaa !50
  tail call void @_ZdlPv(ptr noundef nonnull %153) #34
  br label %_ZNSt3__16vectorIiNS_9allocatorIiEEED2B7v170000Ev.exit604

_ZNSt3__16vectorIiNS_9allocatorIiEEED2B7v170000Ev.exit604: ; preds = %_ZNSt3__16vectorIdNS_9allocatorIdEEED2B7v170000Ev.exit600, %if.then.i.i603
  %154 = load ptr, ptr %lev_deltaz, align 8, !tbaa !40
  %cmp.not.i.i605 = icmp eq ptr %154, null
  br i1 %cmp.not.i.i605, label %_ZNSt3__16vectorIdNS_9allocatorIdEEED2B7v170000Ev.exit608, label %if.then.i.i607

if.then.i.i607:                                   ; preds = %_ZNSt3__16vectorIiNS_9allocatorIiEEED2B7v170000Ev.exit604
  %__end_.i.i.i.i606 = getelementptr inbounds %class.Mesh, ptr %this, i64 0, i32 35, i32 1
  store ptr %154, ptr %__end_.i.i.i.i606, align 8, !tbaa !56
  tail call void @_ZdlPv(ptr noundef nonnull %154) #34
  br label %_ZNSt3__16vectorIdNS_9allocatorIdEEED2B7v170000Ev.exit608

_ZNSt3__16vectorIdNS_9allocatorIdEEED2B7v170000Ev.exit608: ; preds = %_ZNSt3__16vectorIiNS_9allocatorIiEEED2B7v170000Ev.exit604, %if.then.i.i607
  %155 = load ptr, ptr %lev_deltay, align 8, !tbaa !40
  %cmp.not.i.i609 = icmp eq ptr %155, null
  br i1 %cmp.not.i.i609, label %_ZNSt3__16vectorIdNS_9allocatorIdEEED2B7v170000Ev.exit612, label %if.then.i.i611

if.then.i.i611:                                   ; preds = %_ZNSt3__16vectorIdNS_9allocatorIdEEED2B7v170000Ev.exit608
  %__end_.i.i.i.i610 = getelementptr inbounds %class.Mesh, ptr %this, i64 0, i32 34, i32 1
  store ptr %155, ptr %__end_.i.i.i.i610, align 8, !tbaa !56
  tail call void @_ZdlPv(ptr noundef nonnull %155) #34
  br label %_ZNSt3__16vectorIdNS_9allocatorIdEEED2B7v170000Ev.exit612

_ZNSt3__16vectorIdNS_9allocatorIdEEED2B7v170000Ev.exit612: ; preds = %_ZNSt3__16vectorIdNS_9allocatorIdEEED2B7v170000Ev.exit608, %if.then.i.i611
  %156 = load ptr, ptr %lev_deltax, align 8, !tbaa !40
  %cmp.not.i.i613 = icmp eq ptr %156, null
  br i1 %cmp.not.i.i613, label %_ZNSt3__16vectorIdNS_9allocatorIdEEED2B7v170000Ev.exit616, label %if.then.i.i615

if.then.i.i615:                                   ; preds = %_ZNSt3__16vectorIdNS_9allocatorIdEEED2B7v170000Ev.exit612
  %__end_.i.i.i.i614 = getelementptr inbounds %class.Mesh, ptr %this, i64 0, i32 33, i32 1
  store ptr %156, ptr %__end_.i.i.i.i614, align 8, !tbaa !56
  tail call void @_ZdlPv(ptr noundef nonnull %156) #34
  br label %_ZNSt3__16vectorIdNS_9allocatorIdEEED2B7v170000Ev.exit616

_ZNSt3__16vectorIdNS_9allocatorIdEEED2B7v170000Ev.exit616: ; preds = %_ZNSt3__16vectorIdNS_9allocatorIdEEED2B7v170000Ev.exit612, %if.then.i.i615
  %157 = load ptr, ptr %levtable, align 8, !tbaa !51
  %cmp.not.i.i617 = icmp eq ptr %157, null
  br i1 %cmp.not.i.i617, label %_ZNSt3__16vectorIiNS_9allocatorIiEEED2B7v170000Ev.exit620, label %if.then.i.i619

if.then.i.i619:                                   ; preds = %_ZNSt3__16vectorIdNS_9allocatorIdEEED2B7v170000Ev.exit616
  store ptr %157, ptr %__end_.i.i, align 8, !tbaa !50
  tail call void @_ZdlPv(ptr noundef nonnull %157) #34
  br label %_ZNSt3__16vectorIiNS_9allocatorIiEEED2B7v170000Ev.exit620

_ZNSt3__16vectorIiNS_9allocatorIiEEED2B7v170000Ev.exit620: ; preds = %_ZNSt3__16vectorIdNS_9allocatorIdEEED2B7v170000Ev.exit616, %if.then.i.i619
  %158 = load ptr, ptr %lev_kend, align 8, !tbaa !51
  %cmp.not.i.i621 = icmp eq ptr %158, null
  br i1 %cmp.not.i.i621, label %_ZNSt3__16vectorIiNS_9allocatorIiEEED2B7v170000Ev.exit624, label %if.then.i.i623

if.then.i.i623:                                   ; preds = %_ZNSt3__16vectorIiNS_9allocatorIiEEED2B7v170000Ev.exit620
  %__end_.i.i.i.i622 = getelementptr inbounds %class.Mesh, ptr %this, i64 0, i32 31, i32 1
  store ptr %158, ptr %__end_.i.i.i.i622, align 8, !tbaa !50
  tail call void @_ZdlPv(ptr noundef nonnull %158) #34
  br label %_ZNSt3__16vectorIiNS_9allocatorIiEEED2B7v170000Ev.exit624

_ZNSt3__16vectorIiNS_9allocatorIiEEED2B7v170000Ev.exit624: ; preds = %_ZNSt3__16vectorIiNS_9allocatorIiEEED2B7v170000Ev.exit620, %if.then.i.i623
  %159 = load ptr, ptr %lev_kbegin, align 8, !tbaa !51
  %cmp.not.i.i625 = icmp eq ptr %159, null
  br i1 %cmp.not.i.i625, label %_ZNSt3__16vectorIiNS_9allocatorIiEEED2B7v170000Ev.exit628, label %if.then.i.i627

if.then.i.i627:                                   ; preds = %_ZNSt3__16vectorIiNS_9allocatorIiEEED2B7v170000Ev.exit624
  %__end_.i.i.i.i626 = getelementptr inbounds %class.Mesh, ptr %this, i64 0, i32 30, i32 1
  store ptr %159, ptr %__end_.i.i.i.i626, align 8, !tbaa !50
  tail call void @_ZdlPv(ptr noundef nonnull %159) #34
  br label %_ZNSt3__16vectorIiNS_9allocatorIiEEED2B7v170000Ev.exit628

_ZNSt3__16vectorIiNS_9allocatorIiEEED2B7v170000Ev.exit628: ; preds = %_ZNSt3__16vectorIiNS_9allocatorIiEEED2B7v170000Ev.exit624, %if.then.i.i627
  %160 = load ptr, ptr %lev_jend, align 8, !tbaa !51
  %cmp.not.i.i629 = icmp eq ptr %160, null
  br i1 %cmp.not.i.i629, label %_ZNSt3__16vectorIiNS_9allocatorIiEEED2B7v170000Ev.exit632, label %if.then.i.i631

if.then.i.i631:                                   ; preds = %_ZNSt3__16vectorIiNS_9allocatorIiEEED2B7v170000Ev.exit628
