; ModuleID = '/local/mnt2/workspace2/mnadeem/llvm/llvm-test-suite/MicroBenchmarks/libs/benchmark/googletest/googlemock/src/gmock-all.cc'
source_filename = "/local/mnt2/workspace2/mnadeem/llvm/llvm-test-suite/MicroBenchmarks/libs/benchmark/googletest/googlemock/src/gmock-all.cc"
target datalayout = "e-m:e-p270:32:32-p271:32:32-p272:64:64-i64:64-f80:128-n8:16:32:64-S128"
target triple = "x86_64-unknown-linux-gnu"

%"class.std::__1::basic_string" = type { %"class.std::__1::__compressed_pair" }
%"class.std::__1::__compressed_pair" = type { %"struct.std::__1::__compressed_pair_elem" }
%"struct.std::__1::__compressed_pair_elem" = type { %"struct.std::__1::basic_string<char>::__rep" }
%"struct.std::__1::basic_string<char>::__rep" = type { %union.anon }
%union.anon = type { %"struct.std::__1::basic_string<char>::__long" }
%"struct.std::__1::basic_string<char>::__long" = type { %struct.anon, i64, ptr }
%struct.anon = type { i64 }
%"class.testing::internal::MutexBase" = type { %union.pthread_mutex_t, i8, i64 }
%union.pthread_mutex_t = type { %"struct.(anonymous union)::__pthread_mutex_s" }
%"struct.(anonymous union)::__pthread_mutex_s" = type { i32, i32, i32, i32, i32, i16, i16, %struct.__pthread_internal_list }
%struct.__pthread_internal_list = type { ptr, ptr }
%"class.std::__1::basic_ostream" = type { ptr, %"class.std::__1::basic_ios.base" }
%"class.std::__1::basic_ios.base" = type <{ %"class.std::__1::ios_base", ptr, i32 }>
%"class.std::__1::ios_base" = type { ptr, i32, i64, i64, i32, i32, ptr, ptr, ptr, ptr, i64, i64, ptr, i64, i64, ptr, i64, i64 }
%"struct.std::__1::array" = type { [256 x i8] }
%"class.testing::internal::ThreadLocal" = type { i32, %"class.std::__1::unique_ptr.73" }
%"class.std::__1::unique_ptr.73" = type { %"class.std::__1::__compressed_pair.74" }
%"class.std::__1::__compressed_pair.74" = type { %"struct.std::__1::__compressed_pair_elem.75" }
%"struct.std::__1::__compressed_pair_elem.75" = type { ptr }
%"class.testing::(anonymous namespace)::MockObjectRegistry" = type { %"class.std::__1::map" }
%"class.std::__1::map" = type { %"class.std::__1::__tree.90" }
%"class.std::__1::__tree.90" = type { ptr, %"class.std::__1::__compressed_pair.91", %"class.std::__1::__compressed_pair.96" }
%"class.std::__1::__compressed_pair.91" = type { %"struct.std::__1::__compressed_pair_elem.43" }
%"struct.std::__1::__compressed_pair_elem.43" = type { %"class.std::__1::__tree_end_node" }
%"class.std::__1::__tree_end_node" = type { ptr }
%"class.std::__1::__compressed_pair.96" = type { %"struct.std::__1::__compressed_pair_elem.49" }
%"struct.std::__1::__compressed_pair_elem.49" = type { i64 }
%"class.std::__1::map.98" = type { %"class.std::__1::__tree.99" }
%"class.std::__1::__tree.99" = type { ptr, %"class.std::__1::__compressed_pair.100", %"class.std::__1::__compressed_pair.105" }
%"class.std::__1::__compressed_pair.100" = type { %"struct.std::__1::__compressed_pair_elem.43" }
%"class.std::__1::__compressed_pair.105" = type { %"struct.std::__1::__compressed_pair_elem.49" }
%"class.std::__1::locale::id" = type <{ %"struct.std::__1::once_flag", i32, [4 x i8] }>
%"struct.std::__1::once_flag" = type { i64 }
%"struct.std::__1::basic_string<char>::__short" = type { %struct.anon.0, [0 x i8], [23 x i8] }
%struct.anon.0 = type { i8 }
%"class.std::__1::basic_stringstream" = type { %"class.std::__1::basic_iostream.base", %"class.std::__1::basic_stringbuf", %"class.std::__1::basic_ios.base" }
%"class.std::__1::basic_iostream.base" = type { %"class.std::__1::basic_istream.base", %"class.std::__1::basic_ostream.base" }
%"class.std::__1::basic_istream.base" = type { ptr, i64 }
%"class.std::__1::basic_ostream.base" = type { ptr }
%"class.std::__1::basic_stringbuf" = type <{ %"class.std::__1::basic_streambuf", %"class.std::__1::basic_string", ptr, i32, [4 x i8] }>
%"class.std::__1::basic_streambuf" = type { ptr, %"class.std::__1::locale", ptr, ptr, ptr, ptr, ptr, ptr }
%"class.std::__1::locale" = type { ptr }
%"class.std::__1::basic_istream" = type { ptr, i64, %"class.std::__1::basic_ios.base" }
%"class.testing::Cardinality" = type { %"class.std::__1::shared_ptr" }
%"class.std::__1::shared_ptr" = type { ptr, ptr }
%"class.testing::(anonymous namespace)::BetweenCardinalityImpl" = type { %"class.testing::CardinalityInterface", i32, i32 }
%"class.testing::CardinalityInterface" = type { ptr }
%"class.std::__1::__shared_count" = type { ptr, i64 }
%"class.std::__1::__shared_ptr_pointer" = type { %"class.std::__1::__shared_weak_count", %"class.std::__1::__compressed_pair.149" }
%"class.std::__1::__shared_weak_count" = type { %"class.std::__1::__shared_count", i64 }
%"class.std::__1::__compressed_pair.149" = type { %"struct.std::__1::__compressed_pair_elem.150" }
%"struct.std::__1::__compressed_pair_elem.150" = type { %"class.std::__1::__compressed_pair.151" }
%"class.std::__1::__compressed_pair.151" = type { %"struct.std::__1::__compressed_pair_elem.145" }
%"struct.std::__1::__compressed_pair_elem.145" = type { ptr }
%"class.testing::internal::GTestLog" = type { i32 }
%class.anon = type { ptr, ptr }
%"class.std::__1::vector" = type { ptr, ptr, %"class.std::__1::__compressed_pair.2" }
%"class.std::__1::__compressed_pair.2" = type { %"struct.std::__1::__compressed_pair_elem.3" }
%"struct.std::__1::__compressed_pair_elem.3" = type { ptr }
%"class.std::__1::vector.8" = type { ptr, ptr, %"class.std::__1::__compressed_pair.9" }
%"class.std::__1::__compressed_pair.9" = type { %"struct.std::__1::__compressed_pair_elem.10" }
%"struct.std::__1::__compressed_pair_elem.10" = type { ptr }
%"class.std::__1::vector.18" = type { ptr, ptr, %"class.std::__1::__compressed_pair.19" }
%"class.std::__1::__compressed_pair.19" = type { %"struct.std::__1::__compressed_pair_elem.20" }
%"struct.std::__1::__compressed_pair_elem.20" = type { ptr }
%"class.testing::internal::MaxBipartiteMatchState" = type { ptr, %"class.std::__1::vector.25", %"class.std::__1::vector.25" }
%"class.std::__1::vector.25" = type { ptr, ptr, %"class.std::__1::__compressed_pair.26" }
%"class.std::__1::__compressed_pair.26" = type { %"struct.std::__1::__compressed_pair_elem.27" }
%"struct.std::__1::__compressed_pair_elem.27" = type { ptr }
%"class.testing::internal::MatchMatrix" = type { i64, i64, %"class.std::__1::vector.15" }
%"class.std::__1::vector.15" = type { ptr, ptr, %"class.std::__1::__compressed_pair.16" }
%"class.std::__1::__compressed_pair.16" = type { %"struct.std::__1::__compressed_pair_elem.17" }
%"struct.std::__1::__compressed_pair_elem.17" = type { ptr }
%"struct.std::__1::pair" = type { i64, i64 }
%"class.testing::Message" = type { %"class.std::__1::unique_ptr" }
%"class.std::__1::unique_ptr" = type { %"class.std::__1::__compressed_pair.39" }
%"class.std::__1::__compressed_pair.39" = type { %"struct.std::__1::__compressed_pair_elem.40" }
%"struct.std::__1::__compressed_pair_elem.40" = type { ptr }
%"class.testing::internal::UnorderedElementsAreMatcherImplBase" = type { i32, %"class.std::__1::vector.32" }
%"class.std::__1::vector.32" = type { ptr, ptr, %"class.std::__1::__compressed_pair.33" }
%"class.std::__1::__compressed_pair.33" = type { %"struct.std::__1::__compressed_pair_elem.34" }
%"struct.std::__1::__compressed_pair_elem.34" = type { ptr }
%"class.testing::MatchResultListener" = type { ptr, ptr }
%"class.std::__1::basic_ostringstream" = type { %"class.std::__1::basic_ostream.base", %"class.std::__1::basic_stringbuf", %"class.std::__1::basic_ios.base" }
%"class.testing::internal::ExpectationBase" = type { ptr, ptr, i32, %"class.std::__1::basic_string", i8, %"class.testing::Cardinality", %"class.testing::ExpectationSet", i32, i8, %"class.std::__1::vector.51", i8, i8, i8, i32, i8, %"class.testing::internal::Mutex" }
%"class.testing::ExpectationSet" = type { %"class.std::__1::set" }
%"class.std::__1::set" = type { %"class.std::__1::__tree" }
%"class.std::__1::__tree" = type { ptr, %"class.std::__1::__compressed_pair.42", %"class.std::__1::__compressed_pair.48" }
%"class.std::__1::__compressed_pair.42" = type { %"struct.std::__1::__compressed_pair_elem.43" }
%"class.std::__1::__compressed_pair.48" = type { %"struct.std::__1::__compressed_pair_elem.49" }
%"class.std::__1::vector.51" = type { ptr, ptr, %"class.std::__1::__compressed_pair.52" }
%"class.std::__1::__compressed_pair.52" = type { %"struct.std::__1::__compressed_pair_elem.53" }
%"struct.std::__1::__compressed_pair_elem.53" = type { ptr }
%"class.testing::internal::Mutex" = type { %"class.testing::internal::MutexBase" }
%"class.std::__1::vector.58" = type { ptr, ptr, %"class.std::__1::__compressed_pair.59" }
%"class.std::__1::__compressed_pair.59" = type { %"struct.std::__1::__compressed_pair_elem.60" }
%"struct.std::__1::__compressed_pair_elem.60" = type { ptr }
%"class.std::__1::__tree_node" = type { %"class.std::__1::__tree_node_base.base", %"class.testing::Expectation" }
%"class.std::__1::__tree_node_base.base" = type <{ %"class.std::__1::__tree_end_node", ptr, ptr, i8 }>
%"class.testing::Expectation" = type { %"class.std::__1::shared_ptr.65" }
%"class.std::__1::shared_ptr.65" = type { ptr, ptr }
%"class.std::__1::__tree_node_base" = type <{ %"class.std::__1::__tree_end_node", ptr, ptr, i8, [7 x i8] }>
%"class.std::__1::vector.66" = type { ptr, ptr, %"class.std::__1::__compressed_pair.67" }
%"class.std::__1::__compressed_pair.67" = type { %"struct.std::__1::__compressed_pair_elem.68" }
%"struct.std::__1::__compressed_pair_elem.68" = type { ptr }
%"class.testing::internal::UntypedFunctionMockerBase" = type { ptr, ptr, ptr, %"class.std::__1::vector.51", %"class.std::__1::vector.79" }
%"class.std::__1::vector.79" = type { ptr, ptr, %"class.std::__1::__compressed_pair.80" }
%"class.std::__1::__compressed_pair.80" = type { %"struct.std::__1::__compressed_pair_elem.81" }
%"struct.std::__1::__compressed_pair_elem.81" = type { ptr }
%"class.std::__1::__tree_node.182" = type { %"class.std::__1::__tree_node_base.base", %"struct.std::__1::__value_type" }
%"struct.std::__1::__value_type" = type { %"struct.std::__1::pair.141" }
%"struct.std::__1::pair.141" = type { ptr, %"struct.testing::(anonymous namespace)::MockObjectState" }
%"struct.testing::(anonymous namespace)::MockObjectState" = type { ptr, i32, %"class.std::__1::basic_string", %"class.std::__1::basic_string", i8, %"class.std::__1::set.108" }
%"class.std::__1::set.108" = type { %"class.std::__1::__tree.109" }
%"class.std::__1::__tree.109" = type { ptr, %"class.std::__1::__compressed_pair.110", %"class.std::__1::__compressed_pair.115" }
%"class.std::__1::__compressed_pair.110" = type { %"struct.std::__1::__compressed_pair_elem.43" }
%"class.std::__1::__compressed_pair.115" = type { %"struct.std::__1::__compressed_pair_elem.49" }
%"class.std::__1::__tree_node.183" = type { %"class.std::__1::__tree_node_base.base", ptr }
%class.anon.87 = type { ptr, ptr, ptr, ptr, ptr, ptr }
%"class.std::__1::__tree_node.226" = type { %"class.std::__1::__tree_node_base.base", [7 x i8], %"struct.std::__1::__value_type.227" }
%"struct.std::__1::__value_type.227" = type { %"struct.std::__1::pair.228" }
%"struct.std::__1::pair.228" = type <{ ptr, i32, [4 x i8] }>
%"class.testing::TestInfo" = type { %"class.std::__1::basic_string", %"class.std::__1::basic_string", %"class.std::__1::unique_ptr.121", %"class.std::__1::unique_ptr.121", %"struct.testing::internal::CodeLocation", ptr, i8, i8, i8, i8, ptr, %"class.testing::TestResult" }
%"class.std::__1::unique_ptr.121" = type { %"class.std::__1::__compressed_pair.122" }
%"class.std::__1::__compressed_pair.122" = type { %"struct.std::__1::__compressed_pair_elem.123" }
%"struct.std::__1::__compressed_pair_elem.123" = type { ptr }
%"struct.testing::internal::CodeLocation" = type <{ %"class.std::__1::basic_string", i32, [4 x i8] }>
%"class.testing::TestResult" = type { %"class.testing::internal::Mutex", %"class.std::__1::vector.127", %"class.std::__1::vector.134", i32, i64, i64 }
%"class.std::__1::vector.127" = type { ptr, ptr, %"class.std::__1::__compressed_pair.128" }
%"class.std::__1::__compressed_pair.128" = type { %"struct.std::__1::__compressed_pair_elem.129" }
%"struct.std::__1::__compressed_pair_elem.129" = type { ptr }
%"class.std::__1::vector.134" = type { ptr, ptr, %"class.std::__1::__compressed_pair.135" }
%"class.std::__1::__compressed_pair.135" = type { %"struct.std::__1::__compressed_pair_elem.136" }
%"struct.std::__1::__compressed_pair_elem.136" = type { ptr }
%"class.std::__1::__shared_ptr_pointer.190" = type { %"class.std::__1::__shared_weak_count", %"class.std::__1::__compressed_pair.191" }
%"class.std::__1::__compressed_pair.191" = type { %"struct.std::__1::__compressed_pair_elem.192" }
%"struct.std::__1::__compressed_pair_elem.192" = type { %"class.std::__1::__compressed_pair.193" }
%"class.std::__1::__compressed_pair.193" = type { %"struct.std::__1::__compressed_pair_elem.186" }
%"struct.std::__1::__compressed_pair_elem.186" = type { ptr }
%"class.std::__1::shared_ptr.142" = type { ptr, ptr }
%"class.std::type_info" = type { ptr, ptr }
%"class.testing::internal::AssertHelper" = type { ptr }
%"class.std::__1::basic_ostream<char>::sentry" = type { i8, ptr }
%"class.std::__1::basic_ios" = type <{ %"class.std::__1::ios_base", ptr, i32, [4 x i8] }>
%"class.testing::internal::ThreadLocal<testing::Sequence *>::ValueHolder" = type { %"class.testing::internal::ThreadLocalValueHolderBase", ptr }
%"class.testing::internal::ThreadLocalValueHolderBase" = type { ptr }

$_ZN7testing8internal22MaxBipartiteMatchStateC2ERKNS0_11MatchMatrixE = comdat any

$_ZN7testing8internal22MaxBipartiteMatchState7ComputeEv = comdat any

$_ZN7testing8internal22MaxBipartiteMatchStateD2Ev = comdat any

$_ZNSt3__118basic_stringstreamIcNS_11char_traitsIcEENS_9allocatorIcEEED1Ev = comdat any

$_ZN7testing8internal35UnorderedElementsAreMatcherImplBase8ElementsEm = comdat any

$_ZNSt3__119basic_ostringstreamIcNS_11char_traitsIcEENS_9allocatorIcEEED1Ev = comdat any

$_ZN7testing8internal5MutexC2Ev = comdat any

$_ZN7testing11CardinalityD2Ev = comdat any

$_ZN7testing8internal5MutexD2Ev = comdat any

$_ZNK7testing8internal9MutexBase10AssertHeldEv = comdat any

$_ZNK7testing8internal15ExpectationBase18DescribeLocationToEPNSt3__113basic_ostreamIcNS2_11char_traitsIcEEEE = comdat any

$_ZN7testing8internal11ThreadLocalIPNS_8SequenceEED2Ev = comdat any

$_ZNSt3__16vectorINS_10shared_ptrIN7testing8internal15ExpectationBaseEEENS_9allocatorIS5_EEED2B7v170000Ev = comdat any

$__clang_call_terminate = comdat any

$_ZN7testing8internal9MutexBase6UnlockEv = comdat any

$_ZN7testing8internal9MutexBase4LockEv = comdat any

$_ZNSt3__13mapIPKvN7testing8internal12CallReactionENS_4lessIS2_EENS_9allocatorINS_4pairIKS2_S5_EEEEED2B7v170000Ev = comdat any

$_ZN7testing8internal18InitGoogleMockImplIcEEvPiPPT_ = comdat any

$_ZN7testing8internal18InitGoogleMockImplIwEEvPiPPT_ = comdat any

$_ZN7testing20CardinalityInterfaceD2Ev = comdat any

$_ZNSt3__120__shared_ptr_pointerIPKN7testing20CardinalityInterfaceENS_10shared_ptrIS3_E27__shared_ptr_default_deleteIS3_S3_EENS_9allocatorIS3_EEED0Ev = comdat any

$_ZNSt3__120__shared_ptr_pointerIPKN7testing20CardinalityInterfaceENS_10shared_ptrIS3_E27__shared_ptr_default_deleteIS3_S3_EENS_9allocatorIS3_EEE16__on_zero_sharedEv = comdat any

$_ZNKSt3__120__shared_ptr_pointerIPKN7testing20CardinalityInterfaceENS_10shared_ptrIS3_E27__shared_ptr_default_deleteIS3_S3_EENS_9allocatorIS3_EEE13__get_deleterERKSt9type_info = comdat any

$_ZNSt3__120__shared_ptr_pointerIPKN7testing20CardinalityInterfaceENS_10shared_ptrIS3_E27__shared_ptr_default_deleteIS3_S3_EENS_9allocatorIS3_EEE21__on_zero_shared_weakEv = comdat any

$_ZN7testing8internal24FailureReporterInterfaceD2Ev = comdat any

$_ZN7testing8internal25GoogleTestFailureReporterD0Ev = comdat any

$_ZN7testing8internal25GoogleTestFailureReporter13ReportFailureENS0_24FailureReporterInterface11FailureTypeEPKciRKNSt3__112basic_stringIcNS6_11char_traitsIcEENS6_9allocatorIcEEEE = comdat any

$_ZN7testing8internal5posix5AbortEv = comdat any

$_ZNKSt3__16vectorImNS_9allocatorImEEE20__throw_length_errorB7v170000Ev = comdat any

$_ZNSt3__120__throw_length_errorB7v170000EPKc = comdat any

$_ZNSt12length_errorC2B7v170000EPKc = comdat any

$_ZSt28__throw_bad_array_new_lengthB7v170000v = comdat any

$_ZNSt3__16vectorIcNS_9allocatorIcEEE6assignEmRKc = comdat any

$_ZN7testing8internal22MaxBipartiteMatchState10TryAugmentEmPNSt3__16vectorIcNS2_9allocatorIcEEEE = comdat any

$_ZNKSt3__16vectorIcNS_9allocatorIcEEE20__throw_length_errorB7v170000Ev = comdat any

$_ZNKSt3__16vectorINS_4pairImmEENS_9allocatorIS2_EEE20__throw_length_errorB7v170000Ev = comdat any

$_ZThn16_NSt3__118basic_stringstreamIcNS_11char_traitsIcEENS_9allocatorIcEEED1Ev = comdat any

$_ZTv0_n24_NSt3__118basic_stringstreamIcNS_11char_traitsIcEENS_9allocatorIcEEED1Ev = comdat any

$_ZNSt3__118basic_stringstreamIcNS_11char_traitsIcEENS_9allocatorIcEEED0Ev = comdat any

$_ZThn16_NSt3__118basic_stringstreamIcNS_11char_traitsIcEENS_9allocatorIcEEED0Ev = comdat any

$_ZTv0_n24_NSt3__118basic_stringstreamIcNS_11char_traitsIcEENS_9allocatorIcEEED0Ev = comdat any

$_ZNSt3__115basic_stringbufIcNS_11char_traitsIcEENS_9allocatorIcEEED2Ev = comdat any

$_ZNSt3__115basic_stringbufIcNS_11char_traitsIcEENS_9allocatorIcEEED0Ev = comdat any

$_ZNSt3__115basic_stringbufIcNS_11char_traitsIcEENS_9allocatorIcEEE7seekoffExNS_8ios_base7seekdirEj = comdat any

$_ZNSt3__115basic_stringbufIcNS_11char_traitsIcEENS_9allocatorIcEEE7seekposENS_4fposI11__mbstate_tEEj = comdat any

$_ZNSt3__115basic_stringbufIcNS_11char_traitsIcEENS_9allocatorIcEEE9underflowEv = comdat any

$_ZNSt3__115basic_stringbufIcNS_11char_traitsIcEENS_9allocatorIcEEE9pbackfailEi = comdat any

$_ZNSt3__115basic_stringbufIcNS_11char_traitsIcEENS_9allocatorIcEEE8overflowEi = comdat any

$_ZN7testing7MessageC2ERKS0_ = comdat any

$_ZTv0_n24_NSt3__119basic_ostringstreamIcNS_11char_traitsIcEENS_9allocatorIcEEED1Ev = comdat any

$_ZNSt3__119basic_ostringstreamIcNS_11char_traitsIcEENS_9allocatorIcEEED0Ev = comdat any

$_ZTv0_n24_NSt3__119basic_ostringstreamIcNS_11char_traitsIcEENS_9allocatorIcEEED0Ev = comdat any

$_ZNSt3__16__treeIN7testing11ExpectationENS2_4LessENS_9allocatorIS2_EEE7destroyEPNS_11__tree_nodeIS2_PvEE = comdat any

$_ZNSt3__127__tree_balance_after_insertB7v170000IPNS_16__tree_node_baseIPvEEEEvT_S5_ = comdat any

$_ZNSt3__16__treeIPN7testing8internal25UntypedFunctionMockerBaseENS_4lessIS4_EENS_9allocatorIS4_EEE7destroyEPNS_11__tree_nodeIS4_PvEE = comdat any

$_ZNSt3__120__shared_ptr_pointerIPN7testing11ExpectationENS_10shared_ptrIS2_E27__shared_ptr_default_deleteIS2_S2_EENS_9allocatorIS2_EEED0Ev = comdat any

$_ZNSt3__120__shared_ptr_pointerIPN7testing11ExpectationENS_10shared_ptrIS2_E27__shared_ptr_default_deleteIS2_S2_EENS_9allocatorIS2_EEE16__on_zero_sharedEv = comdat any

$_ZNKSt3__120__shared_ptr_pointerIPN7testing11ExpectationENS_10shared_ptrIS2_E27__shared_ptr_default_deleteIS2_S2_EENS_9allocatorIS2_EEE13__get_deleterERKSt9type_info = comdat any

$_ZNSt3__120__shared_ptr_pointerIPN7testing11ExpectationENS_10shared_ptrIS2_E27__shared_ptr_default_deleteIS2_S2_EENS_9allocatorIS2_EEE21__on_zero_shared_weakEv = comdat any

$_ZNSt3__124__put_character_sequenceB7v170000IcNS_11char_traitsIcEEEERNS_13basic_ostreamIT_T0_EES7_PKS4_m = comdat any

$_ZNSt3__116__pad_and_outputB7v170000IcNS_11char_traitsIcEEEENS_19ostreambuf_iteratorIT_T0_EES6_PKS4_S8_S8_RNS_8ios_baseES4_ = comdat any

$_ZNKSt3__112basic_stringIcNS_11char_traitsIcEENS_9allocatorIcEEE20__throw_length_errorB7v170000Ev = comdat any

$_ZNKSt3__115basic_stringbufIcNS_11char_traitsIcEENS_9allocatorIcEEE3strEv = comdat any

$_ZNKSt3__16vectorIPN7testing8internal15ExpectationBaseENS_9allocatorIS4_EEE20__throw_length_errorB7v170000Ev = comdat any

$_ZNKSt3__16vectorIPKN7testing8internal15ExpectationBaseENS_9allocatorIS5_EEE20__throw_length_errorB7v170000Ev = comdat any

$_ZN7testing8internal11ThreadLocalIPNS_8SequenceEE9CreateKeyEv = comdat any

$DeleteThreadLocalValue = comdat any

$_ZN7testing8internal11ThreadLocalIPNS_8SequenceEE25DefaultValueHolderFactoryD0Ev = comdat any

$_ZNK7testing8internal11ThreadLocalIPNS_8SequenceEE25DefaultValueHolderFactory13MakeNewHolderEv = comdat any

$_ZN7testing8internal11ThreadLocalIPNS_8SequenceEE18ValueHolderFactoryD2Ev = comdat any

$_ZN7testing8internal26ThreadLocalValueHolderBaseD2Ev = comdat any

$_ZN7testing8internal11ThreadLocalIPNS_8SequenceEE11ValueHolderD0Ev = comdat any

$_ZNSt3__16__treeINS_12__value_typeIPKvN7testing8internal12CallReactionEEENS_19__map_value_compareIS3_S7_NS_4lessIS3_EELb1EEENS_9allocatorIS7_EEE7destroyEPNS_11__tree_nodeIS7_PvEE = comdat any

$_ZNSt3__113__tree_removeB7v170000IPNS_16__tree_node_baseIPvEEEEvT_S5_ = comdat any

$_ZNK7testing8internal11ThreadLocalIPNS_8SequenceEE16GetOrCreateValueEv = comdat any

$_ZN7testing8internal27CheckedDowncastToActualTypeINS0_11ThreadLocalIPNS_8SequenceEE11ValueHolderENS0_26ThreadLocalValueHolderBaseEEEPT_PT0_ = comdat any

$_ZTSN7testing20CardinalityInterfaceE = comdat any

$_ZTIN7testing20CardinalityInterfaceE = comdat any

$_ZTVNSt3__120__shared_ptr_pointerIPKN7testing20CardinalityInterfaceENS_10shared_ptrIS3_E27__shared_ptr_default_deleteIS3_S3_EENS_9allocatorIS3_EEEE = comdat any

$_ZTSNSt3__120__shared_ptr_pointerIPKN7testing20CardinalityInterfaceENS_10shared_ptrIS3_E27__shared_ptr_default_deleteIS3_S3_EENS_9allocatorIS3_EEEE = comdat any

$_ZTINSt3__120__shared_ptr_pointerIPKN7testing20CardinalityInterfaceENS_10shared_ptrIS3_E27__shared_ptr_default_deleteIS3_S3_EENS_9allocatorIS3_EEEE = comdat any

$_ZTSNSt3__110shared_ptrIKN7testing20CardinalityInterfaceEE27__shared_ptr_default_deleteIS3_S3_EE = comdat any

$_ZTVN7testing8internal25GoogleTestFailureReporterE = comdat any

$_ZTSN7testing8internal25GoogleTestFailureReporterE = comdat any

$_ZTSN7testing8internal24FailureReporterInterfaceE = comdat any

$_ZTIN7testing8internal24FailureReporterInterfaceE = comdat any

$_ZTIN7testing8internal25GoogleTestFailureReporterE = comdat any

$_ZTVNSt3__118basic_stringstreamIcNS_11char_traitsIcEENS_9allocatorIcEEEE = comdat any

$_ZTTNSt3__118basic_stringstreamIcNS_11char_traitsIcEENS_9allocatorIcEEEE = comdat any

$_ZTCNSt3__118basic_stringstreamIcNS_11char_traitsIcEENS_9allocatorIcEEEE0_NS_14basic_iostreamIcS2_EE = comdat any

$_ZTCNSt3__118basic_stringstreamIcNS_11char_traitsIcEENS_9allocatorIcEEEE0_NS_13basic_istreamIcS2_EE = comdat any

$_ZTCNSt3__118basic_stringstreamIcNS_11char_traitsIcEENS_9allocatorIcEEEE16_NS_13basic_ostreamIcS2_EE = comdat any

$_ZTSNSt3__118basic_stringstreamIcNS_11char_traitsIcEENS_9allocatorIcEEEE = comdat any

$_ZTINSt3__118basic_stringstreamIcNS_11char_traitsIcEENS_9allocatorIcEEEE = comdat any

$_ZTVNSt3__115basic_stringbufIcNS_11char_traitsIcEENS_9allocatorIcEEEE = comdat any

$_ZTSNSt3__115basic_stringbufIcNS_11char_traitsIcEENS_9allocatorIcEEEE = comdat any

$_ZTINSt3__115basic_stringbufIcNS_11char_traitsIcEENS_9allocatorIcEEEE = comdat any

$_ZTVNSt3__119basic_ostringstreamIcNS_11char_traitsIcEENS_9allocatorIcEEEE = comdat any

$_ZTTNSt3__119basic_ostringstreamIcNS_11char_traitsIcEENS_9allocatorIcEEEE = comdat any

$_ZTCNSt3__119basic_ostringstreamIcNS_11char_traitsIcEENS_9allocatorIcEEEE0_NS_13basic_ostreamIcS2_EE = comdat any

$_ZTSNSt3__119basic_ostringstreamIcNS_11char_traitsIcEENS_9allocatorIcEEEE = comdat any

$_ZTINSt3__119basic_ostringstreamIcNS_11char_traitsIcEENS_9allocatorIcEEEE = comdat any

$_ZTVNSt3__120__shared_ptr_pointerIPN7testing11ExpectationENS_10shared_ptrIS2_E27__shared_ptr_default_deleteIS2_S2_EENS_9allocatorIS2_EEEE = comdat any

$_ZTSNSt3__120__shared_ptr_pointerIPN7testing11ExpectationENS_10shared_ptrIS2_E27__shared_ptr_default_deleteIS2_S2_EENS_9allocatorIS2_EEEE = comdat any

$_ZTINSt3__120__shared_ptr_pointerIPN7testing11ExpectationENS_10shared_ptrIS2_E27__shared_ptr_default_deleteIS2_S2_EENS_9allocatorIS2_EEEE = comdat any

$_ZTSNSt3__110shared_ptrIN7testing11ExpectationEE27__shared_ptr_default_deleteIS2_S2_EE = comdat any

$_ZTVN7testing8internal11ThreadLocalIPNS_8SequenceEE25DefaultValueHolderFactoryE = comdat any

$_ZTSN7testing8internal11ThreadLocalIPNS_8SequenceEE25DefaultValueHolderFactoryE = comdat any

$_ZTSN7testing8internal11ThreadLocalIPNS_8SequenceEE18ValueHolderFactoryE = comdat any

$_ZTIN7testing8internal11ThreadLocalIPNS_8SequenceEE18ValueHolderFactoryE = comdat any

$_ZTIN7testing8internal11ThreadLocalIPNS_8SequenceEE25DefaultValueHolderFactoryE = comdat any

$_ZTVN7testing8internal11ThreadLocalIPNS_8SequenceEE11ValueHolderE = comdat any

$_ZTSN7testing8internal11ThreadLocalIPNS_8SequenceEE11ValueHolderE = comdat any

$_ZTSN7testing8internal26ThreadLocalValueHolderBaseE = comdat any

$_ZTIN7testing8internal26ThreadLocalValueHolderBaseE = comdat any

$_ZTIN7testing8internal11ThreadLocalIPNS_8SequenceEE11ValueHolderE = comdat any

@.str = private unnamed_addr constant [8 x i8] c"called \00", align 1
@.str.1 = private unnamed_addr constant [13 x i8] c"never called\00", align 1
@.str.2 = private unnamed_addr constant [133 x i8] c"/local/mnt2/workspace2/mnadeem/llvm/llvm-test-suite/MicroBenchmarks/libs/benchmark/googletest/googlemock/src/gmock-internal-utils.cc\00", align 1
@.str.3 = private unnamed_addr constant [49 x i8] c"Condition names.size() == values.size() failed. \00", align 1
@.str.4 = private unnamed_addr constant [1 x i8] zeroinitializer, align 1
@.str.5 = private unnamed_addr constant [2 x i8] c"(\00", align 1
@.str.6 = private unnamed_addr constant [3 x i8] c", \00", align 1
@.str.7 = private unnamed_addr constant [2 x i8] c")\00", align 1
@_ZZN7testing8internal18GetFailureReporterEvE16failure_reporter = internal global ptr null, align 8
@_ZGVZN7testing8internal18GetFailureReporterEvE16failure_reporter = internal global i64 0, align 8
@_ZN7testing19FLAGS_gmock_verboseE = dso_local global %"class.std::__1::basic_string" zeroinitializer, align 8
@_ZN7testing8internalL14kInfoVerbosityE = internal constant [5 x i8] c"info\00", align 1
@_ZN7testing8internalL15kErrorVerbosityE = internal constant [6 x i8] c"error\00", align 1
@_ZN7testing8internalL11g_log_mutexE = internal global %"class.testing::internal::MutexBase" zeroinitializer, align 8
@_ZNSt3__14coutE = external global %"class.std::__1::basic_ostream", align 8
@.str.8 = private unnamed_addr constant [16 x i8] c"\0AGMOCK WARNING:\00", align 1
@.str.9 = private unnamed_addr constant [2 x i8] c"\0A\00", align 1
@.str.10 = private unnamed_addr constant [14 x i8] c"Stack trace:\0A\00", align 1
@.str.11 = private unnamed_addr constant [263 x i8] c"You are using DoDefault() inside a composite action like DoAll() or WithArgs().  This is not supported for technical reasons.  Please instead spell out the default action, or assign the default action to an Action variable and use the variable in various places.\00", align 1
@_ZN7testing8internalL9kUnBase64E = internal unnamed_addr constant %"struct.std::__1::array" { [256 x i8] c"AAAAAAAAAAAAAAAAAAAAAAAAAAAAAAAAAAAAAAAAAAA>AAA?456789:;<=AAAAAAA\00\01\02\03\04\05\06\07\08\09\0A\0B\0C\0D\0E\0F\10\11\12\13\14\15\16\17\18\19AAAAAA\1A\1B\1C\1D\1E\1F !\22#$%&'()*+,-./0123AAAAAAAAAAAAAAAAAAAAAAAAAAAAAAAAAAAAAAAAAAAAAAAAAAAAAAAAAAAAAAAAAAAAAAAAAAAAAAAAAAAAAAAAAAAAAAAAAAAAAAAAAAAAAAAAAAAAAAAAAAAAAAAAAAAAA" }, align 1
@.str.12 = private unnamed_addr constant [2 x i8] c" \00", align 1
@.str.13 = private unnamed_addr constant [6 x i8] c"not (\00", align 1
@_ZN7testing8internal22MaxBipartiteMatchState7kUnusedE = hidden local_unnamed_addr constant i64 -1, align 8
@.str.14 = private unnamed_addr constant [2 x i8] c";\00", align 1
@.str.15 = private unnamed_addr constant [9 x i8] c"is empty\00", align 1
@.str.16 = private unnamed_addr constant [5 x i8] c"has \00", align 1
@.str.17 = private unnamed_addr constant [19 x i8] c" and that element \00", align 1
@.str.18 = private unnamed_addr constant [59 x i8] c" and there exists some permutation of elements such that:\0A\00", align 1
@.str.19 = private unnamed_addr constant [62 x i8] c"a surjection from elements to requirements exists such that:\0A\00", align 1
@.str.20 = private unnamed_addr constant [62 x i8] c"an injection from elements to requirements exists such that:\0A\00", align 1
@.str.21 = private unnamed_addr constant [13 x i8] c" - element #\00", align 1
@.str.22 = private unnamed_addr constant [15 x i8] c" - an element \00", align 1
@.str.23 = private unnamed_addr constant [7 x i8] c", and\0A\00", align 1
@.str.24 = private unnamed_addr constant [12 x i8] c"isn't empty\00", align 1
@.str.25 = private unnamed_addr constant [14 x i8] c"doesn't have \00", align 1
@.str.26 = private unnamed_addr constant [10 x i8] c", or has \00", align 1
@.str.27 = private unnamed_addr constant [7 x i8] c" that \00", align 1
@.str.28 = private unnamed_addr constant [57 x i8] c", or there exists no permutation of elements such that:\0A\00", align 1
@.str.29 = private unnamed_addr constant [63 x i8] c"no surjection from elements to requirements exists such that:\0A\00", align 1
@.str.30 = private unnamed_addr constant [62 x i8] c"no injection from elements to requirements exists such that:\0A\00", align 1
@.str.31 = private unnamed_addr constant [56 x i8] c"where the following matchers don't match any elements:\0A\00", align 1
@.str.32 = private unnamed_addr constant [10 x i8] c"matcher #\00", align 1
@.str.33 = private unnamed_addr constant [3 x i8] c": \00", align 1
@.str.34 = private unnamed_addr constant [3 x i8] c",\0A\00", align 1
@.str.35 = private unnamed_addr constant [56 x i8] c"where the following elements don't match any matchers:\0A\00", align 1
@.str.36 = private unnamed_addr constant [6 x i8] c"\0Aand \00", align 1
@.str.37 = private unnamed_addr constant [10 x i8] c"element #\00", align 1
@.str.38 = private unnamed_addr constant [89 x i8] c"where no permutation of the elements can satisfy all matchers, and the closest match is \00", align 1
@.str.39 = private unnamed_addr constant [5 x i8] c" of \00", align 1
@.str.40 = private unnamed_addr constant [30 x i8] c" matchers with the pairings:\0A\00", align 1
@.str.41 = private unnamed_addr constant [65 x i8] c"where not all elements can be matched, and the closest match is \00", align 1
@.str.42 = private unnamed_addr constant [8 x i8] c"where:\0A\00", align 1
@.str.43 = private unnamed_addr constant [25 x i8] c" is matched by matcher #\00", align 1
@_ZN7testing8internal13g_gmock_mutexE = dso_local global %"class.testing::internal::MutexBase" zeroinitializer, align 8
@_ZTVN7testing8internal15ExpectationBaseE = dso_local unnamed_addr constant { [6 x ptr] } { [6 x ptr] [ptr null, ptr @_ZTIN7testing8internal15ExpectationBaseE, ptr @_ZN7testing8internal15ExpectationBaseD2Ev, ptr @_ZN7testing8internal15ExpectationBaseD0Ev, ptr @__cxa_pure_virtual, ptr @__cxa_pure_virtual] }, align 8
@.str.44 = private unnamed_addr constant [26 x i8] c"         Expected: to be \00", align 1
@.str.45 = private unnamed_addr constant [21 x i8] c"\0A           Actual: \00", align 1
@.str.46 = private unnamed_addr constant [4 x i8] c" - \00", align 1
@.str.47 = private unnamed_addr constant [15 x i8] c"over-saturated\00", align 1
@.str.48 = private unnamed_addr constant [10 x i8] c"saturated\00", align 1
@.str.49 = private unnamed_addr constant [10 x i8] c"satisfied\00", align 1
@.str.50 = private unnamed_addr constant [12 x i8] c"unsatisfied\00", align 1
@.str.51 = private unnamed_addr constant [6 x i8] c" and \00", align 1
@.str.52 = private unnamed_addr constant [8 x i8] c"retired\00", align 1
@.str.53 = private unnamed_addr constant [7 x i8] c"active\00", align 1
@.str.54 = private unnamed_addr constant [5 x i8] c"Too \00", align 1
@.str.55 = private unnamed_addr constant [5 x i8] c"many\00", align 1
@.str.56 = private unnamed_addr constant [4 x i8] c"few\00", align 1
@.str.57 = private unnamed_addr constant [23 x i8] c" actions specified in \00", align 1
@.str.58 = private unnamed_addr constant [5 x i8] c"...\0A\00", align 1
@.str.59 = private unnamed_addr constant [16 x i8] c"Expected to be \00", align 1
@.str.60 = private unnamed_addr constant [11 x i8] c", but has \00", align 1
@.str.61 = private unnamed_addr constant [6 x i8] c"only \00", align 1
@.str.62 = private unnamed_addr constant [12 x i8] c" WillOnce()\00", align 1
@.str.63 = private unnamed_addr constant [2 x i8] c"s\00", align 1
@.str.64 = private unnamed_addr constant [24 x i8] c" and a WillRepeatedly()\00", align 1
@.str.65 = private unnamed_addr constant [2 x i8] c".\00", align 1
@.str.66 = private unnamed_addr constant [59 x i8] c".Times() cannot appear more than once in an EXPECT_CALL().\00", align 1
@.str.67 = private unnamed_addr constant [119 x i8] c".Times() may only appear *before* .InSequence(), .WillOnce(), .WillRepeatedly(), or .RetiresOnSaturation(), not after.\00", align 1
@_ZN7testing8internal25g_gmock_implicit_sequenceE = dso_local global %"class.testing::internal::ThreadLocal" zeroinitializer, align 8
@__dso_handle = external hidden global i8
@.str.68 = private unnamed_addr constant [292 x i8] c"\0ANOTE: You can safely ignore the above warning unless this call should not happen.  Do not suppress it by blindly adding an EXPECT_CALL() if you don't mean to enforce the call.  See https://github.com/google/googletest/blob/master/docs/gmock_cook_book.md#knowing-when-to-expect for details.\0A\00", align 1
@_ZTVN7testing8internal25UntypedFunctionMockerBaseE = dso_local unnamed_addr constant { [10 x ptr] } { [10 x ptr] [ptr null, ptr @_ZTIN7testing8internal25UntypedFunctionMockerBaseE, ptr @_ZN7testing8internal25UntypedFunctionMockerBaseD2Ev, ptr @_ZN7testing8internal25UntypedFunctionMockerBaseD0Ev, ptr @__cxa_pure_virtual, ptr @__cxa_pure_virtual, ptr @__cxa_pure_virtual, ptr @__cxa_pure_virtual, ptr @__cxa_pure_virtual, ptr @__cxa_pure_virtual] }, align 8
@.str.69 = private unnamed_addr constant [132 x i8] c"/local/mnt2/workspace2/mnadeem/llvm/llvm-test-suite/MicroBenchmarks/libs/benchmark/googletest/googlemock/src/gmock-spec-builders.cc\00", align 1
@.str.70 = private unnamed_addr constant [93 x i8] c"MockObject() must not be called before RegisterOwner() or SetOwnerAndName() has been called.\00", align 1
@.str.71 = private unnamed_addr constant [68 x i8] c"Name() must not be called before SetOwnerAndName() has been called.\00", align 1
@.str.72 = private unnamed_addr constant [16 x i8] c"Function call: \00", align 1
@.str.73 = private unnamed_addr constant [20 x i8] c"    Function call: \00", align 1
@.str.74 = private unnamed_addr constant [25 x i8] c"Cannot find expectation.\00", align 1
@.str.75 = private unnamed_addr constant [42 x i8] c"Actual function call count doesn't match \00", align 1
@_ZN7testing12_GLOBAL__N_122g_mock_object_registryE = internal global %"class.testing::(anonymous namespace)::MockObjectRegistry" zeroinitializer, align 8
@_ZN7testing12_GLOBAL__N_129g_uninteresting_call_reactionE = internal global %"class.std::__1::map.98" zeroinitializer, align 8
@_ZN7testing33FLAGS_gmock_default_mock_behaviorE = dso_local local_unnamed_addr global i32 1, align 4
@_ZN7testing30FLAGS_gmock_catch_leaked_mocksE = dso_local local_unnamed_addr global i8 1, align 1
@_ZN7testing8internalL17kWarningVerbosityE = internal constant [8 x i8] c"warning\00", align 1
@.str.79 = private unnamed_addr constant [6 x i8] c"dummy\00", align 1
@_ZTVN10__cxxabiv117__class_type_infoE = external global ptr
@_ZTSN7testing8internal15ExpectationBaseE = dso_local constant [37 x i8] c"N7testing8internal15ExpectationBaseE\00", align 1
@_ZTIN7testing8internal15ExpectationBaseE = dso_local constant { ptr, ptr } { ptr getelementptr inbounds (ptr, ptr @_ZTVN10__cxxabiv117__class_type_infoE, i64 2), ptr @_ZTSN7testing8internal15ExpectationBaseE }, align 8
@_ZTSN7testing8internal25UntypedFunctionMockerBaseE = dso_local constant [47 x i8] c"N7testing8internal25UntypedFunctionMockerBaseE\00", align 1
@_ZTIN7testing8internal25UntypedFunctionMockerBaseE = dso_local constant { ptr, ptr } { ptr getelementptr inbounds (ptr, ptr @_ZTVN10__cxxabiv117__class_type_infoE, i64 2), ptr @_ZTSN7testing8internal25UntypedFunctionMockerBaseE }, align 8
@.str.80 = private unnamed_addr constant [5 x i8] c"once\00", align 1
@.str.81 = private unnamed_addr constant [6 x i8] c"twice\00", align 1
@.str.82 = private unnamed_addr constant [7 x i8] c" times\00", align 1
@_ZTVN7testing12_GLOBAL__N_122BetweenCardinalityImplE = internal unnamed_addr constant { [9 x ptr] } { [9 x ptr] [ptr null, ptr @_ZTIN7testing12_GLOBAL__N_122BetweenCardinalityImplE, ptr @_ZN7testing20CardinalityInterfaceD2Ev, ptr @_ZN7testing12_GLOBAL__N_122BetweenCardinalityImplD0Ev, ptr @_ZNK7testing12_GLOBAL__N_122BetweenCardinalityImpl22ConservativeLowerBoundEv, ptr @_ZNK7testing12_GLOBAL__N_122BetweenCardinalityImpl22ConservativeUpperBoundEv, ptr @_ZNK7testing12_GLOBAL__N_122BetweenCardinalityImpl22IsSatisfiedByCallCountEi, ptr @_ZNK7testing12_GLOBAL__N_122BetweenCardinalityImpl22IsSaturatedByCallCountEi, ptr @_ZNK7testing12_GLOBAL__N_122BetweenCardinalityImpl10DescribeToEPNSt3__113basic_ostreamIcNS2_11char_traitsIcEEEE] }, align 8
@.str.83 = private unnamed_addr constant [42 x i8] c"The invocation lower bound must be >= 0, \00", align 1
@.str.84 = private unnamed_addr constant [17 x i8] c"but is actually \00", align 1
@.str.85 = private unnamed_addr constant [132 x i8] c"/local/mnt2/workspace2/mnadeem/llvm/llvm-test-suite/MicroBenchmarks/libs/benchmark/googletest/googlemock/src/gmock-cardinalities.cc\00", align 1
@.str.86 = private unnamed_addr constant [42 x i8] c"The invocation upper bound must be >= 0, \00", align 1
@.str.87 = private unnamed_addr constant [29 x i8] c"The invocation upper bound (\00", align 1
@.str.88 = private unnamed_addr constant [42 x i8] c") must be >= the invocation lower bound (\00", align 1
@.str.89 = private unnamed_addr constant [3 x i8] c").\00", align 1
@_ZTVN10__cxxabiv120__si_class_type_infoE = external global ptr
@_ZTSN7testing12_GLOBAL__N_122BetweenCardinalityImplE = internal constant [49 x i8] c"N7testing12_GLOBAL__N_122BetweenCardinalityImplE\00", align 1
@_ZTSN7testing20CardinalityInterfaceE = linkonce_odr hidden constant [33 x i8] c"N7testing20CardinalityInterfaceE\00", comdat, align 1
@_ZTIN7testing20CardinalityInterfaceE = linkonce_odr hidden constant { ptr, ptr } { ptr getelementptr inbounds (ptr, ptr @_ZTVN10__cxxabiv117__class_type_infoE, i64 2), ptr @_ZTSN7testing20CardinalityInterfaceE }, comdat, align 8
@_ZTIN7testing12_GLOBAL__N_122BetweenCardinalityImplE = internal constant { ptr, ptr, ptr } { ptr getelementptr inbounds (ptr, ptr @_ZTVN10__cxxabiv120__si_class_type_infoE, i64 2), ptr @_ZTSN7testing12_GLOBAL__N_122BetweenCardinalityImplE, ptr @_ZTIN7testing20CardinalityInterfaceE }, align 8
@.str.90 = private unnamed_addr constant [27 x i8] c"called any number of times\00", align 1
@.str.91 = private unnamed_addr constant [16 x i8] c"called at most \00", align 1
@.str.92 = private unnamed_addr constant [17 x i8] c"called at least \00", align 1
@.str.93 = private unnamed_addr constant [16 x i8] c"called between \00", align 1
@_ZTVNSt3__120__shared_ptr_pointerIPKN7testing20CardinalityInterfaceENS_10shared_ptrIS3_E27__shared_ptr_default_deleteIS3_S3_EENS_9allocatorIS3_EEEE = linkonce_odr hidden unnamed_addr constant { [7 x ptr] } { [7 x ptr] [ptr null, ptr @_ZTINSt3__120__shared_ptr_pointerIPKN7testing20CardinalityInterfaceENS_10shared_ptrIS3_E27__shared_ptr_default_deleteIS3_S3_EENS_9allocatorIS3_EEEE, ptr @_ZNSt3__119__shared_weak_countD2Ev, ptr @_ZNSt3__120__shared_ptr_pointerIPKN7testing20CardinalityInterfaceENS_10shared_ptrIS3_E27__shared_ptr_default_deleteIS3_S3_EENS_9allocatorIS3_EEED0Ev, ptr @_ZNSt3__120__shared_ptr_pointerIPKN7testing20CardinalityInterfaceENS_10shared_ptrIS3_E27__shared_ptr_default_deleteIS3_S3_EENS_9allocatorIS3_EEE16__on_zero_sharedEv, ptr @_ZNKSt3__120__shared_ptr_pointerIPKN7testing20CardinalityInterfaceENS_10shared_ptrIS3_E27__shared_ptr_default_deleteIS3_S3_EENS_9allocatorIS3_EEE13__get_deleterERKSt9type_info, ptr @_ZNSt3__120__shared_ptr_pointerIPKN7testing20CardinalityInterfaceENS_10shared_ptrIS3_E27__shared_ptr_default_deleteIS3_S3_EENS_9allocatorIS3_EEE21__on_zero_shared_weakEv] }, comdat, align 8
@_ZTSNSt3__120__shared_ptr_pointerIPKN7testing20CardinalityInterfaceENS_10shared_ptrIS3_E27__shared_ptr_default_deleteIS3_S3_EENS_9allocatorIS3_EEEE = linkonce_odr hidden constant [144 x i8] c"NSt3__120__shared_ptr_pointerIPKN7testing20CardinalityInterfaceENS_10shared_ptrIS3_E27__shared_ptr_default_deleteIS3_S3_EENS_9allocatorIS3_EEEE\00", comdat, align 1
@_ZTINSt3__119__shared_weak_countE = external constant ptr
@_ZTINSt3__120__shared_ptr_pointerIPKN7testing20CardinalityInterfaceENS_10shared_ptrIS3_E27__shared_ptr_default_deleteIS3_S3_EENS_9allocatorIS3_EEEE = linkonce_odr hidden constant { ptr, ptr, ptr } { ptr getelementptr inbounds (ptr, ptr @_ZTVN10__cxxabiv120__si_class_type_infoE, i64 2), ptr @_ZTSNSt3__120__shared_ptr_pointerIPKN7testing20CardinalityInterfaceENS_10shared_ptrIS3_E27__shared_ptr_default_deleteIS3_S3_EENS_9allocatorIS3_EEEE, ptr @_ZTINSt3__119__shared_weak_countE }, comdat, align 8
@_ZTSNSt3__110shared_ptrIKN7testing20CardinalityInterfaceEE27__shared_ptr_default_deleteIS3_S3_EE = linkonce_odr hidden constant [93 x i8] c"NSt3__110shared_ptrIKN7testing20CardinalityInterfaceEE27__shared_ptr_default_deleteIS3_S3_EE\00", comdat, align 1
@_ZNSt3__14cerrE = external global %"class.std::__1::basic_ostream", align 8
@_ZTVN7testing8internal25GoogleTestFailureReporterE = linkonce_odr hidden unnamed_addr constant { [5 x ptr] } { [5 x ptr] [ptr null, ptr @_ZTIN7testing8internal25GoogleTestFailureReporterE, ptr @_ZN7testing8internal24FailureReporterInterfaceD2Ev, ptr @_ZN7testing8internal25GoogleTestFailureReporterD0Ev, ptr @_ZN7testing8internal25GoogleTestFailureReporter13ReportFailureENS0_24FailureReporterInterface11FailureTypeEPKciRKNSt3__112basic_stringIcNS6_11char_traitsIcEENS6_9allocatorIcEEEE] }, comdat, align 8
@_ZTSN7testing8internal25GoogleTestFailureReporterE = linkonce_odr hidden constant [47 x i8] c"N7testing8internal25GoogleTestFailureReporterE\00", comdat, align 1
@_ZTSN7testing8internal24FailureReporterInterfaceE = linkonce_odr hidden constant [46 x i8] c"N7testing8internal24FailureReporterInterfaceE\00", comdat, align 1
@_ZTIN7testing8internal24FailureReporterInterfaceE = linkonce_odr hidden constant { ptr, ptr } { ptr getelementptr inbounds (ptr, ptr @_ZTVN10__cxxabiv117__class_type_infoE, i64 2), ptr @_ZTSN7testing8internal24FailureReporterInterfaceE }, comdat, align 8
@_ZTIN7testing8internal25GoogleTestFailureReporterE = linkonce_odr hidden constant { ptr, ptr, ptr } { ptr getelementptr inbounds (ptr, ptr @_ZTVN10__cxxabiv120__si_class_type_infoE, i64 2), ptr @_ZTSN7testing8internal25GoogleTestFailureReporterE, ptr @_ZTIN7testing8internal24FailureReporterInterfaceE }, comdat, align 8
@.str.94 = private unnamed_addr constant [7 x i8] c"vector\00", align 1
@_ZTISt12length_error = external constant ptr
@_ZTVSt12length_error = external unnamed_addr constant { [5 x ptr] }, align 8
@_ZTISt20bad_array_new_length = external constant ptr
@.str.95 = private unnamed_addr constant [127 x i8] c"/local/mnt2/workspace2/mnadeem/llvm/llvm-test-suite/MicroBenchmarks/libs/benchmark/googletest/googlemock/src/gmock-matchers.cc\00", align 1
@.str.96 = private unnamed_addr constant [42 x i8] c"Condition left_[ilhs] == kUnused failed. \00", align 1
@.str.97 = private unnamed_addr constant [7 x i8] c"ilhs: \00", align 1
@.str.98 = private unnamed_addr constant [16 x i8] c", left_[ilhs]: \00", align 1
@_ZTVNSt3__118basic_stringstreamIcNS_11char_traitsIcEENS_9allocatorIcEEEE = linkonce_odr dso_local unnamed_addr constant { [5 x ptr], [5 x ptr], [5 x ptr] } { [5 x ptr] [ptr inttoptr (i64 128 to ptr), ptr null, ptr @_ZTINSt3__118basic_stringstreamIcNS_11char_traitsIcEENS_9allocatorIcEEEE, ptr @_ZNSt3__118basic_stringstreamIcNS_11char_traitsIcEENS_9allocatorIcEEED1Ev, ptr @_ZNSt3__118basic_stringstreamIcNS_11char_traitsIcEENS_9allocatorIcEEED0Ev], [5 x ptr] [ptr inttoptr (i64 112 to ptr), ptr inttoptr (i64 -16 to ptr), ptr @_ZTINSt3__118basic_stringstreamIcNS_11char_traitsIcEENS_9allocatorIcEEEE, ptr @_ZThn16_NSt3__118basic_stringstreamIcNS_11char_traitsIcEENS_9allocatorIcEEED1Ev, ptr @_ZThn16_NSt3__118basic_stringstreamIcNS_11char_traitsIcEENS_9allocatorIcEEED0Ev], [5 x ptr] [ptr inttoptr (i64 -128 to ptr), ptr inttoptr (i64 -128 to ptr), ptr @_ZTINSt3__118basic_stringstreamIcNS_11char_traitsIcEENS_9allocatorIcEEEE, ptr @_ZTv0_n24_NSt3__118basic_stringstreamIcNS_11char_traitsIcEENS_9allocatorIcEEED1Ev, ptr @_ZTv0_n24_NSt3__118basic_stringstreamIcNS_11char_traitsIcEENS_9allocatorIcEEED0Ev] }, comdat, align 8
@_ZTTNSt3__118basic_stringstreamIcNS_11char_traitsIcEENS_9allocatorIcEEEE = linkonce_odr dso_local unnamed_addr constant [10 x ptr] [ptr getelementptr inbounds ({ [5 x ptr], [5 x ptr], [5 x ptr] }, ptr @_ZTVNSt3__118basic_stringstreamIcNS_11char_traitsIcEENS_9allocatorIcEEEE, i32 0, inrange i32 0, i32 3), ptr getelementptr inbounds ({ [5 x ptr], [5 x ptr], [5 x ptr] }, ptr @_ZTCNSt3__118basic_stringstreamIcNS_11char_traitsIcEENS_9allocatorIcEEEE0_NS_14basic_iostreamIcS2_EE, i32 0, inrange i32 0, i32 3), ptr getelementptr inbounds ({ [5 x ptr], [5 x ptr] }, ptr @_ZTCNSt3__118basic_stringstreamIcNS_11char_traitsIcEENS_9allocatorIcEEEE0_NS_13basic_istreamIcS2_EE, i32 0, inrange i32 0, i32 3), ptr getelementptr inbounds ({ [5 x ptr], [5 x ptr] }, ptr @_ZTCNSt3__118basic_stringstreamIcNS_11char_traitsIcEENS_9allocatorIcEEEE0_NS_13basic_istreamIcS2_EE, i32 0, inrange i32 1, i32 3), ptr getelementptr inbounds ({ [5 x ptr], [5 x ptr] }, ptr @_ZTCNSt3__118basic_stringstreamIcNS_11char_traitsIcEENS_9allocatorIcEEEE16_NS_13basic_ostreamIcS2_EE, i32 0, inrange i32 0, i32 3), ptr getelementptr inbounds ({ [5 x ptr], [5 x ptr] }, ptr @_ZTCNSt3__118basic_stringstreamIcNS_11char_traitsIcEENS_9allocatorIcEEEE16_NS_13basic_ostreamIcS2_EE, i32 0, inrange i32 1, i32 3), ptr getelementptr inbounds ({ [5 x ptr], [5 x ptr], [5 x ptr] }, ptr @_ZTCNSt3__118basic_stringstreamIcNS_11char_traitsIcEENS_9allocatorIcEEEE0_NS_14basic_iostreamIcS2_EE, i32 0, inrange i32 2, i32 3), ptr getelementptr inbounds ({ [5 x ptr], [5 x ptr], [5 x ptr] }, ptr @_ZTCNSt3__118basic_stringstreamIcNS_11char_traitsIcEENS_9allocatorIcEEEE0_NS_14basic_iostreamIcS2_EE, i32 0, inrange i32 1, i32 3), ptr getelementptr inbounds ({ [5 x ptr], [5 x ptr], [5 x ptr] }, ptr @_ZTVNSt3__118basic_stringstreamIcNS_11char_traitsIcEENS_9allocatorIcEEEE, i32 0, inrange i32 2, i32 3), ptr getelementptr inbounds ({ [5 x ptr], [5 x ptr], [5 x ptr] }, ptr @_ZTVNSt3__118basic_stringstreamIcNS_11char_traitsIcEENS_9allocatorIcEEEE, i32 0, inrange i32 1, i32 3)], comdat, align 8
@_ZTCNSt3__118basic_stringstreamIcNS_11char_traitsIcEENS_9allocatorIcEEEE0_NS_14basic_iostreamIcS2_EE = linkonce_odr dso_local unnamed_addr constant { [5 x ptr], [5 x ptr], [5 x ptr] } { [5 x ptr] [ptr inttoptr (i64 128 to ptr), ptr null, ptr @_ZTINSt3__114basic_iostreamIcNS_11char_traitsIcEEEE, ptr @_ZNSt3__114basic_iostreamIcNS_11char_traitsIcEEED1Ev, ptr @_ZNSt3__114basic_iostreamIcNS_11char_traitsIcEEED0Ev], [5 x ptr] [ptr inttoptr (i64 112 to ptr), ptr inttoptr (i64 -16 to ptr), ptr @_ZTINSt3__114basic_iostreamIcNS_11char_traitsIcEEEE, ptr @_ZThn16_NSt3__114basic_iostreamIcNS_11char_traitsIcEEED1Ev, ptr @_ZThn16_NSt3__114basic_iostreamIcNS_11char_traitsIcEEED0Ev], [5 x ptr] [ptr inttoptr (i64 -128 to ptr), ptr inttoptr (i64 -128 to ptr), ptr @_ZTINSt3__114basic_iostreamIcNS_11char_traitsIcEEEE, ptr @_ZTv0_n24_NSt3__114basic_iostreamIcNS_11char_traitsIcEEED1Ev, ptr @_ZTv0_n24_NSt3__114basic_iostreamIcNS_11char_traitsIcEEED0Ev] }, comdat, align 8
@_ZTINSt3__114basic_iostreamIcNS_11char_traitsIcEEEE = external constant ptr
@_ZTCNSt3__118basic_stringstreamIcNS_11char_traitsIcEENS_9allocatorIcEEEE0_NS_13basic_istreamIcS2_EE = linkonce_odr dso_local unnamed_addr constant { [5 x ptr], [5 x ptr] } { [5 x ptr] [ptr inttoptr (i64 128 to ptr), ptr null, ptr @_ZTINSt3__113basic_istreamIcNS_11char_traitsIcEEEE, ptr @_ZNSt3__113basic_istreamIcNS_11char_traitsIcEEED1Ev, ptr @_ZNSt3__113basic_istreamIcNS_11char_traitsIcEEED0Ev], [5 x ptr] [ptr inttoptr (i64 -128 to ptr), ptr inttoptr (i64 -128 to ptr), ptr @_ZTINSt3__113basic_istreamIcNS_11char_traitsIcEEEE, ptr @_ZTv0_n24_NSt3__113basic_istreamIcNS_11char_traitsIcEEED1Ev, ptr @_ZTv0_n24_NSt3__113basic_istreamIcNS_11char_traitsIcEEED0Ev] }, comdat, align 8
@_ZTINSt3__113basic_istreamIcNS_11char_traitsIcEEEE = external constant ptr
@_ZTCNSt3__118basic_stringstreamIcNS_11char_traitsIcEENS_9allocatorIcEEEE16_NS_13basic_ostreamIcS2_EE = linkonce_odr dso_local unnamed_addr constant { [5 x ptr], [5 x ptr] } { [5 x ptr] [ptr inttoptr (i64 112 to ptr), ptr null, ptr @_ZTINSt3__113basic_ostreamIcNS_11char_traitsIcEEEE, ptr @_ZNSt3__113basic_ostreamIcNS_11char_traitsIcEEED1Ev, ptr @_ZNSt3__113basic_ostreamIcNS_11char_traitsIcEEED0Ev], [5 x ptr] [ptr inttoptr (i64 -112 to ptr), ptr inttoptr (i64 -112 to ptr), ptr @_ZTINSt3__113basic_ostreamIcNS_11char_traitsIcEEEE, ptr @_ZTv0_n24_NSt3__113basic_ostreamIcNS_11char_traitsIcEEED1Ev, ptr @_ZTv0_n24_NSt3__113basic_ostreamIcNS_11char_traitsIcEEED0Ev] }, comdat, align 8
@_ZTINSt3__113basic_ostreamIcNS_11char_traitsIcEEEE = external constant ptr
@_ZTSNSt3__118basic_stringstreamIcNS_11char_traitsIcEENS_9allocatorIcEEEE = linkonce_odr dso_local constant [69 x i8] c"NSt3__118basic_stringstreamIcNS_11char_traitsIcEENS_9allocatorIcEEEE\00", comdat, align 1
@_ZTINSt3__118basic_stringstreamIcNS_11char_traitsIcEENS_9allocatorIcEEEE = linkonce_odr dso_local constant { ptr, ptr, ptr } { ptr getelementptr inbounds (ptr, ptr @_ZTVN10__cxxabiv120__si_class_type_infoE, i64 2), ptr @_ZTSNSt3__118basic_stringstreamIcNS_11char_traitsIcEENS_9allocatorIcEEEE, ptr @_ZTINSt3__114basic_iostreamIcNS_11char_traitsIcEEEE }, comdat, align 8
@_ZTVNSt3__115basic_stringbufIcNS_11char_traitsIcEENS_9allocatorIcEEEE = linkonce_odr dso_local unnamed_addr constant { [16 x ptr] } { [16 x ptr] [ptr null, ptr @_ZTINSt3__115basic_stringbufIcNS_11char_traitsIcEENS_9allocatorIcEEEE, ptr @_ZNSt3__115basic_stringbufIcNS_11char_traitsIcEENS_9allocatorIcEEED2Ev, ptr @_ZNSt3__115basic_stringbufIcNS_11char_traitsIcEENS_9allocatorIcEEED0Ev, ptr @_ZNSt3__115basic_streambufIcNS_11char_traitsIcEEE5imbueERKNS_6localeE, ptr @_ZNSt3__115basic_streambufIcNS_11char_traitsIcEEE6setbufEPcl, ptr @_ZNSt3__115basic_stringbufIcNS_11char_traitsIcEENS_9allocatorIcEEE7seekoffExNS_8ios_base7seekdirEj, ptr @_ZNSt3__115basic_stringbufIcNS_11char_traitsIcEENS_9allocatorIcEEE7seekposENS_4fposI11__mbstate_tEEj, ptr @_ZNSt3__115basic_streambufIcNS_11char_traitsIcEEE4syncEv, ptr @_ZNSt3__115basic_streambufIcNS_11char_traitsIcEEE9showmanycEv, ptr @_ZNSt3__115basic_streambufIcNS_11char_traitsIcEEE6xsgetnEPcl, ptr @_ZNSt3__115basic_stringbufIcNS_11char_traitsIcEENS_9allocatorIcEEE9underflowEv, ptr @_ZNSt3__115basic_streambufIcNS_11char_traitsIcEEE5uflowEv, ptr @_ZNSt3__115basic_stringbufIcNS_11char_traitsIcEENS_9allocatorIcEEE9pbackfailEi, ptr @_ZNSt3__115basic_streambufIcNS_11char_traitsIcEEE6xsputnEPKcl, ptr @_ZNSt3__115basic_stringbufIcNS_11char_traitsIcEENS_9allocatorIcEEE8overflowEi] }, comdat, align 8
@_ZTSNSt3__115basic_stringbufIcNS_11char_traitsIcEENS_9allocatorIcEEEE = linkonce_odr dso_local constant [66 x i8] c"NSt3__115basic_stringbufIcNS_11char_traitsIcEENS_9allocatorIcEEEE\00", comdat, align 1
@_ZTINSt3__115basic_streambufIcNS_11char_traitsIcEEEE = external constant ptr
@_ZTINSt3__115basic_stringbufIcNS_11char_traitsIcEENS_9allocatorIcEEEE = linkonce_odr dso_local constant { ptr, ptr, ptr } { ptr getelementptr inbounds (ptr, ptr @_ZTVN10__cxxabiv120__si_class_type_infoE, i64 2), ptr @_ZTSNSt3__115basic_stringbufIcNS_11char_traitsIcEENS_9allocatorIcEEEE, ptr @_ZTINSt3__115basic_streambufIcNS_11char_traitsIcEEEE }, comdat, align 8
@.str.99 = private unnamed_addr constant [9 x i8] c" element\00", align 1
@.str.100 = private unnamed_addr constant [7 x i8] c"(null)\00", align 1
@.str.101 = private unnamed_addr constant [2 x i8] c"{\00", align 1
@.str.102 = private unnamed_addr constant [5 x i8] c"\0A  (\00", align 1
@.str.103 = private unnamed_addr constant [2 x i8] c",\00", align 1
@.str.104 = private unnamed_addr constant [3 x i8] c"\0A}\00", align 1
@_ZTVNSt3__119basic_ostringstreamIcNS_11char_traitsIcEENS_9allocatorIcEEEE = linkonce_odr dso_local unnamed_addr constant { [5 x ptr], [5 x ptr] } { [5 x ptr] [ptr inttoptr (i64 112 to ptr), ptr null, ptr @_ZTINSt3__119basic_ostringstreamIcNS_11char_traitsIcEENS_9allocatorIcEEEE, ptr @_ZNSt3__119basic_ostringstreamIcNS_11char_traitsIcEENS_9allocatorIcEEED1Ev, ptr @_ZNSt3__119basic_ostringstreamIcNS_11char_traitsIcEENS_9allocatorIcEEED0Ev], [5 x ptr] [ptr inttoptr (i64 -112 to ptr), ptr inttoptr (i64 -112 to ptr), ptr @_ZTINSt3__119basic_ostringstreamIcNS_11char_traitsIcEENS_9allocatorIcEEEE, ptr @_ZTv0_n24_NSt3__119basic_ostringstreamIcNS_11char_traitsIcEENS_9allocatorIcEEED1Ev, ptr @_ZTv0_n24_NSt3__119basic_ostringstreamIcNS_11char_traitsIcEENS_9allocatorIcEEED0Ev] }, comdat, align 8
@_ZTTNSt3__119basic_ostringstreamIcNS_11char_traitsIcEENS_9allocatorIcEEEE = linkonce_odr dso_local unnamed_addr constant [4 x ptr] [ptr getelementptr inbounds ({ [5 x ptr], [5 x ptr] }, ptr @_ZTVNSt3__119basic_ostringstreamIcNS_11char_traitsIcEENS_9allocatorIcEEEE, i32 0, inrange i32 0, i32 3), ptr getelementptr inbounds ({ [5 x ptr], [5 x ptr] }, ptr @_ZTCNSt3__119basic_ostringstreamIcNS_11char_traitsIcEENS_9allocatorIcEEEE0_NS_13basic_ostreamIcS2_EE, i32 0, inrange i32 0, i32 3), ptr getelementptr inbounds ({ [5 x ptr], [5 x ptr] }, ptr @_ZTCNSt3__119basic_ostringstreamIcNS_11char_traitsIcEENS_9allocatorIcEEEE0_NS_13basic_ostreamIcS2_EE, i32 0, inrange i32 1, i32 3), ptr getelementptr inbounds ({ [5 x ptr], [5 x ptr] }, ptr @_ZTVNSt3__119basic_ostringstreamIcNS_11char_traitsIcEENS_9allocatorIcEEEE, i32 0, inrange i32 1, i32 3)], comdat, align 8
@_ZTCNSt3__119basic_ostringstreamIcNS_11char_traitsIcEENS_9allocatorIcEEEE0_NS_13basic_ostreamIcS2_EE = linkonce_odr dso_local unnamed_addr constant { [5 x ptr], [5 x ptr] } { [5 x ptr] [ptr inttoptr (i64 112 to ptr), ptr null, ptr @_ZTINSt3__113basic_ostreamIcNS_11char_traitsIcEEEE, ptr @_ZNSt3__113basic_ostreamIcNS_11char_traitsIcEEED1Ev, ptr @_ZNSt3__113basic_ostreamIcNS_11char_traitsIcEEED0Ev], [5 x ptr] [ptr inttoptr (i64 -112 to ptr), ptr inttoptr (i64 -112 to ptr), ptr @_ZTINSt3__113basic_ostreamIcNS_11char_traitsIcEEEE, ptr @_ZTv0_n24_NSt3__113basic_ostreamIcNS_11char_traitsIcEEED1Ev, ptr @_ZTv0_n24_NSt3__113basic_ostreamIcNS_11char_traitsIcEEED0Ev] }, comdat, align 8
@_ZTSNSt3__119basic_ostringstreamIcNS_11char_traitsIcEENS_9allocatorIcEEEE = linkonce_odr dso_local constant [70 x i8] c"NSt3__119basic_ostringstreamIcNS_11char_traitsIcEENS_9allocatorIcEEEE\00", comdat, align 1
@_ZTINSt3__119basic_ostringstreamIcNS_11char_traitsIcEENS_9allocatorIcEEEE = linkonce_odr dso_local constant { ptr, ptr, ptr } { ptr getelementptr inbounds (ptr, ptr @_ZTVN10__cxxabiv120__si_class_type_infoE, i64 2), ptr @_ZTSNSt3__119basic_ostringstreamIcNS_11char_traitsIcEENS_9allocatorIcEEEE, ptr @_ZTINSt3__113basic_ostreamIcNS_11char_traitsIcEEEE }, comdat, align 8
@.str.105 = private unnamed_addr constant [141 x i8] c"/local/mnt2/workspace2/mnadeem/llvm/llvm-test-suite/MicroBenchmarks/libs/benchmark/googletest/googletest/include/gtest/internal/gtest-port.h\00", align 1
@.str.106 = private unnamed_addr constant [37 x i8] c"pthread_mutex_init(&mutex_, nullptr)\00", align 1
@.str.107 = private unnamed_addr constant [19 x i8] c"failed with error \00", align 1
@.str.108 = private unnamed_addr constant [31 x i8] c"pthread_mutex_destroy(&mutex_)\00", align 1
@.str.109 = private unnamed_addr constant [71 x i8] c"Condition has_owner_ && pthread_equal(owner_, pthread_self()) failed. \00", align 1
@.str.110 = private unnamed_addr constant [46 x i8] c"The current thread is not holding the mutex @\00", align 1
@.str.111 = private unnamed_addr constant [30 x i8] c"pthread_mutex_unlock(&mutex_)\00", align 1
@.str.112 = private unnamed_addr constant [28 x i8] c"pthread_mutex_lock(&mutex_)\00", align 1
@.str.113 = private unnamed_addr constant [25 x i8] c" ERROR: this mock object\00", align 1
@.str.114 = private unnamed_addr constant [16 x i8] c" (used in test \00", align 1
@.str.115 = private unnamed_addr constant [50 x i8] c" should be deleted but never is. Its address is @\00", align 1
@.str.116 = private unnamed_addr constant [9 x i8] c"\0AERROR: \00", align 1
@.str.117 = private unnamed_addr constant [14 x i8] c" leaked mock \00", align 1
@.str.118 = private unnamed_addr constant [7 x i8] c"object\00", align 1
@.str.119 = private unnamed_addr constant [8 x i8] c"objects\00", align 1
@.str.120 = private unnamed_addr constant [347 x i8] c" found at program exit. Expectations on a mock object are verified when the object is destructed. Leaking a mock means that its expectations aren't verified, which is usually a test bug. If you really intend to leak a mock, you can suppress this error using testing::Mock::AllowLeak(mock_object), or you may use a fake or stub instead of a mock.\0A\00", align 1
@_ZTVNSt3__120__shared_ptr_pointerIPN7testing11ExpectationENS_10shared_ptrIS2_E27__shared_ptr_default_deleteIS2_S2_EENS_9allocatorIS2_EEEE = linkonce_odr hidden unnamed_addr constant { [7 x ptr] } { [7 x ptr] [ptr null, ptr @_ZTINSt3__120__shared_ptr_pointerIPN7testing11ExpectationENS_10shared_ptrIS2_E27__shared_ptr_default_deleteIS2_S2_EENS_9allocatorIS2_EEEE, ptr @_ZNSt3__119__shared_weak_countD2Ev, ptr @_ZNSt3__120__shared_ptr_pointerIPN7testing11ExpectationENS_10shared_ptrIS2_E27__shared_ptr_default_deleteIS2_S2_EENS_9allocatorIS2_EEED0Ev, ptr @_ZNSt3__120__shared_ptr_pointerIPN7testing11ExpectationENS_10shared_ptrIS2_E27__shared_ptr_default_deleteIS2_S2_EENS_9allocatorIS2_EEE16__on_zero_sharedEv, ptr @_ZNKSt3__120__shared_ptr_pointerIPN7testing11ExpectationENS_10shared_ptrIS2_E27__shared_ptr_default_deleteIS2_S2_EENS_9allocatorIS2_EEE13__get_deleterERKSt9type_info, ptr @_ZNSt3__120__shared_ptr_pointerIPN7testing11ExpectationENS_10shared_ptrIS2_E27__shared_ptr_default_deleteIS2_S2_EENS_9allocatorIS2_EEE21__on_zero_shared_weakEv] }, comdat, align 8
@_ZTSNSt3__120__shared_ptr_pointerIPN7testing11ExpectationENS_10shared_ptrIS2_E27__shared_ptr_default_deleteIS2_S2_EENS_9allocatorIS2_EEEE = linkonce_odr hidden constant [134 x i8] c"NSt3__120__shared_ptr_pointerIPN7testing11ExpectationENS_10shared_ptrIS2_E27__shared_ptr_default_deleteIS2_S2_EENS_9allocatorIS2_EEEE\00", comdat, align 1
@_ZTINSt3__120__shared_ptr_pointerIPN7testing11ExpectationENS_10shared_ptrIS2_E27__shared_ptr_default_deleteIS2_S2_EENS_9allocatorIS2_EEEE = linkonce_odr hidden constant { ptr, ptr, ptr } { ptr getelementptr inbounds (ptr, ptr @_ZTVN10__cxxabiv120__si_class_type_infoE, i64 2), ptr @_ZTSNSt3__120__shared_ptr_pointerIPN7testing11ExpectationENS_10shared_ptrIS2_E27__shared_ptr_default_deleteIS2_S2_EENS_9allocatorIS2_EEEE, ptr @_ZTINSt3__119__shared_weak_countE }, comdat, align 8
@_ZTSNSt3__110shared_ptrIN7testing11ExpectationEE27__shared_ptr_default_deleteIS2_S2_EE = linkonce_odr dso_local constant [83 x i8] c"NSt3__110shared_ptrIN7testing11ExpectationEE27__shared_ptr_default_deleteIS2_S2_EE\00", comdat, align 1
@.str.121 = private unnamed_addr constant [13 x i8] c"basic_string\00", align 1
@_ZNSt3__15ctypeIcE2idE = external global %"class.std::__1::locale::id", align 8
@.str.122 = private unnamed_addr constant [50 x i8] c"pthread_key_create(&key, &DeleteThreadLocalValue)\00", align 1
@_ZTVN7testing8internal11ThreadLocalIPNS_8SequenceEE25DefaultValueHolderFactoryE = linkonce_odr dso_local unnamed_addr constant { [5 x ptr] } { [5 x ptr] [ptr null, ptr @_ZTIN7testing8internal11ThreadLocalIPNS_8SequenceEE25DefaultValueHolderFactoryE, ptr @_ZN7testing8internal11ThreadLocalIPNS_8SequenceEE18ValueHolderFactoryD2Ev, ptr @_ZN7testing8internal11ThreadLocalIPNS_8SequenceEE25DefaultValueHolderFactoryD0Ev, ptr @_ZNK7testing8internal11ThreadLocalIPNS_8SequenceEE25DefaultValueHolderFactory13MakeNewHolderEv] }, comdat, align 8
@_ZTSN7testing8internal11ThreadLocalIPNS_8SequenceEE25DefaultValueHolderFactoryE = linkonce_odr dso_local constant [76 x i8] c"N7testing8internal11ThreadLocalIPNS_8SequenceEE25DefaultValueHolderFactoryE\00", comdat, align 1
@_ZTSN7testing8internal11ThreadLocalIPNS_8SequenceEE18ValueHolderFactoryE = linkonce_odr dso_local constant [69 x i8] c"N7testing8internal11ThreadLocalIPNS_8SequenceEE18ValueHolderFactoryE\00", comdat, align 1
@_ZTIN7testing8internal11ThreadLocalIPNS_8SequenceEE18ValueHolderFactoryE = linkonce_odr dso_local constant { ptr, ptr } { ptr getelementptr inbounds (ptr, ptr @_ZTVN10__cxxabiv117__class_type_infoE, i64 2), ptr @_ZTSN7testing8internal11ThreadLocalIPNS_8SequenceEE18ValueHolderFactoryE }, comdat, align 8
@_ZTIN7testing8internal11ThreadLocalIPNS_8SequenceEE25DefaultValueHolderFactoryE = linkonce_odr dso_local constant { ptr, ptr, ptr } { ptr getelementptr inbounds (ptr, ptr @_ZTVN10__cxxabiv120__si_class_type_infoE, i64 2), ptr @_ZTSN7testing8internal11ThreadLocalIPNS_8SequenceEE25DefaultValueHolderFactoryE, ptr @_ZTIN7testing8internal11ThreadLocalIPNS_8SequenceEE18ValueHolderFactoryE }, comdat, align 8
@_ZTVN7testing8internal11ThreadLocalIPNS_8SequenceEE11ValueHolderE = linkonce_odr dso_local unnamed_addr constant { [4 x ptr] } { [4 x ptr] [ptr null, ptr @_ZTIN7testing8internal11ThreadLocalIPNS_8SequenceEE11ValueHolderE, ptr @_ZN7testing8internal26ThreadLocalValueHolderBaseD2Ev, ptr @_ZN7testing8internal11ThreadLocalIPNS_8SequenceEE11ValueHolderD0Ev] }, comdat, align 8
@_ZTSN7testing8internal11ThreadLocalIPNS_8SequenceEE11ValueHolderE = linkonce_odr dso_local constant [62 x i8] c"N7testing8internal11ThreadLocalIPNS_8SequenceEE11ValueHolderE\00", comdat, align 1
@_ZTSN7testing8internal26ThreadLocalValueHolderBaseE = linkonce_odr hidden constant [48 x i8] c"N7testing8internal26ThreadLocalValueHolderBaseE\00", comdat, align 1
@_ZTIN7testing8internal26ThreadLocalValueHolderBaseE = linkonce_odr hidden constant { ptr, ptr } { ptr getelementptr inbounds (ptr, ptr @_ZTVN10__cxxabiv117__class_type_infoE, i64 2), ptr @_ZTSN7testing8internal26ThreadLocalValueHolderBaseE }, comdat, align 8
@_ZTIN7testing8internal11ThreadLocalIPNS_8SequenceEE11ValueHolderE = linkonce_odr dso_local constant { ptr, ptr, ptr } { ptr getelementptr inbounds (ptr, ptr @_ZTVN10__cxxabiv120__si_class_type_infoE, i64 2), ptr @_ZTSN7testing8internal11ThreadLocalIPNS_8SequenceEE11ValueHolderE, ptr @_ZTIN7testing8internal26ThreadLocalValueHolderBaseE }, comdat, align 8
@.str.123 = private unnamed_addr constant [25 x i8] c"pthread_key_delete(key_)\00", align 1
@.str.124 = private unnamed_addr constant [39 x i8] c"pthread_setspecific(key_, holder_base)\00", align 1
@.str.125 = private unnamed_addr constant [52 x i8] c"Condition typeid(*base) == typeid(Derived) failed. \00", align 1
@.str.126 = private unnamed_addr constant [19 x i8] c"catch_leaked_mocks\00", align 1
@.str.127 = private unnamed_addr constant [8 x i8] c"verbose\00", align 1
@.str.128 = private unnamed_addr constant [22 x i8] c"default_mock_behavior\00", align 1
@.str.129 = private unnamed_addr constant [9 x i8] c"--gmock_\00", align 1
@.str.130 = private unnamed_addr constant [21 x i8] c"The value of flag --\00", align 1
@llvm.global_ctors = appending global [1 x { i32, ptr, ptr }] [{ i32, ptr, ptr } { i32 65535, ptr @_GLOBAL__sub_I_gmock_all.cc, ptr null }]

@_ZN7testing8internal15ExpectationBaseD1Ev = dso_local unnamed_addr alias void (ptr), ptr @_ZN7testing8internal15ExpectationBaseD2Ev
@_ZN7testing8internal25UntypedFunctionMockerBaseD1Ev = dso_local unnamed_addr alias void (ptr), ptr @_ZN7testing8internal25UntypedFunctionMockerBaseD2Ev
@_ZN7testing11ExpectationC1Ev = dso_local unnamed_addr alias void (ptr), ptr @_ZN7testing11ExpectationC2Ev
@_ZN7testing11ExpectationC1ERKNSt3__110shared_ptrINS_8internal15ExpectationBaseEEE = dso_local unnamed_addr alias void (ptr, ptr), ptr @_ZN7testing11ExpectationC2ERKNSt3__110shared_ptrINS_8internal15ExpectationBaseEEE
@_ZN7testing11ExpectationD1Ev = dso_local unnamed_addr alias void (ptr), ptr @_ZN7testing11ExpectationD2Ev
@_ZN7testing10InSequenceC1Ev = dso_local unnamed_addr alias void (ptr), ptr @_ZN7testing10InSequenceC2Ev
@_ZN7testing10InSequenceD1Ev = dso_local unnamed_addr alias void (ptr), ptr @_ZN7testing10InSequenceD2Ev

; Function Attrs: uwtable
define dso_local void @_ZN7testing11Cardinality25DescribeActualCallCountToEiPNSt3__113basic_ostreamIcNS1_11char_traitsIcEEEE(i32 noundef %actual_call_count, ptr noundef %os) local_unnamed_addr #0 align 2 personality ptr @__gxx_personality_v0 {
entry:
  %ref.tmp = alloca %"class.std::__1::basic_string", align 8
  %cmp = icmp sgt i32 %actual_call_count, 0
  br i1 %cmp, label %if.then, label %if.else

if.then:                                          ; preds = %entry
  %call1.i = tail call noundef nonnull align 8 dereferenceable(8) ptr @_ZNSt3__124__put_character_sequenceB7v170000IcNS_11char_traitsIcEEEERNS_13basic_ostreamIT_T0_EES7_PKS4_m(ptr noundef nonnull align 8 dereferenceable(8) %os, ptr noundef nonnull @.str, i64 noundef 7)
  call void @llvm.lifetime.start.p0(i64 24, ptr nonnull %ref.tmp) #35
  call fastcc void @_ZN7testing12_GLOBAL__N_111FormatTimesEi(ptr noalias nonnull align 8 %ref.tmp, i32 noundef %actual_call_count)
  %bf.load.i.i.i.i = load i8, ptr %ref.tmp, align 8
  %bf.clear.i.i.i.i = and i8 %bf.load.i.i.i.i, 1
  %tobool.i.not.i.i.i = icmp eq i8 %bf.clear.i.i.i.i, 0
  %__data_.i.i.i.i = getelementptr inbounds %"struct.std::__1::basic_string<char>::__long", ptr %ref.tmp, i64 0, i32 2
  %0 = load ptr, ptr %__data_.i.i.i.i, align 8
  %__data_.i4.i.i.i = getelementptr inbounds %"struct.std::__1::basic_string<char>::__short", ptr %ref.tmp, i64 0, i32 2
  %cond.i.i.i = select i1 %tobool.i.not.i.i.i, ptr %__data_.i4.i.i.i, ptr %0
  %__size_.i.i.i = getelementptr inbounds %"struct.std::__1::basic_string<char>::__long", ptr %ref.tmp, i64 0, i32 1
  %1 = load i64, ptr %__size_.i.i.i, align 8
  %bf.lshr.i.i.i = lshr i8 %bf.load.i.i.i.i, 1
  %conv.i.i.i = zext i8 %bf.lshr.i.i.i to i64
  %cond.i.i = select i1 %tobool.i.not.i.i.i, i64 %conv.i.i.i, i64 %1
  %call2.i6 = invoke noundef nonnull align 8 dereferenceable(8) ptr @_ZNSt3__124__put_character_sequenceB7v170000IcNS_11char_traitsIcEEEERNS_13basic_ostreamIT_T0_EES7_PKS4_m(ptr noundef nonnull align 8 dereferenceable(8) %call1.i, ptr noundef %cond.i.i.i, i64 noundef %cond.i.i)
          to label %invoke.cont unwind label %lpad

invoke.cont:                                      ; preds = %if.then
  %bf.load.i.i = load i8, ptr %ref.tmp, align 8
  %bf.clear.i.i = and i8 %bf.load.i.i, 1
  %tobool.i.not.i = icmp eq i8 %bf.clear.i.i, 0
  br i1 %tobool.i.not.i, label %_ZNSt3__112basic_stringIcNS_11char_traitsIcEENS_9allocatorIcEEED2Ev.exit, label %if.then.i

if.then.i:                                        ; preds = %invoke.cont
  %2 = load ptr, ptr %__data_.i.i.i.i, align 8, !tbaa !5
  call void @_ZdlPv(ptr noundef %2) #36
  br label %_ZNSt3__112basic_stringIcNS_11char_traitsIcEENS_9allocatorIcEEED2Ev.exit

_ZNSt3__112basic_stringIcNS_11char_traitsIcEENS_9allocatorIcEEED2Ev.exit: ; preds = %invoke.cont, %if.then.i
  call void @llvm.lifetime.end.p0(i64 24, ptr nonnull %ref.tmp) #35
  br label %if.end

lpad:                                             ; preds = %if.then
  %3 = landingpad { ptr, i32 }
          cleanup
  %bf.load.i.i7 = load i8, ptr %ref.tmp, align 8
  %bf.clear.i.i8 = and i8 %bf.load.i.i7, 1
  %tobool.i.not.i9 = icmp eq i8 %bf.clear.i.i8, 0
  br i1 %tobool.i.not.i9, label %_ZNSt3__112basic_stringIcNS_11char_traitsIcEENS_9allocatorIcEEED2Ev.exit12, label %if.then.i11

if.then.i11:                                      ; preds = %lpad
  %4 = load ptr, ptr %__data_.i.i.i.i, align 8, !tbaa !5
  call void @_ZdlPv(ptr noundef %4) #36
  br label %_ZNSt3__112basic_stringIcNS_11char_traitsIcEENS_9allocatorIcEEED2Ev.exit12

_ZNSt3__112basic_stringIcNS_11char_traitsIcEENS_9allocatorIcEEED2Ev.exit12: ; preds = %lpad, %if.then.i11
  call void @llvm.lifetime.end.p0(i64 24, ptr nonnull %ref.tmp) #35
  resume { ptr, i32 } %3

if.else:                                          ; preds = %entry
  %call1.i14 = tail call noundef nonnull align 8 dereferenceable(8) ptr @_ZNSt3__124__put_character_sequenceB7v170000IcNS_11char_traitsIcEEEERNS_13basic_ostreamIT_T0_EES7_PKS4_m(ptr noundef nonnull align 8 dereferenceable(8) %os, ptr noundef nonnull @.str.1, i64 noundef 12)
  br label %if.end

if.end:                                           ; preds = %if.else, %_ZNSt3__112basic_stringIcNS_11char_traitsIcEENS_9allocatorIcEEED2Ev.exit
  ret void
}

; Function Attrs: mustprogress nocallback nofree nosync nounwind willreturn memory(argmem: readwrite)
declare void @llvm.lifetime.start.p0(i64 immarg, ptr nocapture) #1

; Function Attrs: inlinehint uwtable
define internal fastcc void @_ZN7testing12_GLOBAL__N_111FormatTimesEi(ptr noalias align 8 %agg.result, i32 noundef %n) unnamed_addr #2 personality ptr @__gxx_personality_v0 {
entry:
  %ss = alloca %"class.std::__1::basic_stringstream", align 8
  switch i32 %n, label %if.else3 [
    i32 1, label %if.then3.i.i
    i32 2, label %if.then3.i.i18
  ]

if.then3.i.i:                                     ; preds = %entry
  store i8 8, ptr %agg.result, align 8
  %__data_.i.i.i = getelementptr inbounds %"struct.std::__1::basic_string<char>::__short", ptr %agg.result, i64 0, i32 2
  %cmp.i24.i.i = icmp ugt ptr %__data_.i.i.i, @.str.80
  %add.ptr.i.i.i = getelementptr inbounds %"struct.std::__1::basic_string<char>::__short", ptr %agg.result, i64 0, i32 2, i64 4
  %cmp1.i.i.i = icmp ule ptr %add.ptr.i.i.i, @.str.80
  %0 = or i1 %cmp.i24.i.i, %cmp1.i.i.i
  tail call void @llvm.assume(i1 %0)
  store i32 1701015151, ptr %__data_.i.i.i, align 1
  store i8 0, ptr %add.ptr.i.i.i, align 1, !tbaa !5
  br label %return

if.then3.i.i18:                                   ; preds = %entry
  store i8 10, ptr %agg.result, align 8
  %__data_.i.i.i17 = getelementptr inbounds %"struct.std::__1::basic_string<char>::__short", ptr %agg.result, i64 0, i32 2
  %cmp.i24.i.i27 = icmp ugt ptr %__data_.i.i.i17, @.str.81
  %add.ptr.i.i.i28 = getelementptr inbounds %"struct.std::__1::basic_string<char>::__short", ptr %agg.result, i64 0, i32 2, i64 5
  %cmp1.i.i.i29 = icmp ule ptr %add.ptr.i.i.i28, @.str.81
  %1 = or i1 %cmp.i24.i.i27, %cmp1.i.i.i29
  tail call void @llvm.assume(i1 %1)
  tail call void @llvm.memcpy.p0.p0.i64(ptr noundef nonnull align 1 dereferenceable(5) %__data_.i.i.i17, ptr noundef nonnull align 1 dereferenceable(5) @.str.81, i64 5, i1 false)
  store i8 0, ptr %add.ptr.i.i.i28, align 2, !tbaa !5
  br label %return

if.else3:                                         ; preds = %entry
  call void @llvm.lifetime.start.p0(i64 280, ptr nonnull %ss) #35
  %2 = getelementptr inbounds i8, ptr %ss, i64 128
  %add.ptr2.i = getelementptr inbounds i8, ptr %ss, i64 16
  store ptr getelementptr inbounds ({ [5 x ptr], [5 x ptr], [5 x ptr] }, ptr @_ZTVNSt3__118basic_stringstreamIcNS_11char_traitsIcEENS_9allocatorIcEEEE, i64 0, inrange i32 1, i64 3), ptr %add.ptr2.i, align 8, !tbaa !8
  %__sb_.i = getelementptr inbounds %"class.std::__1::basic_stringstream", ptr %ss, i64 0, i32 1
  store ptr getelementptr inbounds ({ [5 x ptr], [5 x ptr] }, ptr @_ZTCNSt3__118basic_stringstreamIcNS_11char_traitsIcEENS_9allocatorIcEEEE0_NS_13basic_istreamIcS2_EE, i64 0, inrange i32 0, i64 3), ptr %ss, align 8, !tbaa !8
  store ptr getelementptr inbounds ({ [5 x ptr], [5 x ptr] }, ptr @_ZTCNSt3__118basic_stringstreamIcNS_11char_traitsIcEENS_9allocatorIcEEEE0_NS_13basic_istreamIcS2_EE, i64 0, inrange i32 1, i64 3), ptr %2, align 8, !tbaa !8
  %__gc_.i.i.i = getelementptr inbounds %"class.std::__1::basic_istream", ptr %ss, i64 0, i32 1
  store i64 0, ptr %__gc_.i.i.i, align 8, !tbaa !10
  invoke void @_ZNSt3__18ios_base4initEPv(ptr noundef nonnull align 8 dereferenceable(136) %2, ptr noundef nonnull %__sb_.i)
          to label %invoke.cont.i unwind label %lpad.i

invoke.cont.i:                                    ; preds = %if.else3
  %__tie_.i.i.i.i = getelementptr inbounds i8, ptr %ss, i64 264
  store ptr null, ptr %__tie_.i.i.i.i, align 8, !tbaa !13
  %__fill_.i.i.i.i = getelementptr inbounds i8, ptr %ss, i64 272
  store i32 -1, ptr %__fill_.i.i.i.i, align 8, !tbaa !18
  store ptr getelementptr inbounds ({ [5 x ptr], [5 x ptr], [5 x ptr] }, ptr @_ZTVNSt3__118basic_stringstreamIcNS_11char_traitsIcEENS_9allocatorIcEEEE, i64 0, inrange i32 0, i64 3), ptr %ss, align 8, !tbaa !8
  store ptr getelementptr inbounds ({ [5 x ptr], [5 x ptr], [5 x ptr] }, ptr @_ZTVNSt3__118basic_stringstreamIcNS_11char_traitsIcEENS_9allocatorIcEEEE, i64 0, inrange i32 2, i64 3), ptr %2, align 8, !tbaa !8
  store ptr getelementptr inbounds ({ [5 x ptr], [5 x ptr], [5 x ptr] }, ptr @_ZTVNSt3__118basic_stringstreamIcNS_11char_traitsIcEENS_9allocatorIcEEEE, i64 0, inrange i32 1, i64 3), ptr %add.ptr2.i, align 8, !tbaa !8
  invoke void @_ZNSt3__115basic_streambufIcNS_11char_traitsIcEEEC2Ev(ptr noundef nonnull align 8 dereferenceable(64) %__sb_.i)
          to label %_ZNSt3__118basic_stringstreamIcNS_11char_traitsIcEENS_9allocatorIcEEEC1B7v170000Ev.exit unwind label %lpad6.i

lpad.i:                                           ; preds = %if.else3
  %3 = landingpad { ptr, i32 }
          cleanup
  br label %ehcleanup.i

lpad6.i:                                          ; preds = %invoke.cont.i
  %4 = landingpad { ptr, i32 }
          cleanup
  call void @_ZNSt3__114basic_iostreamIcNS_11char_traitsIcEEED2Ev(ptr noundef nonnull align 8 dereferenceable(24) %ss, ptr noundef nonnull getelementptr inbounds ([10 x ptr], ptr @_ZTTNSt3__118basic_stringstreamIcNS_11char_traitsIcEENS_9allocatorIcEEEE, i64 0, i64 1)) #35
  br label %ehcleanup.i

common.resume:                                    ; preds = %lpad, %ehcleanup.i
  %common.resume.op = phi { ptr, i32 } [ %.pn.i, %ehcleanup.i ], [ %6, %lpad ]
  resume { ptr, i32 } %common.resume.op

ehcleanup.i:                                      ; preds = %lpad6.i, %lpad.i
  %.pn.i = phi { ptr, i32 } [ %4, %lpad6.i ], [ %3, %lpad.i ]
  call void @_ZNSt3__19basic_iosIcNS_11char_traitsIcEEED2Ev(ptr noundef nonnull align 8 dereferenceable(148) %2) #35
  br label %common.resume

_ZNSt3__118basic_stringstreamIcNS_11char_traitsIcEENS_9allocatorIcEEEC1B7v170000Ev.exit: ; preds = %invoke.cont.i
  store ptr getelementptr inbounds ({ [16 x ptr] }, ptr @_ZTVNSt3__115basic_stringbufIcNS_11char_traitsIcEENS_9allocatorIcEEEE, i64 0, inrange i32 0, i64 2), ptr %__sb_.i, align 8, !tbaa !8
  %__str_.i.i = getelementptr inbounds %"class.std::__1::basic_stringstream", ptr %ss, i64 0, i32 1, i32 1
  %__mode_.i.i = getelementptr inbounds %"class.std::__1::basic_stringstream", ptr %ss, i64 0, i32 1, i32 3
  call void @llvm.memset.p0.i64(ptr noundef nonnull align 8 dereferenceable(32) %__str_.i.i, i8 0, i64 32, i1 false)
  store i32 24, ptr %__mode_.i.i, align 8, !tbaa !19
  %call = invoke noundef nonnull align 8 dereferenceable(8) ptr @_ZNSt3__113basic_ostreamIcNS_11char_traitsIcEEElsEi(ptr noundef nonnull align 8 dereferenceable(8) %add.ptr2.i, i32 noundef %n)
          to label %invoke.cont unwind label %lpad

invoke.cont:                                      ; preds = %_ZNSt3__118basic_stringstreamIcNS_11char_traitsIcEENS_9allocatorIcEEEC1B7v170000Ev.exit
  %call1.i32 = invoke noundef nonnull align 8 dereferenceable(8) ptr @_ZNSt3__124__put_character_sequenceB7v170000IcNS_11char_traitsIcEEEERNS_13basic_ostreamIT_T0_EES7_PKS4_m(ptr noundef nonnull align 8 dereferenceable(8) %call, ptr noundef nonnull @.str.82, i64 noundef 6)
          to label %invoke.cont4 unwind label %lpad

invoke.cont4:                                     ; preds = %invoke.cont
  invoke void @_ZNKSt3__115basic_stringbufIcNS_11char_traitsIcEENS_9allocatorIcEEE3strEv(ptr sret(%"class.std::__1::basic_string") align 8 %agg.result, ptr noundef nonnull align 8 dereferenceable(100) %__sb_.i)
          to label %invoke.cont6 unwind label %lpad

invoke.cont6:                                     ; preds = %invoke.cont4
  store ptr getelementptr inbounds ({ [5 x ptr], [5 x ptr], [5 x ptr] }, ptr @_ZTVNSt3__118basic_stringstreamIcNS_11char_traitsIcEENS_9allocatorIcEEEE, i64 0, inrange i32 0, i64 3), ptr %ss, align 8, !tbaa !8
  store ptr getelementptr inbounds ({ [5 x ptr], [5 x ptr], [5 x ptr] }, ptr @_ZTVNSt3__118basic_stringstreamIcNS_11char_traitsIcEENS_9allocatorIcEEEE, i64 0, inrange i32 2, i64 3), ptr %2, align 8, !tbaa !8
  store ptr getelementptr inbounds ({ [5 x ptr], [5 x ptr], [5 x ptr] }, ptr @_ZTVNSt3__118basic_stringstreamIcNS_11char_traitsIcEENS_9allocatorIcEEEE, i64 0, inrange i32 1, i64 3), ptr %add.ptr2.i, align 8, !tbaa !8
  store ptr getelementptr inbounds ({ [16 x ptr] }, ptr @_ZTVNSt3__115basic_stringbufIcNS_11char_traitsIcEENS_9allocatorIcEEEE, i64 0, inrange i32 0, i64 2), ptr %__sb_.i, align 8, !tbaa !8
  %bf.load.i.i.i.i.i = load i8, ptr %__str_.i.i, align 8
  %bf.clear.i.i.i.i.i = and i8 %bf.load.i.i.i.i.i, 1
  %tobool.i.not.i.i.i.i = icmp eq i8 %bf.clear.i.i.i.i.i, 0
  br i1 %tobool.i.not.i.i.i.i, label %_ZNSt3__118basic_stringstreamIcNS_11char_traitsIcEENS_9allocatorIcEEED1Ev.exit, label %if.then.i.i.i.i

if.then.i.i.i.i:                                  ; preds = %invoke.cont6
  %__data_.i.i.i.i.i = getelementptr inbounds %"class.std::__1::basic_stringstream", ptr %ss, i64 0, i32 1, i32 1, i32 0, i32 0, i32 0, i32 0, i32 0, i32 2
  %5 = load ptr, ptr %__data_.i.i.i.i.i, align 8, !tbaa !5
  call void @_ZdlPv(ptr noundef %5) #36
  br label %_ZNSt3__118basic_stringstreamIcNS_11char_traitsIcEENS_9allocatorIcEEED1Ev.exit

_ZNSt3__118basic_stringstreamIcNS_11char_traitsIcEENS_9allocatorIcEEED1Ev.exit: ; preds = %invoke.cont6, %if.then.i.i.i.i
  call void @_ZNSt3__115basic_streambufIcNS_11char_traitsIcEEED2Ev(ptr noundef nonnull align 8 dereferenceable(64) %__sb_.i) #35
  call void @_ZNSt3__114basic_iostreamIcNS_11char_traitsIcEEED2Ev(ptr noundef nonnull align 8 dereferenceable(24) %ss, ptr noundef nonnull getelementptr inbounds ([10 x ptr], ptr @_ZTTNSt3__118basic_stringstreamIcNS_11char_traitsIcEENS_9allocatorIcEEEE, i64 0, i64 1)) #35
  call void @_ZNSt3__19basic_iosIcNS_11char_traitsIcEEED2Ev(ptr noundef nonnull align 8 dereferenceable(148) %2) #35
  call void @llvm.lifetime.end.p0(i64 280, ptr nonnull %ss) #35
  br label %return

lpad:                                             ; preds = %invoke.cont4, %invoke.cont, %_ZNSt3__118basic_stringstreamIcNS_11char_traitsIcEENS_9allocatorIcEEEC1B7v170000Ev.exit
  %6 = landingpad { ptr, i32 }
          cleanup
  call void @_ZNSt3__118basic_stringstreamIcNS_11char_traitsIcEENS_9allocatorIcEEED1Ev(ptr noundef nonnull align 8 dereferenceable(128) %ss) #35
  call void @llvm.lifetime.end.p0(i64 280, ptr nonnull %ss) #35
  br label %common.resume

return:                                           ; preds = %_ZNSt3__118basic_stringstreamIcNS_11char_traitsIcEENS_9allocatorIcEEED1Ev.exit, %if.then3.i.i18, %if.then3.i.i
  ret void
}

declare i32 @__gxx_personality_v0(...)

; Function Attrs: inlinehint nounwind uwtable
declare void @_ZNSt3__112basic_stringIcNS_11char_traitsIcEENS_9allocatorIcEEED2Ev(ptr noundef nonnull align 8 dereferenceable(24)) unnamed_addr #3 align 2

; Function Attrs: mustprogress nocallback nofree nosync nounwind willreturn memory(argmem: readwrite)
declare void @llvm.lifetime.end.p0(i64 immarg, ptr nocapture) #1

; Function Attrs: mustprogress uwtable
define dso_local void @_ZN7testing7AtLeastEi(ptr noalias nocapture writeonly sret(%"class.testing::Cardinality") align 8 %agg.result, i32 noundef %n) local_unnamed_addr #4 {
entry:
  tail call void @_ZN7testing7BetweenEii(ptr sret(%"class.testing::Cardinality") align 8 %agg.result, i32 noundef %n, i32 noundef 2147483647)
  ret void
}

; Function Attrs: uwtable
define dso_local void @_ZN7testing7BetweenEii(ptr noalias nocapture writeonly sret(%"class.testing::Cardinality") align 8 %agg.result, i32 noundef %min, i32 noundef %max) local_unnamed_addr #0 personality ptr @__gxx_personality_v0 {
entry:
  %ss.i = alloca %"class.std::__1::basic_stringstream", align 8
  %ref.tmp.i = alloca %"class.std::__1::basic_string", align 8
  %ref.tmp33.i = alloca %"class.std::__1::basic_string", align 8
  %ref.tmp54.i = alloca %"class.std::__1::basic_string", align 8
  %call = tail call noalias noundef nonnull dereferenceable(16) ptr @_Znwm(i64 noundef 16) #37
  store ptr getelementptr inbounds ({ [9 x ptr] }, ptr @_ZTVN7testing12_GLOBAL__N_122BetweenCardinalityImplE, i64 0, inrange i32 0, i64 2), ptr %call, align 8, !tbaa !8
  %min_.i = getelementptr inbounds %"class.testing::(anonymous namespace)::BetweenCardinalityImpl", ptr %call, i64 0, i32 1
  %cond.i = tail call i32 @llvm.smax.i32(i32 %min, i32 0)
  store i32 %cond.i, ptr %min_.i, align 8, !tbaa !27
  %max_.i = getelementptr inbounds %"class.testing::(anonymous namespace)::BetweenCardinalityImpl", ptr %call, i64 0, i32 2
  %cond.max.i = tail call i32 @llvm.smax.i32(i32 %cond.i, i32 %max)
  store i32 %cond.max.i, ptr %max_.i, align 4, !tbaa !30
  call void @llvm.lifetime.start.p0(i64 280, ptr nonnull %ss.i) #35
  %0 = getelementptr inbounds i8, ptr %ss.i, i64 128
  %add.ptr2.i.i = getelementptr inbounds i8, ptr %ss.i, i64 16
  store ptr getelementptr inbounds ({ [5 x ptr], [5 x ptr], [5 x ptr] }, ptr @_ZTVNSt3__118basic_stringstreamIcNS_11char_traitsIcEENS_9allocatorIcEEEE, i64 0, inrange i32 1, i64 3), ptr %add.ptr2.i.i, align 8, !tbaa !8
  %__sb_.i.i = getelementptr inbounds %"class.std::__1::basic_stringstream", ptr %ss.i, i64 0, i32 1
  store ptr getelementptr inbounds ({ [5 x ptr], [5 x ptr] }, ptr @_ZTCNSt3__118basic_stringstreamIcNS_11char_traitsIcEENS_9allocatorIcEEEE0_NS_13basic_istreamIcS2_EE, i64 0, inrange i32 0, i64 3), ptr %ss.i, align 8, !tbaa !8
  store ptr getelementptr inbounds ({ [5 x ptr], [5 x ptr] }, ptr @_ZTCNSt3__118basic_stringstreamIcNS_11char_traitsIcEENS_9allocatorIcEEEE0_NS_13basic_istreamIcS2_EE, i64 0, inrange i32 1, i64 3), ptr %0, align 8, !tbaa !8
  %__gc_.i.i.i.i = getelementptr inbounds %"class.std::__1::basic_istream", ptr %ss.i, i64 0, i32 1
  store i64 0, ptr %__gc_.i.i.i.i, align 8, !tbaa !10
  invoke void @_ZNSt3__18ios_base4initEPv(ptr noundef nonnull align 8 dereferenceable(136) %0, ptr noundef nonnull %__sb_.i.i)
          to label %invoke.cont.i.i unwind label %lpad.i.i

invoke.cont.i.i:                                  ; preds = %entry
  %__tie_.i.i.i.i.i = getelementptr inbounds i8, ptr %ss.i, i64 264
  store ptr null, ptr %__tie_.i.i.i.i.i, align 8, !tbaa !13
  %__fill_.i.i.i.i.i = getelementptr inbounds i8, ptr %ss.i, i64 272
  store i32 -1, ptr %__fill_.i.i.i.i.i, align 8, !tbaa !18
  store ptr getelementptr inbounds ({ [5 x ptr], [5 x ptr], [5 x ptr] }, ptr @_ZTVNSt3__118basic_stringstreamIcNS_11char_traitsIcEENS_9allocatorIcEEEE, i64 0, inrange i32 0, i64 3), ptr %ss.i, align 8, !tbaa !8
  store ptr getelementptr inbounds ({ [5 x ptr], [5 x ptr], [5 x ptr] }, ptr @_ZTVNSt3__118basic_stringstreamIcNS_11char_traitsIcEENS_9allocatorIcEEEE, i64 0, inrange i32 2, i64 3), ptr %0, align 8, !tbaa !8
  store ptr getelementptr inbounds ({ [5 x ptr], [5 x ptr], [5 x ptr] }, ptr @_ZTVNSt3__118basic_stringstreamIcNS_11char_traitsIcEENS_9allocatorIcEEEE, i64 0, inrange i32 1, i64 3), ptr %add.ptr2.i.i, align 8, !tbaa !8
  invoke void @_ZNSt3__115basic_streambufIcNS_11char_traitsIcEEEC2Ev(ptr noundef nonnull align 8 dereferenceable(64) %__sb_.i.i)
          to label %invoke.cont.i unwind label %lpad6.i.i

lpad.i.i:                                         ; preds = %entry
  %1 = landingpad { ptr, i32 }
          cleanup
  br label %ehcleanup.i.i

lpad6.i.i:                                        ; preds = %invoke.cont.i.i
  %2 = landingpad { ptr, i32 }
          cleanup
  call void @_ZNSt3__114basic_iostreamIcNS_11char_traitsIcEEED2Ev(ptr noundef nonnull align 8 dereferenceable(24) %ss.i, ptr noundef nonnull getelementptr inbounds ([10 x ptr], ptr @_ZTTNSt3__118basic_stringstreamIcNS_11char_traitsIcEENS_9allocatorIcEEEE, i64 0, i64 1)) #35
  br label %ehcleanup.i.i

ehcleanup.i.i:                                    ; preds = %lpad6.i.i, %lpad.i.i
  %.pn.i.i = phi { ptr, i32 } [ %2, %lpad6.i.i ], [ %1, %lpad.i.i ]
  call void @_ZNSt3__19basic_iosIcNS_11char_traitsIcEEED2Ev(ptr noundef nonnull align 8 dereferenceable(148) %0) #35
  br label %ehcleanup64.i

invoke.cont.i:                                    ; preds = %invoke.cont.i.i
  store ptr getelementptr inbounds ({ [16 x ptr] }, ptr @_ZTVNSt3__115basic_stringbufIcNS_11char_traitsIcEENS_9allocatorIcEEEE, i64 0, inrange i32 0, i64 2), ptr %__sb_.i.i, align 8, !tbaa !8
  %__str_.i.i.i = getelementptr inbounds %"class.std::__1::basic_stringstream", ptr %ss.i, i64 0, i32 1, i32 1
  %__mode_.i.i.i = getelementptr inbounds %"class.std::__1::basic_stringstream", ptr %ss.i, i64 0, i32 1, i32 3
  call void @llvm.memset.p0.i64(ptr noundef nonnull align 8 dereferenceable(32) %__str_.i.i.i, i8 0, i64 32, i1 false)
  store i32 24, ptr %__mode_.i.i.i, align 8, !tbaa !19
  %cmp9.i = icmp slt i32 %min, 0
  br i1 %cmp9.i, label %if.then.i, label %if.else.i

if.then.i:                                        ; preds = %invoke.cont.i
  %call1.i84.i = invoke noundef nonnull align 8 dereferenceable(8) ptr @_ZNSt3__124__put_character_sequenceB7v170000IcNS_11char_traitsIcEEEERNS_13basic_ostreamIT_T0_EES7_PKS4_m(ptr noundef nonnull align 8 dereferenceable(8) %add.ptr2.i.i, ptr noundef nonnull @.str.83, i64 noundef 41)
          to label %invoke.cont11.i unwind label %lpad10.i

invoke.cont11.i:                                  ; preds = %if.then.i
  %call1.i86.i = invoke noundef nonnull align 8 dereferenceable(8) ptr @_ZNSt3__124__put_character_sequenceB7v170000IcNS_11char_traitsIcEEEERNS_13basic_ostreamIT_T0_EES7_PKS4_m(ptr noundef nonnull align 8 dereferenceable(8) %call1.i84.i, ptr noundef nonnull @.str.84, i64 noundef 16)
          to label %invoke.cont12.i unwind label %lpad10.i

invoke.cont12.i:                                  ; preds = %invoke.cont11.i
  %call15.i = invoke noundef nonnull align 8 dereferenceable(8) ptr @_ZNSt3__113basic_ostreamIcNS_11char_traitsIcEEElsEi(ptr noundef nonnull align 8 dereferenceable(8) %call1.i86.i, i32 noundef %min)
          to label %invoke.cont14.i unwind label %lpad10.i

invoke.cont14.i:                                  ; preds = %invoke.cont12.i
  %call1.i89.i = invoke noundef nonnull align 8 dereferenceable(8) ptr @_ZNSt3__124__put_character_sequenceB7v170000IcNS_11char_traitsIcEEEERNS_13basic_ostreamIT_T0_EES7_PKS4_m(ptr noundef nonnull align 8 dereferenceable(8) %call15.i, ptr noundef nonnull @.str.65, i64 noundef 1)
          to label %invoke.cont16.i unwind label %lpad10.i

invoke.cont16.i:                                  ; preds = %invoke.cont14.i
  call void @llvm.lifetime.start.p0(i64 24, ptr nonnull %ref.tmp.i) #35
  invoke void @_ZNKSt3__115basic_stringbufIcNS_11char_traitsIcEENS_9allocatorIcEEE3strEv(ptr nonnull sret(%"class.std::__1::basic_string") align 8 %ref.tmp.i, ptr noundef nonnull align 8 dereferenceable(100) %__sb_.i.i)
          to label %invoke.cont19.i unwind label %lpad18.i

invoke.cont19.i:                                  ; preds = %invoke.cont16.i
  %3 = load atomic i8, ptr @_ZGVZN7testing8internal18GetFailureReporterEvE16failure_reporter acquire, align 8
  %guard.uninitialized.i.i.i = icmp eq i8 %3, 0
  br i1 %guard.uninitialized.i.i.i, label %init.check.i.i.i, label %_ZN7testing8internal18GetFailureReporterEv.exit.i.i, !prof !31

init.check.i.i.i:                                 ; preds = %invoke.cont19.i
  %4 = call i32 @__cxa_guard_acquire(ptr nonnull @_ZGVZN7testing8internal18GetFailureReporterEvE16failure_reporter) #35
  %tobool.not.i.i.i = icmp eq i32 %4, 0
  br i1 %tobool.not.i.i.i, label %_ZN7testing8internal18GetFailureReporterEv.exit.i.i, label %init.i.i.i

init.i.i.i:                                       ; preds = %init.check.i.i.i
  %call.i.i.i = invoke noalias noundef nonnull dereferenceable(8) ptr @_Znwm(i64 noundef 8) #37
          to label %invoke.cont.i.i.i unwind label %lpad.i.i.i

invoke.cont.i.i.i:                                ; preds = %init.i.i.i
  store ptr getelementptr inbounds ({ [5 x ptr] }, ptr @_ZTVN7testing8internal25GoogleTestFailureReporterE, i64 0, inrange i32 0, i64 2), ptr %call.i.i.i, align 8, !tbaa !8
  store ptr %call.i.i.i, ptr @_ZZN7testing8internal18GetFailureReporterEvE16failure_reporter, align 8, !tbaa !32
  %5 = call ptr @llvm.invariant.start.p0(i64 8, ptr nonnull @_ZZN7testing8internal18GetFailureReporterEvE16failure_reporter)
  call void @__cxa_guard_release(ptr nonnull @_ZGVZN7testing8internal18GetFailureReporterEvE16failure_reporter) #35
  br label %_ZN7testing8internal18GetFailureReporterEv.exit.i.i

lpad.i.i.i:                                       ; preds = %init.i.i.i
  %6 = landingpad { ptr, i32 }
          cleanup
  call void @__cxa_guard_abort(ptr nonnull @_ZGVZN7testing8internal18GetFailureReporterEvE16failure_reporter) #35
  br label %lpad20.body.i

_ZN7testing8internal18GetFailureReporterEv.exit.i.i: ; preds = %invoke.cont.i.i.i, %init.check.i.i.i, %invoke.cont19.i
  %7 = load ptr, ptr @_ZZN7testing8internal18GetFailureReporterEvE16failure_reporter, align 8, !tbaa !32
  %vtable.i.i = load ptr, ptr %7, align 8, !tbaa !8
  %vfn.i.i = getelementptr inbounds ptr, ptr %vtable.i.i, i64 2
  %8 = load ptr, ptr %vfn.i.i, align 8
  invoke void %8(ptr noundef nonnull align 8 dereferenceable(8) %7, i32 noundef 0, ptr noundef nonnull @.str.85, i32 noundef 58, ptr noundef nonnull align 8 dereferenceable(24) %ref.tmp.i)
          to label %invoke.cont21.i unwind label %lpad20.i

invoke.cont21.i:                                  ; preds = %_ZN7testing8internal18GetFailureReporterEv.exit.i.i
  %bf.load.i.i.i = load i8, ptr %ref.tmp.i, align 8
  %bf.clear.i.i.i = and i8 %bf.load.i.i.i, 1
  %tobool.i.not.i.i = icmp eq i8 %bf.clear.i.i.i, 0
  br i1 %tobool.i.not.i.i, label %_ZNSt3__112basic_stringIcNS_11char_traitsIcEENS_9allocatorIcEEED2Ev.exit.i, label %if.then.i.i

if.then.i.i:                                      ; preds = %invoke.cont21.i
  %__data_.i.i.i = getelementptr inbounds %"struct.std::__1::basic_string<char>::__long", ptr %ref.tmp.i, i64 0, i32 2
  %9 = load ptr, ptr %__data_.i.i.i, align 8, !tbaa !5
  call void @_ZdlPv(ptr noundef %9) #36
  br label %_ZNSt3__112basic_stringIcNS_11char_traitsIcEENS_9allocatorIcEEED2Ev.exit.i

_ZNSt3__112basic_stringIcNS_11char_traitsIcEENS_9allocatorIcEEED2Ev.exit.i: ; preds = %if.then.i.i, %invoke.cont21.i
  call void @llvm.lifetime.end.p0(i64 24, ptr nonnull %ref.tmp.i) #35
  br label %if.end62.i

lpad10.i:                                         ; preds = %invoke.cont50.i, %invoke.cont48.i, %invoke.cont46.i, %invoke.cont44.i, %if.then42.i, %invoke.cont29.i, %invoke.cont27.i, %invoke.cont25.i, %if.then23.i, %invoke.cont14.i, %invoke.cont12.i, %invoke.cont11.i, %if.then.i
  %10 = landingpad { ptr, i32 }
          cleanup
  br label %ehcleanup63.i

lpad18.i:                                         ; preds = %invoke.cont16.i
  %11 = landingpad { ptr, i32 }
          cleanup
  br label %ehcleanup.i

lpad20.i:                                         ; preds = %_ZN7testing8internal18GetFailureReporterEv.exit.i.i
  %12 = landingpad { ptr, i32 }
          cleanup
  br label %lpad20.body.i

lpad20.body.i:                                    ; preds = %lpad20.i, %lpad.i.i.i
  %eh.lpad-body92.i = phi { ptr, i32 } [ %12, %lpad20.i ], [ %6, %lpad.i.i.i ]
  %bf.load.i.i93.i = load i8, ptr %ref.tmp.i, align 8
  %bf.clear.i.i94.i = and i8 %bf.load.i.i93.i, 1
  %tobool.i.not.i95.i = icmp eq i8 %bf.clear.i.i94.i, 0
  br i1 %tobool.i.not.i95.i, label %ehcleanup.i, label %if.then.i97.i

if.then.i97.i:                                    ; preds = %lpad20.body.i
  %__data_.i.i96.i = getelementptr inbounds %"struct.std::__1::basic_string<char>::__long", ptr %ref.tmp.i, i64 0, i32 2
  %13 = load ptr, ptr %__data_.i.i96.i, align 8, !tbaa !5
  call void @_ZdlPv(ptr noundef %13) #36
  br label %ehcleanup.i

ehcleanup.i:                                      ; preds = %if.then.i97.i, %lpad20.body.i, %lpad18.i
  %.pn80.i = phi { ptr, i32 } [ %11, %lpad18.i ], [ %eh.lpad-body92.i, %lpad20.body.i ], [ %eh.lpad-body92.i, %if.then.i97.i ]
  call void @llvm.lifetime.end.p0(i64 24, ptr nonnull %ref.tmp.i) #35
  br label %ehcleanup63.i

if.else.i:                                        ; preds = %invoke.cont.i
  %cmp22.i = icmp slt i32 %max, 0
  br i1 %cmp22.i, label %if.then23.i, label %if.else40.i

if.then23.i:                                      ; preds = %if.else.i
  %call1.i100.i = invoke noundef nonnull align 8 dereferenceable(8) ptr @_ZNSt3__124__put_character_sequenceB7v170000IcNS_11char_traitsIcEEEERNS_13basic_ostreamIT_T0_EES7_PKS4_m(ptr noundef nonnull align 8 dereferenceable(8) %add.ptr2.i.i, ptr noundef nonnull @.str.86, i64 noundef 41)
          to label %invoke.cont25.i unwind label %lpad10.i

invoke.cont25.i:                                  ; preds = %if.then23.i
  %call1.i103.i = invoke noundef nonnull align 8 dereferenceable(8) ptr @_ZNSt3__124__put_character_sequenceB7v170000IcNS_11char_traitsIcEEEERNS_13basic_ostreamIT_T0_EES7_PKS4_m(ptr noundef nonnull align 8 dereferenceable(8) %call1.i100.i, ptr noundef nonnull @.str.84, i64 noundef 16)
          to label %invoke.cont27.i unwind label %lpad10.i

invoke.cont27.i:                                  ; preds = %invoke.cont25.i
  %call30.i = invoke noundef nonnull align 8 dereferenceable(8) ptr @_ZNSt3__113basic_ostreamIcNS_11char_traitsIcEEElsEi(ptr noundef nonnull align 8 dereferenceable(8) %call1.i103.i, i32 noundef %max)
          to label %invoke.cont29.i unwind label %lpad10.i

invoke.cont29.i:                                  ; preds = %invoke.cont27.i
  %call1.i106.i = invoke noundef nonnull align 8 dereferenceable(8) ptr @_ZNSt3__124__put_character_sequenceB7v170000IcNS_11char_traitsIcEEEERNS_13basic_ostreamIT_T0_EES7_PKS4_m(ptr noundef nonnull align 8 dereferenceable(8) %call30.i, ptr noundef nonnull @.str.65, i64 noundef 1)
          to label %invoke.cont31.i unwind label %lpad10.i

invoke.cont31.i:                                  ; preds = %invoke.cont29.i
  call void @llvm.lifetime.start.p0(i64 24, ptr nonnull %ref.tmp33.i) #35
  invoke void @_ZNKSt3__115basic_stringbufIcNS_11char_traitsIcEENS_9allocatorIcEEE3strEv(ptr nonnull sret(%"class.std::__1::basic_string") align 8 %ref.tmp33.i, ptr noundef nonnull align 8 dereferenceable(100) %__sb_.i.i)
          to label %invoke.cont35.i unwind label %lpad34.i

invoke.cont35.i:                                  ; preds = %invoke.cont31.i
  %14 = load atomic i8, ptr @_ZGVZN7testing8internal18GetFailureReporterEvE16failure_reporter acquire, align 8
  %guard.uninitialized.i.i110.i = icmp eq i8 %14, 0
  br i1 %guard.uninitialized.i.i110.i, label %init.check.i.i113.i, label %_ZN7testing8internal18GetFailureReporterEv.exit.i120.i, !prof !31

init.check.i.i113.i:                              ; preds = %invoke.cont35.i
  %15 = call i32 @__cxa_guard_acquire(ptr nonnull @_ZGVZN7testing8internal18GetFailureReporterEvE16failure_reporter) #35
  %tobool.not.i.i112.i = icmp eq i32 %15, 0
  br i1 %tobool.not.i.i112.i, label %_ZN7testing8internal18GetFailureReporterEv.exit.i120.i, label %init.i.i115.i

init.i.i115.i:                                    ; preds = %init.check.i.i113.i
  %call.i.i114.i = invoke noalias noundef nonnull dereferenceable(8) ptr @_Znwm(i64 noundef 8) #37
          to label %invoke.cont.i.i116.i unwind label %lpad.i.i117.i

invoke.cont.i.i116.i:                             ; preds = %init.i.i115.i
  store ptr getelementptr inbounds ({ [5 x ptr] }, ptr @_ZTVN7testing8internal25GoogleTestFailureReporterE, i64 0, inrange i32 0, i64 2), ptr %call.i.i114.i, align 8, !tbaa !8
  store ptr %call.i.i114.i, ptr @_ZZN7testing8internal18GetFailureReporterEvE16failure_reporter, align 8, !tbaa !32
  %16 = call ptr @llvm.invariant.start.p0(i64 8, ptr nonnull @_ZZN7testing8internal18GetFailureReporterEvE16failure_reporter)
  call void @__cxa_guard_release(ptr nonnull @_ZGVZN7testing8internal18GetFailureReporterEvE16failure_reporter) #35
  br label %_ZN7testing8internal18GetFailureReporterEv.exit.i120.i

lpad.i.i117.i:                                    ; preds = %init.i.i115.i
  %17 = landingpad { ptr, i32 }
          cleanup
  call void @__cxa_guard_abort(ptr nonnull @_ZGVZN7testing8internal18GetFailureReporterEvE16failure_reporter) #35
  br label %lpad36.body.i

_ZN7testing8internal18GetFailureReporterEv.exit.i120.i: ; preds = %invoke.cont.i.i116.i, %init.check.i.i113.i, %invoke.cont35.i
  %18 = load ptr, ptr @_ZZN7testing8internal18GetFailureReporterEvE16failure_reporter, align 8, !tbaa !32
  %vtable.i118.i = load ptr, ptr %18, align 8, !tbaa !8
  %vfn.i119.i = getelementptr inbounds ptr, ptr %vtable.i118.i, i64 2
  %19 = load ptr, ptr %vfn.i119.i, align 8
  invoke void %19(ptr noundef nonnull align 8 dereferenceable(8) %18, i32 noundef 0, ptr noundef nonnull @.str.85, i32 noundef 62, ptr noundef nonnull align 8 dereferenceable(24) %ref.tmp33.i)
          to label %invoke.cont37.i unwind label %lpad36.i

invoke.cont37.i:                                  ; preds = %_ZN7testing8internal18GetFailureReporterEv.exit.i120.i
  %bf.load.i.i123.i = load i8, ptr %ref.tmp33.i, align 8
  %bf.clear.i.i124.i = and i8 %bf.load.i.i123.i, 1
  %tobool.i.not.i125.i = icmp eq i8 %bf.clear.i.i124.i, 0
  br i1 %tobool.i.not.i125.i, label %_ZNSt3__112basic_stringIcNS_11char_traitsIcEENS_9allocatorIcEEED2Ev.exit128.i, label %if.then.i127.i

if.then.i127.i:                                   ; preds = %invoke.cont37.i
  %__data_.i.i126.i = getelementptr inbounds %"struct.std::__1::basic_string<char>::__long", ptr %ref.tmp33.i, i64 0, i32 2
  %20 = load ptr, ptr %__data_.i.i126.i, align 8, !tbaa !5
  call void @_ZdlPv(ptr noundef %20) #36
  br label %_ZNSt3__112basic_stringIcNS_11char_traitsIcEENS_9allocatorIcEEED2Ev.exit128.i

_ZNSt3__112basic_stringIcNS_11char_traitsIcEENS_9allocatorIcEEED2Ev.exit128.i: ; preds = %if.then.i127.i, %invoke.cont37.i
  call void @llvm.lifetime.end.p0(i64 24, ptr nonnull %ref.tmp33.i) #35
  br label %if.end62.i

lpad34.i:                                         ; preds = %invoke.cont31.i
  %21 = landingpad { ptr, i32 }
          cleanup
  br label %ehcleanup39.i

lpad36.i:                                         ; preds = %_ZN7testing8internal18GetFailureReporterEv.exit.i120.i
  %22 = landingpad { ptr, i32 }
          cleanup
  br label %lpad36.body.i

lpad36.body.i:                                    ; preds = %lpad36.i, %lpad.i.i117.i
  %eh.lpad-body121.i = phi { ptr, i32 } [ %22, %lpad36.i ], [ %17, %lpad.i.i117.i ]
  %bf.load.i.i129.i = load i8, ptr %ref.tmp33.i, align 8
  %bf.clear.i.i130.i = and i8 %bf.load.i.i129.i, 1
  %tobool.i.not.i131.i = icmp eq i8 %bf.clear.i.i130.i, 0
  br i1 %tobool.i.not.i131.i, label %ehcleanup39.i, label %if.then.i133.i

if.then.i133.i:                                   ; preds = %lpad36.body.i
  %__data_.i.i132.i = getelementptr inbounds %"struct.std::__1::basic_string<char>::__long", ptr %ref.tmp33.i, i64 0, i32 2
  %23 = load ptr, ptr %__data_.i.i132.i, align 8, !tbaa !5
  call void @_ZdlPv(ptr noundef %23) #36
  br label %ehcleanup39.i

ehcleanup39.i:                                    ; preds = %if.then.i133.i, %lpad36.body.i, %lpad34.i
  %.pn78.i = phi { ptr, i32 } [ %21, %lpad34.i ], [ %eh.lpad-body121.i, %lpad36.body.i ], [ %eh.lpad-body121.i, %if.then.i133.i ]
  call void @llvm.lifetime.end.p0(i64 24, ptr nonnull %ref.tmp33.i) #35
  br label %ehcleanup63.i

if.else40.i:                                      ; preds = %if.else.i
  %cmp41.i = icmp ugt i32 %min, %max
  br i1 %cmp41.i, label %if.then42.i, label %if.end62.i

if.then42.i:                                      ; preds = %if.else40.i
  %call1.i136.i = invoke noundef nonnull align 8 dereferenceable(8) ptr @_ZNSt3__124__put_character_sequenceB7v170000IcNS_11char_traitsIcEEEERNS_13basic_ostreamIT_T0_EES7_PKS4_m(ptr noundef nonnull align 8 dereferenceable(8) %add.ptr2.i.i, ptr noundef nonnull @.str.87, i64 noundef 28)
          to label %invoke.cont44.i unwind label %lpad10.i

invoke.cont44.i:                                  ; preds = %if.then42.i
  %call47.i = invoke noundef nonnull align 8 dereferenceable(8) ptr @_ZNSt3__113basic_ostreamIcNS_11char_traitsIcEEElsEi(ptr noundef nonnull align 8 dereferenceable(8) %call1.i136.i, i32 noundef %max)
          to label %invoke.cont46.i unwind label %lpad10.i

invoke.cont46.i:                                  ; preds = %invoke.cont44.i
  %call1.i139.i = invoke noundef nonnull align 8 dereferenceable(8) ptr @_ZNSt3__124__put_character_sequenceB7v170000IcNS_11char_traitsIcEEEERNS_13basic_ostreamIT_T0_EES7_PKS4_m(ptr noundef nonnull align 8 dereferenceable(8) %call47.i, ptr noundef nonnull @.str.88, i64 noundef 41)
          to label %invoke.cont48.i unwind label %lpad10.i

invoke.cont48.i:                                  ; preds = %invoke.cont46.i
  %call51.i = invoke noundef nonnull align 8 dereferenceable(8) ptr @_ZNSt3__113basic_ostreamIcNS_11char_traitsIcEEElsEi(ptr noundef nonnull align 8 dereferenceable(8) %call1.i139.i, i32 noundef %min)
          to label %invoke.cont50.i unwind label %lpad10.i

invoke.cont50.i:                                  ; preds = %invoke.cont48.i
  %call1.i142.i = invoke noundef nonnull align 8 dereferenceable(8) ptr @_ZNSt3__124__put_character_sequenceB7v170000IcNS_11char_traitsIcEEEERNS_13basic_ostreamIT_T0_EES7_PKS4_m(ptr noundef nonnull align 8 dereferenceable(8) %call51.i, ptr noundef nonnull @.str.89, i64 noundef 2)
          to label %invoke.cont52.i unwind label %lpad10.i

invoke.cont52.i:                                  ; preds = %invoke.cont50.i
  call void @llvm.lifetime.start.p0(i64 24, ptr nonnull %ref.tmp54.i) #35
  invoke void @_ZNKSt3__115basic_stringbufIcNS_11char_traitsIcEENS_9allocatorIcEEE3strEv(ptr nonnull sret(%"class.std::__1::basic_string") align 8 %ref.tmp54.i, ptr noundef nonnull align 8 dereferenceable(100) %__sb_.i.i)
          to label %invoke.cont56.i unwind label %lpad55.i

invoke.cont56.i:                                  ; preds = %invoke.cont52.i
  %24 = load atomic i8, ptr @_ZGVZN7testing8internal18GetFailureReporterEvE16failure_reporter acquire, align 8
  %guard.uninitialized.i.i146.i = icmp eq i8 %24, 0
  br i1 %guard.uninitialized.i.i146.i, label %init.check.i.i149.i, label %_ZN7testing8internal18GetFailureReporterEv.exit.i156.i, !prof !31

init.check.i.i149.i:                              ; preds = %invoke.cont56.i
  %25 = call i32 @__cxa_guard_acquire(ptr nonnull @_ZGVZN7testing8internal18GetFailureReporterEvE16failure_reporter) #35
  %tobool.not.i.i148.i = icmp eq i32 %25, 0
  br i1 %tobool.not.i.i148.i, label %_ZN7testing8internal18GetFailureReporterEv.exit.i156.i, label %init.i.i151.i

init.i.i151.i:                                    ; preds = %init.check.i.i149.i
  %call.i.i150.i = invoke noalias noundef nonnull dereferenceable(8) ptr @_Znwm(i64 noundef 8) #37
          to label %invoke.cont.i.i152.i unwind label %lpad.i.i153.i

invoke.cont.i.i152.i:                             ; preds = %init.i.i151.i
  store ptr getelementptr inbounds ({ [5 x ptr] }, ptr @_ZTVN7testing8internal25GoogleTestFailureReporterE, i64 0, inrange i32 0, i64 2), ptr %call.i.i150.i, align 8, !tbaa !8
  store ptr %call.i.i150.i, ptr @_ZZN7testing8internal18GetFailureReporterEvE16failure_reporter, align 8, !tbaa !32
  %26 = call ptr @llvm.invariant.start.p0(i64 8, ptr nonnull @_ZZN7testing8internal18GetFailureReporterEvE16failure_reporter)
  call void @__cxa_guard_release(ptr nonnull @_ZGVZN7testing8internal18GetFailureReporterEvE16failure_reporter) #35
  br label %_ZN7testing8internal18GetFailureReporterEv.exit.i156.i

lpad.i.i153.i:                                    ; preds = %init.i.i151.i
  %27 = landingpad { ptr, i32 }
          cleanup
  call void @__cxa_guard_abort(ptr nonnull @_ZGVZN7testing8internal18GetFailureReporterEvE16failure_reporter) #35
  br label %lpad57.body.i

_ZN7testing8internal18GetFailureReporterEv.exit.i156.i: ; preds = %invoke.cont.i.i152.i, %init.check.i.i149.i, %invoke.cont56.i
  %28 = load ptr, ptr @_ZZN7testing8internal18GetFailureReporterEvE16failure_reporter, align 8, !tbaa !32
  %vtable.i154.i = load ptr, ptr %28, align 8, !tbaa !8
  %vfn.i155.i = getelementptr inbounds ptr, ptr %vtable.i154.i, i64 2
  %29 = load ptr, ptr %vfn.i155.i, align 8
  invoke void %29(ptr noundef nonnull align 8 dereferenceable(8) %28, i32 noundef 0, ptr noundef nonnull @.str.85, i32 noundef 67, ptr noundef nonnull align 8 dereferenceable(24) %ref.tmp54.i)
          to label %invoke.cont58.i unwind label %lpad57.i

invoke.cont58.i:                                  ; preds = %_ZN7testing8internal18GetFailureReporterEv.exit.i156.i
  %bf.load.i.i159.i = load i8, ptr %ref.tmp54.i, align 8
  %bf.clear.i.i160.i = and i8 %bf.load.i.i159.i, 1
  %tobool.i.not.i161.i = icmp eq i8 %bf.clear.i.i160.i, 0
  br i1 %tobool.i.not.i161.i, label %_ZNSt3__112basic_stringIcNS_11char_traitsIcEENS_9allocatorIcEEED2Ev.exit164.i, label %if.then.i163.i

if.then.i163.i:                                   ; preds = %invoke.cont58.i
  %__data_.i.i162.i = getelementptr inbounds %"struct.std::__1::basic_string<char>::__long", ptr %ref.tmp54.i, i64 0, i32 2
  %30 = load ptr, ptr %__data_.i.i162.i, align 8, !tbaa !5
  call void @_ZdlPv(ptr noundef %30) #36
  br label %_ZNSt3__112basic_stringIcNS_11char_traitsIcEENS_9allocatorIcEEED2Ev.exit164.i

_ZNSt3__112basic_stringIcNS_11char_traitsIcEENS_9allocatorIcEEED2Ev.exit164.i: ; preds = %if.then.i163.i, %invoke.cont58.i
  call void @llvm.lifetime.end.p0(i64 24, ptr nonnull %ref.tmp54.i) #35
  br label %if.end62.i

lpad55.i:                                         ; preds = %invoke.cont52.i
  %31 = landingpad { ptr, i32 }
          cleanup
  br label %ehcleanup60.i

lpad57.i:                                         ; preds = %_ZN7testing8internal18GetFailureReporterEv.exit.i156.i
  %32 = landingpad { ptr, i32 }
          cleanup
  br label %lpad57.body.i

lpad57.body.i:                                    ; preds = %lpad57.i, %lpad.i.i153.i
  %eh.lpad-body157.i = phi { ptr, i32 } [ %32, %lpad57.i ], [ %27, %lpad.i.i153.i ]
  %bf.load.i.i165.i = load i8, ptr %ref.tmp54.i, align 8
  %bf.clear.i.i166.i = and i8 %bf.load.i.i165.i, 1
  %tobool.i.not.i167.i = icmp eq i8 %bf.clear.i.i166.i, 0
  br i1 %tobool.i.not.i167.i, label %ehcleanup60.i, label %if.then.i169.i

if.then.i169.i:                                   ; preds = %lpad57.body.i
  %__data_.i.i168.i = getelementptr inbounds %"struct.std::__1::basic_string<char>::__long", ptr %ref.tmp54.i, i64 0, i32 2
  %33 = load ptr, ptr %__data_.i.i168.i, align 8, !tbaa !5
  call void @_ZdlPv(ptr noundef %33) #36
  br label %ehcleanup60.i

ehcleanup60.i:                                    ; preds = %if.then.i169.i, %lpad57.body.i, %lpad55.i
  %.pn.i = phi { ptr, i32 } [ %31, %lpad55.i ], [ %eh.lpad-body157.i, %lpad57.body.i ], [ %eh.lpad-body157.i, %if.then.i169.i ]
  call void @llvm.lifetime.end.p0(i64 24, ptr nonnull %ref.tmp54.i) #35
  br label %ehcleanup63.i

if.end62.i:                                       ; preds = %_ZNSt3__112basic_stringIcNS_11char_traitsIcEENS_9allocatorIcEEED2Ev.exit164.i, %if.else40.i, %_ZNSt3__112basic_stringIcNS_11char_traitsIcEENS_9allocatorIcEEED2Ev.exit128.i, %_ZNSt3__112basic_stringIcNS_11char_traitsIcEENS_9allocatorIcEEED2Ev.exit.i
  store ptr getelementptr inbounds ({ [5 x ptr], [5 x ptr], [5 x ptr] }, ptr @_ZTVNSt3__118basic_stringstreamIcNS_11char_traitsIcEENS_9allocatorIcEEEE, i64 0, inrange i32 0, i64 3), ptr %ss.i, align 8, !tbaa !8
  store ptr getelementptr inbounds ({ [5 x ptr], [5 x ptr], [5 x ptr] }, ptr @_ZTVNSt3__118basic_stringstreamIcNS_11char_traitsIcEENS_9allocatorIcEEEE, i64 0, inrange i32 2, i64 3), ptr %0, align 8, !tbaa !8
  store ptr getelementptr inbounds ({ [5 x ptr], [5 x ptr], [5 x ptr] }, ptr @_ZTVNSt3__118basic_stringstreamIcNS_11char_traitsIcEENS_9allocatorIcEEEE, i64 0, inrange i32 1, i64 3), ptr %add.ptr2.i.i, align 8, !tbaa !8
  store ptr getelementptr inbounds ({ [16 x ptr] }, ptr @_ZTVNSt3__115basic_stringbufIcNS_11char_traitsIcEENS_9allocatorIcEEEE, i64 0, inrange i32 0, i64 2), ptr %__sb_.i.i, align 8, !tbaa !8
  %bf.load.i.i.i.i.i.i = load i8, ptr %__str_.i.i.i, align 8
  %bf.clear.i.i.i.i.i.i = and i8 %bf.load.i.i.i.i.i.i, 1
  %tobool.i.not.i.i.i.i.i = icmp eq i8 %bf.clear.i.i.i.i.i.i, 0
  br i1 %tobool.i.not.i.i.i.i.i, label %invoke.cont, label %if.then.i.i.i.i.i

if.then.i.i.i.i.i:                                ; preds = %if.end62.i
  %__data_.i.i.i.i.i.i = getelementptr inbounds %"class.std::__1::basic_stringstream", ptr %ss.i, i64 0, i32 1, i32 1, i32 0, i32 0, i32 0, i32 0, i32 0, i32 2
  %34 = load ptr, ptr %__data_.i.i.i.i.i.i, align 8, !tbaa !5
  call void @_ZdlPv(ptr noundef %34) #36
  br label %invoke.cont

ehcleanup63.i:                                    ; preds = %ehcleanup60.i, %ehcleanup39.i, %ehcleanup.i, %lpad10.i
  %.pn80.pn.i = phi { ptr, i32 } [ %.pn80.i, %ehcleanup.i ], [ %10, %lpad10.i ], [ %.pn78.i, %ehcleanup39.i ], [ %.pn.i, %ehcleanup60.i ]
  call void @_ZNSt3__118basic_stringstreamIcNS_11char_traitsIcEENS_9allocatorIcEEED1Ev(ptr noundef nonnull align 8 dereferenceable(128) %ss.i) #35
  br label %ehcleanup64.i

ehcleanup64.i:                                    ; preds = %ehcleanup63.i, %ehcleanup.i.i
  %.pn80.pn.pn.i = phi { ptr, i32 } [ %.pn80.pn.i, %ehcleanup63.i ], [ %.pn.i.i, %ehcleanup.i.i ]
  call void @llvm.lifetime.end.p0(i64 280, ptr nonnull %ss.i) #35
  call void @_ZdlPv(ptr noundef nonnull %call) #36
  br label %common.resume

invoke.cont:                                      ; preds = %if.then.i.i.i.i.i, %if.end62.i
  call void @_ZNSt3__115basic_streambufIcNS_11char_traitsIcEEED2Ev(ptr noundef nonnull align 8 dereferenceable(64) %__sb_.i.i) #35
  call void @_ZNSt3__114basic_iostreamIcNS_11char_traitsIcEEED2Ev(ptr noundef nonnull align 8 dereferenceable(24) %ss.i, ptr noundef nonnull getelementptr inbounds ([10 x ptr], ptr @_ZTTNSt3__118basic_stringstreamIcNS_11char_traitsIcEENS_9allocatorIcEEEE, i64 0, i64 1)) #35
  call void @_ZNSt3__19basic_iosIcNS_11char_traitsIcEEED2Ev(ptr noundef nonnull align 8 dereferenceable(148) %0) #35
  call void @llvm.lifetime.end.p0(i64 280, ptr nonnull %ss.i) #35
  store ptr %call, ptr %agg.result, align 8, !tbaa !33
  %call.i.i = invoke noalias noundef nonnull dereferenceable(32) ptr @_Znwm(i64 noundef 32) #37
          to label %_ZN7testing11CardinalityC2EPKNS_20CardinalityInterfaceE.exit unwind label %lpad.i.i2

common.resume:                                    ; preds = %ehcleanup64.i, %lpad.i.i2
  %common.resume.op = phi { ptr, i32 } [ %35, %lpad.i.i2 ], [ %.pn80.pn.pn.i, %ehcleanup64.i ]
  resume { ptr, i32 } %common.resume.op

lpad.i.i2:                                        ; preds = %invoke.cont
  %35 = landingpad { ptr, i32 }
          cleanup
  %vtable.i.i.i14.i.i = load ptr, ptr %call, align 8, !tbaa !8
  %vfn.i.i.i15.i.i = getelementptr inbounds ptr, ptr %vtable.i.i.i14.i.i, i64 1
  %36 = load ptr, ptr %vfn.i.i.i15.i.i, align 8
  call void %36(ptr noundef nonnull align 8 dereferenceable(8) %call) #35
  br label %common.resume

_ZN7testing11CardinalityC2EPKNS_20CardinalityInterfaceE.exit: ; preds = %invoke.cont
  %__shared_owners_.i.i.i.i.i = getelementptr inbounds %"class.std::__1::__shared_count", ptr %call.i.i, i64 0, i32 1
  call void @llvm.memset.p0.i64(ptr noundef nonnull align 8 dereferenceable(16) %__shared_owners_.i.i.i.i.i, i8 0, i64 16, i1 false)
  store ptr getelementptr inbounds ({ [7 x ptr] }, ptr @_ZTVNSt3__120__shared_ptr_pointerIPKN7testing20CardinalityInterfaceENS_10shared_ptrIS3_E27__shared_ptr_default_deleteIS3_S3_EENS_9allocatorIS3_EEEE, i64 0, inrange i32 0, i64 2), ptr %call.i.i, align 8, !tbaa !8
  %__data_.i.i.i3 = getelementptr inbounds %"class.std::__1::__shared_ptr_pointer", ptr %call.i.i, i64 0, i32 1
  %37 = ptrtoint ptr %call to i64
  store i64 %37, ptr %__data_.i.i.i3, align 8
  %__cntrl_.i.i = getelementptr inbounds %"class.std::__1::shared_ptr", ptr %agg.result, i64 0, i32 1
  store ptr %call.i.i, ptr %__cntrl_.i.i, align 8, !tbaa !35
  ret void
}

; Function Attrs: mustprogress uwtable
define dso_local void @_ZN7testing6AtMostEi(ptr noalias nocapture writeonly sret(%"class.testing::Cardinality") align 8 %agg.result, i32 noundef %n) local_unnamed_addr #4 {
entry:
  tail call void @_ZN7testing7BetweenEii(ptr sret(%"class.testing::Cardinality") align 8 %agg.result, i32 noundef 0, i32 noundef %n)
  ret void
}

; Function Attrs: mustprogress uwtable
define dso_local void @_ZN7testing9AnyNumberEv(ptr noalias nocapture writeonly sret(%"class.testing::Cardinality") align 8 %agg.result) local_unnamed_addr #4 {
entry:
  tail call void @_ZN7testing7BetweenEii(ptr sret(%"class.testing::Cardinality") align 8 %agg.result, i32 noundef 0, i32 noundef 2147483647)
  ret void
}

; Function Attrs: nobuiltin allocsize(0)
declare noundef nonnull ptr @_Znwm(i64 noundef) local_unnamed_addr #5

; Function Attrs: nobuiltin nounwind
declare void @_ZdlPv(ptr noundef) local_unnamed_addr #6

; Function Attrs: mustprogress uwtable
define dso_local void @_ZN7testing7ExactlyEi(ptr noalias nocapture writeonly sret(%"class.testing::Cardinality") align 8 %agg.result, i32 noundef %n) local_unnamed_addr #4 {
entry:
  tail call void @_ZN7testing7BetweenEii(ptr sret(%"class.testing::Cardinality") align 8 %agg.result, i32 noundef %n, i32 noundef %n)
  ret void
}

; Function Attrs: uwtable
define dso_local void @_ZN7testing8internal19JoinAsKeyValueTupleERKNSt3__16vectorIPKcNS1_9allocatorIS4_EEEERKNS2_INS1_12basic_stringIcNS1_11char_traitsIcEENS5_IcEEEENS5_ISE_EEEE(ptr noalias sret(%"class.std::__1::basic_string") align 8 %agg.result, ptr noundef nonnull align 8 dereferenceable(24) %names, ptr noundef nonnull align 8 dereferenceable(24) %values) local_unnamed_addr #0 personality ptr @__gxx_personality_v0 {
entry:
  %ref.tmp = alloca %"class.testing::internal::GTestLog", align 4
  %build_one = alloca %class.anon, align 8
  %ref.tmp9 = alloca %"class.std::__1::basic_string", align 8
  %ref.tmp17 = alloca %"class.std::__1::basic_string", align 8
  %__end_.i = getelementptr inbounds %"class.std::__1::vector", ptr %names, i64 0, i32 1
  %0 = load ptr, ptr %__end_.i, align 8, !tbaa !36
  %1 = load ptr, ptr %names, align 8, !tbaa !40
  %sub.ptr.lhs.cast.i = ptrtoint ptr %0 to i64
  %sub.ptr.rhs.cast.i = ptrtoint ptr %1 to i64
  %sub.ptr.sub.i = sub i64 %sub.ptr.lhs.cast.i, %sub.ptr.rhs.cast.i
  %sub.ptr.div.i = ashr exact i64 %sub.ptr.sub.i, 3
  %__end_.i41 = getelementptr inbounds %"class.std::__1::vector.8", ptr %values, i64 0, i32 1
  %2 = load ptr, ptr %__end_.i41, align 8, !tbaa !41
  %3 = load ptr, ptr %values, align 8, !tbaa !45
  %sub.ptr.lhs.cast.i42 = ptrtoint ptr %2 to i64
  %sub.ptr.rhs.cast.i43 = ptrtoint ptr %3 to i64
  %sub.ptr.sub.i44 = sub i64 %sub.ptr.lhs.cast.i42, %sub.ptr.rhs.cast.i43
  %sub.ptr.div.i45 = sdiv exact i64 %sub.ptr.sub.i44, 24
  %cmp = icmp eq i64 %sub.ptr.div.i, %sub.ptr.div.i45
  %call2 = tail call noundef zeroext i1 @_ZN7testing8internal6IsTrueEb(i1 noundef zeroext %cmp)
  br i1 %call2, label %if.end, label %if.else

if.else:                                          ; preds = %entry
  call void @llvm.lifetime.start.p0(i64 4, ptr nonnull %ref.tmp) #35
  call void @_ZN7testing8internal8GTestLogC1ENS0_16GTestLogSeverityEPKci(ptr noundef nonnull align 4 dereferenceable(4) %ref.tmp, i32 noundef 3, ptr noundef nonnull @.str.2, i32 noundef 60)
  %call1.i46 = invoke noundef nonnull align 8 dereferenceable(8) ptr @_ZNSt3__124__put_character_sequenceB7v170000IcNS_11char_traitsIcEEEERNS_13basic_ostreamIT_T0_EES7_PKS4_m(ptr noundef nonnull align 8 dereferenceable(8) @_ZNSt3__14cerrE, ptr noundef nonnull @.str.3, i64 noundef 48)
          to label %invoke.cont4 unwind label %lpad

invoke.cont4:                                     ; preds = %if.else
  call void @_ZN7testing8internal8GTestLogD1Ev(ptr noundef nonnull align 4 dereferenceable(4) %ref.tmp) #35
  call void @llvm.lifetime.end.p0(i64 4, ptr nonnull %ref.tmp) #35
  br label %if.end

lpad:                                             ; preds = %if.else
  %4 = landingpad { ptr, i32 }
          cleanup
  call void @_ZN7testing8internal8GTestLogD1Ev(ptr noundef nonnull align 4 dereferenceable(4) %ref.tmp) #35
  call void @llvm.lifetime.end.p0(i64 4, ptr nonnull %ref.tmp) #35
  br label %eh.resume

if.end:                                           ; preds = %entry, %invoke.cont4
  %5 = load ptr, ptr %values, align 8, !tbaa !45
  %6 = load ptr, ptr %__end_.i41, align 8, !tbaa !41
  %cmp.i = icmp eq ptr %5, %6
  br i1 %cmp.i, label %if.then3.i.i, label %if.end8

if.then3.i.i:                                     ; preds = %if.end
  store i8 0, ptr %agg.result, align 8
  %__data_.i.i.i = getelementptr inbounds %"struct.std::__1::basic_string<char>::__short", ptr %agg.result, i64 0, i32 2
  store i8 0, ptr %__data_.i.i.i, align 1, !tbaa !5
  br label %return

if.end8:                                          ; preds = %if.end
  call void @llvm.lifetime.start.p0(i64 16, ptr nonnull %build_one) #35
  store ptr %names, ptr %build_one, align 8, !tbaa !32
  %7 = getelementptr inbounds %class.anon, ptr %build_one, i64 0, i32 1
  store ptr %values, ptr %7, align 8, !tbaa !32
  call void @llvm.lifetime.start.p0(i64 24, ptr nonnull %ref.tmp9) #35
  call fastcc void @"_ZZN7testing8internal19JoinAsKeyValueTupleERKNSt3__16vectorIPKcNS1_9allocatorIS4_EEEERKNS2_INS1_12basic_stringIcNS1_11char_traitsIcEENS5_IcEEEENS5_ISE_EEEEENK3$_0clEm"(ptr noalias nonnull align 8 %ref.tmp9, ptr noundef nonnull align 8 dereferenceable(16) %build_one, i64 noundef 0)
  %call.i49 = invoke noundef nonnull align 8 dereferenceable(24) ptr @_ZNSt3__112basic_stringIcNS_11char_traitsIcEENS_9allocatorIcEEE6insertEmPKc(ptr noundef nonnull align 8 dereferenceable(24) %ref.tmp9, i64 noundef 0, ptr noundef nonnull @.str.5)
          to label %invoke.cont11 unwind label %lpad10

invoke.cont11:                                    ; preds = %if.end8
  call void @llvm.memcpy.p0.p0.i64(ptr noundef nonnull align 8 dereferenceable(24) %agg.result, ptr noundef nonnull align 8 dereferenceable(24) %call.i49, i64 24, i1 false)
  call void @llvm.memset.p0.i64(ptr noundef nonnull align 8 dereferenceable(24) %call.i49, i8 0, i64 24, i1 false), !noalias !46
  %bf.load.i.i = load i8, ptr %ref.tmp9, align 8
  %bf.clear.i.i = and i8 %bf.load.i.i, 1
  %tobool.i.not.i = icmp eq i8 %bf.clear.i.i, 0
  br i1 %tobool.i.not.i, label %_ZNSt3__112basic_stringIcNS_11char_traitsIcEENS_9allocatorIcEEED2Ev.exit, label %if.then.i

if.then.i:                                        ; preds = %invoke.cont11
  %__data_.i.i = getelementptr inbounds %"struct.std::__1::basic_string<char>::__long", ptr %ref.tmp9, i64 0, i32 2
  %8 = load ptr, ptr %__data_.i.i, align 8, !tbaa !5
  call void @_ZdlPv(ptr noundef %8) #36
  br label %_ZNSt3__112basic_stringIcNS_11char_traitsIcEENS_9allocatorIcEEED2Ev.exit

_ZNSt3__112basic_stringIcNS_11char_traitsIcEENS_9allocatorIcEEED2Ev.exit: ; preds = %invoke.cont11, %if.then.i
  call void @llvm.lifetime.end.p0(i64 24, ptr nonnull %ref.tmp9) #35
  %9 = load ptr, ptr %__end_.i41, align 8, !tbaa !41
  %10 = load ptr, ptr %values, align 8, !tbaa !45
  %sub.ptr.lhs.cast.i5183 = ptrtoint ptr %9 to i64
  %sub.ptr.rhs.cast.i5284 = ptrtoint ptr %10 to i64
  %sub.ptr.sub.i5385 = sub i64 %sub.ptr.lhs.cast.i5183, %sub.ptr.rhs.cast.i5284
  %sub.ptr.div.i5486 = sdiv exact i64 %sub.ptr.sub.i5385, 24
  %cmp1387 = icmp ugt i64 %sub.ptr.div.i5486, 1
  br i1 %cmp1387, label %for.body.lr.ph, label %for.cond.cleanup

for.body.lr.ph:                                   ; preds = %_ZNSt3__112basic_stringIcNS_11char_traitsIcEENS_9allocatorIcEEED2Ev.exit
  %__data_.i.i.i.i.i = getelementptr inbounds %"struct.std::__1::basic_string<char>::__long", ptr %ref.tmp17, i64 0, i32 2
  %__data_.i4.i.i.i.i = getelementptr inbounds %"struct.std::__1::basic_string<char>::__short", ptr %ref.tmp17, i64 0, i32 2
  %__size_.i.i.i.i = getelementptr inbounds %"struct.std::__1::basic_string<char>::__long", ptr %ref.tmp17, i64 0, i32 1
  br label %for.body

for.cond.cleanup:                                 ; preds = %_ZNSt3__112basic_stringIcNS_11char_traitsIcEENS_9allocatorIcEEED2Ev.exit70, %_ZNSt3__112basic_stringIcNS_11char_traitsIcEENS_9allocatorIcEEED2Ev.exit
  %call.i55 = invoke noundef nonnull align 8 dereferenceable(24) ptr @_ZNSt3__112basic_stringIcNS_11char_traitsIcEENS_9allocatorIcEEE6appendEPKc(ptr noundef nonnull align 8 dereferenceable(24) %agg.result, ptr noundef nonnull @.str.7)
          to label %nrvo.skipdtor unwind label %lpad24

lpad10:                                           ; preds = %if.end8
  %11 = landingpad { ptr, i32 }
          cleanup
  %bf.load.i.i56 = load i8, ptr %ref.tmp9, align 8
  %bf.clear.i.i57 = and i8 %bf.load.i.i56, 1
  %tobool.i.not.i58 = icmp eq i8 %bf.clear.i.i57, 0
  br i1 %tobool.i.not.i58, label %_ZNSt3__112basic_stringIcNS_11char_traitsIcEENS_9allocatorIcEEED2Ev.exit61, label %if.then.i60

if.then.i60:                                      ; preds = %lpad10
  %__data_.i.i59 = getelementptr inbounds %"struct.std::__1::basic_string<char>::__long", ptr %ref.tmp9, i64 0, i32 2
  %12 = load ptr, ptr %__data_.i.i59, align 8, !tbaa !5
  call void @_ZdlPv(ptr noundef %12) #36
  br label %_ZNSt3__112basic_stringIcNS_11char_traitsIcEENS_9allocatorIcEEED2Ev.exit61

_ZNSt3__112basic_stringIcNS_11char_traitsIcEENS_9allocatorIcEEED2Ev.exit61: ; preds = %lpad10, %if.then.i60
  call void @llvm.lifetime.end.p0(i64 24, ptr nonnull %ref.tmp9) #35
  br label %ehcleanup28

for.body:                                         ; preds = %for.body.lr.ph, %_ZNSt3__112basic_stringIcNS_11char_traitsIcEENS_9allocatorIcEEED2Ev.exit70
  %i.088 = phi i64 [ 1, %for.body.lr.ph ], [ %inc, %_ZNSt3__112basic_stringIcNS_11char_traitsIcEENS_9allocatorIcEEED2Ev.exit70 ]
  %call.i62 = invoke noundef nonnull align 8 dereferenceable(24) ptr @_ZNSt3__112basic_stringIcNS_11char_traitsIcEENS_9allocatorIcEEE6appendEPKc(ptr noundef nonnull align 8 dereferenceable(24) %agg.result, ptr noundef nonnull @.str.6)
          to label %invoke.cont15 unwind label %lpad14

invoke.cont15:                                    ; preds = %for.body
  call void @llvm.lifetime.start.p0(i64 24, ptr nonnull %ref.tmp17) #35
  invoke fastcc void @"_ZZN7testing8internal19JoinAsKeyValueTupleERKNSt3__16vectorIPKcNS1_9allocatorIS4_EEEERKNS2_INS1_12basic_stringIcNS1_11char_traitsIcEENS5_IcEEEENS5_ISE_EEEEENK3$_0clEm"(ptr noalias nonnull align 8 %ref.tmp17, ptr noundef nonnull align 8 dereferenceable(16) %build_one, i64 noundef %i.088)
          to label %invoke.cont19 unwind label %lpad18

invoke.cont19:                                    ; preds = %invoke.cont15
  %bf.load.i.i.i.i.i = load i8, ptr %ref.tmp17, align 8
  %bf.clear.i.i.i.i.i = and i8 %bf.load.i.i.i.i.i, 1
  %tobool.i.not.i.i.i.i = icmp eq i8 %bf.clear.i.i.i.i.i, 0
  %13 = load ptr, ptr %__data_.i.i.i.i.i, align 8
  %cond.i.i.i.i = select i1 %tobool.i.not.i.i.i.i, ptr %__data_.i4.i.i.i.i, ptr %13
  %14 = load i64, ptr %__size_.i.i.i.i, align 8
  %bf.lshr.i.i.i.i = lshr i8 %bf.load.i.i.i.i.i, 1
  %conv.i.i.i.i = zext i8 %bf.lshr.i.i.i.i to i64
  %cond.i.i.i = select i1 %tobool.i.not.i.i.i.i, i64 %conv.i.i.i.i, i64 %14
  %call3.i.i64 = invoke noundef nonnull align 8 dereferenceable(24) ptr @_ZNSt3__112basic_stringIcNS_11char_traitsIcEENS_9allocatorIcEEE6appendEPKcm(ptr noundef nonnull align 8 dereferenceable(24) %agg.result, ptr noundef %cond.i.i.i.i, i64 noundef %cond.i.i.i)
          to label %invoke.cont21 unwind label %lpad20

invoke.cont21:                                    ; preds = %invoke.cont19
  %bf.load.i.i65 = load i8, ptr %ref.tmp17, align 8
  %bf.clear.i.i66 = and i8 %bf.load.i.i65, 1
  %tobool.i.not.i67 = icmp eq i8 %bf.clear.i.i66, 0
  br i1 %tobool.i.not.i67, label %_ZNSt3__112basic_stringIcNS_11char_traitsIcEENS_9allocatorIcEEED2Ev.exit70, label %if.then.i69

if.then.i69:                                      ; preds = %invoke.cont21
  %15 = load ptr, ptr %__data_.i.i.i.i.i, align 8, !tbaa !5
  call void @_ZdlPv(ptr noundef %15) #36
  br label %_ZNSt3__112basic_stringIcNS_11char_traitsIcEENS_9allocatorIcEEED2Ev.exit70

_ZNSt3__112basic_stringIcNS_11char_traitsIcEENS_9allocatorIcEEED2Ev.exit70: ; preds = %invoke.cont21, %if.then.i69
  call void @llvm.lifetime.end.p0(i64 24, ptr nonnull %ref.tmp17) #35
  %inc = add nuw i64 %i.088, 1
  %16 = load ptr, ptr %__end_.i41, align 8, !tbaa !41
  %17 = load ptr, ptr %values, align 8, !tbaa !45
  %sub.ptr.lhs.cast.i51 = ptrtoint ptr %16 to i64
  %sub.ptr.rhs.cast.i52 = ptrtoint ptr %17 to i64
  %sub.ptr.sub.i53 = sub i64 %sub.ptr.lhs.cast.i51, %sub.ptr.rhs.cast.i52
  %sub.ptr.div.i54 = sdiv exact i64 %sub.ptr.sub.i53, 24
  %cmp13 = icmp ult i64 %inc, %sub.ptr.div.i54
  br i1 %cmp13, label %for.body, label %for.cond.cleanup, !llvm.loop !49

lpad14:                                           ; preds = %for.body
  %18 = landingpad { ptr, i32 }
          cleanup
  br label %ehcleanup27

lpad18:                                           ; preds = %invoke.cont15
  %19 = landingpad { ptr, i32 }
          cleanup
  br label %ehcleanup

lpad20:                                           ; preds = %invoke.cont19
  %20 = landingpad { ptr, i32 }
          cleanup
  %bf.load.i.i71 = load i8, ptr %ref.tmp17, align 8
  %bf.clear.i.i72 = and i8 %bf.load.i.i71, 1
  %tobool.i.not.i73 = icmp eq i8 %bf.clear.i.i72, 0
  br i1 %tobool.i.not.i73, label %ehcleanup, label %if.then.i75

if.then.i75:                                      ; preds = %lpad20
  %21 = load ptr, ptr %__data_.i.i.i.i.i, align 8, !tbaa !5
  call void @_ZdlPv(ptr noundef %21) #36
  br label %ehcleanup

ehcleanup:                                        ; preds = %if.then.i75, %lpad20, %lpad18
  %.pn = phi { ptr, i32 } [ %19, %lpad18 ], [ %20, %lpad20 ], [ %20, %if.then.i75 ]
  call void @llvm.lifetime.end.p0(i64 24, ptr nonnull %ref.tmp17) #35
  br label %ehcleanup27

lpad24:                                           ; preds = %for.cond.cleanup
  %22 = landingpad { ptr, i32 }
          cleanup
  br label %ehcleanup27

nrvo.skipdtor:                                    ; preds = %for.cond.cleanup
  call void @llvm.lifetime.end.p0(i64 16, ptr nonnull %build_one) #35
  br label %return

ehcleanup27:                                      ; preds = %lpad14, %ehcleanup, %lpad24
  %.pn.pn.pn = phi { ptr, i32 } [ %22, %lpad24 ], [ %.pn, %ehcleanup ], [ %18, %lpad14 ]
  %bf.load.i.i77 = load i8, ptr %agg.result, align 8
  %bf.clear.i.i78 = and i8 %bf.load.i.i77, 1
  %tobool.i.not.i79 = icmp eq i8 %bf.clear.i.i78, 0
  br i1 %tobool.i.not.i79, label %ehcleanup28, label %if.then.i81

if.then.i81:                                      ; preds = %ehcleanup27
  %__data_.i.i80 = getelementptr inbounds %"struct.std::__1::basic_string<char>::__long", ptr %agg.result, i64 0, i32 2
  %23 = load ptr, ptr %__data_.i.i80, align 8, !tbaa !5
  call void @_ZdlPv(ptr noundef %23) #36
  br label %ehcleanup28

ehcleanup28:                                      ; preds = %if.then.i81, %ehcleanup27, %_ZNSt3__112basic_stringIcNS_11char_traitsIcEENS_9allocatorIcEEED2Ev.exit61
  %.pn.pn.pn.pn = phi { ptr, i32 } [ %11, %_ZNSt3__112basic_stringIcNS_11char_traitsIcEENS_9allocatorIcEEED2Ev.exit61 ], [ %.pn.pn.pn, %ehcleanup27 ], [ %.pn.pn.pn, %if.then.i81 ]
  call void @llvm.lifetime.end.p0(i64 16, ptr nonnull %build_one) #35
  br label %eh.resume

return:                                           ; preds = %nrvo.skipdtor, %if.then3.i.i
  ret void

eh.resume:                                        ; preds = %ehcleanup28, %lpad
  %.pn.pn.pn.pn.pn = phi { ptr, i32 } [ %.pn.pn.pn.pn, %ehcleanup28 ], [ %4, %lpad ]
  resume { ptr, i32 } %.pn.pn.pn.pn.pn
}

declare noundef zeroext i1 @_ZN7testing8internal6IsTrueEb(i1 noundef zeroext) local_unnamed_addr #7

declare void @_ZN7testing8internal8GTestLogC1ENS0_16GTestLogSeverityEPKci(ptr noundef nonnull align 4 dereferenceable(4), i32 noundef, ptr noundef, i32 noundef) unnamed_addr #7

; Function Attrs: nounwind
declare void @_ZN7testing8internal8GTestLogD1Ev(ptr noundef nonnull align 4 dereferenceable(4)) unnamed_addr #8

; Function Attrs: inlinehint uwtable
define internal fastcc void @"_ZZN7testing8internal19JoinAsKeyValueTupleERKNSt3__16vectorIPKcNS1_9allocatorIS4_EEEERKNS2_INS1_12basic_stringIcNS1_11char_traitsIcEENS5_IcEEEENS5_ISE_EEEEENK3$_0clEm"(ptr noalias nocapture writeonly align 8 %agg.result, ptr nocapture noundef nonnull readonly align 8 dereferenceable(16) %this, i64 noundef %i) unnamed_addr #2 align 2 personality ptr @__gxx_personality_v0 {
entry:
  %ref.tmp = alloca %"class.std::__1::basic_string", align 8
  %ref.tmp2 = alloca %"class.std::__1::basic_string", align 8
  call void @llvm.lifetime.start.p0(i64 24, ptr nonnull %ref.tmp) #35
  call void @llvm.lifetime.start.p0(i64 24, ptr nonnull %ref.tmp2) #35
  %0 = load ptr, ptr %this, align 8, !tbaa !51
  %1 = load ptr, ptr %0, align 8, !tbaa !40
  %arrayidx.i = getelementptr inbounds ptr, ptr %1, i64 %i
  %2 = load ptr, ptr %arrayidx.i, align 8, !tbaa !32, !nonnull !53
  %call.i.i.i = tail call i64 @strlen(ptr noundef nonnull dereferenceable(1) %2) #35
  %cmp.i.i = icmp ugt i64 %call.i.i.i, -17
  br i1 %cmp.i.i, label %if.then.i.i, label %if.end.i.i

if.then.i.i:                                      ; preds = %entry
  call void @_ZNKSt3__112basic_stringIcNS_11char_traitsIcEENS_9allocatorIcEEE20__throw_length_errorB7v170000Ev(ptr noundef nonnull align 8 dereferenceable(24) %ref.tmp2) #38
  unreachable

if.end.i.i:                                       ; preds = %entry
  %cmp.i.i.i = icmp ult i64 %call.i.i.i, 23
  br i1 %cmp.i.i.i, label %if.then3.i.i, label %if.else.i.i

if.then3.i.i:                                     ; preds = %if.end.i.i
  %conv.i.i.i = trunc i64 %call.i.i.i to i8
  %bf.shl.i.i.i = shl nuw nsw i8 %conv.i.i.i, 1
  store i8 %bf.shl.i.i.i, ptr %ref.tmp2, align 8
  %__data_.i.i.i = getelementptr inbounds %"struct.std::__1::basic_string<char>::__short", ptr %ref.tmp2, i64 0, i32 2
  br label %_ZNSt3__112basic_stringIcNS_11char_traitsIcEENS_9allocatorIcEEEC2B7v170000IDnEEPKc.exit

if.else.i.i:                                      ; preds = %if.end.i.i
  %sub.i.i.i = or i64 %call.i.i.i, 15
  %add.i.i = add i64 %sub.i.i.i, 1
  %call.i.i.i.i.i.i = tail call noalias noundef nonnull ptr @_Znwm(i64 noundef %add.i.i) #37
  %__data_.i23.i.i = getelementptr inbounds %"struct.std::__1::basic_string<char>::__long", ptr %ref.tmp2, i64 0, i32 2
  store ptr %call.i.i.i.i.i.i, ptr %__data_.i23.i.i, align 8, !tbaa !5
  %bf.set6.i.i.i = or i64 %add.i.i, 1
  store i64 %bf.set6.i.i.i, ptr %ref.tmp2, align 8
  %__size_.i.i.i = getelementptr inbounds %"struct.std::__1::basic_string<char>::__long", ptr %ref.tmp2, i64 0, i32 1
  store i64 %call.i.i.i, ptr %__size_.i.i.i, align 8, !tbaa !5
  br label %_ZNSt3__112basic_stringIcNS_11char_traitsIcEENS_9allocatorIcEEEC2B7v170000IDnEEPKc.exit

_ZNSt3__112basic_stringIcNS_11char_traitsIcEENS_9allocatorIcEEEC2B7v170000IDnEEPKc.exit: ; preds = %if.then3.i.i, %if.else.i.i
  %__p.0.i.i = phi ptr [ %__data_.i.i.i, %if.then3.i.i ], [ %call.i.i.i.i.i.i, %if.else.i.i ]
  %cmp.i24.i.i = icmp ugt ptr %__p.0.i.i, %2
  %add.ptr.i.i.i = getelementptr inbounds i8, ptr %__p.0.i.i, i64 %call.i.i.i
  %cmp1.i.i.i = icmp ule ptr %add.ptr.i.i.i, %2
  %3 = or i1 %cmp.i24.i.i, %cmp1.i.i.i
  call void @llvm.assume(i1 %3)
  call void @llvm.memmove.p0.p0.i64(ptr nonnull align 1 %__p.0.i.i, ptr nonnull align 1 %2, i64 %call.i.i.i, i1 false)
  store i8 0, ptr %add.ptr.i.i.i, align 1, !tbaa !5
  %call.i11 = invoke noundef nonnull align 8 dereferenceable(24) ptr @_ZNSt3__112basic_stringIcNS_11char_traitsIcEENS_9allocatorIcEEE6appendEPKc(ptr noundef nonnull align 8 dereferenceable(24) %ref.tmp2, ptr noundef nonnull @.str.33)
          to label %invoke.cont unwind label %lpad

invoke.cont:                                      ; preds = %_ZNSt3__112basic_stringIcNS_11char_traitsIcEENS_9allocatorIcEEEC2B7v170000IDnEEPKc.exit
  call void @llvm.memcpy.p0.p0.i64(ptr noundef nonnull align 8 dereferenceable(24) %ref.tmp, ptr noundef nonnull align 8 dereferenceable(24) %call.i11, i64 24, i1 false)
  call void @llvm.memset.p0.i64(ptr noundef nonnull align 8 dereferenceable(24) %call.i11, i8 0, i64 24, i1 false), !noalias !54
  %4 = getelementptr inbounds %class.anon, ptr %this, i64 0, i32 1
  %5 = load ptr, ptr %4, align 8, !tbaa !57
  %6 = load ptr, ptr %5, align 8, !tbaa !45
  %arrayidx.i12 = getelementptr inbounds %"class.std::__1::basic_string", ptr %6, i64 %i
  %bf.load.i.i.i.i.i = load i8, ptr %arrayidx.i12, align 8, !noalias !58
  %bf.clear.i.i.i.i.i = and i8 %bf.load.i.i.i.i.i, 1
  %tobool.i.not.i.i.i.i = icmp eq i8 %bf.clear.i.i.i.i.i, 0
  %__data_.i.i.i.i.i = getelementptr inbounds %"struct.std::__1::basic_string<char>::__long", ptr %arrayidx.i12, i64 0, i32 2
  %7 = load ptr, ptr %__data_.i.i.i.i.i, align 8, !noalias !58
  %__data_.i4.i.i.i.i = getelementptr inbounds %"struct.std::__1::basic_string<char>::__short", ptr %arrayidx.i12, i64 0, i32 2
  %cond.i.i.i.i = select i1 %tobool.i.not.i.i.i.i, ptr %__data_.i4.i.i.i.i, ptr %7
  %__size_.i.i.i.i = getelementptr inbounds %"struct.std::__1::basic_string<char>::__long", ptr %arrayidx.i12, i64 0, i32 1
  %8 = load i64, ptr %__size_.i.i.i.i, align 8, !noalias !58
  %bf.lshr.i.i.i.i = lshr i8 %bf.load.i.i.i.i.i, 1
  %conv.i.i.i.i = zext i8 %bf.lshr.i.i.i.i to i64
  %cond.i.i.i = select i1 %tobool.i.not.i.i.i.i, i64 %conv.i.i.i.i, i64 %8
  %call3.i.i13 = invoke noundef nonnull align 8 dereferenceable(24) ptr @_ZNSt3__112basic_stringIcNS_11char_traitsIcEENS_9allocatorIcEEE6appendEPKcm(ptr noundef nonnull align 8 dereferenceable(24) %ref.tmp, ptr noundef %cond.i.i.i.i, i64 noundef %cond.i.i.i)
          to label %invoke.cont5 unwind label %lpad4

invoke.cont5:                                     ; preds = %invoke.cont
  call void @llvm.memcpy.p0.p0.i64(ptr noundef nonnull align 8 dereferenceable(24) %agg.result, ptr noundef nonnull align 8 dereferenceable(24) %call3.i.i13, i64 24, i1 false)
  call void @llvm.memset.p0.i64(ptr noundef nonnull align 8 dereferenceable(24) %call3.i.i13, i8 0, i64 24, i1 false), !noalias !58
  %bf.load.i.i = load i8, ptr %ref.tmp, align 8
  %bf.clear.i.i = and i8 %bf.load.i.i, 1
  %tobool.i.not.i = icmp eq i8 %bf.clear.i.i, 0
  br i1 %tobool.i.not.i, label %_ZNSt3__112basic_stringIcNS_11char_traitsIcEENS_9allocatorIcEEED2Ev.exit, label %if.then.i

if.then.i:                                        ; preds = %invoke.cont5
  %__data_.i.i = getelementptr inbounds %"struct.std::__1::basic_string<char>::__long", ptr %ref.tmp, i64 0, i32 2
  %9 = load ptr, ptr %__data_.i.i, align 8, !tbaa !5
  call void @_ZdlPv(ptr noundef %9) #36
  br label %_ZNSt3__112basic_stringIcNS_11char_traitsIcEENS_9allocatorIcEEED2Ev.exit

_ZNSt3__112basic_stringIcNS_11char_traitsIcEENS_9allocatorIcEEED2Ev.exit: ; preds = %invoke.cont5, %if.then.i
  %bf.load.i.i14 = load i8, ptr %ref.tmp2, align 8
  %bf.clear.i.i15 = and i8 %bf.load.i.i14, 1
  %tobool.i.not.i16 = icmp eq i8 %bf.clear.i.i15, 0
  br i1 %tobool.i.not.i16, label %_ZNSt3__112basic_stringIcNS_11char_traitsIcEENS_9allocatorIcEEED2Ev.exit19, label %if.then.i18

if.then.i18:                                      ; preds = %_ZNSt3__112basic_stringIcNS_11char_traitsIcEENS_9allocatorIcEEED2Ev.exit
  %__data_.i.i17 = getelementptr inbounds %"struct.std::__1::basic_string<char>::__long", ptr %ref.tmp2, i64 0, i32 2
  %10 = load ptr, ptr %__data_.i.i17, align 8, !tbaa !5
  call void @_ZdlPv(ptr noundef %10) #36
  br label %_ZNSt3__112basic_stringIcNS_11char_traitsIcEENS_9allocatorIcEEED2Ev.exit19

_ZNSt3__112basic_stringIcNS_11char_traitsIcEENS_9allocatorIcEEED2Ev.exit19: ; preds = %_ZNSt3__112basic_stringIcNS_11char_traitsIcEENS_9allocatorIcEEED2Ev.exit, %if.then.i18
  call void @llvm.lifetime.end.p0(i64 24, ptr nonnull %ref.tmp2) #35
  call void @llvm.lifetime.end.p0(i64 24, ptr nonnull %ref.tmp) #35
  ret void

lpad:                                             ; preds = %_ZNSt3__112basic_stringIcNS_11char_traitsIcEENS_9allocatorIcEEEC2B7v170000IDnEEPKc.exit
  %11 = landingpad { ptr, i32 }
          cleanup
  br label %ehcleanup

lpad4:                                            ; preds = %invoke.cont
  %12 = landingpad { ptr, i32 }
          cleanup
  %bf.load.i.i20 = load i8, ptr %ref.tmp, align 8
  %bf.clear.i.i21 = and i8 %bf.load.i.i20, 1
  %tobool.i.not.i22 = icmp eq i8 %bf.clear.i.i21, 0
  br i1 %tobool.i.not.i22, label %ehcleanup, label %if.then.i24

if.then.i24:                                      ; preds = %lpad4
  %__data_.i.i23 = getelementptr inbounds %"struct.std::__1::basic_string<char>::__long", ptr %ref.tmp, i64 0, i32 2
  %13 = load ptr, ptr %__data_.i.i23, align 8, !tbaa !5
  call void @_ZdlPv(ptr noundef %13) #36
  br label %ehcleanup

ehcleanup:                                        ; preds = %if.then.i24, %lpad4, %lpad
  %.pn = phi { ptr, i32 } [ %11, %lpad ], [ %12, %lpad4 ], [ %12, %if.then.i24 ]
  %bf.load.i.i26 = load i8, ptr %ref.tmp2, align 8
  %bf.clear.i.i27 = and i8 %bf.load.i.i26, 1
  %tobool.i.not.i28 = icmp eq i8 %bf.clear.i.i27, 0
  br i1 %tobool.i.not.i28, label %_ZNSt3__112basic_stringIcNS_11char_traitsIcEENS_9allocatorIcEEED2Ev.exit31, label %if.then.i30

if.then.i30:                                      ; preds = %ehcleanup
  %__data_.i.i29 = getelementptr inbounds %"struct.std::__1::basic_string<char>::__long", ptr %ref.tmp2, i64 0, i32 2
  %14 = load ptr, ptr %__data_.i.i29, align 8, !tbaa !5
  call void @_ZdlPv(ptr noundef %14) #36
  br label %_ZNSt3__112basic_stringIcNS_11char_traitsIcEENS_9allocatorIcEEED2Ev.exit31

_ZNSt3__112basic_stringIcNS_11char_traitsIcEENS_9allocatorIcEEED2Ev.exit31: ; preds = %ehcleanup, %if.then.i30
  call void @llvm.lifetime.end.p0(i64 24, ptr nonnull %ref.tmp2) #35
  call void @llvm.lifetime.end.p0(i64 24, ptr nonnull %ref.tmp) #35
  resume { ptr, i32 } %.pn
}

; Function Attrs: uwtable
define dso_local void @_ZN7testing8internal28ConvertIdentifierNameToWordsEPKc(ptr noalias sret(%"class.std::__1::basic_string") align 8 %agg.result, ptr nocapture noundef readonly %id_name) local_unnamed_addr #0 personality ptr @__gxx_personality_v0 {
entry:
  tail call void @llvm.memset.p0.i64(ptr noundef nonnull align 8 dereferenceable(24) %agg.result, i8 0, i64 24, i1 false)
  %0 = load i8, ptr %id_name, align 1, !tbaa !5
  %cmp.not53 = icmp eq i8 %0, 0
  br i1 %cmp.not53, label %nrvo.skipdtor, label %for.body.lr.ph

for.body.lr.ph:                                   ; preds = %entry
  %call.i.i = tail call ptr @__ctype_b_loc() #39
  %__size_.i.i.i.i = getelementptr inbounds %"struct.std::__1::basic_string<char>::__long", ptr %agg.result, i64 0, i32 1
  br label %for.body

for.body:                                         ; preds = %for.body.lr.ph, %if.end20
  %1 = phi i8 [ %0, %for.body.lr.ph ], [ %17, %if.end20 ]
  %prev_char.055 = phi i8 [ 0, %for.body.lr.ph ], [ %16, %if.end20 ]
  %p.054 = phi ptr [ %id_name, %for.body.lr.ph ], [ %incdec.ptr, %if.end20 ]
  %2 = load ptr, ptr %call.i.i, align 8, !tbaa !32
  %idxprom.i.i = zext i8 %1 to i64
  %arrayidx.i.i = getelementptr inbounds i16, ptr %2, i64 %idxprom.i.i
  %3 = load i16, ptr %arrayidx.i.i, align 2, !tbaa !61
  %4 = and i16 %3, 256
  %cmp.i.not = icmp eq i16 %4, 0
  br i1 %cmp.i.not, label %lor.lhs.false, label %lor.end

lor.lhs.false:                                    ; preds = %for.body
  %idxprom.i.i30 = zext i8 %prev_char.055 to i64
  %arrayidx.i.i31 = getelementptr inbounds i16, ptr %2, i64 %idxprom.i.i30
  %5 = load i16, ptr %arrayidx.i.i31, align 2, !tbaa !61
  %6 = and i16 %5, 1024
  %cmp.i32 = icmp eq i16 %6, 0
  %7 = and i16 %3, 512
  %cmp.i36 = icmp ne i16 %7, 0
  %or.cond = select i1 %cmp.i32, i1 %cmp.i36, i1 false
  br i1 %or.cond, label %lor.end, label %lor.rhs

lor.rhs:                                          ; preds = %lor.lhs.false
  %conv.i = zext i8 %prev_char.055 to i32
  %isdigittmp.i = add nsw i32 %conv.i, -48
  %isdigit.i = icmp ult i32 %isdigittmp.i, 10
  br i1 %isdigit.i, label %lor.end.thread, label %land.rhs

land.rhs:                                         ; preds = %lor.rhs
  %conv.i37 = zext i8 %1 to i32
  %isdigittmp.i38 = add nsw i32 %conv.i37, -48
  %isdigit.i39 = icmp ult i32 %isdigittmp.i38, 10
  br label %lor.end

lor.end:                                          ; preds = %lor.lhs.false, %land.rhs, %for.body
  %8 = phi i1 [ true, %for.body ], [ %isdigit.i39, %land.rhs ], [ true, %lor.lhs.false ]
  %9 = and i16 %3, 8
  %cmp.i43.not = icmp eq i16 %9, 0
  br i1 %cmp.i43.not, label %if.end20, label %if.then

lor.end.thread:                                   ; preds = %lor.rhs
  %10 = and i16 %3, 8
  %cmp.i4348.not = icmp eq i16 %10, 0
  br i1 %cmp.i4348.not, label %if.end20, label %if.end

if.then:                                          ; preds = %lor.end
  br i1 %8, label %land.lhs.true11, label %if.end

land.lhs.true11:                                  ; preds = %if.then
  %bf.load.i.i.i.i = load i8, ptr %agg.result, align 8
  %bf.clear.i.i.i.i = and i8 %bf.load.i.i.i.i, 1
  %tobool.i.not.i.i.i = icmp eq i8 %bf.clear.i.i.i.i, 0
  %11 = load i64, ptr %__size_.i.i.i.i, align 8
  %bf.lshr.i.i.i.i = lshr i8 %bf.load.i.i.i.i, 1
  %conv.i.i.i.i = zext i8 %bf.lshr.i.i.i.i to i64
  %cond.i.i.i = select i1 %tobool.i.not.i.i.i, i64 %conv.i.i.i.i, i64 %11
  %cmp2.not.i.i = icmp eq i64 %cond.i.i.i, 0
  br i1 %cmp2.not.i.i, label %if.end, label %if.then13

if.then13:                                        ; preds = %land.lhs.true11
  invoke void @_ZNSt3__112basic_stringIcNS_11char_traitsIcEENS_9allocatorIcEEE9push_backEc(ptr noundef nonnull align 8 dereferenceable(24) %agg.result, i8 noundef signext 32)
          to label %if.then13.if.end_crit_edge unwind label %lpad

if.then13.if.end_crit_edge:                       ; preds = %if.then13
  %.pre = load i8, ptr %p.054, align 1, !tbaa !5
  %.pre57 = zext i8 %.pre to i64
  br label %if.end

lpad:                                             ; preds = %if.end, %if.then13
  %12 = landingpad { ptr, i32 }
          cleanup
  %bf.load.i.i = load i8, ptr %agg.result, align 8
  %bf.clear.i.i = and i8 %bf.load.i.i, 1
  %tobool.i.not.i = icmp eq i8 %bf.clear.i.i, 0
  br i1 %tobool.i.not.i, label %_ZNSt3__112basic_stringIcNS_11char_traitsIcEENS_9allocatorIcEEED2Ev.exit, label %if.then.i

if.then.i:                                        ; preds = %lpad
  %__data_.i.i = getelementptr inbounds %"struct.std::__1::basic_string<char>::__long", ptr %agg.result, i64 0, i32 2
  %13 = load ptr, ptr %__data_.i.i, align 8, !tbaa !5
  tail call void @_ZdlPv(ptr noundef %13) #36
  br label %_ZNSt3__112basic_stringIcNS_11char_traitsIcEENS_9allocatorIcEEED2Ev.exit

_ZNSt3__112basic_stringIcNS_11char_traitsIcEENS_9allocatorIcEEED2Ev.exit: ; preds = %lpad, %if.then.i
  resume { ptr, i32 } %12

if.end:                                           ; preds = %if.then13.if.end_crit_edge, %land.lhs.true11, %lor.end.thread, %if.then
  %idxprom.i.i45.pre-phi = phi i64 [ %.pre57, %if.then13.if.end_crit_edge ], [ %idxprom.i.i, %land.lhs.true11 ], [ %idxprom.i.i, %lor.end.thread ], [ %idxprom.i.i, %if.then ]
  %call.i.i44 = tail call ptr @__ctype_tolower_loc() #39
  %14 = load ptr, ptr %call.i.i44, align 8, !tbaa !32
  %arrayidx.i.i46 = getelementptr inbounds i32, ptr %14, i64 %idxprom.i.i45.pre-phi
  %15 = load i32, ptr %arrayidx.i.i46, align 4, !tbaa !63
  %conv1.i = trunc i32 %15 to i8
  invoke void @_ZNSt3__112basic_stringIcNS_11char_traitsIcEENS_9allocatorIcEEE9push_backEc(ptr noundef nonnull align 8 dereferenceable(24) %agg.result, i8 noundef signext %conv1.i)
          to label %if.end.if.end20_crit_edge unwind label %lpad

if.end.if.end20_crit_edge:                        ; preds = %if.end
  %.pre56 = load i8, ptr %p.054, align 1, !tbaa !5
  br label %if.end20

if.end20:                                         ; preds = %if.end.if.end20_crit_edge, %lor.end.thread, %lor.end
  %16 = phi i8 [ %.pre56, %if.end.if.end20_crit_edge ], [ %1, %lor.end.thread ], [ %1, %lor.end ]
  %incdec.ptr = getelementptr inbounds i8, ptr %p.054, i64 1
  %17 = load i8, ptr %incdec.ptr, align 1, !tbaa !5
  %cmp.not = icmp eq i8 %17, 0
  br i1 %cmp.not, label %nrvo.skipdtor, label %for.body, !llvm.loop !64

nrvo.skipdtor:                                    ; preds = %if.end20, %entry
  ret void
}

; Function Attrs: uwtable
define dso_local noundef ptr @_ZN7testing8internal18GetFailureReporterEv() local_unnamed_addr #0 personality ptr @__gxx_personality_v0 {
entry:
  %0 = load atomic i8, ptr @_ZGVZN7testing8internal18GetFailureReporterEvE16failure_reporter acquire, align 8
  %guard.uninitialized = icmp eq i8 %0, 0
  br i1 %guard.uninitialized, label %init.check, label %init.end, !prof !31

init.check:                                       ; preds = %entry
  %1 = tail call i32 @__cxa_guard_acquire(ptr nonnull @_ZGVZN7testing8internal18GetFailureReporterEvE16failure_reporter) #35
  %tobool.not = icmp eq i32 %1, 0
  br i1 %tobool.not, label %init.end, label %init

init:                                             ; preds = %init.check
  %call = invoke noalias noundef nonnull dereferenceable(8) ptr @_Znwm(i64 noundef 8) #37
          to label %invoke.cont unwind label %lpad

invoke.cont:                                      ; preds = %init
  store ptr getelementptr inbounds ({ [5 x ptr] }, ptr @_ZTVN7testing8internal25GoogleTestFailureReporterE, i64 0, inrange i32 0, i64 2), ptr %call, align 8, !tbaa !8
  store ptr %call, ptr @_ZZN7testing8internal18GetFailureReporterEvE16failure_reporter, align 8, !tbaa !32
  %2 = tail call ptr @llvm.invariant.start.p0(i64 8, ptr nonnull @_ZZN7testing8internal18GetFailureReporterEvE16failure_reporter)
  tail call void @__cxa_guard_release(ptr nonnull @_ZGVZN7testing8internal18GetFailureReporterEvE16failure_reporter) #35
  br label %init.end

init.end:                                         ; preds = %invoke.cont, %init.check, %entry
  %3 = load ptr, ptr @_ZZN7testing8internal18GetFailureReporterEvE16failure_reporter, align 8, !tbaa !32
  ret ptr %3

lpad:                                             ; preds = %init
  %4 = landingpad { ptr, i32 }
          cleanup
  tail call void @__cxa_guard_abort(ptr nonnull @_ZGVZN7testing8internal18GetFailureReporterEvE16failure_reporter) #35
  resume { ptr, i32 } %4
}

; Function Attrs: nofree nounwind
declare i32 @__cxa_guard_acquire(ptr) local_unnamed_addr #9

; Function Attrs: mustprogress nocallback nofree nounwind willreturn memory(argmem: write)
declare void @llvm.memset.p0.i64(ptr nocapture writeonly, i8, i64, i1 immarg) #10

; Function Attrs: mustprogress nocallback nofree nosync nounwind willreturn memory(argmem: readwrite)
declare ptr @llvm.invariant.start.p0(i64 immarg, ptr nocapture) #1

; Function Attrs: nofree nounwind
declare void @__cxa_guard_abort(ptr) local_unnamed_addr #9

; Function Attrs: nofree nounwind
declare void @__cxa_guard_release(ptr) local_unnamed_addr #9

; Function Attrs: mustprogress nounwind uwtable
define dso_local noundef zeroext i1 @_ZN7testing8internal12LogIsVisibleENS0_11LogSeverityE(i32 noundef %severity) local_unnamed_addr #11 personality ptr @__gxx_personality_v0 {
entry:
  %bf.load.i.i.i = load i8, ptr @_ZN7testing19FLAGS_gmock_verboseE, align 8
  %bf.clear.i.i.i = and i8 %bf.load.i.i.i, 1
  %tobool.i.not.i.i = icmp eq i8 %bf.clear.i.i.i, 0
  %0 = load i64, ptr getelementptr inbounds (%"class.std::__1::basic_string", ptr @_ZN7testing19FLAGS_gmock_verboseE, i64 0, i32 0, i32 0, i32 0, i32 0, i32 0, i32 1), align 8
  %bf.lshr.i.i.i = lshr i8 %bf.load.i.i.i, 1
  %conv.i.i.i = zext i8 %bf.lshr.i.i.i to i64
  %cond.i.i = select i1 %tobool.i.not.i.i, i64 %conv.i.i.i, i64 %0
  switch i64 %cond.i.i, label %_ZNSt3__1eqB7v170000IcNS_11char_traitsIcEENS_9allocatorIcEEEEbRKNS_12basic_stringIT_T0_T1_EEPKS6_.exit25.thread [
    i64 4, label %_ZNSt3__111char_traitsIcE7compareEPKcS3_m.exit.i.i
    i64 5, label %_ZNSt3__111char_traitsIcE7compareEPKcS3_m.exit.i.i18
  ]

_ZNSt3__111char_traitsIcE7compareEPKcS3_m.exit.i.i: ; preds = %entry
  %1 = load ptr, ptr getelementptr inbounds (%"class.std::__1::basic_string", ptr @_ZN7testing19FLAGS_gmock_verboseE, i64 0, i32 0, i32 0, i32 0, i32 0, i32 0, i32 2), align 8
  %cond.i.i.i.i = select i1 %tobool.i.not.i.i, ptr getelementptr inbounds (%"struct.std::__1::basic_string<char>::__short", ptr @_ZN7testing19FLAGS_gmock_verboseE, i64 0, i32 2), ptr %1
  %bcmp38 = tail call i32 @bcmp(ptr noundef nonnull dereferenceable(4) %cond.i.i.i.i, ptr noundef nonnull dereferenceable(4) @_ZN7testing8internalL14kInfoVerbosityE, i64 4)
  %cmp9.i.i = icmp eq i32 %bcmp38, 0
  br i1 %cmp9.i.i, label %return, label %_ZNSt3__1eqB7v170000IcNS_11char_traitsIcEENS_9allocatorIcEEEEbRKNS_12basic_stringIT_T0_T1_EEPKS6_.exit25.thread

_ZNSt3__1eqB7v170000IcNS_11char_traitsIcEENS_9allocatorIcEEEEbRKNS_12basic_stringIT_T0_T1_EEPKS6_.exit25.thread: ; preds = %_ZNSt3__111char_traitsIcE7compareEPKcS3_m.exit.i.i, %entry
  %cmp31 = icmp eq i32 %severity, 1
  br label %return

_ZNSt3__111char_traitsIcE7compareEPKcS3_m.exit.i.i18: ; preds = %entry
  %.pre = load ptr, ptr getelementptr inbounds (%"class.std::__1::basic_string", ptr @_ZN7testing19FLAGS_gmock_verboseE, i64 0, i32 0, i32 0, i32 0, i32 0, i32 0, i32 2), align 8
  %.pre39 = select i1 %tobool.i.not.i.i, ptr getelementptr inbounds (%"struct.std::__1::basic_string<char>::__short", ptr @_ZN7testing19FLAGS_gmock_verboseE, i64 0, i32 2), ptr %.pre
  %bcmp = tail call i32 @bcmp(ptr noundef nonnull dereferenceable(5) %.pre39, ptr noundef nonnull dereferenceable(5) @_ZN7testing8internalL15kErrorVerbosityE, i64 5)
  %cmp9.i.i17 = icmp ne i32 %bcmp, 0
  %cmp = icmp eq i32 %severity, 1
  %spec.select = and i1 %cmp, %cmp9.i.i17
  br label %return

return:                                           ; preds = %_ZNSt3__111char_traitsIcE7compareEPKcS3_m.exit.i.i18, %_ZNSt3__111char_traitsIcE7compareEPKcS3_m.exit.i.i, %_ZNSt3__1eqB7v170000IcNS_11char_traitsIcEENS_9allocatorIcEEEEbRKNS_12basic_stringIT_T0_T1_EEPKS6_.exit25.thread
  %retval.0 = phi i1 [ %cmp31, %_ZNSt3__1eqB7v170000IcNS_11char_traitsIcEENS_9allocatorIcEEEEbRKNS_12basic_stringIT_T0_T1_EEPKS6_.exit25.thread ], [ true, %_ZNSt3__111char_traitsIcE7compareEPKcS3_m.exit.i.i ], [ %spec.select, %_ZNSt3__111char_traitsIcE7compareEPKcS3_m.exit.i.i18 ]
  ret i1 %retval.0
}

; Function Attrs: uwtable
define dso_local void @_ZN7testing8internal3LogENS0_11LogSeverityERKNSt3__112basic_stringIcNS2_11char_traitsIcEENS2_9allocatorIcEEEEi(i32 noundef %severity, ptr noundef nonnull align 8 dereferenceable(24) %message, i32 noundef %stack_frames_to_skip) local_unnamed_addr #0 personality ptr @__gxx_personality_v0 {
entry:
  %ref.tmp29 = alloca %"class.std::__1::basic_string", align 8
  %bf.load.i.i.i.i = load i8, ptr @_ZN7testing19FLAGS_gmock_verboseE, align 8
  %bf.clear.i.i.i.i = and i8 %bf.load.i.i.i.i, 1
  %tobool.i.not.i.i.i = icmp eq i8 %bf.clear.i.i.i.i, 0
  %0 = load i64, ptr getelementptr inbounds (%"class.std::__1::basic_string", ptr @_ZN7testing19FLAGS_gmock_verboseE, i64 0, i32 0, i32 0, i32 0, i32 0, i32 0, i32 1), align 8
  %bf.lshr.i.i.i.i = lshr i8 %bf.load.i.i.i.i, 1
  %conv.i.i.i.i = zext i8 %bf.lshr.i.i.i.i to i64
  %cond.i.i.i = select i1 %tobool.i.not.i.i.i, i64 %conv.i.i.i.i, i64 %0
  switch i64 %cond.i.i.i, label %_ZNSt3__1eqB7v170000IcNS_11char_traitsIcEENS_9allocatorIcEEEEbRKNS_12basic_stringIT_T0_T1_EEPKS6_.exit25.thread.i [
    i64 4, label %_ZNSt3__111char_traitsIcE7compareEPKcS3_m.exit.i.i.i
    i64 5, label %_ZN7testing8internal12LogIsVisibleENS0_11LogSeverityE.exit
  ]

_ZNSt3__111char_traitsIcE7compareEPKcS3_m.exit.i.i.i: ; preds = %entry
  %1 = load ptr, ptr getelementptr inbounds (%"class.std::__1::basic_string", ptr @_ZN7testing19FLAGS_gmock_verboseE, i64 0, i32 0, i32 0, i32 0, i32 0, i32 0, i32 2), align 8
  %cond.i.i.i.i.i = select i1 %tobool.i.not.i.i.i, ptr getelementptr inbounds (%"struct.std::__1::basic_string<char>::__short", ptr @_ZN7testing19FLAGS_gmock_verboseE, i64 0, i32 2), ptr %1
  %bcmp38.i = tail call i32 @bcmp(ptr noundef nonnull dereferenceable(4) %cond.i.i.i.i.i, ptr noundef nonnull dereferenceable(4) @_ZN7testing8internalL14kInfoVerbosityE, i64 4)
  %cmp9.i.i.i = icmp eq i32 %bcmp38.i, 0
  br i1 %cmp9.i.i.i, label %if.end, label %_ZNSt3__1eqB7v170000IcNS_11char_traitsIcEENS_9allocatorIcEEEEbRKNS_12basic_stringIT_T0_T1_EEPKS6_.exit25.thread.i

_ZNSt3__1eqB7v170000IcNS_11char_traitsIcEENS_9allocatorIcEEEEbRKNS_12basic_stringIT_T0_T1_EEPKS6_.exit25.thread.i: ; preds = %_ZNSt3__111char_traitsIcE7compareEPKcS3_m.exit.i.i.i, %entry
  %cmp31.i = icmp eq i32 %severity, 1
  br i1 %cmp31.i, label %if.end.thread, label %return

_ZN7testing8internal12LogIsVisibleENS0_11LogSeverityE.exit: ; preds = %entry
  %.pre.i = load ptr, ptr getelementptr inbounds (%"class.std::__1::basic_string", ptr @_ZN7testing19FLAGS_gmock_verboseE, i64 0, i32 0, i32 0, i32 0, i32 0, i32 0, i32 2), align 8
  %.pre39.i = select i1 %tobool.i.not.i.i.i, ptr getelementptr inbounds (%"struct.std::__1::basic_string<char>::__short", ptr @_ZN7testing19FLAGS_gmock_verboseE, i64 0, i32 2), ptr %.pre.i
  %bcmp.i = tail call i32 @bcmp(ptr noundef nonnull dereferenceable(5) %.pre39.i, ptr noundef nonnull dereferenceable(5) @_ZN7testing8internalL15kErrorVerbosityE, i64 5)
  %cmp9.i.i17.i = icmp ne i32 %bcmp.i, 0
  %cmp.i = icmp eq i32 %severity, 1
  %spec.select.i = and i1 %cmp.i, %cmp9.i.i17.i
  br i1 %spec.select.i, label %if.end.thread, label %return

if.end.thread:                                    ; preds = %_ZNSt3__1eqB7v170000IcNS_11char_traitsIcEENS_9allocatorIcEEEEbRKNS_12basic_stringIT_T0_T1_EEPKS6_.exit25.thread.i, %_ZN7testing8internal12LogIsVisibleENS0_11LogSeverityE.exit
  tail call void @_ZN7testing8internal9MutexBase4LockEv(ptr noundef nonnull align 8 dereferenceable(56) @_ZN7testing8internalL11g_log_mutexE)
  br label %if.then1

if.end:                                           ; preds = %_ZNSt3__111char_traitsIcE7compareEPKcS3_m.exit.i.i.i
  tail call void @_ZN7testing8internal9MutexBase4LockEv(ptr noundef nonnull align 8 dereferenceable(56) @_ZN7testing8internalL11g_log_mutexE)
  %cmp = icmp eq i32 %severity, 1
  br i1 %cmp, label %if.then1, label %if.end3

if.then1:                                         ; preds = %if.end.thread, %if.end
  %call1.i53 = invoke noundef nonnull align 8 dereferenceable(8) ptr @_ZNSt3__124__put_character_sequenceB7v170000IcNS_11char_traitsIcEEEERNS_13basic_ostreamIT_T0_EES7_PKS4_m(ptr noundef nonnull align 8 dereferenceable(8) @_ZNSt3__14coutE, ptr noundef nonnull @.str.8, i64 noundef 15)
          to label %if.end3 unwind label %lpad

lpad:                                             ; preds = %if.end38, %if.end10, %if.then7, %if.then1
  %2 = landingpad { ptr, i32 }
          cleanup
  br label %ehcleanup41

if.end3:                                          ; preds = %if.then1, %if.end
  %bf.load.i.i.i = load i8, ptr %message, align 8
  %bf.clear.i.i.i = and i8 %bf.load.i.i.i, 1
  %tobool.i.not.i.i = icmp eq i8 %bf.clear.i.i.i, 0
  %__size_.i.i.i = getelementptr inbounds %"struct.std::__1::basic_string<char>::__long", ptr %message, i64 0, i32 1
  %3 = load i64, ptr %__size_.i.i.i, align 8
  %bf.lshr.i.i.i = lshr i8 %bf.load.i.i.i, 1
  %conv.i.i.i = zext i8 %bf.lshr.i.i.i to i64
  %cond.i.i = select i1 %tobool.i.not.i.i, i64 %conv.i.i.i, i64 %3
  %cmp.i54 = icmp eq i64 %cond.i.i, 0
  br i1 %cmp.i54, label %if.then7, label %lor.lhs.false

lor.lhs.false:                                    ; preds = %if.end3
  %__data_.i.i.i.i = getelementptr inbounds %"struct.std::__1::basic_string<char>::__long", ptr %message, i64 0, i32 2
  %4 = load ptr, ptr %__data_.i.i.i.i, align 8
  %__data_.i4.i.i.i = getelementptr inbounds %"struct.std::__1::basic_string<char>::__short", ptr %message, i64 0, i32 2
  %cond.i.i.i58 = select i1 %tobool.i.not.i.i, ptr %__data_.i4.i.i.i, ptr %4
  %5 = load i8, ptr %cond.i.i.i58, align 1, !tbaa !5
  %cmp6.not = icmp eq i8 %5, 10
  br i1 %cmp6.not, label %if.end10, label %if.then7

if.then7:                                         ; preds = %lor.lhs.false, %if.end3
  %call1.i60 = invoke noundef nonnull align 8 dereferenceable(8) ptr @_ZNSt3__124__put_character_sequenceB7v170000IcNS_11char_traitsIcEEEERNS_13basic_ostreamIT_T0_EES7_PKS4_m(ptr noundef nonnull align 8 dereferenceable(8) @_ZNSt3__14coutE, ptr noundef nonnull @.str.9, i64 noundef 1)
          to label %if.then7.if.end10_crit_edge unwind label %lpad

if.then7.if.end10_crit_edge:                      ; preds = %if.then7
  %bf.load.i.i.i.i62.pre = load i8, ptr %message, align 8
  %__data_.i.i.i.i65.phi.trans.insert = getelementptr inbounds %"struct.std::__1::basic_string<char>::__long", ptr %message, i64 0, i32 2
  %.pre = load ptr, ptr %__data_.i.i.i.i65.phi.trans.insert, align 8
  %.pre121 = load i64, ptr %__size_.i.i.i, align 8
  %.pre122 = and i8 %bf.load.i.i.i.i62.pre, 1
  %.pre123 = lshr i8 %bf.load.i.i.i.i62.pre, 1
  %.pre124 = zext i8 %.pre123 to i64
  br label %if.end10

if.end10:                                         ; preds = %if.then7.if.end10_crit_edge, %lor.lhs.false
  %conv.i.i.i70.pre-phi = phi i64 [ %.pre124, %if.then7.if.end10_crit_edge ], [ %conv.i.i.i, %lor.lhs.false ]
  %bf.clear.i.i.i.i63.pre-phi = phi i8 [ %.pre122, %if.then7.if.end10_crit_edge ], [ %bf.clear.i.i.i, %lor.lhs.false ]
  %6 = phi i64 [ %.pre121, %if.then7.if.end10_crit_edge ], [ %3, %lor.lhs.false ]
  %7 = phi ptr [ %.pre, %if.then7.if.end10_crit_edge ], [ %4, %lor.lhs.false ]
  %tobool.i.not.i.i.i64 = icmp eq i8 %bf.clear.i.i.i.i63.pre-phi, 0
  %__data_.i.i.i.i65 = getelementptr inbounds %"struct.std::__1::basic_string<char>::__long", ptr %message, i64 0, i32 2
  %__data_.i4.i.i.i66 = getelementptr inbounds %"struct.std::__1::basic_string<char>::__short", ptr %message, i64 0, i32 2
  %cond.i.i.i67 = select i1 %tobool.i.not.i.i.i64, ptr %__data_.i4.i.i.i66, ptr %7
  %cond.i.i71 = select i1 %tobool.i.not.i.i.i64, i64 %conv.i.i.i70.pre-phi, i64 %6
  %call2.i72 = invoke noundef nonnull align 8 dereferenceable(8) ptr @_ZNSt3__124__put_character_sequenceB7v170000IcNS_11char_traitsIcEEEERNS_13basic_ostreamIT_T0_EES7_PKS4_m(ptr noundef nonnull align 8 dereferenceable(8) @_ZNSt3__14coutE, ptr noundef %cond.i.i.i67, i64 noundef %cond.i.i71)
          to label %invoke.cont11 unwind label %lpad

invoke.cont11:                                    ; preds = %if.end10
  %cmp13 = icmp sgt i32 %stack_frames_to_skip, -1
  br i1 %cmp13, label %if.then14, label %if.end38

if.then14:                                        ; preds = %invoke.cont11
  %bf.load.i.i.i73 = load i8, ptr %message, align 8
  %bf.clear.i.i.i74 = and i8 %bf.load.i.i.i73, 1
  %tobool.i.not.i.i75 = icmp eq i8 %bf.clear.i.i.i74, 0
  %8 = load i64, ptr %__size_.i.i.i, align 8
  %bf.lshr.i.i.i77 = lshr i8 %bf.load.i.i.i73, 1
  %conv.i.i.i78 = zext i8 %bf.lshr.i.i.i77 to i64
  %cond.i.i79 = select i1 %tobool.i.not.i.i75, i64 %conv.i.i.i78, i64 %8
  %cmp.i80 = icmp eq i64 %cond.i.i79, 0
  br i1 %cmp.i80, label %if.end26, label %land.rhs

land.rhs:                                         ; preds = %if.then14
  %9 = load ptr, ptr %__data_.i.i.i.i65, align 8
  %cond.i.i.i86 = select i1 %tobool.i.not.i.i75, ptr %__data_.i4.i.i.i66, ptr %9
  %add.ptr.i.i = getelementptr inbounds i8, ptr %cond.i.i.i86, i64 %cond.i.i79
  %incdec.ptr.i.i = getelementptr inbounds i8, ptr %add.ptr.i.i, i64 -1
  %10 = load i8, ptr %incdec.ptr.i.i, align 1, !tbaa !5
  %cmp21.not = icmp eq i8 %10, 10
  br i1 %cmp21.not, label %if.end26, label %if.then22

if.then22:                                        ; preds = %land.rhs
  %call1.i90 = invoke noundef nonnull align 8 dereferenceable(8) ptr @_ZNSt3__124__put_character_sequenceB7v170000IcNS_11char_traitsIcEEEERNS_13basic_ostreamIT_T0_EES7_PKS4_m(ptr noundef nonnull align 8 dereferenceable(8) @_ZNSt3__14coutE, ptr noundef nonnull @.str.9, i64 noundef 1)
          to label %if.end26 unwind label %lpad23

lpad23:                                           ; preds = %if.end26, %if.then22
  %11 = landingpad { ptr, i32 }
          cleanup
  br label %ehcleanup41

if.end26:                                         ; preds = %if.then14, %if.then22, %land.rhs
  %call1.i93 = invoke noundef nonnull align 8 dereferenceable(8) ptr @_ZNSt3__124__put_character_sequenceB7v170000IcNS_11char_traitsIcEEEERNS_13basic_ostreamIT_T0_EES7_PKS4_m(ptr noundef nonnull align 8 dereferenceable(8) @_ZNSt3__14coutE, ptr noundef nonnull @.str.10, i64 noundef 13)
          to label %invoke.cont27 unwind label %lpad23

invoke.cont27:                                    ; preds = %if.end26
  call void @llvm.lifetime.start.p0(i64 24, ptr nonnull %ref.tmp29) #35
  %call32 = invoke noundef ptr @_ZN7testing8UnitTest11GetInstanceEv()
          to label %invoke.cont31 unwind label %lpad30

invoke.cont31:                                    ; preds = %invoke.cont27
  invoke void @_ZN7testing8internal31GetCurrentOsStackTraceExceptTopEPNS_8UnitTestEi(ptr nonnull sret(%"class.std::__1::basic_string") align 8 %ref.tmp29, ptr noundef %call32, i32 noundef 0)
          to label %invoke.cont33 unwind label %lpad30

invoke.cont33:                                    ; preds = %invoke.cont31
  %bf.load.i.i.i.i95 = load i8, ptr %ref.tmp29, align 8
  %bf.clear.i.i.i.i96 = and i8 %bf.load.i.i.i.i95, 1
  %tobool.i.not.i.i.i97 = icmp eq i8 %bf.clear.i.i.i.i96, 0
  %__data_.i.i.i.i98 = getelementptr inbounds %"struct.std::__1::basic_string<char>::__long", ptr %ref.tmp29, i64 0, i32 2
  %12 = load ptr, ptr %__data_.i.i.i.i98, align 8
  %__data_.i4.i.i.i99 = getelementptr inbounds %"struct.std::__1::basic_string<char>::__short", ptr %ref.tmp29, i64 0, i32 2
  %cond.i.i.i100 = select i1 %tobool.i.not.i.i.i97, ptr %__data_.i4.i.i.i99, ptr %12
  %__size_.i.i.i101 = getelementptr inbounds %"struct.std::__1::basic_string<char>::__long", ptr %ref.tmp29, i64 0, i32 1
  %13 = load i64, ptr %__size_.i.i.i101, align 8
  %bf.lshr.i.i.i102 = lshr i8 %bf.load.i.i.i.i95, 1
  %conv.i.i.i103 = zext i8 %bf.lshr.i.i.i102 to i64
  %cond.i.i104 = select i1 %tobool.i.not.i.i.i97, i64 %conv.i.i.i103, i64 %13
  %call2.i105 = invoke noundef nonnull align 8 dereferenceable(8) ptr @_ZNSt3__124__put_character_sequenceB7v170000IcNS_11char_traitsIcEEEERNS_13basic_ostreamIT_T0_EES7_PKS4_m(ptr noundef nonnull align 8 dereferenceable(8) %call1.i93, ptr noundef %cond.i.i.i100, i64 noundef %cond.i.i104)
          to label %invoke.cont35 unwind label %lpad34

invoke.cont35:                                    ; preds = %invoke.cont33
  %bf.load.i.i = load i8, ptr %ref.tmp29, align 8
  %bf.clear.i.i = and i8 %bf.load.i.i, 1
  %tobool.i.not.i = icmp eq i8 %bf.clear.i.i, 0
  br i1 %tobool.i.not.i, label %_ZNSt3__112basic_stringIcNS_11char_traitsIcEENS_9allocatorIcEEED2Ev.exit, label %if.then.i

if.then.i:                                        ; preds = %invoke.cont35
  %14 = load ptr, ptr %__data_.i.i.i.i98, align 8, !tbaa !5
  call void @_ZdlPv(ptr noundef %14) #36
  br label %_ZNSt3__112basic_stringIcNS_11char_traitsIcEENS_9allocatorIcEEED2Ev.exit

_ZNSt3__112basic_stringIcNS_11char_traitsIcEENS_9allocatorIcEEED2Ev.exit: ; preds = %invoke.cont35, %if.then.i
  call void @llvm.lifetime.end.p0(i64 24, ptr nonnull %ref.tmp29) #35
  br label %if.end38

lpad30:                                           ; preds = %invoke.cont31, %invoke.cont27
  %15 = landingpad { ptr, i32 }
          cleanup
  br label %ehcleanup

lpad34:                                           ; preds = %invoke.cont33
  %16 = landingpad { ptr, i32 }
          cleanup
  %bf.load.i.i107 = load i8, ptr %ref.tmp29, align 8
  %bf.clear.i.i108 = and i8 %bf.load.i.i107, 1
  %tobool.i.not.i109 = icmp eq i8 %bf.clear.i.i108, 0
  br i1 %tobool.i.not.i109, label %ehcleanup, label %if.then.i111

if.then.i111:                                     ; preds = %lpad34
  %17 = load ptr, ptr %__data_.i.i.i.i98, align 8, !tbaa !5
  call void @_ZdlPv(ptr noundef %17) #36
  br label %ehcleanup

ehcleanup:                                        ; preds = %if.then.i111, %lpad34, %lpad30
  %.pn = phi { ptr, i32 } [ %15, %lpad30 ], [ %16, %lpad34 ], [ %16, %if.then.i111 ]
  call void @llvm.lifetime.end.p0(i64 24, ptr nonnull %ref.tmp29) #35
  br label %ehcleanup41

if.end38:                                         ; preds = %_ZNSt3__112basic_stringIcNS_11char_traitsIcEENS_9allocatorIcEEED2Ev.exit, %invoke.cont11
  %call.i116 = invoke noundef nonnull align 8 dereferenceable(8) ptr @_ZNSt3__113basic_ostreamIcNS_11char_traitsIcEEE5flushEv(ptr noundef nonnull align 8 dereferenceable(8) @_ZNSt3__14coutE)
          to label %invoke.cont39 unwind label %lpad

invoke.cont39:                                    ; preds = %if.end38
  invoke void @_ZN7testing8internal9MutexBase6UnlockEv(ptr noundef nonnull align 8 dereferenceable(56) @_ZN7testing8internalL11g_log_mutexE)
          to label %return unwind label %terminate.lpad.i

terminate.lpad.i:                                 ; preds = %invoke.cont39
  %18 = landingpad { ptr, i32 }
          catch ptr null
  %19 = extractvalue { ptr, i32 } %18, 0
  call void @__clang_call_terminate(ptr %19) #40
  unreachable

return:                                           ; preds = %invoke.cont39, %_ZNSt3__1eqB7v170000IcNS_11char_traitsIcEENS_9allocatorIcEEEEbRKNS_12basic_stringIT_T0_T1_EEPKS6_.exit25.thread.i, %_ZN7testing8internal12LogIsVisibleENS0_11LogSeverityE.exit
  ret void

ehcleanup41:                                      ; preds = %lpad23, %ehcleanup, %lpad
  %.pn49 = phi { ptr, i32 } [ %2, %lpad ], [ %.pn, %ehcleanup ], [ %11, %lpad23 ]
  invoke void @_ZN7testing8internal9MutexBase6UnlockEv(ptr noundef nonnull align 8 dereferenceable(56) @_ZN7testing8internalL11g_log_mutexE)
          to label %_ZN7testing8internal14GTestMutexLockD2Ev.exit115 unwind label %terminate.lpad.i114

terminate.lpad.i114:                              ; preds = %ehcleanup41
  %20 = landingpad { ptr, i32 }
          catch ptr null
  %21 = extractvalue { ptr, i32 } %20, 0
  call void @__clang_call_terminate(ptr %21) #40
  unreachable

_ZN7testing8internal14GTestMutexLockD2Ev.exit115: ; preds = %ehcleanup41
  resume { ptr, i32 } %.pn49
}

declare void @_ZN7testing8internal31GetCurrentOsStackTraceExceptTopEPNS_8UnitTestEi(ptr sret(%"class.std::__1::basic_string") align 8, ptr noundef, i32 noundef) local_unnamed_addr #7

declare noundef ptr @_ZN7testing8UnitTest11GetInstanceEv() local_unnamed_addr #7

; Function Attrs: mustprogress nofree norecurse nosync nounwind willreturn memory(none) uwtable
define dso_local void @_ZN7testing8internal18GetWithoutMatchersEv() local_unnamed_addr #12 {
entry:
  ret void
}

; Function Attrs: uwtable
define dso_local void @_ZN7testing8internal16IllegalDoDefaultEPKci(ptr noundef %file, i32 noundef %line) local_unnamed_addr #0 personality ptr @__gxx_personality_v0 {
entry:
  %ref.tmp = alloca %"class.std::__1::basic_string", align 8
  call void @llvm.lifetime.start.p0(i64 24, ptr nonnull %ref.tmp) #35
  %call.i.i.i.i.i.i = tail call noalias noundef nonnull dereferenceable(272) ptr @_Znwm(i64 noundef 272) #37
  %__data_.i23.i.i = getelementptr inbounds %"struct.std::__1::basic_string<char>::__long", ptr %ref.tmp, i64 0, i32 2
  store ptr %call.i.i.i.i.i.i, ptr %__data_.i23.i.i, align 8, !tbaa !5
  store i64 273, ptr %ref.tmp, align 8
  %__size_.i.i.i = getelementptr inbounds %"struct.std::__1::basic_string<char>::__long", ptr %ref.tmp, i64 0, i32 1
  store i64 262, ptr %__size_.i.i.i, align 8, !tbaa !5
  %cmp.i24.i.i = icmp ugt ptr %call.i.i.i.i.i.i, @.str.11
  %add.ptr.i.i.i = getelementptr inbounds i8, ptr %call.i.i.i.i.i.i, i64 262
  %cmp1.i.i.i = icmp ule ptr %add.ptr.i.i.i, @.str.11
  %0 = or i1 %cmp.i24.i.i, %cmp1.i.i.i
  tail call void @llvm.assume(i1 %0)
  tail call void @llvm.memcpy.p0.p0.i64(ptr noundef nonnull align 1 dereferenceable(262) %call.i.i.i.i.i.i, ptr noundef nonnull align 1 dereferenceable(262) @.str.11, i64 262, i1 false)
  store i8 0, ptr %add.ptr.i.i.i, align 1, !tbaa !5
  %1 = load atomic i8, ptr @_ZGVZN7testing8internal18GetFailureReporterEvE16failure_reporter acquire, align 8
  %guard.uninitialized.i.i = icmp eq i8 %1, 0
  br i1 %guard.uninitialized.i.i, label %init.check.i.i, label %_ZN7testing8internal18GetFailureReporterEv.exit.i, !prof !31

init.check.i.i:                                   ; preds = %entry
  %2 = tail call i32 @__cxa_guard_acquire(ptr nonnull @_ZGVZN7testing8internal18GetFailureReporterEvE16failure_reporter) #35
  %tobool.not.i.i = icmp eq i32 %2, 0
  br i1 %tobool.not.i.i, label %_ZN7testing8internal18GetFailureReporterEv.exit.i, label %init.i.i

init.i.i:                                         ; preds = %init.check.i.i
  %call.i.i = invoke noalias noundef nonnull dereferenceable(8) ptr @_Znwm(i64 noundef 8) #37
          to label %invoke.cont.i.i unwind label %lpad.i.i

invoke.cont.i.i:                                  ; preds = %init.i.i
  store ptr getelementptr inbounds ({ [5 x ptr] }, ptr @_ZTVN7testing8internal25GoogleTestFailureReporterE, i64 0, inrange i32 0, i64 2), ptr %call.i.i, align 8, !tbaa !8
  store ptr %call.i.i, ptr @_ZZN7testing8internal18GetFailureReporterEvE16failure_reporter, align 8, !tbaa !32
  %3 = tail call ptr @llvm.invariant.start.p0(i64 8, ptr nonnull @_ZZN7testing8internal18GetFailureReporterEvE16failure_reporter)
  tail call void @__cxa_guard_release(ptr nonnull @_ZGVZN7testing8internal18GetFailureReporterEvE16failure_reporter) #35
  br label %_ZN7testing8internal18GetFailureReporterEv.exit.i

lpad.i.i:                                         ; preds = %init.i.i
  %4 = landingpad { ptr, i32 }
          cleanup
  tail call void @__cxa_guard_abort(ptr nonnull @_ZGVZN7testing8internal18GetFailureReporterEvE16failure_reporter) #35
  br label %lpad.body

_ZN7testing8internal18GetFailureReporterEv.exit.i: ; preds = %invoke.cont.i.i, %init.check.i.i, %entry
  %5 = load ptr, ptr @_ZZN7testing8internal18GetFailureReporterEvE16failure_reporter, align 8, !tbaa !32
  %vtable.i = load ptr, ptr %5, align 8, !tbaa !8
  %vfn.i = getelementptr inbounds ptr, ptr %vtable.i, i64 2
  %6 = load ptr, ptr %vfn.i, align 8
  invoke void %6(ptr noundef nonnull align 8 dereferenceable(8) %5, i32 noundef 1, ptr noundef %file, i32 noundef %line, ptr noundef nonnull align 8 dereferenceable(24) %ref.tmp)
          to label %invoke.cont unwind label %lpad

invoke.cont:                                      ; preds = %_ZN7testing8internal18GetFailureReporterEv.exit.i
  %bf.load.i.i = load i8, ptr %ref.tmp, align 8
  %bf.clear.i.i = and i8 %bf.load.i.i, 1
  %tobool.i.not.i = icmp eq i8 %bf.clear.i.i, 0
  br i1 %tobool.i.not.i, label %_ZNSt3__112basic_stringIcNS_11char_traitsIcEENS_9allocatorIcEEED2Ev.exit, label %if.then.i

if.then.i:                                        ; preds = %invoke.cont
  %7 = load ptr, ptr %__data_.i23.i.i, align 8, !tbaa !5
  call void @_ZdlPv(ptr noundef %7) #36
  br label %_ZNSt3__112basic_stringIcNS_11char_traitsIcEENS_9allocatorIcEEED2Ev.exit

_ZNSt3__112basic_stringIcNS_11char_traitsIcEENS_9allocatorIcEEED2Ev.exit: ; preds = %invoke.cont, %if.then.i
  call void @llvm.lifetime.end.p0(i64 24, ptr nonnull %ref.tmp) #35
  ret void

lpad:                                             ; preds = %_ZN7testing8internal18GetFailureReporterEv.exit.i
  %8 = landingpad { ptr, i32 }
          cleanup
  br label %lpad.body

lpad.body:                                        ; preds = %lpad.i.i, %lpad
  %eh.lpad-body = phi { ptr, i32 } [ %8, %lpad ], [ %4, %lpad.i.i ]
  %bf.load.i.i2 = load i8, ptr %ref.tmp, align 8
  %bf.clear.i.i3 = and i8 %bf.load.i.i2, 1
  %tobool.i.not.i4 = icmp eq i8 %bf.clear.i.i3, 0
  br i1 %tobool.i.not.i4, label %_ZNSt3__112basic_stringIcNS_11char_traitsIcEENS_9allocatorIcEEED2Ev.exit7, label %if.then.i6

if.then.i6:                                       ; preds = %lpad.body
  %9 = load ptr, ptr %__data_.i23.i.i, align 8, !tbaa !5
  call void @_ZdlPv(ptr noundef %9) #36
  br label %_ZNSt3__112basic_stringIcNS_11char_traitsIcEENS_9allocatorIcEEED2Ev.exit7

_ZNSt3__112basic_stringIcNS_11char_traitsIcEENS_9allocatorIcEEED2Ev.exit7: ; preds = %lpad.body, %if.then.i6
  call void @llvm.lifetime.end.p0(i64 24, ptr nonnull %ref.tmp) #35
  resume { ptr, i32 } %eh.lpad-body
}

; Function Attrs: uwtable
define hidden noundef zeroext i1 @_ZN7testing8internal14Base64UnescapeERKNSt3__112basic_stringIcNS1_11char_traitsIcEENS1_9allocatorIcEEEEPS7_(ptr noundef nonnull align 8 dereferenceable(24) %encoded, ptr noundef %decoded) local_unnamed_addr #0 personality ptr @__gxx_personality_v0 {
entry:
  %bf.load.i.i = load i8, ptr %decoded, align 8
  %bf.clear.i.i = and i8 %bf.load.i.i, 1
  %tobool.i.not.i = icmp eq i8 %bf.clear.i.i, 0
  br i1 %tobool.i.not.i, label %if.else.i, label %if.then.i

if.then.i:                                        ; preds = %entry
  %__data_.i.i = getelementptr inbounds %"struct.std::__1::basic_string<char>::__long", ptr %decoded, i64 0, i32 2
  %0 = load ptr, ptr %__data_.i.i, align 8, !tbaa !5
  store i8 0, ptr %0, align 1, !tbaa !5
  %__size_.i.i = getelementptr inbounds %"struct.std::__1::basic_string<char>::__long", ptr %decoded, i64 0, i32 1
  store i64 0, ptr %__size_.i.i, align 8, !tbaa !5
  br label %_ZNSt3__112basic_stringIcNS_11char_traitsIcEENS_9allocatorIcEEE5clearB7v170000Ev.exit

if.else.i:                                        ; preds = %entry
  %__data_.i5.i = getelementptr inbounds %"struct.std::__1::basic_string<char>::__short", ptr %decoded, i64 0, i32 2
  store i8 0, ptr %__data_.i5.i, align 1, !tbaa !5
  store i8 0, ptr %decoded, align 8
  br label %_ZNSt3__112basic_stringIcNS_11char_traitsIcEENS_9allocatorIcEEE5clearB7v170000Ev.exit

_ZNSt3__112basic_stringIcNS_11char_traitsIcEENS_9allocatorIcEEE5clearB7v170000Ev.exit: ; preds = %if.then.i, %if.else.i
  %bf.load.i.i63 = load i8, ptr %encoded, align 8
  %bf.clear.i.i64 = and i8 %bf.load.i.i63, 1
  %tobool.i.not.i65 = icmp eq i8 %bf.clear.i.i64, 0
  %__size_.i.i66 = getelementptr inbounds %"struct.std::__1::basic_string<char>::__long", ptr %encoded, i64 0, i32 1
  %1 = load i64, ptr %__size_.i.i66, align 8
  %bf.lshr.i.i = lshr i8 %bf.load.i.i63, 1
  %conv.i.i = zext i8 %bf.lshr.i.i to i64
  %cond.i = select i1 %tobool.i.not.i65, i64 %conv.i.i, i64 %1
  %div61 = lshr i64 %cond.i, 2
  %mul = mul nuw i64 %div61, 3
  %rem = and i64 %cond.i, 3
  %add = add nuw i64 %mul, %rem
  tail call void @_ZNSt3__112basic_stringIcNS_11char_traitsIcEENS_9allocatorIcEEE7reserveEm(ptr noundef nonnull align 8 dereferenceable(24) %decoded, i64 noundef %add)
  %bf.load.i.i.i = load i8, ptr %encoded, align 8
  %bf.clear.i.i.i = and i8 %bf.load.i.i.i, 1
  %tobool.i.not.i.i = icmp eq i8 %bf.clear.i.i.i, 0
  %__data_.i.i.i = getelementptr inbounds %"struct.std::__1::basic_string<char>::__long", ptr %encoded, i64 0, i32 2
  %2 = load ptr, ptr %__data_.i.i.i, align 8
  %__data_.i4.i.i = getelementptr inbounds %"struct.std::__1::basic_string<char>::__short", ptr %encoded, i64 0, i32 2
  %cond.i.i = select i1 %tobool.i.not.i.i, ptr %__data_.i4.i.i, ptr %2
  %3 = load i64, ptr %__size_.i.i66, align 8
  %bf.lshr.i.i.i = lshr i8 %bf.load.i.i.i, 1
  %conv.i.i.i = zext i8 %bf.lshr.i.i.i to i64
  %cond.i8.i = select i1 %tobool.i.not.i.i, i64 %conv.i.i.i, i64 %3
  %add.ptr.i = getelementptr inbounds i8, ptr %cond.i.i, i64 %cond.i8.i
  %cmp.i.i.not90 = icmp eq i64 %cond.i8.i, 0
  br i1 %cmp.i.i.not90, label %cleanup39, label %for.body.lr.ph

for.body.lr.ph:                                   ; preds = %_ZNSt3__112basic_stringIcNS_11char_traitsIcEENS_9allocatorIcEEE5clearB7v170000Ev.exit
  %call.i = tail call ptr @__ctype_b_loc() #39
  br label %for.body

for.body:                                         ; preds = %for.body.lr.ph, %for.inc
  %bit_pos.093 = phi i32 [ 0, %for.body.lr.ph ], [ %bit_pos.3, %for.inc ]
  %dst.092 = phi i8 [ 0, %for.body.lr.ph ], [ %dst.3, %for.inc ]
  %__begin2.sroa.0.091 = phi ptr [ %cond.i.i, %for.body.lr.ph ], [ %incdec.ptr.i, %for.inc ]
  %4 = load i8, ptr %__begin2.sroa.0.091, align 1, !tbaa !5
  %5 = load ptr, ptr %call.i, align 8, !tbaa !32
  %idxprom.i = sext i8 %4 to i64
  %arrayidx.i = getelementptr inbounds i16, ptr %5, i64 %idxprom.i
  %6 = load i16, ptr %arrayidx.i, align 2, !tbaa !61
  %7 = and i16 %6, 8192
  %tobool = icmp ne i16 %7, 0
  %cmp = icmp eq i8 %4, 61
  %or.cond = select i1 %tobool, i1 true, i1 %cmp
  br i1 %or.cond, label %for.inc, label %if.end

if.end:                                           ; preds = %for.body
  %conv7 = zext i8 %4 to i64
  %cmp.i = icmp sgt i8 %4, -1
  tail call void @llvm.assume(i1 %cmp.i)
  %arrayidx.i73 = getelementptr inbounds [256 x i8], ptr @_ZN7testing8internalL9kUnBase64E, i64 0, i64 %conv7
  %8 = load i8, ptr %arrayidx.i73, align 1, !tbaa !5
  %conv9 = sext i8 %8 to i32
  %cmp10 = icmp sgt i8 %8, 63
  br i1 %cmp10, label %if.then11, label %if.end12

if.then11:                                        ; preds = %if.end
  %bf.load.i.i74 = load i8, ptr %decoded, align 8
  %bf.clear.i.i75 = and i8 %bf.load.i.i74, 1
  %tobool.i.not.i76 = icmp eq i8 %bf.clear.i.i75, 0
  br i1 %tobool.i.not.i76, label %if.else.i81, label %if.then.i79

if.then.i79:                                      ; preds = %if.then11
  %__data_.i.i77 = getelementptr inbounds %"struct.std::__1::basic_string<char>::__long", ptr %decoded, i64 0, i32 2
  %9 = load ptr, ptr %__data_.i.i77, align 8, !tbaa !5
  store i8 0, ptr %9, align 1, !tbaa !5
  %__size_.i.i78 = getelementptr inbounds %"struct.std::__1::basic_string<char>::__long", ptr %decoded, i64 0, i32 1
  store i64 0, ptr %__size_.i.i78, align 8, !tbaa !5
  br label %cleanup39

if.else.i81:                                      ; preds = %if.then11
  %__data_.i5.i80 = getelementptr inbounds %"struct.std::__1::basic_string<char>::__short", ptr %decoded, i64 0, i32 2
  store i8 0, ptr %__data_.i5.i80, align 1, !tbaa !5
  store i8 0, ptr %decoded, align 8
  br label %cleanup39

if.end12:                                         ; preds = %if.end
  %cmp13 = icmp eq i32 %bit_pos.093, 0
  br i1 %cmp13, label %if.then14, label %if.else

if.then14:                                        ; preds = %if.end12
  %shl = shl nsw i32 %conv9, 2
  %conv1696 = zext i8 %dst.092 to i32
  %or = or i32 %shl, %conv1696
  br label %if.end30

if.else:                                          ; preds = %if.end12
  %sub = add nsw i32 %bit_pos.093, -2
  %shr = ashr i32 %conv9, %sub
  %10 = trunc i32 %shr to i8
  %conv23 = or i8 %dst.092, %10
  tail call void @_ZNSt3__112basic_stringIcNS_11char_traitsIcEENS_9allocatorIcEEE9push_backEc(ptr noundef nonnull align 8 dereferenceable(24) %decoded, i8 noundef signext %conv23)
  %sub25 = sub nuw nsw i32 10, %bit_pos.093
  %shl26 = shl nsw i32 %conv9, %sub25
  %add28 = add nuw nsw i32 %bit_pos.093, 6
  %rem29 = and i32 %add28, 7
  br label %if.end30

if.end30:                                         ; preds = %if.else, %if.then14
  %dst.1.in = phi i32 [ %or, %if.then14 ], [ %shl26, %if.else ]
  %bit_pos.1 = phi i32 [ 6, %if.then14 ], [ %rem29, %if.else ]
  %dst.1 = trunc i32 %dst.1.in to i8
  br label %for.inc

for.inc:                                          ; preds = %for.body, %if.end30
  %dst.3 = phi i8 [ %dst.092, %for.body ], [ %dst.1, %if.end30 ]
  %bit_pos.3 = phi i32 [ %bit_pos.093, %for.body ], [ %bit_pos.1, %if.end30 ]
  %incdec.ptr.i = getelementptr inbounds i8, ptr %__begin2.sroa.0.091, i64 1
  %cmp.i.i.not = icmp eq ptr %incdec.ptr.i, %add.ptr.i
  br i1 %cmp.i.i.not, label %cleanup39, label %for.body

cleanup39:                                        ; preds = %for.inc, %_ZNSt3__112basic_stringIcNS_11char_traitsIcEENS_9allocatorIcEEE5clearB7v170000Ev.exit, %if.else.i81, %if.then.i79
  %cmp.i.i.not89 = phi i1 [ false, %if.else.i81 ], [ false, %if.then.i79 ], [ true, %_ZNSt3__112basic_stringIcNS_11char_traitsIcEENS_9allocatorIcEEE5clearB7v170000Ev.exit ], [ true, %for.inc ]
  ret i1 %cmp.i.i.not89
}

declare void @_ZNSt3__112basic_stringIcNS_11char_traitsIcEENS_9allocatorIcEEE7reserveEm(ptr noundef nonnull align 8 dereferenceable(24), i64 noundef) local_unnamed_addr #7

declare void @_ZNSt3__112basic_stringIcNS_11char_traitsIcEENS_9allocatorIcEEE9push_backEc(ptr noundef nonnull align 8 dereferenceable(24), i8 noundef signext) local_unnamed_addr #7

; Function Attrs: uwtable
define dso_local void @_ZN7testing8internal24FormatMatcherDescriptionEbPKcRKNSt3__16vectorIS2_NS3_9allocatorIS2_EEEERKNS4_INS3_12basic_stringIcNS3_11char_traitsIcEENS5_IcEEEENS5_ISE_EEEE(ptr noalias sret(%"class.std::__1::basic_string") align 8 %agg.result, i1 noundef zeroext %negation, ptr nocapture noundef readonly %matcher_name, ptr noundef nonnull align 8 dereferenceable(24) %param_names, ptr noundef nonnull align 8 dereferenceable(24) %param_values) local_unnamed_addr #0 personality ptr @__gxx_personality_v0 {
entry:
  %result = alloca %"class.std::__1::basic_string", align 8
  %ref.tmp = alloca %"class.std::__1::basic_string", align 8
  %ref.tmp1 = alloca %"class.std::__1::basic_string", align 8
  %ref.tmp9 = alloca %"class.std::__1::basic_string", align 8
  call void @llvm.lifetime.start.p0(i64 24, ptr nonnull %result) #35
  call void @_ZN7testing8internal28ConvertIdentifierNameToWordsEPKc(ptr nonnull sret(%"class.std::__1::basic_string") align 8 %result, ptr noundef %matcher_name)
  %__end_.i = getelementptr inbounds %"class.std::__1::vector.8", ptr %param_values, i64 0, i32 1
  %0 = load ptr, ptr %__end_.i, align 8, !tbaa !41
  %1 = load ptr, ptr %param_values, align 8, !tbaa !45
  %cmp.not = icmp eq ptr %0, %1
  br i1 %cmp.not, label %if.end, label %if.then

if.then:                                          ; preds = %entry
  call void @llvm.lifetime.start.p0(i64 24, ptr nonnull %ref.tmp) #35
  call void @llvm.lifetime.start.p0(i64 24, ptr nonnull %ref.tmp1) #35
  invoke void @_ZN7testing8internal19JoinAsKeyValueTupleERKNSt3__16vectorIPKcNS1_9allocatorIS4_EEEERKNS2_INS1_12basic_stringIcNS1_11char_traitsIcEENS5_IcEEEENS5_ISE_EEEE(ptr nonnull sret(%"class.std::__1::basic_string") align 8 %ref.tmp1, ptr noundef nonnull align 8 dereferenceable(24) %param_names, ptr noundef nonnull align 8 dereferenceable(24) %param_values)
          to label %invoke.cont unwind label %lpad

invoke.cont:                                      ; preds = %if.then
  %call.i36 = invoke noundef nonnull align 8 dereferenceable(24) ptr @_ZNSt3__112basic_stringIcNS_11char_traitsIcEENS_9allocatorIcEEE6insertEmPKc(ptr noundef nonnull align 8 dereferenceable(24) %ref.tmp1, i64 noundef 0, ptr noundef nonnull @.str.12)
          to label %invoke.cont3 unwind label %lpad2

invoke.cont3:                                     ; preds = %invoke.cont
  call void @llvm.memcpy.p0.p0.i64(ptr noundef nonnull align 8 dereferenceable(24) %ref.tmp, ptr noundef nonnull align 8 dereferenceable(24) %call.i36, i64 24, i1 false)
  call void @llvm.memset.p0.i64(ptr noundef nonnull align 8 dereferenceable(24) %call.i36, i8 0, i64 24, i1 false), !noalias !65
  %bf.load.i.i.i.i.i = load i8, ptr %ref.tmp, align 8
  %bf.clear.i.i.i.i.i = and i8 %bf.load.i.i.i.i.i, 1
  %tobool.i.not.i.i.i.i = icmp eq i8 %bf.clear.i.i.i.i.i, 0
  %__data_.i.i.i.i.i = getelementptr inbounds %"struct.std::__1::basic_string<char>::__long", ptr %ref.tmp, i64 0, i32 2
  %2 = load ptr, ptr %__data_.i.i.i.i.i, align 8
  %__data_.i4.i.i.i.i = getelementptr inbounds %"struct.std::__1::basic_string<char>::__short", ptr %ref.tmp, i64 0, i32 2
  %cond.i.i.i.i = select i1 %tobool.i.not.i.i.i.i, ptr %__data_.i4.i.i.i.i, ptr %2
  %__size_.i.i.i.i = getelementptr inbounds %"struct.std::__1::basic_string<char>::__long", ptr %ref.tmp, i64 0, i32 1
  %3 = load i64, ptr %__size_.i.i.i.i, align 8
  %bf.lshr.i.i.i.i = lshr i8 %bf.load.i.i.i.i.i, 1
  %conv.i.i.i.i = zext i8 %bf.lshr.i.i.i.i to i64
  %cond.i.i.i = select i1 %tobool.i.not.i.i.i.i, i64 %conv.i.i.i.i, i64 %3
  %call3.i.i37 = invoke noundef nonnull align 8 dereferenceable(24) ptr @_ZNSt3__112basic_stringIcNS_11char_traitsIcEENS_9allocatorIcEEE6appendEPKcm(ptr noundef nonnull align 8 dereferenceable(24) %result, ptr noundef %cond.i.i.i.i, i64 noundef %cond.i.i.i)
          to label %invoke.cont5 unwind label %lpad4

invoke.cont5:                                     ; preds = %invoke.cont3
  %bf.load.i.i = load i8, ptr %ref.tmp, align 8
  %bf.clear.i.i = and i8 %bf.load.i.i, 1
  %tobool.i.not.i = icmp eq i8 %bf.clear.i.i, 0
  br i1 %tobool.i.not.i, label %_ZNSt3__112basic_stringIcNS_11char_traitsIcEENS_9allocatorIcEEED2Ev.exit, label %if.then.i

if.then.i:                                        ; preds = %invoke.cont5
  %4 = load ptr, ptr %__data_.i.i.i.i.i, align 8, !tbaa !5
  call void @_ZdlPv(ptr noundef %4) #36
  br label %_ZNSt3__112basic_stringIcNS_11char_traitsIcEENS_9allocatorIcEEED2Ev.exit

_ZNSt3__112basic_stringIcNS_11char_traitsIcEENS_9allocatorIcEEED2Ev.exit: ; preds = %invoke.cont5, %if.then.i
  %bf.load.i.i38 = load i8, ptr %ref.tmp1, align 8
  %bf.clear.i.i39 = and i8 %bf.load.i.i38, 1
  %tobool.i.not.i40 = icmp eq i8 %bf.clear.i.i39, 0
  br i1 %tobool.i.not.i40, label %_ZNSt3__112basic_stringIcNS_11char_traitsIcEENS_9allocatorIcEEED2Ev.exit43, label %if.then.i42

if.then.i42:                                      ; preds = %_ZNSt3__112basic_stringIcNS_11char_traitsIcEENS_9allocatorIcEEED2Ev.exit
  %__data_.i.i41 = getelementptr inbounds %"struct.std::__1::basic_string<char>::__long", ptr %ref.tmp1, i64 0, i32 2
  %5 = load ptr, ptr %__data_.i.i41, align 8, !tbaa !5
  call void @_ZdlPv(ptr noundef %5) #36
  br label %_ZNSt3__112basic_stringIcNS_11char_traitsIcEENS_9allocatorIcEEED2Ev.exit43

_ZNSt3__112basic_stringIcNS_11char_traitsIcEENS_9allocatorIcEEED2Ev.exit43: ; preds = %_ZNSt3__112basic_stringIcNS_11char_traitsIcEENS_9allocatorIcEEED2Ev.exit, %if.then.i42
  call void @llvm.lifetime.end.p0(i64 24, ptr nonnull %ref.tmp1) #35
  call void @llvm.lifetime.end.p0(i64 24, ptr nonnull %ref.tmp) #35
  br label %if.end

lpad:                                             ; preds = %if.then
  %6 = landingpad { ptr, i32 }
          cleanup
  br label %ehcleanup7

lpad2:                                            ; preds = %invoke.cont
  %7 = landingpad { ptr, i32 }
          cleanup
  br label %ehcleanup

lpad4:                                            ; preds = %invoke.cont3
  %8 = landingpad { ptr, i32 }
          cleanup
  %bf.load.i.i44 = load i8, ptr %ref.tmp, align 8
  %bf.clear.i.i45 = and i8 %bf.load.i.i44, 1
  %tobool.i.not.i46 = icmp eq i8 %bf.clear.i.i45, 0
  br i1 %tobool.i.not.i46, label %ehcleanup, label %if.then.i48

if.then.i48:                                      ; preds = %lpad4
  %9 = load ptr, ptr %__data_.i.i.i.i.i, align 8, !tbaa !5
  call void @_ZdlPv(ptr noundef %9) #36
  br label %ehcleanup

ehcleanup:                                        ; preds = %if.then.i48, %lpad4, %lpad2
  %.pn32 = phi { ptr, i32 } [ %7, %lpad2 ], [ %8, %lpad4 ], [ %8, %if.then.i48 ]
  %bf.load.i.i50 = load i8, ptr %ref.tmp1, align 8
  %bf.clear.i.i51 = and i8 %bf.load.i.i50, 1
  %tobool.i.not.i52 = icmp eq i8 %bf.clear.i.i51, 0
  br i1 %tobool.i.not.i52, label %ehcleanup7, label %if.then.i54

if.then.i54:                                      ; preds = %ehcleanup
  %__data_.i.i53 = getelementptr inbounds %"struct.std::__1::basic_string<char>::__long", ptr %ref.tmp1, i64 0, i32 2
  %10 = load ptr, ptr %__data_.i.i53, align 8, !tbaa !5
  call void @_ZdlPv(ptr noundef %10) #36
  br label %ehcleanup7

ehcleanup7:                                       ; preds = %if.then.i54, %ehcleanup, %lpad
  %.pn32.pn = phi { ptr, i32 } [ %6, %lpad ], [ %.pn32, %ehcleanup ], [ %.pn32, %if.then.i54 ]
  call void @llvm.lifetime.end.p0(i64 24, ptr nonnull %ref.tmp1) #35
  call void @llvm.lifetime.end.p0(i64 24, ptr nonnull %ref.tmp) #35
  br label %ehcleanup27

if.end:                                           ; preds = %_ZNSt3__112basic_stringIcNS_11char_traitsIcEENS_9allocatorIcEEED2Ev.exit43, %entry
  br i1 %negation, label %cond.true, label %cond.false

cond.true:                                        ; preds = %if.end
  call void @llvm.lifetime.start.p0(i64 24, ptr nonnull %ref.tmp9) #35
  invoke void @_ZNSt3__1plIcNS_11char_traitsIcEENS_9allocatorIcEEEENS_12basic_stringIT_T0_T1_EEPKS6_RKS9_(ptr nonnull sret(%"class.std::__1::basic_string") align 8 %ref.tmp9, ptr noundef nonnull @.str.13, ptr noundef nonnull align 8 dereferenceable(24) %result)
          to label %invoke.cont11 unwind label %lpad10

invoke.cont11:                                    ; preds = %cond.true
  %call.i56 = invoke noundef nonnull align 8 dereferenceable(24) ptr @_ZNSt3__112basic_stringIcNS_11char_traitsIcEENS_9allocatorIcEEE6appendEPKc(ptr noundef nonnull align 8 dereferenceable(24) %ref.tmp9, ptr noundef nonnull @.str.7)
          to label %cleanup.action unwind label %cleanup.action18

cond.false:                                       ; preds = %if.end
  invoke void @_ZNSt3__112basic_stringIcNS_11char_traitsIcEENS_9allocatorIcEEEC1ERKS5_(ptr noundef nonnull align 8 dereferenceable(24) %agg.result, ptr noundef nonnull align 8 dereferenceable(24) %result)
          to label %cleanup.done22 unwind label %ehcleanup23

cleanup.action:                                   ; preds = %invoke.cont11
  call void @llvm.memcpy.p0.p0.i64(ptr noundef nonnull align 8 dereferenceable(24) %agg.result, ptr noundef nonnull align 8 dereferenceable(24) %call.i56, i64 24, i1 false)
  call void @llvm.memset.p0.i64(ptr noundef nonnull align 8 dereferenceable(24) %call.i56, i8 0, i64 24, i1 false), !noalias !68
  %bf.load.i.i57 = load i8, ptr %ref.tmp9, align 8
  %bf.clear.i.i58 = and i8 %bf.load.i.i57, 1
  %tobool.i.not.i59 = icmp eq i8 %bf.clear.i.i58, 0
  br i1 %tobool.i.not.i59, label %_ZNSt3__112basic_stringIcNS_11char_traitsIcEENS_9allocatorIcEEED2Ev.exit62, label %if.then.i61

if.then.i61:                                      ; preds = %cleanup.action
  %__data_.i.i60 = getelementptr inbounds %"struct.std::__1::basic_string<char>::__long", ptr %ref.tmp9, i64 0, i32 2
  %11 = load ptr, ptr %__data_.i.i60, align 8, !tbaa !5
  call void @_ZdlPv(ptr noundef %11) #36
  br label %_ZNSt3__112basic_stringIcNS_11char_traitsIcEENS_9allocatorIcEEED2Ev.exit62

_ZNSt3__112basic_stringIcNS_11char_traitsIcEENS_9allocatorIcEEED2Ev.exit62: ; preds = %cleanup.action, %if.then.i61
  call void @llvm.lifetime.end.p0(i64 24, ptr nonnull %ref.tmp9) #35
  br label %cleanup.done22

cleanup.done22:                                   ; preds = %cond.false, %_ZNSt3__112basic_stringIcNS_11char_traitsIcEENS_9allocatorIcEEED2Ev.exit62
  %bf.load.i.i63 = load i8, ptr %result, align 8
  %bf.clear.i.i64 = and i8 %bf.load.i.i63, 1
  %tobool.i.not.i65 = icmp eq i8 %bf.clear.i.i64, 0
  br i1 %tobool.i.not.i65, label %_ZNSt3__112basic_stringIcNS_11char_traitsIcEENS_9allocatorIcEEED2Ev.exit68, label %if.then.i67

if.then.i67:                                      ; preds = %cleanup.done22
  %__data_.i.i66 = getelementptr inbounds %"struct.std::__1::basic_string<char>::__long", ptr %result, i64 0, i32 2
  %12 = load ptr, ptr %__data_.i.i66, align 8, !tbaa !5
  call void @_ZdlPv(ptr noundef %12) #36
  br label %_ZNSt3__112basic_stringIcNS_11char_traitsIcEENS_9allocatorIcEEED2Ev.exit68

_ZNSt3__112basic_stringIcNS_11char_traitsIcEENS_9allocatorIcEEED2Ev.exit68: ; preds = %cleanup.done22, %if.then.i67
  call void @llvm.lifetime.end.p0(i64 24, ptr nonnull %result) #35
  ret void

lpad10:                                           ; preds = %cond.true
  %13 = landingpad { ptr, i32 }
          cleanup
  br label %cleanup.action25

cleanup.action18:                                 ; preds = %invoke.cont11
  %14 = landingpad { ptr, i32 }
          cleanup
  %bf.load.i.i69 = load i8, ptr %ref.tmp9, align 8
  %bf.clear.i.i70 = and i8 %bf.load.i.i69, 1
  %tobool.i.not.i71 = icmp eq i8 %bf.clear.i.i70, 0
  br i1 %tobool.i.not.i71, label %cleanup.action25, label %if.then.i73

if.then.i73:                                      ; preds = %cleanup.action18
  %__data_.i.i72 = getelementptr inbounds %"struct.std::__1::basic_string<char>::__long", ptr %ref.tmp9, i64 0, i32 2
  %15 = load ptr, ptr %__data_.i.i72, align 8, !tbaa !5
  call void @_ZdlPv(ptr noundef %15) #36
  br label %cleanup.action25

ehcleanup23:                                      ; preds = %cond.false
  %16 = landingpad { ptr, i32 }
          cleanup
  br label %ehcleanup27

cleanup.action25:                                 ; preds = %lpad10, %cleanup.action18, %if.then.i73
  %.pn.ph = phi { ptr, i32 } [ %14, %if.then.i73 ], [ %14, %cleanup.action18 ], [ %13, %lpad10 ]
  call void @llvm.lifetime.end.p0(i64 24, ptr nonnull %ref.tmp9) #35
  br label %ehcleanup27

ehcleanup27:                                      ; preds = %ehcleanup23, %cleanup.action25, %ehcleanup7
  %.pn.pn = phi { ptr, i32 } [ %.pn.ph, %cleanup.action25 ], [ %16, %ehcleanup23 ], [ %.pn32.pn, %ehcleanup7 ]
  %bf.load.i.i75 = load i8, ptr %result, align 8
  %bf.clear.i.i76 = and i8 %bf.load.i.i75, 1
  %tobool.i.not.i77 = icmp eq i8 %bf.clear.i.i76, 0
  br i1 %tobool.i.not.i77, label %_ZNSt3__112basic_stringIcNS_11char_traitsIcEENS_9allocatorIcEEED2Ev.exit80, label %if.then.i79

if.then.i79:                                      ; preds = %ehcleanup27
  %__data_.i.i78 = getelementptr inbounds %"struct.std::__1::basic_string<char>::__long", ptr %result, i64 0, i32 2
  %17 = load ptr, ptr %__data_.i.i78, align 8, !tbaa !5
  call void @_ZdlPv(ptr noundef %17) #36
  br label %_ZNSt3__112basic_stringIcNS_11char_traitsIcEENS_9allocatorIcEEED2Ev.exit80

_ZNSt3__112basic_stringIcNS_11char_traitsIcEENS_9allocatorIcEEED2Ev.exit80: ; preds = %ehcleanup27, %if.then.i79
  call void @llvm.lifetime.end.p0(i64 24, ptr nonnull %result) #35
  resume { ptr, i32 } %.pn.pn
}

declare void @_ZNSt3__1plIcNS_11char_traitsIcEENS_9allocatorIcEEEENS_12basic_stringIT_T0_T1_EEPKS6_RKS9_(ptr sret(%"class.std::__1::basic_string") align 8, ptr noundef, ptr noundef nonnull align 8 dereferenceable(24)) local_unnamed_addr #7

declare void @_ZNSt3__112basic_stringIcNS_11char_traitsIcEENS_9allocatorIcEEEC1ERKS5_(ptr noundef nonnull align 8 dereferenceable(24), ptr noundef nonnull align 8 dereferenceable(24)) unnamed_addr #7

; Function Attrs: uwtable
define dso_local void @_ZN7testing8internal24FindMaxBipartiteMatchingERKNS0_11MatchMatrixE(ptr noalias sret(%"class.std::__1::vector.18") align 8 %agg.result, ptr noundef nonnull align 8 dereferenceable(40) %g) local_unnamed_addr #0 personality ptr @__gxx_personality_v0 {
entry:
  %ref.tmp = alloca %"class.testing::internal::MaxBipartiteMatchState", align 8
  call void @llvm.lifetime.start.p0(i64 56, ptr nonnull %ref.tmp) #35
  call void @_ZN7testing8internal22MaxBipartiteMatchStateC2ERKNS0_11MatchMatrixE(ptr noundef nonnull align 8 dereferenceable(56) %ref.tmp, ptr noundef nonnull align 8 dereferenceable(40) %g)
  invoke void @_ZN7testing8internal22MaxBipartiteMatchState7ComputeEv(ptr sret(%"class.std::__1::vector.18") align 8 %agg.result, ptr noundef nonnull align 8 dereferenceable(56) %ref.tmp)
          to label %invoke.cont unwind label %lpad

invoke.cont:                                      ; preds = %entry
  %right_.i = getelementptr inbounds %"class.testing::internal::MaxBipartiteMatchState", ptr %ref.tmp, i64 0, i32 2
  %0 = load ptr, ptr %right_.i, align 8, !tbaa !71
  %cmp.not.i.i.i = icmp eq ptr %0, null
  br i1 %cmp.not.i.i.i, label %_ZNSt3__16vectorImNS_9allocatorImEEED2B7v170000Ev.exit.i, label %if.then.i.i.i

if.then.i.i.i:                                    ; preds = %invoke.cont
  %__end_.i.i.i.i.i = getelementptr inbounds %"class.testing::internal::MaxBipartiteMatchState", ptr %ref.tmp, i64 0, i32 2, i32 1
  store ptr %0, ptr %__end_.i.i.i.i.i, align 8, !tbaa !75
  call void @_ZdlPv(ptr noundef nonnull %0) #36
  br label %_ZNSt3__16vectorImNS_9allocatorImEEED2B7v170000Ev.exit.i

_ZNSt3__16vectorImNS_9allocatorImEEED2B7v170000Ev.exit.i: ; preds = %if.then.i.i.i, %invoke.cont
  %left_.i = getelementptr inbounds %"class.testing::internal::MaxBipartiteMatchState", ptr %ref.tmp, i64 0, i32 1
  %1 = load ptr, ptr %left_.i, align 8, !tbaa !71
  %cmp.not.i.i2.i = icmp eq ptr %1, null
  br i1 %cmp.not.i.i2.i, label %_ZN7testing8internal22MaxBipartiteMatchStateD2Ev.exit, label %if.then.i.i4.i

if.then.i.i4.i:                                   ; preds = %_ZNSt3__16vectorImNS_9allocatorImEEED2B7v170000Ev.exit.i
  %__end_.i.i.i.i3.i = getelementptr inbounds %"class.testing::internal::MaxBipartiteMatchState", ptr %ref.tmp, i64 0, i32 1, i32 1
  store ptr %1, ptr %__end_.i.i.i.i3.i, align 8, !tbaa !75
  call void @_ZdlPv(ptr noundef nonnull %1) #36
  br label %_ZN7testing8internal22MaxBipartiteMatchStateD2Ev.exit

_ZN7testing8internal22MaxBipartiteMatchStateD2Ev.exit: ; preds = %_ZNSt3__16vectorImNS_9allocatorImEEED2B7v170000Ev.exit.i, %if.then.i.i4.i
  call void @llvm.lifetime.end.p0(i64 56, ptr nonnull %ref.tmp) #35
  ret void

lpad:                                             ; preds = %entry
  %2 = landingpad { ptr, i32 }
          cleanup
  call void @_ZN7testing8internal22MaxBipartiteMatchStateD2Ev(ptr noundef nonnull align 8 dereferenceable(56) %ref.tmp) #35
  call void @llvm.lifetime.end.p0(i64 56, ptr nonnull %ref.tmp) #35
  resume { ptr, i32 } %2
}

; Function Attrs: uwtable
define linkonce_odr hidden void @_ZN7testing8internal22MaxBipartiteMatchStateC2ERKNS0_11MatchMatrixE(ptr noundef nonnull align 8 dereferenceable(56) %this, ptr noundef nonnull align 8 dereferenceable(40) %graph) unnamed_addr #0 comdat align 2 personality ptr @__gxx_personality_v0 {
entry:
  store ptr %graph, ptr %this, align 8, !tbaa !76
  %left_ = getelementptr inbounds %"class.testing::internal::MaxBipartiteMatchState", ptr %this, i64 0, i32 1
  %0 = load i64, ptr %graph, align 8, !tbaa !78
  %__end_.i = getelementptr inbounds %"class.testing::internal::MaxBipartiteMatchState", ptr %this, i64 0, i32 1, i32 1
  %__end_cap_.i = getelementptr inbounds %"class.testing::internal::MaxBipartiteMatchState", ptr %this, i64 0, i32 1, i32 2
  %cmp.not.i = icmp eq i64 %0, 0
  tail call void @llvm.memset.p0.i64(ptr noundef nonnull align 8 dereferenceable(24) %left_, i8 0, i64 24, i1 false)
  br i1 %cmp.not.i, label %_ZNSt3__16vectorImNS_9allocatorImEEEC2EmRKm.exit, label %if.then.i

if.then.i:                                        ; preds = %entry
  %cmp.i.i = icmp ugt i64 %0, 2305843009213693951
  br i1 %cmp.i.i, label %if.then.i.i, label %_ZNSt3__119__allocate_at_leastB7v170000INS_9allocatorImEEEENS_19__allocation_resultINS_16allocator_traitsIT_E7pointerEEERS5_m.exit.i.i

if.then.i.i:                                      ; preds = %if.then.i
  invoke void @_ZNKSt3__16vectorImNS_9allocatorImEEE20__throw_length_errorB7v170000Ev(ptr noundef nonnull align 8 dereferenceable(24) %left_) #38
          to label %.noexc.i unwind label %if.then.i9.i

.noexc.i:                                         ; preds = %if.then.i.i
  unreachable

_ZNSt3__119__allocate_at_leastB7v170000INS_9allocatorImEEEENS_19__allocation_resultINS_16allocator_traitsIT_E7pointerEEERS5_m.exit.i.i: ; preds = %if.then.i
  %mul.i.i.i.i = shl nuw i64 %0, 3
  %call.i.i.i.i.i8.i = invoke noalias noundef nonnull ptr @_Znwm(i64 noundef %mul.i.i.i.i) #37
          to label %invoke.cont3.i unwind label %if.then.i9.i

invoke.cont3.i:                                   ; preds = %_ZNSt3__119__allocate_at_leastB7v170000INS_9allocatorImEEEENS_19__allocation_resultINS_16allocator_traitsIT_E7pointerEEERS5_m.exit.i.i
  store ptr %call.i.i.i.i.i8.i, ptr %left_, align 8, !tbaa !71
  %add.ptr.i.i = getelementptr inbounds i64, ptr %call.i.i.i.i.i8.i, i64 %0
  store ptr %add.ptr.i.i, ptr %__end_cap_.i, align 8, !tbaa !32
  tail call void @llvm.memset.p0.i64(ptr nonnull align 8 %call.i.i.i.i.i8.i, i8 -1, i64 %mul.i.i.i.i, i1 false), !tbaa !83
  store ptr %add.ptr.i.i, ptr %__end_.i, align 8, !tbaa !75
  br label %_ZNSt3__16vectorImNS_9allocatorImEEEC2EmRKm.exit

if.then.i9.i:                                     ; preds = %_ZNSt3__119__allocate_at_leastB7v170000INS_9allocatorImEEEENS_19__allocation_resultINS_16allocator_traitsIT_E7pointerEEERS5_m.exit.i.i, %if.then.i.i
  %1 = landingpad { ptr, i32 }
          cleanup
  %2 = load ptr, ptr %left_, align 8, !tbaa !71
  %cmp.not.i.i.i = icmp eq ptr %2, null
  br i1 %cmp.not.i.i.i, label %common.resume, label %common.resume.sink.split

common.resume.sink.split:                         ; preds = %if.then.i9.i, %lpad.body
  %.sink31 = phi ptr [ %6, %lpad.body ], [ %2, %if.then.i9.i ]
  %common.resume.op.ph = phi { ptr, i32 } [ %4, %lpad.body ], [ %1, %if.then.i9.i ]
  store ptr %.sink31, ptr %__end_.i, align 8, !tbaa !75
  tail call void @_ZdlPv(ptr noundef nonnull %.sink31) #36
  br label %common.resume

common.resume:                                    ; preds = %common.resume.sink.split, %lpad.body, %if.then.i9.i
  %common.resume.op = phi { ptr, i32 } [ %1, %if.then.i9.i ], [ %4, %lpad.body ], [ %common.resume.op.ph, %common.resume.sink.split ]
  resume { ptr, i32 } %common.resume.op

_ZNSt3__16vectorImNS_9allocatorImEEEC2EmRKm.exit: ; preds = %entry, %invoke.cont3.i
  %right_ = getelementptr inbounds %"class.testing::internal::MaxBipartiteMatchState", ptr %this, i64 0, i32 2
  %num_matchers_.i = getelementptr inbounds %"class.testing::internal::MatchMatrix", ptr %graph, i64 0, i32 1
  %3 = load i64, ptr %num_matchers_.i, align 8, !tbaa !84
  %__end_.i7 = getelementptr inbounds %"class.testing::internal::MaxBipartiteMatchState", ptr %this, i64 0, i32 2, i32 1
  %__end_cap_.i8 = getelementptr inbounds %"class.testing::internal::MaxBipartiteMatchState", ptr %this, i64 0, i32 2, i32 2
  %cmp.not.i9 = icmp eq i64 %3, 0
  tail call void @llvm.memset.p0.i64(ptr noundef nonnull align 8 dereferenceable(24) %right_, i8 0, i64 24, i1 false)
  br i1 %cmp.not.i9, label %invoke.cont5, label %if.then.i11

if.then.i11:                                      ; preds = %_ZNSt3__16vectorImNS_9allocatorImEEEC2EmRKm.exit
  %cmp.i.i10 = icmp ugt i64 %3, 2305843009213693951
  br i1 %cmp.i.i10, label %if.then.i.i12, label %_ZNSt3__119__allocate_at_leastB7v170000INS_9allocatorImEEEENS_19__allocation_resultINS_16allocator_traitsIT_E7pointerEEERS5_m.exit.i.i16

if.then.i.i12:                                    ; preds = %if.then.i11
  invoke void @_ZNKSt3__16vectorImNS_9allocatorImEEE20__throw_length_errorB7v170000Ev(ptr noundef nonnull align 8 dereferenceable(24) %right_) #38
          to label %.noexc.i13 unwind label %if.then.i9.i25

.noexc.i13:                                       ; preds = %if.then.i.i12
  unreachable

_ZNSt3__119__allocate_at_leastB7v170000INS_9allocatorImEEEENS_19__allocation_resultINS_16allocator_traitsIT_E7pointerEEERS5_m.exit.i.i16: ; preds = %if.then.i11
  %mul.i.i.i.i14 = shl nuw i64 %3, 3
  %call.i.i.i.i.i8.i15 = invoke noalias noundef nonnull ptr @_Znwm(i64 noundef %mul.i.i.i.i14) #37
          to label %invoke.cont3.i18 unwind label %if.then.i9.i25

invoke.cont3.i18:                                 ; preds = %_ZNSt3__119__allocate_at_leastB7v170000INS_9allocatorImEEEENS_19__allocation_resultINS_16allocator_traitsIT_E7pointerEEERS5_m.exit.i.i16
  store ptr %call.i.i.i.i.i8.i15, ptr %right_, align 8, !tbaa !71
  %add.ptr.i.i17 = getelementptr inbounds i64, ptr %call.i.i.i.i.i8.i15, i64 %3
  store ptr %add.ptr.i.i17, ptr %__end_cap_.i8, align 8, !tbaa !32
  tail call void @llvm.memset.p0.i64(ptr nonnull align 8 %call.i.i.i.i.i8.i15, i8 -1, i64 %mul.i.i.i.i14, i1 false), !tbaa !83
  store ptr %add.ptr.i.i17, ptr %__end_.i7, align 8, !tbaa !75
  br label %invoke.cont5

if.then.i9.i25:                                   ; preds = %_ZNSt3__119__allocate_at_leastB7v170000INS_9allocatorImEEEENS_19__allocation_resultINS_16allocator_traitsIT_E7pointerEEERS5_m.exit.i.i16, %if.then.i.i12
  %4 = landingpad { ptr, i32 }
          cleanup
  %5 = load ptr, ptr %right_, align 8, !tbaa !71
  %cmp.not.i.i.i24 = icmp eq ptr %5, null
  br i1 %cmp.not.i.i.i24, label %lpad.body, label %if.then.i.i.i26

if.then.i.i.i26:                                  ; preds = %if.then.i9.i25
  store ptr %5, ptr %__end_.i7, align 8, !tbaa !75
  tail call void @_ZdlPv(ptr noundef nonnull %5) #36
  br label %lpad.body

invoke.cont5:                                     ; preds = %invoke.cont3.i18, %_ZNSt3__16vectorImNS_9allocatorImEEEC2EmRKm.exit
  ret void

lpad.body:                                        ; preds = %if.then.i9.i25, %if.then.i.i.i26
  %6 = load ptr, ptr %left_, align 8, !tbaa !71
  %cmp.not.i.i29 = icmp eq ptr %6, null
  br i1 %cmp.not.i.i29, label %common.resume, label %common.resume.sink.split
}

; Function Attrs: uwtable
define linkonce_odr hidden void @_ZN7testing8internal22MaxBipartiteMatchState7ComputeEv(ptr noalias sret(%"class.std::__1::vector.18") align 8 %agg.result, ptr noundef nonnull align 8 dereferenceable(56) %this) local_unnamed_addr #0 comdat align 2 personality ptr @__gxx_personality_v0 {
entry:
  %seen = alloca %"class.std::__1::vector.15", align 8
  %ref.tmp = alloca %"class.testing::internal::GTestLog", align 4
  %ref.tmp25 = alloca i8, align 1
  call void @llvm.lifetime.start.p0(i64 24, ptr nonnull %seen) #35
  call void @llvm.memset.p0.i64(ptr noundef nonnull align 8 dereferenceable(24) %seen, i8 0, i64 24, i1 false)
  %0 = load ptr, ptr %this, align 8, !tbaa !76
  %1 = load i64, ptr %0, align 8, !tbaa !78
  %cmp97.not = icmp eq i64 %1, 0
  br i1 %cmp97.not, label %for.cond.cleanup, label %for.body.lr.ph

for.body.lr.ph:                                   ; preds = %entry
  %left_ = getelementptr inbounds %"class.testing::internal::MaxBipartiteMatchState", ptr %this, i64 0, i32 1
  br label %for.body

for.cond.cleanup:                                 ; preds = %for.inc, %entry
  call void @llvm.memset.p0.i64(ptr noundef nonnull align 8 dereferenceable(24) %agg.result, i8 0, i64 24, i1 false)
  %left_34 = getelementptr inbounds %"class.testing::internal::MaxBipartiteMatchState", ptr %this, i64 0, i32 1
  %__end_.i = getelementptr inbounds %"class.testing::internal::MaxBipartiteMatchState", ptr %this, i64 0, i32 1, i32 1
  %2 = load ptr, ptr %__end_.i, align 8, !tbaa !75
  %3 = load ptr, ptr %left_34, align 8, !tbaa !71
  %cmp36103.not = icmp eq ptr %2, %3
  br i1 %cmp36103.not, label %for.cond.cleanup37, label %for.body38.lr.ph

for.body38.lr.ph:                                 ; preds = %for.cond.cleanup
  %__end_.i79 = getelementptr inbounds %"class.std::__1::vector.18", ptr %agg.result, i64 0, i32 1
  %__end_cap_.i.i = getelementptr inbounds %"class.std::__1::vector.18", ptr %agg.result, i64 0, i32 2
  br label %for.body38

lpad:                                             ; preds = %invoke.cont27, %for.body
  %4 = landingpad { ptr, i32 }
          cleanup
  br label %ehcleanup57

for.body:                                         ; preds = %for.body.lr.ph, %for.inc
  %ilhs.098 = phi i64 [ 0, %for.body.lr.ph ], [ %inc, %for.inc ]
  %5 = load ptr, ptr %left_, align 8, !tbaa !71
  %arrayidx.i = getelementptr inbounds i64, ptr %5, i64 %ilhs.098
  %6 = load i64, ptr %arrayidx.i, align 8, !tbaa !83
  %cmp3 = icmp eq i64 %6, -1
  %call5 = invoke noundef zeroext i1 @_ZN7testing8internal6IsTrueEb(i1 noundef zeroext %cmp3)
          to label %invoke.cont4 unwind label %lpad

invoke.cont4:                                     ; preds = %for.body
  br i1 %call5, label %if.end, label %if.else

if.else:                                          ; preds = %invoke.cont4
  call void @llvm.lifetime.start.p0(i64 4, ptr nonnull %ref.tmp) #35
  invoke void @_ZN7testing8internal8GTestLogC1ENS0_16GTestLogSeverityEPKci(ptr noundef nonnull align 4 dereferenceable(4) %ref.tmp, i32 noundef 3, ptr noundef nonnull @.str.95, i32 noundef 151)
          to label %invoke.cont7 unwind label %lpad6

invoke.cont7:                                     ; preds = %if.else
  %call1.i70 = invoke noundef nonnull align 8 dereferenceable(8) ptr @_ZNSt3__124__put_character_sequenceB7v170000IcNS_11char_traitsIcEEEERNS_13basic_ostreamIT_T0_EES7_PKS4_m(ptr noundef nonnull align 8 dereferenceable(8) @_ZNSt3__14cerrE, ptr noundef nonnull @.str.96, i64 noundef 41)
          to label %invoke.cont10 unwind label %lpad9

invoke.cont10:                                    ; preds = %invoke.cont7
  %call1.i72 = invoke noundef nonnull align 8 dereferenceable(8) ptr @_ZNSt3__124__put_character_sequenceB7v170000IcNS_11char_traitsIcEEEERNS_13basic_ostreamIT_T0_EES7_PKS4_m(ptr noundef nonnull align 8 dereferenceable(8) %call1.i70, ptr noundef nonnull @.str.97, i64 noundef 6)
          to label %invoke.cont12 unwind label %lpad9

invoke.cont12:                                    ; preds = %invoke.cont10
  %call15 = invoke noundef nonnull align 8 dereferenceable(8) ptr @_ZNSt3__113basic_ostreamIcNS_11char_traitsIcEEElsEm(ptr noundef nonnull align 8 dereferenceable(8) %call1.i72, i64 noundef %ilhs.098)
          to label %invoke.cont14 unwind label %lpad9

invoke.cont14:                                    ; preds = %invoke.cont12
  %call1.i75 = invoke noundef nonnull align 8 dereferenceable(8) ptr @_ZNSt3__124__put_character_sequenceB7v170000IcNS_11char_traitsIcEEEERNS_13basic_ostreamIT_T0_EES7_PKS4_m(ptr noundef nonnull align 8 dereferenceable(8) %call15, ptr noundef nonnull @.str.98, i64 noundef 15)
          to label %invoke.cont16 unwind label %lpad9

invoke.cont16:                                    ; preds = %invoke.cont14
  %7 = load ptr, ptr %left_, align 8, !tbaa !71
  %arrayidx.i77 = getelementptr inbounds i64, ptr %7, i64 %ilhs.098
  %8 = load i64, ptr %arrayidx.i77, align 8, !tbaa !83
  %call21 = invoke noundef nonnull align 8 dereferenceable(8) ptr @_ZNSt3__113basic_ostreamIcNS_11char_traitsIcEEElsEm(ptr noundef nonnull align 8 dereferenceable(8) %call1.i75, i64 noundef %8)
          to label %invoke.cont20 unwind label %lpad9

invoke.cont20:                                    ; preds = %invoke.cont16
  call void @_ZN7testing8internal8GTestLogD1Ev(ptr noundef nonnull align 4 dereferenceable(4) %ref.tmp) #35
  call void @llvm.lifetime.end.p0(i64 4, ptr nonnull %ref.tmp) #35
  br label %if.end

lpad6:                                            ; preds = %if.else
  %9 = landingpad { ptr, i32 }
          cleanup
  br label %ehcleanup

lpad9:                                            ; preds = %invoke.cont14, %invoke.cont10, %invoke.cont7, %invoke.cont16, %invoke.cont12
  %10 = landingpad { ptr, i32 }
          cleanup
  call void @_ZN7testing8internal8GTestLogD1Ev(ptr noundef nonnull align 4 dereferenceable(4) %ref.tmp) #35
  br label %ehcleanup

ehcleanup:                                        ; preds = %lpad9, %lpad6
  %.pn = phi { ptr, i32 } [ %10, %lpad9 ], [ %9, %lpad6 ]
  call void @llvm.lifetime.end.p0(i64 4, ptr nonnull %ref.tmp) #35
  br label %ehcleanup57

if.end:                                           ; preds = %invoke.cont4, %invoke.cont20
  %11 = load ptr, ptr %this, align 8, !tbaa !76
  %num_matchers_.i = getelementptr inbounds %"class.testing::internal::MatchMatrix", ptr %11, i64 0, i32 1
  %12 = load i64, ptr %num_matchers_.i, align 8, !tbaa !84
  call void @llvm.lifetime.start.p0(i64 1, ptr nonnull %ref.tmp25) #35
  store i8 0, ptr %ref.tmp25, align 1, !tbaa !5
  invoke void @_ZNSt3__16vectorIcNS_9allocatorIcEEE6assignEmRKc(ptr noundef nonnull align 8 dereferenceable(24) %seen, i64 noundef %12, ptr noundef nonnull align 1 dereferenceable(1) %ref.tmp25)
          to label %invoke.cont27 unwind label %lpad26

invoke.cont27:                                    ; preds = %if.end
  call void @llvm.lifetime.end.p0(i64 1, ptr nonnull %ref.tmp25) #35
  %call30 = invoke noundef zeroext i1 @_ZN7testing8internal22MaxBipartiteMatchState10TryAugmentEmPNSt3__16vectorIcNS2_9allocatorIcEEEE(ptr noundef nonnull align 8 dereferenceable(56) %this, i64 noundef %ilhs.098, ptr noundef nonnull %seen)
          to label %for.inc unwind label %lpad

for.inc:                                          ; preds = %invoke.cont27
  %inc = add nuw i64 %ilhs.098, 1
  %13 = load ptr, ptr %this, align 8, !tbaa !76
  %14 = load i64, ptr %13, align 8, !tbaa !78
  %cmp = icmp ult i64 %inc, %14
  br i1 %cmp, label %for.body, label %for.cond.cleanup, !llvm.loop !85

lpad26:                                           ; preds = %if.end
  %15 = landingpad { ptr, i32 }
          cleanup
  call void @llvm.lifetime.end.p0(i64 1, ptr nonnull %ref.tmp25) #35
  br label %ehcleanup57

for.cond.cleanup37:                               ; preds = %cleanup, %for.cond.cleanup
  %16 = load ptr, ptr %seen, align 8, !tbaa !86
  %cmp.not.i.i = icmp eq ptr %16, null
  br i1 %cmp.not.i.i, label %_ZNSt3__16vectorIcNS_9allocatorIcEEED2B7v170000Ev.exit, label %if.then.i.i

if.then.i.i:                                      ; preds = %for.cond.cleanup37
  %__end_.i.i.i.i = getelementptr inbounds %"class.std::__1::vector.15", ptr %seen, i64 0, i32 1
  store ptr %16, ptr %__end_.i.i.i.i, align 8, !tbaa !87
  call void @_ZdlPv(ptr noundef nonnull %16) #36
  br label %_ZNSt3__16vectorIcNS_9allocatorIcEEED2B7v170000Ev.exit

_ZNSt3__16vectorIcNS_9allocatorIcEEED2B7v170000Ev.exit: ; preds = %for.cond.cleanup37, %if.then.i.i
  call void @llvm.lifetime.end.p0(i64 24, ptr nonnull %seen) #35
  ret void

for.body38:                                       ; preds = %for.body38.lr.ph, %cleanup
  %17 = phi ptr [ null, %for.body38.lr.ph ], [ %23, %cleanup ]
  %18 = phi ptr [ %3, %for.body38.lr.ph ], [ %25, %cleanup ]
  %storemerge104 = phi i64 [ 0, %for.body38.lr.ph ], [ %inc50, %cleanup ]
  %arrayidx.i78 = getelementptr inbounds i64, ptr %18, i64 %storemerge104
  %19 = load i64, ptr %arrayidx.i78, align 8, !tbaa !83
  %cmp41 = icmp eq i64 %19, -1
  br i1 %cmp41, label %cleanup, label %if.end43

if.end43:                                         ; preds = %for.body38
  %20 = load ptr, ptr %__end_cap_.i.i, align 8, !tbaa !32
  %cmp.i = icmp ult ptr %17, %20
  br i1 %cmp.i, label %if.then.i, label %if.else.i

if.then.i:                                        ; preds = %if.end43
  store i64 %storemerge104, ptr %17, align 8, !tbaa.struct !88
  %ref.tmp44.sroa.6.0..sroa_idx = getelementptr inbounds i8, ptr %17, i64 8
  store i64 %19, ptr %ref.tmp44.sroa.6.0..sroa_idx, align 8, !tbaa.struct !89
  %incdec.ptr.i.i = getelementptr inbounds %"struct.std::__1::pair", ptr %17, i64 1
  store ptr %incdec.ptr.i.i, ptr %__end_.i79, align 8, !tbaa !90
  br label %cleanup

if.else.i:                                        ; preds = %if.end43
  %21 = load ptr, ptr %agg.result, align 8, !tbaa !94
  %sub.ptr.lhs.cast.i.i.i = ptrtoint ptr %17 to i64
  %sub.ptr.rhs.cast.i.i.i = ptrtoint ptr %21 to i64
  %sub.ptr.sub.i.i.i = sub i64 %sub.ptr.lhs.cast.i.i.i, %sub.ptr.rhs.cast.i.i.i
  %sub.ptr.div.i.i.i = ashr exact i64 %sub.ptr.sub.i.i.i, 4
  %add.i.i = add nsw i64 %sub.ptr.div.i.i.i, 1
  %cmp.i.i.i = icmp ugt i64 %add.i.i, 1152921504606846975
  br i1 %cmp.i.i.i, label %if.then.i.i.i, label %_ZNKSt3__16vectorINS_4pairImmEENS_9allocatorIS2_EEE11__recommendB7v170000Em.exit.i.i

if.then.i.i.i:                                    ; preds = %if.else.i
  invoke void @_ZNKSt3__16vectorINS_4pairImmEENS_9allocatorIS2_EEE20__throw_length_errorB7v170000Ev(ptr noundef nonnull align 8 dereferenceable(24) %agg.result) #38
          to label %.noexc unwind label %lpad45.loopexit.split-lp

.noexc:                                           ; preds = %if.then.i.i.i
  unreachable

_ZNKSt3__16vectorINS_4pairImmEENS_9allocatorIS2_EEE11__recommendB7v170000Em.exit.i.i: ; preds = %if.else.i
  %sub.ptr.lhs.cast.i.i.i.i = ptrtoint ptr %20 to i64
  %sub.ptr.sub.i.i.i.i = sub i64 %sub.ptr.lhs.cast.i.i.i.i, %sub.ptr.rhs.cast.i.i.i
  %cmp3.not.i.i.i = icmp ult i64 %sub.ptr.sub.i.i.i.i, 9223372036854775792
  %mul.i.i.i = lshr exact i64 %sub.ptr.sub.i.i.i.i, 3
  %.sroa.speculated.i.i.i = call i64 @llvm.umax.i64(i64 %mul.i.i.i, i64 %add.i.i)
  %retval.0.i.i.i = select i1 %cmp3.not.i.i.i, i64 %.sroa.speculated.i.i.i, i64 1152921504606846975
  %cmp.i16.i.i = icmp eq i64 %retval.0.i.i.i, 0
  br i1 %cmp.i16.i.i, label %invoke.cont.i.i, label %if.else.i.i.i

if.else.i.i.i:                                    ; preds = %_ZNKSt3__16vectorINS_4pairImmEENS_9allocatorIS2_EEE11__recommendB7v170000Em.exit.i.i
  %cmp.i.i.i.i.i = icmp ugt i64 %retval.0.i.i.i, 1152921504606846975
  br i1 %cmp.i.i.i.i.i, label %if.then.i.i.i.i.i, label %_ZNSt3__119__allocate_at_leastB7v170000INS_9allocatorINS_4pairImmEEEEEENS_19__allocation_resultINS_16allocator_traitsIT_E7pointerEEERS7_m.exit.i.i.i

if.then.i.i.i.i.i:                                ; preds = %if.else.i.i.i
  invoke void @_ZSt28__throw_bad_array_new_lengthB7v170000v() #38
          to label %.noexc80 unwind label %lpad45.loopexit.split-lp

.noexc80:                                         ; preds = %if.then.i.i.i.i.i
  unreachable

_ZNSt3__119__allocate_at_leastB7v170000INS_9allocatorINS_4pairImmEEEEEENS_19__allocation_resultINS_16allocator_traitsIT_E7pointerEEERS7_m.exit.i.i.i: ; preds = %if.else.i.i.i
  %mul.i.i.i.i.i = shl nuw i64 %retval.0.i.i.i, 4
  %call.i.i.i.i.i.i.i81 = invoke noalias noundef nonnull ptr @_Znwm(i64 noundef %mul.i.i.i.i.i) #37
          to label %invoke.cont.i.i unwind label %lpad45.loopexit

invoke.cont.i.i:                                  ; preds = %_ZNSt3__119__allocate_at_leastB7v170000INS_9allocatorINS_4pairImmEEEEEENS_19__allocation_resultINS_16allocator_traitsIT_E7pointerEEERS7_m.exit.i.i.i, %_ZNKSt3__16vectorINS_4pairImmEENS_9allocatorIS2_EEE11__recommendB7v170000Em.exit.i.i
  %storemerge.i.i.i = phi ptr [ null, %_ZNKSt3__16vectorINS_4pairImmEENS_9allocatorIS2_EEE11__recommendB7v170000Em.exit.i.i ], [ %call.i.i.i.i.i.i.i81, %_ZNSt3__119__allocate_at_leastB7v170000INS_9allocatorINS_4pairImmEEEEEENS_19__allocation_resultINS_16allocator_traitsIT_E7pointerEEERS7_m.exit.i.i.i ]
  %add.ptr.i.i.i = getelementptr inbounds %"struct.std::__1::pair", ptr %storemerge.i.i.i, i64 %sub.ptr.div.i.i.i
  %add.ptr6.i.i.i = getelementptr inbounds %"struct.std::__1::pair", ptr %storemerge.i.i.i, i64 %retval.0.i.i.i
  store i64 %storemerge104, ptr %add.ptr.i.i.i, align 8, !tbaa.struct !88
  %ref.tmp44.sroa.6.0.add.ptr.i.i.i.sroa_idx = getelementptr inbounds i8, ptr %add.ptr.i.i.i, i64 8
  store i64 %19, ptr %ref.tmp44.sroa.6.0.add.ptr.i.i.i.sroa_idx, align 8, !tbaa.struct !89
  %incdec.ptr.i4.i = getelementptr inbounds %"struct.std::__1::pair", ptr %add.ptr.i.i.i, i64 1
  %cmp.i.not18.i.i.i.i = icmp eq ptr %17, %21
  br i1 %cmp.i.not18.i.i.i.i, label %invoke.cont7.i.i, label %invoke.cont4.i.i.i.i

invoke.cont4.i.i.i.i:                             ; preds = %invoke.cont.i.i, %invoke.cont4.i.i.i.i
  %incdec.ptr.i.i.i.i20.i.i.i.i = phi ptr [ %incdec.ptr.i.i.i.i.i.i.i.i, %invoke.cont4.i.i.i.i ], [ %add.ptr.i.i.i, %invoke.cont.i.i ]
  %__first1.sroa.1.019.i.i.i.i = phi ptr [ %incdec.ptr.i.i.i.i.i, %invoke.cont4.i.i.i.i ], [ %17, %invoke.cont.i.i ]
  %incdec.ptr.i.i.i.i.i.i.i.i = getelementptr inbounds %"struct.std::__1::pair", ptr %incdec.ptr.i.i.i.i20.i.i.i.i, i64 -1
  %incdec.ptr.i.i.i.i.i = getelementptr inbounds %"struct.std::__1::pair", ptr %__first1.sroa.1.019.i.i.i.i, i64 -1
  call void @llvm.memcpy.p0.p0.i64(ptr noundef nonnull align 8 dereferenceable(16) %incdec.ptr.i.i.i.i.i.i.i.i, ptr noundef nonnull align 8 dereferenceable(16) %incdec.ptr.i.i.i.i.i, i64 16, i1 false), !tbaa.struct !88
  %cmp.i.not.i.i.i.i = icmp eq ptr %incdec.ptr.i.i.i.i.i, %21
  br i1 %cmp.i.not.i.i.i.i, label %invoke.cont7.loopexit.i.i, label %invoke.cont4.i.i.i.i, !llvm.loop !95

invoke.cont7.loopexit.i.i:                        ; preds = %invoke.cont4.i.i.i.i
  %.pre.i.i = load ptr, ptr %agg.result, align 8, !tbaa !32
  br label %invoke.cont7.i.i

invoke.cont7.i.i:                                 ; preds = %invoke.cont7.loopexit.i.i, %invoke.cont.i.i
  %22 = phi ptr [ %21, %invoke.cont.i.i ], [ %.pre.i.i, %invoke.cont7.loopexit.i.i ]
  %retval.sroa.2.0.copyload.i.i.i.i = phi ptr [ %add.ptr.i.i.i, %invoke.cont.i.i ], [ %incdec.ptr.i.i.i.i.i.i.i.i, %invoke.cont7.loopexit.i.i ]
  store ptr %retval.sroa.2.0.copyload.i.i.i.i, ptr %agg.result, align 8, !tbaa !32
  store ptr %incdec.ptr.i4.i, ptr %__end_.i79, align 8, !tbaa !32
  store ptr %add.ptr6.i.i.i, ptr %__end_cap_.i.i, align 8, !tbaa !32
  %tobool.not.i.i.i = icmp eq ptr %22, null
  br i1 %tobool.not.i.i.i, label %cleanup, label %if.then.i19.i.i

if.then.i19.i.i:                                  ; preds = %invoke.cont7.i.i
  call void @_ZdlPv(ptr noundef nonnull %22) #36
  br label %cleanup

cleanup:                                          ; preds = %if.then.i, %invoke.cont7.i.i, %if.then.i19.i.i, %for.body38
  %23 = phi ptr [ %incdec.ptr.i.i, %if.then.i ], [ %incdec.ptr.i4.i, %invoke.cont7.i.i ], [ %incdec.ptr.i4.i, %if.then.i19.i.i ], [ %17, %for.body38 ]
  %inc50 = add nuw i64 %storemerge104, 1
  %24 = load ptr, ptr %__end_.i, align 8, !tbaa !75
  %25 = load ptr, ptr %left_34, align 8, !tbaa !71
  %sub.ptr.lhs.cast.i = ptrtoint ptr %24 to i64
  %sub.ptr.rhs.cast.i = ptrtoint ptr %25 to i64
  %sub.ptr.sub.i = sub i64 %sub.ptr.lhs.cast.i, %sub.ptr.rhs.cast.i
  %sub.ptr.div.i = ashr exact i64 %sub.ptr.sub.i, 3
  %cmp36 = icmp ult i64 %inc50, %sub.ptr.div.i
  br i1 %cmp36, label %for.body38, label %for.cond.cleanup37, !llvm.loop !96

lpad45.loopexit:                                  ; preds = %_ZNSt3__119__allocate_at_leastB7v170000INS_9allocatorINS_4pairImmEEEEEENS_19__allocation_resultINS_16allocator_traitsIT_E7pointerEEERS7_m.exit.i.i.i
  %lpad.loopexit = landingpad { ptr, i32 }
          cleanup
  br label %lpad45

lpad45.loopexit.split-lp:                         ; preds = %if.then.i.i.i, %if.then.i.i.i.i.i
  %lpad.loopexit.split-lp = landingpad { ptr, i32 }
          cleanup
  %.pre = load ptr, ptr %agg.result, align 8, !tbaa !94
  br label %lpad45

lpad45:                                           ; preds = %lpad45.loopexit.split-lp, %lpad45.loopexit
  %26 = phi ptr [ %21, %lpad45.loopexit ], [ %.pre, %lpad45.loopexit.split-lp ]
  %lpad.phi = phi { ptr, i32 } [ %lpad.loopexit, %lpad45.loopexit ], [ %lpad.loopexit.split-lp, %lpad45.loopexit.split-lp ]
  %cmp.not.i.i82 = icmp eq ptr %26, null
  br i1 %cmp.not.i.i82, label %ehcleanup57, label %if.then.i.i84

if.then.i.i84:                                    ; preds = %lpad45
  store ptr %26, ptr %__end_.i79, align 8, !tbaa !90
  call void @_ZdlPv(ptr noundef nonnull %26) #36
  br label %ehcleanup57

ehcleanup57:                                      ; preds = %if.then.i.i84, %lpad45, %lpad, %ehcleanup, %lpad26
  %.pn66.pn = phi { ptr, i32 } [ %4, %lpad ], [ %15, %lpad26 ], [ %.pn, %ehcleanup ], [ %lpad.phi, %lpad45 ], [ %lpad.phi, %if.then.i.i84 ]
  %27 = load ptr, ptr %seen, align 8, !tbaa !86
  %cmp.not.i.i85 = icmp eq ptr %27, null
  br i1 %cmp.not.i.i85, label %_ZNSt3__16vectorIcNS_9allocatorIcEEED2B7v170000Ev.exit88, label %if.then.i.i87

if.then.i.i87:                                    ; preds = %ehcleanup57
  %__end_.i.i.i.i86 = getelementptr inbounds %"class.std::__1::vector.15", ptr %seen, i64 0, i32 1
  store ptr %27, ptr %__end_.i.i.i.i86, align 8, !tbaa !87
  call void @_ZdlPv(ptr noundef nonnull %27) #36
  br label %_ZNSt3__16vectorIcNS_9allocatorIcEEED2B7v170000Ev.exit88

_ZNSt3__16vectorIcNS_9allocatorIcEEED2B7v170000Ev.exit88: ; preds = %ehcleanup57, %if.then.i.i87
  call void @llvm.lifetime.end.p0(i64 24, ptr nonnull %seen) #35
  resume { ptr, i32 } %.pn66.pn
}

; Function Attrs: inlinehint nounwind uwtable
define linkonce_odr hidden void @_ZN7testing8internal22MaxBipartiteMatchStateD2Ev(ptr noundef nonnull align 8 dereferenceable(56) %this) unnamed_addr #3 comdat align 2 personality ptr @__gxx_personality_v0 {
entry:
  %right_ = getelementptr inbounds %"class.testing::internal::MaxBipartiteMatchState", ptr %this, i64 0, i32 2
  %0 = load ptr, ptr %right_, align 8, !tbaa !71
  %cmp.not.i.i = icmp eq ptr %0, null
  br i1 %cmp.not.i.i, label %_ZNSt3__16vectorImNS_9allocatorImEEED2B7v170000Ev.exit, label %if.then.i.i

if.then.i.i:                                      ; preds = %entry
  %__end_.i.i.i.i = getelementptr inbounds %"class.testing::internal::MaxBipartiteMatchState", ptr %this, i64 0, i32 2, i32 1
  store ptr %0, ptr %__end_.i.i.i.i, align 8, !tbaa !75
  tail call void @_ZdlPv(ptr noundef nonnull %0) #36
  br label %_ZNSt3__16vectorImNS_9allocatorImEEED2B7v170000Ev.exit

_ZNSt3__16vectorImNS_9allocatorImEEED2B7v170000Ev.exit: ; preds = %entry, %if.then.i.i
  %left_ = getelementptr inbounds %"class.testing::internal::MaxBipartiteMatchState", ptr %this, i64 0, i32 1
  %1 = load ptr, ptr %left_, align 8, !tbaa !71
  %cmp.not.i.i2 = icmp eq ptr %1, null
  br i1 %cmp.not.i.i2, label %_ZNSt3__16vectorImNS_9allocatorImEEED2B7v170000Ev.exit5, label %if.then.i.i4

if.then.i.i4:                                     ; preds = %_ZNSt3__16vectorImNS_9allocatorImEEED2B7v170000Ev.exit
  %__end_.i.i.i.i3 = getelementptr inbounds %"class.testing::internal::MaxBipartiteMatchState", ptr %this, i64 0, i32 1, i32 1
  store ptr %1, ptr %__end_.i.i.i.i3, align 8, !tbaa !75
  tail call void @_ZdlPv(ptr noundef nonnull %1) #36
  br label %_ZNSt3__16vectorImNS_9allocatorImEEED2B7v170000Ev.exit5

_ZNSt3__16vectorImNS_9allocatorImEEED2B7v170000Ev.exit5: ; preds = %_ZNSt3__16vectorImNS_9allocatorImEEED2B7v170000Ev.exit, %if.then.i.i4
  ret void
}

; Function Attrs: mustprogress nofree norecurse nosync nounwind memory(readwrite, inaccessiblemem: none) uwtable
define dso_local noundef zeroext i1 @_ZN7testing8internal11MatchMatrix9NextGraphEv(ptr nocapture noundef nonnull readonly align 8 dereferenceable(40) %this) local_unnamed_addr #13 align 2 {
entry:
  %0 = load i64, ptr %this, align 8, !tbaa !78
  %cmp.not32.not = icmp eq i64 %0, 0
  br i1 %cmp.not32.not, label %cleanup13, label %for.cond2.preheader.lr.ph

for.cond2.preheader.lr.ph:                        ; preds = %entry
  %num_matchers_.i = getelementptr inbounds %"class.testing::internal::MatchMatrix", ptr %this, i64 0, i32 1
  %matched_ = getelementptr inbounds %"class.testing::internal::MatchMatrix", ptr %this, i64 0, i32 2
  %1 = load i64, ptr %num_matchers_.i, align 8, !tbaa !84
  %.not = icmp eq i64 %1, 0
  br i1 %.not, label %cleanup13, label %for.cond2.preheader

for.cond2.preheader:                              ; preds = %for.cond2.preheader.lr.ph, %for.inc11
  %2 = phi i64 [ %8, %for.inc11 ], [ %0, %for.cond2.preheader.lr.ph ]
  %3 = phi i64 [ %9, %for.inc11 ], [ %1, %for.cond2.preheader.lr.ph ]
  %ilhs.033 = phi i64 [ %inc12, %for.inc11 ], [ 0, %for.cond2.preheader.lr.ph ]
  %cmp4.not30.not = icmp eq i64 %3, 0
  br i1 %cmp4.not30.not, label %for.inc11, label %for.body6

for.cond2:                                        ; preds = %for.body6
  %inc = add nuw i64 %irhs.031, 1
  %4 = load i64, ptr %num_matchers_.i, align 8, !tbaa !84
  %cmp4.not = icmp ult i64 %inc, %4
  br i1 %cmp4.not, label %for.body6, label %for.inc11.loopexit, !llvm.loop !97

for.body6:                                        ; preds = %for.cond2.preheader, %for.cond2
  %5 = phi i64 [ %4, %for.cond2 ], [ %3, %for.cond2.preheader ]
  %irhs.031 = phi i64 [ %inc, %for.cond2 ], [ 0, %for.cond2.preheader ]
  %mul.i = mul i64 %5, %ilhs.033
  %add.i = add i64 %mul.i, %irhs.031
  %6 = load ptr, ptr %matched_, align 8, !tbaa !86
  %arrayidx.i = getelementptr inbounds i8, ptr %6, i64 %add.i
  %7 = load i8, ptr %arrayidx.i, align 1, !tbaa !5
  %tobool.not.not = icmp eq i8 %7, 0
  %. = zext i1 %tobool.not.not to i8
  store i8 %., ptr %arrayidx.i, align 1, !tbaa !5
  br i1 %tobool.not.not, label %cleanup13, label %for.cond2

for.inc11.loopexit:                               ; preds = %for.cond2
  %.pre = load i64, ptr %this, align 8, !tbaa !78
  br label %for.inc11

for.inc11:                                        ; preds = %for.inc11.loopexit, %for.cond2.preheader
  %8 = phi i64 [ %.pre, %for.inc11.loopexit ], [ %2, %for.cond2.preheader ]
  %9 = phi i64 [ %4, %for.inc11.loopexit ], [ 0, %for.cond2.preheader ]
  %inc12 = add nuw i64 %ilhs.033, 1
  %cmp.not = icmp ult i64 %inc12, %8
  br i1 %cmp.not, label %for.cond2.preheader, label %cleanup13, !llvm.loop !98

cleanup13:                                        ; preds = %for.inc11, %for.body6, %for.cond2.preheader.lr.ph, %entry
  %cmp.not29 = phi i1 [ false, %entry ], [ false, %for.cond2.preheader.lr.ph ], [ true, %for.body6 ], [ false, %for.inc11 ]
  ret i1 %cmp.not29
}

; Function Attrs: mustprogress nounwind uwtable
define dso_local void @_ZN7testing8internal11MatchMatrix9RandomizeEv(ptr nocapture noundef nonnull readonly align 8 dereferenceable(40) %this) local_unnamed_addr #11 align 2 {
entry:
  %0 = load i64, ptr %this, align 8, !tbaa !78
  %cmp20.not = icmp eq i64 %0, 0
  br i1 %cmp20.not, label %for.cond.cleanup, label %for.cond2.preheader.lr.ph

for.cond2.preheader.lr.ph:                        ; preds = %entry
  %num_matchers_.i = getelementptr inbounds %"class.testing::internal::MatchMatrix", ptr %this, i64 0, i32 1
  %matched_ = getelementptr inbounds %"class.testing::internal::MatchMatrix", ptr %this, i64 0, i32 2
  %1 = load i64, ptr %num_matchers_.i, align 8, !tbaa !84
  %.not = icmp eq i64 %1, 0
  br i1 %.not, label %for.cond.cleanup, label %for.cond2.preheader

for.cond2.preheader:                              ; preds = %for.cond2.preheader.lr.ph, %for.cond.cleanup5
  %2 = phi i64 [ %4, %for.cond.cleanup5 ], [ %0, %for.cond2.preheader.lr.ph ]
  %3 = phi i64 [ %5, %for.cond.cleanup5 ], [ %1, %for.cond2.preheader.lr.ph ]
  %ilhs.021 = phi i64 [ %inc11, %for.cond.cleanup5 ], [ 0, %for.cond2.preheader.lr.ph ]
  %cmp418.not = icmp eq i64 %3, 0
  br i1 %cmp418.not, label %for.cond.cleanup5, label %for.body6

for.cond.cleanup:                                 ; preds = %for.cond.cleanup5, %for.cond2.preheader.lr.ph, %entry
  ret void

for.cond.cleanup5.loopexit:                       ; preds = %for.body6
  %.pre = load i64, ptr %this, align 8, !tbaa !78
  br label %for.cond.cleanup5

for.cond.cleanup5:                                ; preds = %for.cond.cleanup5.loopexit, %for.cond2.preheader
  %4 = phi i64 [ %.pre, %for.cond.cleanup5.loopexit ], [ %2, %for.cond2.preheader ]
  %5 = phi i64 [ %9, %for.cond.cleanup5.loopexit ], [ 0, %for.cond2.preheader ]
  %inc11 = add nuw i64 %ilhs.021, 1
  %cmp = icmp ult i64 %inc11, %4
  br i1 %cmp, label %for.cond2.preheader, label %for.cond.cleanup, !llvm.loop !100

for.body6:                                        ; preds = %for.cond2.preheader, %for.body6
  %6 = phi i64 [ %9, %for.body6 ], [ %3, %for.cond2.preheader ]
  %irhs.019 = phi i64 [ %inc, %for.body6 ], [ 0, %for.cond2.preheader ]
  %mul.i = mul i64 %6, %ilhs.021
  %add.i = add i64 %mul.i, %irhs.019
  %7 = load ptr, ptr %matched_, align 8, !tbaa !86
  %arrayidx.i = getelementptr inbounds i8, ptr %7, i64 %add.i
  %call9 = tail call i32 @rand() #35
  %8 = trunc i32 %call9 to i8
  %conv = and i8 %8, 1
  store i8 %conv, ptr %arrayidx.i, align 1, !tbaa !5
  %inc = add nuw i64 %irhs.019, 1
  %9 = load i64, ptr %num_matchers_.i, align 8, !tbaa !84
  %cmp4 = icmp ult i64 %inc, %9
  br i1 %cmp4, label %for.body6, label %for.cond.cleanup5.loopexit, !llvm.loop !101
}

; Function Attrs: nounwind
declare i32 @rand() local_unnamed_addr #8

; Function Attrs: uwtable
define dso_local void @_ZNK7testing8internal11MatchMatrix11DebugStringEv(ptr noalias sret(%"class.std::__1::basic_string") align 8 %agg.result, ptr nocapture noundef nonnull readonly align 8 dereferenceable(40) %this) local_unnamed_addr #0 align 2 personality ptr @__gxx_personality_v0 {
entry:
  %ss = alloca %"class.std::__1::basic_stringstream", align 8
  call void @llvm.lifetime.start.p0(i64 280, ptr nonnull %ss) #35
  %0 = getelementptr inbounds i8, ptr %ss, i64 128
  %add.ptr2.i = getelementptr inbounds i8, ptr %ss, i64 16
  store ptr getelementptr inbounds ({ [5 x ptr], [5 x ptr], [5 x ptr] }, ptr @_ZTVNSt3__118basic_stringstreamIcNS_11char_traitsIcEENS_9allocatorIcEEEE, i64 0, inrange i32 1, i64 3), ptr %add.ptr2.i, align 8, !tbaa !8
  %__sb_.i = getelementptr inbounds %"class.std::__1::basic_stringstream", ptr %ss, i64 0, i32 1
  store ptr getelementptr inbounds ({ [5 x ptr], [5 x ptr] }, ptr @_ZTCNSt3__118basic_stringstreamIcNS_11char_traitsIcEENS_9allocatorIcEEEE0_NS_13basic_istreamIcS2_EE, i64 0, inrange i32 0, i64 3), ptr %ss, align 8, !tbaa !8
  store ptr getelementptr inbounds ({ [5 x ptr], [5 x ptr] }, ptr @_ZTCNSt3__118basic_stringstreamIcNS_11char_traitsIcEENS_9allocatorIcEEEE0_NS_13basic_istreamIcS2_EE, i64 0, inrange i32 1, i64 3), ptr %0, align 8, !tbaa !8
  %__gc_.i.i.i = getelementptr inbounds %"class.std::__1::basic_istream", ptr %ss, i64 0, i32 1
  store i64 0, ptr %__gc_.i.i.i, align 8, !tbaa !10
  invoke void @_ZNSt3__18ios_base4initEPv(ptr noundef nonnull align 8 dereferenceable(136) %0, ptr noundef nonnull %__sb_.i)
          to label %invoke.cont.i unwind label %lpad.i

invoke.cont.i:                                    ; preds = %entry
  %__tie_.i.i.i.i = getelementptr inbounds i8, ptr %ss, i64 264
  store ptr null, ptr %__tie_.i.i.i.i, align 8, !tbaa !13
  %__fill_.i.i.i.i = getelementptr inbounds i8, ptr %ss, i64 272
  store i32 -1, ptr %__fill_.i.i.i.i, align 8, !tbaa !18
  store ptr getelementptr inbounds ({ [5 x ptr], [5 x ptr], [5 x ptr] }, ptr @_ZTVNSt3__118basic_stringstreamIcNS_11char_traitsIcEENS_9allocatorIcEEEE, i64 0, inrange i32 0, i64 3), ptr %ss, align 8, !tbaa !8
  store ptr getelementptr inbounds ({ [5 x ptr], [5 x ptr], [5 x ptr] }, ptr @_ZTVNSt3__118basic_stringstreamIcNS_11char_traitsIcEENS_9allocatorIcEEEE, i64 0, inrange i32 2, i64 3), ptr %0, align 8, !tbaa !8
  store ptr getelementptr inbounds ({ [5 x ptr], [5 x ptr], [5 x ptr] }, ptr @_ZTVNSt3__118basic_stringstreamIcNS_11char_traitsIcEENS_9allocatorIcEEEE, i64 0, inrange i32 1, i64 3), ptr %add.ptr2.i, align 8, !tbaa !8
  invoke void @_ZNSt3__115basic_streambufIcNS_11char_traitsIcEEEC2Ev(ptr noundef nonnull align 8 dereferenceable(64) %__sb_.i)
          to label %_ZNSt3__118basic_stringstreamIcNS_11char_traitsIcEENS_9allocatorIcEEEC1B7v170000Ev.exit unwind label %lpad6.i

lpad.i:                                           ; preds = %entry
  %1 = landingpad { ptr, i32 }
          cleanup
  br label %ehcleanup.i

lpad6.i:                                          ; preds = %invoke.cont.i
  %2 = landingpad { ptr, i32 }
          cleanup
  call void @_ZNSt3__114basic_iostreamIcNS_11char_traitsIcEEED2Ev(ptr noundef nonnull align 8 dereferenceable(24) %ss, ptr noundef nonnull getelementptr inbounds ([10 x ptr], ptr @_ZTTNSt3__118basic_stringstreamIcNS_11char_traitsIcEENS_9allocatorIcEEEE, i64 0, i64 1)) #35
  br label %ehcleanup.i

common.resume:                                    ; preds = %ehcleanup21, %ehcleanup.i
  %common.resume.op = phi { ptr, i32 } [ %.pn.i, %ehcleanup.i ], [ %.pn.pn, %ehcleanup21 ]
  resume { ptr, i32 } %common.resume.op

ehcleanup.i:                                      ; preds = %lpad6.i, %lpad.i
  %.pn.i = phi { ptr, i32 } [ %2, %lpad6.i ], [ %1, %lpad.i ]
  call void @_ZNSt3__19basic_iosIcNS_11char_traitsIcEEED2Ev(ptr noundef nonnull align 8 dereferenceable(148) %0) #35
  br label %common.resume

_ZNSt3__118basic_stringstreamIcNS_11char_traitsIcEENS_9allocatorIcEEEC1B7v170000Ev.exit: ; preds = %invoke.cont.i
  store ptr getelementptr inbounds ({ [16 x ptr] }, ptr @_ZTVNSt3__115basic_stringbufIcNS_11char_traitsIcEENS_9allocatorIcEEEE, i64 0, inrange i32 0, i64 2), ptr %__sb_.i, align 8, !tbaa !8
  %__str_.i.i = getelementptr inbounds %"class.std::__1::basic_stringstream", ptr %ss, i64 0, i32 1, i32 1
  %__mode_.i.i = getelementptr inbounds %"class.std::__1::basic_stringstream", ptr %ss, i64 0, i32 1, i32 3
  call void @llvm.memset.p0.i64(ptr noundef nonnull align 8 dereferenceable(32) %__str_.i.i, i8 0, i64 32, i1 false)
  store i32 24, ptr %__mode_.i.i, align 8, !tbaa !19
  %3 = load i64, ptr %this, align 8, !tbaa !78
  %cmp35.not = icmp eq i64 %3, 0
  br i1 %cmp35.not, label %for.cond.cleanup, label %for.body.lr.ph

for.body.lr.ph:                                   ; preds = %_ZNSt3__118basic_stringstreamIcNS_11char_traitsIcEENS_9allocatorIcEEEC1B7v170000Ev.exit
  %num_matchers_.i = getelementptr inbounds %"class.testing::internal::MatchMatrix", ptr %this, i64 0, i32 1
  %matched_.i = getelementptr inbounds %"class.testing::internal::MatchMatrix", ptr %this, i64 0, i32 2
  br label %for.body

for.cond.cleanup:                                 ; preds = %for.cond.cleanup9, %_ZNSt3__118basic_stringstreamIcNS_11char_traitsIcEENS_9allocatorIcEEEC1B7v170000Ev.exit
  invoke void @_ZNKSt3__115basic_stringbufIcNS_11char_traitsIcEENS_9allocatorIcEEE3strEv(ptr sret(%"class.std::__1::basic_string") align 8 %agg.result, ptr noundef nonnull align 8 dereferenceable(100) %__sb_.i)
          to label %invoke.cont20 unwind label %lpad19

lpad:                                             ; preds = %for.body
  %4 = landingpad { ptr, i32 }
          cleanup
  br label %ehcleanup21

for.body:                                         ; preds = %for.body.lr.ph, %for.cond.cleanup9
  %i.037 = phi i64 [ 0, %for.body.lr.ph ], [ %inc17, %for.cond.cleanup9 ]
  %sep.036 = phi ptr [ @.str.4, %for.body.lr.ph ], [ @.str.14, %for.cond.cleanup9 ]
  %call.i.i.i = call i64 @strlen(ptr noundef nonnull dereferenceable(1) %sep.036) #35
  %call1.i32 = invoke noundef nonnull align 8 dereferenceable(8) ptr @_ZNSt3__124__put_character_sequenceB7v170000IcNS_11char_traitsIcEEEERNS_13basic_ostreamIT_T0_EES7_PKS4_m(ptr noundef nonnull align 8 dereferenceable(8) %add.ptr2.i, ptr noundef nonnull %sep.036, i64 noundef %call.i.i.i)
          to label %for.cond4.preheader unwind label %lpad

for.cond4.preheader:                              ; preds = %for.body
  %5 = load i64, ptr %num_matchers_.i, align 8, !tbaa !84
  %cmp833.not = icmp eq i64 %5, 0
  br i1 %cmp833.not, label %for.cond.cleanup9, label %for.body10

for.cond.cleanup9:                                ; preds = %for.inc, %for.cond4.preheader
  %inc17 = add nuw i64 %i.037, 1
  %6 = load i64, ptr %this, align 8, !tbaa !78
  %cmp = icmp ult i64 %inc17, %6
  br i1 %cmp, label %for.body, label %for.cond.cleanup, !llvm.loop !102

lpad5:                                            ; preds = %for.body10
  %7 = landingpad { ptr, i32 }
          cleanup
  br label %ehcleanup21

for.body10:                                       ; preds = %for.cond4.preheader, %for.inc
  %8 = phi i64 [ %11, %for.inc ], [ %5, %for.cond4.preheader ]
  %j.034 = phi i64 [ %inc, %for.inc ], [ 0, %for.cond4.preheader ]
  %mul.i.i = mul i64 %8, %i.037
  %add.i.i = add i64 %mul.i.i, %j.034
  %9 = load ptr, ptr %matched_.i, align 8, !tbaa !86
  %arrayidx.i.i = getelementptr inbounds i8, ptr %9, i64 %add.i.i
  %10 = load i8, ptr %arrayidx.i.i, align 1, !tbaa !5
  %cmp.i = icmp eq i8 %10, 1
  %call15 = invoke noundef nonnull align 8 dereferenceable(8) ptr @_ZNSt3__113basic_ostreamIcNS_11char_traitsIcEEElsEb(ptr noundef nonnull align 8 dereferenceable(8) %add.ptr2.i, i1 noundef zeroext %cmp.i)
          to label %for.inc unwind label %lpad5

for.inc:                                          ; preds = %for.body10
  %inc = add nuw i64 %j.034, 1
  %11 = load i64, ptr %num_matchers_.i, align 8, !tbaa !84
  %cmp8 = icmp ult i64 %inc, %11
  br i1 %cmp8, label %for.body10, label %for.cond.cleanup9, !llvm.loop !103

invoke.cont20:                                    ; preds = %for.cond.cleanup
  store ptr getelementptr inbounds ({ [5 x ptr], [5 x ptr], [5 x ptr] }, ptr @_ZTVNSt3__118basic_stringstreamIcNS_11char_traitsIcEENS_9allocatorIcEEEE, i64 0, inrange i32 0, i64 3), ptr %ss, align 8, !tbaa !8
  store ptr getelementptr inbounds ({ [5 x ptr], [5 x ptr], [5 x ptr] }, ptr @_ZTVNSt3__118basic_stringstreamIcNS_11char_traitsIcEENS_9allocatorIcEEEE, i64 0, inrange i32 2, i64 3), ptr %0, align 8, !tbaa !8
  store ptr getelementptr inbounds ({ [5 x ptr], [5 x ptr], [5 x ptr] }, ptr @_ZTVNSt3__118basic_stringstreamIcNS_11char_traitsIcEENS_9allocatorIcEEEE, i64 0, inrange i32 1, i64 3), ptr %add.ptr2.i, align 8, !tbaa !8
  store ptr getelementptr inbounds ({ [16 x ptr] }, ptr @_ZTVNSt3__115basic_stringbufIcNS_11char_traitsIcEENS_9allocatorIcEEEE, i64 0, inrange i32 0, i64 2), ptr %__sb_.i, align 8, !tbaa !8
  %bf.load.i.i.i.i.i = load i8, ptr %__str_.i.i, align 8
  %bf.clear.i.i.i.i.i = and i8 %bf.load.i.i.i.i.i, 1
  %tobool.i.not.i.i.i.i = icmp eq i8 %bf.clear.i.i.i.i.i, 0
  br i1 %tobool.i.not.i.i.i.i, label %_ZNSt3__118basic_stringstreamIcNS_11char_traitsIcEENS_9allocatorIcEEED1Ev.exit, label %if.then.i.i.i.i

if.then.i.i.i.i:                                  ; preds = %invoke.cont20
  %__data_.i.i.i.i.i = getelementptr inbounds %"class.std::__1::basic_stringstream", ptr %ss, i64 0, i32 1, i32 1, i32 0, i32 0, i32 0, i32 0, i32 0, i32 2
  %12 = load ptr, ptr %__data_.i.i.i.i.i, align 8, !tbaa !5
  call void @_ZdlPv(ptr noundef %12) #36
  br label %_ZNSt3__118basic_stringstreamIcNS_11char_traitsIcEENS_9allocatorIcEEED1Ev.exit

_ZNSt3__118basic_stringstreamIcNS_11char_traitsIcEENS_9allocatorIcEEED1Ev.exit: ; preds = %invoke.cont20, %if.then.i.i.i.i
  call void @_ZNSt3__115basic_streambufIcNS_11char_traitsIcEEED2Ev(ptr noundef nonnull align 8 dereferenceable(64) %__sb_.i) #35
  call void @_ZNSt3__114basic_iostreamIcNS_11char_traitsIcEEED2Ev(ptr noundef nonnull align 8 dereferenceable(24) %ss, ptr noundef nonnull getelementptr inbounds ([10 x ptr], ptr @_ZTTNSt3__118basic_stringstreamIcNS_11char_traitsIcEENS_9allocatorIcEEEE, i64 0, i64 1)) #35
  call void @_ZNSt3__19basic_iosIcNS_11char_traitsIcEEED2Ev(ptr noundef nonnull align 8 dereferenceable(148) %0) #35
  call void @llvm.lifetime.end.p0(i64 280, ptr nonnull %ss) #35
  ret void

lpad19:                                           ; preds = %for.cond.cleanup
  %13 = landingpad { ptr, i32 }
          cleanup
  br label %ehcleanup21

ehcleanup21:                                      ; preds = %lpad, %lpad5, %lpad19
  %.pn.pn = phi { ptr, i32 } [ %13, %lpad19 ], [ %7, %lpad5 ], [ %4, %lpad ]
  call void @_ZNSt3__118basic_stringstreamIcNS_11char_traitsIcEENS_9allocatorIcEEED1Ev(ptr noundef nonnull align 8 dereferenceable(128) %ss) #35
  call void @llvm.lifetime.end.p0(i64 280, ptr nonnull %ss) #35
  br label %common.resume
}

declare noundef nonnull align 8 dereferenceable(8) ptr @_ZNSt3__113basic_ostreamIcNS_11char_traitsIcEEElsEb(ptr noundef nonnull align 8 dereferenceable(8), i1 noundef zeroext) local_unnamed_addr #7

; Function Attrs: inlinehint nounwind uwtable
define linkonce_odr hidden void @_ZNSt3__118basic_stringstreamIcNS_11char_traitsIcEENS_9allocatorIcEEED1Ev(ptr noundef nonnull align 8 dereferenceable(128) %this) unnamed_addr #3 comdat align 2 personality ptr @__gxx_personality_v0 {
entry:
  store ptr getelementptr inbounds ({ [5 x ptr], [5 x ptr], [5 x ptr] }, ptr @_ZTVNSt3__118basic_stringstreamIcNS_11char_traitsIcEENS_9allocatorIcEEEE, i64 0, inrange i32 0, i64 3), ptr %this, align 8, !tbaa !8
  %add.ptr.i = getelementptr inbounds i8, ptr %this, i64 128
  store ptr getelementptr inbounds ({ [5 x ptr], [5 x ptr], [5 x ptr] }, ptr @_ZTVNSt3__118basic_stringstreamIcNS_11char_traitsIcEENS_9allocatorIcEEEE, i64 0, inrange i32 2, i64 3), ptr %add.ptr.i, align 8, !tbaa !8
  %add.ptr3.i = getelementptr inbounds i8, ptr %this, i64 16
  store ptr getelementptr inbounds ({ [5 x ptr], [5 x ptr], [5 x ptr] }, ptr @_ZTVNSt3__118basic_stringstreamIcNS_11char_traitsIcEENS_9allocatorIcEEEE, i64 0, inrange i32 1, i64 3), ptr %add.ptr3.i, align 8, !tbaa !8
  %__sb_.i = getelementptr inbounds %"class.std::__1::basic_stringstream", ptr %this, i64 0, i32 1
  store ptr getelementptr inbounds ({ [16 x ptr] }, ptr @_ZTVNSt3__115basic_stringbufIcNS_11char_traitsIcEENS_9allocatorIcEEEE, i64 0, inrange i32 0, i64 2), ptr %__sb_.i, align 8, !tbaa !8
  %__str_.i.i = getelementptr inbounds %"class.std::__1::basic_stringstream", ptr %this, i64 0, i32 1, i32 1
  %bf.load.i.i.i.i = load i8, ptr %__str_.i.i, align 8
  %bf.clear.i.i.i.i = and i8 %bf.load.i.i.i.i, 1
  %tobool.i.not.i.i.i = icmp eq i8 %bf.clear.i.i.i.i, 0
  br i1 %tobool.i.not.i.i.i, label %_ZNSt3__118basic_stringstreamIcNS_11char_traitsIcEENS_9allocatorIcEEED2Ev.exit, label %if.then.i.i.i

if.then.i.i.i:                                    ; preds = %entry
  %__data_.i.i.i.i = getelementptr inbounds %"class.std::__1::basic_stringstream", ptr %this, i64 0, i32 1, i32 1, i32 0, i32 0, i32 0, i32 0, i32 0, i32 2
  %0 = load ptr, ptr %__data_.i.i.i.i, align 8, !tbaa !5
  tail call void @_ZdlPv(ptr noundef %0) #36
  br label %_ZNSt3__118basic_stringstreamIcNS_11char_traitsIcEENS_9allocatorIcEEED2Ev.exit

_ZNSt3__118basic_stringstreamIcNS_11char_traitsIcEENS_9allocatorIcEEED2Ev.exit: ; preds = %entry, %if.then.i.i.i
  tail call void @_ZNSt3__115basic_streambufIcNS_11char_traitsIcEEED2Ev(ptr noundef nonnull align 8 dereferenceable(64) %__sb_.i) #35
  tail call void @_ZNSt3__114basic_iostreamIcNS_11char_traitsIcEEED2Ev(ptr noundef nonnull align 8 dereferenceable(24) %this, ptr noundef nonnull getelementptr inbounds ([10 x ptr], ptr @_ZTTNSt3__118basic_stringstreamIcNS_11char_traitsIcEENS_9allocatorIcEEEE, i64 0, i64 1)) #35
  tail call void @_ZNSt3__19basic_iosIcNS_11char_traitsIcEEED2Ev(ptr noundef nonnull align 8 dereferenceable(148) %add.ptr.i) #35
  ret void
}

; Function Attrs: uwtable
define dso_local void @_ZNK7testing8internal35UnorderedElementsAreMatcherImplBase14DescribeToImplEPNSt3__113basic_ostreamIcNS2_11char_traitsIcEEEE(ptr nocapture noundef nonnull readonly align 8 dereferenceable(32) %this, ptr noundef %os) local_unnamed_addr #0 align 2 personality ptr @__gxx_personality_v0 {
entry:
  %ref.tmp.i80 = alloca %"class.std::__1::basic_string", align 8
  %ref.tmp.i = alloca %"class.std::__1::basic_string", align 8
  %ref.tmp = alloca %"class.testing::Message", align 8
  %ref.tmp15 = alloca %"class.testing::Message", align 8
  %0 = load i32, ptr %this, align 8, !tbaa !104
  switch i32 %0, label %sw.epilog [
    i32 3, label %sw.bb
    i32 1, label %sw.bb23
    i32 2, label %sw.bb25
  ]

sw.bb:                                            ; preds = %entry
  %matcher_describers_ = getelementptr inbounds %"class.testing::internal::UnorderedElementsAreMatcherImplBase", ptr %this, i64 0, i32 1
  %1 = load ptr, ptr %matcher_describers_, align 8, !tbaa !110
  %__end_.i = getelementptr inbounds %"class.testing::internal::UnorderedElementsAreMatcherImplBase", ptr %this, i64 0, i32 1, i32 1
  %2 = load ptr, ptr %__end_.i, align 8, !tbaa !111
  %cmp.i = icmp eq ptr %1, %2
  br i1 %cmp.i, label %if.then, label %if.end

if.then:                                          ; preds = %sw.bb
  %call1.i = tail call noundef nonnull align 8 dereferenceable(8) ptr @_ZNSt3__124__put_character_sequenceB7v170000IcNS_11char_traitsIcEEEERNS_13basic_ostreamIT_T0_EES7_PKS4_m(ptr noundef nonnull align 8 dereferenceable(8) %os, ptr noundef nonnull @.str.15, i64 noundef 8)
  br label %return

if.end:                                           ; preds = %sw.bb
  %sub.ptr.lhs.cast.i = ptrtoint ptr %2 to i64
  %sub.ptr.rhs.cast.i = ptrtoint ptr %1 to i64
  %sub.ptr.sub.i = sub i64 %sub.ptr.lhs.cast.i, %sub.ptr.rhs.cast.i
  %cmp = icmp eq i64 %sub.ptr.sub.i, 8
  %call1.i64 = tail call noundef nonnull align 8 dereferenceable(8) ptr @_ZNSt3__124__put_character_sequenceB7v170000IcNS_11char_traitsIcEEEERNS_13basic_ostreamIT_T0_EES7_PKS4_m(ptr noundef nonnull align 8 dereferenceable(8) %os, ptr noundef nonnull @.str.16, i64 noundef 4)
  br i1 %cmp, label %if.then6, label %if.end13

if.then6:                                         ; preds = %if.end
  call void @llvm.lifetime.start.p0(i64 8, ptr nonnull %ref.tmp) #35
  call void @_ZN7testing8internal35UnorderedElementsAreMatcherImplBase8ElementsEm(ptr nonnull sret(%"class.testing::Message") align 8 %ref.tmp, i64 noundef 1)
  call void @llvm.lifetime.start.p0(i64 24, ptr nonnull %ref.tmp.i) #35
  invoke void @_ZNK7testing7Message9GetStringEv(ptr nonnull sret(%"class.std::__1::basic_string") align 8 %ref.tmp.i, ptr noundef nonnull align 8 dereferenceable(8) %ref.tmp)
          to label %.noexc unwind label %lpad

.noexc:                                           ; preds = %if.then6
  %bf.load.i.i.i.i.i = load i8, ptr %ref.tmp.i, align 8
  %bf.clear.i.i.i.i.i = and i8 %bf.load.i.i.i.i.i, 1
  %tobool.i.not.i.i.i.i = icmp eq i8 %bf.clear.i.i.i.i.i, 0
  %__data_.i.i.i.i.i = getelementptr inbounds %"struct.std::__1::basic_string<char>::__long", ptr %ref.tmp.i, i64 0, i32 2
  %3 = load ptr, ptr %__data_.i.i.i.i.i, align 8
  %__data_.i4.i.i.i.i = getelementptr inbounds %"struct.std::__1::basic_string<char>::__short", ptr %ref.tmp.i, i64 0, i32 2
  %cond.i.i.i.i = select i1 %tobool.i.not.i.i.i.i, ptr %__data_.i4.i.i.i.i, ptr %3
  %__size_.i.i.i.i = getelementptr inbounds %"struct.std::__1::basic_string<char>::__long", ptr %ref.tmp.i, i64 0, i32 1
  %4 = load i64, ptr %__size_.i.i.i.i, align 8
  %bf.lshr.i.i.i.i = lshr i8 %bf.load.i.i.i.i.i, 1
  %conv.i.i.i.i = zext i8 %bf.lshr.i.i.i.i to i64
  %cond.i.i.i = select i1 %tobool.i.not.i.i.i.i, i64 %conv.i.i.i.i, i64 %4
  %call2.i2.i = invoke noundef nonnull align 8 dereferenceable(8) ptr @_ZNSt3__124__put_character_sequenceB7v170000IcNS_11char_traitsIcEEEERNS_13basic_ostreamIT_T0_EES7_PKS4_m(ptr noundef nonnull align 8 dereferenceable(8) %call1.i64, ptr noundef %cond.i.i.i.i, i64 noundef %cond.i.i.i)
          to label %invoke.cont.i unwind label %lpad.i

invoke.cont.i:                                    ; preds = %.noexc
  %bf.load.i.i.i = load i8, ptr %ref.tmp.i, align 8
  %bf.clear.i.i.i = and i8 %bf.load.i.i.i, 1
  %tobool.i.not.i.i = icmp eq i8 %bf.clear.i.i.i, 0
  br i1 %tobool.i.not.i.i, label %invoke.cont, label %if.then.i.i

if.then.i.i:                                      ; preds = %invoke.cont.i
  %5 = load ptr, ptr %__data_.i.i.i.i.i, align 8, !tbaa !5
  call void @_ZdlPv(ptr noundef %5) #36
  br label %invoke.cont

lpad.i:                                           ; preds = %.noexc
  %6 = landingpad { ptr, i32 }
          cleanup
  %bf.load.i.i3.i = load i8, ptr %ref.tmp.i, align 8
  %bf.clear.i.i4.i = and i8 %bf.load.i.i3.i, 1
  %tobool.i.not.i5.i = icmp eq i8 %bf.clear.i.i4.i, 0
  br i1 %tobool.i.not.i5.i, label %_ZNSt3__112basic_stringIcNS_11char_traitsIcEENS_9allocatorIcEEED2Ev.exit8.i, label %if.then.i7.i

