; ModuleID = '/local/mnt2/workspace2/mnadeem/llvm/llvm-test-suite/MicroBenchmarks/libs/benchmark/test/user_counters_tabular_test.cc'
source_filename = "/local/mnt2/workspace2/mnadeem/llvm/llvm-test-suite/MicroBenchmarks/libs/benchmark/test/user_counters_tabular_test.cc"
target datalayout = "e-m:e-p270:32:32-p271:32:32-p272:64:64-i64:64-f80:128-n8:16:32:64-S128"
target triple = "x86_64-unknown-linux-gnu"

%"class.benchmark::internal::LogType" = type { ptr }
%"class.std::__1::basic_ostream" = type { ptr, %"class.std::__1::basic_ios.base" }
%"class.std::__1::basic_ios.base" = type <{ %"class.std::__1::ios_base", ptr, i32 }>
%"class.std::__1::ios_base" = type { ptr, i32, i64, i64, i32, i32, ptr, ptr, ptr, ptr, i64, i64, ptr, i64, i64, ptr, i64, i64 }
%"class.std::__1::locale::id" = type <{ %"struct.std::__1::once_flag", i32, [4 x i8] }>
%"struct.std::__1::once_flag" = type { i64 }
%"struct.std::__1::pair" = type { %"class.std::__1::basic_string", %"class.benchmark::Counter" }
%"class.std::__1::basic_string" = type { %"class.std::__1::__compressed_pair" }
%"class.std::__1::__compressed_pair" = type { %"struct.std::__1::__compressed_pair_elem" }
%"struct.std::__1::__compressed_pair_elem" = type { %"struct.std::__1::basic_string<char>::__rep" }
%"struct.std::__1::basic_string<char>::__rep" = type { %union.anon }
%union.anon = type { %"struct.std::__1::basic_string<char>::__long" }
%"struct.std::__1::basic_string<char>::__long" = type { %struct.anon, i64, ptr }
%struct.anon = type { i64 }
%"class.benchmark::Counter" = type { double, i32, i32 }
%"class.benchmark::State" = type { i64, i64, i64, i8, i8, i8, %"class.std::__1::vector", i64, %"class.std::__1::map", i32, i32, ptr, ptr, ptr }
%"class.std::__1::vector" = type { ptr, ptr, %"class.std::__1::__compressed_pair.3" }
%"class.std::__1::__compressed_pair.3" = type { %"struct.std::__1::__compressed_pair_elem.4" }
%"struct.std::__1::__compressed_pair_elem.4" = type { ptr }
%"class.std::__1::map" = type { %"class.std::__1::__tree" }
%"class.std::__1::__tree" = type { ptr, %"class.std::__1::__compressed_pair.9", %"class.std::__1::__compressed_pair.15" }
%"class.std::__1::__compressed_pair.9" = type { %"struct.std::__1::__compressed_pair_elem.10" }
%"struct.std::__1::__compressed_pair_elem.10" = type { %"class.std::__1::__tree_end_node" }
%"class.std::__1::__tree_end_node" = type { ptr }
%"class.std::__1::__compressed_pair.15" = type { %"struct.std::__1::__compressed_pair_elem.16" }
%"struct.std::__1::__compressed_pair_elem.16" = type { i64 }
%"struct.std::__1::basic_string<char>::__short" = type { %struct.anon.0, [0 x i8], [23 x i8] }
%struct.anon.0 = type { i8 }
%"class.benchmark::internal::CheckHandler" = type { ptr }
%"class.std::__1::locale" = type { ptr }
%"class.std::__1::basic_ostream<char>::sentry" = type { i8, ptr }
%"class.std::__1::basic_ios" = type <{ %"class.std::__1::ios_base", ptr, i32, [4 x i8] }>
%"class.std::__1::__tree_node" = type { %"class.std::__1::__tree_node_base.base", %"struct.std::__1::__value_type" }
%"class.std::__1::__tree_node_base.base" = type <{ %"class.std::__1::__tree_end_node", ptr, ptr, i8 }>
%"struct.std::__1::__value_type" = type { %"struct.std::__1::pair" }
%"class.std::__1::__tree_node_base" = type <{ %"class.std::__1::__tree_end_node", ptr, ptr, i8, [7 x i8] }>
%"class.std::__1::basic_stringstream" = type { %"class.std::__1::basic_iostream.base", %"class.std::__1::basic_stringbuf", %"class.std::__1::basic_ios.base" }
%"class.std::__1::basic_iostream.base" = type { %"class.std::__1::basic_istream.base", %"class.std::__1::basic_ostream.base" }
%"class.std::__1::basic_istream.base" = type { ptr, i64 }
%"class.std::__1::basic_ostream.base" = type { ptr }
%"class.std::__1::basic_stringbuf" = type <{ %"class.std::__1::basic_streambuf", %"class.std::__1::basic_string", ptr, i32, [4 x i8] }>
%"class.std::__1::basic_streambuf" = type { ptr, %"class.std::__1::locale", ptr, ptr, ptr, ptr, ptr, ptr }
%"class.std::__1::basic_istream" = type { ptr, i64, %"class.std::__1::basic_ios.base" }
%struct.Results = type { %"class.std::__1::basic_string", %"class.std::__1::map.54" }
%"class.std::__1::map.54" = type { %"class.std::__1::__tree.55" }
%"class.std::__1::__tree.55" = type { ptr, %"class.std::__1::__compressed_pair.56", %"class.std::__1::__compressed_pair.61" }
%"class.std::__1::__compressed_pair.56" = type { %"struct.std::__1::__compressed_pair_elem.10" }
%"class.std::__1::__compressed_pair.61" = type { %"struct.std::__1::__compressed_pair_elem.16" }
%"class.std::__1::__tree_node.73" = type { %"class.std::__1::__tree_node_base.base", %"struct.std::__1::__value_type.74" }
%"struct.std::__1::__value_type.74" = type { %"struct.std::__1::pair.72" }
%"struct.std::__1::pair.72" = type { %"class.std::__1::basic_string", %"class.std::__1::basic_string" }
%"class.std::__1::__function::__func" = type { %"class.std::__1::__function::__base", %"class.std::__1::__function::__alloc_func" }
%"class.std::__1::__function::__base" = type { ptr }
%"class.std::__1::__function::__alloc_func" = type { %"class.std::__1::__compressed_pair.83" }
%"class.std::__1::__compressed_pair.83" = type { %"struct.std::__1::__compressed_pair_elem.84" }
%"struct.std::__1::__compressed_pair_elem.84" = type { ptr }
%"class.std::type_info" = type { ptr, ptr }
%"class.std::__1::function" = type { %"class.std::__1::__function::__value_func" }
%"class.std::__1::__function::__value_func" = type { %"struct.std::__1::aligned_storage<24>::type", ptr, [8 x i8] }
%"struct.std::__1::aligned_storage<24>::type" = type { [32 x i8] }
%struct.TestCase = type { %"class.std::__1::basic_string", i32, %"class.std::__1::basic_string", %"class.std::__1::shared_ptr" }
%"class.std::__1::shared_ptr" = type { ptr, ptr }
%"class.std::__1::__shared_count" = type { ptr, i64 }
%"class.benchmark::internal::FunctionBenchmark" = type { %"class.benchmark::internal::Benchmark", ptr }
%"class.benchmark::internal::Benchmark" = type { ptr, %"class.std::__1::basic_string", i32, %"class.std::__1::vector.19", %"class.std::__1::vector.26", i32, i8, i32, double, i64, i32, i8, i8, i8, i32, ptr, %"class.std::__1::vector.33", %"class.std::__1::vector.47", ptr, ptr }
%"class.std::__1::vector.19" = type { ptr, ptr, %"class.std::__1::__compressed_pair.20" }
%"class.std::__1::__compressed_pair.20" = type { %"struct.std::__1::__compressed_pair_elem.21" }
%"struct.std::__1::__compressed_pair_elem.21" = type { ptr }
%"class.std::__1::vector.26" = type { ptr, ptr, %"class.std::__1::__compressed_pair.27" }
%"class.std::__1::__compressed_pair.27" = type { %"struct.std::__1::__compressed_pair_elem.28" }
%"struct.std::__1::__compressed_pair_elem.28" = type { ptr }
%"class.std::__1::vector.33" = type { ptr, ptr, %"class.std::__1::__compressed_pair.41" }
%"class.std::__1::__compressed_pair.41" = type { %"struct.std::__1::__compressed_pair_elem.42" }
%"struct.std::__1::__compressed_pair_elem.42" = type { ptr }
%"class.std::__1::vector.47" = type { ptr, ptr, %"class.std::__1::__compressed_pair.48" }
%"class.std::__1::__compressed_pair.48" = type { %"struct.std::__1::__compressed_pair_elem.49" }
%"struct.std::__1::__compressed_pair_elem.49" = type { ptr }

$_ZN9benchmark8internal12CheckHandlerC2EPKcS3_S3_i = comdat any

$_ZN9benchmark8internal12CheckHandlerD2Ev = comdat any

$__clang_call_terminate = comdat any

$_ZNSt3__124__put_character_sequenceB7v170000IcNS_11char_traitsIcEEEERNS_13basic_ostreamIT_T0_EES7_PKS4_m = comdat any

$_ZNSt3__116__pad_and_outputB7v170000IcNS_11char_traitsIcEEEENS_19ostreambuf_iteratorIT_T0_EES6_PKS4_S8_S8_RNS_8ios_baseES4_ = comdat any

$_ZNKSt3__112basic_stringIcNS_11char_traitsIcEENS_9allocatorIcEEE20__throw_length_errorB7v170000Ev = comdat any

$_ZNSt3__120__throw_length_errorB7v170000EPKc = comdat any

$_ZNSt12length_errorC2B7v170000EPKc = comdat any

$_ZN9benchmark8internal16CallAbortHandlerEv = comdat any

$_ZNSt3__16__treeINS_12__value_typeINS_12basic_stringIcNS_11char_traitsIcEENS_9allocatorIcEEEEN9benchmark7CounterEEENS_19__map_value_compareIS7_SA_NS_4lessIS7_EELb1EEENS5_ISA_EEE30__emplace_hint_unique_key_argsIS7_JRKNS_4pairIKS7_S9_EEEEENSI_INS_15__tree_iteratorISA_PNS_11__tree_nodeISA_PvEElEEbEENS_21__tree_const_iteratorISA_SR_lEERKT_DpOT0_ = comdat any

$_ZNSt3__16__treeINS_12__value_typeINS_12basic_stringIcNS_11char_traitsIcEENS_9allocatorIcEEEEN9benchmark7CounterEEENS_19__map_value_compareIS7_SA_NS_4lessIS7_EELb1EEENS5_ISA_EEE12__find_equalIS7_EERPNS_16__tree_node_baseIPvEENS_21__tree_const_iteratorISA_PNS_11__tree_nodeISA_SJ_EElEERPNS_15__tree_end_nodeISL_EESM_RKT_ = comdat any

$_ZNSt3__16__treeINS_12__value_typeINS_12basic_stringIcNS_11char_traitsIcEENS_9allocatorIcEEEEN9benchmark7CounterEEENS_19__map_value_compareIS7_SA_NS_4lessIS7_EELb1EEENS5_ISA_EEE12__find_equalIS7_EERPNS_16__tree_node_baseIPvEERPNS_15__tree_end_nodeISL_EERKT_ = comdat any

$_ZNSt3__127__tree_balance_after_insertB7v170000IPNS_16__tree_node_baseIPvEEEEvT_S5_ = comdat any

$_ZNK7Results5GetAsIdEET_PKc = comdat any

$_ZNK7Results3GetEPKc = comdat any

$_ZNSt3__118basic_stringstreamIcNS_11char_traitsIcEENS_9allocatorIcEEED1Ev = comdat any

$_ZNKSt3__16__treeINS_12__value_typeINS_12basic_stringIcNS_11char_traitsIcEENS_9allocatorIcEEEES7_EENS_19__map_value_compareIS7_S8_NS_4lessIS7_EELb1EEENS5_IS8_EEE4findIS7_EENS_21__tree_const_iteratorIS8_PNS_11__tree_nodeIS8_PvEElEERKT_ = comdat any

$_ZNSt3__118basic_stringstreamIcNS_11char_traitsIcEENS_9allocatorIcEEED0Ev = comdat any

$_ZThn16_NSt3__118basic_stringstreamIcNS_11char_traitsIcEENS_9allocatorIcEEED1Ev = comdat any

$_ZThn16_NSt3__118basic_stringstreamIcNS_11char_traitsIcEENS_9allocatorIcEEED0Ev = comdat any

$_ZTv0_n24_NSt3__118basic_stringstreamIcNS_11char_traitsIcEENS_9allocatorIcEEED1Ev = comdat any

$_ZTv0_n24_NSt3__118basic_stringstreamIcNS_11char_traitsIcEENS_9allocatorIcEEED0Ev = comdat any

$_ZNSt3__115basic_stringbufIcNS_11char_traitsIcEENS_9allocatorIcEEED2Ev = comdat any

$_ZNSt3__115basic_stringbufIcNS_11char_traitsIcEENS_9allocatorIcEEED0Ev = comdat any

$_ZNSt3__115basic_stringbufIcNS_11char_traitsIcEENS_9allocatorIcEEE7seekoffExNS_8ios_base7seekdirEj = comdat any

$_ZNSt3__115basic_stringbufIcNS_11char_traitsIcEENS_9allocatorIcEEE7seekposENS_4fposI11__mbstate_tEEj = comdat any

$_ZNSt3__115basic_stringbufIcNS_11char_traitsIcEENS_9allocatorIcEEE9underflowEv = comdat any

$_ZNSt3__115basic_stringbufIcNS_11char_traitsIcEENS_9allocatorIcEEE9pbackfailEi = comdat any

$_ZNSt3__115basic_stringbufIcNS_11char_traitsIcEENS_9allocatorIcEEE8overflowEi = comdat any

$_ZNSt3__110__function6__funcIPFvRK7ResultsENS_9allocatorIS6_EES5_ED0Ev = comdat any

$_ZNKSt3__110__function6__funcIPFvRK7ResultsENS_9allocatorIS6_EES5_E7__cloneEv = comdat any

$_ZNKSt3__110__function6__funcIPFvRK7ResultsENS_9allocatorIS6_EES5_E7__cloneEPNS0_6__baseIS5_EE = comdat any

$_ZNSt3__110__function6__funcIPFvRK7ResultsENS_9allocatorIS6_EES5_E7destroyEv = comdat any

$_ZNSt3__110__function6__funcIPFvRK7ResultsENS_9allocatorIS6_EES5_E18destroy_deallocateEv = comdat any

$_ZNSt3__110__function6__funcIPFvRK7ResultsENS_9allocatorIS6_EES5_EclES4_ = comdat any

$_ZNKSt3__110__function6__funcIPFvRK7ResultsENS_9allocatorIS6_EES5_E6targetERKSt9type_info = comdat any

$_ZNKSt3__110__function6__funcIPFvRK7ResultsENS_9allocatorIS6_EES5_E11target_typeEv = comdat any

$_ZNSt3__110__function6__baseIFvRK7ResultsEED2Ev = comdat any

$_ZZN9benchmark8internal18GetNullLogInstanceEvE3log = comdat any

$_ZGVZN9benchmark8internal18GetNullLogInstanceEvE3log = comdat any

$_ZZN9benchmark8internal19GetErrorLogInstanceEvE3log = comdat any

$_ZGVZN9benchmark8internal19GetErrorLogInstanceEvE3log = comdat any

$_ZTVNSt3__118basic_stringstreamIcNS_11char_traitsIcEENS_9allocatorIcEEEE = comdat any

$_ZTTNSt3__118basic_stringstreamIcNS_11char_traitsIcEENS_9allocatorIcEEEE = comdat any

$_ZTCNSt3__118basic_stringstreamIcNS_11char_traitsIcEENS_9allocatorIcEEEE0_NS_14basic_iostreamIcS2_EE = comdat any

$_ZTCNSt3__118basic_stringstreamIcNS_11char_traitsIcEENS_9allocatorIcEEEE0_NS_13basic_istreamIcS2_EE = comdat any

$_ZTCNSt3__118basic_stringstreamIcNS_11char_traitsIcEENS_9allocatorIcEEEE16_NS_13basic_ostreamIcS2_EE = comdat any

$_ZTSNSt3__118basic_stringstreamIcNS_11char_traitsIcEENS_9allocatorIcEEEE = comdat any

$_ZTINSt3__118basic_stringstreamIcNS_11char_traitsIcEENS_9allocatorIcEEEE = comdat any

$_ZTVNSt3__115basic_stringbufIcNS_11char_traitsIcEENS_9allocatorIcEEEE = comdat any

$_ZTSNSt3__115basic_stringbufIcNS_11char_traitsIcEENS_9allocatorIcEEEE = comdat any

$_ZTINSt3__115basic_stringbufIcNS_11char_traitsIcEENS_9allocatorIcEEEE = comdat any

$_ZTVNSt3__110__function6__funcIPFvRK7ResultsENS_9allocatorIS6_EES5_EE = comdat any

$_ZTSNSt3__110__function6__funcIPFvRK7ResultsENS_9allocatorIS6_EES5_EE = comdat any

$_ZTSNSt3__110__function6__baseIFvRK7ResultsEEE = comdat any

$_ZTINSt3__110__function6__baseIFvRK7ResultsEEE = comdat any

$_ZTINSt3__110__function6__funcIPFvRK7ResultsENS_9allocatorIS6_EES5_EE = comdat any

$_ZTSPFvRK7ResultsE = comdat any

$_ZTSFvRK7ResultsE = comdat any

$_ZTIFvRK7ResultsE = comdat any

$_ZTIPFvRK7ResultsE = comdat any

@dummy56 = hidden local_unnamed_addr global i32 0, align 4
@.str = private unnamed_addr constant [7 x i8] c"^[-]+$\00", align 1
@.str.2 = private unnamed_addr constant [84 x i8] c"^Benchmark %s Time %s CPU %s Iterations %s Bar %s Bat %s Baz %s Foo %s Frob %s Lob$\00", align 1
@.str.3 = private unnamed_addr constant [136 x i8] c"^BM_Counters_Tabular/repeats:2/threads:1 %console_report [ ]*%hrfloat [ ]*%hrfloat [ ]*%hrfloat [ ]*%hrfloat [ ]*%hrfloat [ ]*%hrfloat$\00", align 1
@.str.4 = private unnamed_addr constant [141 x i8] c"^BM_Counters_Tabular/repeats:2/threads:1_mean %console_report [ ]*%hrfloat [ ]*%hrfloat [ ]*%hrfloat [ ]*%hrfloat [ ]*%hrfloat [ ]*%hrfloat$\00", align 1
@.str.5 = private unnamed_addr constant [143 x i8] c"^BM_Counters_Tabular/repeats:2/threads:1_median %console_report [ ]*%hrfloat [ ]*%hrfloat [ ]*%hrfloat [ ]*%hrfloat [ ]*%hrfloat [ ]*%hrfloat$\00", align 1
@.str.6 = private unnamed_addr constant [143 x i8] c"^BM_Counters_Tabular/repeats:2/threads:1_stddev %console_report [ ]*%hrfloat [ ]*%hrfloat [ ]*%hrfloat [ ]*%hrfloat [ ]*%hrfloat [ ]*%hrfloat$\00", align 1
@.str.7 = private unnamed_addr constant [198 x i8] c"^BM_Counters_Tabular/repeats:2/threads:1_cv %console_percentage_report [ ]*%percentage[ ]*% [ ]*%percentage[ ]*% [ ]*%percentage[ ]*% [ ]*%percentage[ ]*% [ ]*%percentage[ ]*% [ ]*%percentage[ ]*%$\00", align 1
@.str.8 = private unnamed_addr constant [136 x i8] c"^BM_Counters_Tabular/repeats:2/threads:2 %console_report [ ]*%hrfloat [ ]*%hrfloat [ ]*%hrfloat [ ]*%hrfloat [ ]*%hrfloat [ ]*%hrfloat$\00", align 1
@.str.9 = private unnamed_addr constant [141 x i8] c"^BM_Counters_Tabular/repeats:2/threads:2_mean %console_report [ ]*%hrfloat [ ]*%hrfloat [ ]*%hrfloat [ ]*%hrfloat [ ]*%hrfloat [ ]*%hrfloat$\00", align 1
@.str.10 = private unnamed_addr constant [143 x i8] c"^BM_Counters_Tabular/repeats:2/threads:2_median %console_report [ ]*%hrfloat [ ]*%hrfloat [ ]*%hrfloat [ ]*%hrfloat [ ]*%hrfloat [ ]*%hrfloat$\00", align 1
@.str.11 = private unnamed_addr constant [143 x i8] c"^BM_Counters_Tabular/repeats:2/threads:2_stddev %console_report [ ]*%hrfloat [ ]*%hrfloat [ ]*%hrfloat [ ]*%hrfloat [ ]*%hrfloat [ ]*%hrfloat$\00", align 1
@.str.12 = private unnamed_addr constant [198 x i8] c"^BM_Counters_Tabular/repeats:2/threads:2_cv %console_percentage_report [ ]*%percentage[ ]*% [ ]*%percentage[ ]*% [ ]*%percentage[ ]*% [ ]*%percentage[ ]*% [ ]*%percentage[ ]*% [ ]*%percentage[ ]*%$\00", align 1
@.str.13 = private unnamed_addr constant [145 x i8] c"^BM_CounterRates_Tabular/threads:%int %console_report [ ]*%hrfloat/s [ ]*%hrfloat/s [ ]*%hrfloat/s [ ]*%hrfloat/s [ ]*%hrfloat/s [ ]*%hrfloat/s$\00", align 1
@.str.14 = private unnamed_addr constant [62 x i8] c"^Benchmark %s Time %s CPU %s Iterations %s Bar %s Baz %s Foo$\00", align 1
@.str.15 = private unnamed_addr constant [93 x i8] c"^BM_CounterSet0_Tabular/threads:%int %console_report [ ]*%hrfloat [ ]*%hrfloat [ ]*%hrfloat$\00", align 1
@.str.16 = private unnamed_addr constant [93 x i8] c"^BM_CounterSet1_Tabular/threads:%int %console_report [ ]*%hrfloat [ ]*%hrfloat [ ]*%hrfloat$\00", align 1
@.str.17 = private unnamed_addr constant [62 x i8] c"^Benchmark %s Time %s CPU %s Iterations %s Bat %s Baz %s Foo$\00", align 1
@.str.18 = private unnamed_addr constant [93 x i8] c"^BM_CounterSet2_Tabular/threads:%int %console_report [ ]*%hrfloat [ ]*%hrfloat [ ]*%hrfloat$\00", align 1
@dummy58 = hidden local_unnamed_addr global i32 0, align 4
@.str.20 = private unnamed_addr constant [49 x i8] c"%csv_header,\22Bar\22,\22Bat\22,\22Baz\22,\22Foo\22,\22Frob\22,\22Lob\22\00", align 1
@.str.21 = private unnamed_addr constant [4 x i8] c"Foo\00", align 1
@.str.22 = private unnamed_addr constant [4 x i8] c"Bar\00", align 1
@.str.23 = private unnamed_addr constant [4 x i8] c"Baz\00", align 1
@.str.24 = private unnamed_addr constant [4 x i8] c"Bat\00", align 1
@.str.25 = private unnamed_addr constant [5 x i8] c"Frob\00", align 1
@.str.26 = private unnamed_addr constant [4 x i8] c"Lob\00", align 1
@_ZL27benchmark_uniq_2_benchmark_ = internal unnamed_addr global ptr null, align 8
@.str.28 = private unnamed_addr constant [20 x i8] c"BM_Counters_Tabular\00", align 1
@dummy98 = hidden local_unnamed_addr global i32 0, align 4
@.str.30 = private unnamed_addr constant [52 x i8] c"\22name\22: \22BM_Counters_Tabular/repeats:2/threads:1\22,$\00", align 1
@.str.31 = private unnamed_addr constant [20 x i8] c"\22family_index\22: 0,$\00", align 1
@.str.32 = private unnamed_addr constant [33 x i8] c"\22per_family_instance_index\22: 0,$\00", align 1
@.str.33 = private unnamed_addr constant [56 x i8] c"\22run_name\22: \22BM_Counters_Tabular/repeats:2/threads:1\22,$\00", align 1
@.str.34 = private unnamed_addr constant [26 x i8] c"\22run_type\22: \22iteration\22,$\00", align 1
@.str.35 = private unnamed_addr constant [19 x i8] c"\22repetitions\22: 2,$\00", align 1
@.str.36 = private unnamed_addr constant [24 x i8] c"\22repetition_index\22: 0,$\00", align 1
@.str.37 = private unnamed_addr constant [15 x i8] c"\22threads\22: 1,$\00", align 1
@.str.38 = private unnamed_addr constant [21 x i8] c"\22iterations\22: %int,$\00", align 1
@.str.39 = private unnamed_addr constant [22 x i8] c"\22real_time\22: %float,$\00", align 1
@.str.40 = private unnamed_addr constant [21 x i8] c"\22cpu_time\22: %float,$\00", align 1
@.str.41 = private unnamed_addr constant [20 x i8] c"\22time_unit\22: \22ns\22,$\00", align 1
@.str.42 = private unnamed_addr constant [16 x i8] c"\22Bar\22: %float,$\00", align 1
@.str.43 = private unnamed_addr constant [16 x i8] c"\22Bat\22: %float,$\00", align 1
@.str.44 = private unnamed_addr constant [16 x i8] c"\22Baz\22: %float,$\00", align 1
@.str.45 = private unnamed_addr constant [16 x i8] c"\22Foo\22: %float,$\00", align 1
@.str.46 = private unnamed_addr constant [17 x i8] c"\22Frob\22: %float,$\00", align 1
@.str.47 = private unnamed_addr constant [15 x i8] c"\22Lob\22: %float$\00", align 1
@.str.48 = private unnamed_addr constant [2 x i8] c"}\00", align 1
@dummy119 = hidden local_unnamed_addr global i32 0, align 4
@.str.50 = private unnamed_addr constant [24 x i8] c"\22repetition_index\22: 1,$\00", align 1
@dummy141 = hidden local_unnamed_addr global i32 0, align 4
@.str.52 = private unnamed_addr constant [57 x i8] c"\22name\22: \22BM_Counters_Tabular/repeats:2/threads:1_mean\22,$\00", align 1
@.str.53 = private unnamed_addr constant [26 x i8] c"\22run_type\22: \22aggregate\22,$\00", align 1
@.str.54 = private unnamed_addr constant [27 x i8] c"\22aggregate_name\22: \22mean\22,$\00", align 1
@.str.55 = private unnamed_addr constant [27 x i8] c"\22aggregate_unit\22: \22time\22,$\00", align 1
@dummy163 = hidden local_unnamed_addr global i32 0, align 4
@.str.57 = private unnamed_addr constant [59 x i8] c"\22name\22: \22BM_Counters_Tabular/repeats:2/threads:1_median\22,$\00", align 1
@.str.58 = private unnamed_addr constant [29 x i8] c"\22aggregate_name\22: \22median\22,$\00", align 1
@dummy185 = hidden local_unnamed_addr global i32 0, align 4
@.str.60 = private unnamed_addr constant [59 x i8] c"\22name\22: \22BM_Counters_Tabular/repeats:2/threads:1_stddev\22,$\00", align 1
@.str.61 = private unnamed_addr constant [29 x i8] c"\22aggregate_name\22: \22stddev\22,$\00", align 1
@dummy207 = hidden local_unnamed_addr global i32 0, align 4
@.str.63 = private unnamed_addr constant [55 x i8] c"\22name\22: \22BM_Counters_Tabular/repeats:2/threads:1_cv\22,$\00", align 1
@.str.64 = private unnamed_addr constant [25 x i8] c"\22aggregate_name\22: \22cv\22,$\00", align 1
@.str.65 = private unnamed_addr constant [33 x i8] c"\22aggregate_unit\22: \22percentage\22,$\00", align 1
@dummy229 = hidden local_unnamed_addr global i32 0, align 4
@.str.67 = private unnamed_addr constant [52 x i8] c"\22name\22: \22BM_Counters_Tabular/repeats:2/threads:2\22,$\00", align 1
@.str.68 = private unnamed_addr constant [33 x i8] c"\22per_family_instance_index\22: 1,$\00", align 1
@.str.69 = private unnamed_addr constant [56 x i8] c"\22run_name\22: \22BM_Counters_Tabular/repeats:2/threads:2\22,$\00", align 1
@.str.70 = private unnamed_addr constant [15 x i8] c"\22threads\22: 2,$\00", align 1
@dummy250 = hidden local_unnamed_addr global i32 0, align 4
@dummy272 = hidden local_unnamed_addr global i32 0, align 4
@.str.73 = private unnamed_addr constant [59 x i8] c"\22name\22: \22BM_Counters_Tabular/repeats:2/threads:2_median\22,$\00", align 1
@dummy294 = hidden local_unnamed_addr global i32 0, align 4
@.str.75 = private unnamed_addr constant [59 x i8] c"\22name\22: \22BM_Counters_Tabular/repeats:2/threads:2_stddev\22,$\00", align 1
@dummy316 = hidden local_unnamed_addr global i32 0, align 4
@.str.77 = private unnamed_addr constant [55 x i8] c"\22name\22: \22BM_Counters_Tabular/repeats:2/threads:2_cv\22,$\00", align 1
@dummy319 = hidden local_unnamed_addr global i32 0, align 4
@.str.79 = private unnamed_addr constant [98 x i8] c"^\22BM_Counters_Tabular/repeats:2/threads:1\22,%csv_report,%float,%float,%float,%float,%float,%float$\00", align 1
@dummy322 = hidden local_unnamed_addr global i32 0, align 4
@dummy325 = hidden local_unnamed_addr global i32 0, align 4
@.str.82 = private unnamed_addr constant [103 x i8] c"^\22BM_Counters_Tabular/repeats:2/threads:1_mean\22,%csv_report,%float,%float,%float,%float,%float,%float$\00", align 1
@dummy328 = hidden local_unnamed_addr global i32 0, align 4
@.str.84 = private unnamed_addr constant [105 x i8] c"^\22BM_Counters_Tabular/repeats:2/threads:1_median\22,%csv_report,%float,%float,%float,%float,%float,%float$\00", align 1
@dummy331 = hidden local_unnamed_addr global i32 0, align 4
@.str.86 = private unnamed_addr constant [105 x i8] c"^\22BM_Counters_Tabular/repeats:2/threads:1_stddev\22,%csv_report,%float,%float,%float,%float,%float,%float$\00", align 1
@dummy334 = hidden local_unnamed_addr global i32 0, align 4
@.str.88 = private unnamed_addr constant [101 x i8] c"^\22BM_Counters_Tabular/repeats:2/threads:1_cv\22,%csv_report,%float,%float,%float,%float,%float,%float$\00", align 1
@dummy337 = hidden local_unnamed_addr global i32 0, align 4
@.str.90 = private unnamed_addr constant [98 x i8] c"^\22BM_Counters_Tabular/repeats:2/threads:2\22,%csv_report,%float,%float,%float,%float,%float,%float$\00", align 1
@dummy340 = hidden local_unnamed_addr global i32 0, align 4
@dummy343 = hidden local_unnamed_addr global i32 0, align 4
@.str.93 = private unnamed_addr constant [103 x i8] c"^\22BM_Counters_Tabular/repeats:2/threads:2_mean\22,%csv_report,%float,%float,%float,%float,%float,%float$\00", align 1
@dummy346 = hidden local_unnamed_addr global i32 0, align 4
@.str.95 = private unnamed_addr constant [105 x i8] c"^\22BM_Counters_Tabular/repeats:2/threads:2_median\22,%csv_report,%float,%float,%float,%float,%float,%float$\00", align 1
@dummy349 = hidden local_unnamed_addr global i32 0, align 4
@.str.97 = private unnamed_addr constant [105 x i8] c"^\22BM_Counters_Tabular/repeats:2/threads:2_stddev\22,%csv_report,%float,%float,%float,%float,%float,%float$\00", align 1
@dummy352 = hidden local_unnamed_addr global i32 0, align 4
@.str.99 = private unnamed_addr constant [101 x i8] c"^\22BM_Counters_Tabular/repeats:2/threads:2_cv\22,%csv_report,%float,%float,%float,%float,%float,%float$\00", align 1
@.str.100 = private unnamed_addr constant [40 x i8] c"(e.GetCounterAs< int >(\22Foo\22)) == ((1))\00", align 1
@.str.101 = private unnamed_addr constant [118 x i8] c"/local/mnt2/workspace2/mnadeem/llvm/llvm-test-suite/MicroBenchmarks/libs/benchmark/test/user_counters_tabular_test.cc\00", align 1
@__func__._Z12CheckTabularRK7Results = private unnamed_addr constant [13 x i8] c"CheckTabular\00", align 1
@.str.102 = private unnamed_addr constant [2 x i8] c"\0A\00", align 1
@.str.103 = private unnamed_addr constant [2 x i8] c":\00", align 1
@.str.104 = private unnamed_addr constant [3 x i8] c": \00", align 1
@.str.105 = private unnamed_addr constant [3 x i8] c":\0A\00", align 1
@.str.106 = private unnamed_addr constant [11 x i8] c"expected (\00", align 1
@.str.107 = private unnamed_addr constant [4 x i8] c"int\00", align 1
@.str.108 = private unnamed_addr constant [2 x i8] c")\00", align 1
@.str.109 = private unnamed_addr constant [2 x i8] c"=\00", align 1
@.str.110 = private unnamed_addr constant [14 x i8] c" to be EQ to \00", align 1
@.str.111 = private unnamed_addr constant [40 x i8] c"(e.GetCounterAs< int >(\22Bar\22)) == ((2))\00", align 1
@.str.112 = private unnamed_addr constant [40 x i8] c"(e.GetCounterAs< int >(\22Baz\22)) == ((4))\00", align 1
@.str.113 = private unnamed_addr constant [40 x i8] c"(e.GetCounterAs< int >(\22Bat\22)) == ((8))\00", align 1
@.str.114 = private unnamed_addr constant [42 x i8] c"(e.GetCounterAs< int >(\22Frob\22)) == ((16))\00", align 1
@.str.115 = private unnamed_addr constant [41 x i8] c"(e.GetCounterAs< int >(\22Lob\22)) == ((32))\00", align 1
@dummy364 = hidden local_unnamed_addr global i64 0, align 8
@.str.117 = private unnamed_addr constant [41 x i8] c"BM_Counters_Tabular/repeats:2/threads:1$\00", align 1
@dummy366 = hidden local_unnamed_addr global i64 0, align 8
@.str.119 = private unnamed_addr constant [41 x i8] c"BM_Counters_Tabular/repeats:2/threads:2$\00", align 1
@_ZL27benchmark_uniq_3_benchmark_ = internal unnamed_addr global ptr null, align 8
@.str.121 = private unnamed_addr constant [24 x i8] c"BM_CounterRates_Tabular\00", align 1
@dummy408 = hidden local_unnamed_addr global i32 0, align 4
@.str.123 = private unnamed_addr constant [49 x i8] c"\22name\22: \22BM_CounterRates_Tabular/threads:%int\22,$\00", align 1
@.str.124 = private unnamed_addr constant [20 x i8] c"\22family_index\22: 1,$\00", align 1
@.str.125 = private unnamed_addr constant [53 x i8] c"\22run_name\22: \22BM_CounterRates_Tabular/threads:%int\22,$\00", align 1
@.str.126 = private unnamed_addr constant [19 x i8] c"\22repetitions\22: 1,$\00", align 1
@dummy410 = hidden local_unnamed_addr global i32 0, align 4
@.str.128 = private unnamed_addr constant [95 x i8] c"^\22BM_CounterRates_Tabular/threads:%int\22,%csv_report,%float,%float,%float,%float,%float,%float$\00", align 1
@.str.129 = private unnamed_addr constant [81 x i8] c"std::fabs((e.GetCounterAs< double >(\22Foo\22)) - ((1. / t))) < ((0.001) * (1. / t))\00", align 1
@__func__._Z16CheckTabularRateRK7Results = private unnamed_addr constant [17 x i8] c"CheckTabularRate\00", align 1
@.str.130 = private unnamed_addr constant [7 x i8] c"double\00", align 1
@.str.131 = private unnamed_addr constant [19 x i8] c"with tolerance of \00", align 1
@.str.132 = private unnamed_addr constant [3 x i8] c" (\00", align 1
@.str.133 = private unnamed_addr constant [5 x i8] c"%), \00", align 1
@.str.134 = private unnamed_addr constant [15 x i8] c"but delta was \00", align 1
@.str.135 = private unnamed_addr constant [3 x i8] c"%)\00", align 1
@.str.136 = private unnamed_addr constant [81 x i8] c"std::fabs((e.GetCounterAs< double >(\22Bar\22)) - ((2. / t))) < ((0.001) * (2. / t))\00", align 1
@.str.137 = private unnamed_addr constant [81 x i8] c"std::fabs((e.GetCounterAs< double >(\22Baz\22)) - ((4. / t))) < ((0.001) * (4. / t))\00", align 1
@.str.138 = private unnamed_addr constant [81 x i8] c"std::fabs((e.GetCounterAs< double >(\22Bat\22)) - ((8. / t))) < ((0.001) * (8. / t))\00", align 1
@.str.139 = private unnamed_addr constant [84 x i8] c"std::fabs((e.GetCounterAs< double >(\22Frob\22)) - ((16. / t))) < ((0.001) * (16. / t))\00", align 1
@.str.140 = private unnamed_addr constant [83 x i8] c"std::fabs((e.GetCounterAs< double >(\22Lob\22)) - ((32. / t))) < ((0.001) * (32. / t))\00", align 1
@dummy423 = hidden local_unnamed_addr global i64 0, align 8
@.str.142 = private unnamed_addr constant [37 x i8] c"BM_CounterRates_Tabular/threads:%int\00", align 1
@_ZL27benchmark_uniq_4_benchmark_ = internal unnamed_addr global ptr null, align 8
@.str.144 = private unnamed_addr constant [23 x i8] c"BM_CounterSet0_Tabular\00", align 1
@dummy457 = hidden local_unnamed_addr global i32 0, align 4
@.str.146 = private unnamed_addr constant [48 x i8] c"\22name\22: \22BM_CounterSet0_Tabular/threads:%int\22,$\00", align 1
@.str.147 = private unnamed_addr constant [20 x i8] c"\22family_index\22: 2,$\00", align 1
@.str.148 = private unnamed_addr constant [52 x i8] c"\22run_name\22: \22BM_CounterSet0_Tabular/threads:%int\22,$\00", align 1
@.str.149 = private unnamed_addr constant [15 x i8] c"\22Foo\22: %float$\00", align 1
@dummy459 = hidden local_unnamed_addr global i32 0, align 4
@.str.151 = private unnamed_addr constant [75 x i8] c"^\22BM_CounterSet0_Tabular/threads:%int\22,%csv_report,%float,,%float,%float,,\00", align 1
@.str.152 = private unnamed_addr constant [41 x i8] c"(e.GetCounterAs< int >(\22Foo\22)) == ((10))\00", align 1
@__func__._Z9CheckSet0RK7Results = private unnamed_addr constant [10 x i8] c"CheckSet0\00", align 1
@.str.153 = private unnamed_addr constant [41 x i8] c"(e.GetCounterAs< int >(\22Bar\22)) == ((20))\00", align 1
@.str.154 = private unnamed_addr constant [41 x i8] c"(e.GetCounterAs< int >(\22Baz\22)) == ((40))\00", align 1
@dummy467 = hidden local_unnamed_addr global i64 0, align 8
@_ZL27benchmark_uniq_5_benchmark_ = internal unnamed_addr global ptr null, align 8
@.str.157 = private unnamed_addr constant [23 x i8] c"BM_CounterSet1_Tabular\00", align 1
@dummy497 = hidden local_unnamed_addr global i32 0, align 4
@.str.159 = private unnamed_addr constant [48 x i8] c"\22name\22: \22BM_CounterSet1_Tabular/threads:%int\22,$\00", align 1
@.str.160 = private unnamed_addr constant [20 x i8] c"\22family_index\22: 3,$\00", align 1
@.str.161 = private unnamed_addr constant [52 x i8] c"\22run_name\22: \22BM_CounterSet1_Tabular/threads:%int\22,$\00", align 1
@dummy499 = hidden local_unnamed_addr global i32 0, align 4
@.str.163 = private unnamed_addr constant [75 x i8] c"^\22BM_CounterSet1_Tabular/threads:%int\22,%csv_report,%float,,%float,%float,,\00", align 1
@.str.164 = private unnamed_addr constant [41 x i8] c"(e.GetCounterAs< int >(\22Foo\22)) == ((15))\00", align 1
@__func__._Z9CheckSet1RK7Results = private unnamed_addr constant [10 x i8] c"CheckSet1\00", align 1
@.str.165 = private unnamed_addr constant [41 x i8] c"(e.GetCounterAs< int >(\22Bar\22)) == ((25))\00", align 1
@.str.166 = private unnamed_addr constant [41 x i8] c"(e.GetCounterAs< int >(\22Baz\22)) == ((45))\00", align 1
@dummy507 = hidden local_unnamed_addr global i64 0, align 8
@.str.168 = private unnamed_addr constant [36 x i8] c"BM_CounterSet1_Tabular/threads:%int\00", align 1
@_ZL27benchmark_uniq_6_benchmark_ = internal unnamed_addr global ptr null, align 8
@.str.170 = private unnamed_addr constant [23 x i8] c"BM_CounterSet2_Tabular\00", align 1
@dummy541 = hidden local_unnamed_addr global i32 0, align 4
@.str.172 = private unnamed_addr constant [48 x i8] c"\22name\22: \22BM_CounterSet2_Tabular/threads:%int\22,$\00", align 1
@.str.173 = private unnamed_addr constant [20 x i8] c"\22family_index\22: 4,$\00", align 1
@.str.174 = private unnamed_addr constant [52 x i8] c"\22run_name\22: \22BM_CounterSet2_Tabular/threads:%int\22,$\00", align 1
@dummy543 = hidden local_unnamed_addr global i32 0, align 4
@.str.176 = private unnamed_addr constant [75 x i8] c"^\22BM_CounterSet2_Tabular/threads:%int\22,%csv_report,,%float,%float,%float,,\00", align 1
@__func__._Z9CheckSet2RK7Results = private unnamed_addr constant [10 x i8] c"CheckSet2\00", align 1
@.str.177 = private unnamed_addr constant [41 x i8] c"(e.GetCounterAs< int >(\22Bat\22)) == ((30))\00", align 1
@dummy551 = hidden local_unnamed_addr global i64 0, align 8
@_ZTVN9benchmark8internal17FunctionBenchmarkE = external unnamed_addr constant { [5 x ptr] }, align 8
@_ZZN9benchmark8internal18GetNullLogInstanceEvE3log = linkonce_odr hidden local_unnamed_addr global %"class.benchmark::internal::LogType" zeroinitializer, comdat, align 8
@_ZGVZN9benchmark8internal18GetNullLogInstanceEvE3log = linkonce_odr hidden global i64 0, comdat, align 8
@.str.181 = private unnamed_addr constant [10 x i8] c": Check `\00", align 1
@.str.182 = private unnamed_addr constant [11 x i8] c"' failed. \00", align 1
@_ZZN9benchmark8internal19GetErrorLogInstanceEvE3log = linkonce_odr hidden global %"class.benchmark::internal::LogType" zeroinitializer, comdat, align 8
@_ZGVZN9benchmark8internal19GetErrorLogInstanceEvE3log = linkonce_odr hidden global i64 0, comdat, align 8
@_ZNSt3__14clogE = external global %"class.std::__1::basic_ostream", align 8
@.str.183 = private unnamed_addr constant [13 x i8] c"basic_string\00", align 1
@_ZTISt12length_error = external constant ptr
@_ZTVSt12length_error = external unnamed_addr constant { [5 x ptr] }, align 8
@_ZNSt3__15ctypeIcE2idE = external global %"class.std::__1::locale::id", align 8
@.str.184 = private unnamed_addr constant [30 x i8] c"sv != nullptr && !sv->empty()\00", align 1
@.str.185 = private unnamed_addr constant [102 x i8] c"/local/mnt2/workspace2/mnadeem/llvm/llvm-test-suite/MicroBenchmarks/libs/benchmark/test/output_test.h\00", align 1
@__func__._ZNK7Results5GetAsIdEET_PKc = private unnamed_addr constant [6 x i8] c"GetAs\00", align 1
@.str.186 = private unnamed_addr constant [11 x i8] c"!ss.fail()\00", align 1
@_ZTVNSt3__118basic_stringstreamIcNS_11char_traitsIcEENS_9allocatorIcEEEE = linkonce_odr dso_local unnamed_addr constant { [5 x ptr], [5 x ptr], [5 x ptr] } { [5 x ptr] [ptr inttoptr (i64 128 to ptr), ptr null, ptr @_ZTINSt3__118basic_stringstreamIcNS_11char_traitsIcEENS_9allocatorIcEEEE, ptr @_ZNSt3__118basic_stringstreamIcNS_11char_traitsIcEENS_9allocatorIcEEED1Ev, ptr @_ZNSt3__118basic_stringstreamIcNS_11char_traitsIcEENS_9allocatorIcEEED0Ev], [5 x ptr] [ptr inttoptr (i64 112 to ptr), ptr inttoptr (i64 -16 to ptr), ptr @_ZTINSt3__118basic_stringstreamIcNS_11char_traitsIcEENS_9allocatorIcEEEE, ptr @_ZThn16_NSt3__118basic_stringstreamIcNS_11char_traitsIcEENS_9allocatorIcEEED1Ev, ptr @_ZThn16_NSt3__118basic_stringstreamIcNS_11char_traitsIcEENS_9allocatorIcEEED0Ev], [5 x ptr] [ptr inttoptr (i64 -128 to ptr), ptr inttoptr (i64 -128 to ptr), ptr @_ZTINSt3__118basic_stringstreamIcNS_11char_traitsIcEENS_9allocatorIcEEEE, ptr @_ZTv0_n24_NSt3__118basic_stringstreamIcNS_11char_traitsIcEENS_9allocatorIcEEED1Ev, ptr @_ZTv0_n24_NSt3__118basic_stringstreamIcNS_11char_traitsIcEENS_9allocatorIcEEED0Ev] }, comdat, align 8
@_ZTTNSt3__118basic_stringstreamIcNS_11char_traitsIcEENS_9allocatorIcEEEE = linkonce_odr dso_local unnamed_addr constant [10 x ptr] [ptr getelementptr inbounds ({ [5 x ptr], [5 x ptr], [5 x ptr] }, ptr @_ZTVNSt3__118basic_stringstreamIcNS_11char_traitsIcEENS_9allocatorIcEEEE, i32 0, inrange i32 0, i32 3), ptr getelementptr inbounds ({ [5 x ptr], [5 x ptr], [5 x ptr] }, ptr @_ZTCNSt3__118basic_stringstreamIcNS_11char_traitsIcEENS_9allocatorIcEEEE0_NS_14basic_iostreamIcS2_EE, i32 0, inrange i32 0, i32 3), ptr getelementptr inbounds ({ [5 x ptr], [5 x ptr] }, ptr @_ZTCNSt3__118basic_stringstreamIcNS_11char_traitsIcEENS_9allocatorIcEEEE0_NS_13basic_istreamIcS2_EE, i32 0, inrange i32 0, i32 3), ptr getelementptr inbounds ({ [5 x ptr], [5 x ptr] }, ptr @_ZTCNSt3__118basic_stringstreamIcNS_11char_traitsIcEENS_9allocatorIcEEEE0_NS_13basic_istreamIcS2_EE, i32 0, inrange i32 1, i32 3), ptr getelementptr inbounds ({ [5 x ptr], [5 x ptr] }, ptr @_ZTCNSt3__118basic_stringstreamIcNS_11char_traitsIcEENS_9allocatorIcEEEE16_NS_13basic_ostreamIcS2_EE, i32 0, inrange i32 0, i32 3), ptr getelementptr inbounds ({ [5 x ptr], [5 x ptr] }, ptr @_ZTCNSt3__118basic_stringstreamIcNS_11char_traitsIcEENS_9allocatorIcEEEE16_NS_13basic_ostreamIcS2_EE, i32 0, inrange i32 1, i32 3), ptr getelementptr inbounds ({ [5 x ptr], [5 x ptr], [5 x ptr] }, ptr @_ZTCNSt3__118basic_stringstreamIcNS_11char_traitsIcEENS_9allocatorIcEEEE0_NS_14basic_iostreamIcS2_EE, i32 0, inrange i32 2, i32 3), ptr getelementptr inbounds ({ [5 x ptr], [5 x ptr], [5 x ptr] }, ptr @_ZTCNSt3__118basic_stringstreamIcNS_11char_traitsIcEENS_9allocatorIcEEEE0_NS_14basic_iostreamIcS2_EE, i32 0, inrange i32 1, i32 3), ptr getelementptr inbounds ({ [5 x ptr], [5 x ptr], [5 x ptr] }, ptr @_ZTVNSt3__118basic_stringstreamIcNS_11char_traitsIcEENS_9allocatorIcEEEE, i32 0, inrange i32 2, i32 3), ptr getelementptr inbounds ({ [5 x ptr], [5 x ptr], [5 x ptr] }, ptr @_ZTVNSt3__118basic_stringstreamIcNS_11char_traitsIcEENS_9allocatorIcEEEE, i32 0, inrange i32 1, i32 3)], comdat, align 8
@_ZTCNSt3__118basic_stringstreamIcNS_11char_traitsIcEENS_9allocatorIcEEEE0_NS_14basic_iostreamIcS2_EE = linkonce_odr dso_local unnamed_addr constant { [5 x ptr], [5 x ptr], [5 x ptr] } { [5 x ptr] [ptr inttoptr (i64 128 to ptr), ptr null, ptr @_ZTINSt3__114basic_iostreamIcNS_11char_traitsIcEEEE, ptr @_ZNSt3__114basic_iostreamIcNS_11char_traitsIcEEED1Ev, ptr @_ZNSt3__114basic_iostreamIcNS_11char_traitsIcEEED0Ev], [5 x ptr] [ptr inttoptr (i64 112 to ptr), ptr inttoptr (i64 -16 to ptr), ptr @_ZTINSt3__114basic_iostreamIcNS_11char_traitsIcEEEE, ptr @_ZThn16_NSt3__114basic_iostreamIcNS_11char_traitsIcEEED1Ev, ptr @_ZThn16_NSt3__114basic_iostreamIcNS_11char_traitsIcEEED0Ev], [5 x ptr] [ptr inttoptr (i64 -128 to ptr), ptr inttoptr (i64 -128 to ptr), ptr @_ZTINSt3__114basic_iostreamIcNS_11char_traitsIcEEEE, ptr @_ZTv0_n24_NSt3__114basic_iostreamIcNS_11char_traitsIcEEED1Ev, ptr @_ZTv0_n24_NSt3__114basic_iostreamIcNS_11char_traitsIcEEED0Ev] }, comdat, align 8
@_ZTINSt3__114basic_iostreamIcNS_11char_traitsIcEEEE = external constant ptr
@_ZTCNSt3__118basic_stringstreamIcNS_11char_traitsIcEENS_9allocatorIcEEEE0_NS_13basic_istreamIcS2_EE = linkonce_odr dso_local unnamed_addr constant { [5 x ptr], [5 x ptr] } { [5 x ptr] [ptr inttoptr (i64 128 to ptr), ptr null, ptr @_ZTINSt3__113basic_istreamIcNS_11char_traitsIcEEEE, ptr @_ZNSt3__113basic_istreamIcNS_11char_traitsIcEEED1Ev, ptr @_ZNSt3__113basic_istreamIcNS_11char_traitsIcEEED0Ev], [5 x ptr] [ptr inttoptr (i64 -128 to ptr), ptr inttoptr (i64 -128 to ptr), ptr @_ZTINSt3__113basic_istreamIcNS_11char_traitsIcEEEE, ptr @_ZTv0_n24_NSt3__113basic_istreamIcNS_11char_traitsIcEEED1Ev, ptr @_ZTv0_n24_NSt3__113basic_istreamIcNS_11char_traitsIcEEED0Ev] }, comdat, align 8
@_ZTINSt3__113basic_istreamIcNS_11char_traitsIcEEEE = external constant ptr
@_ZTCNSt3__118basic_stringstreamIcNS_11char_traitsIcEENS_9allocatorIcEEEE16_NS_13basic_ostreamIcS2_EE = linkonce_odr dso_local unnamed_addr constant { [5 x ptr], [5 x ptr] } { [5 x ptr] [ptr inttoptr (i64 112 to ptr), ptr null, ptr @_ZTINSt3__113basic_ostreamIcNS_11char_traitsIcEEEE, ptr @_ZNSt3__113basic_ostreamIcNS_11char_traitsIcEEED1Ev, ptr @_ZNSt3__113basic_ostreamIcNS_11char_traitsIcEEED0Ev], [5 x ptr] [ptr inttoptr (i64 -112 to ptr), ptr inttoptr (i64 -112 to ptr), ptr @_ZTINSt3__113basic_ostreamIcNS_11char_traitsIcEEEE, ptr @_ZTv0_n24_NSt3__113basic_ostreamIcNS_11char_traitsIcEEED1Ev, ptr @_ZTv0_n24_NSt3__113basic_ostreamIcNS_11char_traitsIcEEED0Ev] }, comdat, align 8
@_ZTINSt3__113basic_ostreamIcNS_11char_traitsIcEEEE = external constant ptr
@_ZTVN10__cxxabiv120__si_class_type_infoE = external global ptr
@_ZTSNSt3__118basic_stringstreamIcNS_11char_traitsIcEENS_9allocatorIcEEEE = linkonce_odr dso_local constant [69 x i8] c"NSt3__118basic_stringstreamIcNS_11char_traitsIcEENS_9allocatorIcEEEE\00", comdat, align 1
@_ZTINSt3__118basic_stringstreamIcNS_11char_traitsIcEENS_9allocatorIcEEEE = linkonce_odr dso_local constant { ptr, ptr, ptr } { ptr getelementptr inbounds (ptr, ptr @_ZTVN10__cxxabiv120__si_class_type_infoE, i64 2), ptr @_ZTSNSt3__118basic_stringstreamIcNS_11char_traitsIcEENS_9allocatorIcEEEE, ptr @_ZTINSt3__114basic_iostreamIcNS_11char_traitsIcEEEE }, comdat, align 8
@_ZTVNSt3__115basic_stringbufIcNS_11char_traitsIcEENS_9allocatorIcEEEE = linkonce_odr dso_local unnamed_addr constant { [16 x ptr] } { [16 x ptr] [ptr null, ptr @_ZTINSt3__115basic_stringbufIcNS_11char_traitsIcEENS_9allocatorIcEEEE, ptr @_ZNSt3__115basic_stringbufIcNS_11char_traitsIcEENS_9allocatorIcEEED2Ev, ptr @_ZNSt3__115basic_stringbufIcNS_11char_traitsIcEENS_9allocatorIcEEED0Ev, ptr @_ZNSt3__115basic_streambufIcNS_11char_traitsIcEEE5imbueERKNS_6localeE, ptr @_ZNSt3__115basic_streambufIcNS_11char_traitsIcEEE6setbufEPcl, ptr @_ZNSt3__115basic_stringbufIcNS_11char_traitsIcEENS_9allocatorIcEEE7seekoffExNS_8ios_base7seekdirEj, ptr @_ZNSt3__115basic_stringbufIcNS_11char_traitsIcEENS_9allocatorIcEEE7seekposENS_4fposI11__mbstate_tEEj, ptr @_ZNSt3__115basic_streambufIcNS_11char_traitsIcEEE4syncEv, ptr @_ZNSt3__115basic_streambufIcNS_11char_traitsIcEEE9showmanycEv, ptr @_ZNSt3__115basic_streambufIcNS_11char_traitsIcEEE6xsgetnEPcl, ptr @_ZNSt3__115basic_stringbufIcNS_11char_traitsIcEENS_9allocatorIcEEE9underflowEv, ptr @_ZNSt3__115basic_streambufIcNS_11char_traitsIcEEE5uflowEv, ptr @_ZNSt3__115basic_stringbufIcNS_11char_traitsIcEENS_9allocatorIcEEE9pbackfailEi, ptr @_ZNSt3__115basic_streambufIcNS_11char_traitsIcEEE6xsputnEPKcl, ptr @_ZNSt3__115basic_stringbufIcNS_11char_traitsIcEENS_9allocatorIcEEE8overflowEi] }, comdat, align 8
@_ZTSNSt3__115basic_stringbufIcNS_11char_traitsIcEENS_9allocatorIcEEEE = linkonce_odr dso_local constant [66 x i8] c"NSt3__115basic_stringbufIcNS_11char_traitsIcEENS_9allocatorIcEEEE\00", comdat, align 1
@_ZTINSt3__115basic_streambufIcNS_11char_traitsIcEEEE = external constant ptr
@_ZTINSt3__115basic_stringbufIcNS_11char_traitsIcEENS_9allocatorIcEEEE = linkonce_odr dso_local constant { ptr, ptr, ptr } { ptr getelementptr inbounds (ptr, ptr @_ZTVN10__cxxabiv120__si_class_type_infoE, i64 2), ptr @_ZTSNSt3__115basic_stringbufIcNS_11char_traitsIcEENS_9allocatorIcEEEE, ptr @_ZTINSt3__115basic_streambufIcNS_11char_traitsIcEEEE }, comdat, align 8
@_ZTVNSt3__110__function6__funcIPFvRK7ResultsENS_9allocatorIS6_EES5_EE = linkonce_odr hidden unnamed_addr constant { [11 x ptr] } { [11 x ptr] [ptr null, ptr @_ZTINSt3__110__function6__funcIPFvRK7ResultsENS_9allocatorIS6_EES5_EE, ptr @_ZNSt3__110__function6__baseIFvRK7ResultsEED2Ev, ptr @_ZNSt3__110__function6__funcIPFvRK7ResultsENS_9allocatorIS6_EES5_ED0Ev, ptr @_ZNKSt3__110__function6__funcIPFvRK7ResultsENS_9allocatorIS6_EES5_E7__cloneEv, ptr @_ZNKSt3__110__function6__funcIPFvRK7ResultsENS_9allocatorIS6_EES5_E7__cloneEPNS0_6__baseIS5_EE, ptr @_ZNSt3__110__function6__funcIPFvRK7ResultsENS_9allocatorIS6_EES5_E7destroyEv, ptr @_ZNSt3__110__function6__funcIPFvRK7ResultsENS_9allocatorIS6_EES5_E18destroy_deallocateEv, ptr @_ZNSt3__110__function6__funcIPFvRK7ResultsENS_9allocatorIS6_EES5_EclES4_, ptr @_ZNKSt3__110__function6__funcIPFvRK7ResultsENS_9allocatorIS6_EES5_E6targetERKSt9type_info, ptr @_ZNKSt3__110__function6__funcIPFvRK7ResultsENS_9allocatorIS6_EES5_E11target_typeEv] }, comdat, align 8
@_ZTSNSt3__110__function6__funcIPFvRK7ResultsENS_9allocatorIS6_EES5_EE = linkonce_odr hidden constant [66 x i8] c"NSt3__110__function6__funcIPFvRK7ResultsENS_9allocatorIS6_EES5_EE\00", comdat, align 1
@_ZTVN10__cxxabiv117__class_type_infoE = external global ptr
@_ZTSNSt3__110__function6__baseIFvRK7ResultsEEE = linkonce_odr hidden constant [43 x i8] c"NSt3__110__function6__baseIFvRK7ResultsEEE\00", comdat, align 1
@_ZTINSt3__110__function6__baseIFvRK7ResultsEEE = linkonce_odr hidden constant { ptr, ptr } { ptr getelementptr inbounds (ptr, ptr @_ZTVN10__cxxabiv117__class_type_infoE, i64 2), ptr @_ZTSNSt3__110__function6__baseIFvRK7ResultsEEE }, comdat, align 8
@_ZTINSt3__110__function6__funcIPFvRK7ResultsENS_9allocatorIS6_EES5_EE = linkonce_odr hidden constant { ptr, ptr, ptr } { ptr getelementptr inbounds (ptr, ptr @_ZTVN10__cxxabiv120__si_class_type_infoE, i64 2), ptr @_ZTSNSt3__110__function6__funcIPFvRK7ResultsENS_9allocatorIS6_EES5_EE, ptr @_ZTINSt3__110__function6__baseIFvRK7ResultsEEE }, comdat, align 8
@_ZTVN10__cxxabiv119__pointer_type_infoE = external global ptr
@_ZTSPFvRK7ResultsE = linkonce_odr hidden constant [15 x i8] c"PFvRK7ResultsE\00", comdat, align 1
@_ZTVN10__cxxabiv120__function_type_infoE = external global ptr
@_ZTSFvRK7ResultsE = linkonce_odr hidden constant [14 x i8] c"FvRK7ResultsE\00", comdat, align 1
@_ZTIFvRK7ResultsE = linkonce_odr hidden constant { ptr, ptr } { ptr getelementptr inbounds (ptr, ptr @_ZTVN10__cxxabiv120__function_type_infoE, i64 2), ptr @_ZTSFvRK7ResultsE }, comdat, align 8
@_ZTIPFvRK7ResultsE = linkonce_odr hidden constant { ptr, ptr, i32, ptr } { ptr getelementptr inbounds (ptr, ptr @_ZTVN10__cxxabiv119__pointer_type_infoE, i64 2), ptr @_ZTSPFvRK7ResultsE, i32 0, ptr @_ZTIFvRK7ResultsE }, comdat, align 8
@llvm.global_ctors = appending global [1 x { i32, ptr, ptr }] [{ i32, ptr, ptr } { i32 65535, ptr @_GLOBAL__sub_I_user_counters_tabular_test.cc, ptr null }]

declare noundef i32 @_ZN9benchmark8internal17InitializeStreamsEv() local_unnamed_addr #0

declare noundef i32 @_Z8AddCases10TestCaseIDSt16initializer_listI8TestCaseE(i32 noundef, ptr, i64) local_unnamed_addr #0

; Function Attrs: mustprogress nocallback nofree nosync nounwind willreturn memory(argmem: readwrite)
declare void @llvm.lifetime.start.p0(i64 immarg, ptr nocapture) #1

declare i32 @__gxx_personality_v0(...)

declare void @_ZN8TestCaseC1ENSt3__112basic_stringIcNS0_11char_traitsIcEENS0_9allocatorIcEEEEi(ptr noundef nonnull align 8 dereferenceable(72), ptr noundef, i32 noundef) unnamed_addr #0

; Function Attrs: mustprogress nocallback nofree nosync nounwind willreturn memory(argmem: readwrite)
declare void @llvm.lifetime.end.p0(i64 immarg, ptr nocapture) #1

; Function Attrs: uwtable
define hidden void @_Z19BM_Counters_TabularRN9benchmark5StateE(ptr noundef nonnull align 8 dereferenceable(120) %state) #2 personality ptr @__gxx_personality_v0 {
entry:
  %ref.tmp = alloca [6 x %"struct.std::__1::pair"], align 8
  %ref.tmp4 = alloca %"class.std::__1::basic_string", align 8
  %ref.tmp9 = alloca %"class.std::__1::basic_string", align 8
  %ref.tmp17 = alloca %"class.std::__1::basic_string", align 8
  %ref.tmp25 = alloca %"class.std::__1::basic_string", align 8
  %ref.tmp33 = alloca %"class.std::__1::basic_string", align 8
  %ref.tmp41 = alloca %"class.std::__1::basic_string", align 8
  tail call void @_ZN9benchmark5State16StartKeepRunningEv(ptr noundef nonnull align 8 dereferenceable(120) %state)
  tail call void @_ZN9benchmark5State17FinishKeepRunningEv(ptr noundef nonnull align 8 dereferenceable(120) %state)
  %counters = getelementptr inbounds %"class.benchmark::State", ptr %state, i64 0, i32 8
  call void @llvm.lifetime.start.p0(i64 240, ptr nonnull %ref.tmp) #23
  call void @llvm.lifetime.start.p0(i64 24, ptr nonnull %ref.tmp4) #23
  store i8 6, ptr %ref.tmp4, align 8
  %__data_.i.i.i = getelementptr inbounds %"struct.std::__1::basic_string<char>::__short", ptr %ref.tmp4, i64 0, i32 2
  %cmp.i24.i.i = icmp ugt ptr %__data_.i.i.i, @.str.21
  %add.ptr.i.i.i = getelementptr inbounds %"struct.std::__1::basic_string<char>::__short", ptr %ref.tmp4, i64 0, i32 2, i64 3
  %cmp1.i.i.i = icmp ule ptr %add.ptr.i.i.i, @.str.21
  %0 = or i1 %cmp.i24.i.i, %cmp1.i.i.i
  call void @llvm.assume(i1 %0)
  call void @llvm.memcpy.p0.p0.i64(ptr noundef nonnull align 1 dereferenceable(3) %__data_.i.i.i, ptr noundef nonnull align 1 dereferenceable(3) @.str.21, i64 3, i1 false)
  store i8 0, ptr %add.ptr.i.i.i, align 4, !tbaa !5
  invoke void @_ZNSt3__112basic_stringIcNS_11char_traitsIcEENS_9allocatorIcEEEC1ERKS5_(ptr noundef nonnull align 8 dereferenceable(24) %ref.tmp, ptr noundef nonnull align 8 dereferenceable(24) %ref.tmp4)
          to label %invoke.cont8 unwind label %lpad6

invoke.cont8:                                     ; preds = %entry
  %second.i = getelementptr inbounds %"struct.std::__1::pair", ptr %ref.tmp, i64 0, i32 1
  store double 1.000000e+00, ptr %second.i, align 8, !tbaa.struct !8
  %ref.tmp5.sroa.5.0.second.i.sroa_idx = getelementptr inbounds %"struct.std::__1::pair", ptr %ref.tmp, i64 0, i32 1, i32 1
  store i32 2, ptr %ref.tmp5.sroa.5.0.second.i.sroa_idx, align 8, !tbaa.struct !15
  %ref.tmp5.sroa.6.0.second.i.sroa_idx = getelementptr inbounds %"struct.std::__1::pair", ptr %ref.tmp, i64 0, i32 1, i32 2
  store i32 1000, ptr %ref.tmp5.sroa.6.0.second.i.sroa_idx, align 4, !tbaa.struct !16
  %arrayinit.element = getelementptr inbounds %"struct.std::__1::pair", ptr %ref.tmp, i64 1
  call void @llvm.lifetime.start.p0(i64 24, ptr nonnull %ref.tmp9) #23
  store i8 6, ptr %ref.tmp9, align 8
  %__data_.i.i.i116 = getelementptr inbounds %"struct.std::__1::basic_string<char>::__short", ptr %ref.tmp9, i64 0, i32 2
  %cmp.i24.i.i125 = icmp ugt ptr %__data_.i.i.i116, @.str.22
  %add.ptr.i.i.i126 = getelementptr inbounds %"struct.std::__1::basic_string<char>::__short", ptr %ref.tmp9, i64 0, i32 2, i64 3
  %cmp1.i.i.i127 = icmp ule ptr %add.ptr.i.i.i126, @.str.22
  %1 = or i1 %cmp.i24.i.i125, %cmp1.i.i.i127
  call void @llvm.assume(i1 %1)
  call void @llvm.memcpy.p0.p0.i64(ptr noundef nonnull align 1 dereferenceable(3) %__data_.i.i.i116, ptr noundef nonnull align 1 dereferenceable(3) @.str.22, i64 3, i1 false)
  store i8 0, ptr %add.ptr.i.i.i126, align 4, !tbaa !5
  invoke void @_ZNSt3__112basic_stringIcNS_11char_traitsIcEENS_9allocatorIcEEEC1ERKS5_(ptr noundef nonnull align 8 dereferenceable(24) %arrayinit.element, ptr noundef nonnull align 8 dereferenceable(24) %ref.tmp9)
          to label %invoke.cont15 unwind label %lpad13

invoke.cont15:                                    ; preds = %invoke.cont8
  %second.i132 = getelementptr inbounds %"struct.std::__1::pair", ptr %ref.tmp, i64 1, i32 1
  store double 2.000000e+00, ptr %second.i132, align 8, !tbaa.struct !8
  %ref.tmp12.sroa.5.0.second.i132.sroa_idx = getelementptr inbounds %"struct.std::__1::pair", ptr %ref.tmp, i64 1, i32 1, i32 1
  store i32 2, ptr %ref.tmp12.sroa.5.0.second.i132.sroa_idx, align 8, !tbaa.struct !15
  %ref.tmp12.sroa.6.0.second.i132.sroa_idx = getelementptr inbounds %"struct.std::__1::pair", ptr %ref.tmp, i64 1, i32 1, i32 2
  store i32 1000, ptr %ref.tmp12.sroa.6.0.second.i132.sroa_idx, align 4, !tbaa.struct !16
  %arrayinit.element16 = getelementptr inbounds %"struct.std::__1::pair", ptr %ref.tmp, i64 2
  call void @llvm.lifetime.start.p0(i64 24, ptr nonnull %ref.tmp17) #23
  store i8 6, ptr %ref.tmp17, align 8
  %__data_.i.i.i142 = getelementptr inbounds %"struct.std::__1::basic_string<char>::__short", ptr %ref.tmp17, i64 0, i32 2
  %cmp.i24.i.i151 = icmp ugt ptr %__data_.i.i.i142, @.str.23
  %add.ptr.i.i.i152 = getelementptr inbounds %"struct.std::__1::basic_string<char>::__short", ptr %ref.tmp17, i64 0, i32 2, i64 3
  %cmp1.i.i.i153 = icmp ule ptr %add.ptr.i.i.i152, @.str.23
  %2 = or i1 %cmp.i24.i.i151, %cmp1.i.i.i153
  call void @llvm.assume(i1 %2)
  call void @llvm.memcpy.p0.p0.i64(ptr noundef nonnull align 1 dereferenceable(3) %__data_.i.i.i142, ptr noundef nonnull align 1 dereferenceable(3) @.str.23, i64 3, i1 false)
  store i8 0, ptr %add.ptr.i.i.i152, align 4, !tbaa !5
  invoke void @_ZNSt3__112basic_stringIcNS_11char_traitsIcEENS_9allocatorIcEEEC1ERKS5_(ptr noundef nonnull align 8 dereferenceable(24) %arrayinit.element16, ptr noundef nonnull align 8 dereferenceable(24) %ref.tmp17)
          to label %invoke.cont23 unwind label %lpad21

invoke.cont23:                                    ; preds = %invoke.cont15
  %second.i158 = getelementptr inbounds %"struct.std::__1::pair", ptr %ref.tmp, i64 2, i32 1
  store double 4.000000e+00, ptr %second.i158, align 8, !tbaa.struct !8
  %ref.tmp20.sroa.5.0.second.i158.sroa_idx = getelementptr inbounds %"struct.std::__1::pair", ptr %ref.tmp, i64 2, i32 1, i32 1
  store i32 2, ptr %ref.tmp20.sroa.5.0.second.i158.sroa_idx, align 8, !tbaa.struct !15
  %ref.tmp20.sroa.6.0.second.i158.sroa_idx = getelementptr inbounds %"struct.std::__1::pair", ptr %ref.tmp, i64 2, i32 1, i32 2
  store i32 1000, ptr %ref.tmp20.sroa.6.0.second.i158.sroa_idx, align 4, !tbaa.struct !16
  %arrayinit.element24 = getelementptr inbounds %"struct.std::__1::pair", ptr %ref.tmp, i64 3
  call void @llvm.lifetime.start.p0(i64 24, ptr nonnull %ref.tmp25) #23
  store i8 6, ptr %ref.tmp25, align 8
  %__data_.i.i.i168 = getelementptr inbounds %"struct.std::__1::basic_string<char>::__short", ptr %ref.tmp25, i64 0, i32 2
  %cmp.i24.i.i177 = icmp ugt ptr %__data_.i.i.i168, @.str.24
  %add.ptr.i.i.i178 = getelementptr inbounds %"struct.std::__1::basic_string<char>::__short", ptr %ref.tmp25, i64 0, i32 2, i64 3
  %cmp1.i.i.i179 = icmp ule ptr %add.ptr.i.i.i178, @.str.24
  %3 = or i1 %cmp.i24.i.i177, %cmp1.i.i.i179
  call void @llvm.assume(i1 %3)
  call void @llvm.memcpy.p0.p0.i64(ptr noundef nonnull align 1 dereferenceable(3) %__data_.i.i.i168, ptr noundef nonnull align 1 dereferenceable(3) @.str.24, i64 3, i1 false)
  store i8 0, ptr %add.ptr.i.i.i178, align 4, !tbaa !5
  invoke void @_ZNSt3__112basic_stringIcNS_11char_traitsIcEENS_9allocatorIcEEEC1ERKS5_(ptr noundef nonnull align 8 dereferenceable(24) %arrayinit.element24, ptr noundef nonnull align 8 dereferenceable(24) %ref.tmp25)
          to label %invoke.cont31 unwind label %lpad29

invoke.cont31:                                    ; preds = %invoke.cont23
  %second.i184 = getelementptr inbounds %"struct.std::__1::pair", ptr %ref.tmp, i64 3, i32 1
  store double 8.000000e+00, ptr %second.i184, align 8, !tbaa.struct !8
  %ref.tmp28.sroa.5.0.second.i184.sroa_idx = getelementptr inbounds %"struct.std::__1::pair", ptr %ref.tmp, i64 3, i32 1, i32 1
  store i32 2, ptr %ref.tmp28.sroa.5.0.second.i184.sroa_idx, align 8, !tbaa.struct !15
  %ref.tmp28.sroa.6.0.second.i184.sroa_idx = getelementptr inbounds %"struct.std::__1::pair", ptr %ref.tmp, i64 3, i32 1, i32 2
  store i32 1000, ptr %ref.tmp28.sroa.6.0.second.i184.sroa_idx, align 4, !tbaa.struct !16
  %arrayinit.element32 = getelementptr inbounds %"struct.std::__1::pair", ptr %ref.tmp, i64 4
  call void @llvm.lifetime.start.p0(i64 24, ptr nonnull %ref.tmp33) #23
  store i8 8, ptr %ref.tmp33, align 8
  %__data_.i.i.i194 = getelementptr inbounds %"struct.std::__1::basic_string<char>::__short", ptr %ref.tmp33, i64 0, i32 2
  %cmp.i24.i.i203 = icmp ugt ptr %__data_.i.i.i194, @.str.25
  %add.ptr.i.i.i204 = getelementptr inbounds %"struct.std::__1::basic_string<char>::__short", ptr %ref.tmp33, i64 0, i32 2, i64 4
  %cmp1.i.i.i205 = icmp ule ptr %add.ptr.i.i.i204, @.str.25
  %4 = or i1 %cmp.i24.i.i203, %cmp1.i.i.i205
  call void @llvm.assume(i1 %4)
  store i32 1651470918, ptr %__data_.i.i.i194, align 1
  store i8 0, ptr %add.ptr.i.i.i204, align 1, !tbaa !5
  invoke void @_ZNSt3__112basic_stringIcNS_11char_traitsIcEENS_9allocatorIcEEEC1ERKS5_(ptr noundef nonnull align 8 dereferenceable(24) %arrayinit.element32, ptr noundef nonnull align 8 dereferenceable(24) %ref.tmp33)
          to label %invoke.cont39 unwind label %lpad37

invoke.cont39:                                    ; preds = %invoke.cont31
  %second.i210 = getelementptr inbounds %"struct.std::__1::pair", ptr %ref.tmp, i64 4, i32 1
  store double 1.600000e+01, ptr %second.i210, align 8, !tbaa.struct !8
  %ref.tmp36.sroa.5.0.second.i210.sroa_idx = getelementptr inbounds %"struct.std::__1::pair", ptr %ref.tmp, i64 4, i32 1, i32 1
  store i32 2, ptr %ref.tmp36.sroa.5.0.second.i210.sroa_idx, align 8, !tbaa.struct !15
  %ref.tmp36.sroa.6.0.second.i210.sroa_idx = getelementptr inbounds %"struct.std::__1::pair", ptr %ref.tmp, i64 4, i32 1, i32 2
  store i32 1000, ptr %ref.tmp36.sroa.6.0.second.i210.sroa_idx, align 4, !tbaa.struct !16
  %arrayinit.element40 = getelementptr inbounds %"struct.std::__1::pair", ptr %ref.tmp, i64 5
  call void @llvm.lifetime.start.p0(i64 24, ptr nonnull %ref.tmp41) #23
  store i8 6, ptr %ref.tmp41, align 8
  %__data_.i.i.i220 = getelementptr inbounds %"struct.std::__1::basic_string<char>::__short", ptr %ref.tmp41, i64 0, i32 2
  %cmp.i24.i.i229 = icmp ugt ptr %__data_.i.i.i220, @.str.26
  %add.ptr.i.i.i230 = getelementptr inbounds %"struct.std::__1::basic_string<char>::__short", ptr %ref.tmp41, i64 0, i32 2, i64 3
  %cmp1.i.i.i231 = icmp ule ptr %add.ptr.i.i.i230, @.str.26
  %5 = or i1 %cmp.i24.i.i229, %cmp1.i.i.i231
  call void @llvm.assume(i1 %5)
  call void @llvm.memcpy.p0.p0.i64(ptr noundef nonnull align 1 dereferenceable(3) %__data_.i.i.i220, ptr noundef nonnull align 1 dereferenceable(3) @.str.26, i64 3, i1 false)
  store i8 0, ptr %add.ptr.i.i.i230, align 4, !tbaa !5
  invoke void @_ZNSt3__112basic_stringIcNS_11char_traitsIcEENS_9allocatorIcEEEC1ERKS5_(ptr noundef nonnull align 8 dereferenceable(24) %arrayinit.element40, ptr noundef nonnull align 8 dereferenceable(24) %ref.tmp41)
          to label %invoke.cont47 unwind label %lpad45

invoke.cont47:                                    ; preds = %invoke.cont39
  %second.i236 = getelementptr inbounds %"struct.std::__1::pair", ptr %ref.tmp, i64 5, i32 1
  store double 3.200000e+01, ptr %second.i236, align 8, !tbaa.struct !8
  %ref.tmp44.sroa.5.0.second.i236.sroa_idx = getelementptr inbounds %"struct.std::__1::pair", ptr %ref.tmp, i64 5, i32 1, i32 1
  store i32 2, ptr %ref.tmp44.sroa.5.0.second.i236.sroa_idx, align 8, !tbaa.struct !15
  %ref.tmp44.sroa.6.0.second.i236.sroa_idx = getelementptr inbounds %"struct.std::__1::pair", ptr %ref.tmp, i64 5, i32 1, i32 2
  store i32 1000, ptr %ref.tmp44.sroa.6.0.second.i236.sroa_idx, align 4, !tbaa.struct !16
  %__pair1_.i.i.i.i.i.i = getelementptr inbounds %"class.benchmark::State", ptr %state, i64 0, i32 8, i32 0, i32 1
  %call3.i.i.i.i239 = invoke { ptr, i8 } @_ZNSt3__16__treeINS_12__value_typeINS_12basic_stringIcNS_11char_traitsIcEENS_9allocatorIcEEEEN9benchmark7CounterEEENS_19__map_value_compareIS7_SA_NS_4lessIS7_EELb1EEENS5_ISA_EEE30__emplace_hint_unique_key_argsIS7_JRKNS_4pairIKS7_S9_EEEEENSI_INS_15__tree_iteratorISA_PNS_11__tree_nodeISA_PvEElEEbEENS_21__tree_const_iteratorISA_SR_lEERKT_DpOT0_(ptr noundef nonnull align 8 dereferenceable(24) %counters, ptr nonnull %__pair1_.i.i.i.i.i.i, ptr noundef nonnull align 8 dereferenceable(24) %ref.tmp, ptr noundef nonnull align 8 dereferenceable(40) %ref.tmp)
          to label %call3.i.i.i.i.noexc unwind label %lpad48

call3.i.i.i.i.noexc:                              ; preds = %invoke.cont47
  %call3.i.i.i.i239.1 = invoke { ptr, i8 } @_ZNSt3__16__treeINS_12__value_typeINS_12basic_stringIcNS_11char_traitsIcEENS_9allocatorIcEEEEN9benchmark7CounterEEENS_19__map_value_compareIS7_SA_NS_4lessIS7_EELb1EEENS5_ISA_EEE30__emplace_hint_unique_key_argsIS7_JRKNS_4pairIKS7_S9_EEEEENSI_INS_15__tree_iteratorISA_PNS_11__tree_nodeISA_PvEElEEbEENS_21__tree_const_iteratorISA_SR_lEERKT_DpOT0_(ptr noundef nonnull align 8 dereferenceable(24) %counters, ptr nonnull %__pair1_.i.i.i.i.i.i, ptr noundef nonnull align 8 dereferenceable(24) %arrayinit.element, ptr noundef nonnull align 8 dereferenceable(40) %arrayinit.element)
          to label %call3.i.i.i.i.noexc.1 unwind label %lpad48

call3.i.i.i.i.noexc.1:                            ; preds = %call3.i.i.i.i.noexc
  %call3.i.i.i.i239.2 = invoke { ptr, i8 } @_ZNSt3__16__treeINS_12__value_typeINS_12basic_stringIcNS_11char_traitsIcEENS_9allocatorIcEEEEN9benchmark7CounterEEENS_19__map_value_compareIS7_SA_NS_4lessIS7_EELb1EEENS5_ISA_EEE30__emplace_hint_unique_key_argsIS7_JRKNS_4pairIKS7_S9_EEEEENSI_INS_15__tree_iteratorISA_PNS_11__tree_nodeISA_PvEElEEbEENS_21__tree_const_iteratorISA_SR_lEERKT_DpOT0_(ptr noundef nonnull align 8 dereferenceable(24) %counters, ptr nonnull %__pair1_.i.i.i.i.i.i, ptr noundef nonnull align 8 dereferenceable(24) %arrayinit.element16, ptr noundef nonnull align 8 dereferenceable(40) %arrayinit.element16)
          to label %call3.i.i.i.i.noexc.2 unwind label %lpad48

call3.i.i.i.i.noexc.2:                            ; preds = %call3.i.i.i.i.noexc.1
  %call3.i.i.i.i239.3 = invoke { ptr, i8 } @_ZNSt3__16__treeINS_12__value_typeINS_12basic_stringIcNS_11char_traitsIcEENS_9allocatorIcEEEEN9benchmark7CounterEEENS_19__map_value_compareIS7_SA_NS_4lessIS7_EELb1EEENS5_ISA_EEE30__emplace_hint_unique_key_argsIS7_JRKNS_4pairIKS7_S9_EEEEENSI_INS_15__tree_iteratorISA_PNS_11__tree_nodeISA_PvEElEEbEENS_21__tree_const_iteratorISA_SR_lEERKT_DpOT0_(ptr noundef nonnull align 8 dereferenceable(24) %counters, ptr nonnull %__pair1_.i.i.i.i.i.i, ptr noundef nonnull align 8 dereferenceable(24) %arrayinit.element24, ptr noundef nonnull align 8 dereferenceable(40) %arrayinit.element24)
          to label %call3.i.i.i.i.noexc.3 unwind label %lpad48

call3.i.i.i.i.noexc.3:                            ; preds = %call3.i.i.i.i.noexc.2
  %call3.i.i.i.i239.4 = invoke { ptr, i8 } @_ZNSt3__16__treeINS_12__value_typeINS_12basic_stringIcNS_11char_traitsIcEENS_9allocatorIcEEEEN9benchmark7CounterEEENS_19__map_value_compareIS7_SA_NS_4lessIS7_EELb1EEENS5_ISA_EEE30__emplace_hint_unique_key_argsIS7_JRKNS_4pairIKS7_S9_EEEEENSI_INS_15__tree_iteratorISA_PNS_11__tree_nodeISA_PvEElEEbEENS_21__tree_const_iteratorISA_SR_lEERKT_DpOT0_(ptr noundef nonnull align 8 dereferenceable(24) %counters, ptr nonnull %__pair1_.i.i.i.i.i.i, ptr noundef nonnull align 8 dereferenceable(24) %arrayinit.element32, ptr noundef nonnull align 8 dereferenceable(40) %arrayinit.element32)
          to label %call3.i.i.i.i.noexc.4 unwind label %lpad48

call3.i.i.i.i.noexc.4:                            ; preds = %call3.i.i.i.i.noexc.3
  %call3.i.i.i.i239.5 = invoke { ptr, i8 } @_ZNSt3__16__treeINS_12__value_typeINS_12basic_stringIcNS_11char_traitsIcEENS_9allocatorIcEEEEN9benchmark7CounterEEENS_19__map_value_compareIS7_SA_NS_4lessIS7_EELb1EEENS5_ISA_EEE30__emplace_hint_unique_key_argsIS7_JRKNS_4pairIKS7_S9_EEEEENSI_INS_15__tree_iteratorISA_PNS_11__tree_nodeISA_PvEElEEbEENS_21__tree_const_iteratorISA_SR_lEERKT_DpOT0_(ptr noundef nonnull align 8 dereferenceable(24) %counters, ptr nonnull %__pair1_.i.i.i.i.i.i, ptr noundef nonnull align 8 dereferenceable(24) %arrayinit.element40, ptr noundef nonnull align 8 dereferenceable(40) %arrayinit.element40)
          to label %call3.i.i.i.i.noexc.5 unwind label %lpad48

call3.i.i.i.i.noexc.5:                            ; preds = %call3.i.i.i.i.noexc.4
  %arraydestroy.element = getelementptr inbounds %"struct.std::__1::pair", ptr %ref.tmp, i64 5
  %bf.load.i.i.i = load i8, ptr %arraydestroy.element, align 8
  %bf.clear.i.i.i = and i8 %bf.load.i.i.i, 1
  %tobool.i.not.i.i = icmp eq i8 %bf.clear.i.i.i, 0
  br i1 %tobool.i.not.i.i, label %_ZNSt3__14pairIKNS_12basic_stringIcNS_11char_traitsIcEENS_9allocatorIcEEEEN9benchmark7CounterEED2Ev.exit, label %if.then.i.i241

if.then.i.i241:                                   ; preds = %call3.i.i.i.i.noexc.5
  %__data_.i.i.i240 = getelementptr inbounds %"struct.std::__1::pair", ptr %ref.tmp, i64 5, i32 0, i32 0, i32 0, i32 0, i32 0, i32 0, i32 2
  %6 = load ptr, ptr %__data_.i.i.i240, align 8, !tbaa !5
  call void @_ZdlPv(ptr noundef %6) #24
  br label %_ZNSt3__14pairIKNS_12basic_stringIcNS_11char_traitsIcEENS_9allocatorIcEEEEN9benchmark7CounterEED2Ev.exit

_ZNSt3__14pairIKNS_12basic_stringIcNS_11char_traitsIcEENS_9allocatorIcEEEEN9benchmark7CounterEED2Ev.exit: ; preds = %call3.i.i.i.i.noexc.5, %if.then.i.i241
  %arraydestroy.element.1 = getelementptr inbounds %"struct.std::__1::pair", ptr %ref.tmp, i64 4
  %bf.load.i.i.i.1 = load i8, ptr %arraydestroy.element.1, align 8
  %bf.clear.i.i.i.1 = and i8 %bf.load.i.i.i.1, 1
  %tobool.i.not.i.i.1 = icmp eq i8 %bf.clear.i.i.i.1, 0
  br i1 %tobool.i.not.i.i.1, label %_ZNSt3__14pairIKNS_12basic_stringIcNS_11char_traitsIcEENS_9allocatorIcEEEEN9benchmark7CounterEED2Ev.exit.1, label %if.then.i.i241.1

if.then.i.i241.1:                                 ; preds = %_ZNSt3__14pairIKNS_12basic_stringIcNS_11char_traitsIcEENS_9allocatorIcEEEEN9benchmark7CounterEED2Ev.exit
  %__data_.i.i.i240.1 = getelementptr inbounds %"struct.std::__1::pair", ptr %ref.tmp, i64 4, i32 0, i32 0, i32 0, i32 0, i32 0, i32 0, i32 2
  %7 = load ptr, ptr %__data_.i.i.i240.1, align 8, !tbaa !5
  call void @_ZdlPv(ptr noundef %7) #24
  br label %_ZNSt3__14pairIKNS_12basic_stringIcNS_11char_traitsIcEENS_9allocatorIcEEEEN9benchmark7CounterEED2Ev.exit.1

_ZNSt3__14pairIKNS_12basic_stringIcNS_11char_traitsIcEENS_9allocatorIcEEEEN9benchmark7CounterEED2Ev.exit.1: ; preds = %if.then.i.i241.1, %_ZNSt3__14pairIKNS_12basic_stringIcNS_11char_traitsIcEENS_9allocatorIcEEEEN9benchmark7CounterEED2Ev.exit
  %arraydestroy.element.2 = getelementptr inbounds %"struct.std::__1::pair", ptr %ref.tmp, i64 3
  %bf.load.i.i.i.2 = load i8, ptr %arraydestroy.element.2, align 8
  %bf.clear.i.i.i.2 = and i8 %bf.load.i.i.i.2, 1
  %tobool.i.not.i.i.2 = icmp eq i8 %bf.clear.i.i.i.2, 0
  br i1 %tobool.i.not.i.i.2, label %_ZNSt3__14pairIKNS_12basic_stringIcNS_11char_traitsIcEENS_9allocatorIcEEEEN9benchmark7CounterEED2Ev.exit.2, label %if.then.i.i241.2

if.then.i.i241.2:                                 ; preds = %_ZNSt3__14pairIKNS_12basic_stringIcNS_11char_traitsIcEENS_9allocatorIcEEEEN9benchmark7CounterEED2Ev.exit.1
  %__data_.i.i.i240.2 = getelementptr inbounds %"struct.std::__1::pair", ptr %ref.tmp, i64 3, i32 0, i32 0, i32 0, i32 0, i32 0, i32 0, i32 2
  %8 = load ptr, ptr %__data_.i.i.i240.2, align 8, !tbaa !5
  call void @_ZdlPv(ptr noundef %8) #24
  br label %_ZNSt3__14pairIKNS_12basic_stringIcNS_11char_traitsIcEENS_9allocatorIcEEEEN9benchmark7CounterEED2Ev.exit.2

_ZNSt3__14pairIKNS_12basic_stringIcNS_11char_traitsIcEENS_9allocatorIcEEEEN9benchmark7CounterEED2Ev.exit.2: ; preds = %if.then.i.i241.2, %_ZNSt3__14pairIKNS_12basic_stringIcNS_11char_traitsIcEENS_9allocatorIcEEEEN9benchmark7CounterEED2Ev.exit.1
  %arraydestroy.element.3 = getelementptr inbounds %"struct.std::__1::pair", ptr %ref.tmp, i64 2
  %bf.load.i.i.i.3 = load i8, ptr %arraydestroy.element.3, align 8
  %bf.clear.i.i.i.3 = and i8 %bf.load.i.i.i.3, 1
  %tobool.i.not.i.i.3 = icmp eq i8 %bf.clear.i.i.i.3, 0
  br i1 %tobool.i.not.i.i.3, label %_ZNSt3__14pairIKNS_12basic_stringIcNS_11char_traitsIcEENS_9allocatorIcEEEEN9benchmark7CounterEED2Ev.exit.3, label %if.then.i.i241.3

if.then.i.i241.3:                                 ; preds = %_ZNSt3__14pairIKNS_12basic_stringIcNS_11char_traitsIcEENS_9allocatorIcEEEEN9benchmark7CounterEED2Ev.exit.2
  %__data_.i.i.i240.3 = getelementptr inbounds %"struct.std::__1::pair", ptr %ref.tmp, i64 2, i32 0, i32 0, i32 0, i32 0, i32 0, i32 0, i32 2
  %9 = load ptr, ptr %__data_.i.i.i240.3, align 8, !tbaa !5
  call void @_ZdlPv(ptr noundef %9) #24
  br label %_ZNSt3__14pairIKNS_12basic_stringIcNS_11char_traitsIcEENS_9allocatorIcEEEEN9benchmark7CounterEED2Ev.exit.3

_ZNSt3__14pairIKNS_12basic_stringIcNS_11char_traitsIcEENS_9allocatorIcEEEEN9benchmark7CounterEED2Ev.exit.3: ; preds = %if.then.i.i241.3, %_ZNSt3__14pairIKNS_12basic_stringIcNS_11char_traitsIcEENS_9allocatorIcEEEEN9benchmark7CounterEED2Ev.exit.2
  %arraydestroy.element.4 = getelementptr inbounds %"struct.std::__1::pair", ptr %ref.tmp, i64 1
  %bf.load.i.i.i.4 = load i8, ptr %arraydestroy.element.4, align 8
  %bf.clear.i.i.i.4 = and i8 %bf.load.i.i.i.4, 1
  %tobool.i.not.i.i.4 = icmp eq i8 %bf.clear.i.i.i.4, 0
  br i1 %tobool.i.not.i.i.4, label %_ZNSt3__14pairIKNS_12basic_stringIcNS_11char_traitsIcEENS_9allocatorIcEEEEN9benchmark7CounterEED2Ev.exit.4, label %if.then.i.i241.4

if.then.i.i241.4:                                 ; preds = %_ZNSt3__14pairIKNS_12basic_stringIcNS_11char_traitsIcEENS_9allocatorIcEEEEN9benchmark7CounterEED2Ev.exit.3
  %__data_.i.i.i240.4 = getelementptr inbounds %"struct.std::__1::pair", ptr %ref.tmp, i64 1, i32 0, i32 0, i32 0, i32 0, i32 0, i32 0, i32 2
  %10 = load ptr, ptr %__data_.i.i.i240.4, align 8, !tbaa !5
  call void @_ZdlPv(ptr noundef %10) #24
  br label %_ZNSt3__14pairIKNS_12basic_stringIcNS_11char_traitsIcEENS_9allocatorIcEEEEN9benchmark7CounterEED2Ev.exit.4

_ZNSt3__14pairIKNS_12basic_stringIcNS_11char_traitsIcEENS_9allocatorIcEEEEN9benchmark7CounterEED2Ev.exit.4: ; preds = %if.then.i.i241.4, %_ZNSt3__14pairIKNS_12basic_stringIcNS_11char_traitsIcEENS_9allocatorIcEEEEN9benchmark7CounterEED2Ev.exit.3
  %bf.load.i.i.i.5 = load i8, ptr %ref.tmp, align 8
  %bf.clear.i.i.i.5 = and i8 %bf.load.i.i.i.5, 1
  %tobool.i.not.i.i.5 = icmp eq i8 %bf.clear.i.i.i.5, 0
  br i1 %tobool.i.not.i.i.5, label %_ZNSt3__14pairIKNS_12basic_stringIcNS_11char_traitsIcEENS_9allocatorIcEEEEN9benchmark7CounterEED2Ev.exit.5, label %if.then.i.i241.5

if.then.i.i241.5:                                 ; preds = %_ZNSt3__14pairIKNS_12basic_stringIcNS_11char_traitsIcEENS_9allocatorIcEEEEN9benchmark7CounterEED2Ev.exit.4
  %__data_.i.i.i240.5 = getelementptr inbounds %"struct.std::__1::pair", ptr %ref.tmp, i64 0, i32 0, i32 0, i32 0, i32 0, i32 0, i32 0, i32 2
  %11 = load ptr, ptr %__data_.i.i.i240.5, align 8, !tbaa !5
  call void @_ZdlPv(ptr noundef %11) #24
  br label %_ZNSt3__14pairIKNS_12basic_stringIcNS_11char_traitsIcEENS_9allocatorIcEEEEN9benchmark7CounterEED2Ev.exit.5

_ZNSt3__14pairIKNS_12basic_stringIcNS_11char_traitsIcEENS_9allocatorIcEEEEN9benchmark7CounterEED2Ev.exit.5: ; preds = %if.then.i.i241.5, %_ZNSt3__14pairIKNS_12basic_stringIcNS_11char_traitsIcEENS_9allocatorIcEEEEN9benchmark7CounterEED2Ev.exit.4
  %bf.load.i.i = load i8, ptr %ref.tmp41, align 8
  %bf.clear.i.i = and i8 %bf.load.i.i, 1
  %tobool.i.not.i = icmp eq i8 %bf.clear.i.i, 0
  br i1 %tobool.i.not.i, label %_ZNSt3__112basic_stringIcNS_11char_traitsIcEENS_9allocatorIcEEED2Ev.exit, label %if.then.i

if.then.i:                                        ; preds = %_ZNSt3__14pairIKNS_12basic_stringIcNS_11char_traitsIcEENS_9allocatorIcEEEEN9benchmark7CounterEED2Ev.exit.5
  %__data_.i.i = getelementptr inbounds %"struct.std::__1::basic_string<char>::__long", ptr %ref.tmp41, i64 0, i32 2
  %12 = load ptr, ptr %__data_.i.i, align 8, !tbaa !5
  call void @_ZdlPv(ptr noundef %12) #24
  br label %_ZNSt3__112basic_stringIcNS_11char_traitsIcEENS_9allocatorIcEEED2Ev.exit

_ZNSt3__112basic_stringIcNS_11char_traitsIcEENS_9allocatorIcEEED2Ev.exit: ; preds = %_ZNSt3__14pairIKNS_12basic_stringIcNS_11char_traitsIcEENS_9allocatorIcEEEEN9benchmark7CounterEED2Ev.exit.5, %if.then.i
  call void @llvm.lifetime.end.p0(i64 24, ptr nonnull %ref.tmp41) #23
  %bf.load.i.i243 = load i8, ptr %ref.tmp33, align 8
  %bf.clear.i.i244 = and i8 %bf.load.i.i243, 1
  %tobool.i.not.i245 = icmp eq i8 %bf.clear.i.i244, 0
  br i1 %tobool.i.not.i245, label %_ZNSt3__112basic_stringIcNS_11char_traitsIcEENS_9allocatorIcEEED2Ev.exit249, label %if.then.i247

if.then.i247:                                     ; preds = %_ZNSt3__112basic_stringIcNS_11char_traitsIcEENS_9allocatorIcEEED2Ev.exit
  %__data_.i.i246 = getelementptr inbounds %"struct.std::__1::basic_string<char>::__long", ptr %ref.tmp33, i64 0, i32 2
  %13 = load ptr, ptr %__data_.i.i246, align 8, !tbaa !5
  call void @_ZdlPv(ptr noundef %13) #24
  br label %_ZNSt3__112basic_stringIcNS_11char_traitsIcEENS_9allocatorIcEEED2Ev.exit249

_ZNSt3__112basic_stringIcNS_11char_traitsIcEENS_9allocatorIcEEED2Ev.exit249: ; preds = %_ZNSt3__112basic_stringIcNS_11char_traitsIcEENS_9allocatorIcEEED2Ev.exit, %if.then.i247
  call void @llvm.lifetime.end.p0(i64 24, ptr nonnull %ref.tmp33) #23
  %bf.load.i.i250 = load i8, ptr %ref.tmp25, align 8
  %bf.clear.i.i251 = and i8 %bf.load.i.i250, 1
  %tobool.i.not.i252 = icmp eq i8 %bf.clear.i.i251, 0
  br i1 %tobool.i.not.i252, label %_ZNSt3__112basic_stringIcNS_11char_traitsIcEENS_9allocatorIcEEED2Ev.exit256, label %if.then.i254

if.then.i254:                                     ; preds = %_ZNSt3__112basic_stringIcNS_11char_traitsIcEENS_9allocatorIcEEED2Ev.exit249
  %__data_.i.i253 = getelementptr inbounds %"struct.std::__1::basic_string<char>::__long", ptr %ref.tmp25, i64 0, i32 2
  %14 = load ptr, ptr %__data_.i.i253, align 8, !tbaa !5
  call void @_ZdlPv(ptr noundef %14) #24
  br label %_ZNSt3__112basic_stringIcNS_11char_traitsIcEENS_9allocatorIcEEED2Ev.exit256

_ZNSt3__112basic_stringIcNS_11char_traitsIcEENS_9allocatorIcEEED2Ev.exit256: ; preds = %_ZNSt3__112basic_stringIcNS_11char_traitsIcEENS_9allocatorIcEEED2Ev.exit249, %if.then.i254
  call void @llvm.lifetime.end.p0(i64 24, ptr nonnull %ref.tmp25) #23
  %bf.load.i.i257 = load i8, ptr %ref.tmp17, align 8
  %bf.clear.i.i258 = and i8 %bf.load.i.i257, 1
  %tobool.i.not.i259 = icmp eq i8 %bf.clear.i.i258, 0
  br i1 %tobool.i.not.i259, label %_ZNSt3__112basic_stringIcNS_11char_traitsIcEENS_9allocatorIcEEED2Ev.exit263, label %if.then.i261

if.then.i261:                                     ; preds = %_ZNSt3__112basic_stringIcNS_11char_traitsIcEENS_9allocatorIcEEED2Ev.exit256
  %__data_.i.i260 = getelementptr inbounds %"struct.std::__1::basic_string<char>::__long", ptr %ref.tmp17, i64 0, i32 2
  %15 = load ptr, ptr %__data_.i.i260, align 8, !tbaa !5
  call void @_ZdlPv(ptr noundef %15) #24
  br label %_ZNSt3__112basic_stringIcNS_11char_traitsIcEENS_9allocatorIcEEED2Ev.exit263

_ZNSt3__112basic_stringIcNS_11char_traitsIcEENS_9allocatorIcEEED2Ev.exit263: ; preds = %_ZNSt3__112basic_stringIcNS_11char_traitsIcEENS_9allocatorIcEEED2Ev.exit256, %if.then.i261
  call void @llvm.lifetime.end.p0(i64 24, ptr nonnull %ref.tmp17) #23
  %bf.load.i.i264 = load i8, ptr %ref.tmp9, align 8
  %bf.clear.i.i265 = and i8 %bf.load.i.i264, 1
  %tobool.i.not.i266 = icmp eq i8 %bf.clear.i.i265, 0
  br i1 %tobool.i.not.i266, label %_ZNSt3__112basic_stringIcNS_11char_traitsIcEENS_9allocatorIcEEED2Ev.exit270, label %if.then.i268

if.then.i268:                                     ; preds = %_ZNSt3__112basic_stringIcNS_11char_traitsIcEENS_9allocatorIcEEED2Ev.exit263
  %__data_.i.i267 = getelementptr inbounds %"struct.std::__1::basic_string<char>::__long", ptr %ref.tmp9, i64 0, i32 2
  %16 = load ptr, ptr %__data_.i.i267, align 8, !tbaa !5
  call void @_ZdlPv(ptr noundef %16) #24
  br label %_ZNSt3__112basic_stringIcNS_11char_traitsIcEENS_9allocatorIcEEED2Ev.exit270

_ZNSt3__112basic_stringIcNS_11char_traitsIcEENS_9allocatorIcEEED2Ev.exit270: ; preds = %_ZNSt3__112basic_stringIcNS_11char_traitsIcEENS_9allocatorIcEEED2Ev.exit263, %if.then.i268
  call void @llvm.lifetime.end.p0(i64 24, ptr nonnull %ref.tmp9) #23
  %bf.load.i.i271 = load i8, ptr %ref.tmp4, align 8
  %bf.clear.i.i272 = and i8 %bf.load.i.i271, 1
  %tobool.i.not.i273 = icmp eq i8 %bf.clear.i.i272, 0
  br i1 %tobool.i.not.i273, label %_ZNSt3__112basic_stringIcNS_11char_traitsIcEENS_9allocatorIcEEED2Ev.exit277, label %if.then.i275

if.then.i275:                                     ; preds = %_ZNSt3__112basic_stringIcNS_11char_traitsIcEENS_9allocatorIcEEED2Ev.exit270
  %__data_.i.i274 = getelementptr inbounds %"struct.std::__1::basic_string<char>::__long", ptr %ref.tmp4, i64 0, i32 2
  %17 = load ptr, ptr %__data_.i.i274, align 8, !tbaa !5
  call void @_ZdlPv(ptr noundef %17) #24
  br label %_ZNSt3__112basic_stringIcNS_11char_traitsIcEENS_9allocatorIcEEED2Ev.exit277

_ZNSt3__112basic_stringIcNS_11char_traitsIcEENS_9allocatorIcEEED2Ev.exit277: ; preds = %_ZNSt3__112basic_stringIcNS_11char_traitsIcEENS_9allocatorIcEEED2Ev.exit270, %if.then.i275
  call void @llvm.lifetime.end.p0(i64 24, ptr nonnull %ref.tmp4) #23
  call void @llvm.lifetime.end.p0(i64 240, ptr nonnull %ref.tmp) #23
  ret void

lpad6:                                            ; preds = %entry
  %18 = landingpad { ptr, i32 }
          cleanup
  br label %ehcleanup71

lpad13:                                           ; preds = %invoke.cont8
  %19 = landingpad { ptr, i32 }
          cleanup
  br label %ehcleanup68

lpad21:                                           ; preds = %invoke.cont15
  %20 = landingpad { ptr, i32 }
          cleanup
  br label %ehcleanup65

lpad29:                                           ; preds = %invoke.cont23
  %21 = landingpad { ptr, i32 }
          cleanup
  br label %ehcleanup62

lpad37:                                           ; preds = %invoke.cont31
  %22 = landingpad { ptr, i32 }
          cleanup
  br label %ehcleanup59

lpad45:                                           ; preds = %invoke.cont39
  %23 = landingpad { ptr, i32 }
          cleanup
  br label %ehcleanup

lpad48:                                           ; preds = %call3.i.i.i.i.noexc.4, %call3.i.i.i.i.noexc.3, %call3.i.i.i.i.noexc.2, %call3.i.i.i.i.noexc.1, %call3.i.i.i.i.noexc, %invoke.cont47
  %24 = landingpad { ptr, i32 }
          cleanup
  %arraydestroy.element54 = getelementptr inbounds %"struct.std::__1::pair", ptr %ref.tmp, i64 5
  %bf.load.i.i.i278 = load i8, ptr %arraydestroy.element54, align 8
  %bf.clear.i.i.i279 = and i8 %bf.load.i.i.i278, 1
  %tobool.i.not.i.i280 = icmp eq i8 %bf.clear.i.i.i279, 0
  br i1 %tobool.i.not.i.i280, label %_ZNSt3__14pairIKNS_12basic_stringIcNS_11char_traitsIcEENS_9allocatorIcEEEEN9benchmark7CounterEED2Ev.exit283, label %if.then.i.i282

if.then.i.i282:                                   ; preds = %lpad48
  %__data_.i.i.i281 = getelementptr inbounds %"struct.std::__1::pair", ptr %ref.tmp, i64 5, i32 0, i32 0, i32 0, i32 0, i32 0, i32 0, i32 2
  %25 = load ptr, ptr %__data_.i.i.i281, align 8, !tbaa !5
  call void @_ZdlPv(ptr noundef %25) #24
  br label %_ZNSt3__14pairIKNS_12basic_stringIcNS_11char_traitsIcEENS_9allocatorIcEEEEN9benchmark7CounterEED2Ev.exit283

_ZNSt3__14pairIKNS_12basic_stringIcNS_11char_traitsIcEENS_9allocatorIcEEEEN9benchmark7CounterEED2Ev.exit283: ; preds = %lpad48, %if.then.i.i282
  %arraydestroy.element54.1 = getelementptr inbounds %"struct.std::__1::pair", ptr %ref.tmp, i64 4
  %bf.load.i.i.i278.1 = load i8, ptr %arraydestroy.element54.1, align 8
  %bf.clear.i.i.i279.1 = and i8 %bf.load.i.i.i278.1, 1
  %tobool.i.not.i.i280.1 = icmp eq i8 %bf.clear.i.i.i279.1, 0
  br i1 %tobool.i.not.i.i280.1, label %_ZNSt3__14pairIKNS_12basic_stringIcNS_11char_traitsIcEENS_9allocatorIcEEEEN9benchmark7CounterEED2Ev.exit283.1, label %if.then.i.i282.1

if.then.i.i282.1:                                 ; preds = %_ZNSt3__14pairIKNS_12basic_stringIcNS_11char_traitsIcEENS_9allocatorIcEEEEN9benchmark7CounterEED2Ev.exit283
  %__data_.i.i.i281.1 = getelementptr inbounds %"struct.std::__1::pair", ptr %ref.tmp, i64 4, i32 0, i32 0, i32 0, i32 0, i32 0, i32 0, i32 2
  %26 = load ptr, ptr %__data_.i.i.i281.1, align 8, !tbaa !5
  call void @_ZdlPv(ptr noundef %26) #24
  br label %_ZNSt3__14pairIKNS_12basic_stringIcNS_11char_traitsIcEENS_9allocatorIcEEEEN9benchmark7CounterEED2Ev.exit283.1

_ZNSt3__14pairIKNS_12basic_stringIcNS_11char_traitsIcEENS_9allocatorIcEEEEN9benchmark7CounterEED2Ev.exit283.1: ; preds = %if.then.i.i282.1, %_ZNSt3__14pairIKNS_12basic_stringIcNS_11char_traitsIcEENS_9allocatorIcEEEEN9benchmark7CounterEED2Ev.exit283
  %arraydestroy.element54.2 = getelementptr inbounds %"struct.std::__1::pair", ptr %ref.tmp, i64 3
  %bf.load.i.i.i278.2 = load i8, ptr %arraydestroy.element54.2, align 8
  %bf.clear.i.i.i279.2 = and i8 %bf.load.i.i.i278.2, 1
  %tobool.i.not.i.i280.2 = icmp eq i8 %bf.clear.i.i.i279.2, 0
  br i1 %tobool.i.not.i.i280.2, label %_ZNSt3__14pairIKNS_12basic_stringIcNS_11char_traitsIcEENS_9allocatorIcEEEEN9benchmark7CounterEED2Ev.exit283.2, label %if.then.i.i282.2

if.then.i.i282.2:                                 ; preds = %_ZNSt3__14pairIKNS_12basic_stringIcNS_11char_traitsIcEENS_9allocatorIcEEEEN9benchmark7CounterEED2Ev.exit283.1
  %__data_.i.i.i281.2 = getelementptr inbounds %"struct.std::__1::pair", ptr %ref.tmp, i64 3, i32 0, i32 0, i32 0, i32 0, i32 0, i32 0, i32 2
  %27 = load ptr, ptr %__data_.i.i.i281.2, align 8, !tbaa !5
  call void @_ZdlPv(ptr noundef %27) #24
  br label %_ZNSt3__14pairIKNS_12basic_stringIcNS_11char_traitsIcEENS_9allocatorIcEEEEN9benchmark7CounterEED2Ev.exit283.2

_ZNSt3__14pairIKNS_12basic_stringIcNS_11char_traitsIcEENS_9allocatorIcEEEEN9benchmark7CounterEED2Ev.exit283.2: ; preds = %if.then.i.i282.2, %_ZNSt3__14pairIKNS_12basic_stringIcNS_11char_traitsIcEENS_9allocatorIcEEEEN9benchmark7CounterEED2Ev.exit283.1
  %arraydestroy.element54.3 = getelementptr inbounds %"struct.std::__1::pair", ptr %ref.tmp, i64 2
  %bf.load.i.i.i278.3 = load i8, ptr %arraydestroy.element54.3, align 8
  %bf.clear.i.i.i279.3 = and i8 %bf.load.i.i.i278.3, 1
  %tobool.i.not.i.i280.3 = icmp eq i8 %bf.clear.i.i.i279.3, 0
  br i1 %tobool.i.not.i.i280.3, label %_ZNSt3__14pairIKNS_12basic_stringIcNS_11char_traitsIcEENS_9allocatorIcEEEEN9benchmark7CounterEED2Ev.exit283.3, label %if.then.i.i282.3

if.then.i.i282.3:                                 ; preds = %_ZNSt3__14pairIKNS_12basic_stringIcNS_11char_traitsIcEENS_9allocatorIcEEEEN9benchmark7CounterEED2Ev.exit283.2
  %__data_.i.i.i281.3 = getelementptr inbounds %"struct.std::__1::pair", ptr %ref.tmp, i64 2, i32 0, i32 0, i32 0, i32 0, i32 0, i32 0, i32 2
  %28 = load ptr, ptr %__data_.i.i.i281.3, align 8, !tbaa !5
  call void @_ZdlPv(ptr noundef %28) #24
  br label %_ZNSt3__14pairIKNS_12basic_stringIcNS_11char_traitsIcEENS_9allocatorIcEEEEN9benchmark7CounterEED2Ev.exit283.3

_ZNSt3__14pairIKNS_12basic_stringIcNS_11char_traitsIcEENS_9allocatorIcEEEEN9benchmark7CounterEED2Ev.exit283.3: ; preds = %if.then.i.i282.3, %_ZNSt3__14pairIKNS_12basic_stringIcNS_11char_traitsIcEENS_9allocatorIcEEEEN9benchmark7CounterEED2Ev.exit283.2
  %arraydestroy.element54.4 = getelementptr inbounds %"struct.std::__1::pair", ptr %ref.tmp, i64 1
  %bf.load.i.i.i278.4 = load i8, ptr %arraydestroy.element54.4, align 8
  %bf.clear.i.i.i279.4 = and i8 %bf.load.i.i.i278.4, 1
  %tobool.i.not.i.i280.4 = icmp eq i8 %bf.clear.i.i.i279.4, 0
  br i1 %tobool.i.not.i.i280.4, label %_ZNSt3__14pairIKNS_12basic_stringIcNS_11char_traitsIcEENS_9allocatorIcEEEEN9benchmark7CounterEED2Ev.exit283.4, label %if.then.i.i282.4

if.then.i.i282.4:                                 ; preds = %_ZNSt3__14pairIKNS_12basic_stringIcNS_11char_traitsIcEENS_9allocatorIcEEEEN9benchmark7CounterEED2Ev.exit283.3
  %__data_.i.i.i281.4 = getelementptr inbounds %"struct.std::__1::pair", ptr %ref.tmp, i64 1, i32 0, i32 0, i32 0, i32 0, i32 0, i32 0, i32 2
  %29 = load ptr, ptr %__data_.i.i.i281.4, align 8, !tbaa !5
  call void @_ZdlPv(ptr noundef %29) #24
  br label %_ZNSt3__14pairIKNS_12basic_stringIcNS_11char_traitsIcEENS_9allocatorIcEEEEN9benchmark7CounterEED2Ev.exit283.4

_ZNSt3__14pairIKNS_12basic_stringIcNS_11char_traitsIcEENS_9allocatorIcEEEEN9benchmark7CounterEED2Ev.exit283.4: ; preds = %if.then.i.i282.4, %_ZNSt3__14pairIKNS_12basic_stringIcNS_11char_traitsIcEENS_9allocatorIcEEEEN9benchmark7CounterEED2Ev.exit283.3
  %bf.load.i.i.i278.5 = load i8, ptr %ref.tmp, align 8
  %bf.clear.i.i.i279.5 = and i8 %bf.load.i.i.i278.5, 1
  %tobool.i.not.i.i280.5 = icmp eq i8 %bf.clear.i.i.i279.5, 0
  br i1 %tobool.i.not.i.i280.5, label %ehcleanup, label %if.then.i.i282.5

if.then.i.i282.5:                                 ; preds = %_ZNSt3__14pairIKNS_12basic_stringIcNS_11char_traitsIcEENS_9allocatorIcEEEEN9benchmark7CounterEED2Ev.exit283.4
  %__data_.i.i.i281.5 = getelementptr inbounds %"struct.std::__1::pair", ptr %ref.tmp, i64 0, i32 0, i32 0, i32 0, i32 0, i32 0, i32 0, i32 2
  %30 = load ptr, ptr %__data_.i.i.i281.5, align 8, !tbaa !5
  call void @_ZdlPv(ptr noundef %30) #24
  br label %ehcleanup

ehcleanup:                                        ; preds = %_ZNSt3__14pairIKNS_12basic_stringIcNS_11char_traitsIcEENS_9allocatorIcEEEEN9benchmark7CounterEED2Ev.exit283.4, %if.then.i.i282.5, %lpad45
  %.pn = phi { ptr, i32 } [ %23, %lpad45 ], [ %24, %if.then.i.i282.5 ], [ %24, %_ZNSt3__14pairIKNS_12basic_stringIcNS_11char_traitsIcEENS_9allocatorIcEEEEN9benchmark7CounterEED2Ev.exit283.4 ]
  %cleanup.isactive.0 = phi i1 [ true, %lpad45 ], [ false, %if.then.i.i282.5 ], [ false, %_ZNSt3__14pairIKNS_12basic_stringIcNS_11char_traitsIcEENS_9allocatorIcEEEEN9benchmark7CounterEED2Ev.exit283.4 ]
  %bf.load.i.i284 = load i8, ptr %ref.tmp41, align 8
  %bf.clear.i.i285 = and i8 %bf.load.i.i284, 1
  %tobool.i.not.i286 = icmp eq i8 %bf.clear.i.i285, 0
  br i1 %tobool.i.not.i286, label %ehcleanup58, label %if.then.i288

if.then.i288:                                     ; preds = %ehcleanup
  %__data_.i.i287 = getelementptr inbounds %"struct.std::__1::basic_string<char>::__long", ptr %ref.tmp41, i64 0, i32 2
  %31 = load ptr, ptr %__data_.i.i287, align 8, !tbaa !5
  call void @_ZdlPv(ptr noundef %31) #24
  br label %ehcleanup58

ehcleanup58:                                      ; preds = %if.then.i288, %ehcleanup
  call void @llvm.lifetime.end.p0(i64 24, ptr nonnull %ref.tmp41) #23
  br label %ehcleanup59

ehcleanup59:                                      ; preds = %ehcleanup58, %lpad37
  %arrayinit.endOfInit.0 = phi ptr [ %arrayinit.element40, %ehcleanup58 ], [ %arrayinit.element32, %lpad37 ]
  %.pn.pn.pn = phi { ptr, i32 } [ %.pn, %ehcleanup58 ], [ %22, %lpad37 ]
  %cleanup.isactive.2 = phi i1 [ %cleanup.isactive.0, %ehcleanup58 ], [ true, %lpad37 ]
  %bf.load.i.i291 = load i8, ptr %ref.tmp33, align 8
  %bf.clear.i.i292 = and i8 %bf.load.i.i291, 1
  %tobool.i.not.i293 = icmp eq i8 %bf.clear.i.i292, 0
  br i1 %tobool.i.not.i293, label %ehcleanup61, label %if.then.i295

if.then.i295:                                     ; preds = %ehcleanup59
  %__data_.i.i294 = getelementptr inbounds %"struct.std::__1::basic_string<char>::__long", ptr %ref.tmp33, i64 0, i32 2
  %32 = load ptr, ptr %__data_.i.i294, align 8, !tbaa !5
  call void @_ZdlPv(ptr noundef %32) #24
  br label %ehcleanup61

ehcleanup61:                                      ; preds = %if.then.i295, %ehcleanup59
  call void @llvm.lifetime.end.p0(i64 24, ptr nonnull %ref.tmp33) #23
  br label %ehcleanup62

ehcleanup62:                                      ; preds = %ehcleanup61, %lpad29
  %arrayinit.endOfInit.2 = phi ptr [ %arrayinit.endOfInit.0, %ehcleanup61 ], [ %arrayinit.element24, %lpad29 ]
  %.pn.pn.pn.pn.pn = phi { ptr, i32 } [ %.pn.pn.pn, %ehcleanup61 ], [ %21, %lpad29 ]
  %cleanup.isactive.4 = phi i1 [ %cleanup.isactive.2, %ehcleanup61 ], [ true, %lpad29 ]
  %bf.load.i.i298 = load i8, ptr %ref.tmp25, align 8
  %bf.clear.i.i299 = and i8 %bf.load.i.i298, 1
  %tobool.i.not.i300 = icmp eq i8 %bf.clear.i.i299, 0
  br i1 %tobool.i.not.i300, label %ehcleanup64, label %if.then.i302

if.then.i302:                                     ; preds = %ehcleanup62
  %__data_.i.i301 = getelementptr inbounds %"struct.std::__1::basic_string<char>::__long", ptr %ref.tmp25, i64 0, i32 2
  %33 = load ptr, ptr %__data_.i.i301, align 8, !tbaa !5
  call void @_ZdlPv(ptr noundef %33) #24
  br label %ehcleanup64

ehcleanup64:                                      ; preds = %if.then.i302, %ehcleanup62
  call void @llvm.lifetime.end.p0(i64 24, ptr nonnull %ref.tmp25) #23
  br label %ehcleanup65

ehcleanup65:                                      ; preds = %ehcleanup64, %lpad21
  %arrayinit.endOfInit.4 = phi ptr [ %arrayinit.endOfInit.2, %ehcleanup64 ], [ %arrayinit.element16, %lpad21 ]
  %.pn.pn.pn.pn.pn.pn.pn = phi { ptr, i32 } [ %.pn.pn.pn.pn.pn, %ehcleanup64 ], [ %20, %lpad21 ]
  %cleanup.isactive.6 = phi i1 [ %cleanup.isactive.4, %ehcleanup64 ], [ true, %lpad21 ]
  %bf.load.i.i305 = load i8, ptr %ref.tmp17, align 8
  %bf.clear.i.i306 = and i8 %bf.load.i.i305, 1
  %tobool.i.not.i307 = icmp eq i8 %bf.clear.i.i306, 0
  br i1 %tobool.i.not.i307, label %ehcleanup67, label %if.then.i309

if.then.i309:                                     ; preds = %ehcleanup65
  %__data_.i.i308 = getelementptr inbounds %"struct.std::__1::basic_string<char>::__long", ptr %ref.tmp17, i64 0, i32 2
  %34 = load ptr, ptr %__data_.i.i308, align 8, !tbaa !5
  call void @_ZdlPv(ptr noundef %34) #24
  br label %ehcleanup67

ehcleanup67:                                      ; preds = %if.then.i309, %ehcleanup65
  call void @llvm.lifetime.end.p0(i64 24, ptr nonnull %ref.tmp17) #23
  br label %ehcleanup68

ehcleanup68:                                      ; preds = %ehcleanup67, %lpad13
  %arrayinit.endOfInit.6 = phi ptr [ %arrayinit.endOfInit.4, %ehcleanup67 ], [ %arrayinit.element, %lpad13 ]
  %.pn.pn.pn.pn.pn.pn.pn.pn.pn = phi { ptr, i32 } [ %.pn.pn.pn.pn.pn.pn.pn, %ehcleanup67 ], [ %19, %lpad13 ]
  %cleanup.isactive.8 = phi i1 [ %cleanup.isactive.6, %ehcleanup67 ], [ true, %lpad13 ]
  %bf.load.i.i312 = load i8, ptr %ref.tmp9, align 8
  %bf.clear.i.i313 = and i8 %bf.load.i.i312, 1
  %tobool.i.not.i314 = icmp eq i8 %bf.clear.i.i313, 0
  br i1 %tobool.i.not.i314, label %ehcleanup70, label %if.then.i316

if.then.i316:                                     ; preds = %ehcleanup68
  %__data_.i.i315 = getelementptr inbounds %"struct.std::__1::basic_string<char>::__long", ptr %ref.tmp9, i64 0, i32 2
  %35 = load ptr, ptr %__data_.i.i315, align 8, !tbaa !5
  call void @_ZdlPv(ptr noundef %35) #24
  br label %ehcleanup70

ehcleanup70:                                      ; preds = %if.then.i316, %ehcleanup68
  call void @llvm.lifetime.end.p0(i64 24, ptr nonnull %ref.tmp9) #23
  br label %ehcleanup71

ehcleanup71:                                      ; preds = %ehcleanup70, %lpad6
  %arrayinit.endOfInit.8 = phi ptr [ %arrayinit.endOfInit.6, %ehcleanup70 ], [ %ref.tmp, %lpad6 ]
  %.pn.pn.pn.pn.pn.pn.pn.pn.pn.pn.pn = phi { ptr, i32 } [ %.pn.pn.pn.pn.pn.pn.pn.pn.pn, %ehcleanup70 ], [ %18, %lpad6 ]
  %cleanup.isactive.10 = phi i1 [ %cleanup.isactive.8, %ehcleanup70 ], [ true, %lpad6 ]
  %bf.load.i.i319 = load i8, ptr %ref.tmp4, align 8
  %bf.clear.i.i320 = and i8 %bf.load.i.i319, 1
  %tobool.i.not.i321 = icmp eq i8 %bf.clear.i.i320, 0
  br i1 %tobool.i.not.i321, label %ehcleanup73, label %if.then.i323

if.then.i323:                                     ; preds = %ehcleanup71
  %__data_.i.i322 = getelementptr inbounds %"struct.std::__1::basic_string<char>::__long", ptr %ref.tmp4, i64 0, i32 2
  %36 = load ptr, ptr %__data_.i.i322, align 8, !tbaa !5
  call void @_ZdlPv(ptr noundef %36) #24
  br label %ehcleanup73

ehcleanup73:                                      ; preds = %if.then.i323, %ehcleanup71
  call void @llvm.lifetime.end.p0(i64 24, ptr nonnull %ref.tmp4) #23
  %arraydestroy.isempty = icmp ne ptr %ref.tmp, %arrayinit.endOfInit.8
  %or.cond.not = and i1 %cleanup.isactive.10, %arraydestroy.isempty
  br i1 %or.cond.not, label %arraydestroy.body75, label %cleanup.done

arraydestroy.body75:                              ; preds = %ehcleanup73, %_ZNSt3__14pairIKNS_12basic_stringIcNS_11char_traitsIcEENS_9allocatorIcEEEEN9benchmark7CounterEED2Ev.exit331
  %arraydestroy.elementPast76 = phi ptr [ %arraydestroy.element77, %_ZNSt3__14pairIKNS_12basic_stringIcNS_11char_traitsIcEENS_9allocatorIcEEEEN9benchmark7CounterEED2Ev.exit331 ], [ %arrayinit.endOfInit.8, %ehcleanup73 ]
  %arraydestroy.element77 = getelementptr inbounds %"struct.std::__1::pair", ptr %arraydestroy.elementPast76, i64 -1
  %bf.load.i.i.i326 = load i8, ptr %arraydestroy.element77, align 8
  %bf.clear.i.i.i327 = and i8 %bf.load.i.i.i326, 1
  %tobool.i.not.i.i328 = icmp eq i8 %bf.clear.i.i.i327, 0
  br i1 %tobool.i.not.i.i328, label %_ZNSt3__14pairIKNS_12basic_stringIcNS_11char_traitsIcEENS_9allocatorIcEEEEN9benchmark7CounterEED2Ev.exit331, label %if.then.i.i330

if.then.i.i330:                                   ; preds = %arraydestroy.body75
  %__data_.i.i.i329 = getelementptr %"struct.std::__1::pair", ptr %arraydestroy.elementPast76, i64 -1, i32 0, i32 0, i32 0, i32 0, i32 0, i32 0, i32 2
  %37 = load ptr, ptr %__data_.i.i.i329, align 8, !tbaa !5
  call void @_ZdlPv(ptr noundef %37) #24
  br label %_ZNSt3__14pairIKNS_12basic_stringIcNS_11char_traitsIcEENS_9allocatorIcEEEEN9benchmark7CounterEED2Ev.exit331

_ZNSt3__14pairIKNS_12basic_stringIcNS_11char_traitsIcEENS_9allocatorIcEEEEN9benchmark7CounterEED2Ev.exit331: ; preds = %arraydestroy.body75, %if.then.i.i330
  %arraydestroy.done78 = icmp eq ptr %arraydestroy.element77, %ref.tmp
  br i1 %arraydestroy.done78, label %cleanup.done, label %arraydestroy.body75

cleanup.done:                                     ; preds = %_ZNSt3__14pairIKNS_12basic_stringIcNS_11char_traitsIcEENS_9allocatorIcEEEEN9benchmark7CounterEED2Ev.exit331, %ehcleanup73
  call void @llvm.lifetime.end.p0(i64 240, ptr nonnull %ref.tmp) #23
  resume { ptr, i32 } %.pn.pn.pn.pn.pn.pn.pn.pn.pn.pn.pn
}

declare noundef ptr @_ZN9benchmark8internal25RegisterBenchmarkInternalEPNS0_9BenchmarkE(ptr noundef) local_unnamed_addr #0

; Function Attrs: nobuiltin allocsize(0)
declare noundef nonnull ptr @_Znwm(i64 noundef) local_unnamed_addr #3

; Function Attrs: nobuiltin nounwind
declare void @_ZdlPv(ptr noundef) local_unnamed_addr #4

declare noundef ptr @_ZN9benchmark8internal9Benchmark11ThreadRangeEii(ptr noundef nonnull align 8 dereferenceable(208), i32 noundef, i32 noundef) local_unnamed_addr #0

declare noundef ptr @_ZN9benchmark8internal9Benchmark11RepetitionsEi(ptr noundef nonnull align 8 dereferenceable(208), i32 noundef) local_unnamed_addr #0

; Function Attrs: uwtable
define hidden void @_Z12CheckTabularRK7Results(ptr noundef nonnull align 8 dereferenceable(48) %e) #2 personality ptr @__gxx_personality_v0 {
entry:
  %ref.tmp = alloca %"class.benchmark::internal::CheckHandler", align 8
  %ref.tmp73 = alloca %"class.benchmark::internal::CheckHandler", align 8
  %ref.tmp156 = alloca %"class.benchmark::internal::CheckHandler", align 8
  %ref.tmp239 = alloca %"class.benchmark::internal::CheckHandler", align 8
  %ref.tmp322 = alloca %"class.benchmark::internal::CheckHandler", align 8
  %ref.tmp405 = alloca %"class.benchmark::internal::CheckHandler", align 8
  %call.i = tail call noundef double @_ZNK7Results5GetAsIdEET_PKc(ptr noundef nonnull align 8 dereferenceable(48) %e, ptr noundef nonnull @.str.21)
  %conv.i = fptosi double %call.i to i32
  %cmp.not = icmp eq i32 %conv.i, 1
  br i1 %cmp.not, label %cond.true, label %cond.false

cond.true:                                        ; preds = %entry
  %0 = load atomic i8, ptr @_ZGVZN9benchmark8internal18GetNullLogInstanceEvE3log acquire, align 8
  %guard.uninitialized.i = icmp eq i8 %0, 0
  br i1 %guard.uninitialized.i, label %init.check.i, label %cond.end, !prof !17

init.check.i:                                     ; preds = %cond.true
  %1 = tail call i32 @__cxa_guard_acquire(ptr nonnull @_ZGVZN9benchmark8internal18GetNullLogInstanceEvE3log) #23
  %tobool.not.i = icmp eq i32 %1, 0
  br i1 %tobool.not.i, label %cond.end, label %init.i

init.i:                                           ; preds = %init.check.i
  store ptr null, ptr @_ZZN9benchmark8internal18GetNullLogInstanceEvE3log, align 8, !tbaa !18
  tail call void @__cxa_guard_release(ptr nonnull @_ZGVZN9benchmark8internal18GetNullLogInstanceEvE3log) #23
  br label %cond.end

cond.false:                                       ; preds = %entry
  call void @llvm.lifetime.start.p0(i64 8, ptr nonnull %ref.tmp) #23
  call void @_ZN9benchmark8internal12CheckHandlerC2EPKcS3_S3_i(ptr noundef nonnull align 8 dereferenceable(8) %ref.tmp, ptr noundef nonnull @.str.100, ptr noundef nonnull @.str.101, ptr noundef nonnull @__func__._Z12CheckTabularRK7Results, i32 noundef 356)
  %2 = load ptr, ptr %ref.tmp, align 8, !tbaa !21
  br label %cond.end

cond.end:                                         ; preds = %init.i, %init.check.i, %cond.true, %cond.false
  %cond-lvalue = phi ptr [ %2, %cond.false ], [ @_ZZN9benchmark8internal18GetNullLogInstanceEvE3log, %cond.true ], [ @_ZZN9benchmark8internal18GetNullLogInstanceEvE3log, %init.check.i ], [ @_ZZN9benchmark8internal18GetNullLogInstanceEvE3log, %init.i ]
  %3 = load ptr, ptr %cond-lvalue, align 8, !tbaa !18
  %tobool.not.i531 = icmp eq ptr %3, null
  br i1 %tobool.not.i531, label %invoke.cont38, label %if.then.i

if.then.i:                                        ; preds = %cond.end
  %call1.i.i532 = invoke noundef nonnull align 8 dereferenceable(8) ptr @_ZNSt3__124__put_character_sequenceB7v170000IcNS_11char_traitsIcEEEERNS_13basic_ostreamIT_T0_EES7_PKS4_m(ptr noundef nonnull align 8 dereferenceable(8) %3, ptr noundef nonnull @.str.102, i64 noundef 1)
          to label %invoke.cont4 unwind label %lpad

invoke.cont4:                                     ; preds = %if.then.i
  %.pr = load ptr, ptr %cond-lvalue, align 8, !tbaa !18
  %tobool.not.i533 = icmp eq ptr %.pr, null
  br i1 %tobool.not.i533, label %invoke.cont38, label %if.then.i535

if.then.i535:                                     ; preds = %invoke.cont4
  %call1.i.i537 = invoke noundef nonnull align 8 dereferenceable(8) ptr @_ZNSt3__124__put_character_sequenceB7v170000IcNS_11char_traitsIcEEEERNS_13basic_ostreamIT_T0_EES7_PKS4_m(ptr noundef nonnull align 8 dereferenceable(8) %.pr, ptr noundef nonnull @.str.101, i64 noundef 117)
          to label %invoke.cont6 unwind label %lpad

invoke.cont6:                                     ; preds = %if.then.i535
  %.pr1317 = load ptr, ptr %cond-lvalue, align 8, !tbaa !18
  %tobool.not.i538 = icmp eq ptr %.pr1317, null
  br i1 %tobool.not.i538, label %invoke.cont38, label %if.then.i540

if.then.i540:                                     ; preds = %invoke.cont6
  %call1.i.i542 = invoke noundef nonnull align 8 dereferenceable(8) ptr @_ZNSt3__124__put_character_sequenceB7v170000IcNS_11char_traitsIcEEEERNS_13basic_ostreamIT_T0_EES7_PKS4_m(ptr noundef nonnull align 8 dereferenceable(8) %.pr1317, ptr noundef nonnull @.str.103, i64 noundef 1)
          to label %invoke.cont8 unwind label %lpad

invoke.cont8:                                     ; preds = %if.then.i540
  %.pr1319.pr = load ptr, ptr %cond-lvalue, align 8, !tbaa !18
  %tobool.not.i544 = icmp eq ptr %.pr1319.pr, null
  br i1 %tobool.not.i544, label %invoke.cont38, label %if.then.i546

if.then.i546:                                     ; preds = %invoke.cont8
  %call.i545547 = invoke noundef nonnull align 8 dereferenceable(8) ptr @_ZNSt3__113basic_ostreamIcNS_11char_traitsIcEEElsEi(ptr noundef nonnull align 8 dereferenceable(8) %.pr1319.pr, i32 noundef 356)
          to label %invoke.cont12 unwind label %lpad11

invoke.cont12:                                    ; preds = %if.then.i546
  %.pr1321 = load ptr, ptr %cond-lvalue, align 8, !tbaa !18
  %tobool.not.i548 = icmp eq ptr %.pr1321, null
  br i1 %tobool.not.i548, label %invoke.cont38, label %if.then.i550

if.then.i550:                                     ; preds = %invoke.cont12
  %call1.i.i552 = invoke noundef nonnull align 8 dereferenceable(8) ptr @_ZNSt3__124__put_character_sequenceB7v170000IcNS_11char_traitsIcEEEERNS_13basic_ostreamIT_T0_EES7_PKS4_m(ptr noundef nonnull align 8 dereferenceable(8) %.pr1321, ptr noundef nonnull @.str.104, i64 noundef 2)
          to label %invoke.cont14 unwind label %lpad11

invoke.cont14:                                    ; preds = %if.then.i550
  %.pr1323.pr.pr = load ptr, ptr %cond-lvalue, align 8, !tbaa !18
  %tobool.not.i553 = icmp eq ptr %.pr1323.pr.pr, null
  br i1 %tobool.not.i553, label %invoke.cont38, label %if.then.i554

if.then.i554:                                     ; preds = %invoke.cont14
  %bf.load.i.i.i.i.i = load i8, ptr %e, align 8
  %bf.clear.i.i.i.i.i = and i8 %bf.load.i.i.i.i.i, 1
  %tobool.i.not.i.i.i.i = icmp eq i8 %bf.clear.i.i.i.i.i, 0
  %__data_.i.i.i.i.i = getelementptr inbounds %"struct.std::__1::basic_string<char>::__long", ptr %e, i64 0, i32 2
  %4 = load ptr, ptr %__data_.i.i.i.i.i, align 8
  %__data_.i4.i.i.i.i = getelementptr inbounds %"struct.std::__1::basic_string<char>::__short", ptr %e, i64 0, i32 2
  %cond.i.i.i.i = select i1 %tobool.i.not.i.i.i.i, ptr %__data_.i4.i.i.i.i, ptr %4
  %__size_.i.i.i.i = getelementptr inbounds %"struct.std::__1::basic_string<char>::__long", ptr %e, i64 0, i32 1
  %5 = load i64, ptr %__size_.i.i.i.i, align 8
  %bf.lshr.i.i.i.i = lshr i8 %bf.load.i.i.i.i.i, 1
  %conv.i.i.i.i = zext i8 %bf.lshr.i.i.i.i to i64
  %cond.i.i.i = select i1 %tobool.i.not.i.i.i.i, i64 %conv.i.i.i.i, i64 %5
  %call2.i.i555 = invoke noundef nonnull align 8 dereferenceable(8) ptr @_ZNSt3__124__put_character_sequenceB7v170000IcNS_11char_traitsIcEEEERNS_13basic_ostreamIT_T0_EES7_PKS4_m(ptr noundef nonnull align 8 dereferenceable(8) %.pr1323.pr.pr, ptr noundef %cond.i.i.i.i, i64 noundef %cond.i.i.i)
          to label %invoke.cont16 unwind label %lpad11

invoke.cont16:                                    ; preds = %if.then.i554
  %.pr1325 = load ptr, ptr %cond-lvalue, align 8, !tbaa !18
  %tobool.not.i556 = icmp eq ptr %.pr1325, null
  br i1 %tobool.not.i556, label %invoke.cont38, label %if.then.i558

if.then.i558:                                     ; preds = %invoke.cont16
  %call1.i.i560 = invoke noundef nonnull align 8 dereferenceable(8) ptr @_ZNSt3__124__put_character_sequenceB7v170000IcNS_11char_traitsIcEEEERNS_13basic_ostreamIT_T0_EES7_PKS4_m(ptr noundef nonnull align 8 dereferenceable(8) %.pr1325, ptr noundef nonnull @.str.105, i64 noundef 2)
          to label %invoke.cont18 unwind label %lpad11

invoke.cont18:                                    ; preds = %if.then.i558
  %.pr1327.pr.pr = load ptr, ptr %cond-lvalue, align 8, !tbaa !18
  %tobool.not.i562 = icmp eq ptr %.pr1327.pr.pr, null
  br i1 %tobool.not.i562, label %invoke.cont38, label %if.then.i564

if.then.i564:                                     ; preds = %invoke.cont18
  %call1.i.i566 = invoke noundef nonnull align 8 dereferenceable(8) ptr @_ZNSt3__124__put_character_sequenceB7v170000IcNS_11char_traitsIcEEEERNS_13basic_ostreamIT_T0_EES7_PKS4_m(ptr noundef nonnull align 8 dereferenceable(8) %.pr1327.pr.pr, ptr noundef nonnull @.str.101, i64 noundef 117)
          to label %invoke.cont20 unwind label %lpad11

invoke.cont20:                                    ; preds = %if.then.i564
  %.pr1329 = load ptr, ptr %cond-lvalue, align 8, !tbaa !18
  %tobool.not.i568 = icmp eq ptr %.pr1329, null
  br i1 %tobool.not.i568, label %invoke.cont38, label %if.then.i570

if.then.i570:                                     ; preds = %invoke.cont20
  %call1.i.i572 = invoke noundef nonnull align 8 dereferenceable(8) ptr @_ZNSt3__124__put_character_sequenceB7v170000IcNS_11char_traitsIcEEEERNS_13basic_ostreamIT_T0_EES7_PKS4_m(ptr noundef nonnull align 8 dereferenceable(8) %.pr1329, ptr noundef nonnull @.str.103, i64 noundef 1)
          to label %invoke.cont22 unwind label %lpad11

invoke.cont22:                                    ; preds = %if.then.i570
  %.pr1331.pr.pr.pr = load ptr, ptr %cond-lvalue, align 8, !tbaa !18
  %tobool.not.i574 = icmp eq ptr %.pr1331.pr.pr.pr, null
  br i1 %tobool.not.i574, label %invoke.cont38, label %if.then.i576

if.then.i576:                                     ; preds = %invoke.cont22
  %call.i575577 = invoke noundef nonnull align 8 dereferenceable(8) ptr @_ZNSt3__113basic_ostreamIcNS_11char_traitsIcEEElsEi(ptr noundef nonnull align 8 dereferenceable(8) %.pr1331.pr.pr.pr, i32 noundef 356)
          to label %invoke.cont26 unwind label %lpad25

invoke.cont26:                                    ; preds = %if.then.i576
  %.pr1333 = load ptr, ptr %cond-lvalue, align 8, !tbaa !18
  %tobool.not.i579 = icmp eq ptr %.pr1333, null
  br i1 %tobool.not.i579, label %invoke.cont38, label %if.then.i581

if.then.i581:                                     ; preds = %invoke.cont26
  %call1.i.i583 = invoke noundef nonnull align 8 dereferenceable(8) ptr @_ZNSt3__124__put_character_sequenceB7v170000IcNS_11char_traitsIcEEEERNS_13basic_ostreamIT_T0_EES7_PKS4_m(ptr noundef nonnull align 8 dereferenceable(8) %.pr1333, ptr noundef nonnull @.str.104, i64 noundef 2)
          to label %invoke.cont28 unwind label %lpad25

invoke.cont28:                                    ; preds = %if.then.i581
  %.pr1335.pr.pr.pr = load ptr, ptr %cond-lvalue, align 8, !tbaa !18
  %tobool.not.i585 = icmp eq ptr %.pr1335.pr.pr.pr, null
  br i1 %tobool.not.i585, label %invoke.cont38, label %if.then.i587

if.then.i587:                                     ; preds = %invoke.cont28
  %call1.i.i589 = invoke noundef nonnull align 8 dereferenceable(8) ptr @_ZNSt3__124__put_character_sequenceB7v170000IcNS_11char_traitsIcEEEERNS_13basic_ostreamIT_T0_EES7_PKS4_m(ptr noundef nonnull align 8 dereferenceable(8) %.pr1335.pr.pr.pr, ptr noundef nonnull @.str.106, i64 noundef 10)
          to label %invoke.cont30 unwind label %lpad25

invoke.cont30:                                    ; preds = %if.then.i587
  %.pr1337 = load ptr, ptr %cond-lvalue, align 8, !tbaa !18
  %tobool.not.i590 = icmp eq ptr %.pr1337, null
  br i1 %tobool.not.i590, label %invoke.cont38, label %if.then.i592

if.then.i592:                                     ; preds = %invoke.cont30
  %call1.i.i594 = invoke noundef nonnull align 8 dereferenceable(8) ptr @_ZNSt3__124__put_character_sequenceB7v170000IcNS_11char_traitsIcEEEERNS_13basic_ostreamIT_T0_EES7_PKS4_m(ptr noundef nonnull align 8 dereferenceable(8) %.pr1337, ptr noundef nonnull @.str.107, i64 noundef 3)
          to label %invoke.cont32 unwind label %lpad25

invoke.cont32:                                    ; preds = %if.then.i592
  %.pr1339.pr.pr.pr = load ptr, ptr %cond-lvalue, align 8, !tbaa !18
  %tobool.not.i595 = icmp eq ptr %.pr1339.pr.pr.pr, null
  br i1 %tobool.not.i595, label %invoke.cont38, label %if.then.i597

if.then.i597:                                     ; preds = %invoke.cont32
  %call1.i.i599 = invoke noundef nonnull align 8 dereferenceable(8) ptr @_ZNSt3__124__put_character_sequenceB7v170000IcNS_11char_traitsIcEEEERNS_13basic_ostreamIT_T0_EES7_PKS4_m(ptr noundef nonnull align 8 dereferenceable(8) %.pr1339.pr.pr.pr, ptr noundef nonnull @.str.108, i64 noundef 1)
          to label %invoke.cont34 unwind label %lpad25

invoke.cont34:                                    ; preds = %if.then.i597
  %.pr1341 = load ptr, ptr %cond-lvalue, align 8, !tbaa !18
  %tobool.not.i601 = icmp eq ptr %.pr1341, null
  br i1 %tobool.not.i601, label %invoke.cont38, label %if.then.i603

if.then.i603:                                     ; preds = %invoke.cont34
  %call1.i.i605 = invoke noundef nonnull align 8 dereferenceable(8) ptr @_ZNSt3__124__put_character_sequenceB7v170000IcNS_11char_traitsIcEEEERNS_13basic_ostreamIT_T0_EES7_PKS4_m(ptr noundef nonnull align 8 dereferenceable(8) %.pr1341, ptr noundef nonnull @.str.21, i64 noundef 3)
          to label %invoke.cont36 unwind label %lpad25

invoke.cont36:                                    ; preds = %if.then.i603
  %.pr1343.pr.pr.pr = load ptr, ptr %cond-lvalue, align 8, !tbaa !18
  %tobool.not.i607 = icmp eq ptr %.pr1343.pr.pr.pr, null
  br i1 %tobool.not.i607, label %invoke.cont38, label %if.then.i609

if.then.i609:                                     ; preds = %invoke.cont36
  %call1.i.i611 = invoke noundef nonnull align 8 dereferenceable(8) ptr @_ZNSt3__124__put_character_sequenceB7v170000IcNS_11char_traitsIcEEEERNS_13basic_ostreamIT_T0_EES7_PKS4_m(ptr noundef nonnull align 8 dereferenceable(8) %.pr1343.pr.pr.pr, ptr noundef nonnull @.str.109, i64 noundef 1)
          to label %invoke.cont38 unwind label %lpad25

invoke.cont38:                                    ; preds = %invoke.cont18, %invoke.cont16, %invoke.cont14, %invoke.cont12, %invoke.cont8, %invoke.cont6, %invoke.cont4, %cond.end, %invoke.cont26, %invoke.cont28, %invoke.cont20, %invoke.cont22, %invoke.cont32, %invoke.cont30, %invoke.cont34, %invoke.cont36, %if.then.i609
  %call.i613615 = invoke noundef double @_ZNK7Results5GetAsIdEET_PKc(ptr noundef nonnull align 8 dereferenceable(48) %e, ptr noundef nonnull @.str.21)
          to label %invoke.cont42 unwind label %lpad41

invoke.cont42:                                    ; preds = %invoke.cont38
  %6 = load ptr, ptr %cond-lvalue, align 8, !tbaa !18
  %tobool.not.i616 = icmp eq ptr %6, null
  br i1 %tobool.not.i616, label %invoke.cont52, label %if.then.i618

if.then.i618:                                     ; preds = %invoke.cont42
  %conv.i614 = fptosi double %call.i613615 to i32
  %call.i617619 = invoke noundef nonnull align 8 dereferenceable(8) ptr @_ZNSt3__113basic_ostreamIcNS_11char_traitsIcEEElsEi(ptr noundef nonnull align 8 dereferenceable(8) %6, i32 noundef %conv.i614)
          to label %invoke.cont44 unwind label %lpad41

invoke.cont44:                                    ; preds = %if.then.i618
  %.pr1345 = load ptr, ptr %cond-lvalue, align 8, !tbaa !18
  %tobool.not.i621 = icmp eq ptr %.pr1345, null
  br i1 %tobool.not.i621, label %invoke.cont52, label %if.then.i623

if.then.i623:                                     ; preds = %invoke.cont44
  %call1.i.i625 = invoke noundef nonnull align 8 dereferenceable(8) ptr @_ZNSt3__124__put_character_sequenceB7v170000IcNS_11char_traitsIcEEEERNS_13basic_ostreamIT_T0_EES7_PKS4_m(ptr noundef nonnull align 8 dereferenceable(8) %.pr1345, ptr noundef nonnull @.str.110, i64 noundef 13)
          to label %invoke.cont46 unwind label %lpad41

invoke.cont46:                                    ; preds = %if.then.i623
  %.pr1347 = load ptr, ptr %cond-lvalue, align 8, !tbaa !18
  %tobool.not.i626 = icmp eq ptr %.pr1347, null
  br i1 %tobool.not.i626, label %invoke.cont52, label %if.then.i628

if.then.i628:                                     ; preds = %invoke.cont46
  %call.i627629 = invoke noundef nonnull align 8 dereferenceable(8) ptr @_ZNSt3__113basic_ostreamIcNS_11char_traitsIcEEElsEi(ptr noundef nonnull align 8 dereferenceable(8) %.pr1347, i32 noundef 1)
          to label %invoke.cont50 unwind label %lpad49

invoke.cont50:                                    ; preds = %if.then.i628
  %.pr1349.pr = load ptr, ptr %cond-lvalue, align 8, !tbaa !18
  %tobool.not.i631 = icmp eq ptr %.pr1349.pr, null
  br i1 %tobool.not.i631, label %invoke.cont52, label %if.then.i633

if.then.i633:                                     ; preds = %invoke.cont50
  %call1.i.i635 = invoke noundef nonnull align 8 dereferenceable(8) ptr @_ZNSt3__124__put_character_sequenceB7v170000IcNS_11char_traitsIcEEEERNS_13basic_ostreamIT_T0_EES7_PKS4_m(ptr noundef nonnull align 8 dereferenceable(8) %.pr1349.pr, ptr noundef nonnull @.str.102, i64 noundef 1)
          to label %invoke.cont52 unwind label %lpad49

invoke.cont52:                                    ; preds = %invoke.cont44, %invoke.cont42, %invoke.cont46, %invoke.cont50, %if.then.i633
  br i1 %cmp.not, label %cleanup.done63, label %cleanup.action

cleanup.action:                                   ; preds = %invoke.cont52
  call void @_ZN9benchmark8internal12CheckHandlerD2Ev(ptr noundef nonnull align 8 dereferenceable(8) %ref.tmp) #25
  unreachable

lpad:                                             ; preds = %if.then.i540, %if.then.i535, %if.then.i
  %7 = landingpad { ptr, i32 }
          cleanup
  br label %ehcleanup56

lpad11:                                           ; preds = %if.then.i570, %if.then.i564, %if.then.i558, %if.then.i554, %if.then.i550, %if.then.i546
  %8 = landingpad { ptr, i32 }
          cleanup
  br label %ehcleanup56

lpad25:                                           ; preds = %if.then.i609, %if.then.i603, %if.then.i597, %if.then.i592, %if.then.i587, %if.then.i581, %if.then.i576
  %9 = landingpad { ptr, i32 }
          cleanup
  br label %ehcleanup56

lpad41:                                           ; preds = %if.then.i623, %if.then.i618, %invoke.cont38
  %10 = landingpad { ptr, i32 }
          cleanup
  br label %ehcleanup56

lpad49:                                           ; preds = %if.then.i633, %if.then.i628
  %11 = landingpad { ptr, i32 }
          cleanup
  br label %ehcleanup56

cleanup.done63:                                   ; preds = %invoke.cont52
  %call.i637 = call noundef double @_ZNK7Results5GetAsIdEET_PKc(ptr noundef nonnull align 8 dereferenceable(48) %e, ptr noundef nonnull @.str.22)
  %conv.i638 = fptosi double %call.i637 to i32
  %cmp69.not = icmp eq i32 %conv.i638, 2
  br i1 %cmp69.not, label %cond.true70, label %cond.false72

cond.true70:                                      ; preds = %cleanup.done63
  %12 = load atomic i8, ptr @_ZGVZN9benchmark8internal18GetNullLogInstanceEvE3log acquire, align 8
  %guard.uninitialized.i639 = icmp eq i8 %12, 0
  br i1 %guard.uninitialized.i639, label %init.check.i641, label %cond.end79, !prof !17

init.check.i641:                                  ; preds = %cond.true70
  %13 = call i32 @__cxa_guard_acquire(ptr nonnull @_ZGVZN9benchmark8internal18GetNullLogInstanceEvE3log) #23
  %tobool.not.i640 = icmp eq i32 %13, 0
  br i1 %tobool.not.i640, label %cond.end79, label %init.i642

init.i642:                                        ; preds = %init.check.i641
  store ptr null, ptr @_ZZN9benchmark8internal18GetNullLogInstanceEvE3log, align 8, !tbaa !18
  call void @__cxa_guard_release(ptr nonnull @_ZGVZN9benchmark8internal18GetNullLogInstanceEvE3log) #23
  br label %cond.end79

cond.false72:                                     ; preds = %cleanup.done63
  call void @llvm.lifetime.start.p0(i64 8, ptr nonnull %ref.tmp73) #23
  call void @_ZN9benchmark8internal12CheckHandlerC2EPKcS3_S3_i(ptr noundef nonnull align 8 dereferenceable(8) %ref.tmp73, ptr noundef nonnull @.str.111, ptr noundef nonnull @.str.101, ptr noundef nonnull @__func__._Z12CheckTabularRK7Results, i32 noundef 357)
  %14 = load ptr, ptr %ref.tmp73, align 8, !tbaa !21
  br label %cond.end79

cond.end79:                                       ; preds = %init.i642, %init.check.i641, %cond.true70, %cond.false72
  %cond-lvalue80 = phi ptr [ %14, %cond.false72 ], [ @_ZZN9benchmark8internal18GetNullLogInstanceEvE3log, %cond.true70 ], [ @_ZZN9benchmark8internal18GetNullLogInstanceEvE3log, %init.check.i641 ], [ @_ZZN9benchmark8internal18GetNullLogInstanceEvE3log, %init.i642 ]
  %15 = load ptr, ptr %cond-lvalue80, align 8, !tbaa !18
  %tobool.not.i644 = icmp eq ptr %15, null
  br i1 %tobool.not.i644, label %invoke.cont116, label %if.then.i646

if.then.i646:                                     ; preds = %cond.end79
  %call1.i.i648 = invoke noundef nonnull align 8 dereferenceable(8) ptr @_ZNSt3__124__put_character_sequenceB7v170000IcNS_11char_traitsIcEEEERNS_13basic_ostreamIT_T0_EES7_PKS4_m(ptr noundef nonnull align 8 dereferenceable(8) %15, ptr noundef nonnull @.str.102, i64 noundef 1)
          to label %invoke.cont81 unwind label %lpad76

invoke.cont81:                                    ; preds = %if.then.i646
  %.pr1351 = load ptr, ptr %cond-lvalue80, align 8, !tbaa !18
  %tobool.not.i650 = icmp eq ptr %.pr1351, null
  br i1 %tobool.not.i650, label %invoke.cont116, label %if.then.i652

if.then.i652:                                     ; preds = %invoke.cont81
  %call1.i.i654 = invoke noundef nonnull align 8 dereferenceable(8) ptr @_ZNSt3__124__put_character_sequenceB7v170000IcNS_11char_traitsIcEEEERNS_13basic_ostreamIT_T0_EES7_PKS4_m(ptr noundef nonnull align 8 dereferenceable(8) %.pr1351, ptr noundef nonnull @.str.101, i64 noundef 117)
          to label %invoke.cont83 unwind label %lpad76

invoke.cont83:                                    ; preds = %if.then.i652
  %.pr1353 = load ptr, ptr %cond-lvalue80, align 8, !tbaa !18
  %tobool.not.i656 = icmp eq ptr %.pr1353, null
  br i1 %tobool.not.i656, label %invoke.cont116, label %if.then.i658

if.then.i658:                                     ; preds = %invoke.cont83
  %call1.i.i660 = invoke noundef nonnull align 8 dereferenceable(8) ptr @_ZNSt3__124__put_character_sequenceB7v170000IcNS_11char_traitsIcEEEERNS_13basic_ostreamIT_T0_EES7_PKS4_m(ptr noundef nonnull align 8 dereferenceable(8) %.pr1353, ptr noundef nonnull @.str.103, i64 noundef 1)
          to label %invoke.cont85 unwind label %lpad76

invoke.cont85:                                    ; preds = %if.then.i658
  %.pr1355.pr = load ptr, ptr %cond-lvalue80, align 8, !tbaa !18
  %tobool.not.i662 = icmp eq ptr %.pr1355.pr, null
  br i1 %tobool.not.i662, label %invoke.cont116, label %if.then.i664

if.then.i664:                                     ; preds = %invoke.cont85
  %call.i663665 = invoke noundef nonnull align 8 dereferenceable(8) ptr @_ZNSt3__113basic_ostreamIcNS_11char_traitsIcEEElsEi(ptr noundef nonnull align 8 dereferenceable(8) %.pr1355.pr, i32 noundef 357)
          to label %invoke.cont89 unwind label %lpad88

invoke.cont89:                                    ; preds = %if.then.i664
  %.pr1357 = load ptr, ptr %cond-lvalue80, align 8, !tbaa !18
  %tobool.not.i667 = icmp eq ptr %.pr1357, null
  br i1 %tobool.not.i667, label %invoke.cont116, label %if.then.i669

if.then.i669:                                     ; preds = %invoke.cont89
  %call1.i.i671 = invoke noundef nonnull align 8 dereferenceable(8) ptr @_ZNSt3__124__put_character_sequenceB7v170000IcNS_11char_traitsIcEEEERNS_13basic_ostreamIT_T0_EES7_PKS4_m(ptr noundef nonnull align 8 dereferenceable(8) %.pr1357, ptr noundef nonnull @.str.104, i64 noundef 2)
          to label %invoke.cont91 unwind label %lpad88

invoke.cont91:                                    ; preds = %if.then.i669
  %.pr1359.pr.pr = load ptr, ptr %cond-lvalue80, align 8, !tbaa !18
  %tobool.not.i673 = icmp eq ptr %.pr1359.pr.pr, null
  br i1 %tobool.not.i673, label %invoke.cont116, label %if.then.i684

if.then.i684:                                     ; preds = %invoke.cont91
  %bf.load.i.i.i.i.i674 = load i8, ptr %e, align 8
  %bf.clear.i.i.i.i.i675 = and i8 %bf.load.i.i.i.i.i674, 1
  %tobool.i.not.i.i.i.i676 = icmp eq i8 %bf.clear.i.i.i.i.i675, 0
  %__data_.i.i.i.i.i677 = getelementptr inbounds %"struct.std::__1::basic_string<char>::__long", ptr %e, i64 0, i32 2
  %16 = load ptr, ptr %__data_.i.i.i.i.i677, align 8
  %__data_.i4.i.i.i.i678 = getelementptr inbounds %"struct.std::__1::basic_string<char>::__short", ptr %e, i64 0, i32 2
  %cond.i.i.i.i679 = select i1 %tobool.i.not.i.i.i.i676, ptr %__data_.i4.i.i.i.i678, ptr %16
  %__size_.i.i.i.i680 = getelementptr inbounds %"struct.std::__1::basic_string<char>::__long", ptr %e, i64 0, i32 1
  %17 = load i64, ptr %__size_.i.i.i.i680, align 8
  %bf.lshr.i.i.i.i681 = lshr i8 %bf.load.i.i.i.i.i674, 1
  %conv.i.i.i.i682 = zext i8 %bf.lshr.i.i.i.i681 to i64
  %cond.i.i.i683 = select i1 %tobool.i.not.i.i.i.i676, i64 %conv.i.i.i.i682, i64 %17
  %call2.i.i686 = invoke noundef nonnull align 8 dereferenceable(8) ptr @_ZNSt3__124__put_character_sequenceB7v170000IcNS_11char_traitsIcEEEERNS_13basic_ostreamIT_T0_EES7_PKS4_m(ptr noundef nonnull align 8 dereferenceable(8) %.pr1359.pr.pr, ptr noundef %cond.i.i.i.i679, i64 noundef %cond.i.i.i683)
          to label %invoke.cont94 unwind label %lpad88

invoke.cont94:                                    ; preds = %if.then.i684
  %.pr1361 = load ptr, ptr %cond-lvalue80, align 8, !tbaa !18
  %tobool.not.i688 = icmp eq ptr %.pr1361, null
  br i1 %tobool.not.i688, label %invoke.cont116, label %if.then.i690

if.then.i690:                                     ; preds = %invoke.cont94
  %call1.i.i692 = invoke noundef nonnull align 8 dereferenceable(8) ptr @_ZNSt3__124__put_character_sequenceB7v170000IcNS_11char_traitsIcEEEERNS_13basic_ostreamIT_T0_EES7_PKS4_m(ptr noundef nonnull align 8 dereferenceable(8) %.pr1361, ptr noundef nonnull @.str.105, i64 noundef 2)
          to label %invoke.cont96 unwind label %lpad88

invoke.cont96:                                    ; preds = %if.then.i690
  %.pr1363.pr.pr = load ptr, ptr %cond-lvalue80, align 8, !tbaa !18
  %tobool.not.i694 = icmp eq ptr %.pr1363.pr.pr, null
  br i1 %tobool.not.i694, label %invoke.cont116, label %if.then.i696

if.then.i696:                                     ; preds = %invoke.cont96
  %call1.i.i698 = invoke noundef nonnull align 8 dereferenceable(8) ptr @_ZNSt3__124__put_character_sequenceB7v170000IcNS_11char_traitsIcEEEERNS_13basic_ostreamIT_T0_EES7_PKS4_m(ptr noundef nonnull align 8 dereferenceable(8) %.pr1363.pr.pr, ptr noundef nonnull @.str.101, i64 noundef 117)
          to label %invoke.cont98 unwind label %lpad88

invoke.cont98:                                    ; preds = %if.then.i696
  %.pr1365 = load ptr, ptr %cond-lvalue80, align 8, !tbaa !18
  %tobool.not.i700 = icmp eq ptr %.pr1365, null
  br i1 %tobool.not.i700, label %invoke.cont116, label %if.then.i702

if.then.i702:                                     ; preds = %invoke.cont98
  %call1.i.i704 = invoke noundef nonnull align 8 dereferenceable(8) ptr @_ZNSt3__124__put_character_sequenceB7v170000IcNS_11char_traitsIcEEEERNS_13basic_ostreamIT_T0_EES7_PKS4_m(ptr noundef nonnull align 8 dereferenceable(8) %.pr1365, ptr noundef nonnull @.str.103, i64 noundef 1)
          to label %invoke.cont100 unwind label %lpad88

invoke.cont100:                                   ; preds = %if.then.i702
  %.pr1367.pr.pr.pr = load ptr, ptr %cond-lvalue80, align 8, !tbaa !18
  %tobool.not.i706 = icmp eq ptr %.pr1367.pr.pr.pr, null
  br i1 %tobool.not.i706, label %invoke.cont116, label %if.then.i708

if.then.i708:                                     ; preds = %invoke.cont100
  %call.i707709 = invoke noundef nonnull align 8 dereferenceable(8) ptr @_ZNSt3__113basic_ostreamIcNS_11char_traitsIcEEElsEi(ptr noundef nonnull align 8 dereferenceable(8) %.pr1367.pr.pr.pr, i32 noundef 357)
          to label %invoke.cont104 unwind label %lpad103

invoke.cont104:                                   ; preds = %if.then.i708
  %.pr1369 = load ptr, ptr %cond-lvalue80, align 8, !tbaa !18
  %tobool.not.i711 = icmp eq ptr %.pr1369, null
  br i1 %tobool.not.i711, label %invoke.cont116, label %if.then.i713

if.then.i713:                                     ; preds = %invoke.cont104
  %call1.i.i715 = invoke noundef nonnull align 8 dereferenceable(8) ptr @_ZNSt3__124__put_character_sequenceB7v170000IcNS_11char_traitsIcEEEERNS_13basic_ostreamIT_T0_EES7_PKS4_m(ptr noundef nonnull align 8 dereferenceable(8) %.pr1369, ptr noundef nonnull @.str.104, i64 noundef 2)
          to label %invoke.cont106 unwind label %lpad103

invoke.cont106:                                   ; preds = %if.then.i713
  %.pr1371.pr.pr.pr = load ptr, ptr %cond-lvalue80, align 8, !tbaa !18
  %tobool.not.i717 = icmp eq ptr %.pr1371.pr.pr.pr, null
  br i1 %tobool.not.i717, label %invoke.cont116, label %if.then.i719

if.then.i719:                                     ; preds = %invoke.cont106
  %call1.i.i721 = invoke noundef nonnull align 8 dereferenceable(8) ptr @_ZNSt3__124__put_character_sequenceB7v170000IcNS_11char_traitsIcEEEERNS_13basic_ostreamIT_T0_EES7_PKS4_m(ptr noundef nonnull align 8 dereferenceable(8) %.pr1371.pr.pr.pr, ptr noundef nonnull @.str.106, i64 noundef 10)
          to label %invoke.cont108 unwind label %lpad103

invoke.cont108:                                   ; preds = %if.then.i719
  %.pr1373 = load ptr, ptr %cond-lvalue80, align 8, !tbaa !18
  %tobool.not.i723 = icmp eq ptr %.pr1373, null
  br i1 %tobool.not.i723, label %invoke.cont116, label %if.then.i725

if.then.i725:                                     ; preds = %invoke.cont108
  %call1.i.i727 = invoke noundef nonnull align 8 dereferenceable(8) ptr @_ZNSt3__124__put_character_sequenceB7v170000IcNS_11char_traitsIcEEEERNS_13basic_ostreamIT_T0_EES7_PKS4_m(ptr noundef nonnull align 8 dereferenceable(8) %.pr1373, ptr noundef nonnull @.str.107, i64 noundef 3)
          to label %invoke.cont110 unwind label %lpad103

invoke.cont110:                                   ; preds = %if.then.i725
  %.pr1375.pr.pr.pr = load ptr, ptr %cond-lvalue80, align 8, !tbaa !18
  %tobool.not.i729 = icmp eq ptr %.pr1375.pr.pr.pr, null
  br i1 %tobool.not.i729, label %invoke.cont116, label %if.then.i731

if.then.i731:                                     ; preds = %invoke.cont110
  %call1.i.i733 = invoke noundef nonnull align 8 dereferenceable(8) ptr @_ZNSt3__124__put_character_sequenceB7v170000IcNS_11char_traitsIcEEEERNS_13basic_ostreamIT_T0_EES7_PKS4_m(ptr noundef nonnull align 8 dereferenceable(8) %.pr1375.pr.pr.pr, ptr noundef nonnull @.str.108, i64 noundef 1)
          to label %invoke.cont112 unwind label %lpad103

invoke.cont112:                                   ; preds = %if.then.i731
  %.pr1377 = load ptr, ptr %cond-lvalue80, align 8, !tbaa !18
  %tobool.not.i735 = icmp eq ptr %.pr1377, null
  br i1 %tobool.not.i735, label %invoke.cont116, label %if.then.i737

if.then.i737:                                     ; preds = %invoke.cont112
  %call1.i.i739 = invoke noundef nonnull align 8 dereferenceable(8) ptr @_ZNSt3__124__put_character_sequenceB7v170000IcNS_11char_traitsIcEEEERNS_13basic_ostreamIT_T0_EES7_PKS4_m(ptr noundef nonnull align 8 dereferenceable(8) %.pr1377, ptr noundef nonnull @.str.22, i64 noundef 3)
          to label %invoke.cont114 unwind label %lpad103

invoke.cont114:                                   ; preds = %if.then.i737
  %.pr1379.pr.pr.pr = load ptr, ptr %cond-lvalue80, align 8, !tbaa !18
  %tobool.not.i741 = icmp eq ptr %.pr1379.pr.pr.pr, null
  br i1 %tobool.not.i741, label %invoke.cont116, label %if.then.i743

if.then.i743:                                     ; preds = %invoke.cont114
  %call1.i.i745 = invoke noundef nonnull align 8 dereferenceable(8) ptr @_ZNSt3__124__put_character_sequenceB7v170000IcNS_11char_traitsIcEEEERNS_13basic_ostreamIT_T0_EES7_PKS4_m(ptr noundef nonnull align 8 dereferenceable(8) %.pr1379.pr.pr.pr, ptr noundef nonnull @.str.109, i64 noundef 1)
          to label %invoke.cont116 unwind label %lpad103

invoke.cont116:                                   ; preds = %invoke.cont96, %invoke.cont94, %invoke.cont91, %invoke.cont89, %invoke.cont85, %invoke.cont83, %invoke.cont81, %cond.end79, %invoke.cont104, %invoke.cont106, %invoke.cont98, %invoke.cont100, %invoke.cont110, %invoke.cont108, %invoke.cont112, %invoke.cont114, %if.then.i743
  %call.i747749 = invoke noundef double @_ZNK7Results5GetAsIdEET_PKc(ptr noundef nonnull align 8 dereferenceable(48) %e, ptr noundef nonnull @.str.22)
          to label %invoke.cont120 unwind label %lpad119

invoke.cont120:                                   ; preds = %invoke.cont116
  %18 = load ptr, ptr %cond-lvalue80, align 8, !tbaa !18
  %tobool.not.i751 = icmp eq ptr %18, null
  br i1 %tobool.not.i751, label %invoke.cont130, label %if.then.i753

if.then.i753:                                     ; preds = %invoke.cont120
  %conv.i748 = fptosi double %call.i747749 to i32
  %call.i752754 = invoke noundef nonnull align 8 dereferenceable(8) ptr @_ZNSt3__113basic_ostreamIcNS_11char_traitsIcEEElsEi(ptr noundef nonnull align 8 dereferenceable(8) %18, i32 noundef %conv.i748)
          to label %invoke.cont122 unwind label %lpad119

invoke.cont122:                                   ; preds = %if.then.i753
  %.pr1381 = load ptr, ptr %cond-lvalue80, align 8, !tbaa !18
  %tobool.not.i756 = icmp eq ptr %.pr1381, null
  br i1 %tobool.not.i756, label %invoke.cont130, label %if.then.i758

if.then.i758:                                     ; preds = %invoke.cont122
  %call1.i.i760 = invoke noundef nonnull align 8 dereferenceable(8) ptr @_ZNSt3__124__put_character_sequenceB7v170000IcNS_11char_traitsIcEEEERNS_13basic_ostreamIT_T0_EES7_PKS4_m(ptr noundef nonnull align 8 dereferenceable(8) %.pr1381, ptr noundef nonnull @.str.110, i64 noundef 13)
          to label %invoke.cont124 unwind label %lpad119

invoke.cont124:                                   ; preds = %if.then.i758
  %.pr1383 = load ptr, ptr %cond-lvalue80, align 8, !tbaa !18
  %tobool.not.i762 = icmp eq ptr %.pr1383, null
  br i1 %tobool.not.i762, label %invoke.cont130, label %if.then.i764

if.then.i764:                                     ; preds = %invoke.cont124
  %call.i763765 = invoke noundef nonnull align 8 dereferenceable(8) ptr @_ZNSt3__113basic_ostreamIcNS_11char_traitsIcEEElsEi(ptr noundef nonnull align 8 dereferenceable(8) %.pr1383, i32 noundef 2)
          to label %invoke.cont128 unwind label %lpad127

invoke.cont128:                                   ; preds = %if.then.i764
  %.pr1385.pr = load ptr, ptr %cond-lvalue80, align 8, !tbaa !18
  %tobool.not.i767 = icmp eq ptr %.pr1385.pr, null
  br i1 %tobool.not.i767, label %invoke.cont130, label %if.then.i769

if.then.i769:                                     ; preds = %invoke.cont128
  %call1.i.i771 = invoke noundef nonnull align 8 dereferenceable(8) ptr @_ZNSt3__124__put_character_sequenceB7v170000IcNS_11char_traitsIcEEEERNS_13basic_ostreamIT_T0_EES7_PKS4_m(ptr noundef nonnull align 8 dereferenceable(8) %.pr1385.pr, ptr noundef nonnull @.str.102, i64 noundef 1)
          to label %invoke.cont130 unwind label %lpad127

invoke.cont130:                                   ; preds = %invoke.cont122, %invoke.cont120, %invoke.cont124, %invoke.cont128, %if.then.i769
  br i1 %cmp69.not, label %cleanup.done146, label %cleanup.action137

cleanup.action137:                                ; preds = %invoke.cont130
  call void @_ZN9benchmark8internal12CheckHandlerD2Ev(ptr noundef nonnull align 8 dereferenceable(8) %ref.tmp73) #25
  unreachable

ehcleanup56:                                      ; preds = %lpad11, %lpad41, %lpad49, %lpad25, %lpad
  %.pn.pn.pn.pn = phi { ptr, i32 } [ %7, %lpad ], [ %8, %lpad11 ], [ %9, %lpad25 ], [ %11, %lpad49 ], [ %10, %lpad41 ]
  br i1 %cmp.not, label %eh.resume, label %cleanup.action473.invoke

lpad76:                                           ; preds = %if.then.i658, %if.then.i652, %if.then.i646
  %19 = landingpad { ptr, i32 }
          cleanup
  br label %ehcleanup139

lpad88:                                           ; preds = %if.then.i702, %if.then.i696, %if.then.i690, %if.then.i684, %if.then.i669, %if.then.i664
  %20 = landingpad { ptr, i32 }
          cleanup
  br label %ehcleanup139

lpad103:                                          ; preds = %if.then.i743, %if.then.i737, %if.then.i731, %if.then.i725, %if.then.i719, %if.then.i713, %if.then.i708
  %21 = landingpad { ptr, i32 }
          cleanup
  br label %ehcleanup139

lpad119:                                          ; preds = %if.then.i758, %if.then.i753, %invoke.cont116
  %22 = landingpad { ptr, i32 }
          cleanup
  br label %ehcleanup139

lpad127:                                          ; preds = %if.then.i769, %if.then.i764
  %23 = landingpad { ptr, i32 }
          cleanup
  br label %ehcleanup139

cleanup.done146:                                  ; preds = %invoke.cont130
  %call.i773 = call noundef double @_ZNK7Results5GetAsIdEET_PKc(ptr noundef nonnull align 8 dereferenceable(48) %e, ptr noundef nonnull @.str.23)
  %conv.i774 = fptosi double %call.i773 to i32
  %cmp152.not = icmp eq i32 %conv.i774, 4
  br i1 %cmp152.not, label %cond.true153, label %cond.false155

cond.true153:                                     ; preds = %cleanup.done146
  %24 = load atomic i8, ptr @_ZGVZN9benchmark8internal18GetNullLogInstanceEvE3log acquire, align 8
  %guard.uninitialized.i775 = icmp eq i8 %24, 0
  br i1 %guard.uninitialized.i775, label %init.check.i777, label %cond.end162, !prof !17

init.check.i777:                                  ; preds = %cond.true153
  %25 = call i32 @__cxa_guard_acquire(ptr nonnull @_ZGVZN9benchmark8internal18GetNullLogInstanceEvE3log) #23
  %tobool.not.i776 = icmp eq i32 %25, 0
  br i1 %tobool.not.i776, label %cond.end162, label %init.i778

init.i778:                                        ; preds = %init.check.i777
  store ptr null, ptr @_ZZN9benchmark8internal18GetNullLogInstanceEvE3log, align 8, !tbaa !18
  call void @__cxa_guard_release(ptr nonnull @_ZGVZN9benchmark8internal18GetNullLogInstanceEvE3log) #23
  br label %cond.end162

cond.false155:                                    ; preds = %cleanup.done146
  call void @llvm.lifetime.start.p0(i64 8, ptr nonnull %ref.tmp156) #23
  call void @_ZN9benchmark8internal12CheckHandlerC2EPKcS3_S3_i(ptr noundef nonnull align 8 dereferenceable(8) %ref.tmp156, ptr noundef nonnull @.str.112, ptr noundef nonnull @.str.101, ptr noundef nonnull @__func__._Z12CheckTabularRK7Results, i32 noundef 358)
  %26 = load ptr, ptr %ref.tmp156, align 8, !tbaa !21
  br label %cond.end162

cond.end162:                                      ; preds = %init.i778, %init.check.i777, %cond.true153, %cond.false155
  %cond-lvalue163 = phi ptr [ %26, %cond.false155 ], [ @_ZZN9benchmark8internal18GetNullLogInstanceEvE3log, %cond.true153 ], [ @_ZZN9benchmark8internal18GetNullLogInstanceEvE3log, %init.check.i777 ], [ @_ZZN9benchmark8internal18GetNullLogInstanceEvE3log, %init.i778 ]
  %27 = load ptr, ptr %cond-lvalue163, align 8, !tbaa !18
  %tobool.not.i780 = icmp eq ptr %27, null
  br i1 %tobool.not.i780, label %invoke.cont199, label %if.then.i782

if.then.i782:                                     ; preds = %cond.end162
  %call1.i.i784 = invoke noundef nonnull align 8 dereferenceable(8) ptr @_ZNSt3__124__put_character_sequenceB7v170000IcNS_11char_traitsIcEEEERNS_13basic_ostreamIT_T0_EES7_PKS4_m(ptr noundef nonnull align 8 dereferenceable(8) %27, ptr noundef nonnull @.str.102, i64 noundef 1)
          to label %invoke.cont164 unwind label %lpad159

invoke.cont164:                                   ; preds = %if.then.i782
  %.pr1387 = load ptr, ptr %cond-lvalue163, align 8, !tbaa !18
  %tobool.not.i786 = icmp eq ptr %.pr1387, null
  br i1 %tobool.not.i786, label %invoke.cont199, label %if.then.i788

if.then.i788:                                     ; preds = %invoke.cont164
  %call1.i.i790 = invoke noundef nonnull align 8 dereferenceable(8) ptr @_ZNSt3__124__put_character_sequenceB7v170000IcNS_11char_traitsIcEEEERNS_13basic_ostreamIT_T0_EES7_PKS4_m(ptr noundef nonnull align 8 dereferenceable(8) %.pr1387, ptr noundef nonnull @.str.101, i64 noundef 117)
          to label %invoke.cont166 unwind label %lpad159

invoke.cont166:                                   ; preds = %if.then.i788
  %.pr1389 = load ptr, ptr %cond-lvalue163, align 8, !tbaa !18
  %tobool.not.i792 = icmp eq ptr %.pr1389, null
  br i1 %tobool.not.i792, label %invoke.cont199, label %if.then.i794

if.then.i794:                                     ; preds = %invoke.cont166
  %call1.i.i796 = invoke noundef nonnull align 8 dereferenceable(8) ptr @_ZNSt3__124__put_character_sequenceB7v170000IcNS_11char_traitsIcEEEERNS_13basic_ostreamIT_T0_EES7_PKS4_m(ptr noundef nonnull align 8 dereferenceable(8) %.pr1389, ptr noundef nonnull @.str.103, i64 noundef 1)
          to label %invoke.cont168 unwind label %lpad159

invoke.cont168:                                   ; preds = %if.then.i794
  %.pr1391.pr = load ptr, ptr %cond-lvalue163, align 8, !tbaa !18
  %tobool.not.i798 = icmp eq ptr %.pr1391.pr, null
  br i1 %tobool.not.i798, label %invoke.cont199, label %if.then.i800

if.then.i800:                                     ; preds = %invoke.cont168
  %call.i799801 = invoke noundef nonnull align 8 dereferenceable(8) ptr @_ZNSt3__113basic_ostreamIcNS_11char_traitsIcEEElsEi(ptr noundef nonnull align 8 dereferenceable(8) %.pr1391.pr, i32 noundef 358)
          to label %invoke.cont172 unwind label %lpad171

invoke.cont172:                                   ; preds = %if.then.i800
  %.pr1393 = load ptr, ptr %cond-lvalue163, align 8, !tbaa !18
  %tobool.not.i803 = icmp eq ptr %.pr1393, null
  br i1 %tobool.not.i803, label %invoke.cont199, label %if.then.i805

if.then.i805:                                     ; preds = %invoke.cont172
  %call1.i.i807 = invoke noundef nonnull align 8 dereferenceable(8) ptr @_ZNSt3__124__put_character_sequenceB7v170000IcNS_11char_traitsIcEEEERNS_13basic_ostreamIT_T0_EES7_PKS4_m(ptr noundef nonnull align 8 dereferenceable(8) %.pr1393, ptr noundef nonnull @.str.104, i64 noundef 2)
          to label %invoke.cont174 unwind label %lpad171

invoke.cont174:                                   ; preds = %if.then.i805
  %.pr1395.pr.pr = load ptr, ptr %cond-lvalue163, align 8, !tbaa !18
  %tobool.not.i809 = icmp eq ptr %.pr1395.pr.pr, null
  br i1 %tobool.not.i809, label %invoke.cont199, label %if.then.i820

if.then.i820:                                     ; preds = %invoke.cont174
  %bf.load.i.i.i.i.i810 = load i8, ptr %e, align 8
  %bf.clear.i.i.i.i.i811 = and i8 %bf.load.i.i.i.i.i810, 1
  %tobool.i.not.i.i.i.i812 = icmp eq i8 %bf.clear.i.i.i.i.i811, 0
  %__data_.i.i.i.i.i813 = getelementptr inbounds %"struct.std::__1::basic_string<char>::__long", ptr %e, i64 0, i32 2
  %28 = load ptr, ptr %__data_.i.i.i.i.i813, align 8
  %__data_.i4.i.i.i.i814 = getelementptr inbounds %"struct.std::__1::basic_string<char>::__short", ptr %e, i64 0, i32 2
  %cond.i.i.i.i815 = select i1 %tobool.i.not.i.i.i.i812, ptr %__data_.i4.i.i.i.i814, ptr %28
  %__size_.i.i.i.i816 = getelementptr inbounds %"struct.std::__1::basic_string<char>::__long", ptr %e, i64 0, i32 1
  %29 = load i64, ptr %__size_.i.i.i.i816, align 8
  %bf.lshr.i.i.i.i817 = lshr i8 %bf.load.i.i.i.i.i810, 1
  %conv.i.i.i.i818 = zext i8 %bf.lshr.i.i.i.i817 to i64
  %cond.i.i.i819 = select i1 %tobool.i.not.i.i.i.i812, i64 %conv.i.i.i.i818, i64 %29
  %call2.i.i822 = invoke noundef nonnull align 8 dereferenceable(8) ptr @_ZNSt3__124__put_character_sequenceB7v170000IcNS_11char_traitsIcEEEERNS_13basic_ostreamIT_T0_EES7_PKS4_m(ptr noundef nonnull align 8 dereferenceable(8) %.pr1395.pr.pr, ptr noundef %cond.i.i.i.i815, i64 noundef %cond.i.i.i819)
          to label %invoke.cont177 unwind label %lpad171

invoke.cont177:                                   ; preds = %if.then.i820
  %.pr1397 = load ptr, ptr %cond-lvalue163, align 8, !tbaa !18
  %tobool.not.i824 = icmp eq ptr %.pr1397, null
  br i1 %tobool.not.i824, label %invoke.cont199, label %if.then.i826

if.then.i826:                                     ; preds = %invoke.cont177
  %call1.i.i828 = invoke noundef nonnull align 8 dereferenceable(8) ptr @_ZNSt3__124__put_character_sequenceB7v170000IcNS_11char_traitsIcEEEERNS_13basic_ostreamIT_T0_EES7_PKS4_m(ptr noundef nonnull align 8 dereferenceable(8) %.pr1397, ptr noundef nonnull @.str.105, i64 noundef 2)
          to label %invoke.cont179 unwind label %lpad171

invoke.cont179:                                   ; preds = %if.then.i826
  %.pr1399.pr.pr = load ptr, ptr %cond-lvalue163, align 8, !tbaa !18
  %tobool.not.i830 = icmp eq ptr %.pr1399.pr.pr, null
  br i1 %tobool.not.i830, label %invoke.cont199, label %if.then.i832

if.then.i832:                                     ; preds = %invoke.cont179
  %call1.i.i834 = invoke noundef nonnull align 8 dereferenceable(8) ptr @_ZNSt3__124__put_character_sequenceB7v170000IcNS_11char_traitsIcEEEERNS_13basic_ostreamIT_T0_EES7_PKS4_m(ptr noundef nonnull align 8 dereferenceable(8) %.pr1399.pr.pr, ptr noundef nonnull @.str.101, i64 noundef 117)
          to label %invoke.cont181 unwind label %lpad171

invoke.cont181:                                   ; preds = %if.then.i832
  %.pr1401 = load ptr, ptr %cond-lvalue163, align 8, !tbaa !18
  %tobool.not.i836 = icmp eq ptr %.pr1401, null
  br i1 %tobool.not.i836, label %invoke.cont199, label %if.then.i838

if.then.i838:                                     ; preds = %invoke.cont181
  %call1.i.i840 = invoke noundef nonnull align 8 dereferenceable(8) ptr @_ZNSt3__124__put_character_sequenceB7v170000IcNS_11char_traitsIcEEEERNS_13basic_ostreamIT_T0_EES7_PKS4_m(ptr noundef nonnull align 8 dereferenceable(8) %.pr1401, ptr noundef nonnull @.str.103, i64 noundef 1)
          to label %invoke.cont183 unwind label %lpad171

invoke.cont183:                                   ; preds = %if.then.i838
  %.pr1403.pr.pr.pr = load ptr, ptr %cond-lvalue163, align 8, !tbaa !18
  %tobool.not.i842 = icmp eq ptr %.pr1403.pr.pr.pr, null
  br i1 %tobool.not.i842, label %invoke.cont199, label %if.then.i844

if.then.i844:                                     ; preds = %invoke.cont183
  %call.i843845 = invoke noundef nonnull align 8 dereferenceable(8) ptr @_ZNSt3__113basic_ostreamIcNS_11char_traitsIcEEElsEi(ptr noundef nonnull align 8 dereferenceable(8) %.pr1403.pr.pr.pr, i32 noundef 358)
          to label %invoke.cont187 unwind label %lpad186

invoke.cont187:                                   ; preds = %if.then.i844
  %.pr1405 = load ptr, ptr %cond-lvalue163, align 8, !tbaa !18
  %tobool.not.i847 = icmp eq ptr %.pr1405, null
  br i1 %tobool.not.i847, label %invoke.cont199, label %if.then.i849

if.then.i849:                                     ; preds = %invoke.cont187
  %call1.i.i851 = invoke noundef nonnull align 8 dereferenceable(8) ptr @_ZNSt3__124__put_character_sequenceB7v170000IcNS_11char_traitsIcEEEERNS_13basic_ostreamIT_T0_EES7_PKS4_m(ptr noundef nonnull align 8 dereferenceable(8) %.pr1405, ptr noundef nonnull @.str.104, i64 noundef 2)
          to label %invoke.cont189 unwind label %lpad186

invoke.cont189:                                   ; preds = %if.then.i849
  %.pr1407.pr.pr.pr = load ptr, ptr %cond-lvalue163, align 8, !tbaa !18
  %tobool.not.i853 = icmp eq ptr %.pr1407.pr.pr.pr, null
  br i1 %tobool.not.i853, label %invoke.cont199, label %if.then.i855

if.then.i855:                                     ; preds = %invoke.cont189
  %call1.i.i857 = invoke noundef nonnull align 8 dereferenceable(8) ptr @_ZNSt3__124__put_character_sequenceB7v170000IcNS_11char_traitsIcEEEERNS_13basic_ostreamIT_T0_EES7_PKS4_m(ptr noundef nonnull align 8 dereferenceable(8) %.pr1407.pr.pr.pr, ptr noundef nonnull @.str.106, i64 noundef 10)
          to label %invoke.cont191 unwind label %lpad186

invoke.cont191:                                   ; preds = %if.then.i855
  %.pr1409 = load ptr, ptr %cond-lvalue163, align 8, !tbaa !18
  %tobool.not.i859 = icmp eq ptr %.pr1409, null
  br i1 %tobool.not.i859, label %invoke.cont199, label %if.then.i861

if.then.i861:                                     ; preds = %invoke.cont191
  %call1.i.i863 = invoke noundef nonnull align 8 dereferenceable(8) ptr @_ZNSt3__124__put_character_sequenceB7v170000IcNS_11char_traitsIcEEEERNS_13basic_ostreamIT_T0_EES7_PKS4_m(ptr noundef nonnull align 8 dereferenceable(8) %.pr1409, ptr noundef nonnull @.str.107, i64 noundef 3)
          to label %invoke.cont193 unwind label %lpad186

invoke.cont193:                                   ; preds = %if.then.i861
  %.pr1411.pr.pr.pr = load ptr, ptr %cond-lvalue163, align 8, !tbaa !18
  %tobool.not.i865 = icmp eq ptr %.pr1411.pr.pr.pr, null
  br i1 %tobool.not.i865, label %invoke.cont199, label %if.then.i867

if.then.i867:                                     ; preds = %invoke.cont193
  %call1.i.i869 = invoke noundef nonnull align 8 dereferenceable(8) ptr @_ZNSt3__124__put_character_sequenceB7v170000IcNS_11char_traitsIcEEEERNS_13basic_ostreamIT_T0_EES7_PKS4_m(ptr noundef nonnull align 8 dereferenceable(8) %.pr1411.pr.pr.pr, ptr noundef nonnull @.str.108, i64 noundef 1)
          to label %invoke.cont195 unwind label %lpad186

invoke.cont195:                                   ; preds = %if.then.i867
  %.pr1413 = load ptr, ptr %cond-lvalue163, align 8, !tbaa !18
  %tobool.not.i871 = icmp eq ptr %.pr1413, null
  br i1 %tobool.not.i871, label %invoke.cont199, label %if.then.i873

if.then.i873:                                     ; preds = %invoke.cont195
  %call1.i.i875 = invoke noundef nonnull align 8 dereferenceable(8) ptr @_ZNSt3__124__put_character_sequenceB7v170000IcNS_11char_traitsIcEEEERNS_13basic_ostreamIT_T0_EES7_PKS4_m(ptr noundef nonnull align 8 dereferenceable(8) %.pr1413, ptr noundef nonnull @.str.23, i64 noundef 3)
          to label %invoke.cont197 unwind label %lpad186

invoke.cont197:                                   ; preds = %if.then.i873
  %.pr1415.pr.pr.pr = load ptr, ptr %cond-lvalue163, align 8, !tbaa !18
  %tobool.not.i877 = icmp eq ptr %.pr1415.pr.pr.pr, null
  br i1 %tobool.not.i877, label %invoke.cont199, label %if.then.i879

if.then.i879:                                     ; preds = %invoke.cont197
  %call1.i.i881 = invoke noundef nonnull align 8 dereferenceable(8) ptr @_ZNSt3__124__put_character_sequenceB7v170000IcNS_11char_traitsIcEEEERNS_13basic_ostreamIT_T0_EES7_PKS4_m(ptr noundef nonnull align 8 dereferenceable(8) %.pr1415.pr.pr.pr, ptr noundef nonnull @.str.109, i64 noundef 1)
          to label %invoke.cont199 unwind label %lpad186

invoke.cont199:                                   ; preds = %invoke.cont179, %invoke.cont177, %invoke.cont174, %invoke.cont172, %invoke.cont168, %invoke.cont166, %invoke.cont164, %cond.end162, %invoke.cont187, %invoke.cont189, %invoke.cont181, %invoke.cont183, %invoke.cont193, %invoke.cont191, %invoke.cont195, %invoke.cont197, %if.then.i879
  %call.i883885 = invoke noundef double @_ZNK7Results5GetAsIdEET_PKc(ptr noundef nonnull align 8 dereferenceable(48) %e, ptr noundef nonnull @.str.23)
          to label %invoke.cont203 unwind label %lpad202

invoke.cont203:                                   ; preds = %invoke.cont199
  %30 = load ptr, ptr %cond-lvalue163, align 8, !tbaa !18
  %tobool.not.i887 = icmp eq ptr %30, null
  br i1 %tobool.not.i887, label %invoke.cont213, label %if.then.i889

if.then.i889:                                     ; preds = %invoke.cont203
  %conv.i884 = fptosi double %call.i883885 to i32
  %call.i888890 = invoke noundef nonnull align 8 dereferenceable(8) ptr @_ZNSt3__113basic_ostreamIcNS_11char_traitsIcEEElsEi(ptr noundef nonnull align 8 dereferenceable(8) %30, i32 noundef %conv.i884)
          to label %invoke.cont205 unwind label %lpad202

invoke.cont205:                                   ; preds = %if.then.i889
  %.pr1417 = load ptr, ptr %cond-lvalue163, align 8, !tbaa !18
  %tobool.not.i892 = icmp eq ptr %.pr1417, null
  br i1 %tobool.not.i892, label %invoke.cont213, label %if.then.i894

if.then.i894:                                     ; preds = %invoke.cont205
  %call1.i.i896 = invoke noundef nonnull align 8 dereferenceable(8) ptr @_ZNSt3__124__put_character_sequenceB7v170000IcNS_11char_traitsIcEEEERNS_13basic_ostreamIT_T0_EES7_PKS4_m(ptr noundef nonnull align 8 dereferenceable(8) %.pr1417, ptr noundef nonnull @.str.110, i64 noundef 13)
          to label %invoke.cont207 unwind label %lpad202

invoke.cont207:                                   ; preds = %if.then.i894
  %.pr1419 = load ptr, ptr %cond-lvalue163, align 8, !tbaa !18
  %tobool.not.i898 = icmp eq ptr %.pr1419, null
  br i1 %tobool.not.i898, label %invoke.cont213, label %if.then.i900

if.then.i900:                                     ; preds = %invoke.cont207
  %call.i899901 = invoke noundef nonnull align 8 dereferenceable(8) ptr @_ZNSt3__113basic_ostreamIcNS_11char_traitsIcEEElsEi(ptr noundef nonnull align 8 dereferenceable(8) %.pr1419, i32 noundef 4)
          to label %invoke.cont211 unwind label %lpad210

invoke.cont211:                                   ; preds = %if.then.i900
  %.pr1421.pr = load ptr, ptr %cond-lvalue163, align 8, !tbaa !18
  %tobool.not.i903 = icmp eq ptr %.pr1421.pr, null
  br i1 %tobool.not.i903, label %invoke.cont213, label %if.then.i905

if.then.i905:                                     ; preds = %invoke.cont211
  %call1.i.i907 = invoke noundef nonnull align 8 dereferenceable(8) ptr @_ZNSt3__124__put_character_sequenceB7v170000IcNS_11char_traitsIcEEEERNS_13basic_ostreamIT_T0_EES7_PKS4_m(ptr noundef nonnull align 8 dereferenceable(8) %.pr1421.pr, ptr noundef nonnull @.str.102, i64 noundef 1)
          to label %invoke.cont213 unwind label %lpad210

invoke.cont213:                                   ; preds = %invoke.cont205, %invoke.cont203, %invoke.cont207, %invoke.cont211, %if.then.i905
  br i1 %cmp152.not, label %cleanup.done229, label %cleanup.action220

cleanup.action220:                                ; preds = %invoke.cont213
  call void @_ZN9benchmark8internal12CheckHandlerD2Ev(ptr noundef nonnull align 8 dereferenceable(8) %ref.tmp156) #25
  unreachable

ehcleanup139:                                     ; preds = %lpad88, %lpad119, %lpad127, %lpad103, %lpad76
  %.pn505.pn.pn.pn = phi { ptr, i32 } [ %19, %lpad76 ], [ %20, %lpad88 ], [ %21, %lpad103 ], [ %23, %lpad127 ], [ %22, %lpad119 ]
  br i1 %cmp69.not, label %eh.resume, label %cleanup.action473.invoke

lpad159:                                          ; preds = %if.then.i794, %if.then.i788, %if.then.i782
  %31 = landingpad { ptr, i32 }
          cleanup
  br label %ehcleanup222

lpad171:                                          ; preds = %if.then.i838, %if.then.i832, %if.then.i826, %if.then.i820, %if.then.i805, %if.then.i800
  %32 = landingpad { ptr, i32 }
          cleanup
  br label %ehcleanup222

lpad186:                                          ; preds = %if.then.i879, %if.then.i873, %if.then.i867, %if.then.i861, %if.then.i855, %if.then.i849, %if.then.i844
  %33 = landingpad { ptr, i32 }
          cleanup
  br label %ehcleanup222

lpad202:                                          ; preds = %if.then.i894, %if.then.i889, %invoke.cont199
  %34 = landingpad { ptr, i32 }
          cleanup
  br label %ehcleanup222

lpad210:                                          ; preds = %if.then.i905, %if.then.i900
  %35 = landingpad { ptr, i32 }
          cleanup
  br label %ehcleanup222

cleanup.done229:                                  ; preds = %invoke.cont213
  %call.i909 = call noundef double @_ZNK7Results5GetAsIdEET_PKc(ptr noundef nonnull align 8 dereferenceable(48) %e, ptr noundef nonnull @.str.24)
  %conv.i910 = fptosi double %call.i909 to i32
  %cmp235.not = icmp eq i32 %conv.i910, 8
  br i1 %cmp235.not, label %cond.true236, label %cond.false238

cond.true236:                                     ; preds = %cleanup.done229
  %36 = load atomic i8, ptr @_ZGVZN9benchmark8internal18GetNullLogInstanceEvE3log acquire, align 8
  %guard.uninitialized.i911 = icmp eq i8 %36, 0
  br i1 %guard.uninitialized.i911, label %init.check.i913, label %cond.end245, !prof !17

init.check.i913:                                  ; preds = %cond.true236
  %37 = call i32 @__cxa_guard_acquire(ptr nonnull @_ZGVZN9benchmark8internal18GetNullLogInstanceEvE3log) #23
  %tobool.not.i912 = icmp eq i32 %37, 0
  br i1 %tobool.not.i912, label %cond.end245, label %init.i914

init.i914:                                        ; preds = %init.check.i913
  store ptr null, ptr @_ZZN9benchmark8internal18GetNullLogInstanceEvE3log, align 8, !tbaa !18
  call void @__cxa_guard_release(ptr nonnull @_ZGVZN9benchmark8internal18GetNullLogInstanceEvE3log) #23
  br label %cond.end245

cond.false238:                                    ; preds = %cleanup.done229
  call void @llvm.lifetime.start.p0(i64 8, ptr nonnull %ref.tmp239) #23
  call void @_ZN9benchmark8internal12CheckHandlerC2EPKcS3_S3_i(ptr noundef nonnull align 8 dereferenceable(8) %ref.tmp239, ptr noundef nonnull @.str.113, ptr noundef nonnull @.str.101, ptr noundef nonnull @__func__._Z12CheckTabularRK7Results, i32 noundef 359)
  %38 = load ptr, ptr %ref.tmp239, align 8, !tbaa !21
  br label %cond.end245

cond.end245:                                      ; preds = %init.i914, %init.check.i913, %cond.true236, %cond.false238
  %cond-lvalue246 = phi ptr [ %38, %cond.false238 ], [ @_ZZN9benchmark8internal18GetNullLogInstanceEvE3log, %cond.true236 ], [ @_ZZN9benchmark8internal18GetNullLogInstanceEvE3log, %init.check.i913 ], [ @_ZZN9benchmark8internal18GetNullLogInstanceEvE3log, %init.i914 ]
  %39 = load ptr, ptr %cond-lvalue246, align 8, !tbaa !18
  %tobool.not.i916 = icmp eq ptr %39, null
  br i1 %tobool.not.i916, label %invoke.cont282, label %if.then.i918

if.then.i918:                                     ; preds = %cond.end245
  %call1.i.i920 = invoke noundef nonnull align 8 dereferenceable(8) ptr @_ZNSt3__124__put_character_sequenceB7v170000IcNS_11char_traitsIcEEEERNS_13basic_ostreamIT_T0_EES7_PKS4_m(ptr noundef nonnull align 8 dereferenceable(8) %39, ptr noundef nonnull @.str.102, i64 noundef 1)
          to label %invoke.cont247 unwind label %lpad242

invoke.cont247:                                   ; preds = %if.then.i918
  %.pr1423 = load ptr, ptr %cond-lvalue246, align 8, !tbaa !18
  %tobool.not.i922 = icmp eq ptr %.pr1423, null
  br i1 %tobool.not.i922, label %invoke.cont282, label %if.then.i924

if.then.i924:                                     ; preds = %invoke.cont247
  %call1.i.i926 = invoke noundef nonnull align 8 dereferenceable(8) ptr @_ZNSt3__124__put_character_sequenceB7v170000IcNS_11char_traitsIcEEEERNS_13basic_ostreamIT_T0_EES7_PKS4_m(ptr noundef nonnull align 8 dereferenceable(8) %.pr1423, ptr noundef nonnull @.str.101, i64 noundef 117)
          to label %invoke.cont249 unwind label %lpad242

invoke.cont249:                                   ; preds = %if.then.i924
  %.pr1425 = load ptr, ptr %cond-lvalue246, align 8, !tbaa !18
  %tobool.not.i928 = icmp eq ptr %.pr1425, null
  br i1 %tobool.not.i928, label %invoke.cont282, label %if.then.i930

if.then.i930:                                     ; preds = %invoke.cont249
  %call1.i.i932 = invoke noundef nonnull align 8 dereferenceable(8) ptr @_ZNSt3__124__put_character_sequenceB7v170000IcNS_11char_traitsIcEEEERNS_13basic_ostreamIT_T0_EES7_PKS4_m(ptr noundef nonnull align 8 dereferenceable(8) %.pr1425, ptr noundef nonnull @.str.103, i64 noundef 1)
          to label %invoke.cont251 unwind label %lpad242

invoke.cont251:                                   ; preds = %if.then.i930
  %.pr1427.pr = load ptr, ptr %cond-lvalue246, align 8, !tbaa !18
  %tobool.not.i934 = icmp eq ptr %.pr1427.pr, null
  br i1 %tobool.not.i934, label %invoke.cont282, label %if.then.i936

if.then.i936:                                     ; preds = %invoke.cont251
  %call.i935937 = invoke noundef nonnull align 8 dereferenceable(8) ptr @_ZNSt3__113basic_ostreamIcNS_11char_traitsIcEEElsEi(ptr noundef nonnull align 8 dereferenceable(8) %.pr1427.pr, i32 noundef 359)
          to label %invoke.cont255 unwind label %lpad254

invoke.cont255:                                   ; preds = %if.then.i936
  %.pr1429 = load ptr, ptr %cond-lvalue246, align 8, !tbaa !18
  %tobool.not.i939 = icmp eq ptr %.pr1429, null
  br i1 %tobool.not.i939, label %invoke.cont282, label %if.then.i941

if.then.i941:                                     ; preds = %invoke.cont255
  %call1.i.i943 = invoke noundef nonnull align 8 dereferenceable(8) ptr @_ZNSt3__124__put_character_sequenceB7v170000IcNS_11char_traitsIcEEEERNS_13basic_ostreamIT_T0_EES7_PKS4_m(ptr noundef nonnull align 8 dereferenceable(8) %.pr1429, ptr noundef nonnull @.str.104, i64 noundef 2)
          to label %invoke.cont257 unwind label %lpad254

invoke.cont257:                                   ; preds = %if.then.i941
  %.pr1431.pr.pr = load ptr, ptr %cond-lvalue246, align 8, !tbaa !18
  %tobool.not.i945 = icmp eq ptr %.pr1431.pr.pr, null
  br i1 %tobool.not.i945, label %invoke.cont282, label %if.then.i956

if.then.i956:                                     ; preds = %invoke.cont257
  %bf.load.i.i.i.i.i946 = load i8, ptr %e, align 8
  %bf.clear.i.i.i.i.i947 = and i8 %bf.load.i.i.i.i.i946, 1
  %tobool.i.not.i.i.i.i948 = icmp eq i8 %bf.clear.i.i.i.i.i947, 0
  %__data_.i.i.i.i.i949 = getelementptr inbounds %"struct.std::__1::basic_string<char>::__long", ptr %e, i64 0, i32 2
  %40 = load ptr, ptr %__data_.i.i.i.i.i949, align 8
  %__data_.i4.i.i.i.i950 = getelementptr inbounds %"struct.std::__1::basic_string<char>::__short", ptr %e, i64 0, i32 2
  %cond.i.i.i.i951 = select i1 %tobool.i.not.i.i.i.i948, ptr %__data_.i4.i.i.i.i950, ptr %40
  %__size_.i.i.i.i952 = getelementptr inbounds %"struct.std::__1::basic_string<char>::__long", ptr %e, i64 0, i32 1
  %41 = load i64, ptr %__size_.i.i.i.i952, align 8
  %bf.lshr.i.i.i.i953 = lshr i8 %bf.load.i.i.i.i.i946, 1
  %conv.i.i.i.i954 = zext i8 %bf.lshr.i.i.i.i953 to i64
  %cond.i.i.i955 = select i1 %tobool.i.not.i.i.i.i948, i64 %conv.i.i.i.i954, i64 %41
  %call2.i.i958 = invoke noundef nonnull align 8 dereferenceable(8) ptr @_ZNSt3__124__put_character_sequenceB7v170000IcNS_11char_traitsIcEEEERNS_13basic_ostreamIT_T0_EES7_PKS4_m(ptr noundef nonnull align 8 dereferenceable(8) %.pr1431.pr.pr, ptr noundef %cond.i.i.i.i951, i64 noundef %cond.i.i.i955)
          to label %invoke.cont260 unwind label %lpad254

invoke.cont260:                                   ; preds = %if.then.i956
  %.pr1433 = load ptr, ptr %cond-lvalue246, align 8, !tbaa !18
  %tobool.not.i960 = icmp eq ptr %.pr1433, null
  br i1 %tobool.not.i960, label %invoke.cont282, label %if.then.i962

if.then.i962:                                     ; preds = %invoke.cont260
  %call1.i.i964 = invoke noundef nonnull align 8 dereferenceable(8) ptr @_ZNSt3__124__put_character_sequenceB7v170000IcNS_11char_traitsIcEEEERNS_13basic_ostreamIT_T0_EES7_PKS4_m(ptr noundef nonnull align 8 dereferenceable(8) %.pr1433, ptr noundef nonnull @.str.105, i64 noundef 2)
          to label %invoke.cont262 unwind label %lpad254

invoke.cont262:                                   ; preds = %if.then.i962
  %.pr1435.pr.pr = load ptr, ptr %cond-lvalue246, align 8, !tbaa !18
  %tobool.not.i966 = icmp eq ptr %.pr1435.pr.pr, null
  br i1 %tobool.not.i966, label %invoke.cont282, label %if.then.i968

if.then.i968:                                     ; preds = %invoke.cont262
  %call1.i.i970 = invoke noundef nonnull align 8 dereferenceable(8) ptr @_ZNSt3__124__put_character_sequenceB7v170000IcNS_11char_traitsIcEEEERNS_13basic_ostreamIT_T0_EES7_PKS4_m(ptr noundef nonnull align 8 dereferenceable(8) %.pr1435.pr.pr, ptr noundef nonnull @.str.101, i64 noundef 117)
          to label %invoke.cont264 unwind label %lpad254

invoke.cont264:                                   ; preds = %if.then.i968
  %.pr1437 = load ptr, ptr %cond-lvalue246, align 8, !tbaa !18
  %tobool.not.i972 = icmp eq ptr %.pr1437, null
  br i1 %tobool.not.i972, label %invoke.cont282, label %if.then.i974

if.then.i974:                                     ; preds = %invoke.cont264
  %call1.i.i976 = invoke noundef nonnull align 8 dereferenceable(8) ptr @_ZNSt3__124__put_character_sequenceB7v170000IcNS_11char_traitsIcEEEERNS_13basic_ostreamIT_T0_EES7_PKS4_m(ptr noundef nonnull align 8 dereferenceable(8) %.pr1437, ptr noundef nonnull @.str.103, i64 noundef 1)
          to label %invoke.cont266 unwind label %lpad254

invoke.cont266:                                   ; preds = %if.then.i974
  %.pr1439.pr.pr.pr = load ptr, ptr %cond-lvalue246, align 8, !tbaa !18
  %tobool.not.i978 = icmp eq ptr %.pr1439.pr.pr.pr, null
  br i1 %tobool.not.i978, label %invoke.cont282, label %if.then.i980

if.then.i980:                                     ; preds = %invoke.cont266
  %call.i979981 = invoke noundef nonnull align 8 dereferenceable(8) ptr @_ZNSt3__113basic_ostreamIcNS_11char_traitsIcEEElsEi(ptr noundef nonnull align 8 dereferenceable(8) %.pr1439.pr.pr.pr, i32 noundef 359)
          to label %invoke.cont270 unwind label %lpad269

invoke.cont270:                                   ; preds = %if.then.i980
  %.pr1441 = load ptr, ptr %cond-lvalue246, align 8, !tbaa !18
  %tobool.not.i983 = icmp eq ptr %.pr1441, null
  br i1 %tobool.not.i983, label %invoke.cont282, label %if.then.i985

if.then.i985:                                     ; preds = %invoke.cont270
  %call1.i.i987 = invoke noundef nonnull align 8 dereferenceable(8) ptr @_ZNSt3__124__put_character_sequenceB7v170000IcNS_11char_traitsIcEEEERNS_13basic_ostreamIT_T0_EES7_PKS4_m(ptr noundef nonnull align 8 dereferenceable(8) %.pr1441, ptr noundef nonnull @.str.104, i64 noundef 2)
          to label %invoke.cont272 unwind label %lpad269

invoke.cont272:                                   ; preds = %if.then.i985
  %.pr1443.pr.pr.pr = load ptr, ptr %cond-lvalue246, align 8, !tbaa !18
  %tobool.not.i989 = icmp eq ptr %.pr1443.pr.pr.pr, null
  br i1 %tobool.not.i989, label %invoke.cont282, label %if.then.i991

if.then.i991:                                     ; preds = %invoke.cont272
  %call1.i.i993 = invoke noundef nonnull align 8 dereferenceable(8) ptr @_ZNSt3__124__put_character_sequenceB7v170000IcNS_11char_traitsIcEEEERNS_13basic_ostreamIT_T0_EES7_PKS4_m(ptr noundef nonnull align 8 dereferenceable(8) %.pr1443.pr.pr.pr, ptr noundef nonnull @.str.106, i64 noundef 10)
          to label %invoke.cont274 unwind label %lpad269

invoke.cont274:                                   ; preds = %if.then.i991
  %.pr1445 = load ptr, ptr %cond-lvalue246, align 8, !tbaa !18
  %tobool.not.i995 = icmp eq ptr %.pr1445, null
  br i1 %tobool.not.i995, label %invoke.cont282, label %if.then.i997

if.then.i997:                                     ; preds = %invoke.cont274
  %call1.i.i999 = invoke noundef nonnull align 8 dereferenceable(8) ptr @_ZNSt3__124__put_character_sequenceB7v170000IcNS_11char_traitsIcEEEERNS_13basic_ostreamIT_T0_EES7_PKS4_m(ptr noundef nonnull align 8 dereferenceable(8) %.pr1445, ptr noundef nonnull @.str.107, i64 noundef 3)
          to label %invoke.cont276 unwind label %lpad269

invoke.cont276:                                   ; preds = %if.then.i997
  %.pr1447.pr.pr.pr = load ptr, ptr %cond-lvalue246, align 8, !tbaa !18
  %tobool.not.i1001 = icmp eq ptr %.pr1447.pr.pr.pr, null
  br i1 %tobool.not.i1001, label %invoke.cont282, label %if.then.i1003

if.then.i1003:                                    ; preds = %invoke.cont276
  %call1.i.i1005 = invoke noundef nonnull align 8 dereferenceable(8) ptr @_ZNSt3__124__put_character_sequenceB7v170000IcNS_11char_traitsIcEEEERNS_13basic_ostreamIT_T0_EES7_PKS4_m(ptr noundef nonnull align 8 dereferenceable(8) %.pr1447.pr.pr.pr, ptr noundef nonnull @.str.108, i64 noundef 1)
          to label %invoke.cont278 unwind label %lpad269

invoke.cont278:                                   ; preds = %if.then.i1003
  %.pr1449 = load ptr, ptr %cond-lvalue246, align 8, !tbaa !18
  %tobool.not.i1007 = icmp eq ptr %.pr1449, null
  br i1 %tobool.not.i1007, label %invoke.cont282, label %if.then.i1009

if.then.i1009:                                    ; preds = %invoke.cont278
  %call1.i.i1011 = invoke noundef nonnull align 8 dereferenceable(8) ptr @_ZNSt3__124__put_character_sequenceB7v170000IcNS_11char_traitsIcEEEERNS_13basic_ostreamIT_T0_EES7_PKS4_m(ptr noundef nonnull align 8 dereferenceable(8) %.pr1449, ptr noundef nonnull @.str.24, i64 noundef 3)
          to label %invoke.cont280 unwind label %lpad269

invoke.cont280:                                   ; preds = %if.then.i1009
  %.pr1451.pr.pr.pr = load ptr, ptr %cond-lvalue246, align 8, !tbaa !18
  %tobool.not.i1013 = icmp eq ptr %.pr1451.pr.pr.pr, null
  br i1 %tobool.not.i1013, label %invoke.cont282, label %if.then.i1015

if.then.i1015:                                    ; preds = %invoke.cont280
  %call1.i.i1017 = invoke noundef nonnull align 8 dereferenceable(8) ptr @_ZNSt3__124__put_character_sequenceB7v170000IcNS_11char_traitsIcEEEERNS_13basic_ostreamIT_T0_EES7_PKS4_m(ptr noundef nonnull align 8 dereferenceable(8) %.pr1451.pr.pr.pr, ptr noundef nonnull @.str.109, i64 noundef 1)
          to label %invoke.cont282 unwind label %lpad269

invoke.cont282:                                   ; preds = %invoke.cont262, %invoke.cont260, %invoke.cont257, %invoke.cont255, %invoke.cont251, %invoke.cont249, %invoke.cont247, %cond.end245, %invoke.cont270, %invoke.cont272, %invoke.cont264, %invoke.cont266, %invoke.cont276, %invoke.cont274, %invoke.cont278, %invoke.cont280, %if.then.i1015
  %call.i10191021 = invoke noundef double @_ZNK7Results5GetAsIdEET_PKc(ptr noundef nonnull align 8 dereferenceable(48) %e, ptr noundef nonnull @.str.24)
          to label %invoke.cont286 unwind label %lpad285

invoke.cont286:                                   ; preds = %invoke.cont282
  %42 = load ptr, ptr %cond-lvalue246, align 8, !tbaa !18
  %tobool.not.i1023 = icmp eq ptr %42, null
  br i1 %tobool.not.i1023, label %invoke.cont296, label %if.then.i1025

if.then.i1025:                                    ; preds = %invoke.cont286
  %conv.i1020 = fptosi double %call.i10191021 to i32
  %call.i10241026 = invoke noundef nonnull align 8 dereferenceable(8) ptr @_ZNSt3__113basic_ostreamIcNS_11char_traitsIcEEElsEi(ptr noundef nonnull align 8 dereferenceable(8) %42, i32 noundef %conv.i1020)
          to label %invoke.cont288 unwind label %lpad285

invoke.cont288:                                   ; preds = %if.then.i1025
  %.pr1453 = load ptr, ptr %cond-lvalue246, align 8, !tbaa !18
  %tobool.not.i1028 = icmp eq ptr %.pr1453, null
  br i1 %tobool.not.i1028, label %invoke.cont296, label %if.then.i1030

if.then.i1030:                                    ; preds = %invoke.cont288
  %call1.i.i1032 = invoke noundef nonnull align 8 dereferenceable(8) ptr @_ZNSt3__124__put_character_sequenceB7v170000IcNS_11char_traitsIcEEEERNS_13basic_ostreamIT_T0_EES7_PKS4_m(ptr noundef nonnull align 8 dereferenceable(8) %.pr1453, ptr noundef nonnull @.str.110, i64 noundef 13)
          to label %invoke.cont290 unwind label %lpad285

invoke.cont290:                                   ; preds = %if.then.i1030
  %.pr1455 = load ptr, ptr %cond-lvalue246, align 8, !tbaa !18
  %tobool.not.i1034 = icmp eq ptr %.pr1455, null
  br i1 %tobool.not.i1034, label %invoke.cont296, label %if.then.i1036

if.then.i1036:                                    ; preds = %invoke.cont290
  %call.i10351037 = invoke noundef nonnull align 8 dereferenceable(8) ptr @_ZNSt3__113basic_ostreamIcNS_11char_traitsIcEEElsEi(ptr noundef nonnull align 8 dereferenceable(8) %.pr1455, i32 noundef 8)
          to label %invoke.cont294 unwind label %lpad293

invoke.cont294:                                   ; preds = %if.then.i1036
  %.pr1457.pr = load ptr, ptr %cond-lvalue246, align 8, !tbaa !18
  %tobool.not.i1039 = icmp eq ptr %.pr1457.pr, null
  br i1 %tobool.not.i1039, label %invoke.cont296, label %if.then.i1041

if.then.i1041:                                    ; preds = %invoke.cont294
  %call1.i.i1043 = invoke noundef nonnull align 8 dereferenceable(8) ptr @_ZNSt3__124__put_character_sequenceB7v170000IcNS_11char_traitsIcEEEERNS_13basic_ostreamIT_T0_EES7_PKS4_m(ptr noundef nonnull align 8 dereferenceable(8) %.pr1457.pr, ptr noundef nonnull @.str.102, i64 noundef 1)
          to label %invoke.cont296 unwind label %lpad293

invoke.cont296:                                   ; preds = %invoke.cont288, %invoke.cont286, %invoke.cont290, %invoke.cont294, %if.then.i1041
  br i1 %cmp235.not, label %cleanup.done312, label %cleanup.action303

cleanup.action303:                                ; preds = %invoke.cont296
  call void @_ZN9benchmark8internal12CheckHandlerD2Ev(ptr noundef nonnull align 8 dereferenceable(8) %ref.tmp239) #25
  unreachable

ehcleanup222:                                     ; preds = %lpad171, %lpad202, %lpad210, %lpad186, %lpad159
  %.pn510.pn.pn.pn = phi { ptr, i32 } [ %31, %lpad159 ], [ %32, %lpad171 ], [ %33, %lpad186 ], [ %35, %lpad210 ], [ %34, %lpad202 ]
  br i1 %cmp152.not, label %eh.resume, label %cleanup.action473.invoke

lpad242:                                          ; preds = %if.then.i930, %if.then.i924, %if.then.i918
  %43 = landingpad { ptr, i32 }
          cleanup
  br label %ehcleanup305

lpad254:                                          ; preds = %if.then.i974, %if.then.i968, %if.then.i962, %if.then.i956, %if.then.i941, %if.then.i936
  %44 = landingpad { ptr, i32 }
          cleanup
  br label %ehcleanup305

lpad269:                                          ; preds = %if.then.i1015, %if.then.i1009, %if.then.i1003, %if.then.i997, %if.then.i991, %if.then.i985, %if.then.i980
  %45 = landingpad { ptr, i32 }
          cleanup
  br label %ehcleanup305

lpad285:                                          ; preds = %if.then.i1030, %if.then.i1025, %invoke.cont282
  %46 = landingpad { ptr, i32 }
          cleanup
  br label %ehcleanup305

lpad293:                                          ; preds = %if.then.i1041, %if.then.i1036
  %47 = landingpad { ptr, i32 }
          cleanup
  br label %ehcleanup305

cleanup.done312:                                  ; preds = %invoke.cont296
  %call.i1045 = call noundef double @_ZNK7Results5GetAsIdEET_PKc(ptr noundef nonnull align 8 dereferenceable(48) %e, ptr noundef nonnull @.str.25)
  %conv.i1046 = fptosi double %call.i1045 to i32
  %cmp318.not = icmp eq i32 %conv.i1046, 16
  br i1 %cmp318.not, label %cond.true319, label %cond.false321

cond.true319:                                     ; preds = %cleanup.done312
  %48 = load atomic i8, ptr @_ZGVZN9benchmark8internal18GetNullLogInstanceEvE3log acquire, align 8
  %guard.uninitialized.i1047 = icmp eq i8 %48, 0
  br i1 %guard.uninitialized.i1047, label %init.check.i1049, label %cond.end328, !prof !17

init.check.i1049:                                 ; preds = %cond.true319
  %49 = call i32 @__cxa_guard_acquire(ptr nonnull @_ZGVZN9benchmark8internal18GetNullLogInstanceEvE3log) #23
  %tobool.not.i1048 = icmp eq i32 %49, 0
  br i1 %tobool.not.i1048, label %cond.end328, label %init.i1050

init.i1050:                                       ; preds = %init.check.i1049
  store ptr null, ptr @_ZZN9benchmark8internal18GetNullLogInstanceEvE3log, align 8, !tbaa !18
  call void @__cxa_guard_release(ptr nonnull @_ZGVZN9benchmark8internal18GetNullLogInstanceEvE3log) #23
  br label %cond.end328

cond.false321:                                    ; preds = %cleanup.done312
  call void @llvm.lifetime.start.p0(i64 8, ptr nonnull %ref.tmp322) #23
  call void @_ZN9benchmark8internal12CheckHandlerC2EPKcS3_S3_i(ptr noundef nonnull align 8 dereferenceable(8) %ref.tmp322, ptr noundef nonnull @.str.114, ptr noundef nonnull @.str.101, ptr noundef nonnull @__func__._Z12CheckTabularRK7Results, i32 noundef 360)
  %50 = load ptr, ptr %ref.tmp322, align 8, !tbaa !21
  br label %cond.end328

cond.end328:                                      ; preds = %init.i1050, %init.check.i1049, %cond.true319, %cond.false321
  %cond-lvalue329 = phi ptr [ %50, %cond.false321 ], [ @_ZZN9benchmark8internal18GetNullLogInstanceEvE3log, %cond.true319 ], [ @_ZZN9benchmark8internal18GetNullLogInstanceEvE3log, %init.check.i1049 ], [ @_ZZN9benchmark8internal18GetNullLogInstanceEvE3log, %init.i1050 ]
  %51 = load ptr, ptr %cond-lvalue329, align 8, !tbaa !18
  %tobool.not.i1052 = icmp eq ptr %51, null
  br i1 %tobool.not.i1052, label %invoke.cont365, label %if.then.i1054

if.then.i1054:                                    ; preds = %cond.end328
  %call1.i.i1056 = invoke noundef nonnull align 8 dereferenceable(8) ptr @_ZNSt3__124__put_character_sequenceB7v170000IcNS_11char_traitsIcEEEERNS_13basic_ostreamIT_T0_EES7_PKS4_m(ptr noundef nonnull align 8 dereferenceable(8) %51, ptr noundef nonnull @.str.102, i64 noundef 1)
          to label %invoke.cont330 unwind label %lpad325

invoke.cont330:                                   ; preds = %if.then.i1054
  %.pr1459 = load ptr, ptr %cond-lvalue329, align 8, !tbaa !18
  %tobool.not.i1058 = icmp eq ptr %.pr1459, null
  br i1 %tobool.not.i1058, label %invoke.cont365, label %if.then.i1060

if.then.i1060:                                    ; preds = %invoke.cont330
  %call1.i.i1062 = invoke noundef nonnull align 8 dereferenceable(8) ptr @_ZNSt3__124__put_character_sequenceB7v170000IcNS_11char_traitsIcEEEERNS_13basic_ostreamIT_T0_EES7_PKS4_m(ptr noundef nonnull align 8 dereferenceable(8) %.pr1459, ptr noundef nonnull @.str.101, i64 noundef 117)
          to label %invoke.cont332 unwind label %lpad325

invoke.cont332:                                   ; preds = %if.then.i1060
  %.pr1461 = load ptr, ptr %cond-lvalue329, align 8, !tbaa !18
  %tobool.not.i1064 = icmp eq ptr %.pr1461, null
  br i1 %tobool.not.i1064, label %invoke.cont365, label %if.then.i1066

if.then.i1066:                                    ; preds = %invoke.cont332
  %call1.i.i1068 = invoke noundef nonnull align 8 dereferenceable(8) ptr @_ZNSt3__124__put_character_sequenceB7v170000IcNS_11char_traitsIcEEEERNS_13basic_ostreamIT_T0_EES7_PKS4_m(ptr noundef nonnull align 8 dereferenceable(8) %.pr1461, ptr noundef nonnull @.str.103, i64 noundef 1)
          to label %invoke.cont334 unwind label %lpad325

invoke.cont334:                                   ; preds = %if.then.i1066
  %.pr1463.pr = load ptr, ptr %cond-lvalue329, align 8, !tbaa !18
  %tobool.not.i1070 = icmp eq ptr %.pr1463.pr, null
  br i1 %tobool.not.i1070, label %invoke.cont365, label %if.then.i1072

if.then.i1072:                                    ; preds = %invoke.cont334
  %call.i10711073 = invoke noundef nonnull align 8 dereferenceable(8) ptr @_ZNSt3__113basic_ostreamIcNS_11char_traitsIcEEElsEi(ptr noundef nonnull align 8 dereferenceable(8) %.pr1463.pr, i32 noundef 360)
          to label %invoke.cont338 unwind label %lpad337

invoke.cont338:                                   ; preds = %if.then.i1072
  %.pr1465 = load ptr, ptr %cond-lvalue329, align 8, !tbaa !18
  %tobool.not.i1075 = icmp eq ptr %.pr1465, null
  br i1 %tobool.not.i1075, label %invoke.cont365, label %if.then.i1077

if.then.i1077:                                    ; preds = %invoke.cont338
  %call1.i.i1079 = invoke noundef nonnull align 8 dereferenceable(8) ptr @_ZNSt3__124__put_character_sequenceB7v170000IcNS_11char_traitsIcEEEERNS_13basic_ostreamIT_T0_EES7_PKS4_m(ptr noundef nonnull align 8 dereferenceable(8) %.pr1465, ptr noundef nonnull @.str.104, i64 noundef 2)
          to label %invoke.cont340 unwind label %lpad337

invoke.cont340:                                   ; preds = %if.then.i1077
  %.pr1467.pr.pr = load ptr, ptr %cond-lvalue329, align 8, !tbaa !18
  %tobool.not.i1081 = icmp eq ptr %.pr1467.pr.pr, null
  br i1 %tobool.not.i1081, label %invoke.cont365, label %if.then.i1092

if.then.i1092:                                    ; preds = %invoke.cont340
  %bf.load.i.i.i.i.i1082 = load i8, ptr %e, align 8
  %bf.clear.i.i.i.i.i1083 = and i8 %bf.load.i.i.i.i.i1082, 1
  %tobool.i.not.i.i.i.i1084 = icmp eq i8 %bf.clear.i.i.i.i.i1083, 0
  %__data_.i.i.i.i.i1085 = getelementptr inbounds %"struct.std::__1::basic_string<char>::__long", ptr %e, i64 0, i32 2
  %52 = load ptr, ptr %__data_.i.i.i.i.i1085, align 8
  %__data_.i4.i.i.i.i1086 = getelementptr inbounds %"struct.std::__1::basic_string<char>::__short", ptr %e, i64 0, i32 2
  %cond.i.i.i.i1087 = select i1 %tobool.i.not.i.i.i.i1084, ptr %__data_.i4.i.i.i.i1086, ptr %52
  %__size_.i.i.i.i1088 = getelementptr inbounds %"struct.std::__1::basic_string<char>::__long", ptr %e, i64 0, i32 1
  %53 = load i64, ptr %__size_.i.i.i.i1088, align 8
  %bf.lshr.i.i.i.i1089 = lshr i8 %bf.load.i.i.i.i.i1082, 1
  %conv.i.i.i.i1090 = zext i8 %bf.lshr.i.i.i.i1089 to i64
  %cond.i.i.i1091 = select i1 %tobool.i.not.i.i.i.i1084, i64 %conv.i.i.i.i1090, i64 %53
  %call2.i.i1094 = invoke noundef nonnull align 8 dereferenceable(8) ptr @_ZNSt3__124__put_character_sequenceB7v170000IcNS_11char_traitsIcEEEERNS_13basic_ostreamIT_T0_EES7_PKS4_m(ptr noundef nonnull align 8 dereferenceable(8) %.pr1467.pr.pr, ptr noundef %cond.i.i.i.i1087, i64 noundef %cond.i.i.i1091)
          to label %invoke.cont343 unwind label %lpad337

invoke.cont343:                                   ; preds = %if.then.i1092
  %.pr1469 = load ptr, ptr %cond-lvalue329, align 8, !tbaa !18
  %tobool.not.i1096 = icmp eq ptr %.pr1469, null
  br i1 %tobool.not.i1096, label %invoke.cont365, label %if.then.i1098

if.then.i1098:                                    ; preds = %invoke.cont343
  %call1.i.i1100 = invoke noundef nonnull align 8 dereferenceable(8) ptr @_ZNSt3__124__put_character_sequenceB7v170000IcNS_11char_traitsIcEEEERNS_13basic_ostreamIT_T0_EES7_PKS4_m(ptr noundef nonnull align 8 dereferenceable(8) %.pr1469, ptr noundef nonnull @.str.105, i64 noundef 2)
          to label %invoke.cont345 unwind label %lpad337

invoke.cont345:                                   ; preds = %if.then.i1098
  %.pr1471.pr.pr = load ptr, ptr %cond-lvalue329, align 8, !tbaa !18
  %tobool.not.i1102 = icmp eq ptr %.pr1471.pr.pr, null
  br i1 %tobool.not.i1102, label %invoke.cont365, label %if.then.i1104

if.then.i1104:                                    ; preds = %invoke.cont345
  %call1.i.i1106 = invoke noundef nonnull align 8 dereferenceable(8) ptr @_ZNSt3__124__put_character_sequenceB7v170000IcNS_11char_traitsIcEEEERNS_13basic_ostreamIT_T0_EES7_PKS4_m(ptr noundef nonnull align 8 dereferenceable(8) %.pr1471.pr.pr, ptr noundef nonnull @.str.101, i64 noundef 117)
          to label %invoke.cont347 unwind label %lpad337

invoke.cont347:                                   ; preds = %if.then.i1104
  %.pr1473 = load ptr, ptr %cond-lvalue329, align 8, !tbaa !18
  %tobool.not.i1108 = icmp eq ptr %.pr1473, null
  br i1 %tobool.not.i1108, label %invoke.cont365, label %if.then.i1110

if.then.i1110:                                    ; preds = %invoke.cont347
  %call1.i.i1112 = invoke noundef nonnull align 8 dereferenceable(8) ptr @_ZNSt3__124__put_character_sequenceB7v170000IcNS_11char_traitsIcEEEERNS_13basic_ostreamIT_T0_EES7_PKS4_m(ptr noundef nonnull align 8 dereferenceable(8) %.pr1473, ptr noundef nonnull @.str.103, i64 noundef 1)
          to label %invoke.cont349 unwind label %lpad337

invoke.cont349:                                   ; preds = %if.then.i1110
  %.pr1475.pr.pr.pr = load ptr, ptr %cond-lvalue329, align 8, !tbaa !18
  %tobool.not.i1114 = icmp eq ptr %.pr1475.pr.pr.pr, null
  br i1 %tobool.not.i1114, label %invoke.cont365, label %if.then.i1116

if.then.i1116:                                    ; preds = %invoke.cont349
  %call.i11151117 = invoke noundef nonnull align 8 dereferenceable(8) ptr @_ZNSt3__113basic_ostreamIcNS_11char_traitsIcEEElsEi(ptr noundef nonnull align 8 dereferenceable(8) %.pr1475.pr.pr.pr, i32 noundef 360)
          to label %invoke.cont353 unwind label %lpad352

invoke.cont353:                                   ; preds = %if.then.i1116
  %.pr1477 = load ptr, ptr %cond-lvalue329, align 8, !tbaa !18
  %tobool.not.i1119 = icmp eq ptr %.pr1477, null
  br i1 %tobool.not.i1119, label %invoke.cont365, label %if.then.i1121

if.then.i1121:                                    ; preds = %invoke.cont353
  %call1.i.i1123 = invoke noundef nonnull align 8 dereferenceable(8) ptr @_ZNSt3__124__put_character_sequenceB7v170000IcNS_11char_traitsIcEEEERNS_13basic_ostreamIT_T0_EES7_PKS4_m(ptr noundef nonnull align 8 dereferenceable(8) %.pr1477, ptr noundef nonnull @.str.104, i64 noundef 2)
          to label %invoke.cont355 unwind label %lpad352

invoke.cont355:                                   ; preds = %if.then.i1121
  %.pr1479.pr.pr.pr = load ptr, ptr %cond-lvalue329, align 8, !tbaa !18
  %tobool.not.i1125 = icmp eq ptr %.pr1479.pr.pr.pr, null
  br i1 %tobool.not.i1125, label %invoke.cont365, label %if.then.i1127

if.then.i1127:                                    ; preds = %invoke.cont355
  %call1.i.i1129 = invoke noundef nonnull align 8 dereferenceable(8) ptr @_ZNSt3__124__put_character_sequenceB7v170000IcNS_11char_traitsIcEEEERNS_13basic_ostreamIT_T0_EES7_PKS4_m(ptr noundef nonnull align 8 dereferenceable(8) %.pr1479.pr.pr.pr, ptr noundef nonnull @.str.106, i64 noundef 10)
          to label %invoke.cont357 unwind label %lpad352

invoke.cont357:                                   ; preds = %if.then.i1127
  %.pr1481 = load ptr, ptr %cond-lvalue329, align 8, !tbaa !18
  %tobool.not.i1131 = icmp eq ptr %.pr1481, null
  br i1 %tobool.not.i1131, label %invoke.cont365, label %if.then.i1133

if.then.i1133:                                    ; preds = %invoke.cont357
  %call1.i.i1135 = invoke noundef nonnull align 8 dereferenceable(8) ptr @_ZNSt3__124__put_character_sequenceB7v170000IcNS_11char_traitsIcEEEERNS_13basic_ostreamIT_T0_EES7_PKS4_m(ptr noundef nonnull align 8 dereferenceable(8) %.pr1481, ptr noundef nonnull @.str.107, i64 noundef 3)
          to label %invoke.cont359 unwind label %lpad352

invoke.cont359:                                   ; preds = %if.then.i1133
  %.pr1483.pr.pr.pr = load ptr, ptr %cond-lvalue329, align 8, !tbaa !18
  %tobool.not.i1137 = icmp eq ptr %.pr1483.pr.pr.pr, null
  br i1 %tobool.not.i1137, label %invoke.cont365, label %if.then.i1139

if.then.i1139:                                    ; preds = %invoke.cont359
  %call1.i.i1141 = invoke noundef nonnull align 8 dereferenceable(8) ptr @_ZNSt3__124__put_character_sequenceB7v170000IcNS_11char_traitsIcEEEERNS_13basic_ostreamIT_T0_EES7_PKS4_m(ptr noundef nonnull align 8 dereferenceable(8) %.pr1483.pr.pr.pr, ptr noundef nonnull @.str.108, i64 noundef 1)
          to label %invoke.cont361 unwind label %lpad352

invoke.cont361:                                   ; preds = %if.then.i1139
  %.pr1485 = load ptr, ptr %cond-lvalue329, align 8, !tbaa !18
  %tobool.not.i1143 = icmp eq ptr %.pr1485, null
  br i1 %tobool.not.i1143, label %invoke.cont365, label %if.then.i1145

if.then.i1145:                                    ; preds = %invoke.cont361
  %call1.i.i1147 = invoke noundef nonnull align 8 dereferenceable(8) ptr @_ZNSt3__124__put_character_sequenceB7v170000IcNS_11char_traitsIcEEEERNS_13basic_ostreamIT_T0_EES7_PKS4_m(ptr noundef nonnull align 8 dereferenceable(8) %.pr1485, ptr noundef nonnull @.str.25, i64 noundef 4)
          to label %invoke.cont363 unwind label %lpad352

invoke.cont363:                                   ; preds = %if.then.i1145
  %.pr1487.pr.pr.pr = load ptr, ptr %cond-lvalue329, align 8, !tbaa !18
  %tobool.not.i1148 = icmp eq ptr %.pr1487.pr.pr.pr, null
  br i1 %tobool.not.i1148, label %invoke.cont365, label %if.then.i1150

if.then.i1150:                                    ; preds = %invoke.cont363
  %call1.i.i1152 = invoke noundef nonnull align 8 dereferenceable(8) ptr @_ZNSt3__124__put_character_sequenceB7v170000IcNS_11char_traitsIcEEEERNS_13basic_ostreamIT_T0_EES7_PKS4_m(ptr noundef nonnull align 8 dereferenceable(8) %.pr1487.pr.pr.pr, ptr noundef nonnull @.str.109, i64 noundef 1)
          to label %invoke.cont365 unwind label %lpad352

invoke.cont365:                                   ; preds = %invoke.cont345, %invoke.cont343, %invoke.cont340, %invoke.cont338, %invoke.cont334, %invoke.cont332, %invoke.cont330, %cond.end328, %invoke.cont353, %invoke.cont355, %invoke.cont347, %invoke.cont349, %invoke.cont359, %invoke.cont357, %invoke.cont361, %invoke.cont363, %if.then.i1150
  %call.i11541156 = invoke noundef double @_ZNK7Results5GetAsIdEET_PKc(ptr noundef nonnull align 8 dereferenceable(48) %e, ptr noundef nonnull @.str.25)
          to label %invoke.cont369 unwind label %lpad368

invoke.cont369:                                   ; preds = %invoke.cont365
  %54 = load ptr, ptr %cond-lvalue329, align 8, !tbaa !18
  %tobool.not.i1158 = icmp eq ptr %54, null
  br i1 %tobool.not.i1158, label %invoke.cont379, label %if.then.i1160

if.then.i1160:                                    ; preds = %invoke.cont369
  %conv.i1155 = fptosi double %call.i11541156 to i32
  %call.i11591161 = invoke noundef nonnull align 8 dereferenceable(8) ptr @_ZNSt3__113basic_ostreamIcNS_11char_traitsIcEEElsEi(ptr noundef nonnull align 8 dereferenceable(8) %54, i32 noundef %conv.i1155)
          to label %invoke.cont371 unwind label %lpad368

invoke.cont371:                                   ; preds = %if.then.i1160
  %.pr1489 = load ptr, ptr %cond-lvalue329, align 8, !tbaa !18
  %tobool.not.i1163 = icmp eq ptr %.pr1489, null
  br i1 %tobool.not.i1163, label %invoke.cont379, label %if.then.i1165

if.then.i1165:                                    ; preds = %invoke.cont371
  %call1.i.i1167 = invoke noundef nonnull align 8 dereferenceable(8) ptr @_ZNSt3__124__put_character_sequenceB7v170000IcNS_11char_traitsIcEEEERNS_13basic_ostreamIT_T0_EES7_PKS4_m(ptr noundef nonnull align 8 dereferenceable(8) %.pr1489, ptr noundef nonnull @.str.110, i64 noundef 13)
          to label %invoke.cont373 unwind label %lpad368

invoke.cont373:                                   ; preds = %if.then.i1165
  %.pr1491 = load ptr, ptr %cond-lvalue329, align 8, !tbaa !18
  %tobool.not.i1169 = icmp eq ptr %.pr1491, null
  br i1 %tobool.not.i1169, label %invoke.cont379, label %if.then.i1171

if.then.i1171:                                    ; preds = %invoke.cont373
  %call.i11701172 = invoke noundef nonnull align 8 dereferenceable(8) ptr @_ZNSt3__113basic_ostreamIcNS_11char_traitsIcEEElsEi(ptr noundef nonnull align 8 dereferenceable(8) %.pr1491, i32 noundef 16)
          to label %invoke.cont377 unwind label %lpad376

invoke.cont377:                                   ; preds = %if.then.i1171
  %.pr1493.pr = load ptr, ptr %cond-lvalue329, align 8, !tbaa !18
  %tobool.not.i1174 = icmp eq ptr %.pr1493.pr, null
  br i1 %tobool.not.i1174, label %invoke.cont379, label %if.then.i1176

if.then.i1176:                                    ; preds = %invoke.cont377
  %call1.i.i1178 = invoke noundef nonnull align 8 dereferenceable(8) ptr @_ZNSt3__124__put_character_sequenceB7v170000IcNS_11char_traitsIcEEEERNS_13basic_ostreamIT_T0_EES7_PKS4_m(ptr noundef nonnull align 8 dereferenceable(8) %.pr1493.pr, ptr noundef nonnull @.str.102, i64 noundef 1)
          to label %invoke.cont379 unwind label %lpad376

invoke.cont379:                                   ; preds = %invoke.cont371, %invoke.cont369, %invoke.cont373, %invoke.cont377, %if.then.i1176
  br i1 %cmp318.not, label %cleanup.done395, label %cleanup.action386

cleanup.action386:                                ; preds = %invoke.cont379
  call void @_ZN9benchmark8internal12CheckHandlerD2Ev(ptr noundef nonnull align 8 dereferenceable(8) %ref.tmp322) #25
  unreachable

ehcleanup305:                                     ; preds = %lpad254, %lpad285, %lpad293, %lpad269, %lpad242
  %.pn515.pn.pn.pn = phi { ptr, i32 } [ %43, %lpad242 ], [ %44, %lpad254 ], [ %45, %lpad269 ], [ %47, %lpad293 ], [ %46, %lpad285 ]
  br i1 %cmp235.not, label %eh.resume, label %cleanup.action473.invoke

lpad325:                                          ; preds = %if.then.i1066, %if.then.i1060, %if.then.i1054
  %55 = landingpad { ptr, i32 }
          cleanup
  br label %ehcleanup388

lpad337:                                          ; preds = %if.then.i1110, %if.then.i1104, %if.then.i1098, %if.then.i1092, %if.then.i1077, %if.then.i1072
  %56 = landingpad { ptr, i32 }
          cleanup
  br label %ehcleanup388

lpad352:                                          ; preds = %if.then.i1150, %if.then.i1145, %if.then.i1139, %if.then.i1133, %if.then.i1127, %if.then.i1121, %if.then.i1116
  %57 = landingpad { ptr, i32 }
          cleanup
  br label %ehcleanup388

lpad368:                                          ; preds = %if.then.i1165, %if.then.i1160, %invoke.cont365
  %58 = landingpad { ptr, i32 }
          cleanup
  br label %ehcleanup388

lpad376:                                          ; preds = %if.then.i1176, %if.then.i1171
  %59 = landingpad { ptr, i32 }
          cleanup
  br label %ehcleanup388

cleanup.done395:                                  ; preds = %invoke.cont379
  %call.i1180 = call noundef double @_ZNK7Results5GetAsIdEET_PKc(ptr noundef nonnull align 8 dereferenceable(48) %e, ptr noundef nonnull @.str.26)
  %conv.i1181 = fptosi double %call.i1180 to i32
  %cmp401.not = icmp eq i32 %conv.i1181, 32
  br i1 %cmp401.not, label %cond.true402, label %cond.false404

cond.true402:                                     ; preds = %cleanup.done395
  %60 = load atomic i8, ptr @_ZGVZN9benchmark8internal18GetNullLogInstanceEvE3log acquire, align 8
  %guard.uninitialized.i1182 = icmp eq i8 %60, 0
  br i1 %guard.uninitialized.i1182, label %init.check.i1184, label %cond.end411, !prof !17

init.check.i1184:                                 ; preds = %cond.true402
  %61 = call i32 @__cxa_guard_acquire(ptr nonnull @_ZGVZN9benchmark8internal18GetNullLogInstanceEvE3log) #23
  %tobool.not.i1183 = icmp eq i32 %61, 0
  br i1 %tobool.not.i1183, label %cond.end411, label %init.i1185

init.i1185:                                       ; preds = %init.check.i1184
  store ptr null, ptr @_ZZN9benchmark8internal18GetNullLogInstanceEvE3log, align 8, !tbaa !18
  call void @__cxa_guard_release(ptr nonnull @_ZGVZN9benchmark8internal18GetNullLogInstanceEvE3log) #23
  br label %cond.end411

cond.false404:                                    ; preds = %cleanup.done395
  call void @llvm.lifetime.start.p0(i64 8, ptr nonnull %ref.tmp405) #23
  call void @_ZN9benchmark8internal12CheckHandlerC2EPKcS3_S3_i(ptr noundef nonnull align 8 dereferenceable(8) %ref.tmp405, ptr noundef nonnull @.str.115, ptr noundef nonnull @.str.101, ptr noundef nonnull @__func__._Z12CheckTabularRK7Results, i32 noundef 361)
  %62 = load ptr, ptr %ref.tmp405, align 8, !tbaa !21
  br label %cond.end411

cond.end411:                                      ; preds = %init.i1185, %init.check.i1184, %cond.true402, %cond.false404
  %cond-lvalue412 = phi ptr [ %62, %cond.false404 ], [ @_ZZN9benchmark8internal18GetNullLogInstanceEvE3log, %cond.true402 ], [ @_ZZN9benchmark8internal18GetNullLogInstanceEvE3log, %init.check.i1184 ], [ @_ZZN9benchmark8internal18GetNullLogInstanceEvE3log, %init.i1185 ]
  %63 = load ptr, ptr %cond-lvalue412, align 8, !tbaa !18
  %tobool.not.i1187 = icmp eq ptr %63, null
  br i1 %tobool.not.i1187, label %invoke.cont448, label %if.then.i1189

if.then.i1189:                                    ; preds = %cond.end411
  %call1.i.i1191 = invoke noundef nonnull align 8 dereferenceable(8) ptr @_ZNSt3__124__put_character_sequenceB7v170000IcNS_11char_traitsIcEEEERNS_13basic_ostreamIT_T0_EES7_PKS4_m(ptr noundef nonnull align 8 dereferenceable(8) %63, ptr noundef nonnull @.str.102, i64 noundef 1)
          to label %invoke.cont413 unwind label %lpad408

invoke.cont413:                                   ; preds = %if.then.i1189
  %.pr1495 = load ptr, ptr %cond-lvalue412, align 8, !tbaa !18
  %tobool.not.i1193 = icmp eq ptr %.pr1495, null
  br i1 %tobool.not.i1193, label %invoke.cont448, label %if.then.i1195

if.then.i1195:                                    ; preds = %invoke.cont413
  %call1.i.i1197 = invoke noundef nonnull align 8 dereferenceable(8) ptr @_ZNSt3__124__put_character_sequenceB7v170000IcNS_11char_traitsIcEEEERNS_13basic_ostreamIT_T0_EES7_PKS4_m(ptr noundef nonnull align 8 dereferenceable(8) %.pr1495, ptr noundef nonnull @.str.101, i64 noundef 117)
          to label %invoke.cont415 unwind label %lpad408

invoke.cont415:                                   ; preds = %if.then.i1195
  %.pr1497 = load ptr, ptr %cond-lvalue412, align 8, !tbaa !18
  %tobool.not.i1199 = icmp eq ptr %.pr1497, null
  br i1 %tobool.not.i1199, label %invoke.cont448, label %if.then.i1201

if.then.i1201:                                    ; preds = %invoke.cont415
  %call1.i.i1203 = invoke noundef nonnull align 8 dereferenceable(8) ptr @_ZNSt3__124__put_character_sequenceB7v170000IcNS_11char_traitsIcEEEERNS_13basic_ostreamIT_T0_EES7_PKS4_m(ptr noundef nonnull align 8 dereferenceable(8) %.pr1497, ptr noundef nonnull @.str.103, i64 noundef 1)
          to label %invoke.cont417 unwind label %lpad408

invoke.cont417:                                   ; preds = %if.then.i1201
  %.pr1499.pr = load ptr, ptr %cond-lvalue412, align 8, !tbaa !18
  %tobool.not.i1205 = icmp eq ptr %.pr1499.pr, null
  br i1 %tobool.not.i1205, label %invoke.cont448, label %if.then.i1207

if.then.i1207:                                    ; preds = %invoke.cont417
  %call.i12061208 = invoke noundef nonnull align 8 dereferenceable(8) ptr @_ZNSt3__113basic_ostreamIcNS_11char_traitsIcEEElsEi(ptr noundef nonnull align 8 dereferenceable(8) %.pr1499.pr, i32 noundef 361)
          to label %invoke.cont421 unwind label %lpad420

invoke.cont421:                                   ; preds = %if.then.i1207
  %.pr1501 = load ptr, ptr %cond-lvalue412, align 8, !tbaa !18
  %tobool.not.i1210 = icmp eq ptr %.pr1501, null
  br i1 %tobool.not.i1210, label %invoke.cont448, label %if.then.i1212

if.then.i1212:                                    ; preds = %invoke.cont421
  %call1.i.i1214 = invoke noundef nonnull align 8 dereferenceable(8) ptr @_ZNSt3__124__put_character_sequenceB7v170000IcNS_11char_traitsIcEEEERNS_13basic_ostreamIT_T0_EES7_PKS4_m(ptr noundef nonnull align 8 dereferenceable(8) %.pr1501, ptr noundef nonnull @.str.104, i64 noundef 2)
          to label %invoke.cont423 unwind label %lpad420

invoke.cont423:                                   ; preds = %if.then.i1212
  %.pr1503.pr.pr = load ptr, ptr %cond-lvalue412, align 8, !tbaa !18
  %tobool.not.i1216 = icmp eq ptr %.pr1503.pr.pr, null
  br i1 %tobool.not.i1216, label %invoke.cont448, label %if.then.i1227

if.then.i1227:                                    ; preds = %invoke.cont423
  %bf.load.i.i.i.i.i1217 = load i8, ptr %e, align 8
  %bf.clear.i.i.i.i.i1218 = and i8 %bf.load.i.i.i.i.i1217, 1
  %tobool.i.not.i.i.i.i1219 = icmp eq i8 %bf.clear.i.i.i.i.i1218, 0
  %__data_.i.i.i.i.i1220 = getelementptr inbounds %"struct.std::__1::basic_string<char>::__long", ptr %e, i64 0, i32 2
  %64 = load ptr, ptr %__data_.i.i.i.i.i1220, align 8
  %__data_.i4.i.i.i.i1221 = getelementptr inbounds %"struct.std::__1::basic_string<char>::__short", ptr %e, i64 0, i32 2
  %cond.i.i.i.i1222 = select i1 %tobool.i.not.i.i.i.i1219, ptr %__data_.i4.i.i.i.i1221, ptr %64
  %__size_.i.i.i.i1223 = getelementptr inbounds %"struct.std::__1::basic_string<char>::__long", ptr %e, i64 0, i32 1
  %65 = load i64, ptr %__size_.i.i.i.i1223, align 8
  %bf.lshr.i.i.i.i1224 = lshr i8 %bf.load.i.i.i.i.i1217, 1
  %conv.i.i.i.i1225 = zext i8 %bf.lshr.i.i.i.i1224 to i64
  %cond.i.i.i1226 = select i1 %tobool.i.not.i.i.i.i1219, i64 %conv.i.i.i.i1225, i64 %65
  %call2.i.i1229 = invoke noundef nonnull align 8 dereferenceable(8) ptr @_ZNSt3__124__put_character_sequenceB7v170000IcNS_11char_traitsIcEEEERNS_13basic_ostreamIT_T0_EES7_PKS4_m(ptr noundef nonnull align 8 dereferenceable(8) %.pr1503.pr.pr, ptr noundef %cond.i.i.i.i1222, i64 noundef %cond.i.i.i1226)
          to label %invoke.cont426 unwind label %lpad420

invoke.cont426:                                   ; preds = %if.then.i1227
  %.pr1505 = load ptr, ptr %cond-lvalue412, align 8, !tbaa !18
  %tobool.not.i1231 = icmp eq ptr %.pr1505, null
  br i1 %tobool.not.i1231, label %invoke.cont448, label %if.then.i1233

if.then.i1233:                                    ; preds = %invoke.cont426
  %call1.i.i1235 = invoke noundef nonnull align 8 dereferenceable(8) ptr @_ZNSt3__124__put_character_sequenceB7v170000IcNS_11char_traitsIcEEEERNS_13basic_ostreamIT_T0_EES7_PKS4_m(ptr noundef nonnull align 8 dereferenceable(8) %.pr1505, ptr noundef nonnull @.str.105, i64 noundef 2)
          to label %invoke.cont428 unwind label %lpad420

invoke.cont428:                                   ; preds = %if.then.i1233
  %.pr1507.pr.pr = load ptr, ptr %cond-lvalue412, align 8, !tbaa !18
  %tobool.not.i1237 = icmp eq ptr %.pr1507.pr.pr, null
  br i1 %tobool.not.i1237, label %invoke.cont448, label %if.then.i1239

if.then.i1239:                                    ; preds = %invoke.cont428
  %call1.i.i1241 = invoke noundef nonnull align 8 dereferenceable(8) ptr @_ZNSt3__124__put_character_sequenceB7v170000IcNS_11char_traitsIcEEEERNS_13basic_ostreamIT_T0_EES7_PKS4_m(ptr noundef nonnull align 8 dereferenceable(8) %.pr1507.pr.pr, ptr noundef nonnull @.str.101, i64 noundef 117)
          to label %invoke.cont430 unwind label %lpad420

invoke.cont430:                                   ; preds = %if.then.i1239
  %.pr1509 = load ptr, ptr %cond-lvalue412, align 8, !tbaa !18
  %tobool.not.i1243 = icmp eq ptr %.pr1509, null
  br i1 %tobool.not.i1243, label %invoke.cont448, label %if.then.i1245

if.then.i1245:                                    ; preds = %invoke.cont430
  %call1.i.i1247 = invoke noundef nonnull align 8 dereferenceable(8) ptr @_ZNSt3__124__put_character_sequenceB7v170000IcNS_11char_traitsIcEEEERNS_13basic_ostreamIT_T0_EES7_PKS4_m(ptr noundef nonnull align 8 dereferenceable(8) %.pr1509, ptr noundef nonnull @.str.103, i64 noundef 1)
          to label %invoke.cont432 unwind label %lpad420

invoke.cont432:                                   ; preds = %if.then.i1245
  %.pr1511.pr.pr.pr = load ptr, ptr %cond-lvalue412, align 8, !tbaa !18
  %tobool.not.i1249 = icmp eq ptr %.pr1511.pr.pr.pr, null
  br i1 %tobool.not.i1249, label %invoke.cont448, label %if.then.i1251

if.then.i1251:                                    ; preds = %invoke.cont432
  %call.i12501252 = invoke noundef nonnull align 8 dereferenceable(8) ptr @_ZNSt3__113basic_ostreamIcNS_11char_traitsIcEEElsEi(ptr noundef nonnull align 8 dereferenceable(8) %.pr1511.pr.pr.pr, i32 noundef 361)
          to label %invoke.cont436 unwind label %lpad435

invoke.cont436:                                   ; preds = %if.then.i1251
  %.pr1513 = load ptr, ptr %cond-lvalue412, align 8, !tbaa !18
  %tobool.not.i1254 = icmp eq ptr %.pr1513, null
  br i1 %tobool.not.i1254, label %invoke.cont448, label %if.then.i1256

if.then.i1256:                                    ; preds = %invoke.cont436
  %call1.i.i1258 = invoke noundef nonnull align 8 dereferenceable(8) ptr @_ZNSt3__124__put_character_sequenceB7v170000IcNS_11char_traitsIcEEEERNS_13basic_ostreamIT_T0_EES7_PKS4_m(ptr noundef nonnull align 8 dereferenceable(8) %.pr1513, ptr noundef nonnull @.str.104, i64 noundef 2)
          to label %invoke.cont438 unwind label %lpad435

invoke.cont438:                                   ; preds = %if.then.i1256
  %.pr1515.pr.pr.pr = load ptr, ptr %cond-lvalue412, align 8, !tbaa !18
  %tobool.not.i1260 = icmp eq ptr %.pr1515.pr.pr.pr, null
  br i1 %tobool.not.i1260, label %invoke.cont448, label %if.then.i1262

if.then.i1262:                                    ; preds = %invoke.cont438
  %call1.i.i1264 = invoke noundef nonnull align 8 dereferenceable(8) ptr @_ZNSt3__124__put_character_sequenceB7v170000IcNS_11char_traitsIcEEEERNS_13basic_ostreamIT_T0_EES7_PKS4_m(ptr noundef nonnull align 8 dereferenceable(8) %.pr1515.pr.pr.pr, ptr noundef nonnull @.str.106, i64 noundef 10)
          to label %invoke.cont440 unwind label %lpad435

invoke.cont440:                                   ; preds = %if.then.i1262
  %.pr1517 = load ptr, ptr %cond-lvalue412, align 8, !tbaa !18
  %tobool.not.i1266 = icmp eq ptr %.pr1517, null
  br i1 %tobool.not.i1266, label %invoke.cont448, label %if.then.i1268

if.then.i1268:                                    ; preds = %invoke.cont440
  %call1.i.i1270 = invoke noundef nonnull align 8 dereferenceable(8) ptr @_ZNSt3__124__put_character_sequenceB7v170000IcNS_11char_traitsIcEEEERNS_13basic_ostreamIT_T0_EES7_PKS4_m(ptr noundef nonnull align 8 dereferenceable(8) %.pr1517, ptr noundef nonnull @.str.107, i64 noundef 3)
          to label %invoke.cont442 unwind label %lpad435

invoke.cont442:                                   ; preds = %if.then.i1268
  %.pr1519.pr.pr.pr = load ptr, ptr %cond-lvalue412, align 8, !tbaa !18
  %tobool.not.i1272 = icmp eq ptr %.pr1519.pr.pr.pr, null
  br i1 %tobool.not.i1272, label %invoke.cont448, label %if.then.i1274

if.then.i1274:                                    ; preds = %invoke.cont442
  %call1.i.i1276 = invoke noundef nonnull align 8 dereferenceable(8) ptr @_ZNSt3__124__put_character_sequenceB7v170000IcNS_11char_traitsIcEEEERNS_13basic_ostreamIT_T0_EES7_PKS4_m(ptr noundef nonnull align 8 dereferenceable(8) %.pr1519.pr.pr.pr, ptr noundef nonnull @.str.108, i64 noundef 1)
          to label %invoke.cont444 unwind label %lpad435

invoke.cont444:                                   ; preds = %if.then.i1274
  %.pr1521 = load ptr, ptr %cond-lvalue412, align 8, !tbaa !18
  %tobool.not.i1278 = icmp eq ptr %.pr1521, null
  br i1 %tobool.not.i1278, label %invoke.cont448, label %if.then.i1280

if.then.i1280:                                    ; preds = %invoke.cont444
  %call1.i.i1282 = invoke noundef nonnull align 8 dereferenceable(8) ptr @_ZNSt3__124__put_character_sequenceB7v170000IcNS_11char_traitsIcEEEERNS_13basic_ostreamIT_T0_EES7_PKS4_m(ptr noundef nonnull align 8 dereferenceable(8) %.pr1521, ptr noundef nonnull @.str.26, i64 noundef 3)
          to label %invoke.cont446 unwind label %lpad435

invoke.cont446:                                   ; preds = %if.then.i1280
  %.pr1523.pr.pr.pr = load ptr, ptr %cond-lvalue412, align 8, !tbaa !18
  %tobool.not.i1284 = icmp eq ptr %.pr1523.pr.pr.pr, null
  br i1 %tobool.not.i1284, label %invoke.cont448, label %if.then.i1286

if.then.i1286:                                    ; preds = %invoke.cont446
  %call1.i.i1288 = invoke noundef nonnull align 8 dereferenceable(8) ptr @_ZNSt3__124__put_character_sequenceB7v170000IcNS_11char_traitsIcEEEERNS_13basic_ostreamIT_T0_EES7_PKS4_m(ptr noundef nonnull align 8 dereferenceable(8) %.pr1523.pr.pr.pr, ptr noundef nonnull @.str.109, i64 noundef 1)
          to label %invoke.cont448 unwind label %lpad435

invoke.cont448:                                   ; preds = %invoke.cont428, %invoke.cont426, %invoke.cont423, %invoke.cont421, %invoke.cont417, %invoke.cont415, %invoke.cont413, %cond.end411, %invoke.cont436, %invoke.cont438, %invoke.cont430, %invoke.cont432, %invoke.cont442, %invoke.cont440, %invoke.cont444, %invoke.cont446, %if.then.i1286
  %call.i12901292 = invoke noundef double @_ZNK7Results5GetAsIdEET_PKc(ptr noundef nonnull align 8 dereferenceable(48) %e, ptr noundef nonnull @.str.26)
          to label %invoke.cont452 unwind label %lpad451

invoke.cont452:                                   ; preds = %invoke.cont448
  %66 = load ptr, ptr %cond-lvalue412, align 8, !tbaa !18
  %tobool.not.i1294 = icmp eq ptr %66, null
  br i1 %tobool.not.i1294, label %invoke.cont462, label %if.then.i1296

if.then.i1296:                                    ; preds = %invoke.cont452
  %conv.i1291 = fptosi double %call.i12901292 to i32
  %call.i12951297 = invoke noundef nonnull align 8 dereferenceable(8) ptr @_ZNSt3__113basic_ostreamIcNS_11char_traitsIcEEElsEi(ptr noundef nonnull align 8 dereferenceable(8) %66, i32 noundef %conv.i1291)
          to label %invoke.cont454 unwind label %lpad451

invoke.cont454:                                   ; preds = %if.then.i1296
  %.pr1525 = load ptr, ptr %cond-lvalue412, align 8, !tbaa !18
  %tobool.not.i1299 = icmp eq ptr %.pr1525, null
  br i1 %tobool.not.i1299, label %invoke.cont462, label %if.then.i1301

if.then.i1301:                                    ; preds = %invoke.cont454
  %call1.i.i1303 = invoke noundef nonnull align 8 dereferenceable(8) ptr @_ZNSt3__124__put_character_sequenceB7v170000IcNS_11char_traitsIcEEEERNS_13basic_ostreamIT_T0_EES7_PKS4_m(ptr noundef nonnull align 8 dereferenceable(8) %.pr1525, ptr noundef nonnull @.str.110, i64 noundef 13)
          to label %invoke.cont456 unwind label %lpad451

invoke.cont456:                                   ; preds = %if.then.i1301
  %.pr1527 = load ptr, ptr %cond-lvalue412, align 8, !tbaa !18
  %tobool.not.i1305 = icmp eq ptr %.pr1527, null
  br i1 %tobool.not.i1305, label %invoke.cont462, label %if.then.i1307

if.then.i1307:                                    ; preds = %invoke.cont456
  %call.i13061308 = invoke noundef nonnull align 8 dereferenceable(8) ptr @_ZNSt3__113basic_ostreamIcNS_11char_traitsIcEEElsEi(ptr noundef nonnull align 8 dereferenceable(8) %.pr1527, i32 noundef 32)
          to label %invoke.cont460 unwind label %lpad459

invoke.cont460:                                   ; preds = %if.then.i1307
  %.pr1529.pr = load ptr, ptr %cond-lvalue412, align 8, !tbaa !18
  %tobool.not.i1310 = icmp eq ptr %.pr1529.pr, null
  br i1 %tobool.not.i1310, label %invoke.cont462, label %if.then.i1312

if.then.i1312:                                    ; preds = %invoke.cont460
  %call1.i.i1314 = invoke noundef nonnull align 8 dereferenceable(8) ptr @_ZNSt3__124__put_character_sequenceB7v170000IcNS_11char_traitsIcEEEERNS_13basic_ostreamIT_T0_EES7_PKS4_m(ptr noundef nonnull align 8 dereferenceable(8) %.pr1529.pr, ptr noundef nonnull @.str.102, i64 noundef 1)
          to label %invoke.cont462 unwind label %lpad459

invoke.cont462:                                   ; preds = %invoke.cont454, %invoke.cont452, %invoke.cont456, %invoke.cont460, %if.then.i1312
  br i1 %cmp401.not, label %cleanup.done478, label %cleanup.action469

cleanup.action469:                                ; preds = %invoke.cont462
  call void @_ZN9benchmark8internal12CheckHandlerD2Ev(ptr noundef nonnull align 8 dereferenceable(8) %ref.tmp405) #25
  unreachable

ehcleanup388:                                     ; preds = %lpad337, %lpad368, %lpad376, %lpad352, %lpad325
  %.pn520.pn.pn.pn = phi { ptr, i32 } [ %55, %lpad325 ], [ %56, %lpad337 ], [ %57, %lpad352 ], [ %59, %lpad376 ], [ %58, %lpad368 ]
  br i1 %cmp318.not, label %eh.resume, label %cleanup.action473.invoke

lpad408:                                          ; preds = %if.then.i1201, %if.then.i1195, %if.then.i1189
  %67 = landingpad { ptr, i32 }
          cleanup
  br label %ehcleanup471

lpad420:                                          ; preds = %if.then.i1245, %if.then.i1239, %if.then.i1233, %if.then.i1227, %if.then.i1212, %if.then.i1207
  %68 = landingpad { ptr, i32 }
          cleanup
  br label %ehcleanup471

lpad435:                                          ; preds = %if.then.i1286, %if.then.i1280, %if.then.i1274, %if.then.i1268, %if.then.i1262, %if.then.i1256, %if.then.i1251
  %69 = landingpad { ptr, i32 }
          cleanup
  br label %ehcleanup471

lpad451:                                          ; preds = %if.then.i1301, %if.then.i1296, %invoke.cont448
  %70 = landingpad { ptr, i32 }
          cleanup
  br label %ehcleanup471

lpad459:                                          ; preds = %if.then.i1312, %if.then.i1307
  %71 = landingpad { ptr, i32 }
          cleanup
  br label %ehcleanup471

cleanup.done478:                                  ; preds = %invoke.cont462
  ret void

ehcleanup471:                                     ; preds = %lpad420, %lpad451, %lpad459, %lpad435, %lpad408
  %.pn525.pn.pn.pn = phi { ptr, i32 } [ %67, %lpad408 ], [ %68, %lpad420 ], [ %69, %lpad435 ], [ %71, %lpad459 ], [ %70, %lpad451 ]
  br i1 %cmp401.not, label %eh.resume, label %cleanup.action473.invoke

cleanup.action473.invoke:                         ; preds = %ehcleanup471, %ehcleanup388, %ehcleanup305, %ehcleanup222, %ehcleanup139, %ehcleanup56
  %72 = phi ptr [ %ref.tmp, %ehcleanup56 ], [ %ref.tmp73, %ehcleanup139 ], [ %ref.tmp156, %ehcleanup222 ], [ %ref.tmp239, %ehcleanup305 ], [ %ref.tmp322, %ehcleanup388 ], [ %ref.tmp405, %ehcleanup471 ]
  invoke void @_ZN9benchmark8internal12CheckHandlerD2Ev(ptr noundef nonnull align 8 dereferenceable(8) %72) #25
          to label %cleanup.action473.cont unwind label %terminate.lpad

cleanup.action473.cont:                           ; preds = %cleanup.action473.invoke
  unreachable

eh.resume:                                        ; preds = %ehcleanup471, %ehcleanup388, %ehcleanup305, %ehcleanup222, %ehcleanup139, %ehcleanup56
  %.pn525.pn.pn.pn.pn = phi { ptr, i32 } [ %.pn.pn.pn.pn, %ehcleanup56 ], [ %.pn505.pn.pn.pn, %ehcleanup139 ], [ %.pn510.pn.pn.pn, %ehcleanup222 ], [ %.pn515.pn.pn.pn, %ehcleanup305 ], [ %.pn520.pn.pn.pn, %ehcleanup388 ], [ %.pn525.pn.pn.pn, %ehcleanup471 ]
  resume { ptr, i32 } %.pn525.pn.pn.pn.pn

terminate.lpad:                                   ; preds = %cleanup.action473.invoke
  %73 = landingpad { ptr, i32 }
          catch ptr null
  %74 = extractvalue { ptr, i32 } %73, 0
  call void @__clang_call_terminate(ptr %74) #26
  unreachable
}

; Function Attrs: uwtable
define linkonce_odr hidden void @_ZN9benchmark8internal12CheckHandlerC2EPKcS3_S3_i(ptr noundef nonnull align 8 dereferenceable(8) %this, ptr noundef %check, ptr noundef %file, ptr noundef %func, i32 noundef %line) unnamed_addr #2 comdat align 2 personality ptr @__gxx_personality_v0 {
entry:
  %0 = load atomic i8, ptr @_ZGVZN9benchmark8internal19GetErrorLogInstanceEvE3log acquire, align 8
  %guard.uninitialized.i = icmp eq i8 %0, 0
  br i1 %guard.uninitialized.i, label %init.check.i, label %_ZN9benchmark8internal19GetErrorLogInstanceEv.exit, !prof !17

init.check.i:                                     ; preds = %entry
  %1 = tail call i32 @__cxa_guard_acquire(ptr nonnull @_ZGVZN9benchmark8internal19GetErrorLogInstanceEvE3log) #23
  %tobool.not.i = icmp eq i32 %1, 0
  br i1 %tobool.not.i, label %_ZN9benchmark8internal19GetErrorLogInstanceEv.exit, label %init.i

init.i:                                           ; preds = %init.check.i
  store ptr @_ZNSt3__14clogE, ptr @_ZZN9benchmark8internal19GetErrorLogInstanceEvE3log, align 8, !tbaa !18
  tail call void @__cxa_guard_release(ptr nonnull @_ZGVZN9benchmark8internal19GetErrorLogInstanceEvE3log) #23
  br label %_ZN9benchmark8internal19GetErrorLogInstanceEv.exit

_ZN9benchmark8internal19GetErrorLogInstanceEv.exit: ; preds = %entry, %init.check.i, %init.i
  store ptr @_ZZN9benchmark8internal19GetErrorLogInstanceEvE3log, ptr %this, align 8, !tbaa !23
  %2 = load ptr, ptr @_ZZN9benchmark8internal19GetErrorLogInstanceEvE3log, align 8, !tbaa !18
  %tobool.not.i11 = icmp eq ptr %2, null
  br i1 %tobool.not.i11, label %_ZN9benchmark8internallsIA11_cEERNS0_7LogTypeES4_RKT_.exit, label %_ZN9benchmark8internallsIPKcEERNS0_7LogTypeES5_RKT_.exit

_ZN9benchmark8internallsIPKcEERNS0_7LogTypeES5_RKT_.exit: ; preds = %_ZN9benchmark8internal19GetErrorLogInstanceEv.exit
  %call.i.i.i.i = tail call i64 @strlen(ptr noundef nonnull dereferenceable(1) %file) #23
  %call1.i.i = tail call noundef nonnull align 8 dereferenceable(8) ptr @_ZNSt3__124__put_character_sequenceB7v170000IcNS_11char_traitsIcEEEERNS_13basic_ostreamIT_T0_EES7_PKS4_m(ptr noundef nonnull align 8 dereferenceable(8) %2, ptr noundef %file, i64 noundef %call.i.i.i.i)
  %.pr = load ptr, ptr @_ZZN9benchmark8internal19GetErrorLogInstanceEvE3log, align 8, !tbaa !18
  %tobool.not.i12 = icmp eq ptr %.pr, null
  br i1 %tobool.not.i12, label %_ZN9benchmark8internallsIA11_cEERNS0_7LogTypeES4_RKT_.exit, label %_ZN9benchmark8internallsIA2_cEERNS0_7LogTypeES4_RKT_.exit

_ZN9benchmark8internallsIA2_cEERNS0_7LogTypeES4_RKT_.exit: ; preds = %_ZN9benchmark8internallsIPKcEERNS0_7LogTypeES5_RKT_.exit
  %call1.i.i14 = tail call noundef nonnull align 8 dereferenceable(8) ptr @_ZNSt3__124__put_character_sequenceB7v170000IcNS_11char_traitsIcEEEERNS_13basic_ostreamIT_T0_EES7_PKS4_m(ptr noundef nonnull align 8 dereferenceable(8) %.pr, ptr noundef nonnull @.str.103, i64 noundef 1)
  %.pr41 = load ptr, ptr @_ZZN9benchmark8internal19GetErrorLogInstanceEvE3log, align 8, !tbaa !18
  %tobool.not.i16 = icmp eq ptr %.pr41, null
  br i1 %tobool.not.i16, label %_ZN9benchmark8internallsIA11_cEERNS0_7LogTypeES4_RKT_.exit, label %_ZN9benchmark8internallsIiEERNS0_7LogTypeES3_RKT_.exit

_ZN9benchmark8internallsIiEERNS0_7LogTypeES3_RKT_.exit: ; preds = %_ZN9benchmark8internallsIA2_cEERNS0_7LogTypeES4_RKT_.exit
  %call.i = tail call noundef nonnull align 8 dereferenceable(8) ptr @_ZNSt3__113basic_ostreamIcNS_11char_traitsIcEEElsEi(ptr noundef nonnull align 8 dereferenceable(8) %.pr41, i32 noundef %line)
  %.pr43.pr = load ptr, ptr @_ZZN9benchmark8internal19GetErrorLogInstanceEvE3log, align 8, !tbaa !18
  %tobool.not.i18 = icmp eq ptr %.pr43.pr, null
  br i1 %tobool.not.i18, label %_ZN9benchmark8internallsIA11_cEERNS0_7LogTypeES4_RKT_.exit, label %_ZN9benchmark8internallsIA3_cEERNS0_7LogTypeES4_RKT_.exit

_ZN9benchmark8internallsIA3_cEERNS0_7LogTypeES4_RKT_.exit: ; preds = %_ZN9benchmark8internallsIiEERNS0_7LogTypeES3_RKT_.exit
  %call1.i.i20 = tail call noundef nonnull align 8 dereferenceable(8) ptr @_ZNSt3__124__put_character_sequenceB7v170000IcNS_11char_traitsIcEEEERNS_13basic_ostreamIT_T0_EES7_PKS4_m(ptr noundef nonnull align 8 dereferenceable(8) %.pr43.pr, ptr noundef nonnull @.str.104, i64 noundef 2)
  %.pr45 = load ptr, ptr @_ZZN9benchmark8internal19GetErrorLogInstanceEvE3log, align 8, !tbaa !18
  %tobool.not.i22 = icmp eq ptr %.pr45, null
  br i1 %tobool.not.i22, label %_ZN9benchmark8internallsIA11_cEERNS0_7LogTypeES4_RKT_.exit, label %_ZN9benchmark8internallsIPKcEERNS0_7LogTypeES5_RKT_.exit26

_ZN9benchmark8internallsIPKcEERNS0_7LogTypeES5_RKT_.exit26: ; preds = %_ZN9benchmark8internallsIA3_cEERNS0_7LogTypeES4_RKT_.exit
  %call.i.i.i.i23 = tail call i64 @strlen(ptr noundef nonnull dereferenceable(1) %func) #23
  %call1.i.i24 = tail call noundef nonnull align 8 dereferenceable(8) ptr @_ZNSt3__124__put_character_sequenceB7v170000IcNS_11char_traitsIcEEEERNS_13basic_ostreamIT_T0_EES7_PKS4_m(ptr noundef nonnull align 8 dereferenceable(8) %.pr45, ptr noundef %func, i64 noundef %call.i.i.i.i23)
  %.pr47.pr.pr = load ptr, ptr @_ZZN9benchmark8internal19GetErrorLogInstanceEvE3log, align 8, !tbaa !18
  %tobool.not.i27 = icmp eq ptr %.pr47.pr.pr, null
  br i1 %tobool.not.i27, label %_ZN9benchmark8internallsIA11_cEERNS0_7LogTypeES4_RKT_.exit, label %_ZN9benchmark8internallsIA10_cEERNS0_7LogTypeES4_RKT_.exit

_ZN9benchmark8internallsIA10_cEERNS0_7LogTypeES4_RKT_.exit: ; preds = %_ZN9benchmark8internallsIPKcEERNS0_7LogTypeES5_RKT_.exit26
  %call1.i.i29 = tail call noundef nonnull align 8 dereferenceable(8) ptr @_ZNSt3__124__put_character_sequenceB7v170000IcNS_11char_traitsIcEEEERNS_13basic_ostreamIT_T0_EES7_PKS4_m(ptr noundef nonnull align 8 dereferenceable(8) %.pr47.pr.pr, ptr noundef nonnull @.str.181, i64 noundef 9)
  %.pr49 = load ptr, ptr @_ZZN9benchmark8internal19GetErrorLogInstanceEvE3log, align 8, !tbaa !18
  %tobool.not.i31 = icmp eq ptr %.pr49, null
  br i1 %tobool.not.i31, label %_ZN9benchmark8internallsIA11_cEERNS0_7LogTypeES4_RKT_.exit, label %_ZN9benchmark8internallsIPKcEERNS0_7LogTypeES5_RKT_.exit35

_ZN9benchmark8internallsIPKcEERNS0_7LogTypeES5_RKT_.exit35: ; preds = %_ZN9benchmark8internallsIA10_cEERNS0_7LogTypeES4_RKT_.exit
  %call.i.i.i.i32 = tail call i64 @strlen(ptr noundef nonnull dereferenceable(1) %check) #23
  %call1.i.i33 = tail call noundef nonnull align 8 dereferenceable(8) ptr @_ZNSt3__124__put_character_sequenceB7v170000IcNS_11char_traitsIcEEEERNS_13basic_ostreamIT_T0_EES7_PKS4_m(ptr noundef nonnull align 8 dereferenceable(8) %.pr49, ptr noundef %check, i64 noundef %call.i.i.i.i32)
  %.pr51.pr.pr = load ptr, ptr @_ZZN9benchmark8internal19GetErrorLogInstanceEvE3log, align 8, !tbaa !18
  %tobool.not.i36 = icmp eq ptr %.pr51.pr.pr, null
  br i1 %tobool.not.i36, label %_ZN9benchmark8internallsIA11_cEERNS0_7LogTypeES4_RKT_.exit, label %if.then.i39

if.then.i39:                                      ; preds = %_ZN9benchmark8internallsIPKcEERNS0_7LogTypeES5_RKT_.exit35
  %call1.i.i38 = tail call noundef nonnull align 8 dereferenceable(8) ptr @_ZNSt3__124__put_character_sequenceB7v170000IcNS_11char_traitsIcEEEERNS_13basic_ostreamIT_T0_EES7_PKS4_m(ptr noundef nonnull align 8 dereferenceable(8) %.pr51.pr.pr, ptr noundef nonnull @.str.182, i64 noundef 10)
  br label %_ZN9benchmark8internallsIA11_cEERNS0_7LogTypeES4_RKT_.exit

_ZN9benchmark8internallsIA11_cEERNS0_7LogTypeES4_RKT_.exit: ; preds = %_ZN9benchmark8internallsIA2_cEERNS0_7LogTypeES4_RKT_.exit, %_ZN9benchmark8internallsIiEERNS0_7LogTypeES3_RKT_.exit, %_ZN9benchmark8internal19GetErrorLogInstanceEv.exit, %_ZN9benchmark8internallsIPKcEERNS0_7LogTypeES5_RKT_.exit, %_ZN9benchmark8internallsIPKcEERNS0_7LogTypeES5_RKT_.exit26, %_ZN9benchmark8internallsIA3_cEERNS0_7LogTypeES4_RKT_.exit, %_ZN9benchmark8internallsIA10_cEERNS0_7LogTypeES4_RKT_.exit, %_ZN9benchmark8internallsIPKcEERNS0_7LogTypeES5_RKT_.exit35, %if.then.i39
  ret void
}

; Function Attrs: noreturn uwtable
define linkonce_odr hidden void @_ZN9benchmark8internal12CheckHandlerD2Ev(ptr noundef nonnull align 8 dereferenceable(8) %this) unnamed_addr #5 comdat align 2 personality ptr @__gxx_personality_v0 {
entry:
  %ref.tmp.i.i = alloca %"class.std::__1::locale", align 8
  %0 = load ptr, ptr %this, align 8, !tbaa !21
  %1 = load ptr, ptr %0, align 8, !tbaa !18
  %tobool.not.i = icmp eq ptr %1, null
  br i1 %tobool.not.i, label %_ZN9benchmark8internallsERNS0_7LogTypeEPFRNSt3__113basic_ostreamIcNS3_11char_traitsIcEEEES8_E.exit, label %if.then.i

if.then.i:                                        ; preds = %entry
  %vtable.i = load ptr, ptr %1, align 8, !tbaa !24
  %vbase.offset.ptr.i = getelementptr i8, ptr %vtable.i, i64 -24
  %vbase.offset.i = load i64, ptr %vbase.offset.ptr.i, align 8
  %add.ptr.i = getelementptr inbounds i8, ptr %1, i64 %vbase.offset.i
  call void @llvm.lifetime.start.p0(i64 8, ptr nonnull %ref.tmp.i.i) #23
  call void @_ZNKSt3__18ios_base6getlocEv(ptr nonnull sret(%"class.std::__1::locale") align 8 %ref.tmp.i.i, ptr noundef nonnull align 8 dereferenceable(136) %add.ptr.i)
  %call.i5.i.i = invoke noundef ptr @_ZNKSt3__16locale9use_facetERNS0_2idE(ptr noundef nonnull align 8 dereferenceable(8) %ref.tmp.i.i, ptr noundef nonnull align 8 dereferenceable(12) @_ZNSt3__15ctypeIcE2idE)
          to label %invoke.cont.i.i unwind label %lpad.i.i

invoke.cont.i.i:                                  ; preds = %if.then.i
  %vtable.i.i.i = load ptr, ptr %call.i5.i.i, align 8, !tbaa !24
  %vfn.i.i.i = getelementptr inbounds ptr, ptr %vtable.i.i.i, i64 7
  %2 = load ptr, ptr %vfn.i.i.i, align 8
  %call.i6.i.i = invoke noundef signext i8 %2(ptr noundef nonnull align 8 dereferenceable(25) %call.i5.i.i, i8 noundef signext 10)
          to label %_ZNSt3__14endlB7v170000IcNS_11char_traitsIcEEEERNS_13basic_ostreamIT_T0_EES7_.exit unwind label %lpad.i.i

lpad.i.i:                                         ; preds = %invoke.cont.i.i, %if.then.i
  %3 = landingpad { ptr, i32 }
          cleanup
  call void @_ZNSt3__16localeD1Ev(ptr noundef nonnull align 8 dereferenceable(8) %ref.tmp.i.i) #23
  call void @llvm.lifetime.end.p0(i64 8, ptr nonnull %ref.tmp.i.i) #23
  resume { ptr, i32 } %3

_ZNSt3__14endlB7v170000IcNS_11char_traitsIcEEEERNS_13basic_ostreamIT_T0_EES7_.exit: ; preds = %invoke.cont.i.i
  call void @_ZNSt3__16localeD1Ev(ptr noundef nonnull align 8 dereferenceable(8) %ref.tmp.i.i) #23
  call void @llvm.lifetime.end.p0(i64 8, ptr nonnull %ref.tmp.i.i) #23
  %call1.i = call noundef nonnull align 8 dereferenceable(8) ptr @_ZNSt3__113basic_ostreamIcNS_11char_traitsIcEEE3putEc(ptr noundef nonnull align 8 dereferenceable(8) %1, i8 noundef signext %call.i6.i.i)
  %call2.i = call noundef nonnull align 8 dereferenceable(8) ptr @_ZNSt3__113basic_ostreamIcNS_11char_traitsIcEEE5flushEv(ptr noundef nonnull align 8 dereferenceable(8) %1)
  br label %_ZN9benchmark8internallsERNS0_7LogTypeEPFRNSt3__113basic_ostreamIcNS3_11char_traitsIcEEEES8_E.exit

_ZN9benchmark8internallsERNS0_7LogTypeEPFRNSt3__113basic_ostreamIcNS3_11char_traitsIcEEEES8_E.exit: ; preds = %entry, %_ZNSt3__14endlB7v170000IcNS_11char_traitsIcEEEERNS_13basic_ostreamIT_T0_EES7_.exit
  call void @_ZN9benchmark8internal16CallAbortHandlerEv() #25
  unreachable
}

; Function Attrs: noinline noreturn nounwind
define linkonce_odr hidden void @__clang_call_terminate(ptr noundef %0) local_unnamed_addr #6 comdat {
  %2 = tail call ptr @__cxa_begin_catch(ptr %0) #23
  tail call void @_ZSt9terminatev() #26
  unreachable
}

declare ptr @__cxa_begin_catch(ptr) local_unnamed_addr

declare void @_ZSt9terminatev() local_unnamed_addr

declare noundef i64 @_Z10AddCheckerPKcRKNSt3__18functionIFvRK7ResultsEEE(ptr noundef, ptr noundef nonnull align 16 dereferenceable(48)) local_unnamed_addr #0

; Function Attrs: uwtable
define hidden void @_Z23BM_CounterRates_TabularRN9benchmark5StateE(ptr noundef nonnull align 8 dereferenceable(120) %state) #2 personality ptr @__gxx_personality_v0 {
entry:
  %ref.tmp5 = alloca [6 x %"struct.std::__1::pair"], align 8
  %ref.tmp6 = alloca %"class.std::__1::basic_string", align 8
  %ref.tmp11 = alloca %"class.std::__1::basic_string", align 8
  %ref.tmp19 = alloca %"class.std::__1::basic_string", align 8
  %ref.tmp27 = alloca %"class.std::__1::basic_string", align 8
  %ref.tmp35 = alloca %"class.std::__1::basic_string", align 8
  %ref.tmp43 = alloca %"class.std::__1::basic_string", align 8
  %error_occurred_.i.i = getelementptr inbounds %"class.benchmark::State", ptr %state, i64 0, i32 5
  %0 = load i8, ptr %error_occurred_.i.i, align 2, !tbaa !26, !range !41, !noundef !42
  %tobool.not.i.i = icmp ne i8 %0, 0
  %max_iterations.i.i = getelementptr inbounds %"class.benchmark::State", ptr %state, i64 0, i32 2
  %1 = load i64, ptr %max_iterations.i.i, align 8
  tail call void @_ZN9benchmark5State16StartKeepRunningEv(ptr noundef nonnull align 8 dereferenceable(120) %state)
  %cmp.not.i.not343345 = icmp eq i64 %1, 0
  %cmp.not.i.not343 = select i1 %tobool.not.i.i, i1 true, i1 %cmp.not.i.not343345
  br i1 %cmp.not.i.not343, label %for.cond.cleanup, label %for.body.lr.ph, !prof !43

for.body.lr.ph:                                   ; preds = %entry
  %started_.i = getelementptr inbounds %"class.benchmark::State", ptr %state, i64 0, i32 3
  %batch_leftover_.i = getelementptr inbounds %"class.benchmark::State", ptr %state, i64 0, i32 1
  br label %for.body

for.cond.cleanup:                                 ; preds = %_ZN9benchmark5State13StateIteratorppEv.exit, %entry
  tail call void @_ZN9benchmark5State17FinishKeepRunningEv(ptr noundef nonnull align 8 dereferenceable(120) %state)
  %counters = getelementptr inbounds %"class.benchmark::State", ptr %state, i64 0, i32 8
  call void @llvm.lifetime.start.p0(i64 240, ptr nonnull %ref.tmp5) #23
  call void @llvm.lifetime.start.p0(i64 24, ptr nonnull %ref.tmp6) #23
  store i8 6, ptr %ref.tmp6, align 8
  %__data_.i.i.i = getelementptr inbounds %"struct.std::__1::basic_string<char>::__short", ptr %ref.tmp6, i64 0, i32 2
  %cmp.i24.i.i = icmp ugt ptr %__data_.i.i.i, @.str.21
  %add.ptr.i.i.i = getelementptr inbounds %"struct.std::__1::basic_string<char>::__short", ptr %ref.tmp6, i64 0, i32 2, i64 3
  %cmp1.i.i.i = icmp ule ptr %add.ptr.i.i.i, @.str.21
  %2 = or i1 %cmp.i24.i.i, %cmp1.i.i.i
  call void @llvm.assume(i1 %2)
  call void @llvm.memcpy.p0.p0.i64(ptr noundef nonnull align 1 dereferenceable(3) %__data_.i.i.i, ptr noundef nonnull align 1 dereferenceable(3) @.str.21, i64 3, i1 false)
  store i8 0, ptr %add.ptr.i.i.i, align 4, !tbaa !5
  invoke void @_ZNSt3__112basic_stringIcNS_11char_traitsIcEENS_9allocatorIcEEEC1ERKS5_(ptr noundef nonnull align 8 dereferenceable(24) %ref.tmp5, ptr noundef nonnull align 8 dereferenceable(24) %ref.tmp6)
          to label %invoke.cont10 unwind label %lpad8

for.body:                                         ; preds = %for.body.lr.ph, %_ZN9benchmark5State13StateIteratorppEv.exit
  %__begin1.sroa.0.0344 = phi i64 [ %1, %for.body.lr.ph ], [ %dec.i, %_ZN9benchmark5State13StateIteratorppEv.exit ]
  %3 = load i8, ptr %started_.i, align 8, !tbaa !44, !range !41, !noundef !42
  %tobool.not.i = icmp eq i8 %3, 0
  br i1 %tobool.not.i, label %_ZN9benchmark5State13StateIteratorppEv.exit, label %if.end.i99, !prof !43

if.end.i99:                                       ; preds = %for.body
  %4 = load i64, ptr %max_iterations.i.i, align 8, !tbaa !45
  %5 = load i64, ptr %state, align 8, !tbaa !46
  %sub.i = sub i64 %4, %5
  %6 = load i64, ptr %batch_leftover_.i, align 8, !tbaa !47
  %add.i = add i64 %sub.i, %6
  br label %_ZN9benchmark5State13StateIteratorppEv.exit

_ZN9benchmark5State13StateIteratorppEv.exit:      ; preds = %if.end.i99, %for.body
  %retval.0.i = phi i64 [ %add.i, %if.end.i99 ], [ 0, %for.body ]
  tail call void asm sideeffect "", "r|m,~{memory},~{dirflag},~{fpsr},~{flags}"(i64 %retval.0.i) #23, !srcloc !48
  %dec.i = add i64 %__begin1.sroa.0.0344, -1
  %cmp.not.i.not = icmp eq i64 %dec.i, 0
  br i1 %cmp.not.i.not, label %for.cond.cleanup, label %for.body, !prof !43

invoke.cont10:                                    ; preds = %for.cond.cleanup
  %second.i = getelementptr inbounds %"struct.std::__1::pair", ptr %ref.tmp5, i64 0, i32 1
  store double 1.000000e+00, ptr %second.i, align 8, !tbaa.struct !8
  %ref.tmp7.sroa.5.0.second.i.sroa_idx = getelementptr inbounds %"struct.std::__1::pair", ptr %ref.tmp5, i64 0, i32 1, i32 1
  store i32 3, ptr %ref.tmp7.sroa.5.0.second.i.sroa_idx, align 8, !tbaa.struct !15
  %ref.tmp7.sroa.6.0.second.i.sroa_idx = getelementptr inbounds %"struct.std::__1::pair", ptr %ref.tmp5, i64 0, i32 1, i32 2
  store i32 1000, ptr %ref.tmp7.sroa.6.0.second.i.sroa_idx, align 4, !tbaa.struct !16
  %arrayinit.element = getelementptr inbounds %"struct.std::__1::pair", ptr %ref.tmp5, i64 1
  call void @llvm.lifetime.start.p0(i64 24, ptr nonnull %ref.tmp11) #23
  store i8 6, ptr %ref.tmp11, align 8
  %__data_.i.i.i120 = getelementptr inbounds %"struct.std::__1::basic_string<char>::__short", ptr %ref.tmp11, i64 0, i32 2
  %cmp.i24.i.i129 = icmp ugt ptr %__data_.i.i.i120, @.str.22
  %add.ptr.i.i.i130 = getelementptr inbounds %"struct.std::__1::basic_string<char>::__short", ptr %ref.tmp11, i64 0, i32 2, i64 3
  %cmp1.i.i.i131 = icmp ule ptr %add.ptr.i.i.i130, @.str.22
  %7 = or i1 %cmp.i24.i.i129, %cmp1.i.i.i131
  call void @llvm.assume(i1 %7)
  call void @llvm.memcpy.p0.p0.i64(ptr noundef nonnull align 1 dereferenceable(3) %__data_.i.i.i120, ptr noundef nonnull align 1 dereferenceable(3) @.str.22, i64 3, i1 false)
  store i8 0, ptr %add.ptr.i.i.i130, align 4, !tbaa !5
  invoke void @_ZNSt3__112basic_stringIcNS_11char_traitsIcEENS_9allocatorIcEEEC1ERKS5_(ptr noundef nonnull align 8 dereferenceable(24) %arrayinit.element, ptr noundef nonnull align 8 dereferenceable(24) %ref.tmp11)
          to label %invoke.cont17 unwind label %lpad15

invoke.cont17:                                    ; preds = %invoke.cont10
  %second.i136 = getelementptr inbounds %"struct.std::__1::pair", ptr %ref.tmp5, i64 1, i32 1
  store double 2.000000e+00, ptr %second.i136, align 8, !tbaa.struct !8
  %ref.tmp14.sroa.5.0.second.i136.sroa_idx = getelementptr inbounds %"struct.std::__1::pair", ptr %ref.tmp5, i64 1, i32 1, i32 1
  store i32 3, ptr %ref.tmp14.sroa.5.0.second.i136.sroa_idx, align 8, !tbaa.struct !15
  %ref.tmp14.sroa.6.0.second.i136.sroa_idx = getelementptr inbounds %"struct.std::__1::pair", ptr %ref.tmp5, i64 1, i32 1, i32 2
  store i32 1000, ptr %ref.tmp14.sroa.6.0.second.i136.sroa_idx, align 4, !tbaa.struct !16
  %arrayinit.element18 = getelementptr inbounds %"struct.std::__1::pair", ptr %ref.tmp5, i64 2
  call void @llvm.lifetime.start.p0(i64 24, ptr nonnull %ref.tmp19) #23
  store i8 6, ptr %ref.tmp19, align 8
  %__data_.i.i.i146 = getelementptr inbounds %"struct.std::__1::basic_string<char>::__short", ptr %ref.tmp19, i64 0, i32 2
  %cmp.i24.i.i155 = icmp ugt ptr %__data_.i.i.i146, @.str.23
  %add.ptr.i.i.i156 = getelementptr inbounds %"struct.std::__1::basic_string<char>::__short", ptr %ref.tmp19, i64 0, i32 2, i64 3
  %cmp1.i.i.i157 = icmp ule ptr %add.ptr.i.i.i156, @.str.23
  %8 = or i1 %cmp.i24.i.i155, %cmp1.i.i.i157
  call void @llvm.assume(i1 %8)
  call void @llvm.memcpy.p0.p0.i64(ptr noundef nonnull align 1 dereferenceable(3) %__data_.i.i.i146, ptr noundef nonnull align 1 dereferenceable(3) @.str.23, i64 3, i1 false)
  store i8 0, ptr %add.ptr.i.i.i156, align 4, !tbaa !5
  invoke void @_ZNSt3__112basic_stringIcNS_11char_traitsIcEENS_9allocatorIcEEEC1ERKS5_(ptr noundef nonnull align 8 dereferenceable(24) %arrayinit.element18, ptr noundef nonnull align 8 dereferenceable(24) %ref.tmp19)
          to label %invoke.cont25 unwind label %lpad23

invoke.cont25:                                    ; preds = %invoke.cont17
  %second.i162 = getelementptr inbounds %"struct.std::__1::pair", ptr %ref.tmp5, i64 2, i32 1
  store double 4.000000e+00, ptr %second.i162, align 8, !tbaa.struct !8
  %ref.tmp22.sroa.5.0.second.i162.sroa_idx = getelementptr inbounds %"struct.std::__1::pair", ptr %ref.tmp5, i64 2, i32 1, i32 1
  store i32 3, ptr %ref.tmp22.sroa.5.0.second.i162.sroa_idx, align 8, !tbaa.struct !15
  %ref.tmp22.sroa.6.0.second.i162.sroa_idx = getelementptr inbounds %"struct.std::__1::pair", ptr %ref.tmp5, i64 2, i32 1, i32 2
  store i32 1000, ptr %ref.tmp22.sroa.6.0.second.i162.sroa_idx, align 4, !tbaa.struct !16
  %arrayinit.element26 = getelementptr inbounds %"struct.std::__1::pair", ptr %ref.tmp5, i64 3
  call void @llvm.lifetime.start.p0(i64 24, ptr nonnull %ref.tmp27) #23
  store i8 6, ptr %ref.tmp27, align 8
  %__data_.i.i.i172 = getelementptr inbounds %"struct.std::__1::basic_string<char>::__short", ptr %ref.tmp27, i64 0, i32 2
  %cmp.i24.i.i181 = icmp ugt ptr %__data_.i.i.i172, @.str.24
  %add.ptr.i.i.i182 = getelementptr inbounds %"struct.std::__1::basic_string<char>::__short", ptr %ref.tmp27, i64 0, i32 2, i64 3
  %cmp1.i.i.i183 = icmp ule ptr %add.ptr.i.i.i182, @.str.24
  %9 = or i1 %cmp.i24.i.i181, %cmp1.i.i.i183
  call void @llvm.assume(i1 %9)
  call void @llvm.memcpy.p0.p0.i64(ptr noundef nonnull align 1 dereferenceable(3) %__data_.i.i.i172, ptr noundef nonnull align 1 dereferenceable(3) @.str.24, i64 3, i1 false)
  store i8 0, ptr %add.ptr.i.i.i182, align 4, !tbaa !5
  invoke void @_ZNSt3__112basic_stringIcNS_11char_traitsIcEENS_9allocatorIcEEEC1ERKS5_(ptr noundef nonnull align 8 dereferenceable(24) %arrayinit.element26, ptr noundef nonnull align 8 dereferenceable(24) %ref.tmp27)
          to label %invoke.cont33 unwind label %lpad31

invoke.cont33:                                    ; preds = %invoke.cont25
  %second.i188 = getelementptr inbounds %"struct.std::__1::pair", ptr %ref.tmp5, i64 3, i32 1
  store double 8.000000e+00, ptr %second.i188, align 8, !tbaa.struct !8
  %ref.tmp30.sroa.5.0.second.i188.sroa_idx = getelementptr inbounds %"struct.std::__1::pair", ptr %ref.tmp5, i64 3, i32 1, i32 1
  store i32 3, ptr %ref.tmp30.sroa.5.0.second.i188.sroa_idx, align 8, !tbaa.struct !15
  %ref.tmp30.sroa.6.0.second.i188.sroa_idx = getelementptr inbounds %"struct.std::__1::pair", ptr %ref.tmp5, i64 3, i32 1, i32 2
  store i32 1000, ptr %ref.tmp30.sroa.6.0.second.i188.sroa_idx, align 4, !tbaa.struct !16
  %arrayinit.element34 = getelementptr inbounds %"struct.std::__1::pair", ptr %ref.tmp5, i64 4
  call void @llvm.lifetime.start.p0(i64 24, ptr nonnull %ref.tmp35) #23
  store i8 8, ptr %ref.tmp35, align 8
  %__data_.i.i.i198 = getelementptr inbounds %"struct.std::__1::basic_string<char>::__short", ptr %ref.tmp35, i64 0, i32 2
  %cmp.i24.i.i207 = icmp ugt ptr %__data_.i.i.i198, @.str.25
  %add.ptr.i.i.i208 = getelementptr inbounds %"struct.std::__1::basic_string<char>::__short", ptr %ref.tmp35, i64 0, i32 2, i64 4
  %cmp1.i.i.i209 = icmp ule ptr %add.ptr.i.i.i208, @.str.25
  %10 = or i1 %cmp.i24.i.i207, %cmp1.i.i.i209
  call void @llvm.assume(i1 %10)
  store i32 1651470918, ptr %__data_.i.i.i198, align 1
  store i8 0, ptr %add.ptr.i.i.i208, align 1, !tbaa !5
  invoke void @_ZNSt3__112basic_stringIcNS_11char_traitsIcEENS_9allocatorIcEEEC1ERKS5_(ptr noundef nonnull align 8 dereferenceable(24) %arrayinit.element34, ptr noundef nonnull align 8 dereferenceable(24) %ref.tmp35)
          to label %invoke.cont41 unwind label %lpad39

invoke.cont41:                                    ; preds = %invoke.cont33
  %second.i214 = getelementptr inbounds %"struct.std::__1::pair", ptr %ref.tmp5, i64 4, i32 1
  store double 1.600000e+01, ptr %second.i214, align 8, !tbaa.struct !8
  %ref.tmp38.sroa.5.0.second.i214.sroa_idx = getelementptr inbounds %"struct.std::__1::pair", ptr %ref.tmp5, i64 4, i32 1, i32 1
  store i32 3, ptr %ref.tmp38.sroa.5.0.second.i214.sroa_idx, align 8, !tbaa.struct !15
  %ref.tmp38.sroa.6.0.second.i214.sroa_idx = getelementptr inbounds %"struct.std::__1::pair", ptr %ref.tmp5, i64 4, i32 1, i32 2
  store i32 1000, ptr %ref.tmp38.sroa.6.0.second.i214.sroa_idx, align 4, !tbaa.struct !16
  %arrayinit.element42 = getelementptr inbounds %"struct.std::__1::pair", ptr %ref.tmp5, i64 5
  call void @llvm.lifetime.start.p0(i64 24, ptr nonnull %ref.tmp43) #23
  store i8 6, ptr %ref.tmp43, align 8
  %__data_.i.i.i224 = getelementptr inbounds %"struct.std::__1::basic_string<char>::__short", ptr %ref.tmp43, i64 0, i32 2
  %cmp.i24.i.i233 = icmp ugt ptr %__data_.i.i.i224, @.str.26
  %add.ptr.i.i.i234 = getelementptr inbounds %"struct.std::__1::basic_string<char>::__short", ptr %ref.tmp43, i64 0, i32 2, i64 3
  %cmp1.i.i.i235 = icmp ule ptr %add.ptr.i.i.i234, @.str.26
  %11 = or i1 %cmp.i24.i.i233, %cmp1.i.i.i235
  call void @llvm.assume(i1 %11)
  call void @llvm.memcpy.p0.p0.i64(ptr noundef nonnull align 1 dereferenceable(3) %__data_.i.i.i224, ptr noundef nonnull align 1 dereferenceable(3) @.str.26, i64 3, i1 false)
  store i8 0, ptr %add.ptr.i.i.i234, align 4, !tbaa !5
  invoke void @_ZNSt3__112basic_stringIcNS_11char_traitsIcEENS_9allocatorIcEEEC1ERKS5_(ptr noundef nonnull align 8 dereferenceable(24) %arrayinit.element42, ptr noundef nonnull align 8 dereferenceable(24) %ref.tmp43)
          to label %invoke.cont49 unwind label %lpad47

invoke.cont49:                                    ; preds = %invoke.cont41
  %second.i240 = getelementptr inbounds %"struct.std::__1::pair", ptr %ref.tmp5, i64 5, i32 1
  store double 3.200000e+01, ptr %second.i240, align 8, !tbaa.struct !8
  %ref.tmp46.sroa.5.0.second.i240.sroa_idx = getelementptr inbounds %"struct.std::__1::pair", ptr %ref.tmp5, i64 5, i32 1, i32 1
  store i32 3, ptr %ref.tmp46.sroa.5.0.second.i240.sroa_idx, align 8, !tbaa.struct !15
  %ref.tmp46.sroa.6.0.second.i240.sroa_idx = getelementptr inbounds %"struct.std::__1::pair", ptr %ref.tmp5, i64 5, i32 1, i32 2
  store i32 1000, ptr %ref.tmp46.sroa.6.0.second.i240.sroa_idx, align 4, !tbaa.struct !16
  %__pair1_.i.i.i.i.i.i = getelementptr inbounds %"class.benchmark::State", ptr %state, i64 0, i32 8, i32 0, i32 1
  %call3.i.i.i.i243 = invoke { ptr, i8 } @_ZNSt3__16__treeINS_12__value_typeINS_12basic_stringIcNS_11char_traitsIcEENS_9allocatorIcEEEEN9benchmark7CounterEEENS_19__map_value_compareIS7_SA_NS_4lessIS7_EELb1EEENS5_ISA_EEE30__emplace_hint_unique_key_argsIS7_JRKNS_4pairIKS7_S9_EEEEENSI_INS_15__tree_iteratorISA_PNS_11__tree_nodeISA_PvEElEEbEENS_21__tree_const_iteratorISA_SR_lEERKT_DpOT0_(ptr noundef nonnull align 8 dereferenceable(24) %counters, ptr nonnull %__pair1_.i.i.i.i.i.i, ptr noundef nonnull align 8 dereferenceable(24) %ref.tmp5, ptr noundef nonnull align 8 dereferenceable(40) %ref.tmp5)
          to label %call3.i.i.i.i.noexc unwind label %lpad50

call3.i.i.i.i.noexc:                              ; preds = %invoke.cont49
  %call3.i.i.i.i243.1 = invoke { ptr, i8 } @_ZNSt3__16__treeINS_12__value_typeINS_12basic_stringIcNS_11char_traitsIcEENS_9allocatorIcEEEEN9benchmark7CounterEEENS_19__map_value_compareIS7_SA_NS_4lessIS7_EELb1EEENS5_ISA_EEE30__emplace_hint_unique_key_argsIS7_JRKNS_4pairIKS7_S9_EEEEENSI_INS_15__tree_iteratorISA_PNS_11__tree_nodeISA_PvEElEEbEENS_21__tree_const_iteratorISA_SR_lEERKT_DpOT0_(ptr noundef nonnull align 8 dereferenceable(24) %counters, ptr nonnull %__pair1_.i.i.i.i.i.i, ptr noundef nonnull align 8 dereferenceable(24) %arrayinit.element, ptr noundef nonnull align 8 dereferenceable(40) %arrayinit.element)
          to label %call3.i.i.i.i.noexc.1 unwind label %lpad50

call3.i.i.i.i.noexc.1:                            ; preds = %call3.i.i.i.i.noexc
  %call3.i.i.i.i243.2 = invoke { ptr, i8 } @_ZNSt3__16__treeINS_12__value_typeINS_12basic_stringIcNS_11char_traitsIcEENS_9allocatorIcEEEEN9benchmark7CounterEEENS_19__map_value_compareIS7_SA_NS_4lessIS7_EELb1EEENS5_ISA_EEE30__emplace_hint_unique_key_argsIS7_JRKNS_4pairIKS7_S9_EEEEENSI_INS_15__tree_iteratorISA_PNS_11__tree_nodeISA_PvEElEEbEENS_21__tree_const_iteratorISA_SR_lEERKT_DpOT0_(ptr noundef nonnull align 8 dereferenceable(24) %counters, ptr nonnull %__pair1_.i.i.i.i.i.i, ptr noundef nonnull align 8 dereferenceable(24) %arrayinit.element18, ptr noundef nonnull align 8 dereferenceable(40) %arrayinit.element18)
          to label %call3.i.i.i.i.noexc.2 unwind label %lpad50

call3.i.i.i.i.noexc.2:                            ; preds = %call3.i.i.i.i.noexc.1
  %call3.i.i.i.i243.3 = invoke { ptr, i8 } @_ZNSt3__16__treeINS_12__value_typeINS_12basic_stringIcNS_11char_traitsIcEENS_9allocatorIcEEEEN9benchmark7CounterEEENS_19__map_value_compareIS7_SA_NS_4lessIS7_EELb1EEENS5_ISA_EEE30__emplace_hint_unique_key_argsIS7_JRKNS_4pairIKS7_S9_EEEEENSI_INS_15__tree_iteratorISA_PNS_11__tree_nodeISA_PvEElEEbEENS_21__tree_const_iteratorISA_SR_lEERKT_DpOT0_(ptr noundef nonnull align 8 dereferenceable(24) %counters, ptr nonnull %__pair1_.i.i.i.i.i.i, ptr noundef nonnull align 8 dereferenceable(24) %arrayinit.element26, ptr noundef nonnull align 8 dereferenceable(40) %arrayinit.element26)
          to label %call3.i.i.i.i.noexc.3 unwind label %lpad50

call3.i.i.i.i.noexc.3:                            ; preds = %call3.i.i.i.i.noexc.2
  %call3.i.i.i.i243.4 = invoke { ptr, i8 } @_ZNSt3__16__treeINS_12__value_typeINS_12basic_stringIcNS_11char_traitsIcEENS_9allocatorIcEEEEN9benchmark7CounterEEENS_19__map_value_compareIS7_SA_NS_4lessIS7_EELb1EEENS5_ISA_EEE30__emplace_hint_unique_key_argsIS7_JRKNS_4pairIKS7_S9_EEEEENSI_INS_15__tree_iteratorISA_PNS_11__tree_nodeISA_PvEElEEbEENS_21__tree_const_iteratorISA_SR_lEERKT_DpOT0_(ptr noundef nonnull align 8 dereferenceable(24) %counters, ptr nonnull %__pair1_.i.i.i.i.i.i, ptr noundef nonnull align 8 dereferenceable(24) %arrayinit.element34, ptr noundef nonnull align 8 dereferenceable(40) %arrayinit.element34)
          to label %call3.i.i.i.i.noexc.4 unwind label %lpad50

call3.i.i.i.i.noexc.4:                            ; preds = %call3.i.i.i.i.noexc.3
  %call3.i.i.i.i243.5 = invoke { ptr, i8 } @_ZNSt3__16__treeINS_12__value_typeINS_12basic_stringIcNS_11char_traitsIcEENS_9allocatorIcEEEEN9benchmark7CounterEEENS_19__map_value_compareIS7_SA_NS_4lessIS7_EELb1EEENS5_ISA_EEE30__emplace_hint_unique_key_argsIS7_JRKNS_4pairIKS7_S9_EEEEENSI_INS_15__tree_iteratorISA_PNS_11__tree_nodeISA_PvEElEEbEENS_21__tree_const_iteratorISA_SR_lEERKT_DpOT0_(ptr noundef nonnull align 8 dereferenceable(24) %counters, ptr nonnull %__pair1_.i.i.i.i.i.i, ptr noundef nonnull align 8 dereferenceable(24) %arrayinit.element42, ptr noundef nonnull align 8 dereferenceable(40) %arrayinit.element42)
          to label %call3.i.i.i.i.noexc.5 unwind label %lpad50

call3.i.i.i.i.noexc.5:                            ; preds = %call3.i.i.i.i.noexc.4
  %arraydestroy.element = getelementptr inbounds %"struct.std::__1::pair", ptr %ref.tmp5, i64 5
  %bf.load.i.i.i = load i8, ptr %arraydestroy.element, align 8
  %bf.clear.i.i.i = and i8 %bf.load.i.i.i, 1
  %tobool.i.not.i.i = icmp eq i8 %bf.clear.i.i.i, 0
  br i1 %tobool.i.not.i.i, label %_ZNSt3__14pairIKNS_12basic_stringIcNS_11char_traitsIcEENS_9allocatorIcEEEEN9benchmark7CounterEED2Ev.exit, label %if.then.i.i245

if.then.i.i245:                                   ; preds = %call3.i.i.i.i.noexc.5
  %__data_.i.i.i244 = getelementptr inbounds %"struct.std::__1::pair", ptr %ref.tmp5, i64 5, i32 0, i32 0, i32 0, i32 0, i32 0, i32 0, i32 2
  %12 = load ptr, ptr %__data_.i.i.i244, align 8, !tbaa !5
  call void @_ZdlPv(ptr noundef %12) #24
  br label %_ZNSt3__14pairIKNS_12basic_stringIcNS_11char_traitsIcEENS_9allocatorIcEEEEN9benchmark7CounterEED2Ev.exit

_ZNSt3__14pairIKNS_12basic_stringIcNS_11char_traitsIcEENS_9allocatorIcEEEEN9benchmark7CounterEED2Ev.exit: ; preds = %call3.i.i.i.i.noexc.5, %if.then.i.i245
  %arraydestroy.element.1 = getelementptr inbounds %"struct.std::__1::pair", ptr %ref.tmp5, i64 4
  %bf.load.i.i.i.1 = load i8, ptr %arraydestroy.element.1, align 8
  %bf.clear.i.i.i.1 = and i8 %bf.load.i.i.i.1, 1
  %tobool.i.not.i.i.1 = icmp eq i8 %bf.clear.i.i.i.1, 0
  br i1 %tobool.i.not.i.i.1, label %_ZNSt3__14pairIKNS_12basic_stringIcNS_11char_traitsIcEENS_9allocatorIcEEEEN9benchmark7CounterEED2Ev.exit.1, label %if.then.i.i245.1

if.then.i.i245.1:                                 ; preds = %_ZNSt3__14pairIKNS_12basic_stringIcNS_11char_traitsIcEENS_9allocatorIcEEEEN9benchmark7CounterEED2Ev.exit
  %__data_.i.i.i244.1 = getelementptr inbounds %"struct.std::__1::pair", ptr %ref.tmp5, i64 4, i32 0, i32 0, i32 0, i32 0, i32 0, i32 0, i32 2
  %13 = load ptr, ptr %__data_.i.i.i244.1, align 8, !tbaa !5
  call void @_ZdlPv(ptr noundef %13) #24
  br label %_ZNSt3__14pairIKNS_12basic_stringIcNS_11char_traitsIcEENS_9allocatorIcEEEEN9benchmark7CounterEED2Ev.exit.1

_ZNSt3__14pairIKNS_12basic_stringIcNS_11char_traitsIcEENS_9allocatorIcEEEEN9benchmark7CounterEED2Ev.exit.1: ; preds = %if.then.i.i245.1, %_ZNSt3__14pairIKNS_12basic_stringIcNS_11char_traitsIcEENS_9allocatorIcEEEEN9benchmark7CounterEED2Ev.exit
  %arraydestroy.element.2 = getelementptr inbounds %"struct.std::__1::pair", ptr %ref.tmp5, i64 3
  %bf.load.i.i.i.2 = load i8, ptr %arraydestroy.element.2, align 8
  %bf.clear.i.i.i.2 = and i8 %bf.load.i.i.i.2, 1
  %tobool.i.not.i.i.2 = icmp eq i8 %bf.clear.i.i.i.2, 0
  br i1 %tobool.i.not.i.i.2, label %_ZNSt3__14pairIKNS_12basic_stringIcNS_11char_traitsIcEENS_9allocatorIcEEEEN9benchmark7CounterEED2Ev.exit.2, label %if.then.i.i245.2

if.then.i.i245.2:                                 ; preds = %_ZNSt3__14pairIKNS_12basic_stringIcNS_11char_traitsIcEENS_9allocatorIcEEEEN9benchmark7CounterEED2Ev.exit.1
  %__data_.i.i.i244.2 = getelementptr inbounds %"struct.std::__1::pair", ptr %ref.tmp5, i64 3, i32 0, i32 0, i32 0, i32 0, i32 0, i32 0, i32 2
  %14 = load ptr, ptr %__data_.i.i.i244.2, align 8, !tbaa !5
  call void @_ZdlPv(ptr noundef %14) #24
  br label %_ZNSt3__14pairIKNS_12basic_stringIcNS_11char_traitsIcEENS_9allocatorIcEEEEN9benchmark7CounterEED2Ev.exit.2

_ZNSt3__14pairIKNS_12basic_stringIcNS_11char_traitsIcEENS_9allocatorIcEEEEN9benchmark7CounterEED2Ev.exit.2: ; preds = %if.then.i.i245.2, %_ZNSt3__14pairIKNS_12basic_stringIcNS_11char_traitsIcEENS_9allocatorIcEEEEN9benchmark7CounterEED2Ev.exit.1
  %arraydestroy.element.3 = getelementptr inbounds %"struct.std::__1::pair", ptr %ref.tmp5, i64 2
  %bf.load.i.i.i.3 = load i8, ptr %arraydestroy.element.3, align 8
  %bf.clear.i.i.i.3 = and i8 %bf.load.i.i.i.3, 1
  %tobool.i.not.i.i.3 = icmp eq i8 %bf.clear.i.i.i.3, 0
  br i1 %tobool.i.not.i.i.3, label %_ZNSt3__14pairIKNS_12basic_stringIcNS_11char_traitsIcEENS_9allocatorIcEEEEN9benchmark7CounterEED2Ev.exit.3, label %if.then.i.i245.3

if.then.i.i245.3:                                 ; preds = %_ZNSt3__14pairIKNS_12basic_stringIcNS_11char_traitsIcEENS_9allocatorIcEEEEN9benchmark7CounterEED2Ev.exit.2
  %__data_.i.i.i244.3 = getelementptr inbounds %"struct.std::__1::pair", ptr %ref.tmp5, i64 2, i32 0, i32 0, i32 0, i32 0, i32 0, i32 0, i32 2
  %15 = load ptr, ptr %__data_.i.i.i244.3, align 8, !tbaa !5
  call void @_ZdlPv(ptr noundef %15) #24
  br label %_ZNSt3__14pairIKNS_12basic_stringIcNS_11char_traitsIcEENS_9allocatorIcEEEEN9benchmark7CounterEED2Ev.exit.3

_ZNSt3__14pairIKNS_12basic_stringIcNS_11char_traitsIcEENS_9allocatorIcEEEEN9benchmark7CounterEED2Ev.exit.3: ; preds = %if.then.i.i245.3, %_ZNSt3__14pairIKNS_12basic_stringIcNS_11char_traitsIcEENS_9allocatorIcEEEEN9benchmark7CounterEED2Ev.exit.2
  %arraydestroy.element.4 = getelementptr inbounds %"struct.std::__1::pair", ptr %ref.tmp5, i64 1
  %bf.load.i.i.i.4 = load i8, ptr %arraydestroy.element.4, align 8
  %bf.clear.i.i.i.4 = and i8 %bf.load.i.i.i.4, 1
  %tobool.i.not.i.i.4 = icmp eq i8 %bf.clear.i.i.i.4, 0
  br i1 %tobool.i.not.i.i.4, label %_ZNSt3__14pairIKNS_12basic_stringIcNS_11char_traitsIcEENS_9allocatorIcEEEEN9benchmark7CounterEED2Ev.exit.4, label %if.then.i.i245.4

if.then.i.i245.4:                                 ; preds = %_ZNSt3__14pairIKNS_12basic_stringIcNS_11char_traitsIcEENS_9allocatorIcEEEEN9benchmark7CounterEED2Ev.exit.3
  %__data_.i.i.i244.4 = getelementptr inbounds %"struct.std::__1::pair", ptr %ref.tmp5, i64 1, i32 0, i32 0, i32 0, i32 0, i32 0, i32 0, i32 2
  %16 = load ptr, ptr %__data_.i.i.i244.4, align 8, !tbaa !5
  call void @_ZdlPv(ptr noundef %16) #24
  br label %_ZNSt3__14pairIKNS_12basic_stringIcNS_11char_traitsIcEENS_9allocatorIcEEEEN9benchmark7CounterEED2Ev.exit.4

_ZNSt3__14pairIKNS_12basic_stringIcNS_11char_traitsIcEENS_9allocatorIcEEEEN9benchmark7CounterEED2Ev.exit.4: ; preds = %if.then.i.i245.4, %_ZNSt3__14pairIKNS_12basic_stringIcNS_11char_traitsIcEENS_9allocatorIcEEEEN9benchmark7CounterEED2Ev.exit.3
  %bf.load.i.i.i.5 = load i8, ptr %ref.tmp5, align 8
  %bf.clear.i.i.i.5 = and i8 %bf.load.i.i.i.5, 1
  %tobool.i.not.i.i.5 = icmp eq i8 %bf.clear.i.i.i.5, 0
  br i1 %tobool.i.not.i.i.5, label %_ZNSt3__14pairIKNS_12basic_stringIcNS_11char_traitsIcEENS_9allocatorIcEEEEN9benchmark7CounterEED2Ev.exit.5, label %if.then.i.i245.5

if.then.i.i245.5:                                 ; preds = %_ZNSt3__14pairIKNS_12basic_stringIcNS_11char_traitsIcEENS_9allocatorIcEEEEN9benchmark7CounterEED2Ev.exit.4
  %__data_.i.i.i244.5 = getelementptr inbounds %"struct.std::__1::pair", ptr %ref.tmp5, i64 0, i32 0, i32 0, i32 0, i32 0, i32 0, i32 0, i32 2
  %17 = load ptr, ptr %__data_.i.i.i244.5, align 8, !tbaa !5
  call void @_ZdlPv(ptr noundef %17) #24
  br label %_ZNSt3__14pairIKNS_12basic_stringIcNS_11char_traitsIcEENS_9allocatorIcEEEEN9benchmark7CounterEED2Ev.exit.5

_ZNSt3__14pairIKNS_12basic_stringIcNS_11char_traitsIcEENS_9allocatorIcEEEEN9benchmark7CounterEED2Ev.exit.5: ; preds = %if.then.i.i245.5, %_ZNSt3__14pairIKNS_12basic_stringIcNS_11char_traitsIcEENS_9allocatorIcEEEEN9benchmark7CounterEED2Ev.exit.4
  %bf.load.i.i = load i8, ptr %ref.tmp43, align 8
  %bf.clear.i.i = and i8 %bf.load.i.i, 1
  %tobool.i.not.i = icmp eq i8 %bf.clear.i.i, 0
  br i1 %tobool.i.not.i, label %_ZNSt3__112basic_stringIcNS_11char_traitsIcEENS_9allocatorIcEEED2Ev.exit, label %if.then.i

if.then.i:                                        ; preds = %_ZNSt3__14pairIKNS_12basic_stringIcNS_11char_traitsIcEENS_9allocatorIcEEEEN9benchmark7CounterEED2Ev.exit.5
  %__data_.i.i = getelementptr inbounds %"struct.std::__1::basic_string<char>::__long", ptr %ref.tmp43, i64 0, i32 2
  %18 = load ptr, ptr %__data_.i.i, align 8, !tbaa !5
  call void @_ZdlPv(ptr noundef %18) #24
  br label %_ZNSt3__112basic_stringIcNS_11char_traitsIcEENS_9allocatorIcEEED2Ev.exit

_ZNSt3__112basic_stringIcNS_11char_traitsIcEENS_9allocatorIcEEED2Ev.exit: ; preds = %_ZNSt3__14pairIKNS_12basic_stringIcNS_11char_traitsIcEENS_9allocatorIcEEEEN9benchmark7CounterEED2Ev.exit.5, %if.then.i
  call void @llvm.lifetime.end.p0(i64 24, ptr nonnull %ref.tmp43) #23
  %bf.load.i.i247 = load i8, ptr %ref.tmp35, align 8
  %bf.clear.i.i248 = and i8 %bf.load.i.i247, 1
  %tobool.i.not.i249 = icmp eq i8 %bf.clear.i.i248, 0
  br i1 %tobool.i.not.i249, label %_ZNSt3__112basic_stringIcNS_11char_traitsIcEENS_9allocatorIcEEED2Ev.exit253, label %if.then.i251

if.then.i251:                                     ; preds = %_ZNSt3__112basic_stringIcNS_11char_traitsIcEENS_9allocatorIcEEED2Ev.exit
  %__data_.i.i250 = getelementptr inbounds %"struct.std::__1::basic_string<char>::__long", ptr %ref.tmp35, i64 0, i32 2
  %19 = load ptr, ptr %__data_.i.i250, align 8, !tbaa !5
  call void @_ZdlPv(ptr noundef %19) #24
  br label %_ZNSt3__112basic_stringIcNS_11char_traitsIcEENS_9allocatorIcEEED2Ev.exit253

_ZNSt3__112basic_stringIcNS_11char_traitsIcEENS_9allocatorIcEEED2Ev.exit253: ; preds = %_ZNSt3__112basic_stringIcNS_11char_traitsIcEENS_9allocatorIcEEED2Ev.exit, %if.then.i251
  call void @llvm.lifetime.end.p0(i64 24, ptr nonnull %ref.tmp35) #23
  %bf.load.i.i254 = load i8, ptr %ref.tmp27, align 8
  %bf.clear.i.i255 = and i8 %bf.load.i.i254, 1
  %tobool.i.not.i256 = icmp eq i8 %bf.clear.i.i255, 0
  br i1 %tobool.i.not.i256, label %_ZNSt3__112basic_stringIcNS_11char_traitsIcEENS_9allocatorIcEEED2Ev.exit260, label %if.then.i258

if.then.i258:                                     ; preds = %_ZNSt3__112basic_stringIcNS_11char_traitsIcEENS_9allocatorIcEEED2Ev.exit253
  %__data_.i.i257 = getelementptr inbounds %"struct.std::__1::basic_string<char>::__long", ptr %ref.tmp27, i64 0, i32 2
  %20 = load ptr, ptr %__data_.i.i257, align 8, !tbaa !5
  call void @_ZdlPv(ptr noundef %20) #24
  br label %_ZNSt3__112basic_stringIcNS_11char_traitsIcEENS_9allocatorIcEEED2Ev.exit260

_ZNSt3__112basic_stringIcNS_11char_traitsIcEENS_9allocatorIcEEED2Ev.exit260: ; preds = %_ZNSt3__112basic_stringIcNS_11char_traitsIcEENS_9allocatorIcEEED2Ev.exit253, %if.then.i258
  call void @llvm.lifetime.end.p0(i64 24, ptr nonnull %ref.tmp27) #23
  %bf.load.i.i261 = load i8, ptr %ref.tmp19, align 8
  %bf.clear.i.i262 = and i8 %bf.load.i.i261, 1
  %tobool.i.not.i263 = icmp eq i8 %bf.clear.i.i262, 0
  br i1 %tobool.i.not.i263, label %_ZNSt3__112basic_stringIcNS_11char_traitsIcEENS_9allocatorIcEEED2Ev.exit267, label %if.then.i265

if.then.i265:                                     ; preds = %_ZNSt3__112basic_stringIcNS_11char_traitsIcEENS_9allocatorIcEEED2Ev.exit260
  %__data_.i.i264 = getelementptr inbounds %"struct.std::__1::basic_string<char>::__long", ptr %ref.tmp19, i64 0, i32 2
  %21 = load ptr, ptr %__data_.i.i264, align 8, !tbaa !5
  call void @_ZdlPv(ptr noundef %21) #24
  br label %_ZNSt3__112basic_stringIcNS_11char_traitsIcEENS_9allocatorIcEEED2Ev.exit267

_ZNSt3__112basic_stringIcNS_11char_traitsIcEENS_9allocatorIcEEED2Ev.exit267: ; preds = %_ZNSt3__112basic_stringIcNS_11char_traitsIcEENS_9allocatorIcEEED2Ev.exit260, %if.then.i265
  call void @llvm.lifetime.end.p0(i64 24, ptr nonnull %ref.tmp19) #23
  %bf.load.i.i268 = load i8, ptr %ref.tmp11, align 8
  %bf.clear.i.i269 = and i8 %bf.load.i.i268, 1
  %tobool.i.not.i270 = icmp eq i8 %bf.clear.i.i269, 0
  br i1 %tobool.i.not.i270, label %_ZNSt3__112basic_stringIcNS_11char_traitsIcEENS_9allocatorIcEEED2Ev.exit274, label %if.then.i272

if.then.i272:                                     ; preds = %_ZNSt3__112basic_stringIcNS_11char_traitsIcEENS_9allocatorIcEEED2Ev.exit267
  %__data_.i.i271 = getelementptr inbounds %"struct.std::__1::basic_string<char>::__long", ptr %ref.tmp11, i64 0, i32 2
  %22 = load ptr, ptr %__data_.i.i271, align 8, !tbaa !5
  call void @_ZdlPv(ptr noundef %22) #24
  br label %_ZNSt3__112basic_stringIcNS_11char_traitsIcEENS_9allocatorIcEEED2Ev.exit274

_ZNSt3__112basic_stringIcNS_11char_traitsIcEENS_9allocatorIcEEED2Ev.exit274: ; preds = %_ZNSt3__112basic_stringIcNS_11char_traitsIcEENS_9allocatorIcEEED2Ev.exit267, %if.then.i272
  call void @llvm.lifetime.end.p0(i64 24, ptr nonnull %ref.tmp11) #23
  %bf.load.i.i275 = load i8, ptr %ref.tmp6, align 8
  %bf.clear.i.i276 = and i8 %bf.load.i.i275, 1
  %tobool.i.not.i277 = icmp eq i8 %bf.clear.i.i276, 0
  br i1 %tobool.i.not.i277, label %_ZNSt3__112basic_stringIcNS_11char_traitsIcEENS_9allocatorIcEEED2Ev.exit281, label %if.then.i279

if.then.i279:                                     ; preds = %_ZNSt3__112basic_stringIcNS_11char_traitsIcEENS_9allocatorIcEEED2Ev.exit274
  %__data_.i.i278 = getelementptr inbounds %"struct.std::__1::basic_string<char>::__long", ptr %ref.tmp6, i64 0, i32 2
  %23 = load ptr, ptr %__data_.i.i278, align 8, !tbaa !5
  call void @_ZdlPv(ptr noundef %23) #24
  br label %_ZNSt3__112basic_stringIcNS_11char_traitsIcEENS_9allocatorIcEEED2Ev.exit281

_ZNSt3__112basic_stringIcNS_11char_traitsIcEENS_9allocatorIcEEED2Ev.exit281: ; preds = %_ZNSt3__112basic_stringIcNS_11char_traitsIcEENS_9allocatorIcEEED2Ev.exit274, %if.then.i279
  call void @llvm.lifetime.end.p0(i64 24, ptr nonnull %ref.tmp6) #23
  call void @llvm.lifetime.end.p0(i64 240, ptr nonnull %ref.tmp5) #23
  ret void

lpad8:                                            ; preds = %for.cond.cleanup
  %24 = landingpad { ptr, i32 }
          cleanup
  br label %ehcleanup73

lpad15:                                           ; preds = %invoke.cont10
  %25 = landingpad { ptr, i32 }
          cleanup
  br label %ehcleanup70

lpad23:                                           ; preds = %invoke.cont17
  %26 = landingpad { ptr, i32 }
          cleanup
  br label %ehcleanup67

