; ModuleID = '/local/mnt2/workspace2/mnadeem/llvm/llvm-test-suite/MicroBenchmarks/libs/benchmark/test/benchmark_random_interleaving_gtest.cc'
source_filename = "/local/mnt2/workspace2/mnadeem/llvm/llvm-test-suite/MicroBenchmarks/libs/benchmark/test/benchmark_random_interleaving_gtest.cc"
target datalayout = "e-m:e-p270:32:32-p271:32:32-p272:64:64-i64:64-f80:128-n8:16:32:64-S128"
target triple = "x86_64-unknown-linux-gnu"

%"class.std::__1::basic_string" = type { %"class.std::__1::__compressed_pair" }
%"class.std::__1::__compressed_pair" = type { %"struct.std::__1::__compressed_pair_elem" }
%"struct.std::__1::__compressed_pair_elem" = type { %"struct.std::__1::basic_string<char>::__rep" }
%"struct.std::__1::basic_string<char>::__rep" = type { %union.anon }
%union.anon = type { %"struct.std::__1::basic_string<char>::__long" }
%"struct.std::__1::basic_string<char>::__long" = type { %struct.anon, i64, ptr }
%struct.anon = type { i64 }
%"class.std::__1::locale::id" = type <{ %"struct.std::__1::once_flag", i32, [4 x i8] }>
%"struct.std::__1::once_flag" = type { i64 }
%"struct.std::__1::piecewise_construct_t" = type { i8 }
%"class.std::__1::basic_ostream" = type { ptr, %"class.std::__1::basic_ios.base" }
%"class.std::__1::basic_ios.base" = type <{ %"class.std::__1::ios_base", ptr, i32 }>
%"class.std::__1::ios_base" = type { ptr, i32, i64, i64, i32, i32, ptr, ptr, ptr, ptr, i64, i64, ptr, i64, i64, ptr, i64, i64 }
%"class.benchmark::State" = type { i64, i64, i64, i8, i8, i8, %"class.std::__1::vector.17", i64, %"class.std::__1::map", i32, i32, ptr, ptr, ptr }
%"class.std::__1::vector.17" = type { ptr, ptr, %"class.std::__1::__compressed_pair.18" }
%"class.std::__1::__compressed_pair.18" = type { %"struct.std::__1::__compressed_pair_elem.19" }
%"struct.std::__1::__compressed_pair_elem.19" = type { ptr }
%"class.std::__1::map" = type { %"class.std::__1::__tree" }
%"class.std::__1::__tree" = type { ptr, %"class.std::__1::__compressed_pair.51", %"class.std::__1::__compressed_pair.57" }
%"class.std::__1::__compressed_pair.51" = type { %"struct.std::__1::__compressed_pair_elem.52" }
%"struct.std::__1::__compressed_pair_elem.52" = type { %"class.std::__1::__tree_end_node" }
%"class.std::__1::__tree_end_node" = type { ptr }
%"class.std::__1::__compressed_pair.57" = type { %"struct.std::__1::__compressed_pair_elem.9" }
%"struct.std::__1::__compressed_pair_elem.9" = type { i64 }
%"struct.std::__1::__split_buffer" = type { ptr, ptr, ptr, %"class.std::__1::__compressed_pair.2" }
%"class.std::__1::__compressed_pair.2" = type { %"struct.std::__1::__compressed_pair_elem.3" }
%"struct.std::__1::__compressed_pair_elem.3" = type { ptr }
%"class.std::__1::deque" = type { %"struct.std::__1::__split_buffer", i64, %"class.std::__1::__compressed_pair.8" }
%"class.std::__1::__compressed_pair.8" = type { %"struct.std::__1::__compressed_pair_elem.9" }
%"class.testing::internal::GTestLog" = type { i32 }
%"class.testing::AssertionResult" = type { i8, %"class.std::__1::unique_ptr.92" }
%"class.std::__1::unique_ptr.92" = type { %"class.std::__1::__compressed_pair.93" }
%"class.std::__1::__compressed_pair.93" = type { %"struct.std::__1::__compressed_pair_elem.15" }
%"struct.std::__1::__compressed_pair_elem.15" = type { ptr }
%"class.testing::Message" = type { %"class.std::__1::unique_ptr.97" }
%"class.std::__1::unique_ptr.97" = type { %"class.std::__1::__compressed_pair.98" }
%"class.std::__1::__compressed_pair.98" = type { %"struct.std::__1::__compressed_pair_elem.99" }
%"struct.std::__1::__compressed_pair_elem.99" = type { ptr }
%"class.testing::internal::AssertHelper" = type { ptr }
%"struct.std::__1::basic_string<char>::__short" = type { %struct.anon.0, [0 x i8], [23 x i8] }
%struct.anon.0 = type { i8 }
%"class.std::__1::basic_stringstream" = type { %"class.std::__1::basic_iostream.base", %"class.std::__1::basic_stringbuf", %"class.std::__1::basic_ios.base" }
%"class.std::__1::basic_iostream.base" = type { %"class.std::__1::basic_istream.base", %"class.std::__1::basic_ostream.base" }
%"class.std::__1::basic_istream.base" = type { ptr, i64 }
%"class.std::__1::basic_ostream.base" = type { ptr }
%"class.std::__1::basic_stringbuf" = type <{ %"class.std::__1::basic_streambuf", %"class.std::__1::basic_string", ptr, i32, [4 x i8] }>
%"class.std::__1::basic_streambuf" = type { ptr, %"class.std::__1::locale", ptr, ptr, ptr, ptr, ptr, ptr }
%"class.std::__1::locale" = type { ptr }
%"class.std::__1::basic_istream" = type { ptr, i64, %"class.std::__1::basic_ios.base" }
%"class.std::__1::basic_ostream<char>::sentry" = type { i8, ptr }
%"class.std::__1::basic_ios" = type <{ %"class.std::__1::ios_base", ptr, i32, [4 x i8] }>
%"class.std::__1::tuple" = type { %"struct.std::__1::__tuple_impl" }
%"struct.std::__1::__tuple_impl" = type { %"class.std::__1::__tuple_leaf" }
%"class.std::__1::__tuple_leaf" = type { ptr }
%"class.std::__1::tuple.145" = type { i8 }
%"class.std::__1::map.126" = type { %"class.std::__1::__tree.127" }
%"class.std::__1::__tree.127" = type { ptr, %"class.std::__1::__compressed_pair.128", %"class.std::__1::__compressed_pair.133" }
%"class.std::__1::__compressed_pair.128" = type { %"struct.std::__1::__compressed_pair_elem.52" }
%"class.std::__1::__compressed_pair.133" = type { %"struct.std::__1::__compressed_pair_elem.9" }
%"class.std::__1::vector" = type { ptr, ptr, %"class.std::__1::__compressed_pair.14" }
%"class.std::__1::__compressed_pair.14" = type { %"struct.std::__1::__compressed_pair_elem.15" }
%"class.std::__1::__tree_node" = type { %"class.std::__1::__tree_node_base.base", [7 x i8], %"struct.std::__1::__value_type" }
%"class.std::__1::__tree_node_base.base" = type <{ %"class.std::__1::__tree_end_node", ptr, ptr, i8 }>
%"struct.std::__1::__value_type" = type { %"struct.std::__1::pair.142" }
%"struct.std::__1::pair.142" = type <{ %"class.std::__1::basic_string", i32, [4 x i8] }>
%"class.std::__1::__tree_node_base" = type <{ %"class.std::__1::__tree_end_node", ptr, ptr, i8, [7 x i8] }>
%"struct.testing::internal::CodeLocation" = type <{ %"class.std::__1::basic_string", i32, [4 x i8] }>
%"class.benchmark::internal::FunctionBenchmark" = type { %"class.benchmark::internal::Benchmark", ptr }
%"class.benchmark::internal::Benchmark" = type { ptr, %"class.std::__1::basic_string", i32, %"class.std::__1::vector", %"class.std::__1::vector.16", i32, i8, i32, double, i64, i32, i8, i8, i8, i32, ptr, %"class.std::__1::vector.30", %"class.std::__1::vector.44", ptr, ptr }
%"class.std::__1::vector.16" = type { ptr, ptr, %"class.std::__1::__compressed_pair.24" }
%"class.std::__1::__compressed_pair.24" = type { %"struct.std::__1::__compressed_pair_elem.25" }
%"struct.std::__1::__compressed_pair_elem.25" = type { ptr }
%"class.std::__1::vector.30" = type { ptr, ptr, %"class.std::__1::__compressed_pair.38" }
%"class.std::__1::__compressed_pair.38" = type { %"struct.std::__1::__compressed_pair_elem.39" }
%"struct.std::__1::__compressed_pair_elem.39" = type { ptr }
%"class.std::__1::vector.44" = type { ptr, ptr, %"class.std::__1::__compressed_pair.45" }
%"class.std::__1::__compressed_pair.45" = type { %"struct.std::__1::__compressed_pair_elem.46" }
%"struct.std::__1::__compressed_pair_elem.46" = type { ptr }

$__clang_call_terminate = comdat any

$_ZNSt3__15dequeINS_12basic_stringIcNS_11char_traitsIcEENS_9allocatorIcEEEENS4_IS6_EEE19__add_back_capacityEv = comdat any

$_ZNSt3__114__split_bufferIPNS_12basic_stringIcNS_11char_traitsIcEENS_9allocatorIcEEEENS4_IS7_EEE9push_backEOS7_ = comdat any

$_ZNSt3__114__split_bufferIPNS_12basic_stringIcNS_11char_traitsIcEENS_9allocatorIcEEEENS4_IS7_EEE10push_frontEOS7_ = comdat any

$_ZSt28__throw_bad_array_new_lengthB7v170000v = comdat any

$_ZN7testing4Test5SetupEv = comdat any

$_ZN7testing15AssertionResultD2Ev = comdat any

$_ZN9benchmark17BenchmarkReporter8FinalizeEv = comdat any

$_ZN7testing8internal11CmpHelperEQIA12_cNSt3__112basic_stringIcNS3_11char_traitsIcEENS3_9allocatorIcEEEEEENS_15AssertionResultEPKcSC_RKT_RKT0_ = comdat any

$_ZN7testing8internal18CmpHelperEQFailureIA12_cNSt3__112basic_stringIcNS3_11char_traitsIcEENS3_9allocatorIcEEEEEENS_15AssertionResultEPKcSC_RKT_RKT0_ = comdat any

$_ZNKSt3__112basic_stringIcNS_11char_traitsIcEENS_9allocatorIcEEE20__throw_out_of_rangeB7v170000Ev = comdat any

$_ZNSt3__120__throw_out_of_rangeB7v170000EPKc = comdat any

$_ZNSt12out_of_rangeC2B7v170000EPKc = comdat any

$_ZN7testing13PrintToStringIPKcEENSt3__112basic_stringIcNS3_11char_traitsIcEENS3_9allocatorIcEEEERKT_ = comdat any

$_ZN7testing8internal21UniversalTersePrinterIPKcE5PrintES3_PNSt3__113basic_ostreamIcNS5_11char_traitsIcEEEE = comdat any

$_ZNSt3__118basic_stringstreamIcNS_11char_traitsIcEENS_9allocatorIcEEED1Ev = comdat any

$_ZNSt3__118basic_stringstreamIcNS_11char_traitsIcEENS_9allocatorIcEEED0Ev = comdat any

$_ZThn16_NSt3__118basic_stringstreamIcNS_11char_traitsIcEENS_9allocatorIcEEED1Ev = comdat any

$_ZThn16_NSt3__118basic_stringstreamIcNS_11char_traitsIcEENS_9allocatorIcEEED0Ev = comdat any

$_ZTv0_n24_NSt3__118basic_stringstreamIcNS_11char_traitsIcEENS_9allocatorIcEEED1Ev = comdat any

$_ZTv0_n24_NSt3__118basic_stringstreamIcNS_11char_traitsIcEENS_9allocatorIcEEED0Ev = comdat any

$_ZNSt3__115basic_stringbufIcNS_11char_traitsIcEENS_9allocatorIcEEED2Ev = comdat any

$_ZNSt3__115basic_stringbufIcNS_11char_traitsIcEENS_9allocatorIcEEED0Ev = comdat any

$_ZNSt3__115basic_stringbufIcNS_11char_traitsIcEENS_9allocatorIcEEE7seekoffExNS_8ios_base7seekdirEj = comdat any

$_ZNSt3__115basic_stringbufIcNS_11char_traitsIcEENS_9allocatorIcEEE7seekposENS_4fposI11__mbstate_tEEj = comdat any

$_ZNSt3__115basic_stringbufIcNS_11char_traitsIcEENS_9allocatorIcEEE9underflowEv = comdat any

$_ZNSt3__115basic_stringbufIcNS_11char_traitsIcEENS_9allocatorIcEEE9pbackfailEi = comdat any

$_ZNSt3__115basic_stringbufIcNS_11char_traitsIcEENS_9allocatorIcEEE8overflowEi = comdat any

$_ZNSt3__124__put_character_sequenceB7v170000IcNS_11char_traitsIcEEEERNS_13basic_ostreamIT_T0_EES7_PKS4_m = comdat any

$_ZNSt3__116__pad_and_outputB7v170000IcNS_11char_traitsIcEEEENS_19ostreambuf_iteratorIT_T0_EES6_PKS4_S8_S8_RNS_8ios_baseES4_ = comdat any

$_ZNKSt3__112basic_stringIcNS_11char_traitsIcEENS_9allocatorIcEEE20__throw_length_errorB7v170000Ev = comdat any

$_ZNSt3__120__throw_length_errorB7v170000EPKc = comdat any

$_ZNSt12length_errorC2B7v170000EPKc = comdat any

$_ZNKSt3__115basic_stringbufIcNS_11char_traitsIcEENS_9allocatorIcEEE3strEv = comdat any

$_ZN7testing13PrintToStringINSt3__112basic_stringIcNS1_11char_traitsIcEENS1_9allocatorIcEEEEEES7_RKT_ = comdat any

$_ZN7testing8internal11CmpHelperEQIA13_cNSt3__112basic_stringIcNS3_11char_traitsIcEENS3_9allocatorIcEEEEEENS_15AssertionResultEPKcSC_RKT_RKT0_ = comdat any

$_ZN7testing8internal18CmpHelperEQFailureIA13_cNSt3__112basic_stringIcNS3_11char_traitsIcEENS3_9allocatorIcEEEEEENS_15AssertionResultEPKcSC_RKT_RKT0_ = comdat any

$_ZN7testing8internal11CmpHelperEQIA14_cNSt3__112basic_stringIcNS3_11char_traitsIcEENS3_9allocatorIcEEEEEENS_15AssertionResultEPKcSC_RKT_RKT0_ = comdat any

$_ZN7testing8internal18CmpHelperEQFailureIA14_cNSt3__112basic_stringIcNS3_11char_traitsIcEENS3_9allocatorIcEEEEEENS_15AssertionResultEPKcSC_RKT_RKT0_ = comdat any

$_ZN7testing8internal11CmpHelperEQIA5_cNSt3__112basic_stringIcNS3_11char_traitsIcEENS3_9allocatorIcEEEEEENS_15AssertionResultEPKcSC_RKT_RKT0_ = comdat any

$_ZN7testing8internal18CmpHelperEQFailureIA5_cNSt3__112basic_stringIcNS3_11char_traitsIcEENS3_9allocatorIcEEEEEENS_15AssertionResultEPKcSC_RKT_RKT0_ = comdat any

$_ZN7testing8internal15TestFactoryBaseD2Ev = comdat any

$_ZNSt3__16vectorINS_12basic_stringIcNS_11char_traitsIcEENS_9allocatorIcEEEENS4_IS6_EEED2B7v170000Ev = comdat any

$_ZNSt3__16vectorINS_12basic_stringIcNS_11char_traitsIcEENS_9allocatorIcEEEENS4_IS6_EEE21__push_back_slow_pathIS6_EEvOT_ = comdat any

$_ZNKSt3__16vectorINS_12basic_stringIcNS_11char_traitsIcEENS_9allocatorIcEEEENS4_IS6_EEE20__throw_length_errorB7v170000Ev = comdat any

$_ZNSt3__16__treeINS_12__value_typeINS_12basic_stringIcNS_11char_traitsIcEENS_9allocatorIcEEEEiEENS_19__map_value_compareIS7_S8_NS_4lessIS7_EELb1EEENS5_IS8_EEE25__emplace_unique_key_argsIS7_JRKNS_21piecewise_construct_tENS_5tupleIJRKS7_EEENSJ_IJEEEEEENS_4pairINS_15__tree_iteratorIS8_PNS_11__tree_nodeIS8_PvEElEEbEERKT_DpOT0_ = comdat any

$_ZNSt3__16__treeINS_12__value_typeINS_12basic_stringIcNS_11char_traitsIcEENS_9allocatorIcEEEEiEENS_19__map_value_compareIS7_S8_NS_4lessIS7_EELb1EEENS5_IS8_EEE12__find_equalIS7_EERPNS_16__tree_node_baseIPvEERPNS_15__tree_end_nodeISJ_EERKT_ = comdat any

$_ZNSt3__127__tree_balance_after_insertB7v170000IPNS_16__tree_node_baseIPvEEEEvT_S5_ = comdat any

$_ZN7testing8internal18CmpHelperEQFailureIiiEENS_15AssertionResultEPKcS4_RKT_RKT0_ = comdat any

$_ZN7testing13PrintToStringIiEENSt3__112basic_stringIcNS1_11char_traitsIcEENS1_9allocatorIcEEEERKT_ = comdat any

$_ZN7testing8internal18CmpHelperOpFailureImiEENS_15AssertionResultEPKcS4_RKT_RKT0_S4_ = comdat any

$_ZN7testing15AssertionResult13AppendMessageERKNS_7MessageE = comdat any

$_ZN7testing13PrintToStringImEENSt3__112basic_stringIcNS1_11char_traitsIcEENS1_9allocatorIcEEEERKT_ = comdat any

$_ZNSt3__16__treeINS_12__value_typeINS_12basic_stringIcNS_11char_traitsIcEENS_9allocatorIcEEEEiEENS_19__map_value_compareIS7_S8_NS_4lessIS7_EELb1EEENS5_IS8_EEE7destroyEPNS_11__tree_nodeIS8_PvEE = comdat any

$_ZTSN7testing8internal15TestFactoryBaseE = comdat any

$_ZTIN7testing8internal15TestFactoryBaseE = comdat any

$_ZTVNSt3__118basic_stringstreamIcNS_11char_traitsIcEENS_9allocatorIcEEEE = comdat any

$_ZTTNSt3__118basic_stringstreamIcNS_11char_traitsIcEENS_9allocatorIcEEEE = comdat any

$_ZTCNSt3__118basic_stringstreamIcNS_11char_traitsIcEENS_9allocatorIcEEEE0_NS_14basic_iostreamIcS2_EE = comdat any

$_ZTCNSt3__118basic_stringstreamIcNS_11char_traitsIcEENS_9allocatorIcEEEE0_NS_13basic_istreamIcS2_EE = comdat any

$_ZTCNSt3__118basic_stringstreamIcNS_11char_traitsIcEENS_9allocatorIcEEEE16_NS_13basic_ostreamIcS2_EE = comdat any

$_ZTSNSt3__118basic_stringstreamIcNS_11char_traitsIcEENS_9allocatorIcEEEE = comdat any

$_ZTINSt3__118basic_stringstreamIcNS_11char_traitsIcEENS_9allocatorIcEEEE = comdat any

$_ZTVNSt3__115basic_stringbufIcNS_11char_traitsIcEENS_9allocatorIcEEEE = comdat any

$_ZTSNSt3__115basic_stringbufIcNS_11char_traitsIcEENS_9allocatorIcEEEE = comdat any

$_ZTINSt3__115basic_stringbufIcNS_11char_traitsIcEENS_9allocatorIcEEEE = comdat any

@_ZN9benchmark8internal12_GLOBAL__N_15queueE = internal unnamed_addr global ptr null, align 8
@_ZN9benchmark8internal12_GLOBAL__N_127benchmark_uniq_2_benchmark_E = internal unnamed_addr global ptr null, align 8
@.str = private unnamed_addr constant [10 x i8] c"BM_Match1\00", align 1
@_ZN9benchmark8internal12_GLOBAL__N_125BenchmarkTest_Match1_Test10test_info_E = internal global ptr null, align 8
@.str.4 = private unnamed_addr constant [14 x i8] c"BenchmarkTest\00", align 1
@.str.5 = private unnamed_addr constant [7 x i8] c"Match1\00", align 1
@.str.6 = private unnamed_addr constant [127 x i8] c"/local/mnt2/workspace2/mnadeem/llvm/llvm-test-suite/MicroBenchmarks/libs/benchmark/test/benchmark_random_interleaving_gtest.cc\00", align 1
@_ZN9benchmark8internal12_GLOBAL__N_139BenchmarkTest_Match1WithRepetition_Test10test_info_E = internal global ptr null, align 8
@.str.8 = private unnamed_addr constant [21 x i8] c"Match1WithRepetition\00", align 1
@_ZN9benchmark8internal12_GLOBAL__N_147BenchmarkTest_Match1WithRandomInterleaving_Test10test_info_E = internal global ptr null, align 8
@.str.10 = private unnamed_addr constant [29 x i8] c"Match1WithRandomInterleaving\00", align 1
@.str.11 = private unnamed_addr constant [13 x i8] c"BM_Match1/%d\00", align 1
@.str.12 = private unnamed_addr constant [20 x i8] c"range_.size() > pos\00", align 1
@.str.13 = private unnamed_addr constant [113 x i8] c"/local/mnt2/workspace2/mnadeem/llvm/llvm-test-suite/MicroBenchmarks/libs/benchmark/include/benchmark/benchmark.h\00", align 1
@__PRETTY_FUNCTION__._ZNK9benchmark5State5rangeEm = private unnamed_addr constant [51 x i8] c"int64_t benchmark::State::range(std::size_t) const\00", align 1
@_ZTISt20bad_array_new_length = external constant ptr
@_ZTVN9benchmark8internal17FunctionBenchmarkE = external unnamed_addr constant { [5 x ptr] }, align 8
@_ZTVN7testing8internal15TestFactoryImplIN9benchmark8internal12_GLOBAL__N_125BenchmarkTest_Match1_TestEEE = internal unnamed_addr constant { [5 x ptr] } { [5 x ptr] [ptr null, ptr @_ZTIN7testing8internal15TestFactoryImplIN9benchmark8internal12_GLOBAL__N_125BenchmarkTest_Match1_TestEEE, ptr @_ZN7testing8internal15TestFactoryBaseD2Ev, ptr @_ZN7testing8internal15TestFactoryImplIN9benchmark8internal12_GLOBAL__N_125BenchmarkTest_Match1_TestEED0Ev, ptr @_ZN7testing8internal15TestFactoryImplIN9benchmark8internal12_GLOBAL__N_125BenchmarkTest_Match1_TestEE10CreateTestEv] }, align 8
@_ZTVN10__cxxabiv120__si_class_type_infoE = external global ptr
@_ZTSN7testing8internal15TestFactoryImplIN9benchmark8internal12_GLOBAL__N_125BenchmarkTest_Match1_TestEEE = internal constant [101 x i8] c"N7testing8internal15TestFactoryImplIN9benchmark8internal12_GLOBAL__N_125BenchmarkTest_Match1_TestEEE\00", align 1
@_ZTVN10__cxxabiv117__class_type_infoE = external global ptr
@_ZTSN7testing8internal15TestFactoryBaseE = linkonce_odr hidden constant [37 x i8] c"N7testing8internal15TestFactoryBaseE\00", comdat, align 1
@_ZTIN7testing8internal15TestFactoryBaseE = linkonce_odr hidden constant { ptr, ptr } { ptr getelementptr inbounds (ptr, ptr @_ZTVN10__cxxabiv117__class_type_infoE, i64 2), ptr @_ZTSN7testing8internal15TestFactoryBaseE }, comdat, align 8
@_ZTIN7testing8internal15TestFactoryImplIN9benchmark8internal12_GLOBAL__N_125BenchmarkTest_Match1_TestEEE = internal constant { ptr, ptr, ptr } { ptr getelementptr inbounds (ptr, ptr @_ZTVN10__cxxabiv120__si_class_type_infoE, i64 2), ptr @_ZTSN7testing8internal15TestFactoryImplIN9benchmark8internal12_GLOBAL__N_125BenchmarkTest_Match1_TestEEE, ptr @_ZTIN7testing8internal15TestFactoryBaseE }, align 8
@_ZTVN9benchmark8internal12_GLOBAL__N_125BenchmarkTest_Match1_TestE = internal unnamed_addr constant { [8 x ptr] } { [8 x ptr] [ptr null, ptr @_ZTIN9benchmark8internal12_GLOBAL__N_125BenchmarkTest_Match1_TestE, ptr @_ZN7testing4TestD2Ev, ptr @_ZN9benchmark8internal12_GLOBAL__N_125BenchmarkTest_Match1_TestD0Ev, ptr @_ZN7testing4Test5SetUpEv, ptr @_ZN7testing4Test8TearDownEv, ptr @_ZN9benchmark8internal12_GLOBAL__N_125BenchmarkTest_Match1_Test8TestBodyEv, ptr @_ZN7testing4Test5SetupEv] }, align 8
@_ZTSN9benchmark8internal12_GLOBAL__N_125BenchmarkTest_Match1_TestE = internal constant [63 x i8] c"N9benchmark8internal12_GLOBAL__N_125BenchmarkTest_Match1_TestE\00", align 1
@_ZTSN9benchmark8internal12_GLOBAL__N_113BenchmarkTestE = internal constant [51 x i8] c"N9benchmark8internal12_GLOBAL__N_113BenchmarkTestE\00", align 1
@_ZTIN7testing4TestE = external constant ptr
@_ZTIN9benchmark8internal12_GLOBAL__N_113BenchmarkTestE = internal constant { ptr, ptr, ptr } { ptr getelementptr inbounds (ptr, ptr @_ZTVN10__cxxabiv120__si_class_type_infoE, i64 2), ptr @_ZTSN9benchmark8internal12_GLOBAL__N_113BenchmarkTestE, ptr @_ZTIN7testing4TestE }, align 8
@_ZTIN9benchmark8internal12_GLOBAL__N_125BenchmarkTest_Match1_TestE = internal constant { ptr, ptr, ptr } { ptr getelementptr inbounds (ptr, ptr @_ZTVN10__cxxabiv120__si_class_type_infoE, i64 2), ptr @_ZTSN9benchmark8internal12_GLOBAL__N_125BenchmarkTest_Match1_TestE, ptr @_ZTIN9benchmark8internal12_GLOBAL__N_113BenchmarkTestE }, align 8
@.str.15 = private unnamed_addr constant [14 x i8] c"\22BM_Match1/1\22\00", align 1
@.str.16 = private unnamed_addr constant [13 x i8] c"queue->Get()\00", align 1
@.str.17 = private unnamed_addr constant [12 x i8] c"BM_Match1/1\00", align 1
@.str.18 = private unnamed_addr constant [14 x i8] c"\22BM_Match1/2\22\00", align 1
@.str.19 = private unnamed_addr constant [12 x i8] c"BM_Match1/2\00", align 1
@.str.20 = private unnamed_addr constant [14 x i8] c"\22BM_Match1/3\22\00", align 1
@.str.21 = private unnamed_addr constant [12 x i8] c"BM_Match1/3\00", align 1
@.str.22 = private unnamed_addr constant [15 x i8] c"\22BM_Match1/10\22\00", align 1
@.str.23 = private unnamed_addr constant [13 x i8] c"BM_Match1/10\00", align 1
@.str.24 = private unnamed_addr constant [15 x i8] c"\22BM_Match1/64\22\00", align 1
@.str.25 = private unnamed_addr constant [13 x i8] c"BM_Match1/64\00", align 1
@.str.26 = private unnamed_addr constant [15 x i8] c"\22BM_Match1/80\22\00", align 1
@.str.27 = private unnamed_addr constant [13 x i8] c"BM_Match1/80\00", align 1
@.str.28 = private unnamed_addr constant [15 x i8] c"\22BM_Match1/90\22\00", align 1
@.str.29 = private unnamed_addr constant [13 x i8] c"BM_Match1/90\00", align 1
@.str.30 = private unnamed_addr constant [16 x i8] c"\22BM_Match1/100\22\00", align 1
@.str.31 = private unnamed_addr constant [14 x i8] c"BM_Match1/100\00", align 1
@.str.32 = private unnamed_addr constant [7 x i8] c"\22DONE\22\00", align 1
@.str.33 = private unnamed_addr constant [5 x i8] c"DONE\00", align 1
@_ZN9benchmark22FLAGS_benchmark_filterE = external global %"class.std::__1::basic_string", align 8
@_ZTVN9benchmark8internal12_GLOBAL__N_112NullReporterE = internal unnamed_addr constant { [7 x ptr] } { [7 x ptr] [ptr null, ptr @_ZTIN9benchmark8internal12_GLOBAL__N_112NullReporterE, ptr @_ZN9benchmark8internal12_GLOBAL__N_112NullReporter13ReportContextERKNS_17BenchmarkReporter7ContextE, ptr @_ZN9benchmark8internal12_GLOBAL__N_112NullReporter10ReportRunsERKNSt3__16vectorINS_17BenchmarkReporter3RunENS3_9allocatorIS6_EEEE, ptr @_ZN9benchmark17BenchmarkReporter8FinalizeEv, ptr @_ZN9benchmark17BenchmarkReporterD2Ev, ptr @_ZN9benchmark8internal12_GLOBAL__N_112NullReporterD0Ev] }, align 8
@_ZTSN9benchmark8internal12_GLOBAL__N_112NullReporterE = internal constant [50 x i8] c"N9benchmark8internal12_GLOBAL__N_112NullReporterE\00", align 1
@_ZTIN9benchmark17BenchmarkReporterE = external constant ptr
@_ZTIN9benchmark8internal12_GLOBAL__N_112NullReporterE = internal constant { ptr, ptr, ptr } { ptr getelementptr inbounds (ptr, ptr @_ZTVN10__cxxabiv120__si_class_type_infoE, i64 2), ptr @_ZTSN9benchmark8internal12_GLOBAL__N_112NullReporterE, ptr @_ZTIN9benchmark17BenchmarkReporterE }, align 8
@.str.34 = private unnamed_addr constant [13 x i8] c"basic_string\00", align 1
@_ZTISt12out_of_range = external constant ptr
@_ZTVSt12out_of_range = external unnamed_addr constant { [5 x ptr] }, align 8
@_ZTVNSt3__118basic_stringstreamIcNS_11char_traitsIcEENS_9allocatorIcEEEE = linkonce_odr dso_local unnamed_addr constant { [5 x ptr], [5 x ptr], [5 x ptr] } { [5 x ptr] [ptr inttoptr (i64 128 to ptr), ptr null, ptr @_ZTINSt3__118basic_stringstreamIcNS_11char_traitsIcEENS_9allocatorIcEEEE, ptr @_ZNSt3__118basic_stringstreamIcNS_11char_traitsIcEENS_9allocatorIcEEED1Ev, ptr @_ZNSt3__118basic_stringstreamIcNS_11char_traitsIcEENS_9allocatorIcEEED0Ev], [5 x ptr] [ptr inttoptr (i64 112 to ptr), ptr inttoptr (i64 -16 to ptr), ptr @_ZTINSt3__118basic_stringstreamIcNS_11char_traitsIcEENS_9allocatorIcEEEE, ptr @_ZThn16_NSt3__118basic_stringstreamIcNS_11char_traitsIcEENS_9allocatorIcEEED1Ev, ptr @_ZThn16_NSt3__118basic_stringstreamIcNS_11char_traitsIcEENS_9allocatorIcEEED0Ev], [5 x ptr] [ptr inttoptr (i64 -128 to ptr), ptr inttoptr (i64 -128 to ptr), ptr @_ZTINSt3__118basic_stringstreamIcNS_11char_traitsIcEENS_9allocatorIcEEEE, ptr @_ZTv0_n24_NSt3__118basic_stringstreamIcNS_11char_traitsIcEENS_9allocatorIcEEED1Ev, ptr @_ZTv0_n24_NSt3__118basic_stringstreamIcNS_11char_traitsIcEENS_9allocatorIcEEED0Ev] }, comdat, align 8
@_ZTTNSt3__118basic_stringstreamIcNS_11char_traitsIcEENS_9allocatorIcEEEE = linkonce_odr dso_local unnamed_addr constant [10 x ptr] [ptr getelementptr inbounds ({ [5 x ptr], [5 x ptr], [5 x ptr] }, ptr @_ZTVNSt3__118basic_stringstreamIcNS_11char_traitsIcEENS_9allocatorIcEEEE, i32 0, inrange i32 0, i32 3), ptr getelementptr inbounds ({ [5 x ptr], [5 x ptr], [5 x ptr] }, ptr @_ZTCNSt3__118basic_stringstreamIcNS_11char_traitsIcEENS_9allocatorIcEEEE0_NS_14basic_iostreamIcS2_EE, i32 0, inrange i32 0, i32 3), ptr getelementptr inbounds ({ [5 x ptr], [5 x ptr] }, ptr @_ZTCNSt3__118basic_stringstreamIcNS_11char_traitsIcEENS_9allocatorIcEEEE0_NS_13basic_istreamIcS2_EE, i32 0, inrange i32 0, i32 3), ptr getelementptr inbounds ({ [5 x ptr], [5 x ptr] }, ptr @_ZTCNSt3__118basic_stringstreamIcNS_11char_traitsIcEENS_9allocatorIcEEEE0_NS_13basic_istreamIcS2_EE, i32 0, inrange i32 1, i32 3), ptr getelementptr inbounds ({ [5 x ptr], [5 x ptr] }, ptr @_ZTCNSt3__118basic_stringstreamIcNS_11char_traitsIcEENS_9allocatorIcEEEE16_NS_13basic_ostreamIcS2_EE, i32 0, inrange i32 0, i32 3), ptr getelementptr inbounds ({ [5 x ptr], [5 x ptr] }, ptr @_ZTCNSt3__118basic_stringstreamIcNS_11char_traitsIcEENS_9allocatorIcEEEE16_NS_13basic_ostreamIcS2_EE, i32 0, inrange i32 1, i32 3), ptr getelementptr inbounds ({ [5 x ptr], [5 x ptr], [5 x ptr] }, ptr @_ZTCNSt3__118basic_stringstreamIcNS_11char_traitsIcEENS_9allocatorIcEEEE0_NS_14basic_iostreamIcS2_EE, i32 0, inrange i32 2, i32 3), ptr getelementptr inbounds ({ [5 x ptr], [5 x ptr], [5 x ptr] }, ptr @_ZTCNSt3__118basic_stringstreamIcNS_11char_traitsIcEENS_9allocatorIcEEEE0_NS_14basic_iostreamIcS2_EE, i32 0, inrange i32 1, i32 3), ptr getelementptr inbounds ({ [5 x ptr], [5 x ptr], [5 x ptr] }, ptr @_ZTVNSt3__118basic_stringstreamIcNS_11char_traitsIcEENS_9allocatorIcEEEE, i32 0, inrange i32 2, i32 3), ptr getelementptr inbounds ({ [5 x ptr], [5 x ptr], [5 x ptr] }, ptr @_ZTVNSt3__118basic_stringstreamIcNS_11char_traitsIcEENS_9allocatorIcEEEE, i32 0, inrange i32 1, i32 3)], comdat, align 8
@_ZTCNSt3__118basic_stringstreamIcNS_11char_traitsIcEENS_9allocatorIcEEEE0_NS_14basic_iostreamIcS2_EE = linkonce_odr dso_local unnamed_addr constant { [5 x ptr], [5 x ptr], [5 x ptr] } { [5 x ptr] [ptr inttoptr (i64 128 to ptr), ptr null, ptr @_ZTINSt3__114basic_iostreamIcNS_11char_traitsIcEEEE, ptr @_ZNSt3__114basic_iostreamIcNS_11char_traitsIcEEED1Ev, ptr @_ZNSt3__114basic_iostreamIcNS_11char_traitsIcEEED0Ev], [5 x ptr] [ptr inttoptr (i64 112 to ptr), ptr inttoptr (i64 -16 to ptr), ptr @_ZTINSt3__114basic_iostreamIcNS_11char_traitsIcEEEE, ptr @_ZThn16_NSt3__114basic_iostreamIcNS_11char_traitsIcEEED1Ev, ptr @_ZThn16_NSt3__114basic_iostreamIcNS_11char_traitsIcEEED0Ev], [5 x ptr] [ptr inttoptr (i64 -128 to ptr), ptr inttoptr (i64 -128 to ptr), ptr @_ZTINSt3__114basic_iostreamIcNS_11char_traitsIcEEEE, ptr @_ZTv0_n24_NSt3__114basic_iostreamIcNS_11char_traitsIcEEED1Ev, ptr @_ZTv0_n24_NSt3__114basic_iostreamIcNS_11char_traitsIcEEED0Ev] }, comdat, align 8
@_ZTINSt3__114basic_iostreamIcNS_11char_traitsIcEEEE = external constant ptr
@_ZTCNSt3__118basic_stringstreamIcNS_11char_traitsIcEENS_9allocatorIcEEEE0_NS_13basic_istreamIcS2_EE = linkonce_odr dso_local unnamed_addr constant { [5 x ptr], [5 x ptr] } { [5 x ptr] [ptr inttoptr (i64 128 to ptr), ptr null, ptr @_ZTINSt3__113basic_istreamIcNS_11char_traitsIcEEEE, ptr @_ZNSt3__113basic_istreamIcNS_11char_traitsIcEEED1Ev, ptr @_ZNSt3__113basic_istreamIcNS_11char_traitsIcEEED0Ev], [5 x ptr] [ptr inttoptr (i64 -128 to ptr), ptr inttoptr (i64 -128 to ptr), ptr @_ZTINSt3__113basic_istreamIcNS_11char_traitsIcEEEE, ptr @_ZTv0_n24_NSt3__113basic_istreamIcNS_11char_traitsIcEEED1Ev, ptr @_ZTv0_n24_NSt3__113basic_istreamIcNS_11char_traitsIcEEED0Ev] }, comdat, align 8
@_ZTINSt3__113basic_istreamIcNS_11char_traitsIcEEEE = external constant ptr
@_ZTCNSt3__118basic_stringstreamIcNS_11char_traitsIcEENS_9allocatorIcEEEE16_NS_13basic_ostreamIcS2_EE = linkonce_odr dso_local unnamed_addr constant { [5 x ptr], [5 x ptr] } { [5 x ptr] [ptr inttoptr (i64 112 to ptr), ptr null, ptr @_ZTINSt3__113basic_ostreamIcNS_11char_traitsIcEEEE, ptr @_ZNSt3__113basic_ostreamIcNS_11char_traitsIcEEED1Ev, ptr @_ZNSt3__113basic_ostreamIcNS_11char_traitsIcEEED0Ev], [5 x ptr] [ptr inttoptr (i64 -112 to ptr), ptr inttoptr (i64 -112 to ptr), ptr @_ZTINSt3__113basic_ostreamIcNS_11char_traitsIcEEEE, ptr @_ZTv0_n24_NSt3__113basic_ostreamIcNS_11char_traitsIcEEED1Ev, ptr @_ZTv0_n24_NSt3__113basic_ostreamIcNS_11char_traitsIcEEED0Ev] }, comdat, align 8
@_ZTINSt3__113basic_ostreamIcNS_11char_traitsIcEEEE = external constant ptr
@_ZTSNSt3__118basic_stringstreamIcNS_11char_traitsIcEENS_9allocatorIcEEEE = linkonce_odr dso_local constant [69 x i8] c"NSt3__118basic_stringstreamIcNS_11char_traitsIcEENS_9allocatorIcEEEE\00", comdat, align 1
@_ZTINSt3__118basic_stringstreamIcNS_11char_traitsIcEENS_9allocatorIcEEEE = linkonce_odr dso_local constant { ptr, ptr, ptr } { ptr getelementptr inbounds (ptr, ptr @_ZTVN10__cxxabiv120__si_class_type_infoE, i64 2), ptr @_ZTSNSt3__118basic_stringstreamIcNS_11char_traitsIcEENS_9allocatorIcEEEE, ptr @_ZTINSt3__114basic_iostreamIcNS_11char_traitsIcEEEE }, comdat, align 8
@_ZTVNSt3__115basic_stringbufIcNS_11char_traitsIcEENS_9allocatorIcEEEE = linkonce_odr dso_local unnamed_addr constant { [16 x ptr] } { [16 x ptr] [ptr null, ptr @_ZTINSt3__115basic_stringbufIcNS_11char_traitsIcEENS_9allocatorIcEEEE, ptr @_ZNSt3__115basic_stringbufIcNS_11char_traitsIcEENS_9allocatorIcEEED2Ev, ptr @_ZNSt3__115basic_stringbufIcNS_11char_traitsIcEENS_9allocatorIcEEED0Ev, ptr @_ZNSt3__115basic_streambufIcNS_11char_traitsIcEEE5imbueERKNS_6localeE, ptr @_ZNSt3__115basic_streambufIcNS_11char_traitsIcEEE6setbufEPcl, ptr @_ZNSt3__115basic_stringbufIcNS_11char_traitsIcEENS_9allocatorIcEEE7seekoffExNS_8ios_base7seekdirEj, ptr @_ZNSt3__115basic_stringbufIcNS_11char_traitsIcEENS_9allocatorIcEEE7seekposENS_4fposI11__mbstate_tEEj, ptr @_ZNSt3__115basic_streambufIcNS_11char_traitsIcEEE4syncEv, ptr @_ZNSt3__115basic_streambufIcNS_11char_traitsIcEEE9showmanycEv, ptr @_ZNSt3__115basic_streambufIcNS_11char_traitsIcEEE6xsgetnEPcl, ptr @_ZNSt3__115basic_stringbufIcNS_11char_traitsIcEENS_9allocatorIcEEE9underflowEv, ptr @_ZNSt3__115basic_streambufIcNS_11char_traitsIcEEE5uflowEv, ptr @_ZNSt3__115basic_stringbufIcNS_11char_traitsIcEENS_9allocatorIcEEE9pbackfailEi, ptr @_ZNSt3__115basic_streambufIcNS_11char_traitsIcEEE6xsputnEPKcl, ptr @_ZNSt3__115basic_stringbufIcNS_11char_traitsIcEENS_9allocatorIcEEE8overflowEi] }, comdat, align 8
@_ZTSNSt3__115basic_stringbufIcNS_11char_traitsIcEENS_9allocatorIcEEEE = linkonce_odr dso_local constant [66 x i8] c"NSt3__115basic_stringbufIcNS_11char_traitsIcEENS_9allocatorIcEEEE\00", comdat, align 1
@_ZTINSt3__115basic_streambufIcNS_11char_traitsIcEEEE = external constant ptr
@_ZTINSt3__115basic_stringbufIcNS_11char_traitsIcEENS_9allocatorIcEEEE = linkonce_odr dso_local constant { ptr, ptr, ptr } { ptr getelementptr inbounds (ptr, ptr @_ZTVN10__cxxabiv120__si_class_type_infoE, i64 2), ptr @_ZTSNSt3__115basic_stringbufIcNS_11char_traitsIcEENS_9allocatorIcEEEE, ptr @_ZTINSt3__115basic_streambufIcNS_11char_traitsIcEEEE }, comdat, align 8
@.str.35 = private unnamed_addr constant [5 x i8] c"NULL\00", align 1
@_ZTISt12length_error = external constant ptr
@_ZTVSt12length_error = external unnamed_addr constant { [5 x ptr] }, align 8
@_ZNSt3__15ctypeIcE2idE = external global %"class.std::__1::locale::id", align 8
@.str.36 = private unnamed_addr constant [1 x i8] zeroinitializer, align 1
@_ZTVN7testing8internal15TestFactoryImplIN9benchmark8internal12_GLOBAL__N_139BenchmarkTest_Match1WithRepetition_TestEEE = internal unnamed_addr constant { [5 x ptr] } { [5 x ptr] [ptr null, ptr @_ZTIN7testing8internal15TestFactoryImplIN9benchmark8internal12_GLOBAL__N_139BenchmarkTest_Match1WithRepetition_TestEEE, ptr @_ZN7testing8internal15TestFactoryBaseD2Ev, ptr @_ZN7testing8internal15TestFactoryImplIN9benchmark8internal12_GLOBAL__N_139BenchmarkTest_Match1WithRepetition_TestEED0Ev, ptr @_ZN7testing8internal15TestFactoryImplIN9benchmark8internal12_GLOBAL__N_139BenchmarkTest_Match1WithRepetition_TestEE10CreateTestEv] }, align 8
@_ZTSN7testing8internal15TestFactoryImplIN9benchmark8internal12_GLOBAL__N_139BenchmarkTest_Match1WithRepetition_TestEEE = internal constant [115 x i8] c"N7testing8internal15TestFactoryImplIN9benchmark8internal12_GLOBAL__N_139BenchmarkTest_Match1WithRepetition_TestEEE\00", align 1
@_ZTIN7testing8internal15TestFactoryImplIN9benchmark8internal12_GLOBAL__N_139BenchmarkTest_Match1WithRepetition_TestEEE = internal constant { ptr, ptr, ptr } { ptr getelementptr inbounds (ptr, ptr @_ZTVN10__cxxabiv120__si_class_type_infoE, i64 2), ptr @_ZTSN7testing8internal15TestFactoryImplIN9benchmark8internal12_GLOBAL__N_139BenchmarkTest_Match1WithRepetition_TestEEE, ptr @_ZTIN7testing8internal15TestFactoryBaseE }, align 8
@_ZTVN9benchmark8internal12_GLOBAL__N_139BenchmarkTest_Match1WithRepetition_TestE = internal unnamed_addr constant { [8 x ptr] } { [8 x ptr] [ptr null, ptr @_ZTIN9benchmark8internal12_GLOBAL__N_139BenchmarkTest_Match1WithRepetition_TestE, ptr @_ZN7testing4TestD2Ev, ptr @_ZN9benchmark8internal12_GLOBAL__N_139BenchmarkTest_Match1WithRepetition_TestD0Ev, ptr @_ZN7testing4Test5SetUpEv, ptr @_ZN7testing4Test8TearDownEv, ptr @_ZN9benchmark8internal12_GLOBAL__N_139BenchmarkTest_Match1WithRepetition_Test8TestBodyEv, ptr @_ZN7testing4Test5SetupEv] }, align 8
@_ZTSN9benchmark8internal12_GLOBAL__N_139BenchmarkTest_Match1WithRepetition_TestE = internal constant [77 x i8] c"N9benchmark8internal12_GLOBAL__N_139BenchmarkTest_Match1WithRepetition_TestE\00", align 1
@_ZTIN9benchmark8internal12_GLOBAL__N_139BenchmarkTest_Match1WithRepetition_TestE = internal constant { ptr, ptr, ptr } { ptr getelementptr inbounds (ptr, ptr @_ZTVN10__cxxabiv120__si_class_type_infoE, i64 2), ptr @_ZTSN9benchmark8internal12_GLOBAL__N_139BenchmarkTest_Match1WithRepetition_TestE, ptr @_ZTIN9benchmark8internal12_GLOBAL__N_113BenchmarkTestE }, align 8
@_ZN9benchmark27FLAGS_benchmark_repetitionsE = external local_unnamed_addr global i32, align 4
@.str.37 = private unnamed_addr constant [18 x i8] c"BM_Match1/(64|80)\00", align 1
@_ZTVN7testing8internal15TestFactoryImplIN9benchmark8internal12_GLOBAL__N_147BenchmarkTest_Match1WithRandomInterleaving_TestEEE = internal unnamed_addr constant { [5 x ptr] } { [5 x ptr] [ptr null, ptr @_ZTIN7testing8internal15TestFactoryImplIN9benchmark8internal12_GLOBAL__N_147BenchmarkTest_Match1WithRandomInterleaving_TestEEE, ptr @_ZN7testing8internal15TestFactoryBaseD2Ev, ptr @_ZN7testing8internal15TestFactoryImplIN9benchmark8internal12_GLOBAL__N_147BenchmarkTest_Match1WithRandomInterleaving_TestEED0Ev, ptr @_ZN7testing8internal15TestFactoryImplIN9benchmark8internal12_GLOBAL__N_147BenchmarkTest_Match1WithRandomInterleaving_TestEE10CreateTestEv] }, align 8
@_ZTSN7testing8internal15TestFactoryImplIN9benchmark8internal12_GLOBAL__N_147BenchmarkTest_Match1WithRandomInterleaving_TestEEE = internal constant [123 x i8] c"N7testing8internal15TestFactoryImplIN9benchmark8internal12_GLOBAL__N_147BenchmarkTest_Match1WithRandomInterleaving_TestEEE\00", align 1
@_ZTIN7testing8internal15TestFactoryImplIN9benchmark8internal12_GLOBAL__N_147BenchmarkTest_Match1WithRandomInterleaving_TestEEE = internal constant { ptr, ptr, ptr } { ptr getelementptr inbounds (ptr, ptr @_ZTVN10__cxxabiv120__si_class_type_infoE, i64 2), ptr @_ZTSN7testing8internal15TestFactoryImplIN9benchmark8internal12_GLOBAL__N_147BenchmarkTest_Match1WithRandomInterleaving_TestEEE, ptr @_ZTIN7testing8internal15TestFactoryBaseE }, align 8
@_ZTVN9benchmark8internal12_GLOBAL__N_147BenchmarkTest_Match1WithRandomInterleaving_TestE = internal unnamed_addr constant { [8 x ptr] } { [8 x ptr] [ptr null, ptr @_ZTIN9benchmark8internal12_GLOBAL__N_147BenchmarkTest_Match1WithRandomInterleaving_TestE, ptr @_ZN7testing4TestD2Ev, ptr @_ZN9benchmark8internal12_GLOBAL__N_147BenchmarkTest_Match1WithRandomInterleaving_TestD0Ev, ptr @_ZN7testing4Test5SetUpEv, ptr @_ZN7testing4Test8TearDownEv, ptr @_ZN9benchmark8internal12_GLOBAL__N_147BenchmarkTest_Match1WithRandomInterleaving_Test8TestBodyEv, ptr @_ZN7testing4Test5SetupEv] }, align 8
@_ZTSN9benchmark8internal12_GLOBAL__N_147BenchmarkTest_Match1WithRandomInterleaving_TestE = internal constant [85 x i8] c"N9benchmark8internal12_GLOBAL__N_147BenchmarkTest_Match1WithRandomInterleaving_TestE\00", align 1
@_ZTIN9benchmark8internal12_GLOBAL__N_147BenchmarkTest_Match1WithRandomInterleaving_TestE = internal constant { ptr, ptr, ptr } { ptr getelementptr inbounds (ptr, ptr @_ZTVN10__cxxabiv120__si_class_type_infoE, i64 2), ptr @_ZTSN9benchmark8internal12_GLOBAL__N_147BenchmarkTest_Match1WithRandomInterleaving_TestE, ptr @_ZTIN9benchmark8internal12_GLOBAL__N_113BenchmarkTestE }, align 8
@_ZN9benchmark42FLAGS_benchmark_enable_random_interleavingE = external local_unnamed_addr global i8, align 1
@.str.38 = private unnamed_addr constant [6 x i8] c"%s,%s\00", align 1
@.str.39 = private unnamed_addr constant [30 x i8] c"element_count[\22BM_Match1/64\22]\00", align 1
@.str.40 = private unnamed_addr constant [4 x i8] c"100\00", align 1
@.str.41 = private unnamed_addr constant [24 x i8] c"Unexpected repetitions.\00", align 1
@.str.42 = private unnamed_addr constant [30 x i8] c"element_count[\22BM_Match1/80\22]\00", align 1
@.str.43 = private unnamed_addr constant [26 x i8] c"interleaving_count.size()\00", align 1
@.str.44 = private unnamed_addr constant [2 x i8] c"2\00", align 1
@.str.45 = private unnamed_addr constant [33 x i8] c"Interleaving was not randomized.\00", align 1
@.str.46 = private unnamed_addr constant [7 x i8] c"vector\00", align 1
@_ZNSt3__1L19piecewise_constructE = internal constant %"struct.std::__1::piecewise_construct_t" undef, align 1
@.str.47 = private unnamed_addr constant [3 x i8] c">=\00", align 1
@.str.48 = private unnamed_addr constant [12 x i8] c"Expected: (\00", align 1
@.str.49 = private unnamed_addr constant [3 x i8] c") \00", align 1
@.str.50 = private unnamed_addr constant [3 x i8] c" (\00", align 1
@.str.51 = private unnamed_addr constant [12 x i8] c"), actual: \00", align 1
@.str.52 = private unnamed_addr constant [5 x i8] c" vs \00", align 1
@.str.53 = private unnamed_addr constant [7 x i8] c"(null)\00", align 1
@_ZN7testing8internal12TypeIdHelperIN9benchmark8internal12_GLOBAL__N_113BenchmarkTestEE6dummy_E = internal global i8 0, align 1
@.str.54 = private unnamed_addr constant [145 x i8] c"/local/mnt2/workspace2/mnadeem/llvm/llvm-test-suite/MicroBenchmarks/libs/benchmark/googletest/googletest/include/gtest/internal/gtest-internal.h\00", align 1
@.str.55 = private unnamed_addr constant [51 x i8] c"Condition !test_case_fp || !test_suite_fp failed. \00", align 1
@.str.56 = private unnamed_addr constant [107 x i8] c"Test can not provide both SetUpTestSuite and SetUpTestCase, please make sure there is only one present at \00", align 1
@.str.57 = private unnamed_addr constant [2 x i8] c":\00", align 1
@_ZNSt3__14cerrE = external global %"class.std::__1::basic_ostream", align 8
@.str.58 = private unnamed_addr constant [112 x i8] c"Test can not provide both TearDownTestSuite and TearDownTestCase, please make sure there is only one present at\00", align 1
@llvm.global_ctors = appending global [1 x { i32, ptr, ptr }] [{ i32, ptr, ptr } { i32 65535, ptr @_GLOBAL__sub_I_benchmark_random_interleaving_gtest.cc, ptr null }]

declare noundef i32 @_ZN9benchmark8internal17InitializeStreamsEv() local_unnamed_addr #0

; Function Attrs: nobuiltin allocsize(0)
declare noundef nonnull ptr @_Znwm(i64 noundef) local_unnamed_addr #1

; Function Attrs: mustprogress nocallback nofree nounwind willreturn memory(argmem: write)
declare void @llvm.memset.p0.i64(ptr nocapture writeonly, i8, i64, i1 immarg) #2

declare noundef ptr @_ZN9benchmark8internal25RegisterBenchmarkInternalEPNS0_9BenchmarkE(ptr noundef) local_unnamed_addr #0

; Function Attrs: uwtable
define internal void @_ZN9benchmark8internal12_GLOBAL__N_19BM_Match1ERNS_5StateE(ptr noundef nonnull align 8 dereferenceable(120) %state) #3 personality ptr @__gxx_personality_v0 {
entry:
  %ref.tmp = alloca %"class.std::__1::basic_string", align 8
  %range_.i = getelementptr inbounds %"class.benchmark::State", ptr %state, i64 0, i32 6
  %__end_.i.i = getelementptr inbounds %"class.benchmark::State", ptr %state, i64 0, i32 6, i32 1
  %0 = load ptr, ptr %__end_.i.i, align 8, !tbaa !5
  %1 = load ptr, ptr %range_.i, align 8, !tbaa !12
  %cmp.i.not = icmp eq ptr %0, %1
  br i1 %cmp.i.not, label %cond.false.i, label %_ZNK9benchmark5State5rangeEm.exit

cond.false.i:                                     ; preds = %entry
  tail call void @__assert_fail(ptr noundef nonnull @.str.12, ptr noundef nonnull @.str.13, i32 noundef 762, ptr noundef nonnull @__PRETTY_FUNCTION__._ZNK9benchmark5State5rangeEm) #22
  unreachable

_ZNK9benchmark5State5rangeEm.exit:                ; preds = %entry
  %2 = load i64, ptr %1, align 8, !tbaa !13
  tail call void @_ZN9benchmark5State16StartKeepRunningEv(ptr noundef nonnull align 8 dereferenceable(120) %state)
  tail call void @_ZN9benchmark5State17FinishKeepRunningEv(ptr noundef nonnull align 8 dereferenceable(120) %state)
  %3 = load ptr, ptr @_ZN9benchmark8internal12_GLOBAL__N_15queueE, align 8, !tbaa !15
  call void @llvm.lifetime.start.p0(i64 24, ptr nonnull %ref.tmp) #23
  %conv = trunc i64 %2 to i32
  call void (ptr, ptr, ...) @_ZN9benchmark9StrFormatEPKcz(ptr nonnull sret(%"class.std::__1::basic_string") align 8 %ref.tmp, ptr noundef nonnull @.str.11, i32 noundef %conv)
  %__end_.i.i.i.i.i.i = getelementptr inbounds %"struct.std::__1::__split_buffer", ptr %3, i64 0, i32 2
  %4 = load ptr, ptr %__end_.i.i.i.i.i.i, align 8, !tbaa !16
  %__begin_.i.i.i.i.i.i = getelementptr inbounds %"struct.std::__1::__split_buffer", ptr %3, i64 0, i32 1
  %5 = load ptr, ptr %__begin_.i.i.i.i.i.i, align 8, !tbaa !20
  %sub.ptr.lhs.cast.i.i.i.i.i.i = ptrtoint ptr %4 to i64
  %sub.ptr.rhs.cast.i.i.i.i.i.i = ptrtoint ptr %5 to i64
  %sub.ptr.sub.i.i.i.i.i.i = sub i64 %sub.ptr.lhs.cast.i.i.i.i.i.i, %sub.ptr.rhs.cast.i.i.i.i.i.i
  %sub.ptr.div.i.i.i.i.i.i = ashr exact i64 %sub.ptr.sub.i.i.i.i.i.i, 3
  %cmp.i.i.i.i.i = icmp eq ptr %4, %5
  %mul.i.i.i.i.i = mul i64 %sub.ptr.div.i.i.i.i.i.i, 170
  %sub.i.i.i.i.i = add i64 %mul.i.i.i.i.i, -1
  %cond.i.i.i.i.i = select i1 %cmp.i.i.i.i.i, i64 0, i64 %sub.i.i.i.i.i
  %__start_.i.i.i.i = getelementptr inbounds %"class.std::__1::deque", ptr %3, i64 0, i32 1
  %6 = load i64, ptr %__start_.i.i.i.i, align 8, !tbaa !21
  %__size_.i.i.i.i.i.i = getelementptr inbounds %"class.std::__1::deque", ptr %3, i64 0, i32 2
  %7 = load i64, ptr %__size_.i.i.i.i.i.i, align 8, !tbaa !13
  %8 = add i64 %7, %6
  %cmp.i.i.i = icmp eq i64 %cond.i.i.i.i.i, %8
  br i1 %cmp.i.i.i, label %if.then.i.i.i, label %_ZNSt3__15queueINS_12basic_stringIcNS_11char_traitsIcEENS_9allocatorIcEEEENS_5dequeIS6_NS4_IS6_EEEEE4pushB7v170000ERKS6_.exit.i

if.then.i.i.i:                                    ; preds = %_ZNK9benchmark5State5rangeEm.exit
  invoke void @_ZNSt3__15dequeINS_12basic_stringIcNS_11char_traitsIcEENS_9allocatorIcEEEENS4_IS6_EEE19__add_back_capacityEv(ptr noundef nonnull align 8 dereferenceable(48) %3)
          to label %.noexc unwind label %lpad

.noexc:                                           ; preds = %if.then.i.i.i
  %.pre.i.i.i = load i64, ptr %__size_.i.i.i.i.i.i, align 8, !tbaa !13
  %.pre10.i.i.i = load i64, ptr %__start_.i.i.i.i, align 8, !tbaa !21
  %.pre11.i.i.i = load ptr, ptr %__begin_.i.i.i.i.i.i, align 8, !tbaa !20
  %.pre12.i.i.i = load ptr, ptr %__end_.i.i.i.i.i.i, align 8, !tbaa !16
  %.pre13.i.i.i = add i64 %.pre10.i.i.i, %.pre.i.i.i
  br label %_ZNSt3__15queueINS_12basic_stringIcNS_11char_traitsIcEENS_9allocatorIcEEEENS_5dequeIS6_NS4_IS6_EEEEE4pushB7v170000ERKS6_.exit.i

_ZNSt3__15queueINS_12basic_stringIcNS_11char_traitsIcEENS_9allocatorIcEEEENS_5dequeIS6_NS4_IS6_EEEEE4pushB7v170000ERKS6_.exit.i: ; preds = %.noexc, %_ZNK9benchmark5State5rangeEm.exit
  %add.i.pre-phi.i.i.i = phi i64 [ %.pre13.i.i.i, %.noexc ], [ %8, %_ZNK9benchmark5State5rangeEm.exit ]
  %9 = phi ptr [ %.pre12.i.i.i, %.noexc ], [ %4, %_ZNK9benchmark5State5rangeEm.exit ]
  %10 = phi ptr [ %.pre11.i.i.i, %.noexc ], [ %5, %_ZNK9benchmark5State5rangeEm.exit ]
  %div.i.i.i.i = udiv i64 %add.i.pre-phi.i.i.i, 170
  %add.ptr.i.i.i.i = getelementptr inbounds ptr, ptr %10, i64 %div.i.i.i.i
  %cmp.i.i8.i.i.i = icmp ne ptr %9, %10
  call void @llvm.assume(i1 %cmp.i.i8.i.i.i)
  %11 = load ptr, ptr %add.ptr.i.i.i.i, align 8, !tbaa !15
  %rem.i.i.i.i = urem i64 %add.i.pre-phi.i.i.i, 170
  %add.ptr5.i.i.i.i = getelementptr inbounds %"class.std::__1::basic_string", ptr %11, i64 %rem.i.i.i.i
  invoke void @_ZNSt3__112basic_stringIcNS_11char_traitsIcEENS_9allocatorIcEEEC1ERKS5_(ptr noundef nonnull align 8 dereferenceable(24) %add.ptr5.i.i.i.i, ptr noundef nonnull align 8 dereferenceable(24) %ref.tmp)
          to label %invoke.cont unwind label %lpad

invoke.cont:                                      ; preds = %_ZNSt3__15queueINS_12basic_stringIcNS_11char_traitsIcEENS_9allocatorIcEEEENS_5dequeIS6_NS4_IS6_EEEEE4pushB7v170000ERKS6_.exit.i
  %12 = load i64, ptr %__size_.i.i.i.i.i.i, align 8, !tbaa !13
  %inc.i.i.i = add i64 %12, 1
  store i64 %inc.i.i.i, ptr %__size_.i.i.i.i.i.i, align 8, !tbaa !13
  %bf.load.i.i = load i8, ptr %ref.tmp, align 8
  %bf.clear.i.i = and i8 %bf.load.i.i, 1
  %tobool.i.not.i = icmp eq i8 %bf.clear.i.i, 0
  br i1 %tobool.i.not.i, label %_ZNSt3__112basic_stringIcNS_11char_traitsIcEENS_9allocatorIcEEED2Ev.exit, label %if.then.i

if.then.i:                                        ; preds = %invoke.cont
  %__data_.i.i = getelementptr inbounds %"struct.std::__1::basic_string<char>::__long", ptr %ref.tmp, i64 0, i32 2
  %13 = load ptr, ptr %__data_.i.i, align 8, !tbaa !25
  call void @_ZdlPv(ptr noundef %13) #24
  br label %_ZNSt3__112basic_stringIcNS_11char_traitsIcEENS_9allocatorIcEEED2Ev.exit

_ZNSt3__112basic_stringIcNS_11char_traitsIcEENS_9allocatorIcEEED2Ev.exit: ; preds = %invoke.cont, %if.then.i
  call void @llvm.lifetime.end.p0(i64 24, ptr nonnull %ref.tmp) #23
  ret void

lpad:                                             ; preds = %_ZNSt3__15queueINS_12basic_stringIcNS_11char_traitsIcEENS_9allocatorIcEEEENS_5dequeIS6_NS4_IS6_EEEEE4pushB7v170000ERKS6_.exit.i, %if.then.i.i.i
  %14 = landingpad { ptr, i32 }
          cleanup
  %bf.load.i.i12 = load i8, ptr %ref.tmp, align 8
  %bf.clear.i.i13 = and i8 %bf.load.i.i12, 1
  %tobool.i.not.i14 = icmp eq i8 %bf.clear.i.i13, 0
  br i1 %tobool.i.not.i14, label %_ZNSt3__112basic_stringIcNS_11char_traitsIcEENS_9allocatorIcEEED2Ev.exit18, label %if.then.i16

if.then.i16:                                      ; preds = %lpad
  %__data_.i.i15 = getelementptr inbounds %"struct.std::__1::basic_string<char>::__long", ptr %ref.tmp, i64 0, i32 2
  %15 = load ptr, ptr %__data_.i.i15, align 8, !tbaa !25
  call void @_ZdlPv(ptr noundef %15) #24
  br label %_ZNSt3__112basic_stringIcNS_11char_traitsIcEENS_9allocatorIcEEED2Ev.exit18

_ZNSt3__112basic_stringIcNS_11char_traitsIcEENS_9allocatorIcEEED2Ev.exit18: ; preds = %lpad, %if.then.i16
  call void @llvm.lifetime.end.p0(i64 24, ptr nonnull %ref.tmp) #23
  resume { ptr, i32 } %14
}

declare i32 @__gxx_personality_v0(...)

; Function Attrs: nobuiltin nounwind
declare void @_ZdlPv(ptr noundef) local_unnamed_addr #4

declare noundef ptr @_ZN9benchmark8internal9Benchmark10IterationsEm(ptr noundef nonnull align 8 dereferenceable(208), i64 noundef) local_unnamed_addr #0

declare noundef ptr @_ZN9benchmark8internal9Benchmark3ArgEl(ptr noundef nonnull align 8 dereferenceable(208), i64 noundef) local_unnamed_addr #0

declare noundef ptr @_ZN9benchmark8internal9Benchmark5RangeEll(ptr noundef nonnull align 8 dereferenceable(208), i64 noundef, i64 noundef) local_unnamed_addr #0

declare noundef ptr @_ZN9benchmark8internal9Benchmark4ArgsERKNSt3__16vectorIlNS2_9allocatorIlEEEE(ptr noundef nonnull align 8 dereferenceable(208), ptr noundef nonnull align 8 dereferenceable(24)) local_unnamed_addr #0

; Function Attrs: mustprogress nocallback nofree nosync nounwind willreturn memory(argmem: readwrite)
declare void @llvm.lifetime.start.p0(i64 immarg, ptr nocapture) #5

; Function Attrs: mustprogress nocallback nofree nosync nounwind willreturn memory(argmem: readwrite)
declare void @llvm.lifetime.end.p0(i64 immarg, ptr nocapture) #5

declare noundef ptr @_ZN7testing8internal23MakeAndRegisterTestInfoEPKcS2_S2_S2_NS0_12CodeLocationEPKvPFvvES7_PNS0_15TestFactoryBaseE(ptr noundef, ptr noundef, ptr noundef, ptr noundef, ptr noundef, ptr noundef, ptr noundef, ptr noundef, ptr noundef) local_unnamed_addr #0

; Function Attrs: mustprogress uwtable
define internal fastcc noalias noundef ptr @_ZN7testing8internal16SuiteApiResolverIN9benchmark8internal12_GLOBAL__N_113BenchmarkTestEE19GetSetUpCaseOrSuiteEPKci(i32 noundef %line_num) unnamed_addr #6 align 2 personality ptr @__gxx_personality_v0 {
entry:
  %ref.tmp = alloca %"class.testing::internal::GTestLog", align 4
  %call3 = tail call noundef zeroext i1 @_ZN7testing8internal6IsTrueEb(i1 noundef zeroext true)
  br i1 %call3, label %if.end, label %if.else

if.else:                                          ; preds = %entry
  call void @llvm.lifetime.start.p0(i64 4, ptr nonnull %ref.tmp) #23
  call void @_ZN7testing8internal8GTestLogC1ENS0_16GTestLogSeverityEPKci(ptr noundef nonnull align 4 dereferenceable(4) %ref.tmp, i32 noundef 3, ptr noundef nonnull @.str.54, i32 noundef 531)
  %call1.i19 = invoke noundef nonnull align 8 dereferenceable(8) ptr @_ZNSt3__124__put_character_sequenceB7v170000IcNS_11char_traitsIcEEEERNS_13basic_ostreamIT_T0_EES7_PKS4_m(ptr noundef nonnull align 8 dereferenceable(8) @_ZNSt3__14cerrE, ptr noundef nonnull @.str.55, i64 noundef 50)
          to label %invoke.cont5 unwind label %lpad

invoke.cont5:                                     ; preds = %if.else
  %call1.i21 = invoke noundef nonnull align 8 dereferenceable(8) ptr @_ZNSt3__124__put_character_sequenceB7v170000IcNS_11char_traitsIcEEEERNS_13basic_ostreamIT_T0_EES7_PKS4_m(ptr noundef nonnull align 8 dereferenceable(8) %call1.i19, ptr noundef nonnull @.str.56, i64 noundef 106)
          to label %invoke.cont7 unwind label %lpad

invoke.cont7:                                     ; preds = %invoke.cont5
  %call1.i24 = invoke noundef nonnull align 8 dereferenceable(8) ptr @_ZNSt3__124__put_character_sequenceB7v170000IcNS_11char_traitsIcEEEERNS_13basic_ostreamIT_T0_EES7_PKS4_m(ptr noundef nonnull align 8 dereferenceable(8) %call1.i21, ptr noundef nonnull @.str.6, i64 noundef 126)
          to label %invoke.cont9 unwind label %lpad

invoke.cont9:                                     ; preds = %invoke.cont7
  %call1.i27 = invoke noundef nonnull align 8 dereferenceable(8) ptr @_ZNSt3__124__put_character_sequenceB7v170000IcNS_11char_traitsIcEEEERNS_13basic_ostreamIT_T0_EES7_PKS4_m(ptr noundef nonnull align 8 dereferenceable(8) %call1.i24, ptr noundef nonnull @.str.57, i64 noundef 1)
          to label %invoke.cont11 unwind label %lpad

invoke.cont11:                                    ; preds = %invoke.cont9
  %call14 = invoke noundef nonnull align 8 dereferenceable(8) ptr @_ZNSt3__113basic_ostreamIcNS_11char_traitsIcEEElsEi(ptr noundef nonnull align 8 dereferenceable(8) %call1.i27, i32 noundef %line_num)
          to label %invoke.cont13 unwind label %lpad

invoke.cont13:                                    ; preds = %invoke.cont11
  call void @_ZN7testing8internal8GTestLogD1Ev(ptr noundef nonnull align 4 dereferenceable(4) %ref.tmp) #23
  call void @llvm.lifetime.end.p0(i64 4, ptr nonnull %ref.tmp) #23
  br label %if.end

lpad:                                             ; preds = %invoke.cont9, %invoke.cont7, %invoke.cont5, %if.else, %invoke.cont11
  %0 = landingpad { ptr, i32 }
          cleanup
  call void @_ZN7testing8internal8GTestLogD1Ev(ptr noundef nonnull align 4 dereferenceable(4) %ref.tmp) #23
  call void @llvm.lifetime.end.p0(i64 4, ptr nonnull %ref.tmp) #23
  resume { ptr, i32 } %0

if.end:                                           ; preds = %entry, %invoke.cont13
  ret ptr null
}

; Function Attrs: mustprogress uwtable
define internal fastcc noalias noundef ptr @_ZN7testing8internal16SuiteApiResolverIN9benchmark8internal12_GLOBAL__N_113BenchmarkTestEE22GetTearDownCaseOrSuiteEPKci(i32 noundef %line_num) unnamed_addr #6 align 2 personality ptr @__gxx_personality_v0 {
entry:
  %ref.tmp = alloca %"class.testing::internal::GTestLog", align 4
  %call3 = tail call noundef zeroext i1 @_ZN7testing8internal6IsTrueEb(i1 noundef zeroext true)
  br i1 %call3, label %if.end, label %if.else

if.else:                                          ; preds = %entry
  call void @llvm.lifetime.start.p0(i64 4, ptr nonnull %ref.tmp) #23
  call void @_ZN7testing8internal8GTestLogC1ENS0_16GTestLogSeverityEPKci(ptr noundef nonnull align 4 dereferenceable(4) %ref.tmp, i32 noundef 3, ptr noundef nonnull @.str.54, i32 noundef 552)
  %call1.i18 = invoke noundef nonnull align 8 dereferenceable(8) ptr @_ZNSt3__124__put_character_sequenceB7v170000IcNS_11char_traitsIcEEEERNS_13basic_ostreamIT_T0_EES7_PKS4_m(ptr noundef nonnull align 8 dereferenceable(8) @_ZNSt3__14cerrE, ptr noundef nonnull @.str.55, i64 noundef 50)
          to label %invoke.cont unwind label %lpad

invoke.cont:                                      ; preds = %if.else
  %call1.i20 = invoke noundef nonnull align 8 dereferenceable(8) ptr @_ZNSt3__124__put_character_sequenceB7v170000IcNS_11char_traitsIcEEEERNS_13basic_ostreamIT_T0_EES7_PKS4_m(ptr noundef nonnull align 8 dereferenceable(8) %call1.i18, ptr noundef nonnull @.str.58, i64 noundef 111)
          to label %invoke.cont6 unwind label %lpad

invoke.cont6:                                     ; preds = %invoke.cont
  %call1.i23 = invoke noundef nonnull align 8 dereferenceable(8) ptr @_ZNSt3__124__put_character_sequenceB7v170000IcNS_11char_traitsIcEEEERNS_13basic_ostreamIT_T0_EES7_PKS4_m(ptr noundef nonnull align 8 dereferenceable(8) %call1.i20, ptr noundef nonnull @.str.6, i64 noundef 126)
          to label %invoke.cont8 unwind label %lpad

invoke.cont8:                                     ; preds = %invoke.cont6
  %call1.i26 = invoke noundef nonnull align 8 dereferenceable(8) ptr @_ZNSt3__124__put_character_sequenceB7v170000IcNS_11char_traitsIcEEEERNS_13basic_ostreamIT_T0_EES7_PKS4_m(ptr noundef nonnull align 8 dereferenceable(8) %call1.i23, ptr noundef nonnull @.str.57, i64 noundef 1)
          to label %invoke.cont10 unwind label %lpad

invoke.cont10:                                    ; preds = %invoke.cont8
  %call13 = invoke noundef nonnull align 8 dereferenceable(8) ptr @_ZNSt3__113basic_ostreamIcNS_11char_traitsIcEEElsEi(ptr noundef nonnull align 8 dereferenceable(8) %call1.i26, i32 noundef %line_num)
          to label %invoke.cont12 unwind label %lpad

invoke.cont12:                                    ; preds = %invoke.cont10
  call void @_ZN7testing8internal8GTestLogD1Ev(ptr noundef nonnull align 4 dereferenceable(4) %ref.tmp) #23
  call void @llvm.lifetime.end.p0(i64 4, ptr nonnull %ref.tmp) #23
  br label %if.end

lpad:                                             ; preds = %invoke.cont8, %invoke.cont6, %invoke.cont, %if.else, %invoke.cont10
  %0 = landingpad { ptr, i32 }
          cleanup
  call void @_ZN7testing8internal8GTestLogD1Ev(ptr noundef nonnull align 4 dereferenceable(4) %ref.tmp) #23
  call void @llvm.lifetime.end.p0(i64 4, ptr nonnull %ref.tmp) #23
  resume { ptr, i32 } %0

if.end:                                           ; preds = %entry, %invoke.cont12
  ret ptr null
}

; Function Attrs: mustprogress nocallback nofree nosync nounwind willreturn memory(argmem: readwrite)
declare ptr @llvm.invariant.start.p0(i64 immarg, ptr nocapture) #5

; Function Attrs: noinline noreturn nounwind
define linkonce_odr hidden void @__clang_call_terminate(ptr noundef %0) local_unnamed_addr #7 comdat {
  %2 = tail call ptr @__cxa_begin_catch(ptr %0) #23
  tail call void @_ZSt9terminatev() #22
  unreachable
}

declare ptr @__cxa_begin_catch(ptr) local_unnamed_addr

declare void @_ZSt9terminatev() local_unnamed_addr

declare void @_ZN9benchmark9StrFormatEPKcz(ptr sret(%"class.std::__1::basic_string") align 8, ptr noundef, ...) local_unnamed_addr #0

; Function Attrs: noreturn nounwind
declare void @__assert_fail(ptr noundef, ptr noundef, i32 noundef, ptr noundef) local_unnamed_addr #8

declare void @_ZN9benchmark5State16StartKeepRunningEv(ptr noundef nonnull align 8 dereferenceable(120)) local_unnamed_addr #0

declare void @_ZN9benchmark5State17FinishKeepRunningEv(ptr noundef nonnull align 8 dereferenceable(120)) local_unnamed_addr #0

; Function Attrs: uwtable
define linkonce_odr hidden void @_ZNSt3__15dequeINS_12basic_stringIcNS_11char_traitsIcEENS_9allocatorIcEEEENS4_IS6_EEE19__add_back_capacityEv(ptr noundef nonnull align 8 dereferenceable(48) %this) local_unnamed_addr #3 comdat align 2 personality ptr @__gxx_personality_v0 {
entry:
  %ref.tmp = alloca ptr, align 8
  %ref.tmp20 = alloca ptr, align 8
  %__start_.i = getelementptr inbounds %"class.std::__1::deque", ptr %this, i64 0, i32 1
  %0 = load i64, ptr %__start_.i, align 8, !tbaa !21
  %cmp = icmp ugt i64 %0, 169
  %__begin_.i = getelementptr inbounds %"struct.std::__1::__split_buffer", ptr %this, i64 0, i32 1
  br i1 %cmp, label %if.then, label %if.else

if.then:                                          ; preds = %entry
  %sub = add i64 %0, -170
  store i64 %sub, ptr %__start_.i, align 8, !tbaa !21
  %1 = load ptr, ptr %__begin_.i, align 8, !tbaa !20
  %2 = load ptr, ptr %1, align 8, !tbaa !15
  %add.ptr.i = getelementptr ptr, ptr %1, i64 1
  store ptr %add.ptr.i, ptr %__begin_.i, align 8, !tbaa !20
  %__end_.i = getelementptr inbounds %"struct.std::__1::__split_buffer", ptr %this, i64 0, i32 2
  %3 = load ptr, ptr %__end_.i, align 8, !tbaa !16
  %__end_cap_.i.i = getelementptr inbounds %"struct.std::__1::__split_buffer", ptr %this, i64 0, i32 3
  %4 = load ptr, ptr %__end_cap_.i.i, align 8, !tbaa !15
  %cmp.i = icmp eq ptr %3, %4
  br i1 %cmp.i, label %if.then.i, label %_ZNSt3__114__split_bufferIPNS_12basic_stringIcNS_11char_traitsIcEENS_9allocatorIcEEEENS4_IS7_EEE9push_backB7v170000ERKS7_.exit

if.then.i:                                        ; preds = %if.then
  %5 = load ptr, ptr %this, align 8, !tbaa !26
  %cmp2.i = icmp ugt ptr %add.ptr.i, %5
  %sub.ptr.rhs.cast.i = ptrtoint ptr %5 to i64
  br i1 %cmp2.i, label %if.then3.i, label %if.else.i.i

if.then3.i:                                       ; preds = %if.then.i
  %sub.ptr.lhs.cast.i = ptrtoint ptr %add.ptr.i to i64
  %sub.ptr.sub.i = sub i64 %sub.ptr.lhs.cast.i, %sub.ptr.rhs.cast.i
  %sub.ptr.div.i = ashr exact i64 %sub.ptr.sub.i, 3
  %add.i = add nsw i64 %sub.ptr.div.i, 1
  %div.neg.i = sdiv i64 %add.i, -2
  %add.ptr.i75 = getelementptr inbounds ptr, ptr %add.ptr.i, i64 %div.neg.i
  %sub.ptr.lhs.cast.i.i.i.i.i.i.i = ptrtoint ptr %3 to i64
  %sub.ptr.sub.i.i.i.i.i.i.i = sub i64 %sub.ptr.lhs.cast.i.i.i.i.i.i.i, %sub.ptr.lhs.cast.i
  %sub.ptr.div.i.i.i.i.i.i.i = ashr exact i64 %sub.ptr.sub.i.i.i.i.i.i.i, 3
  tail call void @llvm.memmove.p0.p0.i64(ptr nonnull align 8 %add.ptr.i75, ptr nonnull align 8 %add.ptr.i, i64 %sub.ptr.sub.i.i.i.i.i.i.i, i1 false)
  %add.ptr.i.i.i.i.i.i.i = getelementptr inbounds ptr, ptr %add.ptr.i75, i64 %sub.ptr.div.i.i.i.i.i.i.i
  store ptr %add.ptr.i.i.i.i.i.i.i, ptr %__end_.i, align 8, !tbaa !16
  %6 = load ptr, ptr %__begin_.i, align 8, !tbaa !20
  %add.ptr13.i = getelementptr inbounds ptr, ptr %6, i64 %div.neg.i
  store ptr %add.ptr13.i, ptr %__begin_.i, align 8, !tbaa !20
  br label %_ZNSt3__114__split_bufferIPNS_12basic_stringIcNS_11char_traitsIcEENS_9allocatorIcEEEENS4_IS7_EEE9push_backB7v170000ERKS7_.exit

if.else.i.i:                                      ; preds = %if.then.i
  %sub.ptr.lhs.cast16.i = ptrtoint ptr %3 to i64
  %sub.ptr.sub18.i = sub i64 %sub.ptr.lhs.cast16.i, %sub.ptr.rhs.cast.i
  %mul.i = ashr exact i64 %sub.ptr.sub18.i, 2
  %cmp.i.i.i.i = icmp eq ptr %3, %5
  %.sroa.speculated.i = select i1 %cmp.i.i.i.i, i64 1, i64 %mul.i
  %cmp.i.i.i52.i = icmp ugt i64 %.sroa.speculated.i, 2305843009213693951
  br i1 %cmp.i.i.i52.i, label %if.then.i.i.i.i, label %_ZNSt3__114__split_bufferIPNS_12basic_stringIcNS_11char_traitsIcEENS_9allocatorIcEEEERNS4_IS7_EEEC2EmmS9_.exit.i

if.then.i.i.i.i:                                  ; preds = %if.else.i.i
  tail call void @_ZSt28__throw_bad_array_new_lengthB7v170000v() #25
  unreachable

_ZNSt3__114__split_bufferIPNS_12basic_stringIcNS_11char_traitsIcEENS_9allocatorIcEEEERNS4_IS7_EEEC2EmmS9_.exit.i: ; preds = %if.else.i.i
  %div2248.i = lshr i64 %.sroa.speculated.i, 2
  %mul.i.i.i.i = shl nuw i64 %.sroa.speculated.i, 3
  %call.i.i.i.i.i.i = tail call noalias noundef nonnull ptr @_Znwm(i64 noundef %mul.i.i.i.i) #26
  %call.i.i.i.i.i.i386 = ptrtoint ptr %call.i.i.i.i.i.i to i64
  %add.ptr.i.i = getelementptr ptr, ptr %call.i.i.i.i.i.i, i64 %div2248.i
  %add.ptr6.i.i = getelementptr inbounds ptr, ptr %call.i.i.i.i.i.i, i64 %.sroa.speculated.i
  %sub.ptr.rhs.cast.i.i.i.i.i = ptrtoint ptr %add.ptr.i to i64
  %sub.ptr.sub.i.i.i.i.i = sub i64 %sub.ptr.lhs.cast16.i, %sub.ptr.rhs.cast.i.i.i.i.i
  %sub.ptr.div.i.i.i.i.i = ashr i64 %sub.ptr.sub.i.i.i.i.i, 3
  %add.ptr.i.i.i = getelementptr inbounds ptr, ptr %add.ptr.i.i, i64 %sub.ptr.div.i.i.i.i.i
  %cmp.not24.i.i = icmp eq ptr %3, %add.ptr.i
  br i1 %cmp.not24.i.i, label %_ZNSt3__114__split_bufferIPNS_12basic_stringIcNS_11char_traitsIcEENS_9allocatorIcEEEERNS4_IS7_EEE5clearB7v170000Ev.exit.i.i, label %for.inc.i.i.preheader

for.inc.i.i.preheader:                            ; preds = %_ZNSt3__114__split_bufferIPNS_12basic_stringIcNS_11char_traitsIcEENS_9allocatorIcEEEERNS4_IS7_EEEC2EmmS9_.exit.i
  %7 = add i64 %sub.ptr.sub.i.i.i.i.i, -8
  %8 = lshr i64 %7, 3
  %9 = add nuw nsw i64 %8, 1
  %min.iters.check390 = icmp ult i64 %7, 104
  br i1 %min.iters.check390, label %for.inc.i.i.preheader408, label %vector.memcheck385

vector.memcheck385:                               ; preds = %for.inc.i.i.preheader
  %10 = shl i64 %div2248.i, 3
  %11 = add i64 %10, %call.i.i.i.i.i.i386
  %12 = sub i64 %11, %sub.ptr.rhs.cast.i.i.i.i.i
  %diff.check387 = icmp ult i64 %12, 32
  br i1 %diff.check387, label %for.inc.i.i.preheader408, label %vector.ph391

vector.ph391:                                     ; preds = %vector.memcheck385
  %n.vec393 = and i64 %9, -4
  %13 = shl i64 %n.vec393, 3
  %ind.end394 = getelementptr i8, ptr %add.ptr.i.i, i64 %13
  %14 = shl i64 %n.vec393, 3
  %ind.end396 = getelementptr i8, ptr %add.ptr.i, i64 %14
  br label %vector.body399

vector.body399:                                   ; preds = %vector.body399, %vector.ph391
  %index400 = phi i64 [ 0, %vector.ph391 ], [ %index.next407, %vector.body399 ]
  %15 = shl i64 %index400, 3
  %next.gep401 = getelementptr i8, ptr %add.ptr.i.i, i64 %15
  %16 = shl i64 %index400, 3
  %next.gep403 = getelementptr i8, ptr %add.ptr.i, i64 %16
  %wide.load405 = load <2 x ptr>, ptr %next.gep403, align 8, !tbaa !15
  %17 = getelementptr ptr, ptr %next.gep403, i64 2
  %wide.load406 = load <2 x ptr>, ptr %17, align 8, !tbaa !15
  store <2 x ptr> %wide.load405, ptr %next.gep401, align 8, !tbaa !15
  %18 = getelementptr ptr, ptr %next.gep401, i64 2
  store <2 x ptr> %wide.load406, ptr %18, align 8, !tbaa !15
  %index.next407 = add nuw i64 %index400, 4
  %19 = icmp eq i64 %index.next407, %n.vec393
  br i1 %19, label %middle.block388, label %vector.body399, !llvm.loop !27

middle.block388:                                  ; preds = %vector.body399
  %cmp.n398 = icmp eq i64 %9, %n.vec393
  br i1 %cmp.n398, label %_ZNSt3__114__split_bufferIPNS_12basic_stringIcNS_11char_traitsIcEENS_9allocatorIcEEEERNS4_IS7_EEE5clearB7v170000Ev.exit.i.i, label %for.inc.i.i.preheader408

for.inc.i.i.preheader408:                         ; preds = %vector.memcheck385, %for.inc.i.i.preheader, %middle.block388
  %__tx.sroa.0.026.i.i.ph = phi ptr [ %add.ptr.i.i, %vector.memcheck385 ], [ %add.ptr.i.i, %for.inc.i.i.preheader ], [ %ind.end394, %middle.block388 ]
  %__first.sroa.0.025.i.i.ph = phi ptr [ %add.ptr.i, %vector.memcheck385 ], [ %add.ptr.i, %for.inc.i.i.preheader ], [ %ind.end396, %middle.block388 ]
  br label %for.inc.i.i

for.inc.i.i:                                      ; preds = %for.inc.i.i.preheader408, %for.inc.i.i
  %__tx.sroa.0.026.i.i = phi ptr [ %incdec.ptr.i.i, %for.inc.i.i ], [ %__tx.sroa.0.026.i.i.ph, %for.inc.i.i.preheader408 ]
  %__first.sroa.0.025.i.i = phi ptr [ %incdec.ptr.i.i.i, %for.inc.i.i ], [ %__first.sroa.0.025.i.i.ph, %for.inc.i.i.preheader408 ]
  %20 = load ptr, ptr %__first.sroa.0.025.i.i, align 8, !tbaa !15
  store ptr %20, ptr %__tx.sroa.0.026.i.i, align 8, !tbaa !15
  %incdec.ptr.i.i = getelementptr inbounds ptr, ptr %__tx.sroa.0.026.i.i, i64 1
  %incdec.ptr.i.i.i = getelementptr inbounds ptr, ptr %__first.sroa.0.025.i.i, i64 1
  %cmp.not.i.i = icmp eq ptr %incdec.ptr.i.i, %add.ptr.i.i.i
  br i1 %cmp.not.i.i, label %_ZNSt3__114__split_bufferIPNS_12basic_stringIcNS_11char_traitsIcEENS_9allocatorIcEEEERNS4_IS7_EEE5clearB7v170000Ev.exit.i.i, label %for.inc.i.i, !llvm.loop !31

_ZNSt3__114__split_bufferIPNS_12basic_stringIcNS_11char_traitsIcEENS_9allocatorIcEEEERNS4_IS7_EEE5clearB7v170000Ev.exit.i.i: ; preds = %for.inc.i.i, %middle.block388, %_ZNSt3__114__split_bufferIPNS_12basic_stringIcNS_11char_traitsIcEENS_9allocatorIcEEEERNS4_IS7_EEEC2EmmS9_.exit.i
  %storemerge.i = phi ptr [ %add.ptr.i.i, %_ZNSt3__114__split_bufferIPNS_12basic_stringIcNS_11char_traitsIcEENS_9allocatorIcEEEERNS4_IS7_EEEC2EmmS9_.exit.i ], [ %add.ptr.i.i.i, %middle.block388 ], [ %add.ptr.i.i.i, %for.inc.i.i ]
  store ptr %call.i.i.i.i.i.i, ptr %this, align 8, !tbaa !15
  store ptr %add.ptr.i.i, ptr %__begin_.i, align 8, !tbaa !15
  store ptr %storemerge.i, ptr %__end_.i, align 8, !tbaa !15
  store ptr %add.ptr6.i.i, ptr %__end_cap_.i.i, align 8, !tbaa !15
  %tobool.not.i.i = icmp eq ptr %5, null
  br i1 %tobool.not.i.i, label %_ZNSt3__114__split_bufferIPNS_12basic_stringIcNS_11char_traitsIcEENS_9allocatorIcEEEENS4_IS7_EEE9push_backB7v170000ERKS7_.exit, label %if.then.i.i

if.then.i.i:                                      ; preds = %_ZNSt3__114__split_bufferIPNS_12basic_stringIcNS_11char_traitsIcEENS_9allocatorIcEEEERNS4_IS7_EEE5clearB7v170000Ev.exit.i.i
  tail call void @_ZdlPv(ptr noundef nonnull %5) #24
  %.pre.i = load ptr, ptr %__end_.i, align 8, !tbaa !16
  br label %_ZNSt3__114__split_bufferIPNS_12basic_stringIcNS_11char_traitsIcEENS_9allocatorIcEEEENS4_IS7_EEE9push_backB7v170000ERKS7_.exit

_ZNSt3__114__split_bufferIPNS_12basic_stringIcNS_11char_traitsIcEENS_9allocatorIcEEEENS4_IS7_EEE9push_backB7v170000ERKS7_.exit: ; preds = %if.then, %if.then3.i, %_ZNSt3__114__split_bufferIPNS_12basic_stringIcNS_11char_traitsIcEENS_9allocatorIcEEEERNS4_IS7_EEE5clearB7v170000Ev.exit.i.i, %if.then.i.i
  %21 = phi ptr [ %.pre.i, %if.then.i.i ], [ %storemerge.i, %_ZNSt3__114__split_bufferIPNS_12basic_stringIcNS_11char_traitsIcEENS_9allocatorIcEEEERNS4_IS7_EEE5clearB7v170000Ev.exit.i.i ], [ %add.ptr.i.i.i.i.i.i.i, %if.then3.i ], [ %3, %if.then ]
  store ptr %2, ptr %21, align 8, !tbaa !15
  %22 = load ptr, ptr %__end_.i, align 8, !tbaa !16
  %incdec.ptr.i = getelementptr inbounds ptr, ptr %22, i64 1
  store ptr %incdec.ptr.i, ptr %__end_.i, align 8, !tbaa !16
  br label %if.end64

if.else:                                          ; preds = %entry
  %__end_.i76 = getelementptr inbounds %"struct.std::__1::__split_buffer", ptr %this, i64 0, i32 2
  %23 = load ptr, ptr %__end_.i76, align 8, !tbaa !16
  %24 = load ptr, ptr %__begin_.i, align 8, !tbaa !20
  %sub.ptr.lhs.cast.i78 = ptrtoint ptr %23 to i64
  %sub.ptr.rhs.cast.i79 = ptrtoint ptr %24 to i64
  %sub.ptr.sub.i80 = sub i64 %sub.ptr.lhs.cast.i78, %sub.ptr.rhs.cast.i79
  %sub.ptr.div.i81 = ashr exact i64 %sub.ptr.sub.i80, 3
  %__end_cap_.i.i82 = getelementptr inbounds %"struct.std::__1::__split_buffer", ptr %this, i64 0, i32 3
  %25 = load ptr, ptr %__end_cap_.i.i82, align 8, !tbaa !15
  %26 = load ptr, ptr %this, align 8, !tbaa !26
  %sub.ptr.lhs.cast.i83 = ptrtoint ptr %25 to i64
  %sub.ptr.rhs.cast.i84 = ptrtoint ptr %26 to i64
  %sub.ptr.sub.i85 = sub i64 %sub.ptr.lhs.cast.i83, %sub.ptr.rhs.cast.i84
  %sub.ptr.div.i86 = ashr exact i64 %sub.ptr.sub.i85, 3
  %cmp10 = icmp ult i64 %sub.ptr.div.i81, %sub.ptr.div.i86
  br i1 %cmp10, label %if.then11, label %if.else.i

if.then11:                                        ; preds = %if.else
  %cmp14.not = icmp eq ptr %25, %23
  br i1 %cmp14.not, label %if.else18, label %if.then15

if.then15:                                        ; preds = %if.then11
  call void @llvm.lifetime.start.p0(i64 8, ptr nonnull %ref.tmp) #23
  %call.i.i.i.i = tail call noalias noundef nonnull dereferenceable(4080) ptr @_Znwm(i64 noundef 4080) #26
  store ptr %call.i.i.i.i, ptr %ref.tmp, align 8, !tbaa !15
  call void @_ZNSt3__114__split_bufferIPNS_12basic_stringIcNS_11char_traitsIcEENS_9allocatorIcEEEENS4_IS7_EEE9push_backEOS7_(ptr noundef nonnull align 8 dereferenceable(32) %this, ptr noundef nonnull align 8 dereferenceable(8) %ref.tmp)
  call void @llvm.lifetime.end.p0(i64 8, ptr nonnull %ref.tmp) #23
  br label %if.end64

if.else18:                                        ; preds = %if.then11
  call void @llvm.lifetime.start.p0(i64 8, ptr nonnull %ref.tmp20) #23
  %call.i.i.i.i93 = tail call noalias noundef nonnull dereferenceable(4080) ptr @_Znwm(i64 noundef 4080) #26
  store ptr %call.i.i.i.i93, ptr %ref.tmp20, align 8, !tbaa !15
  call void @_ZNSt3__114__split_bufferIPNS_12basic_stringIcNS_11char_traitsIcEENS_9allocatorIcEEEENS4_IS7_EEE10push_frontEOS7_(ptr noundef nonnull align 8 dereferenceable(32) %this, ptr noundef nonnull align 8 dereferenceable(8) %ref.tmp20)
  call void @llvm.lifetime.end.p0(i64 8, ptr nonnull %ref.tmp20) #23
  %27 = load ptr, ptr %__begin_.i, align 8, !tbaa !20
  %28 = load ptr, ptr %27, align 8, !tbaa !15
  %add.ptr.i96 = getelementptr ptr, ptr %27, i64 1
  store ptr %add.ptr.i96, ptr %__begin_.i, align 8, !tbaa !20
  %29 = load ptr, ptr %__end_.i76, align 8, !tbaa !16
  %30 = load ptr, ptr %__end_cap_.i.i82, align 8, !tbaa !15
  %cmp.i99 = icmp eq ptr %29, %30
  br i1 %cmp.i99, label %if.then.i103, label %_ZNSt3__114__split_bufferIPNS_12basic_stringIcNS_11char_traitsIcEENS_9allocatorIcEEEENS4_IS7_EEE9push_backB7v170000ERKS7_.exit147

if.then.i103:                                     ; preds = %if.else18
  %31 = load ptr, ptr %this, align 8, !tbaa !26
  %cmp2.i101 = icmp ugt ptr %add.ptr.i96, %31
  %sub.ptr.rhs.cast.i102 = ptrtoint ptr %31 to i64
  br i1 %cmp2.i101, label %if.then3.i115, label %if.else.i.i122

if.then3.i115:                                    ; preds = %if.then.i103
  %sub.ptr.lhs.cast.i104 = ptrtoint ptr %add.ptr.i96 to i64
  %sub.ptr.sub.i105 = sub i64 %sub.ptr.lhs.cast.i104, %sub.ptr.rhs.cast.i102
  %sub.ptr.div.i106 = ashr exact i64 %sub.ptr.sub.i105, 3
  %add.i107 = add nsw i64 %sub.ptr.div.i106, 1
  %div.neg.i108 = sdiv i64 %add.i107, -2
  %add.ptr.i109 = getelementptr inbounds ptr, ptr %add.ptr.i96, i64 %div.neg.i108
  %sub.ptr.lhs.cast.i.i.i.i.i.i.i110 = ptrtoint ptr %29 to i64
  %sub.ptr.sub.i.i.i.i.i.i.i111 = sub i64 %sub.ptr.lhs.cast.i.i.i.i.i.i.i110, %sub.ptr.lhs.cast.i104
  %sub.ptr.div.i.i.i.i.i.i.i112 = ashr exact i64 %sub.ptr.sub.i.i.i.i.i.i.i111, 3
  call void @llvm.memmove.p0.p0.i64(ptr nonnull align 8 %add.ptr.i109, ptr nonnull align 8 %add.ptr.i96, i64 %sub.ptr.sub.i.i.i.i.i.i.i111, i1 false)
  %add.ptr.i.i.i.i.i.i.i113 = getelementptr inbounds ptr, ptr %add.ptr.i109, i64 %sub.ptr.div.i.i.i.i.i.i.i112
  store ptr %add.ptr.i.i.i.i.i.i.i113, ptr %__end_.i76, align 8, !tbaa !16
  %32 = load ptr, ptr %__begin_.i, align 8, !tbaa !20
  %add.ptr13.i114 = getelementptr inbounds ptr, ptr %32, i64 %div.neg.i108
  store ptr %add.ptr13.i114, ptr %__begin_.i, align 8, !tbaa !20
  br label %_ZNSt3__114__split_bufferIPNS_12basic_stringIcNS_11char_traitsIcEENS_9allocatorIcEEEENS4_IS7_EEE9push_backB7v170000ERKS7_.exit147

if.else.i.i122:                                   ; preds = %if.then.i103
  %sub.ptr.lhs.cast16.i116 = ptrtoint ptr %29 to i64
  %sub.ptr.sub18.i117 = sub i64 %sub.ptr.lhs.cast16.i116, %sub.ptr.rhs.cast.i102
  %mul.i118 = ashr exact i64 %sub.ptr.sub18.i117, 2
  %cmp.i.i.i.i119 = icmp eq ptr %29, %31
  %.sroa.speculated.i120 = select i1 %cmp.i.i.i.i119, i64 1, i64 %mul.i118
  %cmp.i.i.i52.i121 = icmp ugt i64 %.sroa.speculated.i120, 2305843009213693951
  br i1 %cmp.i.i.i52.i121, label %if.then.i.i.i.i123, label %_ZNSt3__114__split_bufferIPNS_12basic_stringIcNS_11char_traitsIcEENS_9allocatorIcEEEERNS4_IS7_EEEC2EmmS9_.exit.i134

if.then.i.i.i.i123:                               ; preds = %if.else.i.i122
  call void @_ZSt28__throw_bad_array_new_lengthB7v170000v() #25
  unreachable

_ZNSt3__114__split_bufferIPNS_12basic_stringIcNS_11char_traitsIcEENS_9allocatorIcEEEERNS4_IS7_EEEC2EmmS9_.exit.i134: ; preds = %if.else.i.i122
  %div2248.i124 = lshr i64 %.sroa.speculated.i120, 2
  %mul.i.i.i.i125 = shl nuw i64 %.sroa.speculated.i120, 3
  %call.i.i.i.i.i.i126 = call noalias noundef nonnull ptr @_Znwm(i64 noundef %mul.i.i.i.i125) #26
  %call.i.i.i.i.i.i126363 = ptrtoint ptr %call.i.i.i.i.i.i126 to i64
  %add.ptr.i.i127 = getelementptr ptr, ptr %call.i.i.i.i.i.i126, i64 %div2248.i124
  %add.ptr6.i.i128 = getelementptr inbounds ptr, ptr %call.i.i.i.i.i.i126, i64 %.sroa.speculated.i120
  %sub.ptr.rhs.cast.i.i.i.i.i129 = ptrtoint ptr %add.ptr.i96 to i64
  %sub.ptr.sub.i.i.i.i.i130 = sub i64 %sub.ptr.lhs.cast16.i116, %sub.ptr.rhs.cast.i.i.i.i.i129
  %sub.ptr.div.i.i.i.i.i131 = ashr i64 %sub.ptr.sub.i.i.i.i.i130, 3
  %add.ptr.i.i.i132 = getelementptr inbounds ptr, ptr %add.ptr.i.i127, i64 %sub.ptr.div.i.i.i.i.i131
  %cmp.not24.i.i133 = icmp eq ptr %29, %add.ptr.i96
  br i1 %cmp.not24.i.i133, label %_ZNSt3__114__split_bufferIPNS_12basic_stringIcNS_11char_traitsIcEENS_9allocatorIcEEEERNS4_IS7_EEE5clearB7v170000Ev.exit.i.i143, label %for.inc.i.i140.preheader

for.inc.i.i140.preheader:                         ; preds = %_ZNSt3__114__split_bufferIPNS_12basic_stringIcNS_11char_traitsIcEENS_9allocatorIcEEEERNS4_IS7_EEEC2EmmS9_.exit.i134
  %33 = add i64 %sub.ptr.sub.i.i.i.i.i130, -8
  %34 = lshr i64 %33, 3
  %35 = add nuw nsw i64 %34, 1
  %min.iters.check367 = icmp ult i64 %33, 104
  br i1 %min.iters.check367, label %for.inc.i.i140.preheader409, label %vector.memcheck362

vector.memcheck362:                               ; preds = %for.inc.i.i140.preheader
  %36 = shl i64 %div2248.i124, 3
  %37 = add i64 %36, %call.i.i.i.i.i.i126363
  %38 = sub i64 %37, %sub.ptr.rhs.cast.i.i.i.i.i129
  %diff.check364 = icmp ult i64 %38, 32
  br i1 %diff.check364, label %for.inc.i.i140.preheader409, label %vector.ph368

vector.ph368:                                     ; preds = %vector.memcheck362
  %n.vec370 = and i64 %35, -4
  %39 = shl i64 %n.vec370, 3
  %ind.end371 = getelementptr i8, ptr %add.ptr.i.i127, i64 %39
  %40 = shl i64 %n.vec370, 3
  %ind.end373 = getelementptr i8, ptr %add.ptr.i96, i64 %40
  br label %vector.body376

vector.body376:                                   ; preds = %vector.body376, %vector.ph368
  %index377 = phi i64 [ 0, %vector.ph368 ], [ %index.next384, %vector.body376 ]
  %41 = shl i64 %index377, 3
  %next.gep378 = getelementptr i8, ptr %add.ptr.i.i127, i64 %41
  %42 = shl i64 %index377, 3
  %next.gep380 = getelementptr i8, ptr %add.ptr.i96, i64 %42
  %wide.load382 = load <2 x ptr>, ptr %next.gep380, align 8, !tbaa !15
  %43 = getelementptr ptr, ptr %next.gep380, i64 2
  %wide.load383 = load <2 x ptr>, ptr %43, align 8, !tbaa !15
  store <2 x ptr> %wide.load382, ptr %next.gep378, align 8, !tbaa !15
  %44 = getelementptr ptr, ptr %next.gep378, i64 2
  store <2 x ptr> %wide.load383, ptr %44, align 8, !tbaa !15
  %index.next384 = add nuw i64 %index377, 4
  %45 = icmp eq i64 %index.next384, %n.vec370
  br i1 %45, label %middle.block365, label %vector.body376, !llvm.loop !32

middle.block365:                                  ; preds = %vector.body376
  %cmp.n375 = icmp eq i64 %35, %n.vec370
  br i1 %cmp.n375, label %_ZNSt3__114__split_bufferIPNS_12basic_stringIcNS_11char_traitsIcEENS_9allocatorIcEEEERNS4_IS7_EEE5clearB7v170000Ev.exit.i.i143, label %for.inc.i.i140.preheader409

for.inc.i.i140.preheader409:                      ; preds = %vector.memcheck362, %for.inc.i.i140.preheader, %middle.block365
  %__tx.sroa.0.026.i.i135.ph = phi ptr [ %add.ptr.i.i127, %vector.memcheck362 ], [ %add.ptr.i.i127, %for.inc.i.i140.preheader ], [ %ind.end371, %middle.block365 ]
  %__first.sroa.0.025.i.i136.ph = phi ptr [ %add.ptr.i96, %vector.memcheck362 ], [ %add.ptr.i96, %for.inc.i.i140.preheader ], [ %ind.end373, %middle.block365 ]
  br label %for.inc.i.i140

for.inc.i.i140:                                   ; preds = %for.inc.i.i140.preheader409, %for.inc.i.i140
  %__tx.sroa.0.026.i.i135 = phi ptr [ %incdec.ptr.i.i137, %for.inc.i.i140 ], [ %__tx.sroa.0.026.i.i135.ph, %for.inc.i.i140.preheader409 ]
  %__first.sroa.0.025.i.i136 = phi ptr [ %incdec.ptr.i.i.i138, %for.inc.i.i140 ], [ %__first.sroa.0.025.i.i136.ph, %for.inc.i.i140.preheader409 ]
  %46 = load ptr, ptr %__first.sroa.0.025.i.i136, align 8, !tbaa !15
  store ptr %46, ptr %__tx.sroa.0.026.i.i135, align 8, !tbaa !15
  %incdec.ptr.i.i137 = getelementptr inbounds ptr, ptr %__tx.sroa.0.026.i.i135, i64 1
  %incdec.ptr.i.i.i138 = getelementptr inbounds ptr, ptr %__first.sroa.0.025.i.i136, i64 1
  %cmp.not.i.i139 = icmp eq ptr %incdec.ptr.i.i137, %add.ptr.i.i.i132
  br i1 %cmp.not.i.i139, label %_ZNSt3__114__split_bufferIPNS_12basic_stringIcNS_11char_traitsIcEENS_9allocatorIcEEEERNS4_IS7_EEE5clearB7v170000Ev.exit.i.i143, label %for.inc.i.i140, !llvm.loop !33

_ZNSt3__114__split_bufferIPNS_12basic_stringIcNS_11char_traitsIcEENS_9allocatorIcEEEERNS4_IS7_EEE5clearB7v170000Ev.exit.i.i143: ; preds = %for.inc.i.i140, %middle.block365, %_ZNSt3__114__split_bufferIPNS_12basic_stringIcNS_11char_traitsIcEENS_9allocatorIcEEEERNS4_IS7_EEEC2EmmS9_.exit.i134
  %storemerge.i141 = phi ptr [ %add.ptr.i.i127, %_ZNSt3__114__split_bufferIPNS_12basic_stringIcNS_11char_traitsIcEENS_9allocatorIcEEEERNS4_IS7_EEEC2EmmS9_.exit.i134 ], [ %add.ptr.i.i.i132, %middle.block365 ], [ %add.ptr.i.i.i132, %for.inc.i.i140 ]
  store ptr %call.i.i.i.i.i.i126, ptr %this, align 8, !tbaa !15
  store ptr %add.ptr.i.i127, ptr %__begin_.i, align 8, !tbaa !15
  store ptr %storemerge.i141, ptr %__end_.i76, align 8, !tbaa !15
  store ptr %add.ptr6.i.i128, ptr %__end_cap_.i.i82, align 8, !tbaa !15
  %tobool.not.i.i142 = icmp eq ptr %31, null
  br i1 %tobool.not.i.i142, label %_ZNSt3__114__split_bufferIPNS_12basic_stringIcNS_11char_traitsIcEENS_9allocatorIcEEEENS4_IS7_EEE9push_backB7v170000ERKS7_.exit147, label %if.then.i.i145

if.then.i.i145:                                   ; preds = %_ZNSt3__114__split_bufferIPNS_12basic_stringIcNS_11char_traitsIcEENS_9allocatorIcEEEERNS4_IS7_EEE5clearB7v170000Ev.exit.i.i143
  call void @_ZdlPv(ptr noundef nonnull %31) #24
  %.pre.i144 = load ptr, ptr %__end_.i76, align 8, !tbaa !16
  br label %_ZNSt3__114__split_bufferIPNS_12basic_stringIcNS_11char_traitsIcEENS_9allocatorIcEEEENS4_IS7_EEE9push_backB7v170000ERKS7_.exit147

_ZNSt3__114__split_bufferIPNS_12basic_stringIcNS_11char_traitsIcEENS_9allocatorIcEEEENS4_IS7_EEE9push_backB7v170000ERKS7_.exit147: ; preds = %if.else18, %if.then3.i115, %_ZNSt3__114__split_bufferIPNS_12basic_stringIcNS_11char_traitsIcEENS_9allocatorIcEEEERNS4_IS7_EEE5clearB7v170000Ev.exit.i.i143, %if.then.i.i145
  %47 = phi ptr [ %.pre.i144, %if.then.i.i145 ], [ %storemerge.i141, %_ZNSt3__114__split_bufferIPNS_12basic_stringIcNS_11char_traitsIcEENS_9allocatorIcEEEERNS4_IS7_EEE5clearB7v170000Ev.exit.i.i143 ], [ %add.ptr.i.i.i.i.i.i.i113, %if.then3.i115 ], [ %29, %if.else18 ]
  store ptr %28, ptr %47, align 8, !tbaa !15
  %48 = load ptr, ptr %__end_.i76, align 8, !tbaa !16
  %incdec.ptr.i146 = getelementptr inbounds ptr, ptr %48, i64 1
  store ptr %incdec.ptr.i146, ptr %__end_.i76, align 8, !tbaa !16
  br label %if.end64

if.else.i:                                        ; preds = %if.else
  %mul = ashr exact i64 %sub.ptr.sub.i85, 2
  %cmp.i.i.i = icmp eq ptr %25, %26
  %.sroa.speculated = select i1 %cmp.i.i.i, i64 1, i64 %mul
  %cmp.i.i.i161 = icmp ugt i64 %.sroa.speculated, 2305843009213693951
  br i1 %cmp.i.i.i161, label %if.then.i.i.i, label %_ZNSt3__114__split_bufferIPNS_12basic_stringIcNS_11char_traitsIcEENS_9allocatorIcEEEERNS4_IS7_EEEC2EmmS9_.exit

if.then.i.i.i:                                    ; preds = %if.else.i
  tail call void @_ZSt28__throw_bad_array_new_lengthB7v170000v() #25
  unreachable

_ZNSt3__114__split_bufferIPNS_12basic_stringIcNS_11char_traitsIcEENS_9allocatorIcEEEERNS4_IS7_EEEC2EmmS9_.exit: ; preds = %if.else.i
  %mul.i.i.i = shl nuw i64 %.sroa.speculated, 3
  %call.i.i.i.i.i = tail call noalias noundef nonnull ptr @_Znwm(i64 noundef %mul.i.i.i) #26
  %add.ptr.i163 = getelementptr inbounds ptr, ptr %call.i.i.i.i.i, i64 %sub.ptr.div.i81
  %add.ptr6.i = getelementptr inbounds ptr, ptr %call.i.i.i.i.i, i64 %.sroa.speculated
  %call.i.i.i.i166167 = invoke noalias noundef nonnull dereferenceable(4080) ptr @_Znwm(i64 noundef 4080) #26
          to label %invoke.cont unwind label %lpad

invoke.cont:                                      ; preds = %_ZNSt3__114__split_bufferIPNS_12basic_stringIcNS_11char_traitsIcEENS_9allocatorIcEEEERNS4_IS7_EEEC2EmmS9_.exit
  %cmp.i170 = icmp eq i64 %sub.ptr.div.i81, %.sroa.speculated
  br i1 %cmp.i170, label %if.then.i174, label %invoke.cont42

if.then.i174:                                     ; preds = %invoke.cont
  %cmp2.i172 = icmp sgt i64 %sub.ptr.sub.i80, 0
  br i1 %cmp2.i172, label %if.then3.i186, label %if.else.i.i192

if.then3.i186:                                    ; preds = %if.then.i174
  %add.i178 = add nsw i64 %sub.ptr.div.i81, 1
  %div.neg.i179 = sdiv i64 %add.i178, -2
  %add.ptr.i180 = getelementptr inbounds ptr, ptr %add.ptr.i163, i64 %div.neg.i179
  br label %invoke.cont42

if.else.i.i192:                                   ; preds = %if.then.i174
  %mul.i189 = ashr exact i64 %sub.ptr.sub.i80, 2
  %cmp.i.i.i.i190 = icmp eq ptr %23, %24
  %.sroa.speculated.i191 = select i1 %cmp.i.i.i.i190, i64 1, i64 %mul.i189
  %cmp.i.i.i51.i = icmp ugt i64 %.sroa.speculated.i191, 2305843009213693951
  br i1 %cmp.i.i.i51.i, label %if.then.i.i.i.i193, label %_ZNSt3__114__split_bufferIPNS_12basic_stringIcNS_11char_traitsIcEENS_9allocatorIcEEEERNS4_IS7_EEEC2EmmS9_.exit.i203

if.then.i.i.i.i193:                               ; preds = %if.else.i.i192
  invoke void @_ZSt28__throw_bad_array_new_lengthB7v170000v() #25
          to label %.noexc unwind label %if.then.i.i270

.noexc:                                           ; preds = %if.then.i.i.i.i193
  unreachable

_ZNSt3__114__split_bufferIPNS_12basic_stringIcNS_11char_traitsIcEENS_9allocatorIcEEEERNS4_IS7_EEEC2EmmS9_.exit.i203: ; preds = %if.else.i.i192
  %mul.i.i.i.i195 = shl nuw nsw i64 %.sroa.speculated.i191, 3
  %call.i.i.i.i.i.i196216 = invoke noalias noundef nonnull ptr @_Znwm(i64 noundef %mul.i.i.i.i195) #26
          to label %if.then.i.i214 unwind label %if.then.i.i270

if.then.i.i214:                                   ; preds = %_ZNSt3__114__split_bufferIPNS_12basic_stringIcNS_11char_traitsIcEENS_9allocatorIcEEEERNS4_IS7_EEEC2EmmS9_.exit.i203
  %div2248.i194 = lshr i64 %.sroa.speculated.i191, 2
  %add.ptr.i.i197 = getelementptr ptr, ptr %call.i.i.i.i.i.i196216, i64 %div2248.i194
  %add.ptr6.i.i198 = getelementptr inbounds ptr, ptr %call.i.i.i.i.i.i196216, i64 %.sroa.speculated.i191
  tail call void @_ZdlPv(ptr noundef nonnull %call.i.i.i.i.i) #24
  %.pre = load ptr, ptr %__end_.i76, align 8, !tbaa !16
  %.pre350 = load ptr, ptr %__begin_.i, align 8, !tbaa !20
  br label %invoke.cont42

invoke.cont42:                                    ; preds = %if.then.i.i214, %if.then3.i186, %invoke.cont
  %49 = phi ptr [ %24, %if.then3.i186 ], [ %.pre350, %if.then.i.i214 ], [ %24, %invoke.cont ]
  %50 = phi ptr [ %23, %if.then3.i186 ], [ %.pre, %if.then.i.i214 ], [ %23, %invoke.cont ]
  %__buf.sroa.0.0 = phi ptr [ %call.i.i.i.i.i, %if.then3.i186 ], [ %call.i.i.i.i.i.i196216, %if.then.i.i214 ], [ %call.i.i.i.i.i, %invoke.cont ]
  %__buf.sroa.12.0 = phi ptr [ %add.ptr.i180, %if.then3.i186 ], [ %add.ptr.i.i197, %if.then.i.i214 ], [ %add.ptr.i163, %invoke.cont ]
  %__buf.sroa.44.0 = phi ptr [ %add.ptr6.i, %if.then3.i186 ], [ %add.ptr6.i.i198, %if.then.i.i214 ], [ %add.ptr6.i, %invoke.cont ]
  store ptr %call.i.i.i.i166167, ptr %__buf.sroa.12.0, align 8, !tbaa !15
  %incdec.ptr.i215 = getelementptr inbounds ptr, ptr %__buf.sroa.12.0, i64 1
  %cmp48.not338 = icmp eq ptr %50, %49
  br i1 %cmp48.not338, label %_ZNSt3__110unique_ptrIPNS_12basic_stringIcNS_11char_traitsIcEENS_9allocatorIcEEEENS_22__allocator_destructorINS4_IS6_EEEEED2B7v170000Ev.exit, label %for.body

_ZNSt3__110unique_ptrIPNS_12basic_stringIcNS_11char_traitsIcEENS_9allocatorIcEEEENS_22__allocator_destructorINS4_IS6_EEEEED2B7v170000Ev.exit: ; preds = %_ZNSt3__114__split_bufferIPNS_12basic_stringIcNS_11char_traitsIcEENS_9allocatorIcEEEERNS4_IS7_EEE10push_frontERKS7_.exit, %invoke.cont42
  %__buf.sroa.0.1.lcssa = phi ptr [ %__buf.sroa.0.0, %invoke.cont42 ], [ %__buf.sroa.0.2, %_ZNSt3__114__split_bufferIPNS_12basic_stringIcNS_11char_traitsIcEENS_9allocatorIcEEEERNS4_IS7_EEE10push_frontERKS7_.exit ]
  %__buf.sroa.12.1.lcssa = phi ptr [ %__buf.sroa.12.0, %invoke.cont42 ], [ %add.ptr41.i, %_ZNSt3__114__split_bufferIPNS_12basic_stringIcNS_11char_traitsIcEENS_9allocatorIcEEEERNS4_IS7_EEE10push_frontERKS7_.exit ]
  %__buf.sroa.27.1.lcssa = phi ptr [ %incdec.ptr.i215, %invoke.cont42 ], [ %__buf.sroa.27.2, %_ZNSt3__114__split_bufferIPNS_12basic_stringIcNS_11char_traitsIcEENS_9allocatorIcEEEERNS4_IS7_EEE10push_frontERKS7_.exit ]
  %__buf.sroa.44.1.lcssa = phi ptr [ %__buf.sroa.44.0, %invoke.cont42 ], [ %__buf.sroa.44.2, %_ZNSt3__114__split_bufferIPNS_12basic_stringIcNS_11char_traitsIcEENS_9allocatorIcEEEERNS4_IS7_EEE10push_frontERKS7_.exit ]
  %51 = load ptr, ptr %this, align 8, !tbaa !15
  store ptr %__buf.sroa.0.1.lcssa, ptr %this, align 8, !tbaa !15
  store ptr %__buf.sroa.12.1.lcssa, ptr %__begin_.i, align 8, !tbaa !15
  store ptr %__buf.sroa.27.1.lcssa, ptr %__end_.i76, align 8, !tbaa !15
  store ptr %__buf.sroa.44.1.lcssa, ptr %__end_cap_.i.i82, align 8, !tbaa !15
  %tobool.not.i = icmp eq ptr %51, null
  br i1 %tobool.not.i, label %if.end64, label %if.then.i223

if.then.i223:                                     ; preds = %_ZNSt3__110unique_ptrIPNS_12basic_stringIcNS_11char_traitsIcEENS_9allocatorIcEEEENS_22__allocator_destructorINS4_IS6_EEEEED2B7v170000Ev.exit
  tail call void @_ZdlPv(ptr noundef nonnull %51) #24
  br label %if.end64

lpad:                                             ; preds = %_ZNSt3__114__split_bufferIPNS_12basic_stringIcNS_11char_traitsIcEENS_9allocatorIcEEEERNS4_IS7_EEEC2EmmS9_.exit
  %52 = landingpad { ptr, i32 }
          cleanup
  br label %_ZNSt3__114__split_bufferIPNS_12basic_stringIcNS_11char_traitsIcEENS_9allocatorIcEEEERNS4_IS7_EEED2Ev.exit284

for.body:                                         ; preds = %invoke.cont42, %_ZNSt3__114__split_bufferIPNS_12basic_stringIcNS_11char_traitsIcEENS_9allocatorIcEEEERNS4_IS7_EEE10push_frontERKS7_.exit
  %__i.0343 = phi ptr [ %incdec.ptr, %_ZNSt3__114__split_bufferIPNS_12basic_stringIcNS_11char_traitsIcEENS_9allocatorIcEEEERNS4_IS7_EEE10push_frontERKS7_.exit ], [ %50, %invoke.cont42 ]
  %__buf.sroa.44.1342 = phi ptr [ %__buf.sroa.44.2, %_ZNSt3__114__split_bufferIPNS_12basic_stringIcNS_11char_traitsIcEENS_9allocatorIcEEEERNS4_IS7_EEE10push_frontERKS7_.exit ], [ %__buf.sroa.44.0, %invoke.cont42 ]
  %__buf.sroa.27.1341 = phi ptr [ %__buf.sroa.27.2, %_ZNSt3__114__split_bufferIPNS_12basic_stringIcNS_11char_traitsIcEENS_9allocatorIcEEEERNS4_IS7_EEE10push_frontERKS7_.exit ], [ %incdec.ptr.i215, %invoke.cont42 ]
  %__buf.sroa.12.1340 = phi ptr [ %add.ptr41.i, %_ZNSt3__114__split_bufferIPNS_12basic_stringIcNS_11char_traitsIcEENS_9allocatorIcEEEERNS4_IS7_EEE10push_frontERKS7_.exit ], [ %__buf.sroa.12.0, %invoke.cont42 ]
  %__buf.sroa.0.1339 = phi ptr [ %__buf.sroa.0.2, %_ZNSt3__114__split_bufferIPNS_12basic_stringIcNS_11char_traitsIcEENS_9allocatorIcEEEERNS4_IS7_EEE10push_frontERKS7_.exit ], [ %__buf.sroa.0.0, %invoke.cont42 ]
  %incdec.ptr = getelementptr inbounds ptr, ptr %__i.0343, i64 -1
  %cmp.i225 = icmp eq ptr %__buf.sroa.12.1340, %__buf.sroa.0.1339
  br i1 %cmp.i225, label %if.then.i230, label %_ZNSt3__114__split_bufferIPNS_12basic_stringIcNS_11char_traitsIcEENS_9allocatorIcEEEERNS4_IS7_EEE10push_frontERKS7_.exit

if.then.i230:                                     ; preds = %for.body
  %cmp2.i228 = icmp ult ptr %__buf.sroa.27.1341, %__buf.sroa.44.1342
  %sub.ptr.lhs.cast.i229 = ptrtoint ptr %__buf.sroa.44.1342 to i64
  br i1 %cmp2.i228, label %if.then3.i239, label %if.else.i.i244

if.then3.i239:                                    ; preds = %if.then.i230
  %sub.ptr.rhs.cast.i231 = ptrtoint ptr %__buf.sroa.27.1341 to i64
  %sub.ptr.sub.i232 = sub i64 %sub.ptr.lhs.cast.i229, %sub.ptr.rhs.cast.i231
  %sub.ptr.div.i233 = ashr exact i64 %sub.ptr.sub.i232, 3
  %add.i234 = add nsw i64 %sub.ptr.div.i233, 1
  %div.i = sdiv i64 %add.i234, 2
  %add.ptr.i235 = getelementptr inbounds ptr, ptr %__buf.sroa.27.1341, i64 %div.i
  %sub.ptr.rhs.cast.i.i.i.i.i.i.i = ptrtoint ptr %__buf.sroa.12.1340 to i64
  %sub.ptr.sub.i.i.i.i.i.i.i236 = sub i64 %sub.ptr.rhs.cast.i231, %sub.ptr.rhs.cast.i.i.i.i.i.i.i
  %sub.ptr.div.i.i.i.i.i.i.i237 = ashr exact i64 %sub.ptr.sub.i.i.i.i.i.i.i236, 3
  %idx.neg.i.i.i.i.i.i.i = sub nsw i64 0, %sub.ptr.div.i.i.i.i.i.i.i237
  %add.ptr.i.i.i.i.i.i.i238 = getelementptr inbounds ptr, ptr %add.ptr.i235, i64 %idx.neg.i.i.i.i.i.i.i
  tail call void @llvm.memmove.p0.p0.i64(ptr align 8 %add.ptr.i.i.i.i.i.i.i238, ptr nonnull align 8 %__buf.sroa.12.1340, i64 %sub.ptr.sub.i.i.i.i.i.i.i236, i1 false)
  br label %_ZNSt3__114__split_bufferIPNS_12basic_stringIcNS_11char_traitsIcEENS_9allocatorIcEEEERNS4_IS7_EEE10push_frontERKS7_.exit

if.else.i.i244:                                   ; preds = %if.then.i230
  %sub.ptr.rhs.cast16.i = ptrtoint ptr %__buf.sroa.12.1340 to i64
  %sub.ptr.sub17.i = sub i64 %sub.ptr.lhs.cast.i229, %sub.ptr.rhs.cast16.i
  %mul.i240 = ashr exact i64 %sub.ptr.sub17.i, 2
  %cmp.i.i.i.i241 = icmp eq ptr %__buf.sroa.44.1342, %__buf.sroa.12.1340
  %.sroa.speculated.i242 = select i1 %cmp.i.i.i.i241, i64 1, i64 %mul.i240
  %cmp.i.i.i52.i243 = icmp ugt i64 %.sroa.speculated.i242, 2305843009213693951
  br i1 %cmp.i.i.i52.i243, label %if.then.i.i.i.i245, label %_ZNSt3__114__split_bufferIPNS_12basic_stringIcNS_11char_traitsIcEENS_9allocatorIcEEEERNS4_IS7_EEEC2EmmS9_.exit.i254

if.then.i.i.i.i245:                               ; preds = %if.else.i.i244
  invoke void @_ZSt28__throw_bad_array_new_lengthB7v170000v() #25
          to label %.noexc267 unwind label %ehcleanup60.loopexit.split-lp

.noexc267:                                        ; preds = %if.then.i.i.i.i245
  unreachable

_ZNSt3__114__split_bufferIPNS_12basic_stringIcNS_11char_traitsIcEENS_9allocatorIcEEEERNS4_IS7_EEEC2EmmS9_.exit.i254: ; preds = %if.else.i.i244
  %mul.i.i.i.i247 = shl nuw i64 %.sroa.speculated.i242, 3
  %call.i.i.i.i.i.i248268 = invoke noalias noundef nonnull ptr @_Znwm(i64 noundef %mul.i.i.i.i247) #26
          to label %call.i.i.i.i.i.i248.noexc unwind label %ehcleanup60.loopexit

call.i.i.i.i.i.i248.noexc:                        ; preds = %_ZNSt3__114__split_bufferIPNS_12basic_stringIcNS_11char_traitsIcEENS_9allocatorIcEEEERNS4_IS7_EEEC2EmmS9_.exit.i254
  %call.i.i.i.i.i.i248268355 = ptrtoint ptr %call.i.i.i.i.i.i248268 to i64
  %add21.i = add nuw nsw i64 %.sroa.speculated.i242, 3
  %div2248.i246 = lshr i64 %add21.i, 2
  %add.ptr.i.i249 = getelementptr ptr, ptr %call.i.i.i.i.i.i248268, i64 %div2248.i246
  %add.ptr6.i.i250 = getelementptr inbounds ptr, ptr %call.i.i.i.i.i.i248268, i64 %.sroa.speculated.i242
  %sub.ptr.lhs.cast.i.i.i.i.i = ptrtoint ptr %__buf.sroa.27.1341 to i64
  %sub.ptr.sub.i.i.i.i.i251 = sub i64 %sub.ptr.lhs.cast.i.i.i.i.i, %sub.ptr.rhs.cast16.i
  %sub.ptr.div.i.i.i.i.i252 = ashr i64 %sub.ptr.sub.i.i.i.i.i251, 3
  %add.ptr.i.i54.i = getelementptr inbounds ptr, ptr %add.ptr.i.i249, i64 %sub.ptr.div.i.i.i.i.i252
  %cmp.not24.i.i253 = icmp eq ptr %__buf.sroa.27.1341, %__buf.sroa.12.1340
  br i1 %cmp.not24.i.i253, label %if.then.i.i265, label %for.inc.i.i260.preheader

for.inc.i.i260.preheader:                         ; preds = %call.i.i.i.i.i.i248.noexc
  %53 = add i64 %sub.ptr.sub.i.i.i.i.i251, -8
  %54 = lshr i64 %53, 3
  %55 = add nuw nsw i64 %54, 1
  %min.iters.check = icmp ult i64 %53, 104
  br i1 %min.iters.check, label %for.inc.i.i260.preheader410, label %vector.memcheck

vector.memcheck:                                  ; preds = %for.inc.i.i260.preheader
  %56 = shl i64 %div2248.i246, 3
  %57 = add i64 %56, %call.i.i.i.i.i.i248268355
  %58 = sub i64 %57, %sub.ptr.rhs.cast16.i
  %diff.check = icmp ult i64 %58, 32
  br i1 %diff.check, label %for.inc.i.i260.preheader410, label %vector.ph

vector.ph:                                        ; preds = %vector.memcheck
  %n.vec = and i64 %55, -4
  %59 = shl i64 %n.vec, 3
  %ind.end = getelementptr i8, ptr %add.ptr.i.i249, i64 %59
  %60 = shl i64 %n.vec, 3
  %ind.end356 = getelementptr i8, ptr %__buf.sroa.12.1340, i64 %60
  br label %vector.body

vector.body:                                      ; preds = %vector.body, %vector.ph
  %index = phi i64 [ 0, %vector.ph ], [ %index.next, %vector.body ]
  %61 = shl i64 %index, 3
  %next.gep = getelementptr i8, ptr %add.ptr.i.i249, i64 %61
  %62 = shl i64 %index, 3
  %next.gep359 = getelementptr i8, ptr %__buf.sroa.12.1340, i64 %62
  %wide.load = load <2 x ptr>, ptr %next.gep359, align 8, !tbaa !15
  %63 = getelementptr ptr, ptr %next.gep359, i64 2
  %wide.load361 = load <2 x ptr>, ptr %63, align 8, !tbaa !15
  store <2 x ptr> %wide.load, ptr %next.gep, align 8, !tbaa !15
  %64 = getelementptr ptr, ptr %next.gep, i64 2
  store <2 x ptr> %wide.load361, ptr %64, align 8, !tbaa !15
  %index.next = add nuw i64 %index, 4
  %65 = icmp eq i64 %index.next, %n.vec
  br i1 %65, label %middle.block, label %vector.body, !llvm.loop !34

middle.block:                                     ; preds = %vector.body
  %cmp.n = icmp eq i64 %55, %n.vec
  br i1 %cmp.n, label %if.then.i.i265, label %for.inc.i.i260.preheader410

for.inc.i.i260.preheader410:                      ; preds = %vector.memcheck, %for.inc.i.i260.preheader, %middle.block
  %__tx.sroa.0.026.i.i255.ph = phi ptr [ %add.ptr.i.i249, %vector.memcheck ], [ %add.ptr.i.i249, %for.inc.i.i260.preheader ], [ %ind.end, %middle.block ]
  %__first.sroa.0.025.i.i256.ph = phi ptr [ %__buf.sroa.12.1340, %vector.memcheck ], [ %__buf.sroa.12.1340, %for.inc.i.i260.preheader ], [ %ind.end356, %middle.block ]
  br label %for.inc.i.i260

for.inc.i.i260:                                   ; preds = %for.inc.i.i260.preheader410, %for.inc.i.i260
  %__tx.sroa.0.026.i.i255 = phi ptr [ %incdec.ptr.i.i257, %for.inc.i.i260 ], [ %__tx.sroa.0.026.i.i255.ph, %for.inc.i.i260.preheader410 ]
  %__first.sroa.0.025.i.i256 = phi ptr [ %incdec.ptr.i.i.i258, %for.inc.i.i260 ], [ %__first.sroa.0.025.i.i256.ph, %for.inc.i.i260.preheader410 ]
  %66 = load ptr, ptr %__first.sroa.0.025.i.i256, align 8, !tbaa !15
  store ptr %66, ptr %__tx.sroa.0.026.i.i255, align 8, !tbaa !15
  %incdec.ptr.i.i257 = getelementptr inbounds ptr, ptr %__tx.sroa.0.026.i.i255, i64 1
  %incdec.ptr.i.i.i258 = getelementptr inbounds ptr, ptr %__first.sroa.0.025.i.i256, i64 1
  %cmp.not.i.i259 = icmp eq ptr %incdec.ptr.i.i257, %add.ptr.i.i54.i
  br i1 %cmp.not.i.i259, label %if.then.i.i265, label %for.inc.i.i260, !llvm.loop !35

if.then.i.i265:                                   ; preds = %for.inc.i.i260, %middle.block, %call.i.i.i.i.i.i248.noexc
  %storemerge.i261 = phi ptr [ %add.ptr.i.i249, %call.i.i.i.i.i.i248.noexc ], [ %add.ptr.i.i54.i, %middle.block ], [ %add.ptr.i.i54.i, %for.inc.i.i260 ]
  tail call void @_ZdlPv(ptr noundef nonnull %__buf.sroa.12.1340) #24
  br label %_ZNSt3__114__split_bufferIPNS_12basic_stringIcNS_11char_traitsIcEENS_9allocatorIcEEEERNS4_IS7_EEE10push_frontERKS7_.exit

_ZNSt3__114__split_bufferIPNS_12basic_stringIcNS_11char_traitsIcEENS_9allocatorIcEEEERNS4_IS7_EEE10push_frontERKS7_.exit: ; preds = %for.body, %if.then3.i239, %if.then.i.i265
  %__buf.sroa.0.2 = phi ptr [ %__buf.sroa.12.1340, %if.then3.i239 ], [ %call.i.i.i.i.i.i248268, %if.then.i.i265 ], [ %__buf.sroa.0.1339, %for.body ]
  %__buf.sroa.12.2 = phi ptr [ %add.ptr.i.i.i.i.i.i.i238, %if.then3.i239 ], [ %add.ptr.i.i249, %if.then.i.i265 ], [ %__buf.sroa.12.1340, %for.body ]
  %__buf.sroa.27.2 = phi ptr [ %add.ptr.i235, %if.then3.i239 ], [ %storemerge.i261, %if.then.i.i265 ], [ %__buf.sroa.27.1341, %for.body ]
  %__buf.sroa.44.2 = phi ptr [ %__buf.sroa.44.1342, %if.then3.i239 ], [ %add.ptr6.i.i250, %if.then.i.i265 ], [ %__buf.sroa.44.1342, %for.body ]
  %add.ptr41.i = getelementptr inbounds ptr, ptr %__buf.sroa.12.2, i64 -1
  %67 = load ptr, ptr %incdec.ptr, align 8, !tbaa !15
  store ptr %67, ptr %add.ptr41.i, align 8, !tbaa !15
  %68 = load ptr, ptr %__begin_.i, align 8, !tbaa !20
  %cmp48.not = icmp eq ptr %incdec.ptr, %68
  br i1 %cmp48.not, label %_ZNSt3__110unique_ptrIPNS_12basic_stringIcNS_11char_traitsIcEENS_9allocatorIcEEEENS_22__allocator_destructorINS4_IS6_EEEEED2B7v170000Ev.exit, label %for.body

if.then.i.i270:                                   ; preds = %_ZNSt3__114__split_bufferIPNS_12basic_stringIcNS_11char_traitsIcEENS_9allocatorIcEEEERNS4_IS7_EEEC2EmmS9_.exit.i203, %if.then.i.i.i.i193
  %69 = landingpad { ptr, i32 }
          cleanup
  tail call void @_ZdlPv(ptr noundef nonnull %call.i.i.i.i166167) #24
  br label %_ZNSt3__114__split_bufferIPNS_12basic_stringIcNS_11char_traitsIcEENS_9allocatorIcEEEERNS4_IS7_EEED2Ev.exit284

ehcleanup60.loopexit:                             ; preds = %_ZNSt3__114__split_bufferIPNS_12basic_stringIcNS_11char_traitsIcEENS_9allocatorIcEEEERNS4_IS7_EEEC2EmmS9_.exit.i254
  %lpad.loopexit = landingpad { ptr, i32 }
          cleanup
  br label %_ZNSt3__114__split_bufferIPNS_12basic_stringIcNS_11char_traitsIcEENS_9allocatorIcEEEERNS4_IS7_EEED2Ev.exit284

ehcleanup60.loopexit.split-lp:                    ; preds = %if.then.i.i.i.i245
  %lpad.loopexit.split-lp = landingpad { ptr, i32 }
          cleanup
  br label %_ZNSt3__114__split_bufferIPNS_12basic_stringIcNS_11char_traitsIcEENS_9allocatorIcEEEERNS4_IS7_EEED2Ev.exit284

_ZNSt3__114__split_bufferIPNS_12basic_stringIcNS_11char_traitsIcEENS_9allocatorIcEEEERNS4_IS7_EEED2Ev.exit284: ; preds = %if.then.i.i270, %lpad, %ehcleanup60.loopexit.split-lp, %ehcleanup60.loopexit
  %__buf.sroa.0.4321328 = phi ptr [ %call.i.i.i.i.i, %if.then.i.i270 ], [ %call.i.i.i.i.i, %lpad ], [ %__buf.sroa.12.1340, %ehcleanup60.loopexit.split-lp ], [ %__buf.sroa.12.1340, %ehcleanup60.loopexit ]
  %.pn.pn322326 = phi { ptr, i32 } [ %69, %if.then.i.i270 ], [ %52, %lpad ], [ %lpad.loopexit.split-lp, %ehcleanup60.loopexit.split-lp ], [ %lpad.loopexit, %ehcleanup60.loopexit ]
  tail call void @_ZdlPv(ptr noundef nonnull %__buf.sroa.0.4321328) #24
  resume { ptr, i32 } %.pn.pn322326

if.end64:                                         ; preds = %if.then.i223, %_ZNSt3__110unique_ptrIPNS_12basic_stringIcNS_11char_traitsIcEENS_9allocatorIcEEEENS_22__allocator_destructorINS4_IS6_EEEEED2B7v170000Ev.exit, %_ZNSt3__114__split_bufferIPNS_12basic_stringIcNS_11char_traitsIcEENS_9allocatorIcEEEENS4_IS7_EEE9push_backB7v170000ERKS7_.exit147, %if.then15, %_ZNSt3__114__split_bufferIPNS_12basic_stringIcNS_11char_traitsIcEENS_9allocatorIcEEEENS4_IS7_EEE9push_backB7v170000ERKS7_.exit
  ret void
}

; Function Attrs: uwtable
define linkonce_odr hidden void @_ZNSt3__114__split_bufferIPNS_12basic_stringIcNS_11char_traitsIcEENS_9allocatorIcEEEENS4_IS7_EEE9push_backEOS7_(ptr noundef nonnull align 8 dereferenceable(32) %this, ptr noundef nonnull align 8 dereferenceable(8) %__x) local_unnamed_addr #3 comdat align 2 personality ptr @__gxx_personality_v0 {
entry:
  %__end_ = getelementptr inbounds %"struct.std::__1::__split_buffer", ptr %this, i64 0, i32 2
  %0 = load ptr, ptr %__end_, align 8, !tbaa !16
  %__end_cap_.i = getelementptr inbounds %"struct.std::__1::__split_buffer", ptr %this, i64 0, i32 3
  %1 = load ptr, ptr %__end_cap_.i, align 8, !tbaa !15
  %cmp = icmp eq ptr %0, %1
  br i1 %cmp, label %if.then, label %if.end38

if.then:                                          ; preds = %entry
  %__begin_ = getelementptr inbounds %"struct.std::__1::__split_buffer", ptr %this, i64 0, i32 1
  %2 = load ptr, ptr %__begin_, align 8, !tbaa !20
  %3 = load ptr, ptr %this, align 8, !tbaa !26
  %cmp2 = icmp ugt ptr %2, %3
  %sub.ptr.rhs.cast = ptrtoint ptr %3 to i64
  br i1 %cmp2, label %if.then3, label %if.else.i

if.then3:                                         ; preds = %if.then
  %sub.ptr.lhs.cast = ptrtoint ptr %2 to i64
  %sub.ptr.sub = sub i64 %sub.ptr.lhs.cast, %sub.ptr.rhs.cast
  %sub.ptr.div = ashr exact i64 %sub.ptr.sub, 3
  %add = add nsw i64 %sub.ptr.div, 1
  %div.neg = sdiv i64 %add, -2
  %add.ptr = getelementptr inbounds ptr, ptr %2, i64 %div.neg
  %sub.ptr.lhs.cast.i.i.i.i.i.i = ptrtoint ptr %0 to i64
  %sub.ptr.sub.i.i.i.i.i.i = sub i64 %sub.ptr.lhs.cast.i.i.i.i.i.i, %sub.ptr.lhs.cast
  %sub.ptr.div.i.i.i.i.i.i = ashr exact i64 %sub.ptr.sub.i.i.i.i.i.i, 3
  tail call void @llvm.memmove.p0.p0.i64(ptr nonnull align 8 %add.ptr, ptr nonnull align 8 %2, i64 %sub.ptr.sub.i.i.i.i.i.i, i1 false)
  %add.ptr.i.i.i.i.i.i = getelementptr inbounds ptr, ptr %add.ptr, i64 %sub.ptr.div.i.i.i.i.i.i
  store ptr %add.ptr.i.i.i.i.i.i, ptr %__end_, align 8, !tbaa !16
  %4 = load ptr, ptr %__begin_, align 8, !tbaa !20
  %add.ptr13 = getelementptr inbounds ptr, ptr %4, i64 %div.neg
  store ptr %add.ptr13, ptr %__begin_, align 8, !tbaa !20
  br label %if.end38

if.else.i:                                        ; preds = %if.then
  %sub.ptr.lhs.cast16 = ptrtoint ptr %0 to i64
  %sub.ptr.sub18 = sub i64 %sub.ptr.lhs.cast16, %sub.ptr.rhs.cast
  %mul = ashr exact i64 %sub.ptr.sub18, 2
  %cmp.i.i.i = icmp eq ptr %0, %3
  %.sroa.speculated = select i1 %cmp.i.i.i, i64 1, i64 %mul
  %cmp.i.i.i52 = icmp ugt i64 %.sroa.speculated, 2305843009213693951
  br i1 %cmp.i.i.i52, label %if.then.i.i.i, label %_ZNSt3__114__split_bufferIPNS_12basic_stringIcNS_11char_traitsIcEENS_9allocatorIcEEEERNS4_IS7_EEEC2EmmS9_.exit

if.then.i.i.i:                                    ; preds = %if.else.i
  tail call void @_ZSt28__throw_bad_array_new_lengthB7v170000v() #25
  unreachable

_ZNSt3__114__split_bufferIPNS_12basic_stringIcNS_11char_traitsIcEENS_9allocatorIcEEEERNS4_IS7_EEEC2EmmS9_.exit: ; preds = %if.else.i
  %div2248 = lshr i64 %.sroa.speculated, 2
  %mul.i.i.i = shl nuw i64 %.sroa.speculated, 3
  %call.i.i.i.i.i = tail call noalias noundef nonnull ptr @_Znwm(i64 noundef %mul.i.i.i) #26
  %call.i.i.i.i.i78 = ptrtoint ptr %call.i.i.i.i.i to i64
  %add.ptr.i = getelementptr ptr, ptr %call.i.i.i.i.i, i64 %div2248
  %add.ptr6.i = getelementptr inbounds ptr, ptr %call.i.i.i.i.i, i64 %.sroa.speculated
  %sub.ptr.rhs.cast.i.i.i.i = ptrtoint ptr %2 to i64
  %sub.ptr.sub.i.i.i.i = sub i64 %sub.ptr.lhs.cast16, %sub.ptr.rhs.cast.i.i.i.i
  %sub.ptr.div.i.i.i.i = ashr i64 %sub.ptr.sub.i.i.i.i, 3
  %add.ptr.i.i = getelementptr inbounds ptr, ptr %add.ptr.i, i64 %sub.ptr.div.i.i.i.i
  %cmp.not24.i = icmp eq ptr %0, %2
  br i1 %cmp.not24.i, label %_ZNSt3__114__split_bufferIPNS_12basic_stringIcNS_11char_traitsIcEENS_9allocatorIcEEEERNS4_IS7_EEE5clearB7v170000Ev.exit.i, label %for.inc.i.preheader

for.inc.i.preheader:                              ; preds = %_ZNSt3__114__split_bufferIPNS_12basic_stringIcNS_11char_traitsIcEENS_9allocatorIcEEEERNS4_IS7_EEEC2EmmS9_.exit
  %5 = add i64 %sub.ptr.sub.i.i.i.i, -8
  %6 = lshr i64 %5, 3
  %7 = add nuw nsw i64 %6, 1
  %min.iters.check = icmp ult i64 %5, 104
  br i1 %min.iters.check, label %for.inc.i.preheader85, label %vector.memcheck

vector.memcheck:                                  ; preds = %for.inc.i.preheader
  %8 = shl i64 %div2248, 3
  %9 = add i64 %8, %call.i.i.i.i.i78
  %10 = sub i64 %9, %sub.ptr.rhs.cast.i.i.i.i
  %diff.check = icmp ult i64 %10, 32
  br i1 %diff.check, label %for.inc.i.preheader85, label %vector.ph

vector.ph:                                        ; preds = %vector.memcheck
  %n.vec = and i64 %7, -4
  %11 = shl i64 %n.vec, 3
  %ind.end = getelementptr i8, ptr %add.ptr.i, i64 %11
  %12 = shl i64 %n.vec, 3
  %ind.end79 = getelementptr i8, ptr %2, i64 %12
  br label %vector.body

vector.body:                                      ; preds = %vector.body, %vector.ph
  %index = phi i64 [ 0, %vector.ph ], [ %index.next, %vector.body ]
  %13 = shl i64 %index, 3
  %next.gep = getelementptr i8, ptr %add.ptr.i, i64 %13
  %14 = shl i64 %index, 3
  %next.gep82 = getelementptr i8, ptr %2, i64 %14
  %wide.load = load <2 x ptr>, ptr %next.gep82, align 8, !tbaa !15
  %15 = getelementptr ptr, ptr %next.gep82, i64 2
  %wide.load84 = load <2 x ptr>, ptr %15, align 8, !tbaa !15
  store <2 x ptr> %wide.load, ptr %next.gep, align 8, !tbaa !15
  %16 = getelementptr ptr, ptr %next.gep, i64 2
  store <2 x ptr> %wide.load84, ptr %16, align 8, !tbaa !15
  %index.next = add nuw i64 %index, 4
  %17 = icmp eq i64 %index.next, %n.vec
  br i1 %17, label %middle.block, label %vector.body, !llvm.loop !36

middle.block:                                     ; preds = %vector.body
  %cmp.n = icmp eq i64 %7, %n.vec
  br i1 %cmp.n, label %_ZNSt3__114__split_bufferIPNS_12basic_stringIcNS_11char_traitsIcEENS_9allocatorIcEEEERNS4_IS7_EEE5clearB7v170000Ev.exit.i, label %for.inc.i.preheader85

for.inc.i.preheader85:                            ; preds = %vector.memcheck, %for.inc.i.preheader, %middle.block
  %__tx.sroa.0.026.i.ph = phi ptr [ %add.ptr.i, %vector.memcheck ], [ %add.ptr.i, %for.inc.i.preheader ], [ %ind.end, %middle.block ]
  %__first.sroa.0.025.i.ph = phi ptr [ %2, %vector.memcheck ], [ %2, %for.inc.i.preheader ], [ %ind.end79, %middle.block ]
  br label %for.inc.i

for.inc.i:                                        ; preds = %for.inc.i.preheader85, %for.inc.i
  %__tx.sroa.0.026.i = phi ptr [ %incdec.ptr.i, %for.inc.i ], [ %__tx.sroa.0.026.i.ph, %for.inc.i.preheader85 ]
  %__first.sroa.0.025.i = phi ptr [ %incdec.ptr.i.i, %for.inc.i ], [ %__first.sroa.0.025.i.ph, %for.inc.i.preheader85 ]
  %18 = load ptr, ptr %__first.sroa.0.025.i, align 8, !tbaa !15
  store ptr %18, ptr %__tx.sroa.0.026.i, align 8, !tbaa !15
  %incdec.ptr.i = getelementptr inbounds ptr, ptr %__tx.sroa.0.026.i, i64 1
  %incdec.ptr.i.i = getelementptr inbounds ptr, ptr %__first.sroa.0.025.i, i64 1
  %cmp.not.i = icmp eq ptr %incdec.ptr.i, %add.ptr.i.i
  br i1 %cmp.not.i, label %_ZNSt3__114__split_bufferIPNS_12basic_stringIcNS_11char_traitsIcEENS_9allocatorIcEEEERNS4_IS7_EEE5clearB7v170000Ev.exit.i, label %for.inc.i, !llvm.loop !37

_ZNSt3__114__split_bufferIPNS_12basic_stringIcNS_11char_traitsIcEENS_9allocatorIcEEEERNS4_IS7_EEE5clearB7v170000Ev.exit.i: ; preds = %for.inc.i, %middle.block, %_ZNSt3__114__split_bufferIPNS_12basic_stringIcNS_11char_traitsIcEENS_9allocatorIcEEEERNS4_IS7_EEEC2EmmS9_.exit
  %storemerge = phi ptr [ %add.ptr.i, %_ZNSt3__114__split_bufferIPNS_12basic_stringIcNS_11char_traitsIcEENS_9allocatorIcEEEERNS4_IS7_EEEC2EmmS9_.exit ], [ %add.ptr.i.i, %middle.block ], [ %add.ptr.i.i, %for.inc.i ]
  store ptr %call.i.i.i.i.i, ptr %this, align 8, !tbaa !15
  store ptr %add.ptr.i, ptr %__begin_, align 8, !tbaa !15
  store ptr %storemerge, ptr %__end_, align 8, !tbaa !15
  store ptr %add.ptr6.i, ptr %__end_cap_.i, align 8, !tbaa !15
  %tobool.not.i = icmp eq ptr %3, null
  br i1 %tobool.not.i, label %if.end38, label %if.then.i

if.then.i:                                        ; preds = %_ZNSt3__114__split_bufferIPNS_12basic_stringIcNS_11char_traitsIcEENS_9allocatorIcEEEERNS4_IS7_EEE5clearB7v170000Ev.exit.i
  tail call void @_ZdlPv(ptr noundef nonnull %3) #24
  %.pre = load ptr, ptr %__end_, align 8, !tbaa !16
  br label %if.end38

if.end38:                                         ; preds = %if.then.i, %_ZNSt3__114__split_bufferIPNS_12basic_stringIcNS_11char_traitsIcEENS_9allocatorIcEEEERNS4_IS7_EEE5clearB7v170000Ev.exit.i, %if.then3, %entry
  %19 = phi ptr [ %.pre, %if.then.i ], [ %storemerge, %_ZNSt3__114__split_bufferIPNS_12basic_stringIcNS_11char_traitsIcEENS_9allocatorIcEEEERNS4_IS7_EEE5clearB7v170000Ev.exit.i ], [ %add.ptr.i.i.i.i.i.i, %if.then3 ], [ %0, %entry ]
  %20 = load ptr, ptr %__x, align 8, !tbaa !15
  store ptr %20, ptr %19, align 8, !tbaa !15
  %21 = load ptr, ptr %__end_, align 8, !tbaa !16
  %incdec.ptr = getelementptr inbounds ptr, ptr %21, i64 1
  store ptr %incdec.ptr, ptr %__end_, align 8, !tbaa !16
  ret void
}

; Function Attrs: uwtable
define linkonce_odr hidden void @_ZNSt3__114__split_bufferIPNS_12basic_stringIcNS_11char_traitsIcEENS_9allocatorIcEEEENS4_IS7_EEE10push_frontEOS7_(ptr noundef nonnull align 8 dereferenceable(32) %this, ptr noundef nonnull align 8 dereferenceable(8) %__x) local_unnamed_addr #3 comdat align 2 personality ptr @__gxx_personality_v0 {
entry:
  %__begin_ = getelementptr inbounds %"struct.std::__1::__split_buffer", ptr %this, i64 0, i32 1
  %0 = load ptr, ptr %__begin_, align 8, !tbaa !20
  %1 = load ptr, ptr %this, align 8, !tbaa !26
  %cmp = icmp eq ptr %0, %1
  br i1 %cmp, label %if.then, label %if.end38

if.then:                                          ; preds = %entry
  %__end_ = getelementptr inbounds %"struct.std::__1::__split_buffer", ptr %this, i64 0, i32 2
  %2 = load ptr, ptr %__end_, align 8, !tbaa !16
  %__end_cap_.i = getelementptr inbounds %"struct.std::__1::__split_buffer", ptr %this, i64 0, i32 3
  %3 = load ptr, ptr %__end_cap_.i, align 8, !tbaa !15
  %cmp2 = icmp ult ptr %2, %3
  %sub.ptr.lhs.cast = ptrtoint ptr %3 to i64
  br i1 %cmp2, label %if.then3, label %if.else.i

if.then3:                                         ; preds = %if.then
  %sub.ptr.rhs.cast = ptrtoint ptr %2 to i64
  %sub.ptr.sub = sub i64 %sub.ptr.lhs.cast, %sub.ptr.rhs.cast
  %sub.ptr.div = ashr exact i64 %sub.ptr.sub, 3
  %add = add nsw i64 %sub.ptr.div, 1
  %div = sdiv i64 %add, 2
  %add.ptr = getelementptr inbounds ptr, ptr %2, i64 %div
  %sub.ptr.rhs.cast.i.i.i.i.i.i = ptrtoint ptr %0 to i64
  %sub.ptr.sub.i.i.i.i.i.i = sub i64 %sub.ptr.rhs.cast, %sub.ptr.rhs.cast.i.i.i.i.i.i
  %sub.ptr.div.i.i.i.i.i.i = ashr exact i64 %sub.ptr.sub.i.i.i.i.i.i, 3
  %idx.neg.i.i.i.i.i.i = sub nsw i64 0, %sub.ptr.div.i.i.i.i.i.i
  %add.ptr.i.i.i.i.i.i = getelementptr inbounds ptr, ptr %add.ptr, i64 %idx.neg.i.i.i.i.i.i
  tail call void @llvm.memmove.p0.p0.i64(ptr align 8 %add.ptr.i.i.i.i.i.i, ptr align 8 %0, i64 %sub.ptr.sub.i.i.i.i.i.i, i1 false)
  store ptr %add.ptr.i.i.i.i.i.i, ptr %__begin_, align 8, !tbaa !20
  %4 = load ptr, ptr %__end_, align 8, !tbaa !16
  %add.ptr12 = getelementptr inbounds ptr, ptr %4, i64 %div
  store ptr %add.ptr12, ptr %__end_, align 8, !tbaa !16
  br label %if.end38

if.else.i:                                        ; preds = %if.then
  %sub.ptr.rhs.cast16 = ptrtoint ptr %0 to i64
  %sub.ptr.sub17 = sub i64 %sub.ptr.lhs.cast, %sub.ptr.rhs.cast16
  %mul = ashr exact i64 %sub.ptr.sub17, 2
  %cmp.i.i.i = icmp eq ptr %3, %0
  %.sroa.speculated = select i1 %cmp.i.i.i, i64 1, i64 %mul
  %cmp.i.i.i53 = icmp ugt i64 %.sroa.speculated, 2305843009213693951
  br i1 %cmp.i.i.i53, label %if.then.i.i.i, label %_ZNSt3__114__split_bufferIPNS_12basic_stringIcNS_11char_traitsIcEENS_9allocatorIcEEEERNS4_IS7_EEEC2EmmS9_.exit

if.then.i.i.i:                                    ; preds = %if.else.i
  tail call void @_ZSt28__throw_bad_array_new_lengthB7v170000v() #25
  unreachable

_ZNSt3__114__split_bufferIPNS_12basic_stringIcNS_11char_traitsIcEENS_9allocatorIcEEEERNS4_IS7_EEEC2EmmS9_.exit: ; preds = %if.else.i
  %add21 = add nuw nsw i64 %.sroa.speculated, 3
  %div2248 = lshr i64 %add21, 2
  %mul.i.i.i = shl nuw i64 %.sroa.speculated, 3
  %call.i.i.i.i.i = tail call noalias noundef nonnull ptr @_Znwm(i64 noundef %mul.i.i.i) #26
  %call.i.i.i.i.i79 = ptrtoint ptr %call.i.i.i.i.i to i64
  %add.ptr.i = getelementptr ptr, ptr %call.i.i.i.i.i, i64 %div2248
  %add.ptr6.i = getelementptr inbounds ptr, ptr %call.i.i.i.i.i, i64 %.sroa.speculated
  %sub.ptr.lhs.cast.i.i.i.i = ptrtoint ptr %2 to i64
  %sub.ptr.sub.i.i.i.i = sub i64 %sub.ptr.lhs.cast.i.i.i.i, %sub.ptr.rhs.cast16
  %sub.ptr.div.i.i.i.i = ashr i64 %sub.ptr.sub.i.i.i.i, 3
  %add.ptr.i.i = getelementptr inbounds ptr, ptr %add.ptr.i, i64 %sub.ptr.div.i.i.i.i
  %cmp.not24.i = icmp eq ptr %2, %0
  br i1 %cmp.not24.i, label %_ZNSt3__114__split_bufferIPNS_12basic_stringIcNS_11char_traitsIcEENS_9allocatorIcEEEERNS4_IS7_EEE5clearB7v170000Ev.exit.i, label %for.inc.i.preheader

for.inc.i.preheader:                              ; preds = %_ZNSt3__114__split_bufferIPNS_12basic_stringIcNS_11char_traitsIcEENS_9allocatorIcEEEERNS4_IS7_EEEC2EmmS9_.exit
  %5 = add i64 %sub.ptr.sub.i.i.i.i, -8
  %6 = lshr i64 %5, 3
  %7 = add nuw nsw i64 %6, 1
  %min.iters.check = icmp ult i64 %5, 104
  br i1 %min.iters.check, label %for.inc.i.preheader86, label %vector.memcheck

vector.memcheck:                                  ; preds = %for.inc.i.preheader
  %8 = shl i64 %div2248, 3
  %9 = add i64 %8, %call.i.i.i.i.i79
  %10 = sub i64 %9, %sub.ptr.rhs.cast16
  %diff.check = icmp ult i64 %10, 32
  br i1 %diff.check, label %for.inc.i.preheader86, label %vector.ph

vector.ph:                                        ; preds = %vector.memcheck
  %n.vec = and i64 %7, -4
  %11 = shl i64 %n.vec, 3
  %ind.end = getelementptr i8, ptr %add.ptr.i, i64 %11
  %12 = shl i64 %n.vec, 3
  %ind.end80 = getelementptr i8, ptr %0, i64 %12
  br label %vector.body

vector.body:                                      ; preds = %vector.body, %vector.ph
  %index = phi i64 [ 0, %vector.ph ], [ %index.next, %vector.body ]
  %13 = shl i64 %index, 3
  %next.gep = getelementptr i8, ptr %add.ptr.i, i64 %13
  %14 = shl i64 %index, 3
  %next.gep83 = getelementptr i8, ptr %0, i64 %14
  %wide.load = load <2 x ptr>, ptr %next.gep83, align 8, !tbaa !15
  %15 = getelementptr ptr, ptr %next.gep83, i64 2
  %wide.load85 = load <2 x ptr>, ptr %15, align 8, !tbaa !15
  store <2 x ptr> %wide.load, ptr %next.gep, align 8, !tbaa !15
  %16 = getelementptr ptr, ptr %next.gep, i64 2
  store <2 x ptr> %wide.load85, ptr %16, align 8, !tbaa !15
  %index.next = add nuw i64 %index, 4
  %17 = icmp eq i64 %index.next, %n.vec
  br i1 %17, label %middle.block, label %vector.body, !llvm.loop !38

middle.block:                                     ; preds = %vector.body
  %cmp.n = icmp eq i64 %7, %n.vec
  br i1 %cmp.n, label %_ZNSt3__114__split_bufferIPNS_12basic_stringIcNS_11char_traitsIcEENS_9allocatorIcEEEERNS4_IS7_EEE5clearB7v170000Ev.exit.i, label %for.inc.i.preheader86

for.inc.i.preheader86:                            ; preds = %vector.memcheck, %for.inc.i.preheader, %middle.block
  %__tx.sroa.0.026.i.ph = phi ptr [ %add.ptr.i, %vector.memcheck ], [ %add.ptr.i, %for.inc.i.preheader ], [ %ind.end, %middle.block ]
  %__first.sroa.0.025.i.ph = phi ptr [ %0, %vector.memcheck ], [ %0, %for.inc.i.preheader ], [ %ind.end80, %middle.block ]
  br label %for.inc.i

for.inc.i:                                        ; preds = %for.inc.i.preheader86, %for.inc.i
  %__tx.sroa.0.026.i = phi ptr [ %incdec.ptr.i, %for.inc.i ], [ %__tx.sroa.0.026.i.ph, %for.inc.i.preheader86 ]
  %__first.sroa.0.025.i = phi ptr [ %incdec.ptr.i.i, %for.inc.i ], [ %__first.sroa.0.025.i.ph, %for.inc.i.preheader86 ]
  %18 = load ptr, ptr %__first.sroa.0.025.i, align 8, !tbaa !15
  store ptr %18, ptr %__tx.sroa.0.026.i, align 8, !tbaa !15
  %incdec.ptr.i = getelementptr inbounds ptr, ptr %__tx.sroa.0.026.i, i64 1
  %incdec.ptr.i.i = getelementptr inbounds ptr, ptr %__first.sroa.0.025.i, i64 1
  %cmp.not.i = icmp eq ptr %incdec.ptr.i, %add.ptr.i.i
  br i1 %cmp.not.i, label %_ZNSt3__114__split_bufferIPNS_12basic_stringIcNS_11char_traitsIcEENS_9allocatorIcEEEERNS4_IS7_EEE5clearB7v170000Ev.exit.i, label %for.inc.i, !llvm.loop !39

_ZNSt3__114__split_bufferIPNS_12basic_stringIcNS_11char_traitsIcEENS_9allocatorIcEEEERNS4_IS7_EEE5clearB7v170000Ev.exit.i: ; preds = %for.inc.i, %middle.block, %_ZNSt3__114__split_bufferIPNS_12basic_stringIcNS_11char_traitsIcEENS_9allocatorIcEEEERNS4_IS7_EEEC2EmmS9_.exit
  %storemerge = phi ptr [ %add.ptr.i, %_ZNSt3__114__split_bufferIPNS_12basic_stringIcNS_11char_traitsIcEENS_9allocatorIcEEEERNS4_IS7_EEEC2EmmS9_.exit ], [ %add.ptr.i.i, %middle.block ], [ %add.ptr.i.i, %for.inc.i ]
  store ptr %call.i.i.i.i.i, ptr %this, align 8, !tbaa !15
  store ptr %add.ptr.i, ptr %__begin_, align 8, !tbaa !15
  store ptr %storemerge, ptr %__end_, align 8, !tbaa !15
  store ptr %add.ptr6.i, ptr %__end_cap_.i, align 8, !tbaa !15
  %tobool.not.i = icmp eq ptr %0, null
  br i1 %tobool.not.i, label %if.end38, label %if.then.i

if.then.i:                                        ; preds = %_ZNSt3__114__split_bufferIPNS_12basic_stringIcNS_11char_traitsIcEENS_9allocatorIcEEEERNS4_IS7_EEE5clearB7v170000Ev.exit.i
  tail call void @_ZdlPv(ptr noundef nonnull %0) #24
  %.pre = load ptr, ptr %__begin_, align 8, !tbaa !20
  br label %if.end38

if.end38:                                         ; preds = %if.then.i, %_ZNSt3__114__split_bufferIPNS_12basic_stringIcNS_11char_traitsIcEENS_9allocatorIcEEEERNS4_IS7_EEE5clearB7v170000Ev.exit.i, %if.then3, %entry
  %19 = phi ptr [ %.pre, %if.then.i ], [ %add.ptr.i, %_ZNSt3__114__split_bufferIPNS_12basic_stringIcNS_11char_traitsIcEENS_9allocatorIcEEEERNS4_IS7_EEE5clearB7v170000Ev.exit.i ], [ %add.ptr.i.i.i.i.i.i, %if.then3 ], [ %0, %entry ]
  %add.ptr41 = getelementptr inbounds ptr, ptr %19, i64 -1
  %20 = load ptr, ptr %__x, align 8, !tbaa !15
  store ptr %20, ptr %add.ptr41, align 8, !tbaa !15
  %21 = load ptr, ptr %__begin_, align 8, !tbaa !20
  %incdec.ptr = getelementptr inbounds ptr, ptr %21, i64 -1
  store ptr %incdec.ptr, ptr %__begin_, align 8, !tbaa !20
  ret void
}

; Function Attrs: mustprogress nocallback nofree nounwind willreturn memory(argmem: readwrite)
declare void @llvm.memmove.p0.p0.i64(ptr nocapture writeonly, ptr nocapture readonly, i64, i1 immarg) #9

; Function Attrs: mustprogress nocallback nofree nounwind willreturn memory(argmem: readwrite)
declare void @llvm.memcpy.p0.p0.i64(ptr noalias nocapture writeonly, ptr noalias nocapture readonly, i64, i1 immarg) #9

; Function Attrs: inlinehint mustprogress noreturn uwtable
define linkonce_odr hidden void @_ZSt28__throw_bad_array_new_lengthB7v170000v() local_unnamed_addr #10 comdat {
entry:
  %exception = tail call ptr @__cxa_allocate_exception(i64 8) #23
  tail call void @_ZNSt20bad_array_new_lengthC1Ev(ptr noundef nonnull align 8 dereferenceable(8) %exception) #23
  tail call void @__cxa_throw(ptr nonnull %exception, ptr nonnull @_ZTISt20bad_array_new_length, ptr nonnull @_ZNSt20bad_array_new_lengthD1Ev) #25
  unreachable
}

declare ptr @__cxa_allocate_exception(i64) local_unnamed_addr

; Function Attrs: nounwind
declare void @_ZNSt20bad_array_new_lengthC1Ev(ptr noundef nonnull align 8 dereferenceable(8)) unnamed_addr #11

; Function Attrs: nounwind
declare void @_ZNSt20bad_array_new_lengthD1Ev(ptr noundef nonnull align 8 dereferenceable(8)) unnamed_addr #11

declare void @__cxa_throw(ptr, ptr, ptr) local_unnamed_addr

declare void @_ZNSt3__112basic_stringIcNS_11char_traitsIcEENS_9allocatorIcEEEC1ERKS5_(ptr noundef nonnull align 8 dereferenceable(24), ptr noundef nonnull align 8 dereferenceable(24)) unnamed_addr #0

declare void @_ZN9benchmark8internal9BenchmarkC2EPKc(ptr noundef nonnull align 8 dereferenceable(208), ptr noundef) unnamed_addr #0

; Function Attrs: inlinehint nounwind uwtable
define internal void @_ZN7testing8internal15TestFactoryImplIN9benchmark8internal12_GLOBAL__N_125BenchmarkTest_Match1_TestEED0Ev(ptr noundef nonnull align 8 dereferenceable(8) %this) unnamed_addr #12 align 2 {
entry:
  tail call void @_ZdlPv(ptr noundef nonnull %this) #24
  ret void
}

; Function Attrs: uwtable
define internal noundef nonnull ptr @_ZN7testing8internal15TestFactoryImplIN9benchmark8internal12_GLOBAL__N_125BenchmarkTest_Match1_TestEE10CreateTestEv(ptr nocapture nonnull readnone align 8 %this) unnamed_addr #3 align 2 personality ptr @__gxx_personality_v0 {
entry:
  %call = tail call noalias noundef nonnull dereferenceable(16) ptr @_Znwm(i64 noundef 16) #26
  invoke void @_ZN7testing4TestC2Ev(ptr noundef nonnull align 8 dereferenceable(16) %call)
          to label %invoke.cont unwind label %lpad

invoke.cont:                                      ; preds = %entry
  store ptr getelementptr inbounds ({ [8 x ptr] }, ptr @_ZTVN9benchmark8internal12_GLOBAL__N_125BenchmarkTest_Match1_TestE, i64 0, inrange i32 0, i64 2), ptr %call, align 8, !tbaa !40
  ret ptr %call

lpad:                                             ; preds = %entry
  %0 = landingpad { ptr, i32 }
          cleanup
  tail call void @_ZdlPv(ptr noundef nonnull %call) #24
  resume { ptr, i32 } %0
}

; Function Attrs: nounwind
declare void @_ZN7testing4TestD2Ev(ptr noundef nonnull align 8 dereferenceable(16)) unnamed_addr #11

; Function Attrs: nounwind uwtable
define internal void @_ZN9benchmark8internal12_GLOBAL__N_125BenchmarkTest_Match1_TestD0Ev(ptr noundef nonnull align 8 dereferenceable(16) %this) unnamed_addr #13 align 2 {
entry:
  tail call void @_ZN7testing4TestD2Ev(ptr noundef nonnull align 8 dereferenceable(16) %this) #23
  tail call void @_ZdlPv(ptr noundef nonnull %this) #24
  ret void
}

declare void @_ZN7testing4Test5SetUpEv(ptr noundef nonnull align 8 dereferenceable(16)) unnamed_addr #0

declare void @_ZN7testing4Test8TearDownEv(ptr noundef nonnull align 8 dereferenceable(16)) unnamed_addr #0

; Function Attrs: uwtable
define internal void @_ZN9benchmark8internal12_GLOBAL__N_125BenchmarkTest_Match1_Test8TestBodyEv(ptr nocapture nonnull readnone align 8 %this) unnamed_addr #3 align 2 personality ptr @__gxx_personality_v0 {
entry:
  %ref.tmp = alloca %"class.std::__1::basic_string", align 8
  %gtest_ar = alloca %"class.testing::AssertionResult", align 8
  %ref.tmp2 = alloca %"class.std::__1::basic_string", align 8
  %ref.tmp7 = alloca %"class.testing::Message", align 8
  %ref.tmp10 = alloca %"class.testing::internal::AssertHelper", align 8
  %gtest_ar22 = alloca %"class.testing::AssertionResult", align 8
  %ref.tmp23 = alloca %"class.std::__1::basic_string", align 8
  %ref.tmp33 = alloca %"class.testing::Message", align 8
  %ref.tmp36 = alloca %"class.testing::internal::AssertHelper", align 8
  %gtest_ar54 = alloca %"class.testing::AssertionResult", align 8
  %ref.tmp55 = alloca %"class.std::__1::basic_string", align 8
  %ref.tmp65 = alloca %"class.testing::Message", align 8
  %ref.tmp68 = alloca %"class.testing::internal::AssertHelper", align 8
  %gtest_ar86 = alloca %"class.testing::AssertionResult", align 8
  %ref.tmp87 = alloca %"class.std::__1::basic_string", align 8
  %ref.tmp97 = alloca %"class.testing::Message", align 8
  %ref.tmp100 = alloca %"class.testing::internal::AssertHelper", align 8
  %gtest_ar118 = alloca %"class.testing::AssertionResult", align 8
  %ref.tmp119 = alloca %"class.std::__1::basic_string", align 8
  %ref.tmp129 = alloca %"class.testing::Message", align 8
  %ref.tmp132 = alloca %"class.testing::internal::AssertHelper", align 8
  %gtest_ar150 = alloca %"class.testing::AssertionResult", align 8
  %ref.tmp151 = alloca %"class.std::__1::basic_string", align 8
  %ref.tmp161 = alloca %"class.testing::Message", align 8
  %ref.tmp164 = alloca %"class.testing::internal::AssertHelper", align 8
  %gtest_ar182 = alloca %"class.testing::AssertionResult", align 8
  %ref.tmp183 = alloca %"class.std::__1::basic_string", align 8
  %ref.tmp193 = alloca %"class.testing::Message", align 8
  %ref.tmp196 = alloca %"class.testing::internal::AssertHelper", align 8
  %gtest_ar214 = alloca %"class.testing::AssertionResult", align 8
  %ref.tmp215 = alloca %"class.std::__1::basic_string", align 8
  %ref.tmp225 = alloca %"class.testing::Message", align 8
  %ref.tmp228 = alloca %"class.testing::internal::AssertHelper", align 8
  %gtest_ar246 = alloca %"class.testing::AssertionResult", align 8
  %ref.tmp247 = alloca %"class.std::__1::basic_string", align 8
  %ref.tmp257 = alloca %"class.testing::Message", align 8
  %ref.tmp260 = alloca %"class.testing::internal::AssertHelper", align 8
  call void @llvm.lifetime.start.p0(i64 24, ptr nonnull %ref.tmp) #23
  store i8 18, ptr %ref.tmp, align 8
  %__data_.i.i.i = getelementptr inbounds %"struct.std::__1::basic_string<char>::__short", ptr %ref.tmp, i64 0, i32 2
  %cmp.i24.i.i = icmp ugt ptr %__data_.i.i.i, @.str
  %add.ptr.i.i.i = getelementptr inbounds %"struct.std::__1::basic_string<char>::__short", ptr %ref.tmp, i64 0, i32 2, i64 9
  %cmp1.i.i.i = icmp ule ptr %add.ptr.i.i.i, @.str
  %0 = or i1 %cmp.i24.i.i, %cmp1.i.i.i
  call void @llvm.assume(i1 %0)
  call void @llvm.memcpy.p0.p0.i64(ptr noundef nonnull align 1 dereferenceable(9) %__data_.i.i.i, ptr noundef nonnull align 1 dereferenceable(9) @.str, i64 9, i1 false)
  store i8 0, ptr %add.ptr.i.i.i, align 2, !tbaa !25
  invoke fastcc void @_ZN9benchmark8internal12_GLOBAL__N_113BenchmarkTest7ExecuteERKNSt3__112basic_stringIcNS3_11char_traitsIcEENS3_9allocatorIcEEEE(ptr noundef nonnull align 8 dereferenceable(24) %ref.tmp)
          to label %invoke.cont unwind label %lpad

invoke.cont:                                      ; preds = %entry
  %bf.load.i.i = load i8, ptr %ref.tmp, align 8
  %bf.clear.i.i = and i8 %bf.load.i.i, 1
  %tobool.i.not.i = icmp eq i8 %bf.clear.i.i, 0
  br i1 %tobool.i.not.i, label %_ZNSt3__112basic_stringIcNS_11char_traitsIcEENS_9allocatorIcEEED2Ev.exit, label %if.then.i

if.then.i:                                        ; preds = %invoke.cont
  %__data_.i.i = getelementptr inbounds %"struct.std::__1::basic_string<char>::__long", ptr %ref.tmp, i64 0, i32 2
  %1 = load ptr, ptr %__data_.i.i, align 8, !tbaa !25
  call void @_ZdlPv(ptr noundef %1) #24
  br label %_ZNSt3__112basic_stringIcNS_11char_traitsIcEENS_9allocatorIcEEED2Ev.exit

_ZNSt3__112basic_stringIcNS_11char_traitsIcEENS_9allocatorIcEEED2Ev.exit: ; preds = %invoke.cont, %if.then.i
  call void @llvm.lifetime.end.p0(i64 24, ptr nonnull %ref.tmp) #23
  call void @llvm.lifetime.start.p0(i64 16, ptr nonnull %gtest_ar) #23
  call void @llvm.lifetime.start.p0(i64 24, ptr nonnull %ref.tmp2) #23
  %2 = load ptr, ptr @_ZN9benchmark8internal12_GLOBAL__N_15queueE, align 8, !tbaa !15
  %__begin_.i.i.i.i = getelementptr inbounds %"struct.std::__1::__split_buffer", ptr %2, i64 0, i32 1
  %3 = load ptr, ptr %__begin_.i.i.i.i, align 8, !tbaa !20, !noalias !42
  %__start_.i.i.i = getelementptr inbounds %"class.std::__1::deque", ptr %2, i64 0, i32 1
  %4 = load i64, ptr %__start_.i.i.i, align 8, !tbaa !21, !noalias !42
  %div.i.i.i = udiv i64 %4, 170
  %add.ptr.i.i.i329 = getelementptr inbounds ptr, ptr %3, i64 %div.i.i.i
  %5 = load ptr, ptr %add.ptr.i.i.i329, align 8, !tbaa !15, !noalias !42
  %rem.i.i.i = urem i64 %4, 170
  %add.ptr3.i.i.i = getelementptr inbounds %"class.std::__1::basic_string", ptr %5, i64 %rem.i.i.i
  call void @_ZNSt3__112basic_stringIcNS_11char_traitsIcEENS_9allocatorIcEEEC1ERKS5_(ptr noundef nonnull align 8 dereferenceable(24) %ref.tmp2, ptr noundef nonnull align 8 dereferenceable(24) %add.ptr3.i.i.i)
  %6 = load ptr, ptr %__begin_.i.i.i.i, align 8, !tbaa !20, !noalias !42
  %7 = load i64, ptr %__start_.i.i.i, align 8, !tbaa !21, !noalias !42
  %div.i.i5.i = udiv i64 %7, 170
  %add.ptr.i.i6.i = getelementptr inbounds ptr, ptr %6, i64 %div.i.i5.i
  %8 = load ptr, ptr %add.ptr.i.i6.i, align 8, !tbaa !15
  %rem.i.i7.i = urem i64 %7, 170
  %add.ptr4.i.i.i = getelementptr inbounds %"class.std::__1::basic_string", ptr %8, i64 %rem.i.i7.i
  %bf.load.i.i.i.i.i.i.i = load i8, ptr %add.ptr4.i.i.i, align 8
  %bf.clear.i.i.i.i.i.i.i = and i8 %bf.load.i.i.i.i.i.i.i, 1
  %tobool.i.not.i.i.i.i.i.i = icmp eq i8 %bf.clear.i.i.i.i.i.i.i, 0
  br i1 %tobool.i.not.i.i.i.i.i.i, label %_ZNSt3__116allocator_traitsINS_9allocatorINS_12basic_stringIcNS_11char_traitsIcEENS1_IcEEEEEEE7destroyB7v170000IS6_vEEvRS7_PT_.exit.i.i.i, label %if.then.i.i.i.i.i.i

if.then.i.i.i.i.i.i:                              ; preds = %_ZNSt3__112basic_stringIcNS_11char_traitsIcEENS_9allocatorIcEEED2Ev.exit
  %__data_.i.i.i.i.i.i.i = getelementptr inbounds %"struct.std::__1::basic_string<char>::__long", ptr %add.ptr4.i.i.i, i64 0, i32 2
  %9 = load ptr, ptr %__data_.i.i.i.i.i.i.i, align 8, !tbaa !25
  call void @_ZdlPv(ptr noundef %9) #24
  %.pre.i.i.i = load i64, ptr %__start_.i.i.i, align 8, !tbaa !21, !noalias !42
  br label %_ZNSt3__116allocator_traitsINS_9allocatorINS_12basic_stringIcNS_11char_traitsIcEENS1_IcEEEEEEE7destroyB7v170000IS6_vEEvRS7_PT_.exit.i.i.i

_ZNSt3__116allocator_traitsINS_9allocatorINS_12basic_stringIcNS_11char_traitsIcEENS1_IcEEEEEEE7destroyB7v170000IS6_vEEvRS7_PT_.exit.i.i.i: ; preds = %if.then.i.i.i.i.i.i, %_ZNSt3__112basic_stringIcNS_11char_traitsIcEENS_9allocatorIcEEED2Ev.exit
  %10 = phi i64 [ %7, %_ZNSt3__112basic_stringIcNS_11char_traitsIcEENS_9allocatorIcEEED2Ev.exit ], [ %.pre.i.i.i, %if.then.i.i.i.i.i.i ]
  %__size_.i9.i.i.i = getelementptr inbounds %"class.std::__1::deque", ptr %2, i64 0, i32 2
  %11 = load i64, ptr %__size_.i9.i.i.i, align 8, !tbaa !13, !noalias !42
  %dec.i.i.i = add i64 %11, -1
  store i64 %dec.i.i.i, ptr %__size_.i9.i.i.i, align 8, !tbaa !13, !noalias !42
  %inc.i.i.i = add i64 %10, 1
  store i64 %inc.i.i.i, ptr %__start_.i.i.i, align 8, !tbaa !21, !noalias !42
  %or.cond10.i.i.i.i = icmp ugt i64 %inc.i.i.i, 339
  br i1 %or.cond10.i.i.i.i, label %if.then.i.i.i.i, label %_ZN9benchmark8internal12_GLOBAL__N_110EventQueue3GetEv.exit

if.then.i.i.i.i:                                  ; preds = %_ZNSt3__116allocator_traitsINS_9allocatorINS_12basic_stringIcNS_11char_traitsIcEENS1_IcEEEEEEE7destroyB7v170000IS6_vEEvRS7_PT_.exit.i.i.i
  %12 = load ptr, ptr %__begin_.i.i.i.i, align 8, !tbaa !20, !noalias !42
  %13 = load ptr, ptr %12, align 8, !tbaa !15
  call void @_ZdlPv(ptr noundef %13) #24
  %14 = load ptr, ptr %__begin_.i.i.i.i, align 8, !tbaa !20, !noalias !42
  %add.ptr.i.i.i.i.i = getelementptr inbounds ptr, ptr %14, i64 1
  store ptr %add.ptr.i.i.i.i.i, ptr %__begin_.i.i.i.i, align 8, !tbaa !20, !noalias !42
  %15 = load i64, ptr %__start_.i.i.i, align 8, !tbaa !21, !noalias !42
  %sub.i.i.i.i = add i64 %15, -170
  store i64 %sub.i.i.i.i, ptr %__start_.i.i.i, align 8, !tbaa !21, !noalias !42
  br label %_ZN9benchmark8internal12_GLOBAL__N_110EventQueue3GetEv.exit

_ZN9benchmark8internal12_GLOBAL__N_110EventQueue3GetEv.exit: ; preds = %_ZNSt3__116allocator_traitsINS_9allocatorINS_12basic_stringIcNS_11char_traitsIcEENS1_IcEEEEEEE7destroyB7v170000IS6_vEEvRS7_PT_.exit.i.i.i, %if.then.i.i.i.i
  invoke void @_ZN7testing8internal11CmpHelperEQIA12_cNSt3__112basic_stringIcNS3_11char_traitsIcEENS3_9allocatorIcEEEEEENS_15AssertionResultEPKcSC_RKT_RKT0_(ptr nonnull sret(%"class.testing::AssertionResult") align 8 %gtest_ar, ptr noundef nonnull @.str.15, ptr noundef nonnull @.str.16, ptr noundef nonnull align 1 dereferenceable(12) @.str.17, ptr noundef nonnull align 8 dereferenceable(24) %ref.tmp2)
          to label %invoke.cont4 unwind label %lpad3

invoke.cont4:                                     ; preds = %_ZN9benchmark8internal12_GLOBAL__N_110EventQueue3GetEv.exit
  %bf.load.i.i330 = load i8, ptr %ref.tmp2, align 8
  %bf.clear.i.i331 = and i8 %bf.load.i.i330, 1
  %tobool.i.not.i332 = icmp eq i8 %bf.clear.i.i331, 0
  br i1 %tobool.i.not.i332, label %_ZNSt3__112basic_stringIcNS_11char_traitsIcEENS_9allocatorIcEEED2Ev.exit335, label %if.then.i334

if.then.i334:                                     ; preds = %invoke.cont4
  %__data_.i.i333 = getelementptr inbounds %"struct.std::__1::basic_string<char>::__long", ptr %ref.tmp2, i64 0, i32 2
  %16 = load ptr, ptr %__data_.i.i333, align 8, !tbaa !25
  call void @_ZdlPv(ptr noundef %16) #24
  br label %_ZNSt3__112basic_stringIcNS_11char_traitsIcEENS_9allocatorIcEEED2Ev.exit335

_ZNSt3__112basic_stringIcNS_11char_traitsIcEENS_9allocatorIcEEED2Ev.exit335: ; preds = %invoke.cont4, %if.then.i334
  call void @llvm.lifetime.end.p0(i64 24, ptr nonnull %ref.tmp2) #23
  %17 = load i8, ptr %gtest_ar, align 8, !tbaa !45, !range !51, !noundef !52
  %tobool.i.not = icmp eq i8 %17, 0
  br i1 %tobool.i.not, label %if.else, label %cleanup

lpad:                                             ; preds = %entry
  %18 = landingpad { ptr, i32 }
          cleanup
  %bf.load.i.i336 = load i8, ptr %ref.tmp, align 8
  %bf.clear.i.i337 = and i8 %bf.load.i.i336, 1
  %tobool.i.not.i338 = icmp eq i8 %bf.clear.i.i337, 0
  br i1 %tobool.i.not.i338, label %_ZNSt3__112basic_stringIcNS_11char_traitsIcEENS_9allocatorIcEEED2Ev.exit341, label %if.then.i340

if.then.i340:                                     ; preds = %lpad
  %__data_.i.i339 = getelementptr inbounds %"struct.std::__1::basic_string<char>::__long", ptr %ref.tmp, i64 0, i32 2
  %19 = load ptr, ptr %__data_.i.i339, align 8, !tbaa !25
  call void @_ZdlPv(ptr noundef %19) #24
  br label %_ZNSt3__112basic_stringIcNS_11char_traitsIcEENS_9allocatorIcEEED2Ev.exit341

_ZNSt3__112basic_stringIcNS_11char_traitsIcEENS_9allocatorIcEEED2Ev.exit341: ; preds = %lpad, %if.then.i340
  call void @llvm.lifetime.end.p0(i64 24, ptr nonnull %ref.tmp) #23
  br label %eh.resume

lpad3:                                            ; preds = %_ZN9benchmark8internal12_GLOBAL__N_110EventQueue3GetEv.exit
  %20 = landingpad { ptr, i32 }
          cleanup
  %bf.load.i.i342 = load i8, ptr %ref.tmp2, align 8
  %bf.clear.i.i343 = and i8 %bf.load.i.i342, 1
  %tobool.i.not.i344 = icmp eq i8 %bf.clear.i.i343, 0
  br i1 %tobool.i.not.i344, label %_ZNSt3__112basic_stringIcNS_11char_traitsIcEENS_9allocatorIcEEED2Ev.exit347, label %if.then.i346

if.then.i346:                                     ; preds = %lpad3
  %__data_.i.i345 = getelementptr inbounds %"struct.std::__1::basic_string<char>::__long", ptr %ref.tmp2, i64 0, i32 2
  %21 = load ptr, ptr %__data_.i.i345, align 8, !tbaa !25
  call void @_ZdlPv(ptr noundef %21) #24
  br label %_ZNSt3__112basic_stringIcNS_11char_traitsIcEENS_9allocatorIcEEED2Ev.exit347

_ZNSt3__112basic_stringIcNS_11char_traitsIcEENS_9allocatorIcEEED2Ev.exit347: ; preds = %lpad3, %if.then.i346
  call void @llvm.lifetime.end.p0(i64 24, ptr nonnull %ref.tmp2) #23
  br label %ehcleanup21

if.else:                                          ; preds = %_ZNSt3__112basic_stringIcNS_11char_traitsIcEENS_9allocatorIcEEED2Ev.exit335
  call void @llvm.lifetime.start.p0(i64 8, ptr nonnull %ref.tmp7) #23
  invoke void @_ZN7testing7MessageC1Ev(ptr noundef nonnull align 8 dereferenceable(8) %ref.tmp7)
          to label %invoke.cont9 unwind label %lpad8

invoke.cont9:                                     ; preds = %if.else
  call void @llvm.lifetime.start.p0(i64 8, ptr nonnull %ref.tmp10) #23
  %message_.i.i = getelementptr inbounds %"class.testing::AssertionResult", ptr %gtest_ar, i64 0, i32 1
  %22 = load ptr, ptr %message_.i.i, align 8, !tbaa !15
  %cmp.not.i.i = icmp eq ptr %22, null
  br i1 %cmp.not.i.i, label %invoke.cont12, label %cond.true.i.i

cond.true.i.i:                                    ; preds = %invoke.cont9
  %bf.load.i.i.i.i.i.i = load i8, ptr %22, align 8
  %bf.clear.i.i.i.i.i.i = and i8 %bf.load.i.i.i.i.i.i, 1
  %tobool.i.not.i.i.i.i.i = icmp eq i8 %bf.clear.i.i.i.i.i.i, 0
  %__data_.i.i.i.i.i.i = getelementptr inbounds %"struct.std::__1::basic_string<char>::__long", ptr %22, i64 0, i32 2
  %23 = load ptr, ptr %__data_.i.i.i.i.i.i, align 8
  %__data_.i4.i.i.i.i.i = getelementptr inbounds %"struct.std::__1::basic_string<char>::__short", ptr %22, i64 0, i32 2
  %cond.i.i.i.i.i = select i1 %tobool.i.not.i.i.i.i.i, ptr %__data_.i4.i.i.i.i.i, ptr %23
  br label %invoke.cont12

invoke.cont12:                                    ; preds = %cond.true.i.i, %invoke.cont9
  %cond.i.i = phi ptr [ %cond.i.i.i.i.i, %cond.true.i.i ], [ @.str.36, %invoke.cont9 ]
  invoke void @_ZN7testing8internal12AssertHelperC1ENS_14TestPartResult4TypeEPKciS5_(ptr noundef nonnull align 8 dereferenceable(8) %ref.tmp10, i32 noundef 2, ptr noundef nonnull @.str.6, i32 noundef 80, ptr noundef %cond.i.i)
          to label %invoke.cont14 unwind label %lpad11

invoke.cont14:                                    ; preds = %invoke.cont12
  invoke void @_ZNK7testing8internal12AssertHelperaSERKNS_7MessageE(ptr noundef nonnull align 8 dereferenceable(8) %ref.tmp10, ptr noundef nonnull align 8 dereferenceable(8) %ref.tmp7)
          to label %invoke.cont16 unwind label %lpad15

invoke.cont16:                                    ; preds = %invoke.cont14
  call void @_ZN7testing8internal12AssertHelperD1Ev(ptr noundef nonnull align 8 dereferenceable(8) %ref.tmp10) #23
  call void @llvm.lifetime.end.p0(i64 8, ptr nonnull %ref.tmp10) #23
  %24 = load ptr, ptr %ref.tmp7, align 8, !tbaa !15
  store ptr null, ptr %ref.tmp7, align 8, !tbaa !15
  %tobool.not.i.i.i = icmp eq ptr %24, null
  br i1 %tobool.not.i.i.i, label %_ZN7testing7MessageD2Ev.exit, label %_ZNKSt3__114default_deleteINS_18basic_stringstreamIcNS_11char_traitsIcEENS_9allocatorIcEEEEEclB7v170000EPS6_.exit.i.i.i

_ZNKSt3__114default_deleteINS_18basic_stringstreamIcNS_11char_traitsIcEENS_9allocatorIcEEEEEclB7v170000EPS6_.exit.i.i.i: ; preds = %invoke.cont16
  %vtable.i.i.i.i = load ptr, ptr %24, align 8, !tbaa !40
  %vfn.i.i.i.i = getelementptr inbounds ptr, ptr %vtable.i.i.i.i, i64 1
  %25 = load ptr, ptr %vfn.i.i.i.i, align 8
  call void %25(ptr noundef nonnull align 8 dereferenceable(128) %24) #23
  br label %_ZN7testing7MessageD2Ev.exit

_ZN7testing7MessageD2Ev.exit:                     ; preds = %invoke.cont16, %_ZNKSt3__114default_deleteINS_18basic_stringstreamIcNS_11char_traitsIcEENS_9allocatorIcEEEEEclB7v170000EPS6_.exit.i.i.i
  call void @llvm.lifetime.end.p0(i64 8, ptr nonnull %ref.tmp7) #23
  br label %cleanup

lpad8:                                            ; preds = %if.else
  %26 = landingpad { ptr, i32 }
          cleanup
  br label %ehcleanup18

lpad11:                                           ; preds = %invoke.cont12
  %27 = landingpad { ptr, i32 }
          cleanup
  br label %ehcleanup

lpad15:                                           ; preds = %invoke.cont14
  %28 = landingpad { ptr, i32 }
          cleanup
  call void @_ZN7testing8internal12AssertHelperD1Ev(ptr noundef nonnull align 8 dereferenceable(8) %ref.tmp10) #23
  br label %ehcleanup

ehcleanup:                                        ; preds = %lpad15, %lpad11
  %.pn = phi { ptr, i32 } [ %28, %lpad15 ], [ %27, %lpad11 ]
  call void @llvm.lifetime.end.p0(i64 8, ptr nonnull %ref.tmp10) #23
  %29 = load ptr, ptr %ref.tmp7, align 8, !tbaa !15
  store ptr null, ptr %ref.tmp7, align 8, !tbaa !15
  %tobool.not.i.i.i348 = icmp eq ptr %29, null
  br i1 %tobool.not.i.i.i348, label %ehcleanup18, label %_ZNKSt3__114default_deleteINS_18basic_stringstreamIcNS_11char_traitsIcEENS_9allocatorIcEEEEEclB7v170000EPS6_.exit.i.i.i351

_ZNKSt3__114default_deleteINS_18basic_stringstreamIcNS_11char_traitsIcEENS_9allocatorIcEEEEEclB7v170000EPS6_.exit.i.i.i351: ; preds = %ehcleanup
  %vtable.i.i.i.i349 = load ptr, ptr %29, align 8, !tbaa !40
  %vfn.i.i.i.i350 = getelementptr inbounds ptr, ptr %vtable.i.i.i.i349, i64 1
  %30 = load ptr, ptr %vfn.i.i.i.i350, align 8
  call void %30(ptr noundef nonnull align 8 dereferenceable(128) %29) #23
  br label %ehcleanup18

ehcleanup18:                                      ; preds = %_ZNKSt3__114default_deleteINS_18basic_stringstreamIcNS_11char_traitsIcEENS_9allocatorIcEEEEEclB7v170000EPS6_.exit.i.i.i351, %ehcleanup, %lpad8
  %.pn.pn = phi { ptr, i32 } [ %26, %lpad8 ], [ %.pn, %ehcleanup ], [ %.pn, %_ZNKSt3__114default_deleteINS_18basic_stringstreamIcNS_11char_traitsIcEENS_9allocatorIcEEEEEclB7v170000EPS6_.exit.i.i.i351 ]
  call void @llvm.lifetime.end.p0(i64 8, ptr nonnull %ref.tmp7) #23
  call void @_ZN7testing15AssertionResultD2Ev(ptr noundef nonnull align 8 dereferenceable(16) %gtest_ar) #23
  br label %ehcleanup21

cleanup:                                          ; preds = %_ZNSt3__112basic_stringIcNS_11char_traitsIcEENS_9allocatorIcEEED2Ev.exit335, %_ZN7testing7MessageD2Ev.exit
  %message_.i = getelementptr inbounds %"class.testing::AssertionResult", ptr %gtest_ar, i64 0, i32 1
  %31 = load ptr, ptr %message_.i, align 8, !tbaa !15
  store ptr null, ptr %message_.i, align 8, !tbaa !15
  %tobool.not.i.i.i353 = icmp eq ptr %31, null
  br i1 %tobool.not.i.i.i353, label %_ZN7testing15AssertionResultD2Ev.exit, label %delete.notnull.i.i.i.i

delete.notnull.i.i.i.i:                           ; preds = %cleanup
  %bf.load.i.i.i.i.i.i354 = load i8, ptr %31, align 8
  %bf.clear.i.i.i.i.i.i355 = and i8 %bf.load.i.i.i.i.i.i354, 1
  %tobool.i.not.i.i.i.i.i356 = icmp eq i8 %bf.clear.i.i.i.i.i.i355, 0
  br i1 %tobool.i.not.i.i.i.i.i356, label %_ZNKSt3__114default_deleteINS_12basic_stringIcNS_11char_traitsIcEENS_9allocatorIcEEEEEclB7v170000EPS6_.exit.i.i.i, label %if.then.i.i.i.i.i

if.then.i.i.i.i.i:                                ; preds = %delete.notnull.i.i.i.i
  %__data_.i.i.i.i.i.i357 = getelementptr inbounds %"struct.std::__1::basic_string<char>::__long", ptr %31, i64 0, i32 2
  %32 = load ptr, ptr %__data_.i.i.i.i.i.i357, align 8, !tbaa !25
  call void @_ZdlPv(ptr noundef %32) #24
  br label %_ZNKSt3__114default_deleteINS_12basic_stringIcNS_11char_traitsIcEENS_9allocatorIcEEEEEclB7v170000EPS6_.exit.i.i.i

_ZNKSt3__114default_deleteINS_12basic_stringIcNS_11char_traitsIcEENS_9allocatorIcEEEEEclB7v170000EPS6_.exit.i.i.i: ; preds = %if.then.i.i.i.i.i, %delete.notnull.i.i.i.i
  call void @_ZdlPv(ptr noundef nonnull %31) #24
  br label %_ZN7testing15AssertionResultD2Ev.exit

_ZN7testing15AssertionResultD2Ev.exit:            ; preds = %cleanup, %_ZNKSt3__114default_deleteINS_12basic_stringIcNS_11char_traitsIcEENS_9allocatorIcEEEEEclB7v170000EPS6_.exit.i.i.i
  call void @llvm.lifetime.end.p0(i64 16, ptr nonnull %gtest_ar) #23
  br i1 %tobool.i.not, label %cleanup.cont276, label %cleanup.cont

cleanup.cont:                                     ; preds = %_ZN7testing15AssertionResultD2Ev.exit
  call void @llvm.lifetime.start.p0(i64 16, ptr nonnull %gtest_ar22) #23
  call void @llvm.lifetime.start.p0(i64 24, ptr nonnull %ref.tmp23) #23
  %33 = load ptr, ptr @_ZN9benchmark8internal12_GLOBAL__N_15queueE, align 8, !tbaa !15
  %__begin_.i.i.i.i358 = getelementptr inbounds %"struct.std::__1::__split_buffer", ptr %33, i64 0, i32 1
  %34 = load ptr, ptr %__begin_.i.i.i.i358, align 8, !tbaa !20, !noalias !53
  %__start_.i.i.i359 = getelementptr inbounds %"class.std::__1::deque", ptr %33, i64 0, i32 1
  %35 = load i64, ptr %__start_.i.i.i359, align 8, !tbaa !21, !noalias !53
  %div.i.i.i360 = udiv i64 %35, 170
  %add.ptr.i.i.i361 = getelementptr inbounds ptr, ptr %34, i64 %div.i.i.i360
  %36 = load ptr, ptr %add.ptr.i.i.i361, align 8, !tbaa !15, !noalias !53
  %rem.i.i.i362 = urem i64 %35, 170
  %add.ptr3.i.i.i363 = getelementptr inbounds %"class.std::__1::basic_string", ptr %36, i64 %rem.i.i.i362
  call void @_ZNSt3__112basic_stringIcNS_11char_traitsIcEENS_9allocatorIcEEEC1ERKS5_(ptr noundef nonnull align 8 dereferenceable(24) %ref.tmp23, ptr noundef nonnull align 8 dereferenceable(24) %add.ptr3.i.i.i363)
  %37 = load ptr, ptr %__begin_.i.i.i.i358, align 8, !tbaa !20, !noalias !53
  %38 = load i64, ptr %__start_.i.i.i359, align 8, !tbaa !21, !noalias !53
  %div.i.i5.i364 = udiv i64 %38, 170
  %add.ptr.i.i6.i365 = getelementptr inbounds ptr, ptr %37, i64 %div.i.i5.i364
  %39 = load ptr, ptr %add.ptr.i.i6.i365, align 8, !tbaa !15
  %rem.i.i7.i366 = urem i64 %38, 170
  %add.ptr4.i.i.i367 = getelementptr inbounds %"class.std::__1::basic_string", ptr %39, i64 %rem.i.i7.i366
  %bf.load.i.i.i.i.i.i.i368 = load i8, ptr %add.ptr4.i.i.i367, align 8
  %bf.clear.i.i.i.i.i.i.i369 = and i8 %bf.load.i.i.i.i.i.i.i368, 1
  %tobool.i.not.i.i.i.i.i.i370 = icmp eq i8 %bf.clear.i.i.i.i.i.i.i369, 0
  br i1 %tobool.i.not.i.i.i.i.i.i370, label %_ZNSt3__116allocator_traitsINS_9allocatorINS_12basic_stringIcNS_11char_traitsIcEENS1_IcEEEEEEE7destroyB7v170000IS6_vEEvRS7_PT_.exit.i.i.i378, label %if.then.i.i.i.i.i.i373

if.then.i.i.i.i.i.i373:                           ; preds = %cleanup.cont
  %__data_.i.i.i.i.i.i.i371 = getelementptr inbounds %"struct.std::__1::basic_string<char>::__long", ptr %add.ptr4.i.i.i367, i64 0, i32 2
  %40 = load ptr, ptr %__data_.i.i.i.i.i.i.i371, align 8, !tbaa !25
  call void @_ZdlPv(ptr noundef %40) #24
  %.pre.i.i.i372 = load i64, ptr %__start_.i.i.i359, align 8, !tbaa !21, !noalias !53
  br label %_ZNSt3__116allocator_traitsINS_9allocatorINS_12basic_stringIcNS_11char_traitsIcEENS1_IcEEEEEEE7destroyB7v170000IS6_vEEvRS7_PT_.exit.i.i.i378

_ZNSt3__116allocator_traitsINS_9allocatorINS_12basic_stringIcNS_11char_traitsIcEENS1_IcEEEEEEE7destroyB7v170000IS6_vEEvRS7_PT_.exit.i.i.i378: ; preds = %if.then.i.i.i.i.i.i373, %cleanup.cont
  %41 = phi i64 [ %38, %cleanup.cont ], [ %.pre.i.i.i372, %if.then.i.i.i.i.i.i373 ]
  %__size_.i9.i.i.i374 = getelementptr inbounds %"class.std::__1::deque", ptr %33, i64 0, i32 2
  %42 = load i64, ptr %__size_.i9.i.i.i374, align 8, !tbaa !13, !noalias !53
  %dec.i.i.i375 = add i64 %42, -1
  store i64 %dec.i.i.i375, ptr %__size_.i9.i.i.i374, align 8, !tbaa !13, !noalias !53
  %inc.i.i.i376 = add i64 %41, 1
  store i64 %inc.i.i.i376, ptr %__start_.i.i.i359, align 8, !tbaa !21, !noalias !53
  %or.cond10.i.i.i.i377 = icmp ugt i64 %inc.i.i.i376, 339
  br i1 %or.cond10.i.i.i.i377, label %if.then.i.i.i.i381, label %_ZN9benchmark8internal12_GLOBAL__N_110EventQueue3GetEv.exit382

if.then.i.i.i.i381:                               ; preds = %_ZNSt3__116allocator_traitsINS_9allocatorINS_12basic_stringIcNS_11char_traitsIcEENS1_IcEEEEEEE7destroyB7v170000IS6_vEEvRS7_PT_.exit.i.i.i378
  %43 = load ptr, ptr %__begin_.i.i.i.i358, align 8, !tbaa !20, !noalias !53
  %44 = load ptr, ptr %43, align 8, !tbaa !15
  call void @_ZdlPv(ptr noundef %44) #24
  %45 = load ptr, ptr %__begin_.i.i.i.i358, align 8, !tbaa !20, !noalias !53
  %add.ptr.i.i.i.i.i379 = getelementptr inbounds ptr, ptr %45, i64 1
  store ptr %add.ptr.i.i.i.i.i379, ptr %__begin_.i.i.i.i358, align 8, !tbaa !20, !noalias !53
  %46 = load i64, ptr %__start_.i.i.i359, align 8, !tbaa !21, !noalias !53
  %sub.i.i.i.i380 = add i64 %46, -170
  store i64 %sub.i.i.i.i380, ptr %__start_.i.i.i359, align 8, !tbaa !21, !noalias !53
  br label %_ZN9benchmark8internal12_GLOBAL__N_110EventQueue3GetEv.exit382

_ZN9benchmark8internal12_GLOBAL__N_110EventQueue3GetEv.exit382: ; preds = %_ZNSt3__116allocator_traitsINS_9allocatorINS_12basic_stringIcNS_11char_traitsIcEENS1_IcEEEEEEE7destroyB7v170000IS6_vEEvRS7_PT_.exit.i.i.i378, %if.then.i.i.i.i381
  invoke void @_ZN7testing8internal11CmpHelperEQIA12_cNSt3__112basic_stringIcNS3_11char_traitsIcEENS3_9allocatorIcEEEEEENS_15AssertionResultEPKcSC_RKT_RKT0_(ptr nonnull sret(%"class.testing::AssertionResult") align 8 %gtest_ar22, ptr noundef nonnull @.str.18, ptr noundef nonnull @.str.16, ptr noundef nonnull align 1 dereferenceable(12) @.str.19, ptr noundef nonnull align 8 dereferenceable(24) %ref.tmp23)
          to label %invoke.cont25 unwind label %lpad24

invoke.cont25:                                    ; preds = %_ZN9benchmark8internal12_GLOBAL__N_110EventQueue3GetEv.exit382
  %bf.load.i.i384 = load i8, ptr %ref.tmp23, align 8
  %bf.clear.i.i385 = and i8 %bf.load.i.i384, 1
  %tobool.i.not.i386 = icmp eq i8 %bf.clear.i.i385, 0
  br i1 %tobool.i.not.i386, label %_ZNSt3__112basic_stringIcNS_11char_traitsIcEENS_9allocatorIcEEED2Ev.exit389, label %if.then.i388

if.then.i388:                                     ; preds = %invoke.cont25
  %__data_.i.i387 = getelementptr inbounds %"struct.std::__1::basic_string<char>::__long", ptr %ref.tmp23, i64 0, i32 2
  %47 = load ptr, ptr %__data_.i.i387, align 8, !tbaa !25
  call void @_ZdlPv(ptr noundef %47) #24
  br label %_ZNSt3__112basic_stringIcNS_11char_traitsIcEENS_9allocatorIcEEED2Ev.exit389

_ZNSt3__112basic_stringIcNS_11char_traitsIcEENS_9allocatorIcEEED2Ev.exit389: ; preds = %invoke.cont25, %if.then.i388
  call void @llvm.lifetime.end.p0(i64 24, ptr nonnull %ref.tmp23) #23
  %48 = load i8, ptr %gtest_ar22, align 8, !tbaa !45, !range !51, !noundef !52
  %tobool.i390.not = icmp eq i8 %48, 0
  br i1 %tobool.i390.not, label %if.else32, label %cleanup48

ehcleanup21:                                      ; preds = %ehcleanup18, %_ZNSt3__112basic_stringIcNS_11char_traitsIcEENS_9allocatorIcEEED2Ev.exit347
  %.pn.pn.pn = phi { ptr, i32 } [ %.pn.pn, %ehcleanup18 ], [ %20, %_ZNSt3__112basic_stringIcNS_11char_traitsIcEENS_9allocatorIcEEED2Ev.exit347 ]
  call void @llvm.lifetime.end.p0(i64 16, ptr nonnull %gtest_ar) #23
  br label %eh.resume

lpad24:                                           ; preds = %_ZN9benchmark8internal12_GLOBAL__N_110EventQueue3GetEv.exit382
  %49 = landingpad { ptr, i32 }
          cleanup
  %bf.load.i.i391 = load i8, ptr %ref.tmp23, align 8
  %bf.clear.i.i392 = and i8 %bf.load.i.i391, 1
  %tobool.i.not.i393 = icmp eq i8 %bf.clear.i.i392, 0
  br i1 %tobool.i.not.i393, label %_ZNSt3__112basic_stringIcNS_11char_traitsIcEENS_9allocatorIcEEED2Ev.exit396, label %if.then.i395

if.then.i395:                                     ; preds = %lpad24
  %__data_.i.i394 = getelementptr inbounds %"struct.std::__1::basic_string<char>::__long", ptr %ref.tmp23, i64 0, i32 2
  %50 = load ptr, ptr %__data_.i.i394, align 8, !tbaa !25
  call void @_ZdlPv(ptr noundef %50) #24
  br label %_ZNSt3__112basic_stringIcNS_11char_traitsIcEENS_9allocatorIcEEED2Ev.exit396

_ZNSt3__112basic_stringIcNS_11char_traitsIcEENS_9allocatorIcEEED2Ev.exit396: ; preds = %lpad24, %if.then.i395
  call void @llvm.lifetime.end.p0(i64 24, ptr nonnull %ref.tmp23) #23
  br label %ehcleanup53

if.else32:                                        ; preds = %_ZNSt3__112basic_stringIcNS_11char_traitsIcEENS_9allocatorIcEEED2Ev.exit389
  call void @llvm.lifetime.start.p0(i64 8, ptr nonnull %ref.tmp33) #23
  invoke void @_ZN7testing7MessageC1Ev(ptr noundef nonnull align 8 dereferenceable(8) %ref.tmp33)
          to label %invoke.cont35 unwind label %lpad34

invoke.cont35:                                    ; preds = %if.else32
  call void @llvm.lifetime.start.p0(i64 8, ptr nonnull %ref.tmp36) #23
  %message_.i.i397 = getelementptr inbounds %"class.testing::AssertionResult", ptr %gtest_ar22, i64 0, i32 1
  %51 = load ptr, ptr %message_.i.i397, align 8, !tbaa !15
  %cmp.not.i.i398 = icmp eq ptr %51, null
  br i1 %cmp.not.i.i398, label %invoke.cont38, label %cond.true.i.i405

cond.true.i.i405:                                 ; preds = %invoke.cont35
  %bf.load.i.i.i.i.i.i399 = load i8, ptr %51, align 8
  %bf.clear.i.i.i.i.i.i400 = and i8 %bf.load.i.i.i.i.i.i399, 1
  %tobool.i.not.i.i.i.i.i401 = icmp eq i8 %bf.clear.i.i.i.i.i.i400, 0
  %__data_.i.i.i.i.i.i402 = getelementptr inbounds %"struct.std::__1::basic_string<char>::__long", ptr %51, i64 0, i32 2
  %52 = load ptr, ptr %__data_.i.i.i.i.i.i402, align 8
  %__data_.i4.i.i.i.i.i403 = getelementptr inbounds %"struct.std::__1::basic_string<char>::__short", ptr %51, i64 0, i32 2
  %cond.i.i.i.i.i404 = select i1 %tobool.i.not.i.i.i.i.i401, ptr %__data_.i4.i.i.i.i.i403, ptr %52
  br label %invoke.cont38

invoke.cont38:                                    ; preds = %cond.true.i.i405, %invoke.cont35
  %cond.i.i406 = phi ptr [ %cond.i.i.i.i.i404, %cond.true.i.i405 ], [ @.str.36, %invoke.cont35 ]
  invoke void @_ZN7testing8internal12AssertHelperC1ENS_14TestPartResult4TypeEPKciS5_(ptr noundef nonnull align 8 dereferenceable(8) %ref.tmp36, i32 noundef 2, ptr noundef nonnull @.str.6, i32 noundef 81, ptr noundef %cond.i.i406)
          to label %invoke.cont40 unwind label %lpad37

invoke.cont40:                                    ; preds = %invoke.cont38
  invoke void @_ZNK7testing8internal12AssertHelperaSERKNS_7MessageE(ptr noundef nonnull align 8 dereferenceable(8) %ref.tmp36, ptr noundef nonnull align 8 dereferenceable(8) %ref.tmp33)
          to label %invoke.cont42 unwind label %lpad41

invoke.cont42:                                    ; preds = %invoke.cont40
  call void @_ZN7testing8internal12AssertHelperD1Ev(ptr noundef nonnull align 8 dereferenceable(8) %ref.tmp36) #23
  call void @llvm.lifetime.end.p0(i64 8, ptr nonnull %ref.tmp36) #23
  %53 = load ptr, ptr %ref.tmp33, align 8, !tbaa !15
  store ptr null, ptr %ref.tmp33, align 8, !tbaa !15
  %tobool.not.i.i.i408 = icmp eq ptr %53, null
  br i1 %tobool.not.i.i.i408, label %_ZN7testing7MessageD2Ev.exit412, label %_ZNKSt3__114default_deleteINS_18basic_stringstreamIcNS_11char_traitsIcEENS_9allocatorIcEEEEEclB7v170000EPS6_.exit.i.i.i411

_ZNKSt3__114default_deleteINS_18basic_stringstreamIcNS_11char_traitsIcEENS_9allocatorIcEEEEEclB7v170000EPS6_.exit.i.i.i411: ; preds = %invoke.cont42
  %vtable.i.i.i.i409 = load ptr, ptr %53, align 8, !tbaa !40
  %vfn.i.i.i.i410 = getelementptr inbounds ptr, ptr %vtable.i.i.i.i409, i64 1
  %54 = load ptr, ptr %vfn.i.i.i.i410, align 8
  call void %54(ptr noundef nonnull align 8 dereferenceable(128) %53) #23
  br label %_ZN7testing7MessageD2Ev.exit412

_ZN7testing7MessageD2Ev.exit412:                  ; preds = %invoke.cont42, %_ZNKSt3__114default_deleteINS_18basic_stringstreamIcNS_11char_traitsIcEENS_9allocatorIcEEEEEclB7v170000EPS6_.exit.i.i.i411
  call void @llvm.lifetime.end.p0(i64 8, ptr nonnull %ref.tmp33) #23
  br label %cleanup48

lpad34:                                           ; preds = %if.else32
  %55 = landingpad { ptr, i32 }
          cleanup
  br label %ehcleanup46

lpad37:                                           ; preds = %invoke.cont38
  %56 = landingpad { ptr, i32 }
          cleanup
  br label %ehcleanup44

lpad41:                                           ; preds = %invoke.cont40
  %57 = landingpad { ptr, i32 }
          cleanup
  call void @_ZN7testing8internal12AssertHelperD1Ev(ptr noundef nonnull align 8 dereferenceable(8) %ref.tmp36) #23
  br label %ehcleanup44

ehcleanup44:                                      ; preds = %lpad41, %lpad37
  %.pn289 = phi { ptr, i32 } [ %57, %lpad41 ], [ %56, %lpad37 ]
  call void @llvm.lifetime.end.p0(i64 8, ptr nonnull %ref.tmp36) #23
  %58 = load ptr, ptr %ref.tmp33, align 8, !tbaa !15
  store ptr null, ptr %ref.tmp33, align 8, !tbaa !15
  %tobool.not.i.i.i413 = icmp eq ptr %58, null
  br i1 %tobool.not.i.i.i413, label %ehcleanup46, label %_ZNKSt3__114default_deleteINS_18basic_stringstreamIcNS_11char_traitsIcEENS_9allocatorIcEEEEEclB7v170000EPS6_.exit.i.i.i416

_ZNKSt3__114default_deleteINS_18basic_stringstreamIcNS_11char_traitsIcEENS_9allocatorIcEEEEEclB7v170000EPS6_.exit.i.i.i416: ; preds = %ehcleanup44
  %vtable.i.i.i.i414 = load ptr, ptr %58, align 8, !tbaa !40
  %vfn.i.i.i.i415 = getelementptr inbounds ptr, ptr %vtable.i.i.i.i414, i64 1
  %59 = load ptr, ptr %vfn.i.i.i.i415, align 8
  call void %59(ptr noundef nonnull align 8 dereferenceable(128) %58) #23
  br label %ehcleanup46

ehcleanup46:                                      ; preds = %_ZNKSt3__114default_deleteINS_18basic_stringstreamIcNS_11char_traitsIcEENS_9allocatorIcEEEEEclB7v170000EPS6_.exit.i.i.i416, %ehcleanup44, %lpad34
  %.pn289.pn = phi { ptr, i32 } [ %55, %lpad34 ], [ %.pn289, %ehcleanup44 ], [ %.pn289, %_ZNKSt3__114default_deleteINS_18basic_stringstreamIcNS_11char_traitsIcEENS_9allocatorIcEEEEEclB7v170000EPS6_.exit.i.i.i416 ]
  call void @llvm.lifetime.end.p0(i64 8, ptr nonnull %ref.tmp33) #23
  call void @_ZN7testing15AssertionResultD2Ev(ptr noundef nonnull align 8 dereferenceable(16) %gtest_ar22) #23
  br label %ehcleanup53

cleanup48:                                        ; preds = %_ZNSt3__112basic_stringIcNS_11char_traitsIcEENS_9allocatorIcEEED2Ev.exit389, %_ZN7testing7MessageD2Ev.exit412
  %message_.i418 = getelementptr inbounds %"class.testing::AssertionResult", ptr %gtest_ar22, i64 0, i32 1
  %60 = load ptr, ptr %message_.i418, align 8, !tbaa !15
  store ptr null, ptr %message_.i418, align 8, !tbaa !15
  %tobool.not.i.i.i419 = icmp eq ptr %60, null
  br i1 %tobool.not.i.i.i419, label %_ZN7testing15AssertionResultD2Ev.exit427, label %delete.notnull.i.i.i.i423

delete.notnull.i.i.i.i423:                        ; preds = %cleanup48
  %bf.load.i.i.i.i.i.i420 = load i8, ptr %60, align 8
  %bf.clear.i.i.i.i.i.i421 = and i8 %bf.load.i.i.i.i.i.i420, 1
  %tobool.i.not.i.i.i.i.i422 = icmp eq i8 %bf.clear.i.i.i.i.i.i421, 0
  br i1 %tobool.i.not.i.i.i.i.i422, label %_ZNKSt3__114default_deleteINS_12basic_stringIcNS_11char_traitsIcEENS_9allocatorIcEEEEEclB7v170000EPS6_.exit.i.i.i426, label %if.then.i.i.i.i.i425

if.then.i.i.i.i.i425:                             ; preds = %delete.notnull.i.i.i.i423
  %__data_.i.i.i.i.i.i424 = getelementptr inbounds %"struct.std::__1::basic_string<char>::__long", ptr %60, i64 0, i32 2
  %61 = load ptr, ptr %__data_.i.i.i.i.i.i424, align 8, !tbaa !25
  call void @_ZdlPv(ptr noundef %61) #24
  br label %_ZNKSt3__114default_deleteINS_12basic_stringIcNS_11char_traitsIcEENS_9allocatorIcEEEEEclB7v170000EPS6_.exit.i.i.i426

_ZNKSt3__114default_deleteINS_12basic_stringIcNS_11char_traitsIcEENS_9allocatorIcEEEEEclB7v170000EPS6_.exit.i.i.i426: ; preds = %if.then.i.i.i.i.i425, %delete.notnull.i.i.i.i423
  call void @_ZdlPv(ptr noundef nonnull %60) #24
  br label %_ZN7testing15AssertionResultD2Ev.exit427

_ZN7testing15AssertionResultD2Ev.exit427:         ; preds = %cleanup48, %_ZNKSt3__114default_deleteINS_12basic_stringIcNS_11char_traitsIcEENS_9allocatorIcEEEEEclB7v170000EPS6_.exit.i.i.i426
  call void @llvm.lifetime.end.p0(i64 16, ptr nonnull %gtest_ar22) #23
  br i1 %tobool.i390.not, label %cleanup.cont276, label %cleanup.cont52

cleanup.cont52:                                   ; preds = %_ZN7testing15AssertionResultD2Ev.exit427
  call void @llvm.lifetime.start.p0(i64 16, ptr nonnull %gtest_ar54) #23
  call void @llvm.lifetime.start.p0(i64 24, ptr nonnull %ref.tmp55) #23
  %62 = load ptr, ptr @_ZN9benchmark8internal12_GLOBAL__N_15queueE, align 8, !tbaa !15
  %__begin_.i.i.i.i428 = getelementptr inbounds %"struct.std::__1::__split_buffer", ptr %62, i64 0, i32 1
  %63 = load ptr, ptr %__begin_.i.i.i.i428, align 8, !tbaa !20, !noalias !56
  %__start_.i.i.i429 = getelementptr inbounds %"class.std::__1::deque", ptr %62, i64 0, i32 1
  %64 = load i64, ptr %__start_.i.i.i429, align 8, !tbaa !21, !noalias !56
  %div.i.i.i430 = udiv i64 %64, 170
  %add.ptr.i.i.i431 = getelementptr inbounds ptr, ptr %63, i64 %div.i.i.i430
  %65 = load ptr, ptr %add.ptr.i.i.i431, align 8, !tbaa !15, !noalias !56
  %rem.i.i.i432 = urem i64 %64, 170
  %add.ptr3.i.i.i433 = getelementptr inbounds %"class.std::__1::basic_string", ptr %65, i64 %rem.i.i.i432
  call void @_ZNSt3__112basic_stringIcNS_11char_traitsIcEENS_9allocatorIcEEEC1ERKS5_(ptr noundef nonnull align 8 dereferenceable(24) %ref.tmp55, ptr noundef nonnull align 8 dereferenceable(24) %add.ptr3.i.i.i433)
  %66 = load ptr, ptr %__begin_.i.i.i.i428, align 8, !tbaa !20, !noalias !56
  %67 = load i64, ptr %__start_.i.i.i429, align 8, !tbaa !21, !noalias !56
  %div.i.i5.i434 = udiv i64 %67, 170
  %add.ptr.i.i6.i435 = getelementptr inbounds ptr, ptr %66, i64 %div.i.i5.i434
  %68 = load ptr, ptr %add.ptr.i.i6.i435, align 8, !tbaa !15
  %rem.i.i7.i436 = urem i64 %67, 170
  %add.ptr4.i.i.i437 = getelementptr inbounds %"class.std::__1::basic_string", ptr %68, i64 %rem.i.i7.i436
  %bf.load.i.i.i.i.i.i.i438 = load i8, ptr %add.ptr4.i.i.i437, align 8
  %bf.clear.i.i.i.i.i.i.i439 = and i8 %bf.load.i.i.i.i.i.i.i438, 1
  %tobool.i.not.i.i.i.i.i.i440 = icmp eq i8 %bf.clear.i.i.i.i.i.i.i439, 0
  br i1 %tobool.i.not.i.i.i.i.i.i440, label %_ZNSt3__116allocator_traitsINS_9allocatorINS_12basic_stringIcNS_11char_traitsIcEENS1_IcEEEEEEE7destroyB7v170000IS6_vEEvRS7_PT_.exit.i.i.i448, label %if.then.i.i.i.i.i.i443

if.then.i.i.i.i.i.i443:                           ; preds = %cleanup.cont52
  %__data_.i.i.i.i.i.i.i441 = getelementptr inbounds %"struct.std::__1::basic_string<char>::__long", ptr %add.ptr4.i.i.i437, i64 0, i32 2
  %69 = load ptr, ptr %__data_.i.i.i.i.i.i.i441, align 8, !tbaa !25
  call void @_ZdlPv(ptr noundef %69) #24
  %.pre.i.i.i442 = load i64, ptr %__start_.i.i.i429, align 8, !tbaa !21, !noalias !56
  br label %_ZNSt3__116allocator_traitsINS_9allocatorINS_12basic_stringIcNS_11char_traitsIcEENS1_IcEEEEEEE7destroyB7v170000IS6_vEEvRS7_PT_.exit.i.i.i448

_ZNSt3__116allocator_traitsINS_9allocatorINS_12basic_stringIcNS_11char_traitsIcEENS1_IcEEEEEEE7destroyB7v170000IS6_vEEvRS7_PT_.exit.i.i.i448: ; preds = %if.then.i.i.i.i.i.i443, %cleanup.cont52
  %70 = phi i64 [ %67, %cleanup.cont52 ], [ %.pre.i.i.i442, %if.then.i.i.i.i.i.i443 ]
  %__size_.i9.i.i.i444 = getelementptr inbounds %"class.std::__1::deque", ptr %62, i64 0, i32 2
  %71 = load i64, ptr %__size_.i9.i.i.i444, align 8, !tbaa !13, !noalias !56
  %dec.i.i.i445 = add i64 %71, -1
  store i64 %dec.i.i.i445, ptr %__size_.i9.i.i.i444, align 8, !tbaa !13, !noalias !56
  %inc.i.i.i446 = add i64 %70, 1
  store i64 %inc.i.i.i446, ptr %__start_.i.i.i429, align 8, !tbaa !21, !noalias !56
  %or.cond10.i.i.i.i447 = icmp ugt i64 %inc.i.i.i446, 339
  br i1 %or.cond10.i.i.i.i447, label %if.then.i.i.i.i451, label %_ZN9benchmark8internal12_GLOBAL__N_110EventQueue3GetEv.exit452

if.then.i.i.i.i451:                               ; preds = %_ZNSt3__116allocator_traitsINS_9allocatorINS_12basic_stringIcNS_11char_traitsIcEENS1_IcEEEEEEE7destroyB7v170000IS6_vEEvRS7_PT_.exit.i.i.i448
  %72 = load ptr, ptr %__begin_.i.i.i.i428, align 8, !tbaa !20, !noalias !56
  %73 = load ptr, ptr %72, align 8, !tbaa !15
  call void @_ZdlPv(ptr noundef %73) #24
  %74 = load ptr, ptr %__begin_.i.i.i.i428, align 8, !tbaa !20, !noalias !56
  %add.ptr.i.i.i.i.i449 = getelementptr inbounds ptr, ptr %74, i64 1
  store ptr %add.ptr.i.i.i.i.i449, ptr %__begin_.i.i.i.i428, align 8, !tbaa !20, !noalias !56
  %75 = load i64, ptr %__start_.i.i.i429, align 8, !tbaa !21, !noalias !56
  %sub.i.i.i.i450 = add i64 %75, -170
  store i64 %sub.i.i.i.i450, ptr %__start_.i.i.i429, align 8, !tbaa !21, !noalias !56
  br label %_ZN9benchmark8internal12_GLOBAL__N_110EventQueue3GetEv.exit452

_ZN9benchmark8internal12_GLOBAL__N_110EventQueue3GetEv.exit452: ; preds = %_ZNSt3__116allocator_traitsINS_9allocatorINS_12basic_stringIcNS_11char_traitsIcEENS1_IcEEEEEEE7destroyB7v170000IS6_vEEvRS7_PT_.exit.i.i.i448, %if.then.i.i.i.i451
  invoke void @_ZN7testing8internal11CmpHelperEQIA12_cNSt3__112basic_stringIcNS3_11char_traitsIcEENS3_9allocatorIcEEEEEENS_15AssertionResultEPKcSC_RKT_RKT0_(ptr nonnull sret(%"class.testing::AssertionResult") align 8 %gtest_ar54, ptr noundef nonnull @.str.20, ptr noundef nonnull @.str.16, ptr noundef nonnull align 1 dereferenceable(12) @.str.21, ptr noundef nonnull align 8 dereferenceable(24) %ref.tmp55)
          to label %invoke.cont57 unwind label %lpad56

invoke.cont57:                                    ; preds = %_ZN9benchmark8internal12_GLOBAL__N_110EventQueue3GetEv.exit452
  %bf.load.i.i454 = load i8, ptr %ref.tmp55, align 8
  %bf.clear.i.i455 = and i8 %bf.load.i.i454, 1
  %tobool.i.not.i456 = icmp eq i8 %bf.clear.i.i455, 0
  br i1 %tobool.i.not.i456, label %_ZNSt3__112basic_stringIcNS_11char_traitsIcEENS_9allocatorIcEEED2Ev.exit459, label %if.then.i458

if.then.i458:                                     ; preds = %invoke.cont57
  %__data_.i.i457 = getelementptr inbounds %"struct.std::__1::basic_string<char>::__long", ptr %ref.tmp55, i64 0, i32 2
  %76 = load ptr, ptr %__data_.i.i457, align 8, !tbaa !25
  call void @_ZdlPv(ptr noundef %76) #24
  br label %_ZNSt3__112basic_stringIcNS_11char_traitsIcEENS_9allocatorIcEEED2Ev.exit459

_ZNSt3__112basic_stringIcNS_11char_traitsIcEENS_9allocatorIcEEED2Ev.exit459: ; preds = %invoke.cont57, %if.then.i458
  call void @llvm.lifetime.end.p0(i64 24, ptr nonnull %ref.tmp55) #23
  %77 = load i8, ptr %gtest_ar54, align 8, !tbaa !45, !range !51, !noundef !52
  %tobool.i460.not = icmp eq i8 %77, 0
  br i1 %tobool.i460.not, label %if.else64, label %cleanup80

ehcleanup53:                                      ; preds = %ehcleanup46, %_ZNSt3__112basic_stringIcNS_11char_traitsIcEENS_9allocatorIcEEED2Ev.exit396
  %.pn289.pn.pn = phi { ptr, i32 } [ %.pn289.pn, %ehcleanup46 ], [ %49, %_ZNSt3__112basic_stringIcNS_11char_traitsIcEENS_9allocatorIcEEED2Ev.exit396 ]
  call void @llvm.lifetime.end.p0(i64 16, ptr nonnull %gtest_ar22) #23
  br label %eh.resume

lpad56:                                           ; preds = %_ZN9benchmark8internal12_GLOBAL__N_110EventQueue3GetEv.exit452
  %78 = landingpad { ptr, i32 }
          cleanup
  %bf.load.i.i461 = load i8, ptr %ref.tmp55, align 8
  %bf.clear.i.i462 = and i8 %bf.load.i.i461, 1
  %tobool.i.not.i463 = icmp eq i8 %bf.clear.i.i462, 0
  br i1 %tobool.i.not.i463, label %_ZNSt3__112basic_stringIcNS_11char_traitsIcEENS_9allocatorIcEEED2Ev.exit466, label %if.then.i465

if.then.i465:                                     ; preds = %lpad56
  %__data_.i.i464 = getelementptr inbounds %"struct.std::__1::basic_string<char>::__long", ptr %ref.tmp55, i64 0, i32 2
  %79 = load ptr, ptr %__data_.i.i464, align 8, !tbaa !25
  call void @_ZdlPv(ptr noundef %79) #24
  br label %_ZNSt3__112basic_stringIcNS_11char_traitsIcEENS_9allocatorIcEEED2Ev.exit466

_ZNSt3__112basic_stringIcNS_11char_traitsIcEENS_9allocatorIcEEED2Ev.exit466: ; preds = %lpad56, %if.then.i465
  call void @llvm.lifetime.end.p0(i64 24, ptr nonnull %ref.tmp55) #23
  br label %ehcleanup85

if.else64:                                        ; preds = %_ZNSt3__112basic_stringIcNS_11char_traitsIcEENS_9allocatorIcEEED2Ev.exit459
  call void @llvm.lifetime.start.p0(i64 8, ptr nonnull %ref.tmp65) #23
  invoke void @_ZN7testing7MessageC1Ev(ptr noundef nonnull align 8 dereferenceable(8) %ref.tmp65)
          to label %invoke.cont67 unwind label %lpad66

invoke.cont67:                                    ; preds = %if.else64
  call void @llvm.lifetime.start.p0(i64 8, ptr nonnull %ref.tmp68) #23
  %message_.i.i467 = getelementptr inbounds %"class.testing::AssertionResult", ptr %gtest_ar54, i64 0, i32 1
  %80 = load ptr, ptr %message_.i.i467, align 8, !tbaa !15
  %cmp.not.i.i468 = icmp eq ptr %80, null
  br i1 %cmp.not.i.i468, label %invoke.cont70, label %cond.true.i.i475

cond.true.i.i475:                                 ; preds = %invoke.cont67
  %bf.load.i.i.i.i.i.i469 = load i8, ptr %80, align 8
  %bf.clear.i.i.i.i.i.i470 = and i8 %bf.load.i.i.i.i.i.i469, 1
  %tobool.i.not.i.i.i.i.i471 = icmp eq i8 %bf.clear.i.i.i.i.i.i470, 0
  %__data_.i.i.i.i.i.i472 = getelementptr inbounds %"struct.std::__1::basic_string<char>::__long", ptr %80, i64 0, i32 2
  %81 = load ptr, ptr %__data_.i.i.i.i.i.i472, align 8
  %__data_.i4.i.i.i.i.i473 = getelementptr inbounds %"struct.std::__1::basic_string<char>::__short", ptr %80, i64 0, i32 2
  %cond.i.i.i.i.i474 = select i1 %tobool.i.not.i.i.i.i.i471, ptr %__data_.i4.i.i.i.i.i473, ptr %81
  br label %invoke.cont70

invoke.cont70:                                    ; preds = %cond.true.i.i475, %invoke.cont67
  %cond.i.i476 = phi ptr [ %cond.i.i.i.i.i474, %cond.true.i.i475 ], [ @.str.36, %invoke.cont67 ]
  invoke void @_ZN7testing8internal12AssertHelperC1ENS_14TestPartResult4TypeEPKciS5_(ptr noundef nonnull align 8 dereferenceable(8) %ref.tmp68, i32 noundef 2, ptr noundef nonnull @.str.6, i32 noundef 82, ptr noundef %cond.i.i476)
          to label %invoke.cont72 unwind label %lpad69

invoke.cont72:                                    ; preds = %invoke.cont70
  invoke void @_ZNK7testing8internal12AssertHelperaSERKNS_7MessageE(ptr noundef nonnull align 8 dereferenceable(8) %ref.tmp68, ptr noundef nonnull align 8 dereferenceable(8) %ref.tmp65)
          to label %invoke.cont74 unwind label %lpad73

invoke.cont74:                                    ; preds = %invoke.cont72
  call void @_ZN7testing8internal12AssertHelperD1Ev(ptr noundef nonnull align 8 dereferenceable(8) %ref.tmp68) #23
  call void @llvm.lifetime.end.p0(i64 8, ptr nonnull %ref.tmp68) #23
  %82 = load ptr, ptr %ref.tmp65, align 8, !tbaa !15
  store ptr null, ptr %ref.tmp65, align 8, !tbaa !15
  %tobool.not.i.i.i478 = icmp eq ptr %82, null
  br i1 %tobool.not.i.i.i478, label %_ZN7testing7MessageD2Ev.exit482, label %_ZNKSt3__114default_deleteINS_18basic_stringstreamIcNS_11char_traitsIcEENS_9allocatorIcEEEEEclB7v170000EPS6_.exit.i.i.i481

_ZNKSt3__114default_deleteINS_18basic_stringstreamIcNS_11char_traitsIcEENS_9allocatorIcEEEEEclB7v170000EPS6_.exit.i.i.i481: ; preds = %invoke.cont74
  %vtable.i.i.i.i479 = load ptr, ptr %82, align 8, !tbaa !40
  %vfn.i.i.i.i480 = getelementptr inbounds ptr, ptr %vtable.i.i.i.i479, i64 1
  %83 = load ptr, ptr %vfn.i.i.i.i480, align 8
  call void %83(ptr noundef nonnull align 8 dereferenceable(128) %82) #23
  br label %_ZN7testing7MessageD2Ev.exit482

_ZN7testing7MessageD2Ev.exit482:                  ; preds = %invoke.cont74, %_ZNKSt3__114default_deleteINS_18basic_stringstreamIcNS_11char_traitsIcEENS_9allocatorIcEEEEEclB7v170000EPS6_.exit.i.i.i481
  call void @llvm.lifetime.end.p0(i64 8, ptr nonnull %ref.tmp65) #23
  br label %cleanup80

lpad66:                                           ; preds = %if.else64
  %84 = landingpad { ptr, i32 }
          cleanup
  br label %ehcleanup78

lpad69:                                           ; preds = %invoke.cont70
  %85 = landingpad { ptr, i32 }
          cleanup
  br label %ehcleanup76

lpad73:                                           ; preds = %invoke.cont72
  %86 = landingpad { ptr, i32 }
          cleanup
  call void @_ZN7testing8internal12AssertHelperD1Ev(ptr noundef nonnull align 8 dereferenceable(8) %ref.tmp68) #23
  br label %ehcleanup76

ehcleanup76:                                      ; preds = %lpad73, %lpad69
  %.pn293 = phi { ptr, i32 } [ %86, %lpad73 ], [ %85, %lpad69 ]
  call void @llvm.lifetime.end.p0(i64 8, ptr nonnull %ref.tmp68) #23
  %87 = load ptr, ptr %ref.tmp65, align 8, !tbaa !15
  store ptr null, ptr %ref.tmp65, align 8, !tbaa !15
  %tobool.not.i.i.i483 = icmp eq ptr %87, null
  br i1 %tobool.not.i.i.i483, label %ehcleanup78, label %_ZNKSt3__114default_deleteINS_18basic_stringstreamIcNS_11char_traitsIcEENS_9allocatorIcEEEEEclB7v170000EPS6_.exit.i.i.i486

_ZNKSt3__114default_deleteINS_18basic_stringstreamIcNS_11char_traitsIcEENS_9allocatorIcEEEEEclB7v170000EPS6_.exit.i.i.i486: ; preds = %ehcleanup76
  %vtable.i.i.i.i484 = load ptr, ptr %87, align 8, !tbaa !40
  %vfn.i.i.i.i485 = getelementptr inbounds ptr, ptr %vtable.i.i.i.i484, i64 1
  %88 = load ptr, ptr %vfn.i.i.i.i485, align 8
  call void %88(ptr noundef nonnull align 8 dereferenceable(128) %87) #23
  br label %ehcleanup78

ehcleanup78:                                      ; preds = %_ZNKSt3__114default_deleteINS_18basic_stringstreamIcNS_11char_traitsIcEENS_9allocatorIcEEEEEclB7v170000EPS6_.exit.i.i.i486, %ehcleanup76, %lpad66
  %.pn293.pn = phi { ptr, i32 } [ %84, %lpad66 ], [ %.pn293, %ehcleanup76 ], [ %.pn293, %_ZNKSt3__114default_deleteINS_18basic_stringstreamIcNS_11char_traitsIcEENS_9allocatorIcEEEEEclB7v170000EPS6_.exit.i.i.i486 ]
  call void @llvm.lifetime.end.p0(i64 8, ptr nonnull %ref.tmp65) #23
  call void @_ZN7testing15AssertionResultD2Ev(ptr noundef nonnull align 8 dereferenceable(16) %gtest_ar54) #23
  br label %ehcleanup85

cleanup80:                                        ; preds = %_ZNSt3__112basic_stringIcNS_11char_traitsIcEENS_9allocatorIcEEED2Ev.exit459, %_ZN7testing7MessageD2Ev.exit482
  %message_.i488 = getelementptr inbounds %"class.testing::AssertionResult", ptr %gtest_ar54, i64 0, i32 1
  %89 = load ptr, ptr %message_.i488, align 8, !tbaa !15
  store ptr null, ptr %message_.i488, align 8, !tbaa !15
  %tobool.not.i.i.i489 = icmp eq ptr %89, null
  br i1 %tobool.not.i.i.i489, label %_ZN7testing15AssertionResultD2Ev.exit497, label %delete.notnull.i.i.i.i493

delete.notnull.i.i.i.i493:                        ; preds = %cleanup80
  %bf.load.i.i.i.i.i.i490 = load i8, ptr %89, align 8
  %bf.clear.i.i.i.i.i.i491 = and i8 %bf.load.i.i.i.i.i.i490, 1
  %tobool.i.not.i.i.i.i.i492 = icmp eq i8 %bf.clear.i.i.i.i.i.i491, 0
  br i1 %tobool.i.not.i.i.i.i.i492, label %_ZNKSt3__114default_deleteINS_12basic_stringIcNS_11char_traitsIcEENS_9allocatorIcEEEEEclB7v170000EPS6_.exit.i.i.i496, label %if.then.i.i.i.i.i495

if.then.i.i.i.i.i495:                             ; preds = %delete.notnull.i.i.i.i493
  %__data_.i.i.i.i.i.i494 = getelementptr inbounds %"struct.std::__1::basic_string<char>::__long", ptr %89, i64 0, i32 2
  %90 = load ptr, ptr %__data_.i.i.i.i.i.i494, align 8, !tbaa !25
  call void @_ZdlPv(ptr noundef %90) #24
  br label %_ZNKSt3__114default_deleteINS_12basic_stringIcNS_11char_traitsIcEENS_9allocatorIcEEEEEclB7v170000EPS6_.exit.i.i.i496

_ZNKSt3__114default_deleteINS_12basic_stringIcNS_11char_traitsIcEENS_9allocatorIcEEEEEclB7v170000EPS6_.exit.i.i.i496: ; preds = %if.then.i.i.i.i.i495, %delete.notnull.i.i.i.i493
  call void @_ZdlPv(ptr noundef nonnull %89) #24
  br label %_ZN7testing15AssertionResultD2Ev.exit497

_ZN7testing15AssertionResultD2Ev.exit497:         ; preds = %cleanup80, %_ZNKSt3__114default_deleteINS_12basic_stringIcNS_11char_traitsIcEENS_9allocatorIcEEEEEclB7v170000EPS6_.exit.i.i.i496
  call void @llvm.lifetime.end.p0(i64 16, ptr nonnull %gtest_ar54) #23
  br i1 %tobool.i460.not, label %cleanup.cont276, label %cleanup.cont84

cleanup.cont84:                                   ; preds = %_ZN7testing15AssertionResultD2Ev.exit497
  call void @llvm.lifetime.start.p0(i64 16, ptr nonnull %gtest_ar86) #23
  call void @llvm.lifetime.start.p0(i64 24, ptr nonnull %ref.tmp87) #23
  %91 = load ptr, ptr @_ZN9benchmark8internal12_GLOBAL__N_15queueE, align 8, !tbaa !15
  %__begin_.i.i.i.i498 = getelementptr inbounds %"struct.std::__1::__split_buffer", ptr %91, i64 0, i32 1
  %92 = load ptr, ptr %__begin_.i.i.i.i498, align 8, !tbaa !20, !noalias !59
  %__start_.i.i.i499 = getelementptr inbounds %"class.std::__1::deque", ptr %91, i64 0, i32 1
  %93 = load i64, ptr %__start_.i.i.i499, align 8, !tbaa !21, !noalias !59
  %div.i.i.i500 = udiv i64 %93, 170
  %add.ptr.i.i.i501 = getelementptr inbounds ptr, ptr %92, i64 %div.i.i.i500
  %94 = load ptr, ptr %add.ptr.i.i.i501, align 8, !tbaa !15, !noalias !59
  %rem.i.i.i502 = urem i64 %93, 170
  %add.ptr3.i.i.i503 = getelementptr inbounds %"class.std::__1::basic_string", ptr %94, i64 %rem.i.i.i502
  call void @_ZNSt3__112basic_stringIcNS_11char_traitsIcEENS_9allocatorIcEEEC1ERKS5_(ptr noundef nonnull align 8 dereferenceable(24) %ref.tmp87, ptr noundef nonnull align 8 dereferenceable(24) %add.ptr3.i.i.i503)
  %95 = load ptr, ptr %__begin_.i.i.i.i498, align 8, !tbaa !20, !noalias !59
  %96 = load i64, ptr %__start_.i.i.i499, align 8, !tbaa !21, !noalias !59
  %div.i.i5.i504 = udiv i64 %96, 170
  %add.ptr.i.i6.i505 = getelementptr inbounds ptr, ptr %95, i64 %div.i.i5.i504
  %97 = load ptr, ptr %add.ptr.i.i6.i505, align 8, !tbaa !15
  %rem.i.i7.i506 = urem i64 %96, 170
  %add.ptr4.i.i.i507 = getelementptr inbounds %"class.std::__1::basic_string", ptr %97, i64 %rem.i.i7.i506
  %bf.load.i.i.i.i.i.i.i508 = load i8, ptr %add.ptr4.i.i.i507, align 8
  %bf.clear.i.i.i.i.i.i.i509 = and i8 %bf.load.i.i.i.i.i.i.i508, 1
  %tobool.i.not.i.i.i.i.i.i510 = icmp eq i8 %bf.clear.i.i.i.i.i.i.i509, 0
  br i1 %tobool.i.not.i.i.i.i.i.i510, label %_ZNSt3__116allocator_traitsINS_9allocatorINS_12basic_stringIcNS_11char_traitsIcEENS1_IcEEEEEEE7destroyB7v170000IS6_vEEvRS7_PT_.exit.i.i.i518, label %if.then.i.i.i.i.i.i513

if.then.i.i.i.i.i.i513:                           ; preds = %cleanup.cont84
  %__data_.i.i.i.i.i.i.i511 = getelementptr inbounds %"struct.std::__1::basic_string<char>::__long", ptr %add.ptr4.i.i.i507, i64 0, i32 2
  %98 = load ptr, ptr %__data_.i.i.i.i.i.i.i511, align 8, !tbaa !25
  call void @_ZdlPv(ptr noundef %98) #24
  %.pre.i.i.i512 = load i64, ptr %__start_.i.i.i499, align 8, !tbaa !21, !noalias !59
  br label %_ZNSt3__116allocator_traitsINS_9allocatorINS_12basic_stringIcNS_11char_traitsIcEENS1_IcEEEEEEE7destroyB7v170000IS6_vEEvRS7_PT_.exit.i.i.i518

_ZNSt3__116allocator_traitsINS_9allocatorINS_12basic_stringIcNS_11char_traitsIcEENS1_IcEEEEEEE7destroyB7v170000IS6_vEEvRS7_PT_.exit.i.i.i518: ; preds = %if.then.i.i.i.i.i.i513, %cleanup.cont84
  %99 = phi i64 [ %96, %cleanup.cont84 ], [ %.pre.i.i.i512, %if.then.i.i.i.i.i.i513 ]
  %__size_.i9.i.i.i514 = getelementptr inbounds %"class.std::__1::deque", ptr %91, i64 0, i32 2
  %100 = load i64, ptr %__size_.i9.i.i.i514, align 8, !tbaa !13, !noalias !59
  %dec.i.i.i515 = add i64 %100, -1
  store i64 %dec.i.i.i515, ptr %__size_.i9.i.i.i514, align 8, !tbaa !13, !noalias !59
  %inc.i.i.i516 = add i64 %99, 1
  store i64 %inc.i.i.i516, ptr %__start_.i.i.i499, align 8, !tbaa !21, !noalias !59
  %or.cond10.i.i.i.i517 = icmp ugt i64 %inc.i.i.i516, 339
  br i1 %or.cond10.i.i.i.i517, label %if.then.i.i.i.i521, label %_ZN9benchmark8internal12_GLOBAL__N_110EventQueue3GetEv.exit522

if.then.i.i.i.i521:                               ; preds = %_ZNSt3__116allocator_traitsINS_9allocatorINS_12basic_stringIcNS_11char_traitsIcEENS1_IcEEEEEEE7destroyB7v170000IS6_vEEvRS7_PT_.exit.i.i.i518
  %101 = load ptr, ptr %__begin_.i.i.i.i498, align 8, !tbaa !20, !noalias !59
  %102 = load ptr, ptr %101, align 8, !tbaa !15
  call void @_ZdlPv(ptr noundef %102) #24
  %103 = load ptr, ptr %__begin_.i.i.i.i498, align 8, !tbaa !20, !noalias !59
  %add.ptr.i.i.i.i.i519 = getelementptr inbounds ptr, ptr %103, i64 1
  store ptr %add.ptr.i.i.i.i.i519, ptr %__begin_.i.i.i.i498, align 8, !tbaa !20, !noalias !59
  %104 = load i64, ptr %__start_.i.i.i499, align 8, !tbaa !21, !noalias !59
  %sub.i.i.i.i520 = add i64 %104, -170
  store i64 %sub.i.i.i.i520, ptr %__start_.i.i.i499, align 8, !tbaa !21, !noalias !59
  br label %_ZN9benchmark8internal12_GLOBAL__N_110EventQueue3GetEv.exit522

_ZN9benchmark8internal12_GLOBAL__N_110EventQueue3GetEv.exit522: ; preds = %_ZNSt3__116allocator_traitsINS_9allocatorINS_12basic_stringIcNS_11char_traitsIcEENS1_IcEEEEEEE7destroyB7v170000IS6_vEEvRS7_PT_.exit.i.i.i518, %if.then.i.i.i.i521
  invoke void @_ZN7testing8internal11CmpHelperEQIA13_cNSt3__112basic_stringIcNS3_11char_traitsIcEENS3_9allocatorIcEEEEEENS_15AssertionResultEPKcSC_RKT_RKT0_(ptr nonnull sret(%"class.testing::AssertionResult") align 8 %gtest_ar86, ptr noundef nonnull @.str.22, ptr noundef nonnull @.str.16, ptr noundef nonnull align 1 dereferenceable(13) @.str.23, ptr noundef nonnull align 8 dereferenceable(24) %ref.tmp87)
          to label %invoke.cont89 unwind label %lpad88

invoke.cont89:                                    ; preds = %_ZN9benchmark8internal12_GLOBAL__N_110EventQueue3GetEv.exit522
  %bf.load.i.i523 = load i8, ptr %ref.tmp87, align 8
  %bf.clear.i.i524 = and i8 %bf.load.i.i523, 1
  %tobool.i.not.i525 = icmp eq i8 %bf.clear.i.i524, 0
  br i1 %tobool.i.not.i525, label %_ZNSt3__112basic_stringIcNS_11char_traitsIcEENS_9allocatorIcEEED2Ev.exit528, label %if.then.i527

if.then.i527:                                     ; preds = %invoke.cont89
  %__data_.i.i526 = getelementptr inbounds %"struct.std::__1::basic_string<char>::__long", ptr %ref.tmp87, i64 0, i32 2
  %105 = load ptr, ptr %__data_.i.i526, align 8, !tbaa !25
  call void @_ZdlPv(ptr noundef %105) #24
  br label %_ZNSt3__112basic_stringIcNS_11char_traitsIcEENS_9allocatorIcEEED2Ev.exit528

_ZNSt3__112basic_stringIcNS_11char_traitsIcEENS_9allocatorIcEEED2Ev.exit528: ; preds = %invoke.cont89, %if.then.i527
  call void @llvm.lifetime.end.p0(i64 24, ptr nonnull %ref.tmp87) #23
  %106 = load i8, ptr %gtest_ar86, align 8, !tbaa !45, !range !51, !noundef !52
  %tobool.i529.not = icmp eq i8 %106, 0
  br i1 %tobool.i529.not, label %if.else96, label %cleanup112

ehcleanup85:                                      ; preds = %ehcleanup78, %_ZNSt3__112basic_stringIcNS_11char_traitsIcEENS_9allocatorIcEEED2Ev.exit466
  %.pn293.pn.pn = phi { ptr, i32 } [ %.pn293.pn, %ehcleanup78 ], [ %78, %_ZNSt3__112basic_stringIcNS_11char_traitsIcEENS_9allocatorIcEEED2Ev.exit466 ]
  call void @llvm.lifetime.end.p0(i64 16, ptr nonnull %gtest_ar54) #23
  br label %eh.resume

lpad88:                                           ; preds = %_ZN9benchmark8internal12_GLOBAL__N_110EventQueue3GetEv.exit522
  %107 = landingpad { ptr, i32 }
          cleanup
  %bf.load.i.i530 = load i8, ptr %ref.tmp87, align 8
  %bf.clear.i.i531 = and i8 %bf.load.i.i530, 1
  %tobool.i.not.i532 = icmp eq i8 %bf.clear.i.i531, 0
  br i1 %tobool.i.not.i532, label %_ZNSt3__112basic_stringIcNS_11char_traitsIcEENS_9allocatorIcEEED2Ev.exit535, label %if.then.i534

if.then.i534:                                     ; preds = %lpad88
  %__data_.i.i533 = getelementptr inbounds %"struct.std::__1::basic_string<char>::__long", ptr %ref.tmp87, i64 0, i32 2
  %108 = load ptr, ptr %__data_.i.i533, align 8, !tbaa !25
  call void @_ZdlPv(ptr noundef %108) #24
  br label %_ZNSt3__112basic_stringIcNS_11char_traitsIcEENS_9allocatorIcEEED2Ev.exit535

_ZNSt3__112basic_stringIcNS_11char_traitsIcEENS_9allocatorIcEEED2Ev.exit535: ; preds = %lpad88, %if.then.i534
  call void @llvm.lifetime.end.p0(i64 24, ptr nonnull %ref.tmp87) #23
  br label %ehcleanup117

if.else96:                                        ; preds = %_ZNSt3__112basic_stringIcNS_11char_traitsIcEENS_9allocatorIcEEED2Ev.exit528
  call void @llvm.lifetime.start.p0(i64 8, ptr nonnull %ref.tmp97) #23
  invoke void @_ZN7testing7MessageC1Ev(ptr noundef nonnull align 8 dereferenceable(8) %ref.tmp97)
          to label %invoke.cont99 unwind label %lpad98

invoke.cont99:                                    ; preds = %if.else96
  call void @llvm.lifetime.start.p0(i64 8, ptr nonnull %ref.tmp100) #23
  %message_.i.i536 = getelementptr inbounds %"class.testing::AssertionResult", ptr %gtest_ar86, i64 0, i32 1
  %109 = load ptr, ptr %message_.i.i536, align 8, !tbaa !15
  %cmp.not.i.i537 = icmp eq ptr %109, null
  br i1 %cmp.not.i.i537, label %invoke.cont102, label %cond.true.i.i544

cond.true.i.i544:                                 ; preds = %invoke.cont99
  %bf.load.i.i.i.i.i.i538 = load i8, ptr %109, align 8
  %bf.clear.i.i.i.i.i.i539 = and i8 %bf.load.i.i.i.i.i.i538, 1
  %tobool.i.not.i.i.i.i.i540 = icmp eq i8 %bf.clear.i.i.i.i.i.i539, 0
  %__data_.i.i.i.i.i.i541 = getelementptr inbounds %"struct.std::__1::basic_string<char>::__long", ptr %109, i64 0, i32 2
  %110 = load ptr, ptr %__data_.i.i.i.i.i.i541, align 8
  %__data_.i4.i.i.i.i.i542 = getelementptr inbounds %"struct.std::__1::basic_string<char>::__short", ptr %109, i64 0, i32 2
  %cond.i.i.i.i.i543 = select i1 %tobool.i.not.i.i.i.i.i540, ptr %__data_.i4.i.i.i.i.i542, ptr %110
  br label %invoke.cont102

invoke.cont102:                                   ; preds = %cond.true.i.i544, %invoke.cont99
  %cond.i.i545 = phi ptr [ %cond.i.i.i.i.i543, %cond.true.i.i544 ], [ @.str.36, %invoke.cont99 ]
  invoke void @_ZN7testing8internal12AssertHelperC1ENS_14TestPartResult4TypeEPKciS5_(ptr noundef nonnull align 8 dereferenceable(8) %ref.tmp100, i32 noundef 2, ptr noundef nonnull @.str.6, i32 noundef 83, ptr noundef %cond.i.i545)
          to label %invoke.cont104 unwind label %lpad101

invoke.cont104:                                   ; preds = %invoke.cont102
  invoke void @_ZNK7testing8internal12AssertHelperaSERKNS_7MessageE(ptr noundef nonnull align 8 dereferenceable(8) %ref.tmp100, ptr noundef nonnull align 8 dereferenceable(8) %ref.tmp97)
          to label %invoke.cont106 unwind label %lpad105

invoke.cont106:                                   ; preds = %invoke.cont104
  call void @_ZN7testing8internal12AssertHelperD1Ev(ptr noundef nonnull align 8 dereferenceable(8) %ref.tmp100) #23
  call void @llvm.lifetime.end.p0(i64 8, ptr nonnull %ref.tmp100) #23
  %111 = load ptr, ptr %ref.tmp97, align 8, !tbaa !15
  store ptr null, ptr %ref.tmp97, align 8, !tbaa !15
  %tobool.not.i.i.i547 = icmp eq ptr %111, null
  br i1 %tobool.not.i.i.i547, label %_ZN7testing7MessageD2Ev.exit551, label %_ZNKSt3__114default_deleteINS_18basic_stringstreamIcNS_11char_traitsIcEENS_9allocatorIcEEEEEclB7v170000EPS6_.exit.i.i.i550

_ZNKSt3__114default_deleteINS_18basic_stringstreamIcNS_11char_traitsIcEENS_9allocatorIcEEEEEclB7v170000EPS6_.exit.i.i.i550: ; preds = %invoke.cont106
  %vtable.i.i.i.i548 = load ptr, ptr %111, align 8, !tbaa !40
  %vfn.i.i.i.i549 = getelementptr inbounds ptr, ptr %vtable.i.i.i.i548, i64 1
  %112 = load ptr, ptr %vfn.i.i.i.i549, align 8
  call void %112(ptr noundef nonnull align 8 dereferenceable(128) %111) #23
  br label %_ZN7testing7MessageD2Ev.exit551

_ZN7testing7MessageD2Ev.exit551:                  ; preds = %invoke.cont106, %_ZNKSt3__114default_deleteINS_18basic_stringstreamIcNS_11char_traitsIcEENS_9allocatorIcEEEEEclB7v170000EPS6_.exit.i.i.i550
  call void @llvm.lifetime.end.p0(i64 8, ptr nonnull %ref.tmp97) #23
  br label %cleanup112

lpad98:                                           ; preds = %if.else96
  %113 = landingpad { ptr, i32 }
          cleanup
  br label %ehcleanup110

lpad101:                                          ; preds = %invoke.cont102
  %114 = landingpad { ptr, i32 }
          cleanup
  br label %ehcleanup108

lpad105:                                          ; preds = %invoke.cont104
  %115 = landingpad { ptr, i32 }
          cleanup
  call void @_ZN7testing8internal12AssertHelperD1Ev(ptr noundef nonnull align 8 dereferenceable(8) %ref.tmp100) #23
  br label %ehcleanup108

ehcleanup108:                                     ; preds = %lpad105, %lpad101
  %.pn297 = phi { ptr, i32 } [ %115, %lpad105 ], [ %114, %lpad101 ]
  call void @llvm.lifetime.end.p0(i64 8, ptr nonnull %ref.tmp100) #23
  %116 = load ptr, ptr %ref.tmp97, align 8, !tbaa !15
  store ptr null, ptr %ref.tmp97, align 8, !tbaa !15
  %tobool.not.i.i.i552 = icmp eq ptr %116, null
  br i1 %tobool.not.i.i.i552, label %ehcleanup110, label %_ZNKSt3__114default_deleteINS_18basic_stringstreamIcNS_11char_traitsIcEENS_9allocatorIcEEEEEclB7v170000EPS6_.exit.i.i.i555

_ZNKSt3__114default_deleteINS_18basic_stringstreamIcNS_11char_traitsIcEENS_9allocatorIcEEEEEclB7v170000EPS6_.exit.i.i.i555: ; preds = %ehcleanup108
  %vtable.i.i.i.i553 = load ptr, ptr %116, align 8, !tbaa !40
  %vfn.i.i.i.i554 = getelementptr inbounds ptr, ptr %vtable.i.i.i.i553, i64 1
  %117 = load ptr, ptr %vfn.i.i.i.i554, align 8
  call void %117(ptr noundef nonnull align 8 dereferenceable(128) %116) #23
  br label %ehcleanup110

ehcleanup110:                                     ; preds = %_ZNKSt3__114default_deleteINS_18basic_stringstreamIcNS_11char_traitsIcEENS_9allocatorIcEEEEEclB7v170000EPS6_.exit.i.i.i555, %ehcleanup108, %lpad98
  %.pn297.pn = phi { ptr, i32 } [ %113, %lpad98 ], [ %.pn297, %ehcleanup108 ], [ %.pn297, %_ZNKSt3__114default_deleteINS_18basic_stringstreamIcNS_11char_traitsIcEENS_9allocatorIcEEEEEclB7v170000EPS6_.exit.i.i.i555 ]
  call void @llvm.lifetime.end.p0(i64 8, ptr nonnull %ref.tmp97) #23
  call void @_ZN7testing15AssertionResultD2Ev(ptr noundef nonnull align 8 dereferenceable(16) %gtest_ar86) #23
  br label %ehcleanup117

cleanup112:                                       ; preds = %_ZNSt3__112basic_stringIcNS_11char_traitsIcEENS_9allocatorIcEEED2Ev.exit528, %_ZN7testing7MessageD2Ev.exit551
  %message_.i557 = getelementptr inbounds %"class.testing::AssertionResult", ptr %gtest_ar86, i64 0, i32 1
  %118 = load ptr, ptr %message_.i557, align 8, !tbaa !15
  store ptr null, ptr %message_.i557, align 8, !tbaa !15
  %tobool.not.i.i.i558 = icmp eq ptr %118, null
  br i1 %tobool.not.i.i.i558, label %_ZN7testing15AssertionResultD2Ev.exit566, label %delete.notnull.i.i.i.i562

delete.notnull.i.i.i.i562:                        ; preds = %cleanup112
  %bf.load.i.i.i.i.i.i559 = load i8, ptr %118, align 8
  %bf.clear.i.i.i.i.i.i560 = and i8 %bf.load.i.i.i.i.i.i559, 1
  %tobool.i.not.i.i.i.i.i561 = icmp eq i8 %bf.clear.i.i.i.i.i.i560, 0
  br i1 %tobool.i.not.i.i.i.i.i561, label %_ZNKSt3__114default_deleteINS_12basic_stringIcNS_11char_traitsIcEENS_9allocatorIcEEEEEclB7v170000EPS6_.exit.i.i.i565, label %if.then.i.i.i.i.i564

if.then.i.i.i.i.i564:                             ; preds = %delete.notnull.i.i.i.i562
  %__data_.i.i.i.i.i.i563 = getelementptr inbounds %"struct.std::__1::basic_string<char>::__long", ptr %118, i64 0, i32 2
  %119 = load ptr, ptr %__data_.i.i.i.i.i.i563, align 8, !tbaa !25
  call void @_ZdlPv(ptr noundef %119) #24
  br label %_ZNKSt3__114default_deleteINS_12basic_stringIcNS_11char_traitsIcEENS_9allocatorIcEEEEEclB7v170000EPS6_.exit.i.i.i565

_ZNKSt3__114default_deleteINS_12basic_stringIcNS_11char_traitsIcEENS_9allocatorIcEEEEEclB7v170000EPS6_.exit.i.i.i565: ; preds = %if.then.i.i.i.i.i564, %delete.notnull.i.i.i.i562
  call void @_ZdlPv(ptr noundef nonnull %118) #24
  br label %_ZN7testing15AssertionResultD2Ev.exit566

_ZN7testing15AssertionResultD2Ev.exit566:         ; preds = %cleanup112, %_ZNKSt3__114default_deleteINS_12basic_stringIcNS_11char_traitsIcEENS_9allocatorIcEEEEEclB7v170000EPS6_.exit.i.i.i565
  call void @llvm.lifetime.end.p0(i64 16, ptr nonnull %gtest_ar86) #23
  br i1 %tobool.i529.not, label %cleanup.cont276, label %cleanup.cont116

cleanup.cont116:                                  ; preds = %_ZN7testing15AssertionResultD2Ev.exit566
  call void @llvm.lifetime.start.p0(i64 16, ptr nonnull %gtest_ar118) #23
  call void @llvm.lifetime.start.p0(i64 24, ptr nonnull %ref.tmp119) #23
  %120 = load ptr, ptr @_ZN9benchmark8internal12_GLOBAL__N_15queueE, align 8, !tbaa !15
  %__begin_.i.i.i.i567 = getelementptr inbounds %"struct.std::__1::__split_buffer", ptr %120, i64 0, i32 1
  %121 = load ptr, ptr %__begin_.i.i.i.i567, align 8, !tbaa !20, !noalias !62
  %__start_.i.i.i568 = getelementptr inbounds %"class.std::__1::deque", ptr %120, i64 0, i32 1
  %122 = load i64, ptr %__start_.i.i.i568, align 8, !tbaa !21, !noalias !62
  %div.i.i.i569 = udiv i64 %122, 170
  %add.ptr.i.i.i570 = getelementptr inbounds ptr, ptr %121, i64 %div.i.i.i569
  %123 = load ptr, ptr %add.ptr.i.i.i570, align 8, !tbaa !15, !noalias !62
  %rem.i.i.i571 = urem i64 %122, 170
  %add.ptr3.i.i.i572 = getelementptr inbounds %"class.std::__1::basic_string", ptr %123, i64 %rem.i.i.i571
  call void @_ZNSt3__112basic_stringIcNS_11char_traitsIcEENS_9allocatorIcEEEC1ERKS5_(ptr noundef nonnull align 8 dereferenceable(24) %ref.tmp119, ptr noundef nonnull align 8 dereferenceable(24) %add.ptr3.i.i.i572)
  %124 = load ptr, ptr %__begin_.i.i.i.i567, align 8, !tbaa !20, !noalias !62
  %125 = load i64, ptr %__start_.i.i.i568, align 8, !tbaa !21, !noalias !62
  %div.i.i5.i573 = udiv i64 %125, 170
  %add.ptr.i.i6.i574 = getelementptr inbounds ptr, ptr %124, i64 %div.i.i5.i573
  %126 = load ptr, ptr %add.ptr.i.i6.i574, align 8, !tbaa !15
  %rem.i.i7.i575 = urem i64 %125, 170
  %add.ptr4.i.i.i576 = getelementptr inbounds %"class.std::__1::basic_string", ptr %126, i64 %rem.i.i7.i575
  %bf.load.i.i.i.i.i.i.i577 = load i8, ptr %add.ptr4.i.i.i576, align 8
  %bf.clear.i.i.i.i.i.i.i578 = and i8 %bf.load.i.i.i.i.i.i.i577, 1
  %tobool.i.not.i.i.i.i.i.i579 = icmp eq i8 %bf.clear.i.i.i.i.i.i.i578, 0
  br i1 %tobool.i.not.i.i.i.i.i.i579, label %_ZNSt3__116allocator_traitsINS_9allocatorINS_12basic_stringIcNS_11char_traitsIcEENS1_IcEEEEEEE7destroyB7v170000IS6_vEEvRS7_PT_.exit.i.i.i587, label %if.then.i.i.i.i.i.i582

if.then.i.i.i.i.i.i582:                           ; preds = %cleanup.cont116
  %__data_.i.i.i.i.i.i.i580 = getelementptr inbounds %"struct.std::__1::basic_string<char>::__long", ptr %add.ptr4.i.i.i576, i64 0, i32 2
  %127 = load ptr, ptr %__data_.i.i.i.i.i.i.i580, align 8, !tbaa !25
  call void @_ZdlPv(ptr noundef %127) #24
  %.pre.i.i.i581 = load i64, ptr %__start_.i.i.i568, align 8, !tbaa !21, !noalias !62
  br label %_ZNSt3__116allocator_traitsINS_9allocatorINS_12basic_stringIcNS_11char_traitsIcEENS1_IcEEEEEEE7destroyB7v170000IS6_vEEvRS7_PT_.exit.i.i.i587

_ZNSt3__116allocator_traitsINS_9allocatorINS_12basic_stringIcNS_11char_traitsIcEENS1_IcEEEEEEE7destroyB7v170000IS6_vEEvRS7_PT_.exit.i.i.i587: ; preds = %if.then.i.i.i.i.i.i582, %cleanup.cont116
  %128 = phi i64 [ %125, %cleanup.cont116 ], [ %.pre.i.i.i581, %if.then.i.i.i.i.i.i582 ]
  %__size_.i9.i.i.i583 = getelementptr inbounds %"class.std::__1::deque", ptr %120, i64 0, i32 2
  %129 = load i64, ptr %__size_.i9.i.i.i583, align 8, !tbaa !13, !noalias !62
  %dec.i.i.i584 = add i64 %129, -1
  store i64 %dec.i.i.i584, ptr %__size_.i9.i.i.i583, align 8, !tbaa !13, !noalias !62
  %inc.i.i.i585 = add i64 %128, 1
  store i64 %inc.i.i.i585, ptr %__start_.i.i.i568, align 8, !tbaa !21, !noalias !62
  %or.cond10.i.i.i.i586 = icmp ugt i64 %inc.i.i.i585, 339
  br i1 %or.cond10.i.i.i.i586, label %if.then.i.i.i.i590, label %_ZN9benchmark8internal12_GLOBAL__N_110EventQueue3GetEv.exit591

if.then.i.i.i.i590:                               ; preds = %_ZNSt3__116allocator_traitsINS_9allocatorINS_12basic_stringIcNS_11char_traitsIcEENS1_IcEEEEEEE7destroyB7v170000IS6_vEEvRS7_PT_.exit.i.i.i587
  %130 = load ptr, ptr %__begin_.i.i.i.i567, align 8, !tbaa !20, !noalias !62
  %131 = load ptr, ptr %130, align 8, !tbaa !15
  call void @_ZdlPv(ptr noundef %131) #24
  %132 = load ptr, ptr %__begin_.i.i.i.i567, align 8, !tbaa !20, !noalias !62
  %add.ptr.i.i.i.i.i588 = getelementptr inbounds ptr, ptr %132, i64 1
  store ptr %add.ptr.i.i.i.i.i588, ptr %__begin_.i.i.i.i567, align 8, !tbaa !20, !noalias !62
  %133 = load i64, ptr %__start_.i.i.i568, align 8, !tbaa !21, !noalias !62
  %sub.i.i.i.i589 = add i64 %133, -170
  store i64 %sub.i.i.i.i589, ptr %__start_.i.i.i568, align 8, !tbaa !21, !noalias !62
  br label %_ZN9benchmark8internal12_GLOBAL__N_110EventQueue3GetEv.exit591

_ZN9benchmark8internal12_GLOBAL__N_110EventQueue3GetEv.exit591: ; preds = %_ZNSt3__116allocator_traitsINS_9allocatorINS_12basic_stringIcNS_11char_traitsIcEENS1_IcEEEEEEE7destroyB7v170000IS6_vEEvRS7_PT_.exit.i.i.i587, %if.then.i.i.i.i590
  invoke void @_ZN7testing8internal11CmpHelperEQIA13_cNSt3__112basic_stringIcNS3_11char_traitsIcEENS3_9allocatorIcEEEEEENS_15AssertionResultEPKcSC_RKT_RKT0_(ptr nonnull sret(%"class.testing::AssertionResult") align 8 %gtest_ar118, ptr noundef nonnull @.str.24, ptr noundef nonnull @.str.16, ptr noundef nonnull align 1 dereferenceable(13) @.str.25, ptr noundef nonnull align 8 dereferenceable(24) %ref.tmp119)
          to label %invoke.cont121 unwind label %lpad120

invoke.cont121:                                   ; preds = %_ZN9benchmark8internal12_GLOBAL__N_110EventQueue3GetEv.exit591
  %bf.load.i.i593 = load i8, ptr %ref.tmp119, align 8
  %bf.clear.i.i594 = and i8 %bf.load.i.i593, 1
  %tobool.i.not.i595 = icmp eq i8 %bf.clear.i.i594, 0
  br i1 %tobool.i.not.i595, label %_ZNSt3__112basic_stringIcNS_11char_traitsIcEENS_9allocatorIcEEED2Ev.exit598, label %if.then.i597

if.then.i597:                                     ; preds = %invoke.cont121
  %__data_.i.i596 = getelementptr inbounds %"struct.std::__1::basic_string<char>::__long", ptr %ref.tmp119, i64 0, i32 2
  %134 = load ptr, ptr %__data_.i.i596, align 8, !tbaa !25
  call void @_ZdlPv(ptr noundef %134) #24
  br label %_ZNSt3__112basic_stringIcNS_11char_traitsIcEENS_9allocatorIcEEED2Ev.exit598

_ZNSt3__112basic_stringIcNS_11char_traitsIcEENS_9allocatorIcEEED2Ev.exit598: ; preds = %invoke.cont121, %if.then.i597
  call void @llvm.lifetime.end.p0(i64 24, ptr nonnull %ref.tmp119) #23
  %135 = load i8, ptr %gtest_ar118, align 8, !tbaa !45, !range !51, !noundef !52
  %tobool.i599.not = icmp eq i8 %135, 0
  br i1 %tobool.i599.not, label %if.else128, label %cleanup144

ehcleanup117:                                     ; preds = %ehcleanup110, %_ZNSt3__112basic_stringIcNS_11char_traitsIcEENS_9allocatorIcEEED2Ev.exit535
  %.pn297.pn.pn = phi { ptr, i32 } [ %.pn297.pn, %ehcleanup110 ], [ %107, %_ZNSt3__112basic_stringIcNS_11char_traitsIcEENS_9allocatorIcEEED2Ev.exit535 ]
  call void @llvm.lifetime.end.p0(i64 16, ptr nonnull %gtest_ar86) #23
  br label %eh.resume

lpad120:                                          ; preds = %_ZN9benchmark8internal12_GLOBAL__N_110EventQueue3GetEv.exit591
  %136 = landingpad { ptr, i32 }
          cleanup
  %bf.load.i.i600 = load i8, ptr %ref.tmp119, align 8
  %bf.clear.i.i601 = and i8 %bf.load.i.i600, 1
  %tobool.i.not.i602 = icmp eq i8 %bf.clear.i.i601, 0
  br i1 %tobool.i.not.i602, label %_ZNSt3__112basic_stringIcNS_11char_traitsIcEENS_9allocatorIcEEED2Ev.exit605, label %if.then.i604

if.then.i604:                                     ; preds = %lpad120
  %__data_.i.i603 = getelementptr inbounds %"struct.std::__1::basic_string<char>::__long", ptr %ref.tmp119, i64 0, i32 2
  %137 = load ptr, ptr %__data_.i.i603, align 8, !tbaa !25
  call void @_ZdlPv(ptr noundef %137) #24
  br label %_ZNSt3__112basic_stringIcNS_11char_traitsIcEENS_9allocatorIcEEED2Ev.exit605

_ZNSt3__112basic_stringIcNS_11char_traitsIcEENS_9allocatorIcEEED2Ev.exit605: ; preds = %lpad120, %if.then.i604
  call void @llvm.lifetime.end.p0(i64 24, ptr nonnull %ref.tmp119) #23
  br label %ehcleanup149

if.else128:                                       ; preds = %_ZNSt3__112basic_stringIcNS_11char_traitsIcEENS_9allocatorIcEEED2Ev.exit598
  call void @llvm.lifetime.start.p0(i64 8, ptr nonnull %ref.tmp129) #23
  invoke void @_ZN7testing7MessageC1Ev(ptr noundef nonnull align 8 dereferenceable(8) %ref.tmp129)
          to label %invoke.cont131 unwind label %lpad130

invoke.cont131:                                   ; preds = %if.else128
  call void @llvm.lifetime.start.p0(i64 8, ptr nonnull %ref.tmp132) #23
  %message_.i.i606 = getelementptr inbounds %"class.testing::AssertionResult", ptr %gtest_ar118, i64 0, i32 1
  %138 = load ptr, ptr %message_.i.i606, align 8, !tbaa !15
  %cmp.not.i.i607 = icmp eq ptr %138, null
  br i1 %cmp.not.i.i607, label %invoke.cont134, label %cond.true.i.i614

cond.true.i.i614:                                 ; preds = %invoke.cont131
  %bf.load.i.i.i.i.i.i608 = load i8, ptr %138, align 8
  %bf.clear.i.i.i.i.i.i609 = and i8 %bf.load.i.i.i.i.i.i608, 1
  %tobool.i.not.i.i.i.i.i610 = icmp eq i8 %bf.clear.i.i.i.i.i.i609, 0
  %__data_.i.i.i.i.i.i611 = getelementptr inbounds %"struct.std::__1::basic_string<char>::__long", ptr %138, i64 0, i32 2
  %139 = load ptr, ptr %__data_.i.i.i.i.i.i611, align 8
  %__data_.i4.i.i.i.i.i612 = getelementptr inbounds %"struct.std::__1::basic_string<char>::__short", ptr %138, i64 0, i32 2
  %cond.i.i.i.i.i613 = select i1 %tobool.i.not.i.i.i.i.i610, ptr %__data_.i4.i.i.i.i.i612, ptr %139
  br label %invoke.cont134

invoke.cont134:                                   ; preds = %cond.true.i.i614, %invoke.cont131
  %cond.i.i615 = phi ptr [ %cond.i.i.i.i.i613, %cond.true.i.i614 ], [ @.str.36, %invoke.cont131 ]
  invoke void @_ZN7testing8internal12AssertHelperC1ENS_14TestPartResult4TypeEPKciS5_(ptr noundef nonnull align 8 dereferenceable(8) %ref.tmp132, i32 noundef 2, ptr noundef nonnull @.str.6, i32 noundef 84, ptr noundef %cond.i.i615)
          to label %invoke.cont136 unwind label %lpad133

invoke.cont136:                                   ; preds = %invoke.cont134
  invoke void @_ZNK7testing8internal12AssertHelperaSERKNS_7MessageE(ptr noundef nonnull align 8 dereferenceable(8) %ref.tmp132, ptr noundef nonnull align 8 dereferenceable(8) %ref.tmp129)
          to label %invoke.cont138 unwind label %lpad137

invoke.cont138:                                   ; preds = %invoke.cont136
  call void @_ZN7testing8internal12AssertHelperD1Ev(ptr noundef nonnull align 8 dereferenceable(8) %ref.tmp132) #23
  call void @llvm.lifetime.end.p0(i64 8, ptr nonnull %ref.tmp132) #23
  %140 = load ptr, ptr %ref.tmp129, align 8, !tbaa !15
  store ptr null, ptr %ref.tmp129, align 8, !tbaa !15
  %tobool.not.i.i.i617 = icmp eq ptr %140, null
  br i1 %tobool.not.i.i.i617, label %_ZN7testing7MessageD2Ev.exit621, label %_ZNKSt3__114default_deleteINS_18basic_stringstreamIcNS_11char_traitsIcEENS_9allocatorIcEEEEEclB7v170000EPS6_.exit.i.i.i620

_ZNKSt3__114default_deleteINS_18basic_stringstreamIcNS_11char_traitsIcEENS_9allocatorIcEEEEEclB7v170000EPS6_.exit.i.i.i620: ; preds = %invoke.cont138
  %vtable.i.i.i.i618 = load ptr, ptr %140, align 8, !tbaa !40
  %vfn.i.i.i.i619 = getelementptr inbounds ptr, ptr %vtable.i.i.i.i618, i64 1
  %141 = load ptr, ptr %vfn.i.i.i.i619, align 8
  call void %141(ptr noundef nonnull align 8 dereferenceable(128) %140) #23
  br label %_ZN7testing7MessageD2Ev.exit621

_ZN7testing7MessageD2Ev.exit621:                  ; preds = %invoke.cont138, %_ZNKSt3__114default_deleteINS_18basic_stringstreamIcNS_11char_traitsIcEENS_9allocatorIcEEEEEclB7v170000EPS6_.exit.i.i.i620
  call void @llvm.lifetime.end.p0(i64 8, ptr nonnull %ref.tmp129) #23
  br label %cleanup144

lpad130:                                          ; preds = %if.else128
  %142 = landingpad { ptr, i32 }
          cleanup
  br label %ehcleanup142

lpad133:                                          ; preds = %invoke.cont134
  %143 = landingpad { ptr, i32 }
          cleanup
  br label %ehcleanup140

lpad137:                                          ; preds = %invoke.cont136
  %144 = landingpad { ptr, i32 }
          cleanup
  call void @_ZN7testing8internal12AssertHelperD1Ev(ptr noundef nonnull align 8 dereferenceable(8) %ref.tmp132) #23
  br label %ehcleanup140

ehcleanup140:                                     ; preds = %lpad137, %lpad133
  %.pn301 = phi { ptr, i32 } [ %144, %lpad137 ], [ %143, %lpad133 ]
  call void @llvm.lifetime.end.p0(i64 8, ptr nonnull %ref.tmp132) #23
  %145 = load ptr, ptr %ref.tmp129, align 8, !tbaa !15
  store ptr null, ptr %ref.tmp129, align 8, !tbaa !15
  %tobool.not.i.i.i622 = icmp eq ptr %145, null
  br i1 %tobool.not.i.i.i622, label %ehcleanup142, label %_ZNKSt3__114default_deleteINS_18basic_stringstreamIcNS_11char_traitsIcEENS_9allocatorIcEEEEEclB7v170000EPS6_.exit.i.i.i625

_ZNKSt3__114default_deleteINS_18basic_stringstreamIcNS_11char_traitsIcEENS_9allocatorIcEEEEEclB7v170000EPS6_.exit.i.i.i625: ; preds = %ehcleanup140
  %vtable.i.i.i.i623 = load ptr, ptr %145, align 8, !tbaa !40
  %vfn.i.i.i.i624 = getelementptr inbounds ptr, ptr %vtable.i.i.i.i623, i64 1
  %146 = load ptr, ptr %vfn.i.i.i.i624, align 8
  call void %146(ptr noundef nonnull align 8 dereferenceable(128) %145) #23
  br label %ehcleanup142

ehcleanup142:                                     ; preds = %_ZNKSt3__114default_deleteINS_18basic_stringstreamIcNS_11char_traitsIcEENS_9allocatorIcEEEEEclB7v170000EPS6_.exit.i.i.i625, %ehcleanup140, %lpad130
  %.pn301.pn = phi { ptr, i32 } [ %142, %lpad130 ], [ %.pn301, %ehcleanup140 ], [ %.pn301, %_ZNKSt3__114default_deleteINS_18basic_stringstreamIcNS_11char_traitsIcEENS_9allocatorIcEEEEEclB7v170000EPS6_.exit.i.i.i625 ]
  call void @llvm.lifetime.end.p0(i64 8, ptr nonnull %ref.tmp129) #23
  call void @_ZN7testing15AssertionResultD2Ev(ptr noundef nonnull align 8 dereferenceable(16) %gtest_ar118) #23
  br label %ehcleanup149

cleanup144:                                       ; preds = %_ZNSt3__112basic_stringIcNS_11char_traitsIcEENS_9allocatorIcEEED2Ev.exit598, %_ZN7testing7MessageD2Ev.exit621
  %message_.i627 = getelementptr inbounds %"class.testing::AssertionResult", ptr %gtest_ar118, i64 0, i32 1
  %147 = load ptr, ptr %message_.i627, align 8, !tbaa !15
  store ptr null, ptr %message_.i627, align 8, !tbaa !15
  %tobool.not.i.i.i628 = icmp eq ptr %147, null
  br i1 %tobool.not.i.i.i628, label %_ZN7testing15AssertionResultD2Ev.exit636, label %delete.notnull.i.i.i.i632

delete.notnull.i.i.i.i632:                        ; preds = %cleanup144
  %bf.load.i.i.i.i.i.i629 = load i8, ptr %147, align 8
  %bf.clear.i.i.i.i.i.i630 = and i8 %bf.load.i.i.i.i.i.i629, 1
  %tobool.i.not.i.i.i.i.i631 = icmp eq i8 %bf.clear.i.i.i.i.i.i630, 0
  br i1 %tobool.i.not.i.i.i.i.i631, label %_ZNKSt3__114default_deleteINS_12basic_stringIcNS_11char_traitsIcEENS_9allocatorIcEEEEEclB7v170000EPS6_.exit.i.i.i635, label %if.then.i.i.i.i.i634

if.then.i.i.i.i.i634:                             ; preds = %delete.notnull.i.i.i.i632
  %__data_.i.i.i.i.i.i633 = getelementptr inbounds %"struct.std::__1::basic_string<char>::__long", ptr %147, i64 0, i32 2
  %148 = load ptr, ptr %__data_.i.i.i.i.i.i633, align 8, !tbaa !25
  call void @_ZdlPv(ptr noundef %148) #24
  br label %_ZNKSt3__114default_deleteINS_12basic_stringIcNS_11char_traitsIcEENS_9allocatorIcEEEEEclB7v170000EPS6_.exit.i.i.i635

_ZNKSt3__114default_deleteINS_12basic_stringIcNS_11char_traitsIcEENS_9allocatorIcEEEEEclB7v170000EPS6_.exit.i.i.i635: ; preds = %if.then.i.i.i.i.i634, %delete.notnull.i.i.i.i632
  call void @_ZdlPv(ptr noundef nonnull %147) #24
  br label %_ZN7testing15AssertionResultD2Ev.exit636

_ZN7testing15AssertionResultD2Ev.exit636:         ; preds = %cleanup144, %_ZNKSt3__114default_deleteINS_12basic_stringIcNS_11char_traitsIcEENS_9allocatorIcEEEEEclB7v170000EPS6_.exit.i.i.i635
  call void @llvm.lifetime.end.p0(i64 16, ptr nonnull %gtest_ar118) #23
  br i1 %tobool.i599.not, label %cleanup.cont276, label %cleanup.cont148

cleanup.cont148:                                  ; preds = %_ZN7testing15AssertionResultD2Ev.exit636
  call void @llvm.lifetime.start.p0(i64 16, ptr nonnull %gtest_ar150) #23
  call void @llvm.lifetime.start.p0(i64 24, ptr nonnull %ref.tmp151) #23
  %149 = load ptr, ptr @_ZN9benchmark8internal12_GLOBAL__N_15queueE, align 8, !tbaa !15
  %__begin_.i.i.i.i637 = getelementptr inbounds %"struct.std::__1::__split_buffer", ptr %149, i64 0, i32 1
  %150 = load ptr, ptr %__begin_.i.i.i.i637, align 8, !tbaa !20, !noalias !65
  %__start_.i.i.i638 = getelementptr inbounds %"class.std::__1::deque", ptr %149, i64 0, i32 1
  %151 = load i64, ptr %__start_.i.i.i638, align 8, !tbaa !21, !noalias !65
  %div.i.i.i639 = udiv i64 %151, 170
  %add.ptr.i.i.i640 = getelementptr inbounds ptr, ptr %150, i64 %div.i.i.i639
  %152 = load ptr, ptr %add.ptr.i.i.i640, align 8, !tbaa !15, !noalias !65
  %rem.i.i.i641 = urem i64 %151, 170
  %add.ptr3.i.i.i642 = getelementptr inbounds %"class.std::__1::basic_string", ptr %152, i64 %rem.i.i.i641
  call void @_ZNSt3__112basic_stringIcNS_11char_traitsIcEENS_9allocatorIcEEEC1ERKS5_(ptr noundef nonnull align 8 dereferenceable(24) %ref.tmp151, ptr noundef nonnull align 8 dereferenceable(24) %add.ptr3.i.i.i642)
  %153 = load ptr, ptr %__begin_.i.i.i.i637, align 8, !tbaa !20, !noalias !65
  %154 = load i64, ptr %__start_.i.i.i638, align 8, !tbaa !21, !noalias !65
  %div.i.i5.i643 = udiv i64 %154, 170
  %add.ptr.i.i6.i644 = getelementptr inbounds ptr, ptr %153, i64 %div.i.i5.i643
  %155 = load ptr, ptr %add.ptr.i.i6.i644, align 8, !tbaa !15
  %rem.i.i7.i645 = urem i64 %154, 170
  %add.ptr4.i.i.i646 = getelementptr inbounds %"class.std::__1::basic_string", ptr %155, i64 %rem.i.i7.i645
  %bf.load.i.i.i.i.i.i.i647 = load i8, ptr %add.ptr4.i.i.i646, align 8
  %bf.clear.i.i.i.i.i.i.i648 = and i8 %bf.load.i.i.i.i.i.i.i647, 1
  %tobool.i.not.i.i.i.i.i.i649 = icmp eq i8 %bf.clear.i.i.i.i.i.i.i648, 0
  br i1 %tobool.i.not.i.i.i.i.i.i649, label %_ZNSt3__116allocator_traitsINS_9allocatorINS_12basic_stringIcNS_11char_traitsIcEENS1_IcEEEEEEE7destroyB7v170000IS6_vEEvRS7_PT_.exit.i.i.i657, label %if.then.i.i.i.i.i.i652

if.then.i.i.i.i.i.i652:                           ; preds = %cleanup.cont148
  %__data_.i.i.i.i.i.i.i650 = getelementptr inbounds %"struct.std::__1::basic_string<char>::__long", ptr %add.ptr4.i.i.i646, i64 0, i32 2
  %156 = load ptr, ptr %__data_.i.i.i.i.i.i.i650, align 8, !tbaa !25
  call void @_ZdlPv(ptr noundef %156) #24
  %.pre.i.i.i651 = load i64, ptr %__start_.i.i.i638, align 8, !tbaa !21, !noalias !65
  br label %_ZNSt3__116allocator_traitsINS_9allocatorINS_12basic_stringIcNS_11char_traitsIcEENS1_IcEEEEEEE7destroyB7v170000IS6_vEEvRS7_PT_.exit.i.i.i657

_ZNSt3__116allocator_traitsINS_9allocatorINS_12basic_stringIcNS_11char_traitsIcEENS1_IcEEEEEEE7destroyB7v170000IS6_vEEvRS7_PT_.exit.i.i.i657: ; preds = %if.then.i.i.i.i.i.i652, %cleanup.cont148
  %157 = phi i64 [ %154, %cleanup.cont148 ], [ %.pre.i.i.i651, %if.then.i.i.i.i.i.i652 ]
  %__size_.i9.i.i.i653 = getelementptr inbounds %"class.std::__1::deque", ptr %149, i64 0, i32 2
  %158 = load i64, ptr %__size_.i9.i.i.i653, align 8, !tbaa !13, !noalias !65
  %dec.i.i.i654 = add i64 %158, -1
  store i64 %dec.i.i.i654, ptr %__size_.i9.i.i.i653, align 8, !tbaa !13, !noalias !65
  %inc.i.i.i655 = add i64 %157, 1
  store i64 %inc.i.i.i655, ptr %__start_.i.i.i638, align 8, !tbaa !21, !noalias !65
  %or.cond10.i.i.i.i656 = icmp ugt i64 %inc.i.i.i655, 339
  br i1 %or.cond10.i.i.i.i656, label %if.then.i.i.i.i660, label %_ZN9benchmark8internal12_GLOBAL__N_110EventQueue3GetEv.exit661

if.then.i.i.i.i660:                               ; preds = %_ZNSt3__116allocator_traitsINS_9allocatorINS_12basic_stringIcNS_11char_traitsIcEENS1_IcEEEEEEE7destroyB7v170000IS6_vEEvRS7_PT_.exit.i.i.i657
  %159 = load ptr, ptr %__begin_.i.i.i.i637, align 8, !tbaa !20, !noalias !65
  %160 = load ptr, ptr %159, align 8, !tbaa !15
  call void @_ZdlPv(ptr noundef %160) #24
  %161 = load ptr, ptr %__begin_.i.i.i.i637, align 8, !tbaa !20, !noalias !65
  %add.ptr.i.i.i.i.i658 = getelementptr inbounds ptr, ptr %161, i64 1
  store ptr %add.ptr.i.i.i.i.i658, ptr %__begin_.i.i.i.i637, align 8, !tbaa !20, !noalias !65
  %162 = load i64, ptr %__start_.i.i.i638, align 8, !tbaa !21, !noalias !65
  %sub.i.i.i.i659 = add i64 %162, -170
  store i64 %sub.i.i.i.i659, ptr %__start_.i.i.i638, align 8, !tbaa !21, !noalias !65
  br label %_ZN9benchmark8internal12_GLOBAL__N_110EventQueue3GetEv.exit661

_ZN9benchmark8internal12_GLOBAL__N_110EventQueue3GetEv.exit661: ; preds = %_ZNSt3__116allocator_traitsINS_9allocatorINS_12basic_stringIcNS_11char_traitsIcEENS1_IcEEEEEEE7destroyB7v170000IS6_vEEvRS7_PT_.exit.i.i.i657, %if.then.i.i.i.i660
  invoke void @_ZN7testing8internal11CmpHelperEQIA13_cNSt3__112basic_stringIcNS3_11char_traitsIcEENS3_9allocatorIcEEEEEENS_15AssertionResultEPKcSC_RKT_RKT0_(ptr nonnull sret(%"class.testing::AssertionResult") align 8 %gtest_ar150, ptr noundef nonnull @.str.26, ptr noundef nonnull @.str.16, ptr noundef nonnull align 1 dereferenceable(13) @.str.27, ptr noundef nonnull align 8 dereferenceable(24) %ref.tmp151)
          to label %invoke.cont153 unwind label %lpad152

invoke.cont153:                                   ; preds = %_ZN9benchmark8internal12_GLOBAL__N_110EventQueue3GetEv.exit661
  %bf.load.i.i663 = load i8, ptr %ref.tmp151, align 8
  %bf.clear.i.i664 = and i8 %bf.load.i.i663, 1
  %tobool.i.not.i665 = icmp eq i8 %bf.clear.i.i664, 0
  br i1 %tobool.i.not.i665, label %_ZNSt3__112basic_stringIcNS_11char_traitsIcEENS_9allocatorIcEEED2Ev.exit668, label %if.then.i667

if.then.i667:                                     ; preds = %invoke.cont153
  %__data_.i.i666 = getelementptr inbounds %"struct.std::__1::basic_string<char>::__long", ptr %ref.tmp151, i64 0, i32 2
  %163 = load ptr, ptr %__data_.i.i666, align 8, !tbaa !25
  call void @_ZdlPv(ptr noundef %163) #24
  br label %_ZNSt3__112basic_stringIcNS_11char_traitsIcEENS_9allocatorIcEEED2Ev.exit668

_ZNSt3__112basic_stringIcNS_11char_traitsIcEENS_9allocatorIcEEED2Ev.exit668: ; preds = %invoke.cont153, %if.then.i667
  call void @llvm.lifetime.end.p0(i64 24, ptr nonnull %ref.tmp151) #23
  %164 = load i8, ptr %gtest_ar150, align 8, !tbaa !45, !range !51, !noundef !52
  %tobool.i669.not = icmp eq i8 %164, 0
  br i1 %tobool.i669.not, label %if.else160, label %cleanup176

ehcleanup149:                                     ; preds = %ehcleanup142, %_ZNSt3__112basic_stringIcNS_11char_traitsIcEENS_9allocatorIcEEED2Ev.exit605
  %.pn301.pn.pn = phi { ptr, i32 } [ %.pn301.pn, %ehcleanup142 ], [ %136, %_ZNSt3__112basic_stringIcNS_11char_traitsIcEENS_9allocatorIcEEED2Ev.exit605 ]
  call void @llvm.lifetime.end.p0(i64 16, ptr nonnull %gtest_ar118) #23
  br label %eh.resume

lpad152:                                          ; preds = %_ZN9benchmark8internal12_GLOBAL__N_110EventQueue3GetEv.exit661
  %165 = landingpad { ptr, i32 }
          cleanup
  %bf.load.i.i670 = load i8, ptr %ref.tmp151, align 8
  %bf.clear.i.i671 = and i8 %bf.load.i.i670, 1
  %tobool.i.not.i672 = icmp eq i8 %bf.clear.i.i671, 0
  br i1 %tobool.i.not.i672, label %_ZNSt3__112basic_stringIcNS_11char_traitsIcEENS_9allocatorIcEEED2Ev.exit675, label %if.then.i674

if.then.i674:                                     ; preds = %lpad152
  %__data_.i.i673 = getelementptr inbounds %"struct.std::__1::basic_string<char>::__long", ptr %ref.tmp151, i64 0, i32 2
  %166 = load ptr, ptr %__data_.i.i673, align 8, !tbaa !25
  call void @_ZdlPv(ptr noundef %166) #24
  br label %_ZNSt3__112basic_stringIcNS_11char_traitsIcEENS_9allocatorIcEEED2Ev.exit675

_ZNSt3__112basic_stringIcNS_11char_traitsIcEENS_9allocatorIcEEED2Ev.exit675: ; preds = %lpad152, %if.then.i674
  call void @llvm.lifetime.end.p0(i64 24, ptr nonnull %ref.tmp151) #23
  br label %ehcleanup181

if.else160:                                       ; preds = %_ZNSt3__112basic_stringIcNS_11char_traitsIcEENS_9allocatorIcEEED2Ev.exit668
  call void @llvm.lifetime.start.p0(i64 8, ptr nonnull %ref.tmp161) #23
  invoke void @_ZN7testing7MessageC1Ev(ptr noundef nonnull align 8 dereferenceable(8) %ref.tmp161)
          to label %invoke.cont163 unwind label %lpad162

invoke.cont163:                                   ; preds = %if.else160
  call void @llvm.lifetime.start.p0(i64 8, ptr nonnull %ref.tmp164) #23
  %message_.i.i676 = getelementptr inbounds %"class.testing::AssertionResult", ptr %gtest_ar150, i64 0, i32 1
  %167 = load ptr, ptr %message_.i.i676, align 8, !tbaa !15
  %cmp.not.i.i677 = icmp eq ptr %167, null
  br i1 %cmp.not.i.i677, label %invoke.cont166, label %cond.true.i.i684

cond.true.i.i684:                                 ; preds = %invoke.cont163
  %bf.load.i.i.i.i.i.i678 = load i8, ptr %167, align 8
  %bf.clear.i.i.i.i.i.i679 = and i8 %bf.load.i.i.i.i.i.i678, 1
  %tobool.i.not.i.i.i.i.i680 = icmp eq i8 %bf.clear.i.i.i.i.i.i679, 0
  %__data_.i.i.i.i.i.i681 = getelementptr inbounds %"struct.std::__1::basic_string<char>::__long", ptr %167, i64 0, i32 2
  %168 = load ptr, ptr %__data_.i.i.i.i.i.i681, align 8
  %__data_.i4.i.i.i.i.i682 = getelementptr inbounds %"struct.std::__1::basic_string<char>::__short", ptr %167, i64 0, i32 2
  %cond.i.i.i.i.i683 = select i1 %tobool.i.not.i.i.i.i.i680, ptr %__data_.i4.i.i.i.i.i682, ptr %168
  br label %invoke.cont166

invoke.cont166:                                   ; preds = %cond.true.i.i684, %invoke.cont163
  %cond.i.i685 = phi ptr [ %cond.i.i.i.i.i683, %cond.true.i.i684 ], [ @.str.36, %invoke.cont163 ]
  invoke void @_ZN7testing8internal12AssertHelperC1ENS_14TestPartResult4TypeEPKciS5_(ptr noundef nonnull align 8 dereferenceable(8) %ref.tmp164, i32 noundef 2, ptr noundef nonnull @.str.6, i32 noundef 85, ptr noundef %cond.i.i685)
          to label %invoke.cont168 unwind label %lpad165

invoke.cont168:                                   ; preds = %invoke.cont166
  invoke void @_ZNK7testing8internal12AssertHelperaSERKNS_7MessageE(ptr noundef nonnull align 8 dereferenceable(8) %ref.tmp164, ptr noundef nonnull align 8 dereferenceable(8) %ref.tmp161)
          to label %invoke.cont170 unwind label %lpad169

invoke.cont170:                                   ; preds = %invoke.cont168
  call void @_ZN7testing8internal12AssertHelperD1Ev(ptr noundef nonnull align 8 dereferenceable(8) %ref.tmp164) #23
  call void @llvm.lifetime.end.p0(i64 8, ptr nonnull %ref.tmp164) #23
  %169 = load ptr, ptr %ref.tmp161, align 8, !tbaa !15
  store ptr null, ptr %ref.tmp161, align 8, !tbaa !15
  %tobool.not.i.i.i687 = icmp eq ptr %169, null
  br i1 %tobool.not.i.i.i687, label %_ZN7testing7MessageD2Ev.exit691, label %_ZNKSt3__114default_deleteINS_18basic_stringstreamIcNS_11char_traitsIcEENS_9allocatorIcEEEEEclB7v170000EPS6_.exit.i.i.i690

_ZNKSt3__114default_deleteINS_18basic_stringstreamIcNS_11char_traitsIcEENS_9allocatorIcEEEEEclB7v170000EPS6_.exit.i.i.i690: ; preds = %invoke.cont170
  %vtable.i.i.i.i688 = load ptr, ptr %169, align 8, !tbaa !40
  %vfn.i.i.i.i689 = getelementptr inbounds ptr, ptr %vtable.i.i.i.i688, i64 1
  %170 = load ptr, ptr %vfn.i.i.i.i689, align 8
  call void %170(ptr noundef nonnull align 8 dereferenceable(128) %169) #23
  br label %_ZN7testing7MessageD2Ev.exit691

_ZN7testing7MessageD2Ev.exit691:                  ; preds = %invoke.cont170, %_ZNKSt3__114default_deleteINS_18basic_stringstreamIcNS_11char_traitsIcEENS_9allocatorIcEEEEEclB7v170000EPS6_.exit.i.i.i690
  call void @llvm.lifetime.end.p0(i64 8, ptr nonnull %ref.tmp161) #23
  br label %cleanup176

lpad162:                                          ; preds = %if.else160
  %171 = landingpad { ptr, i32 }
          cleanup
  br label %ehcleanup174

lpad165:                                          ; preds = %invoke.cont166
  %172 = landingpad { ptr, i32 }
          cleanup
  br label %ehcleanup172

lpad169:                                          ; preds = %invoke.cont168
  %173 = landingpad { ptr, i32 }
          cleanup
  call void @_ZN7testing8internal12AssertHelperD1Ev(ptr noundef nonnull align 8 dereferenceable(8) %ref.tmp164) #23
  br label %ehcleanup172

ehcleanup172:                                     ; preds = %lpad169, %lpad165
  %.pn305 = phi { ptr, i32 } [ %173, %lpad169 ], [ %172, %lpad165 ]
  call void @llvm.lifetime.end.p0(i64 8, ptr nonnull %ref.tmp164) #23
  %174 = load ptr, ptr %ref.tmp161, align 8, !tbaa !15
  store ptr null, ptr %ref.tmp161, align 8, !tbaa !15
  %tobool.not.i.i.i692 = icmp eq ptr %174, null
  br i1 %tobool.not.i.i.i692, label %ehcleanup174, label %_ZNKSt3__114default_deleteINS_18basic_stringstreamIcNS_11char_traitsIcEENS_9allocatorIcEEEEEclB7v170000EPS6_.exit.i.i.i695

_ZNKSt3__114default_deleteINS_18basic_stringstreamIcNS_11char_traitsIcEENS_9allocatorIcEEEEEclB7v170000EPS6_.exit.i.i.i695: ; preds = %ehcleanup172
  %vtable.i.i.i.i693 = load ptr, ptr %174, align 8, !tbaa !40
  %vfn.i.i.i.i694 = getelementptr inbounds ptr, ptr %vtable.i.i.i.i693, i64 1
  %175 = load ptr, ptr %vfn.i.i.i.i694, align 8
  call void %175(ptr noundef nonnull align 8 dereferenceable(128) %174) #23
  br label %ehcleanup174

ehcleanup174:                                     ; preds = %_ZNKSt3__114default_deleteINS_18basic_stringstreamIcNS_11char_traitsIcEENS_9allocatorIcEEEEEclB7v170000EPS6_.exit.i.i.i695, %ehcleanup172, %lpad162
  %.pn305.pn = phi { ptr, i32 } [ %171, %lpad162 ], [ %.pn305, %ehcleanup172 ], [ %.pn305, %_ZNKSt3__114default_deleteINS_18basic_stringstreamIcNS_11char_traitsIcEENS_9allocatorIcEEEEEclB7v170000EPS6_.exit.i.i.i695 ]
  call void @llvm.lifetime.end.p0(i64 8, ptr nonnull %ref.tmp161) #23
  call void @_ZN7testing15AssertionResultD2Ev(ptr noundef nonnull align 8 dereferenceable(16) %gtest_ar150) #23
  br label %ehcleanup181

cleanup176:                                       ; preds = %_ZNSt3__112basic_stringIcNS_11char_traitsIcEENS_9allocatorIcEEED2Ev.exit668, %_ZN7testing7MessageD2Ev.exit691
  %message_.i697 = getelementptr inbounds %"class.testing::AssertionResult", ptr %gtest_ar150, i64 0, i32 1
  %176 = load ptr, ptr %message_.i697, align 8, !tbaa !15
  store ptr null, ptr %message_.i697, align 8, !tbaa !15
  %tobool.not.i.i.i698 = icmp eq ptr %176, null
  br i1 %tobool.not.i.i.i698, label %_ZN7testing15AssertionResultD2Ev.exit706, label %delete.notnull.i.i.i.i702

delete.notnull.i.i.i.i702:                        ; preds = %cleanup176
  %bf.load.i.i.i.i.i.i699 = load i8, ptr %176, align 8
  %bf.clear.i.i.i.i.i.i700 = and i8 %bf.load.i.i.i.i.i.i699, 1
  %tobool.i.not.i.i.i.i.i701 = icmp eq i8 %bf.clear.i.i.i.i.i.i700, 0
  br i1 %tobool.i.not.i.i.i.i.i701, label %_ZNKSt3__114default_deleteINS_12basic_stringIcNS_11char_traitsIcEENS_9allocatorIcEEEEEclB7v170000EPS6_.exit.i.i.i705, label %if.then.i.i.i.i.i704

if.then.i.i.i.i.i704:                             ; preds = %delete.notnull.i.i.i.i702
  %__data_.i.i.i.i.i.i703 = getelementptr inbounds %"struct.std::__1::basic_string<char>::__long", ptr %176, i64 0, i32 2
  %177 = load ptr, ptr %__data_.i.i.i.i.i.i703, align 8, !tbaa !25
  call void @_ZdlPv(ptr noundef %177) #24
  br label %_ZNKSt3__114default_deleteINS_12basic_stringIcNS_11char_traitsIcEENS_9allocatorIcEEEEEclB7v170000EPS6_.exit.i.i.i705

_ZNKSt3__114default_deleteINS_12basic_stringIcNS_11char_traitsIcEENS_9allocatorIcEEEEEclB7v170000EPS6_.exit.i.i.i705: ; preds = %if.then.i.i.i.i.i704, %delete.notnull.i.i.i.i702
  call void @_ZdlPv(ptr noundef nonnull %176) #24
  br label %_ZN7testing15AssertionResultD2Ev.exit706

_ZN7testing15AssertionResultD2Ev.exit706:         ; preds = %cleanup176, %_ZNKSt3__114default_deleteINS_12basic_stringIcNS_11char_traitsIcEENS_9allocatorIcEEEEEclB7v170000EPS6_.exit.i.i.i705
  call void @llvm.lifetime.end.p0(i64 16, ptr nonnull %gtest_ar150) #23
  br i1 %tobool.i669.not, label %cleanup.cont276, label %cleanup.cont180

cleanup.cont180:                                  ; preds = %_ZN7testing15AssertionResultD2Ev.exit706
  call void @llvm.lifetime.start.p0(i64 16, ptr nonnull %gtest_ar182) #23
  call void @llvm.lifetime.start.p0(i64 24, ptr nonnull %ref.tmp183) #23
  %178 = load ptr, ptr @_ZN9benchmark8internal12_GLOBAL__N_15queueE, align 8, !tbaa !15
  call fastcc void @_ZN9benchmark8internal12_GLOBAL__N_110EventQueue3GetEv(ptr noalias nonnull align 8 %ref.tmp183, ptr noundef nonnull align 8 dereferenceable(48) %178)
  invoke void @_ZN7testing8internal11CmpHelperEQIA13_cNSt3__112basic_stringIcNS3_11char_traitsIcEENS3_9allocatorIcEEEEEENS_15AssertionResultEPKcSC_RKT_RKT0_(ptr nonnull sret(%"class.testing::AssertionResult") align 8 %gtest_ar182, ptr noundef nonnull @.str.28, ptr noundef nonnull @.str.16, ptr noundef nonnull align 1 dereferenceable(13) @.str.29, ptr noundef nonnull align 8 dereferenceable(24) %ref.tmp183)
          to label %invoke.cont185 unwind label %lpad184

invoke.cont185:                                   ; preds = %cleanup.cont180
  %bf.load.i.i708 = load i8, ptr %ref.tmp183, align 8
  %bf.clear.i.i709 = and i8 %bf.load.i.i708, 1
  %tobool.i.not.i710 = icmp eq i8 %bf.clear.i.i709, 0
  br i1 %tobool.i.not.i710, label %_ZNSt3__112basic_stringIcNS_11char_traitsIcEENS_9allocatorIcEEED2Ev.exit713, label %if.then.i712

if.then.i712:                                     ; preds = %invoke.cont185
  %__data_.i.i711 = getelementptr inbounds %"struct.std::__1::basic_string<char>::__long", ptr %ref.tmp183, i64 0, i32 2
  %179 = load ptr, ptr %__data_.i.i711, align 8, !tbaa !25
  call void @_ZdlPv(ptr noundef %179) #24
  br label %_ZNSt3__112basic_stringIcNS_11char_traitsIcEENS_9allocatorIcEEED2Ev.exit713

_ZNSt3__112basic_stringIcNS_11char_traitsIcEENS_9allocatorIcEEED2Ev.exit713: ; preds = %invoke.cont185, %if.then.i712
  call void @llvm.lifetime.end.p0(i64 24, ptr nonnull %ref.tmp183) #23
  %180 = load i8, ptr %gtest_ar182, align 8, !tbaa !45, !range !51, !noundef !52
  %tobool.i714.not = icmp eq i8 %180, 0
  br i1 %tobool.i714.not, label %if.else192, label %cleanup.cont212

ehcleanup181:                                     ; preds = %ehcleanup174, %_ZNSt3__112basic_stringIcNS_11char_traitsIcEENS_9allocatorIcEEED2Ev.exit675
  %.pn305.pn.pn = phi { ptr, i32 } [ %.pn305.pn, %ehcleanup174 ], [ %165, %_ZNSt3__112basic_stringIcNS_11char_traitsIcEENS_9allocatorIcEEED2Ev.exit675 ]
  call void @llvm.lifetime.end.p0(i64 16, ptr nonnull %gtest_ar150) #23
  br label %eh.resume

lpad184:                                          ; preds = %cleanup.cont180
  %181 = landingpad { ptr, i32 }
          cleanup
  %bf.load.i.i715 = load i8, ptr %ref.tmp183, align 8
  %bf.clear.i.i716 = and i8 %bf.load.i.i715, 1
  %tobool.i.not.i717 = icmp eq i8 %bf.clear.i.i716, 0
  br i1 %tobool.i.not.i717, label %_ZNSt3__112basic_stringIcNS_11char_traitsIcEENS_9allocatorIcEEED2Ev.exit720, label %if.then.i719

if.then.i719:                                     ; preds = %lpad184
  %__data_.i.i718 = getelementptr inbounds %"struct.std::__1::basic_string<char>::__long", ptr %ref.tmp183, i64 0, i32 2
  %182 = load ptr, ptr %__data_.i.i718, align 8, !tbaa !25
  call void @_ZdlPv(ptr noundef %182) #24
  br label %_ZNSt3__112basic_stringIcNS_11char_traitsIcEENS_9allocatorIcEEED2Ev.exit720

_ZNSt3__112basic_stringIcNS_11char_traitsIcEENS_9allocatorIcEEED2Ev.exit720: ; preds = %lpad184, %if.then.i719
  call void @llvm.lifetime.end.p0(i64 24, ptr nonnull %ref.tmp183) #23
  br label %ehcleanup213

if.else192:                                       ; preds = %_ZNSt3__112basic_stringIcNS_11char_traitsIcEENS_9allocatorIcEEED2Ev.exit713
  call void @llvm.lifetime.start.p0(i64 8, ptr nonnull %ref.tmp193) #23
  invoke void @_ZN7testing7MessageC1Ev(ptr noundef nonnull align 8 dereferenceable(8) %ref.tmp193)
          to label %invoke.cont195 unwind label %lpad194

invoke.cont195:                                   ; preds = %if.else192
  call void @llvm.lifetime.start.p0(i64 8, ptr nonnull %ref.tmp196) #23
  %message_.i.i721 = getelementptr inbounds %"class.testing::AssertionResult", ptr %gtest_ar182, i64 0, i32 1
  %183 = load ptr, ptr %message_.i.i721, align 8, !tbaa !15
  %cmp.not.i.i722 = icmp eq ptr %183, null
  br i1 %cmp.not.i.i722, label %invoke.cont198, label %cond.true.i.i729

cond.true.i.i729:                                 ; preds = %invoke.cont195
  %bf.load.i.i.i.i.i.i723 = load i8, ptr %183, align 8
  %bf.clear.i.i.i.i.i.i724 = and i8 %bf.load.i.i.i.i.i.i723, 1
  %tobool.i.not.i.i.i.i.i725 = icmp eq i8 %bf.clear.i.i.i.i.i.i724, 0
  %__data_.i.i.i.i.i.i726 = getelementptr inbounds %"struct.std::__1::basic_string<char>::__long", ptr %183, i64 0, i32 2
  %184 = load ptr, ptr %__data_.i.i.i.i.i.i726, align 8
  %__data_.i4.i.i.i.i.i727 = getelementptr inbounds %"struct.std::__1::basic_string<char>::__short", ptr %183, i64 0, i32 2
  %cond.i.i.i.i.i728 = select i1 %tobool.i.not.i.i.i.i.i725, ptr %__data_.i4.i.i.i.i.i727, ptr %184
  br label %invoke.cont198

invoke.cont198:                                   ; preds = %cond.true.i.i729, %invoke.cont195
  %cond.i.i730 = phi ptr [ %cond.i.i.i.i.i728, %cond.true.i.i729 ], [ @.str.36, %invoke.cont195 ]
  invoke void @_ZN7testing8internal12AssertHelperC1ENS_14TestPartResult4TypeEPKciS5_(ptr noundef nonnull align 8 dereferenceable(8) %ref.tmp196, i32 noundef 2, ptr noundef nonnull @.str.6, i32 noundef 86, ptr noundef %cond.i.i730)
          to label %invoke.cont200 unwind label %lpad197

invoke.cont200:                                   ; preds = %invoke.cont198
  invoke void @_ZNK7testing8internal12AssertHelperaSERKNS_7MessageE(ptr noundef nonnull align 8 dereferenceable(8) %ref.tmp196, ptr noundef nonnull align 8 dereferenceable(8) %ref.tmp193)
          to label %invoke.cont202 unwind label %lpad201

invoke.cont202:                                   ; preds = %invoke.cont200
  call void @_ZN7testing8internal12AssertHelperD1Ev(ptr noundef nonnull align 8 dereferenceable(8) %ref.tmp196) #23
  call void @llvm.lifetime.end.p0(i64 8, ptr nonnull %ref.tmp196) #23
  %185 = load ptr, ptr %ref.tmp193, align 8, !tbaa !15
  store ptr null, ptr %ref.tmp193, align 8, !tbaa !15
  %tobool.not.i.i.i732 = icmp eq ptr %185, null
  br i1 %tobool.not.i.i.i732, label %cleanup208, label %_ZNKSt3__114default_deleteINS_18basic_stringstreamIcNS_11char_traitsIcEENS_9allocatorIcEEEEEclB7v170000EPS6_.exit.i.i.i735

_ZNKSt3__114default_deleteINS_18basic_stringstreamIcNS_11char_traitsIcEENS_9allocatorIcEEEEEclB7v170000EPS6_.exit.i.i.i735: ; preds = %invoke.cont202
  %vtable.i.i.i.i733 = load ptr, ptr %185, align 8, !tbaa !40
  %vfn.i.i.i.i734 = getelementptr inbounds ptr, ptr %vtable.i.i.i.i733, i64 1
  %186 = load ptr, ptr %vfn.i.i.i.i734, align 8
  call void %186(ptr noundef nonnull align 8 dereferenceable(128) %185) #23
  br label %cleanup208

lpad194:                                          ; preds = %if.else192
  %187 = landingpad { ptr, i32 }
          cleanup
  br label %ehcleanup206

lpad197:                                          ; preds = %invoke.cont198
  %188 = landingpad { ptr, i32 }
          cleanup
  br label %ehcleanup204

lpad201:                                          ; preds = %invoke.cont200
  %189 = landingpad { ptr, i32 }
          cleanup
  call void @_ZN7testing8internal12AssertHelperD1Ev(ptr noundef nonnull align 8 dereferenceable(8) %ref.tmp196) #23
  br label %ehcleanup204

ehcleanup204:                                     ; preds = %lpad201, %lpad197
  %.pn309 = phi { ptr, i32 } [ %189, %lpad201 ], [ %188, %lpad197 ]
  call void @llvm.lifetime.end.p0(i64 8, ptr nonnull %ref.tmp196) #23
  %190 = load ptr, ptr %ref.tmp193, align 8, !tbaa !15
  store ptr null, ptr %ref.tmp193, align 8, !tbaa !15
  %tobool.not.i.i.i737 = icmp eq ptr %190, null
  br i1 %tobool.not.i.i.i737, label %ehcleanup206, label %_ZNKSt3__114default_deleteINS_18basic_stringstreamIcNS_11char_traitsIcEENS_9allocatorIcEEEEEclB7v170000EPS6_.exit.i.i.i740

_ZNKSt3__114default_deleteINS_18basic_stringstreamIcNS_11char_traitsIcEENS_9allocatorIcEEEEEclB7v170000EPS6_.exit.i.i.i740: ; preds = %ehcleanup204
  %vtable.i.i.i.i738 = load ptr, ptr %190, align 8, !tbaa !40
  %vfn.i.i.i.i739 = getelementptr inbounds ptr, ptr %vtable.i.i.i.i738, i64 1
  %191 = load ptr, ptr %vfn.i.i.i.i739, align 8
  call void %191(ptr noundef nonnull align 8 dereferenceable(128) %190) #23
  br label %ehcleanup206

ehcleanup206:                                     ; preds = %_ZNKSt3__114default_deleteINS_18basic_stringstreamIcNS_11char_traitsIcEENS_9allocatorIcEEEEEclB7v170000EPS6_.exit.i.i.i740, %ehcleanup204, %lpad194
  %.pn309.pn = phi { ptr, i32 } [ %187, %lpad194 ], [ %.pn309, %ehcleanup204 ], [ %.pn309, %_ZNKSt3__114default_deleteINS_18basic_stringstreamIcNS_11char_traitsIcEENS_9allocatorIcEEEEEclB7v170000EPS6_.exit.i.i.i740 ]
  call void @llvm.lifetime.end.p0(i64 8, ptr nonnull %ref.tmp193) #23
  call void @_ZN7testing15AssertionResultD2Ev(ptr noundef nonnull align 8 dereferenceable(16) %gtest_ar182) #23
  br label %ehcleanup213

cleanup208:                                       ; preds = %_ZNKSt3__114default_deleteINS_18basic_stringstreamIcNS_11char_traitsIcEENS_9allocatorIcEEEEEclB7v170000EPS6_.exit.i.i.i735, %invoke.cont202
  call void @llvm.lifetime.end.p0(i64 8, ptr nonnull %ref.tmp193) #23
  call void @_ZN7testing15AssertionResultD2Ev(ptr noundef nonnull align 8 dereferenceable(16) %gtest_ar182) #23
  call void @llvm.lifetime.end.p0(i64 16, ptr nonnull %gtest_ar182) #23
  br label %cleanup.cont276

cleanup.cont212:                                  ; preds = %_ZNSt3__112basic_stringIcNS_11char_traitsIcEENS_9allocatorIcEEED2Ev.exit713
  call void @_ZN7testing15AssertionResultD2Ev(ptr noundef nonnull align 8 dereferenceable(16) %gtest_ar182) #23
  call void @llvm.lifetime.end.p0(i64 16, ptr nonnull %gtest_ar182) #23
  call void @llvm.lifetime.start.p0(i64 16, ptr nonnull %gtest_ar214) #23
  call void @llvm.lifetime.start.p0(i64 24, ptr nonnull %ref.tmp215) #23
  %192 = load ptr, ptr @_ZN9benchmark8internal12_GLOBAL__N_15queueE, align 8, !tbaa !15
  call fastcc void @_ZN9benchmark8internal12_GLOBAL__N_110EventQueue3GetEv(ptr noalias nonnull align 8 %ref.tmp215, ptr noundef nonnull align 8 dereferenceable(48) %192)
  invoke void @_ZN7testing8internal11CmpHelperEQIA14_cNSt3__112basic_stringIcNS3_11char_traitsIcEENS3_9allocatorIcEEEEEENS_15AssertionResultEPKcSC_RKT_RKT0_(ptr nonnull sret(%"class.testing::AssertionResult") align 8 %gtest_ar214, ptr noundef nonnull @.str.30, ptr noundef nonnull @.str.16, ptr noundef nonnull align 1 dereferenceable(14) @.str.31, ptr noundef nonnull align 8 dereferenceable(24) %ref.tmp215)
          to label %invoke.cont217 unwind label %lpad216

invoke.cont217:                                   ; preds = %cleanup.cont212
  %bf.load.i.i742 = load i8, ptr %ref.tmp215, align 8
  %bf.clear.i.i743 = and i8 %bf.load.i.i742, 1
  %tobool.i.not.i744 = icmp eq i8 %bf.clear.i.i743, 0
  br i1 %tobool.i.not.i744, label %_ZNSt3__112basic_stringIcNS_11char_traitsIcEENS_9allocatorIcEEED2Ev.exit747, label %if.then.i746

if.then.i746:                                     ; preds = %invoke.cont217
  %__data_.i.i745 = getelementptr inbounds %"struct.std::__1::basic_string<char>::__long", ptr %ref.tmp215, i64 0, i32 2
  %193 = load ptr, ptr %__data_.i.i745, align 8, !tbaa !25
  call void @_ZdlPv(ptr noundef %193) #24
  br label %_ZNSt3__112basic_stringIcNS_11char_traitsIcEENS_9allocatorIcEEED2Ev.exit747

_ZNSt3__112basic_stringIcNS_11char_traitsIcEENS_9allocatorIcEEED2Ev.exit747: ; preds = %invoke.cont217, %if.then.i746
  call void @llvm.lifetime.end.p0(i64 24, ptr nonnull %ref.tmp215) #23
  %194 = load i8, ptr %gtest_ar214, align 8, !tbaa !45, !range !51, !noundef !52
  %tobool.i748.not = icmp eq i8 %194, 0
  br i1 %tobool.i748.not, label %if.else224, label %cleanup.cont244

ehcleanup213:                                     ; preds = %ehcleanup206, %_ZNSt3__112basic_stringIcNS_11char_traitsIcEENS_9allocatorIcEEED2Ev.exit720
  %.pn309.pn.pn = phi { ptr, i32 } [ %.pn309.pn, %ehcleanup206 ], [ %181, %_ZNSt3__112basic_stringIcNS_11char_traitsIcEENS_9allocatorIcEEED2Ev.exit720 ]
  call void @llvm.lifetime.end.p0(i64 16, ptr nonnull %gtest_ar182) #23
  br label %eh.resume

lpad216:                                          ; preds = %cleanup.cont212
  %195 = landingpad { ptr, i32 }
          cleanup
  %bf.load.i.i749 = load i8, ptr %ref.tmp215, align 8
  %bf.clear.i.i750 = and i8 %bf.load.i.i749, 1
  %tobool.i.not.i751 = icmp eq i8 %bf.clear.i.i750, 0
  br i1 %tobool.i.not.i751, label %_ZNSt3__112basic_stringIcNS_11char_traitsIcEENS_9allocatorIcEEED2Ev.exit754, label %if.then.i753

if.then.i753:                                     ; preds = %lpad216
  %__data_.i.i752 = getelementptr inbounds %"struct.std::__1::basic_string<char>::__long", ptr %ref.tmp215, i64 0, i32 2
  %196 = load ptr, ptr %__data_.i.i752, align 8, !tbaa !25
  call void @_ZdlPv(ptr noundef %196) #24
  br label %_ZNSt3__112basic_stringIcNS_11char_traitsIcEENS_9allocatorIcEEED2Ev.exit754

_ZNSt3__112basic_stringIcNS_11char_traitsIcEENS_9allocatorIcEEED2Ev.exit754: ; preds = %lpad216, %if.then.i753
  call void @llvm.lifetime.end.p0(i64 24, ptr nonnull %ref.tmp215) #23
  br label %ehcleanup245

if.else224:                                       ; preds = %_ZNSt3__112basic_stringIcNS_11char_traitsIcEENS_9allocatorIcEEED2Ev.exit747
  call void @llvm.lifetime.start.p0(i64 8, ptr nonnull %ref.tmp225) #23
  invoke void @_ZN7testing7MessageC1Ev(ptr noundef nonnull align 8 dereferenceable(8) %ref.tmp225)
          to label %invoke.cont227 unwind label %lpad226

invoke.cont227:                                   ; preds = %if.else224
  call void @llvm.lifetime.start.p0(i64 8, ptr nonnull %ref.tmp228) #23
  %message_.i.i755 = getelementptr inbounds %"class.testing::AssertionResult", ptr %gtest_ar214, i64 0, i32 1
  %197 = load ptr, ptr %message_.i.i755, align 8, !tbaa !15
  %cmp.not.i.i756 = icmp eq ptr %197, null
  br i1 %cmp.not.i.i756, label %invoke.cont230, label %cond.true.i.i763

cond.true.i.i763:                                 ; preds = %invoke.cont227
  %bf.load.i.i.i.i.i.i757 = load i8, ptr %197, align 8
  %bf.clear.i.i.i.i.i.i758 = and i8 %bf.load.i.i.i.i.i.i757, 1
  %tobool.i.not.i.i.i.i.i759 = icmp eq i8 %bf.clear.i.i.i.i.i.i758, 0
  %__data_.i.i.i.i.i.i760 = getelementptr inbounds %"struct.std::__1::basic_string<char>::__long", ptr %197, i64 0, i32 2
  %198 = load ptr, ptr %__data_.i.i.i.i.i.i760, align 8
  %__data_.i4.i.i.i.i.i761 = getelementptr inbounds %"struct.std::__1::basic_string<char>::__short", ptr %197, i64 0, i32 2
  %cond.i.i.i.i.i762 = select i1 %tobool.i.not.i.i.i.i.i759, ptr %__data_.i4.i.i.i.i.i761, ptr %198
  br label %invoke.cont230

invoke.cont230:                                   ; preds = %cond.true.i.i763, %invoke.cont227
  %cond.i.i764 = phi ptr [ %cond.i.i.i.i.i762, %cond.true.i.i763 ], [ @.str.36, %invoke.cont227 ]
  invoke void @_ZN7testing8internal12AssertHelperC1ENS_14TestPartResult4TypeEPKciS5_(ptr noundef nonnull align 8 dereferenceable(8) %ref.tmp228, i32 noundef 2, ptr noundef nonnull @.str.6, i32 noundef 87, ptr noundef %cond.i.i764)
          to label %invoke.cont232 unwind label %lpad229

invoke.cont232:                                   ; preds = %invoke.cont230
  invoke void @_ZNK7testing8internal12AssertHelperaSERKNS_7MessageE(ptr noundef nonnull align 8 dereferenceable(8) %ref.tmp228, ptr noundef nonnull align 8 dereferenceable(8) %ref.tmp225)
          to label %invoke.cont234 unwind label %lpad233

invoke.cont234:                                   ; preds = %invoke.cont232
  call void @_ZN7testing8internal12AssertHelperD1Ev(ptr noundef nonnull align 8 dereferenceable(8) %ref.tmp228) #23
  call void @llvm.lifetime.end.p0(i64 8, ptr nonnull %ref.tmp228) #23
  %199 = load ptr, ptr %ref.tmp225, align 8, !tbaa !15
  store ptr null, ptr %ref.tmp225, align 8, !tbaa !15
  %tobool.not.i.i.i766 = icmp eq ptr %199, null
  br i1 %tobool.not.i.i.i766, label %cleanup240, label %_ZNKSt3__114default_deleteINS_18basic_stringstreamIcNS_11char_traitsIcEENS_9allocatorIcEEEEEclB7v170000EPS6_.exit.i.i.i769

_ZNKSt3__114default_deleteINS_18basic_stringstreamIcNS_11char_traitsIcEENS_9allocatorIcEEEEEclB7v170000EPS6_.exit.i.i.i769: ; preds = %invoke.cont234
  %vtable.i.i.i.i767 = load ptr, ptr %199, align 8, !tbaa !40
  %vfn.i.i.i.i768 = getelementptr inbounds ptr, ptr %vtable.i.i.i.i767, i64 1
  %200 = load ptr, ptr %vfn.i.i.i.i768, align 8
  call void %200(ptr noundef nonnull align 8 dereferenceable(128) %199) #23
  br label %cleanup240

lpad226:                                          ; preds = %if.else224
  %201 = landingpad { ptr, i32 }
          cleanup
  br label %ehcleanup238

lpad229:                                          ; preds = %invoke.cont230
  %202 = landingpad { ptr, i32 }
          cleanup
  br label %ehcleanup236

lpad233:                                          ; preds = %invoke.cont232
  %203 = landingpad { ptr, i32 }
          cleanup
  call void @_ZN7testing8internal12AssertHelperD1Ev(ptr noundef nonnull align 8 dereferenceable(8) %ref.tmp228) #23
  br label %ehcleanup236

ehcleanup236:                                     ; preds = %lpad233, %lpad229
  %.pn313 = phi { ptr, i32 } [ %203, %lpad233 ], [ %202, %lpad229 ]
  call void @llvm.lifetime.end.p0(i64 8, ptr nonnull %ref.tmp228) #23
  %204 = load ptr, ptr %ref.tmp225, align 8, !tbaa !15
  store ptr null, ptr %ref.tmp225, align 8, !tbaa !15
  %tobool.not.i.i.i771 = icmp eq ptr %204, null
  br i1 %tobool.not.i.i.i771, label %ehcleanup238, label %_ZNKSt3__114default_deleteINS_18basic_stringstreamIcNS_11char_traitsIcEENS_9allocatorIcEEEEEclB7v170000EPS6_.exit.i.i.i774

_ZNKSt3__114default_deleteINS_18basic_stringstreamIcNS_11char_traitsIcEENS_9allocatorIcEEEEEclB7v170000EPS6_.exit.i.i.i774: ; preds = %ehcleanup236
  %vtable.i.i.i.i772 = load ptr, ptr %204, align 8, !tbaa !40
  %vfn.i.i.i.i773 = getelementptr inbounds ptr, ptr %vtable.i.i.i.i772, i64 1
  %205 = load ptr, ptr %vfn.i.i.i.i773, align 8
  call void %205(ptr noundef nonnull align 8 dereferenceable(128) %204) #23
  br label %ehcleanup238

ehcleanup238:                                     ; preds = %_ZNKSt3__114default_deleteINS_18basic_stringstreamIcNS_11char_traitsIcEENS_9allocatorIcEEEEEclB7v170000EPS6_.exit.i.i.i774, %ehcleanup236, %lpad226
  %.pn313.pn = phi { ptr, i32 } [ %201, %lpad226 ], [ %.pn313, %ehcleanup236 ], [ %.pn313, %_ZNKSt3__114default_deleteINS_18basic_stringstreamIcNS_11char_traitsIcEENS_9allocatorIcEEEEEclB7v170000EPS6_.exit.i.i.i774 ]
  call void @llvm.lifetime.end.p0(i64 8, ptr nonnull %ref.tmp225) #23
  call void @_ZN7testing15AssertionResultD2Ev(ptr noundef nonnull align 8 dereferenceable(16) %gtest_ar214) #23
  br label %ehcleanup245

cleanup240:                                       ; preds = %_ZNKSt3__114default_deleteINS_18basic_stringstreamIcNS_11char_traitsIcEENS_9allocatorIcEEEEEclB7v170000EPS6_.exit.i.i.i769, %invoke.cont234
  call void @llvm.lifetime.end.p0(i64 8, ptr nonnull %ref.tmp225) #23
  call void @_ZN7testing15AssertionResultD2Ev(ptr noundef nonnull align 8 dereferenceable(16) %gtest_ar214) #23
  call void @llvm.lifetime.end.p0(i64 16, ptr nonnull %gtest_ar214) #23
  br label %cleanup.cont276

cleanup.cont244:                                  ; preds = %_ZNSt3__112basic_stringIcNS_11char_traitsIcEENS_9allocatorIcEEED2Ev.exit747
  call void @_ZN7testing15AssertionResultD2Ev(ptr noundef nonnull align 8 dereferenceable(16) %gtest_ar214) #23
  call void @llvm.lifetime.end.p0(i64 16, ptr nonnull %gtest_ar214) #23
  call void @llvm.lifetime.start.p0(i64 16, ptr nonnull %gtest_ar246) #23
  call void @llvm.lifetime.start.p0(i64 24, ptr nonnull %ref.tmp247) #23
  %206 = load ptr, ptr @_ZN9benchmark8internal12_GLOBAL__N_15queueE, align 8, !tbaa !15
  call fastcc void @_ZN9benchmark8internal12_GLOBAL__N_110EventQueue3GetEv(ptr noalias nonnull align 8 %ref.tmp247, ptr noundef nonnull align 8 dereferenceable(48) %206)
  invoke void @_ZN7testing8internal11CmpHelperEQIA5_cNSt3__112basic_stringIcNS3_11char_traitsIcEENS3_9allocatorIcEEEEEENS_15AssertionResultEPKcSC_RKT_RKT0_(ptr nonnull sret(%"class.testing::AssertionResult") align 8 %gtest_ar246, ptr noundef nonnull @.str.32, ptr noundef nonnull @.str.16, ptr noundef nonnull align 1 dereferenceable(5) @.str.33, ptr noundef nonnull align 8 dereferenceable(24) %ref.tmp247)
          to label %invoke.cont249 unwind label %lpad248

invoke.cont249:                                   ; preds = %cleanup.cont244
  %bf.load.i.i776 = load i8, ptr %ref.tmp247, align 8
  %bf.clear.i.i777 = and i8 %bf.load.i.i776, 1
  %tobool.i.not.i778 = icmp eq i8 %bf.clear.i.i777, 0
  br i1 %tobool.i.not.i778, label %_ZNSt3__112basic_stringIcNS_11char_traitsIcEENS_9allocatorIcEEED2Ev.exit781, label %if.then.i780

if.then.i780:                                     ; preds = %invoke.cont249
  %__data_.i.i779 = getelementptr inbounds %"struct.std::__1::basic_string<char>::__long", ptr %ref.tmp247, i64 0, i32 2
  %207 = load ptr, ptr %__data_.i.i779, align 8, !tbaa !25
  call void @_ZdlPv(ptr noundef %207) #24
  br label %_ZNSt3__112basic_stringIcNS_11char_traitsIcEENS_9allocatorIcEEED2Ev.exit781

_ZNSt3__112basic_stringIcNS_11char_traitsIcEENS_9allocatorIcEEED2Ev.exit781: ; preds = %invoke.cont249, %if.then.i780
  call void @llvm.lifetime.end.p0(i64 24, ptr nonnull %ref.tmp247) #23
  %208 = load i8, ptr %gtest_ar246, align 8, !tbaa !45, !range !51, !noundef !52
  %tobool.i782.not = icmp eq i8 %208, 0
  br i1 %tobool.i782.not, label %if.else256, label %cleanup272

ehcleanup245:                                     ; preds = %ehcleanup238, %_ZNSt3__112basic_stringIcNS_11char_traitsIcEENS_9allocatorIcEEED2Ev.exit754
  %.pn313.pn.pn = phi { ptr, i32 } [ %.pn313.pn, %ehcleanup238 ], [ %195, %_ZNSt3__112basic_stringIcNS_11char_traitsIcEENS_9allocatorIcEEED2Ev.exit754 ]
  call void @llvm.lifetime.end.p0(i64 16, ptr nonnull %gtest_ar214) #23
  br label %eh.resume

lpad248:                                          ; preds = %cleanup.cont244
  %209 = landingpad { ptr, i32 }
          cleanup
  %bf.load.i.i783 = load i8, ptr %ref.tmp247, align 8
  %bf.clear.i.i784 = and i8 %bf.load.i.i783, 1
  %tobool.i.not.i785 = icmp eq i8 %bf.clear.i.i784, 0
  br i1 %tobool.i.not.i785, label %_ZNSt3__112basic_stringIcNS_11char_traitsIcEENS_9allocatorIcEEED2Ev.exit788, label %if.then.i787

if.then.i787:                                     ; preds = %lpad248
  %__data_.i.i786 = getelementptr inbounds %"struct.std::__1::basic_string<char>::__long", ptr %ref.tmp247, i64 0, i32 2
  %210 = load ptr, ptr %__data_.i.i786, align 8, !tbaa !25
  call void @_ZdlPv(ptr noundef %210) #24
  br label %_ZNSt3__112basic_stringIcNS_11char_traitsIcEENS_9allocatorIcEEED2Ev.exit788

_ZNSt3__112basic_stringIcNS_11char_traitsIcEENS_9allocatorIcEEED2Ev.exit788: ; preds = %lpad248, %if.then.i787
  call void @llvm.lifetime.end.p0(i64 24, ptr nonnull %ref.tmp247) #23
  br label %ehcleanup277

if.else256:                                       ; preds = %_ZNSt3__112basic_stringIcNS_11char_traitsIcEENS_9allocatorIcEEED2Ev.exit781
  call void @llvm.lifetime.start.p0(i64 8, ptr nonnull %ref.tmp257) #23
  invoke void @_ZN7testing7MessageC1Ev(ptr noundef nonnull align 8 dereferenceable(8) %ref.tmp257)
          to label %invoke.cont259 unwind label %lpad258

invoke.cont259:                                   ; preds = %if.else256
  call void @llvm.lifetime.start.p0(i64 8, ptr nonnull %ref.tmp260) #23
  %message_.i.i789 = getelementptr inbounds %"class.testing::AssertionResult", ptr %gtest_ar246, i64 0, i32 1
  %211 = load ptr, ptr %message_.i.i789, align 8, !tbaa !15
  %cmp.not.i.i790 = icmp eq ptr %211, null
  br i1 %cmp.not.i.i790, label %invoke.cont262, label %cond.true.i.i797

cond.true.i.i797:                                 ; preds = %invoke.cont259
  %bf.load.i.i.i.i.i.i791 = load i8, ptr %211, align 8
  %bf.clear.i.i.i.i.i.i792 = and i8 %bf.load.i.i.i.i.i.i791, 1
  %tobool.i.not.i.i.i.i.i793 = icmp eq i8 %bf.clear.i.i.i.i.i.i792, 0
  %__data_.i.i.i.i.i.i794 = getelementptr inbounds %"struct.std::__1::basic_string<char>::__long", ptr %211, i64 0, i32 2
  %212 = load ptr, ptr %__data_.i.i.i.i.i.i794, align 8
  %__data_.i4.i.i.i.i.i795 = getelementptr inbounds %"struct.std::__1::basic_string<char>::__short", ptr %211, i64 0, i32 2
  %cond.i.i.i.i.i796 = select i1 %tobool.i.not.i.i.i.i.i793, ptr %__data_.i4.i.i.i.i.i795, ptr %212
  br label %invoke.cont262

invoke.cont262:                                   ; preds = %cond.true.i.i797, %invoke.cont259
  %cond.i.i798 = phi ptr [ %cond.i.i.i.i.i796, %cond.true.i.i797 ], [ @.str.36, %invoke.cont259 ]
  invoke void @_ZN7testing8internal12AssertHelperC1ENS_14TestPartResult4TypeEPKciS5_(ptr noundef nonnull align 8 dereferenceable(8) %ref.tmp260, i32 noundef 2, ptr noundef nonnull @.str.6, i32 noundef 88, ptr noundef %cond.i.i798)
          to label %invoke.cont264 unwind label %lpad261

invoke.cont264:                                   ; preds = %invoke.cont262
  invoke void @_ZNK7testing8internal12AssertHelperaSERKNS_7MessageE(ptr noundef nonnull align 8 dereferenceable(8) %ref.tmp260, ptr noundef nonnull align 8 dereferenceable(8) %ref.tmp257)
          to label %invoke.cont266 unwind label %lpad265

invoke.cont266:                                   ; preds = %invoke.cont264
  call void @_ZN7testing8internal12AssertHelperD1Ev(ptr noundef nonnull align 8 dereferenceable(8) %ref.tmp260) #23
  call void @llvm.lifetime.end.p0(i64 8, ptr nonnull %ref.tmp260) #23
  %213 = load ptr, ptr %ref.tmp257, align 8, !tbaa !15
  store ptr null, ptr %ref.tmp257, align 8, !tbaa !15
  %tobool.not.i.i.i800 = icmp eq ptr %213, null
  br i1 %tobool.not.i.i.i800, label %_ZN7testing7MessageD2Ev.exit804, label %_ZNKSt3__114default_deleteINS_18basic_stringstreamIcNS_11char_traitsIcEENS_9allocatorIcEEEEEclB7v170000EPS6_.exit.i.i.i803

_ZNKSt3__114default_deleteINS_18basic_stringstreamIcNS_11char_traitsIcEENS_9allocatorIcEEEEEclB7v170000EPS6_.exit.i.i.i803: ; preds = %invoke.cont266
  %vtable.i.i.i.i801 = load ptr, ptr %213, align 8, !tbaa !40
  %vfn.i.i.i.i802 = getelementptr inbounds ptr, ptr %vtable.i.i.i.i801, i64 1
  %214 = load ptr, ptr %vfn.i.i.i.i802, align 8
  call void %214(ptr noundef nonnull align 8 dereferenceable(128) %213) #23
  br label %_ZN7testing7MessageD2Ev.exit804

_ZN7testing7MessageD2Ev.exit804:                  ; preds = %invoke.cont266, %_ZNKSt3__114default_deleteINS_18basic_stringstreamIcNS_11char_traitsIcEENS_9allocatorIcEEEEEclB7v170000EPS6_.exit.i.i.i803
  call void @llvm.lifetime.end.p0(i64 8, ptr nonnull %ref.tmp257) #23
  br label %cleanup272

lpad258:                                          ; preds = %if.else256
  %215 = landingpad { ptr, i32 }
          cleanup
  br label %ehcleanup270

lpad261:                                          ; preds = %invoke.cont262
  %216 = landingpad { ptr, i32 }
          cleanup
  br label %ehcleanup268

lpad265:                                          ; preds = %invoke.cont264
  %217 = landingpad { ptr, i32 }
          cleanup
  call void @_ZN7testing8internal12AssertHelperD1Ev(ptr noundef nonnull align 8 dereferenceable(8) %ref.tmp260) #23
  br label %ehcleanup268

ehcleanup268:                                     ; preds = %lpad265, %lpad261
  %.pn317 = phi { ptr, i32 } [ %217, %lpad265 ], [ %216, %lpad261 ]
  call void @llvm.lifetime.end.p0(i64 8, ptr nonnull %ref.tmp260) #23
  %218 = load ptr, ptr %ref.tmp257, align 8, !tbaa !15
  store ptr null, ptr %ref.tmp257, align 8, !tbaa !15
  %tobool.not.i.i.i805 = icmp eq ptr %218, null
  br i1 %tobool.not.i.i.i805, label %ehcleanup270, label %_ZNKSt3__114default_deleteINS_18basic_stringstreamIcNS_11char_traitsIcEENS_9allocatorIcEEEEEclB7v170000EPS6_.exit.i.i.i808

_ZNKSt3__114default_deleteINS_18basic_stringstreamIcNS_11char_traitsIcEENS_9allocatorIcEEEEEclB7v170000EPS6_.exit.i.i.i808: ; preds = %ehcleanup268
  %vtable.i.i.i.i806 = load ptr, ptr %218, align 8, !tbaa !40
  %vfn.i.i.i.i807 = getelementptr inbounds ptr, ptr %vtable.i.i.i.i806, i64 1
  %219 = load ptr, ptr %vfn.i.i.i.i807, align 8
  call void %219(ptr noundef nonnull align 8 dereferenceable(128) %218) #23
  br label %ehcleanup270

ehcleanup270:                                     ; preds = %_ZNKSt3__114default_deleteINS_18basic_stringstreamIcNS_11char_traitsIcEENS_9allocatorIcEEEEEclB7v170000EPS6_.exit.i.i.i808, %ehcleanup268, %lpad258
  %.pn317.pn = phi { ptr, i32 } [ %215, %lpad258 ], [ %.pn317, %ehcleanup268 ], [ %.pn317, %_ZNKSt3__114default_deleteINS_18basic_stringstreamIcNS_11char_traitsIcEENS_9allocatorIcEEEEEclB7v170000EPS6_.exit.i.i.i808 ]
  call void @llvm.lifetime.end.p0(i64 8, ptr nonnull %ref.tmp257) #23
  call void @_ZN7testing15AssertionResultD2Ev(ptr noundef nonnull align 8 dereferenceable(16) %gtest_ar246) #23
  br label %ehcleanup277

cleanup272:                                       ; preds = %_ZNSt3__112basic_stringIcNS_11char_traitsIcEENS_9allocatorIcEEED2Ev.exit781, %_ZN7testing7MessageD2Ev.exit804
  call void @_ZN7testing15AssertionResultD2Ev(ptr noundef nonnull align 8 dereferenceable(16) %gtest_ar246) #23
  call void @llvm.lifetime.end.p0(i64 16, ptr nonnull %gtest_ar246) #23
  br label %cleanup.cont276

cleanup.cont276:                                  ; preds = %cleanup240, %cleanup208, %_ZN7testing15AssertionResultD2Ev.exit706, %_ZN7testing15AssertionResultD2Ev.exit636, %_ZN7testing15AssertionResultD2Ev.exit566, %_ZN7testing15AssertionResultD2Ev.exit497, %_ZN7testing15AssertionResultD2Ev.exit427, %_ZN7testing15AssertionResultD2Ev.exit, %cleanup272
  ret void

ehcleanup277:                                     ; preds = %ehcleanup270, %_ZNSt3__112basic_stringIcNS_11char_traitsIcEENS_9allocatorIcEEED2Ev.exit788
  %.pn317.pn.pn = phi { ptr, i32 } [ %.pn317.pn, %ehcleanup270 ], [ %209, %_ZNSt3__112basic_stringIcNS_11char_traitsIcEENS_9allocatorIcEEED2Ev.exit788 ]
  call void @llvm.lifetime.end.p0(i64 16, ptr nonnull %gtest_ar246) #23
  br label %eh.resume

