; ModuleID = '/local/mnt2/workspace2/mnadeem/llvm/llvm-test-suite/MicroBenchmarks/LCALS/LCALSSuite.cxx'
source_filename = "/local/mnt2/workspace2/mnadeem/llvm/llvm-test-suite/MicroBenchmarks/LCALS/LCALSSuite.cxx"
target datalayout = "e-m:e-p270:32:32-p271:32:32-p272:64:64-i64:64-f80:128-n8:16:32:64-S128"
target triple = "x86_64-unknown-linux-gnu"

%"class.std::__1::basic_ostream" = type { ptr, %"class.std::__1::basic_ios.base" }
%"class.std::__1::basic_ios.base" = type <{ %"class.std::__1::ios_base", ptr, i32 }>
%"class.std::__1::ios_base" = type { ptr, i32, i64, i64, i32, i32, ptr, ptr, ptr, ptr, i64, i64, ptr, i64, i64, ptr, i64, i64 }
%"class.std::__1::locale::id" = type <{ %"struct.std::__1::once_flag", i32, [4 x i8] }>
%"struct.std::__1::once_flag" = type { i64 }
%"struct.std::__1::__split_buffer.155" = type { ptr, ptr, ptr, %"class.std::__1::__compressed_pair.156" }
%"class.std::__1::__compressed_pair.156" = type { %"struct.std::__1::__compressed_pair_elem.70", %"struct.std::__1::__compressed_pair_elem.157" }
%"struct.std::__1::__compressed_pair_elem.70" = type { ptr }
%"struct.std::__1::__compressed_pair_elem.157" = type { ptr }
%"class.std::__1::locale" = type { ptr }
%"struct.std::__1::pair.75" = type { %"class.std::__1::basic_string", ptr }
%"class.std::__1::basic_string" = type { %"class.std::__1::__compressed_pair.2" }
%"class.std::__1::__compressed_pair.2" = type { %"struct.std::__1::__compressed_pair_elem.3" }
%"struct.std::__1::__compressed_pair_elem.3" = type { %"struct.std::__1::basic_string<char>::__rep" }
%"struct.std::__1::basic_string<char>::__rep" = type { %union.anon }
%union.anon = type { %"struct.std::__1::basic_string<char>::__long" }
%"struct.std::__1::basic_string<char>::__long" = type { %struct.anon, i64, ptr }
%struct.anon = type { i64 }
%"class.std::__1::vector.1" = type { ptr, ptr, %"class.std::__1::__compressed_pair.9" }
%"class.std::__1::__compressed_pair.9" = type { %"struct.std::__1::__compressed_pair_elem.10" }
%"struct.std::__1::__compressed_pair_elem.10" = type { ptr }
%class.LoopStat = type { i8, double, %"class.std::__1::vector.22", %"class.std::__1::vector.36", %"class.std::__1::vector.23", %"class.std::__1::vector.23", %"class.std::__1::vector.23", %"class.std::__1::vector.23", %"class.std::__1::vector.23", %"class.std::__1::vector.23", %"class.std::__1::vector.39", %"class.std::__1::vector.39", %"class.std::__1::vector.23" }
%"class.std::__1::vector.22" = type { ptr, ptr, %"class.std::__1::__compressed_pair.30" }
%"class.std::__1::__compressed_pair.30" = type { %"struct.std::__1::__compressed_pair_elem.31" }
%"struct.std::__1::__compressed_pair_elem.31" = type { ptr }
%"class.std::__1::vector.36" = type { ptr, ptr, %"class.std::__1::__compressed_pair.37" }
%"class.std::__1::__compressed_pair.37" = type { %"struct.std::__1::__compressed_pair_elem.38" }
%"struct.std::__1::__compressed_pair_elem.38" = type { ptr }
%"class.std::__1::vector.39" = type { ptr, ptr, %"class.std::__1::__compressed_pair.40" }
%"class.std::__1::__compressed_pair.40" = type { %"struct.std::__1::__compressed_pair_elem.41" }
%"struct.std::__1::__compressed_pair_elem.41" = type { ptr }
%"class.std::__1::vector.23" = type { ptr, ptr, %"class.std::__1::__compressed_pair.24" }
%"class.std::__1::__compressed_pair.24" = type { %"struct.std::__1::__compressed_pair_elem.25" }
%"struct.std::__1::__compressed_pair_elem.25" = type { ptr }
%class.LoopSuiteRunInfo = type <{ %"class.std::__1::basic_string", i32, [4 x i8], %"class.std::__1::vector.1", i32, [4 x i8], %"class.std::__1::vector.15", %"class.std::__1::vector.1", i32, [4 x i8], double, %class.LoopStat, %"class.std::__1::vector.46", %"class.std::__1::vector.53", %"class.std::__1::vector.22", %"class.std::__1::vector.22", %"class.std::__1::vector.22", i64, ptr, x86_fp80, %"class.std::__1::map", [8 x i8] }>
%"class.std::__1::vector.15" = type { ptr, i64, %"class.std::__1::__compressed_pair.16" }
%"class.std::__1::__compressed_pair.16" = type { %"struct.std::__1::__compressed_pair_elem.17" }
%"struct.std::__1::__compressed_pair_elem.17" = type { i64 }
%"class.std::__1::vector.46" = type { ptr, ptr, %"class.std::__1::__compressed_pair.47" }
%"class.std::__1::__compressed_pair.47" = type { %"struct.std::__1::__compressed_pair_elem.48" }
%"struct.std::__1::__compressed_pair_elem.48" = type { ptr }
%"class.std::__1::vector.53" = type { ptr, ptr, %"class.std::__1::__compressed_pair.54" }
%"class.std::__1::__compressed_pair.54" = type { %"struct.std::__1::__compressed_pair_elem.55" }
%"struct.std::__1::__compressed_pair_elem.55" = type { ptr }
%"class.std::__1::map" = type { %"class.std::__1::__tree" }
%"class.std::__1::__tree" = type { ptr, %"class.std::__1::__compressed_pair.60", %"class.std::__1::__compressed_pair.66" }
%"class.std::__1::__compressed_pair.60" = type { %"struct.std::__1::__compressed_pair_elem.61" }
%"struct.std::__1::__compressed_pair_elem.61" = type { %"class.std::__1::__tree_end_node" }
%"class.std::__1::__tree_end_node" = type { ptr }
%"class.std::__1::__compressed_pair.66" = type { %"struct.std::__1::__compressed_pair_elem.17" }
%"struct.std::__1::basic_string<char>::__short" = type { %struct.anon.4, [0 x i8], [23 x i8] }
%struct.anon.4 = type { i8 }
%"class.std::__1::__tree_node" = type { %"class.std::__1::__tree_node_base.base", %"struct.std::__1::__value_type" }
%"class.std::__1::__tree_node_base.base" = type <{ %"class.std::__1::__tree_end_node", ptr, ptr, i8 }>
%"struct.std::__1::__value_type" = type { %"struct.std::__1::pair.75" }
%"class.std::__1::__tree_node_base" = type <{ %"class.std::__1::__tree_end_node", ptr, ptr, i8, [7 x i8] }>
%"class.std::__1::vector.68" = type { ptr, ptr, %"class.std::__1::__compressed_pair.69" }
%"class.std::__1::__compressed_pair.69" = type { %"struct.std::__1::__compressed_pair_elem.70" }
%"class.std::__1::vector" = type { ptr, ptr, %"class.std::__1::__compressed_pair" }
%"class.std::__1::__compressed_pair" = type { %"struct.std::__1::__compressed_pair_elem" }
%"struct.std::__1::__compressed_pair_elem" = type { ptr }
%"struct.std::__1::__exception_guard_exceptions" = type <{ %"class.std::__1::vector<std::__1::vector<long double>>::__destroy_vector", i8, [7 x i8] }>
%"class.std::__1::vector<std::__1::vector<long double>>::__destroy_vector" = type { ptr }
%struct.LoopData = type { i32, [16 x ptr], [2 x ptr], [5 x ptr], [5 x ptr], [4 x ptr], [11 x ptr], [1 x ptr], [3 x ptr], [10 x double], [16 x %"struct.LoopData::RealArray"], [2 x %"struct.LoopData::RealArray"], [5 x %"struct.LoopData::IndxArray"], [5 x %"struct.LoopData::ComplexArray"], [4 x %"struct.LoopData::RealArray"], [11 x %"struct.LoopData::RealArray"], [1 x %"struct.LoopData::RealArray"], [3 x %"struct.LoopData::RealArray"], %"struct.LoopData::RealArray" }
%"struct.LoopData::IndxArray" = type { i32, ptr, i32 }
%"struct.LoopData::ComplexArray" = type { i32, ptr, i32 }
%"struct.LoopData::RealArray" = type { i32, ptr, i32 }
%"class.std::__1::complex" = type { double, double }
%struct.stat = type { i64, i64, i64, i32, i32, i32, i32, i64, i64, i64, i64, %struct.timespec, %struct.timespec, %struct.timespec, [3 x i64] }
%struct.timespec = type { i64, i64 }
%"struct.std::__1::__split_buffer.94" = type { ptr, ptr, ptr, %"class.std::__1::__compressed_pair.95" }
%"class.std::__1::__compressed_pair.95" = type { %"struct.std::__1::__compressed_pair_elem.10", %"struct.std::__1::__compressed_pair_elem.96" }
%"struct.std::__1::__compressed_pair_elem.96" = type { ptr }
%"class.std::__1::basic_ostream<char>::sentry" = type { i8, ptr }
%"class.std::__1::basic_ios" = type <{ %"class.std::__1::ios_base", ptr, i32, [4 x i8] }>
%"struct.std::__1::__exception_guard_exceptions.141" = type <{ %"class.std::__1::_AllocatorDestroyRangeReverse.142", i8, [7 x i8] }>
%"class.std::__1::_AllocatorDestroyRangeReverse.142" = type { ptr, ptr, ptr }

$_ZN8LoopStatC2Ej = comdat any

$_ZN8LoopStatD2Ev = comdat any

$_ZNSt3__16vectorINS_12basic_stringIcNS_11char_traitsIcEENS_9allocatorIcEEEENS4_IS6_EEED2B7v170000Ev = comdat any

$__clang_call_terminate = comdat any

$_ZNSt3__16__treeINS_12__value_typeINS_12basic_stringIcNS_11char_traitsIcEENS_9allocatorIcEEEEPNS_6vectorI8LoopStatNS5_IS9_EEEEEENS_19__map_value_compareIS7_SD_NS_4lessIS7_EELb1EEENS5_ISD_EEE25__emplace_unique_key_argsIS7_JNS_4pairIKS7_SC_EEEEENSL_INS_15__tree_iteratorISD_PNS_11__tree_nodeISD_PvEElEEbEERKT_DpOT0_ = comdat any

$_ZNSt3__16__treeINS_12__value_typeINS_12basic_stringIcNS_11char_traitsIcEENS_9allocatorIcEEEEPNS_6vectorI8LoopStatNS5_IS9_EEEEEENS_19__map_value_compareIS7_SD_NS_4lessIS7_EELb1EEENS5_ISD_EEE12__find_equalIS7_EERPNS_16__tree_node_baseIPvEERPNS_15__tree_end_nodeISO_EERKT_ = comdat any

$_ZSt28__throw_bad_array_new_lengthB7v170000v = comdat any

$_ZNSt3__127__tree_balance_after_insertB7v170000IPNS_16__tree_node_baseIPvEEEEvT_S5_ = comdat any

$_ZNSt3__16vectorINS0_IeNS_9allocatorIeEEEENS1_IS3_EEED2B7v170000Ev = comdat any

$_ZNSt3__128__exception_guard_exceptionsINS_6vectorINS1_IeNS_9allocatorIeEEEENS2_IS4_EEE16__destroy_vectorEED2B7v170000Ev = comdat any

$_ZNKSt3__16vectorINS0_IeNS_9allocatorIeEEEENS1_IS3_EEE20__throw_length_errorB7v170000Ev = comdat any

$_ZNSt3__120__throw_length_errorB7v170000EPKc = comdat any

$_ZNSt12length_errorC2B7v170000EPKc = comdat any

$_ZNKSt3__16vectorImNS_9allocatorImEEE20__throw_length_errorB7v170000Ev = comdat any

$_ZNKSt3__16vectorIeNS_9allocatorIeEEE20__throw_length_errorB7v170000Ev = comdat any

$_ZNKSt3__16vectorIiNS_9allocatorIiEEE20__throw_length_errorB7v170000Ev = comdat any

$_ZNSt3__16vectorIdNS_9allocatorIdEEE8__appendEm = comdat any

$_ZNKSt3__16vectorIdNS_9allocatorIdEEE20__throw_length_errorB7v170000Ev = comdat any

$_ZNSt3__16vectorINS_12basic_stringIcNS_11char_traitsIcEENS_9allocatorIcEEEENS4_IS6_EEE8__appendEm = comdat any

$_ZNSt3__114__split_bufferINS_12basic_stringIcNS_11char_traitsIcEENS_9allocatorIcEEEERNS4_IS6_EEED2Ev = comdat any

$_ZNKSt3__16vectorINS_12basic_stringIcNS_11char_traitsIcEENS_9allocatorIcEEEENS4_IS6_EEE20__throw_length_errorB7v170000Ev = comdat any

$_ZNSt3__16vectorINS0_IiNS_9allocatorIiEEEENS1_IS3_EEE8__appendEm = comdat any

$_ZNKSt3__16vectorINS0_IiNS_9allocatorIiEEEENS1_IS3_EEE20__throw_length_errorB7v170000Ev = comdat any

$_ZNSt3__16vectorINS0_IeNS_9allocatorIeEEEENS1_IS3_EEE8__appendEm = comdat any

$_ZNSt3__16vectorIiNS_9allocatorIiEEE8__appendEmRKi = comdat any

$_ZNSt3__16vectorIeNS_9allocatorIeEEE8__appendEmRKe = comdat any

$_ZNSt3__124__put_character_sequenceB7v170000IcNS_11char_traitsIcEEEERNS_13basic_ostreamIT_T0_EES7_PKS4_m = comdat any

$_ZNSt3__116__pad_and_outputB7v170000IcNS_11char_traitsIcEEEENS_19ostreambuf_iteratorIT_T0_EES6_PKS4_S8_S8_RNS_8ios_baseES4_ = comdat any

$_ZNSt3__16vectorINS_12basic_stringIcNS_11char_traitsIcEENS_9allocatorIcEEEENS4_IS6_EEE21__push_back_slow_pathIRKS6_EEvOT_ = comdat any

$_ZN8LoopStatC2ERKS_ = comdat any

$_ZNSt3__130__uninitialized_allocator_copyB7v170000INS_9allocatorINS_6vectorIeNS1_IeEEEEEEPS4_S6_S6_EET2_RT_T0_T1_S7_ = comdat any

$_ZNSt3__128__exception_guard_exceptionsINS_29_AllocatorDestroyRangeReverseINS_9allocatorINS_6vectorIeNS2_IeEEEEEEPS5_EEED2B7v170000Ev = comdat any

$_ZNSt3__114__split_bufferI8LoopStatRNS_9allocatorIS1_EEED2Ev = comdat any

$_ZNKSt3__16vectorI8LoopStatNS_9allocatorIS1_EEE20__throw_length_errorB7v170000Ev = comdat any

@_ZN7ADomain18loop_length_factorE = dso_local local_unnamed_addr global double 1.000000e+00, align 8
@_ZL11s_loop_data = internal unnamed_addr global ptr null, align 8
@.str = private unnamed_addr constant [5 x i8] c"LONG\00", align 1
@.str.1 = private unnamed_addr constant [7 x i8] c"MEDIUM\00", align 1
@.str.2 = private unnamed_addr constant [6 x i8] c"SHORT\00", align 1
@.str.3 = private unnamed_addr constant [9 x i8] c"REF_LOOP\00", align 1
@.str.4 = private unnamed_addr constant [14 x i8] c"PRESSURE_CALC\00", align 1
@.str.5 = private unnamed_addr constant [18 x i8] c"PRESSURE_CALC_ALT\00", align 1
@.str.6 = private unnamed_addr constant [12 x i8] c"ENERGY_CALC\00", align 1
@.str.7 = private unnamed_addr constant [16 x i8] c"ENERGY_CALC_ALT\00", align 1
@.str.8 = private unnamed_addr constant [11 x i8] c"VOL3D_CALC\00", align 1
@.str.9 = private unnamed_addr constant [15 x i8] c"DEL_DOT_VEC_2D\00", align 1
@.str.10 = private unnamed_addr constant [7 x i8] c"COUPLE\00", align 1
@.str.11 = private unnamed_addr constant [4 x i8] c"FIR\00", align 1
@.str.12 = private unnamed_addr constant [6 x i8] c"INIT3\00", align 1
@.str.13 = private unnamed_addr constant [10 x i8] c"MULADDSUB\00", align 1
@.str.14 = private unnamed_addr constant [8 x i8] c"IF_QUAD\00", align 1
@.str.15 = private unnamed_addr constant [9 x i8] c"TRAP_INT\00", align 1
@.str.16 = private unnamed_addr constant [9 x i8] c"HYDRO_1D\00", align 1
@.str.17 = private unnamed_addr constant [5 x i8] c"ICCG\00", align 1
@.str.18 = private unnamed_addr constant [11 x i8] c"INNER_PROD\00", align 1
@.str.19 = private unnamed_addr constant [12 x i8] c"BAND_LIN_EQ\00", align 1
@.str.20 = private unnamed_addr constant [13 x i8] c"TRIDIAG_ELIM\00", align 1
@.str.21 = private unnamed_addr constant [4 x i8] c"EOS\00", align 1
@.str.22 = private unnamed_addr constant [4 x i8] c"ADI\00", align 1
@.str.23 = private unnamed_addr constant [12 x i8] c"INT_PREDICT\00", align 1
@.str.24 = private unnamed_addr constant [13 x i8] c"DIFF_PREDICT\00", align 1
@.str.25 = private unnamed_addr constant [10 x i8] c"FIRST_SUM\00", align 1
@.str.26 = private unnamed_addr constant [11 x i8] c"FIRST_DIFF\00", align 1
@.str.27 = private unnamed_addr constant [7 x i8] c"PIC_2D\00", align 1
@.str.28 = private unnamed_addr constant [7 x i8] c"PIC_1D\00", align 1
@.str.29 = private unnamed_addr constant [9 x i8] c"HYDRO_2D\00", align 1
@.str.30 = private unnamed_addr constant [14 x i8] c"GEN_LIN_RECUR\00", align 1
@.str.31 = private unnamed_addr constant [9 x i8] c"DISC_ORD\00", align 1
@.str.32 = private unnamed_addr constant [10 x i8] c"MAT_X_MAT\00", align 1
@.str.33 = private unnamed_addr constant [10 x i8] c"PLANCKIAN\00", align 1
@.str.34 = private unnamed_addr constant [13 x i8] c"IMP_HYDRO_2D\00", align 1
@.str.35 = private unnamed_addr constant [15 x i8] c"FIND_FIRST_MIN\00", align 1
@_ZNSt3__14coutE = external global %"class.std::__1::basic_ostream", align 8
@.str.36 = private unnamed_addr constant [21 x i8] c"\0A Unknown loop id = \00", align 1
@.str.37 = private unnamed_addr constant [4 x i8] c"Raw\00", align 1
@.str.38 = private unnamed_addr constant [8 x i8] c"Raw_OMP\00", align 1
@.str.39 = private unnamed_addr constant [14 x i8] c"Forall_Lambda\00", align 1
@.str.40 = private unnamed_addr constant [18 x i8] c"Forall_Lambda_OMP\00", align 1
@.str.41 = private unnamed_addr constant [29 x i8] c"\0A Unknown loop variant id = \00", align 1
@.str.43 = private unnamed_addr constant [37 x i8] c"Cannot create directories in path = \00", align 1
@.str.44 = private unnamed_addr constant [55 x i8] c"\0A    because some intermediate item in path exists and\00", align 1
@.str.45 = private unnamed_addr constant [19 x i8] c"is NOT a directory\00", align 1
@.str.46 = private unnamed_addr constant [31 x i8] c"   Cannot create directory  = \00", align 1
@_ZTISt20bad_array_new_length = external constant ptr
@.str.47 = private unnamed_addr constant [7 x i8] c"vector\00", align 1
@_ZTISt12length_error = external constant ptr
@_ZTVSt12length_error = external unnamed_addr constant { [5 x ptr] }, align 8
@_ZNSt3__15ctypeIcE2idE = external global %"class.std::__1::locale::id", align 8
@reltable._Z14getVariantName13LoopVariantID = private unnamed_addr constant [4 x i32] [i32 trunc (i64 sub (i64 ptrtoint (ptr @.str.37 to i64), i64 ptrtoint (ptr @reltable._Z14getVariantName13LoopVariantID to i64)) to i32), i32 trunc (i64 sub (i64 ptrtoint (ptr @.str.38 to i64), i64 ptrtoint (ptr @reltable._Z14getVariantName13LoopVariantID to i64)) to i32), i32 trunc (i64 sub (i64 ptrtoint (ptr @.str.39 to i64), i64 ptrtoint (ptr @reltable._Z14getVariantName13LoopVariantID to i64)) to i32), i32 trunc (i64 sub (i64 ptrtoint (ptr @.str.40 to i64), i64 ptrtoint (ptr @reltable._Z14getVariantName13LoopVariantID to i64)) to i32)], align 4

; Function Attrs: mustprogress nofree norecurse nosync nounwind willreturn memory(read, argmem: none, inaccessiblemem: none) uwtable
define dso_local noundef nonnull align 8 dereferenceable(1616) ptr @_Z11getLoopDatav() local_unnamed_addr #0 {
entry:
  %0 = load ptr, ptr @_ZL11s_loop_data, align 8, !tbaa !5
  ret ptr %0
}

; Function Attrs: uwtable
define dso_local void @_Z22defineLoopSuiteRunInfoRKNSt3__16vectorI13LoopVariantIDNS_9allocatorIS1_EEEEPbdd(ptr nocapture noundef nonnull readonly align 8 dereferenceable(24) %run_variants, ptr nocapture noundef readonly %run_loop, double noundef %sample_frac, double noundef %loop_length_factor) local_unnamed_addr #1 personality ptr @__gxx_personality_v0 {
entry:
  %__v.i = alloca %"struct.std::__1::__split_buffer.155", align 8
  %ref.tmp.i.i = alloca %"class.std::__1::locale", align 8
  %ref.tmp.i = alloca %"struct.std::__1::pair.75", align 8
  %run_variant_names = alloca %"class.std::__1::vector.1", align 8
  %ref.tmp = alloca %"class.std::__1::basic_string", align 8
  %ref.tmp23 = alloca %"class.std::__1::basic_string", align 8
  %ref.tmp29 = alloca %"class.std::__1::basic_string", align 8
  %ref.tmp52 = alloca i32, align 4
  %ref.tmp58 = alloca x86_fp80, align 16
  %ref.tmp64 = alloca x86_fp80, align 16
  %ref.tmp70 = alloca x86_fp80, align 16
  %loop_name = alloca %"class.std::__1::basic_string", align 8
  %loop_stat = alloca %class.LoopStat, align 8
  %ref.tmp91 = alloca %"class.std::__1::basic_string", align 8
  %ref.tmp99 = alloca %"class.std::__1::basic_string", align 8
  %ref.tmp104 = alloca %"class.std::__1::basic_string", align 8
  %ref.tmp132 = alloca %"class.std::__1::basic_string", align 8
  %ref.tmp138 = alloca %"class.std::__1::basic_string", align 8
  %ref.tmp168 = alloca %"class.std::__1::basic_string", align 8
  %ref.tmp208 = alloca %"class.std::__1::basic_string", align 8
  %ref.tmp246 = alloca %"class.std::__1::basic_string", align 8
  %ref.tmp295 = alloca %"class.std::__1::basic_string", align 8
  %ref.tmp324 = alloca %"class.std::__1::basic_string", align 8
  %ref.tmp353 = alloca %"class.std::__1::basic_string", align 8
  %ref.tmp382 = alloca %"class.std::__1::basic_string", align 8
  %ref.tmp411 = alloca %"class.std::__1::basic_string", align 8
  %ref.tmp440 = alloca %"class.std::__1::basic_string", align 8
  %ref.tmp469 = alloca %"class.std::__1::basic_string", align 8
  %ref.tmp498 = alloca %"class.std::__1::basic_string", align 8
  %ref.tmp527 = alloca %"class.std::__1::basic_string", align 8
  %ref.tmp556 = alloca %"class.std::__1::basic_string", align 8
  %ref.tmp585 = alloca %"class.std::__1::basic_string", align 8
  %ref.tmp614 = alloca %"class.std::__1::basic_string", align 8
  %ref.tmp643 = alloca %"class.std::__1::basic_string", align 8
  %ref.tmp672 = alloca %"class.std::__1::basic_string", align 8
  %ref.tmp701 = alloca %"class.std::__1::basic_string", align 8
  %ref.tmp730 = alloca %"class.std::__1::basic_string", align 8
  %ref.tmp759 = alloca %"class.std::__1::basic_string", align 8
  %ref.tmp788 = alloca %"class.std::__1::basic_string", align 8
  %ref.tmp817 = alloca %"class.std::__1::basic_string", align 8
  %ref.tmp846 = alloca %"class.std::__1::basic_string", align 8
  %ref.tmp875 = alloca %"class.std::__1::basic_string", align 8
  %ref.tmp904 = alloca %"class.std::__1::basic_string", align 8
  %ref.tmp933 = alloca %"class.std::__1::basic_string", align 8
  %ref.tmp962 = alloca %"class.std::__1::basic_string", align 8
  %ref.tmp991 = alloca %"class.std::__1::basic_string", align 8
  call void @llvm.lifetime.start.p0(i64 24, ptr nonnull %run_variant_names) #24
  call void @_Z15getVariantNamesRKNSt3__16vectorI13LoopVariantIDNS_9allocatorIS1_EEEE(ptr nonnull sret(%"class.std::__1::vector.1") align 8 %run_variant_names, ptr noundef nonnull align 8 dereferenceable(24) %run_variants)
  %0 = load ptr, ptr @_ZL11s_loop_data, align 8, !tbaa !5
  %cmp = icmp eq ptr %0, null
  br i1 %cmp, label %if.then, label %if.end

if.then:                                          ; preds = %entry
  %call = invoke noalias noundef nonnull dereferenceable(1616) ptr @_Znwm(i64 noundef 1616) #25
          to label %invoke.cont unwind label %lpad

invoke.cont:                                      ; preds = %if.then
  call void @llvm.memset.p0.i64(ptr noundef nonnull align 16 dereferenceable(1616) %call, i8 0, i64 1616, i1 false)
  store ptr %call, ptr @_ZL11s_loop_data, align 8, !tbaa !5
  br label %if.end

lpad:                                             ; preds = %if.then
  %1 = landingpad { ptr, i32 }
          cleanup
  br label %ehcleanup1108

if.end:                                           ; preds = %invoke.cont, %entry
  %call3 = invoke noundef nonnull align 16 dereferenceable(584) ptr @_Z19getLoopSuiteRunInfov()
          to label %invoke.cont2 unwind label %lpad1

invoke.cont2:                                     ; preds = %if.end
  %loop_samp_frac = getelementptr inbounds %class.LoopSuiteRunInfo, ptr %call3, i64 0, i32 10
  store double %sample_frac, ptr %loop_samp_frac, align 8, !tbaa !9
  %loop_weights = getelementptr inbounds %class.LoopSuiteRunInfo, ptr %call3, i64 0, i32 12
  %__end_.i.i = getelementptr inbounds %class.LoopSuiteRunInfo, ptr %call3, i64 0, i32 12, i32 1
  %2 = load ptr, ptr %__end_.i.i, align 16, !tbaa !51
  %3 = load ptr, ptr %loop_weights, align 8, !tbaa !52
  %sub.ptr.lhs.cast.i.i = ptrtoint ptr %2 to i64
  %sub.ptr.rhs.cast.i.i = ptrtoint ptr %3 to i64
  %sub.ptr.sub.i.i = sub i64 %sub.ptr.lhs.cast.i.i, %sub.ptr.rhs.cast.i.i
  %cmp.i = icmp ult i64 %sub.ptr.sub.i.i, 48
  br i1 %cmp.i, label %if.then.i, label %if.else.i

if.then.i:                                        ; preds = %invoke.cont2
  %sub.ptr.div.i.i = lshr exact i64 %sub.ptr.sub.i.i, 3
  %sub.i = sub nuw nsw i64 6, %sub.ptr.div.i.i
  invoke void @_ZNSt3__16vectorIdNS_9allocatorIdEEE8__appendEm(ptr noundef nonnull align 8 dereferenceable(24) %loop_weights, i64 noundef %sub.i)
          to label %if.then.i.invoke.cont4_crit_edge unwind label %lpad1

if.then.i.invoke.cont4_crit_edge:                 ; preds = %if.then.i
  %.pre = load ptr, ptr %loop_weights, align 8, !tbaa !52
  br label %invoke.cont4

if.else.i:                                        ; preds = %invoke.cont2
  %cmp2.i.not = icmp eq i64 %sub.ptr.sub.i.i, 48
  br i1 %cmp2.i.not, label %invoke.cont4, label %if.then3.i

if.then3.i:                                       ; preds = %if.else.i
  %add.ptr.i = getelementptr inbounds double, ptr %3, i64 6
  store ptr %add.ptr.i, ptr %__end_.i.i, align 16, !tbaa !51
  br label %invoke.cont4

invoke.cont4:                                     ; preds = %if.then.i.invoke.cont4_crit_edge, %if.then3.i, %if.else.i
  %4 = phi ptr [ %.pre, %if.then.i.invoke.cont4_crit_edge ], [ %3, %if.then3.i ], [ %3, %if.else.i ]
  store <2 x double> <double 2.000000e+00, double 1.800000e+00>, ptr %4, align 8, !tbaa !53
  %arrayidx.i1299 = getelementptr inbounds double, ptr %4, i64 2
  store <2 x double> <double 1.700000e+00, double 1.700000e+00>, ptr %arrayidx.i1299, align 8, !tbaa !53
  %arrayidx.i1301 = getelementptr inbounds double, ptr %4, i64 4
  store <2 x double> <double 1.400000e+00, double 1.000000e+00>, ptr %arrayidx.i1301, align 8, !tbaa !53
  %loop_length_names = getelementptr inbounds %class.LoopSuiteRunInfo, ptr %call3, i64 0, i32 7
  %__end_.i.i1303 = getelementptr inbounds %class.LoopSuiteRunInfo, ptr %call3, i64 0, i32 7, i32 1
  %5 = load ptr, ptr %__end_.i.i1303, align 16, !tbaa !54
  %6 = load ptr, ptr %loop_length_names, align 8, !tbaa !55
  %sub.ptr.lhs.cast.i.i1304 = ptrtoint ptr %5 to i64
  %sub.ptr.rhs.cast.i.i1305 = ptrtoint ptr %6 to i64
  %sub.ptr.sub.i.i1306 = sub i64 %sub.ptr.lhs.cast.i.i1304, %sub.ptr.rhs.cast.i.i1305
  %sub.ptr.div.i.i1307 = sdiv exact i64 %sub.ptr.sub.i.i1306, 24
  %cmp.i1308 = icmp ult i64 %sub.ptr.div.i.i1307, 3
  br i1 %cmp.i1308, label %if.then.i1310, label %if.else.i1312

if.then.i1310:                                    ; preds = %invoke.cont4
  %sub.i1309 = sub nuw nsw i64 3, %sub.ptr.div.i.i1307
  invoke void @_ZNSt3__16vectorINS_12basic_stringIcNS_11char_traitsIcEENS_9allocatorIcEEEENS4_IS6_EEE8__appendEm(ptr noundef nonnull align 8 dereferenceable(24) %loop_length_names, i64 noundef %sub.i1309)
          to label %invoke.cont17 unwind label %lpad1

if.else.i1312:                                    ; preds = %invoke.cont4
  %cmp2.i1311.not = icmp eq i64 %sub.ptr.sub.i.i1306, 72
  br i1 %cmp2.i1311.not, label %invoke.cont17, label %if.then3.i1314

if.then3.i1314:                                   ; preds = %if.else.i1312
  %add.ptr.i1313 = getelementptr inbounds %"class.std::__1::basic_string", ptr %6, i64 3
  %cmp.not6.i.i.i = icmp eq ptr %5, %add.ptr.i1313
  br i1 %cmp.not6.i.i.i, label %_ZNSt3__16vectorINS_12basic_stringIcNS_11char_traitsIcEENS_9allocatorIcEEEENS4_IS6_EEE17__destruct_at_endB7v170000EPS6_.exit.i, label %while.body.i.i.i

while.body.i.i.i:                                 ; preds = %if.then3.i1314, %_ZNSt3__116allocator_traitsINS_9allocatorINS_12basic_stringIcNS_11char_traitsIcEENS1_IcEEEEEEE7destroyB7v170000IS6_vEEvRS7_PT_.exit.i.i.i
  %__soon_to_be_end.07.i.i.i = phi ptr [ %incdec.ptr.i.i.i, %_ZNSt3__116allocator_traitsINS_9allocatorINS_12basic_stringIcNS_11char_traitsIcEENS1_IcEEEEEEE7destroyB7v170000IS6_vEEvRS7_PT_.exit.i.i.i ], [ %5, %if.then3.i1314 ]
  %incdec.ptr.i.i.i = getelementptr inbounds %"class.std::__1::basic_string", ptr %__soon_to_be_end.07.i.i.i, i64 -1
  %bf.load.i.i.i.i.i.i.i = load i8, ptr %incdec.ptr.i.i.i, align 8
  %bf.clear.i.i.i.i.i.i.i = and i8 %bf.load.i.i.i.i.i.i.i, 1
  %tobool.i.not.i.i.i.i.i.i = icmp eq i8 %bf.clear.i.i.i.i.i.i.i, 0
  br i1 %tobool.i.not.i.i.i.i.i.i, label %_ZNSt3__116allocator_traitsINS_9allocatorINS_12basic_stringIcNS_11char_traitsIcEENS1_IcEEEEEEE7destroyB7v170000IS6_vEEvRS7_PT_.exit.i.i.i, label %if.then.i.i.i.i.i.i

if.then.i.i.i.i.i.i:                              ; preds = %while.body.i.i.i
  %__data_.i.i.i.i.i.i.i = getelementptr %"class.std::__1::basic_string", ptr %__soon_to_be_end.07.i.i.i, i64 -1, i32 0, i32 0, i32 0, i32 0, i32 0, i32 2
  %7 = load ptr, ptr %__data_.i.i.i.i.i.i.i, align 8, !tbaa !56
  call void @_ZdlPv(ptr noundef %7) #26
  br label %_ZNSt3__116allocator_traitsINS_9allocatorINS_12basic_stringIcNS_11char_traitsIcEENS1_IcEEEEEEE7destroyB7v170000IS6_vEEvRS7_PT_.exit.i.i.i

_ZNSt3__116allocator_traitsINS_9allocatorINS_12basic_stringIcNS_11char_traitsIcEENS1_IcEEEEEEE7destroyB7v170000IS6_vEEvRS7_PT_.exit.i.i.i: ; preds = %if.then.i.i.i.i.i.i, %while.body.i.i.i
  %cmp.not.i.i.i = icmp eq ptr %incdec.ptr.i.i.i, %add.ptr.i1313
  br i1 %cmp.not.i.i.i, label %_ZNSt3__16vectorINS_12basic_stringIcNS_11char_traitsIcEENS_9allocatorIcEEEENS4_IS6_EEE17__destruct_at_endB7v170000EPS6_.exit.i, label %while.body.i.i.i

_ZNSt3__16vectorINS_12basic_stringIcNS_11char_traitsIcEENS_9allocatorIcEEEENS4_IS6_EEE17__destruct_at_endB7v170000EPS6_.exit.i: ; preds = %_ZNSt3__116allocator_traitsINS_9allocatorINS_12basic_stringIcNS_11char_traitsIcEENS1_IcEEEEEEE7destroyB7v170000IS6_vEEvRS7_PT_.exit.i.i.i, %if.then3.i1314
  store ptr %add.ptr.i1313, ptr %__end_.i.i1303, align 16, !tbaa !54
  br label %invoke.cont17

invoke.cont17:                                    ; preds = %_ZNSt3__16vectorINS_12basic_stringIcNS_11char_traitsIcEENS_9allocatorIcEEEENS4_IS6_EEE17__destruct_at_endB7v170000EPS6_.exit.i, %if.else.i1312, %if.then.i1310
  call void @llvm.lifetime.start.p0(i64 24, ptr nonnull %ref.tmp) #24
  store i8 8, ptr %ref.tmp, align 8
  %__data_.i.i.i = getelementptr inbounds %"struct.std::__1::basic_string<char>::__short", ptr %ref.tmp, i64 0, i32 2
  %cmp.i24.i.i = icmp ugt ptr %__data_.i.i.i, @.str
  %add.ptr.i.i.i = getelementptr inbounds %"struct.std::__1::basic_string<char>::__short", ptr %ref.tmp, i64 0, i32 2, i64 4
  %cmp1.i.i.i = icmp ule ptr %add.ptr.i.i.i, @.str
  %8 = or i1 %cmp.i24.i.i, %cmp1.i.i.i
  call void @llvm.assume(i1 %8)
  store i32 1196314444, ptr %__data_.i.i.i, align 1
  store i8 0, ptr %add.ptr.i.i.i, align 1, !tbaa !56
  %9 = load ptr, ptr %loop_length_names, align 8, !tbaa !55
  %bf.load.i.i.i = load i8, ptr %9, align 8
  %bf.clear.i.i.i = and i8 %bf.load.i.i.i, 1
  %tobool.i.not.i.i = icmp eq i8 %bf.clear.i.i.i, 0
  br i1 %tobool.i.not.i.i, label %_ZNSt3__112basic_stringIcNS_11char_traitsIcEENS_9allocatorIcEEED2Ev.exit, label %if.then.i.i1319

if.then.i.i1319:                                  ; preds = %invoke.cont17
  %__data_.i.i.i1318 = getelementptr inbounds %"struct.std::__1::basic_string<char>::__long", ptr %9, i64 0, i32 2
  %10 = load ptr, ptr %__data_.i.i.i1318, align 8, !tbaa !56
  call void @_ZdlPv(ptr noundef %10) #26
  br label %_ZNSt3__112basic_stringIcNS_11char_traitsIcEENS_9allocatorIcEEED2Ev.exit

_ZNSt3__112basic_stringIcNS_11char_traitsIcEENS_9allocatorIcEEED2Ev.exit: ; preds = %if.then.i.i1319, %invoke.cont17
  call void @llvm.memcpy.p0.p0.i64(ptr noundef nonnull align 8 dereferenceable(24) %9, ptr noundef nonnull align 8 dereferenceable(24) %ref.tmp, i64 24, i1 false), !tbaa.struct !57
  call void @llvm.lifetime.end.p0(i64 24, ptr nonnull %ref.tmp) #24
  call void @llvm.lifetime.start.p0(i64 24, ptr nonnull %ref.tmp23) #24
  store i8 12, ptr %ref.tmp23, align 8
  %__data_.i.i.i1328 = getelementptr inbounds %"struct.std::__1::basic_string<char>::__short", ptr %ref.tmp23, i64 0, i32 2
  %cmp.i24.i.i1337 = icmp ugt ptr %__data_.i.i.i1328, @.str.1
  %add.ptr.i.i.i1338 = getelementptr inbounds %"struct.std::__1::basic_string<char>::__short", ptr %ref.tmp23, i64 0, i32 2, i64 6
  %cmp1.i.i.i1339 = icmp ule ptr %add.ptr.i.i.i1338, @.str.1
  %11 = or i1 %cmp.i24.i.i1337, %cmp1.i.i.i1339
  call void @llvm.assume(i1 %11)
  call void @llvm.memcpy.p0.p0.i64(ptr noundef nonnull align 1 dereferenceable(6) %__data_.i.i.i1328, ptr noundef nonnull align 1 dereferenceable(6) @.str.1, i64 6, i1 false)
  store i8 0, ptr %add.ptr.i.i.i1338, align 1, !tbaa !56
  %12 = load ptr, ptr %loop_length_names, align 8, !tbaa !55
  %arrayidx.i1344 = getelementptr inbounds %"class.std::__1::basic_string", ptr %12, i64 1
  %bf.load.i.i.i1345 = load i8, ptr %arrayidx.i1344, align 8
  %bf.clear.i.i.i1346 = and i8 %bf.load.i.i.i1345, 1
  %tobool.i.not.i.i1347 = icmp eq i8 %bf.clear.i.i.i1346, 0
  br i1 %tobool.i.not.i.i1347, label %_ZNSt3__112basic_stringIcNS_11char_traitsIcEENS_9allocatorIcEEED2Ev.exit1357, label %if.then.i.i1349

if.then.i.i1349:                                  ; preds = %_ZNSt3__112basic_stringIcNS_11char_traitsIcEENS_9allocatorIcEEED2Ev.exit
  %__data_.i.i.i1348 = getelementptr inbounds %"class.std::__1::basic_string", ptr %12, i64 1, i32 0, i32 0, i32 0, i32 0, i32 0, i32 2
  %13 = load ptr, ptr %__data_.i.i.i1348, align 8, !tbaa !56
  call void @_ZdlPv(ptr noundef %13) #26
  br label %_ZNSt3__112basic_stringIcNS_11char_traitsIcEENS_9allocatorIcEEED2Ev.exit1357

_ZNSt3__112basic_stringIcNS_11char_traitsIcEENS_9allocatorIcEEED2Ev.exit1357: ; preds = %if.then.i.i1349, %_ZNSt3__112basic_stringIcNS_11char_traitsIcEENS_9allocatorIcEEED2Ev.exit
  call void @llvm.memcpy.p0.p0.i64(ptr noundef nonnull align 8 dereferenceable(24) %arrayidx.i1344, ptr noundef nonnull align 8 dereferenceable(24) %ref.tmp23, i64 24, i1 false), !tbaa.struct !57
  call void @llvm.lifetime.end.p0(i64 24, ptr nonnull %ref.tmp23) #24
  call void @llvm.lifetime.start.p0(i64 24, ptr nonnull %ref.tmp29) #24
  store i8 10, ptr %ref.tmp29, align 8
  %__data_.i.i.i1365 = getelementptr inbounds %"struct.std::__1::basic_string<char>::__short", ptr %ref.tmp29, i64 0, i32 2
  %cmp.i24.i.i1374 = icmp ugt ptr %__data_.i.i.i1365, @.str.2
  %add.ptr.i.i.i1375 = getelementptr inbounds %"struct.std::__1::basic_string<char>::__short", ptr %ref.tmp29, i64 0, i32 2, i64 5
  %cmp1.i.i.i1376 = icmp ule ptr %add.ptr.i.i.i1375, @.str.2
  %14 = or i1 %cmp.i24.i.i1374, %cmp1.i.i.i1376
  call void @llvm.assume(i1 %14)
  call void @llvm.memcpy.p0.p0.i64(ptr noundef nonnull align 1 dereferenceable(5) %__data_.i.i.i1365, ptr noundef nonnull align 1 dereferenceable(5) @.str.2, i64 5, i1 false)
  store i8 0, ptr %add.ptr.i.i.i1375, align 2, !tbaa !56
  %15 = load ptr, ptr %loop_length_names, align 8, !tbaa !55
  %arrayidx.i1381 = getelementptr inbounds %"class.std::__1::basic_string", ptr %15, i64 2
  %bf.load.i.i.i1382 = load i8, ptr %arrayidx.i1381, align 8
  %bf.clear.i.i.i1383 = and i8 %bf.load.i.i.i1382, 1
  %tobool.i.not.i.i1384 = icmp eq i8 %bf.clear.i.i.i1383, 0
  br i1 %tobool.i.not.i.i1384, label %_ZNSt3__112basic_stringIcNS_11char_traitsIcEENS_9allocatorIcEEED2Ev.exit1394, label %if.then.i.i1386

if.then.i.i1386:                                  ; preds = %_ZNSt3__112basic_stringIcNS_11char_traitsIcEENS_9allocatorIcEEED2Ev.exit1357
  %__data_.i.i.i1385 = getelementptr inbounds %"class.std::__1::basic_string", ptr %15, i64 2, i32 0, i32 0, i32 0, i32 0, i32 0, i32 2
  %16 = load ptr, ptr %__data_.i.i.i1385, align 8, !tbaa !56
  call void @_ZdlPv(ptr noundef %16) #26
  br label %_ZNSt3__112basic_stringIcNS_11char_traitsIcEENS_9allocatorIcEEED2Ev.exit1394

_ZNSt3__112basic_stringIcNS_11char_traitsIcEENS_9allocatorIcEEED2Ev.exit1394: ; preds = %if.then.i.i1386, %_ZNSt3__112basic_stringIcNS_11char_traitsIcEENS_9allocatorIcEEED2Ev.exit1357
  call void @llvm.memcpy.p0.p0.i64(ptr noundef nonnull align 8 dereferenceable(24) %arrayidx.i1381, ptr noundef nonnull align 8 dereferenceable(24) %ref.tmp29, i64 24, i1 false), !tbaa.struct !57
  call void @llvm.lifetime.end.p0(i64 24, ptr nonnull %ref.tmp29) #24
  %num_loops_run = getelementptr inbounds %class.LoopSuiteRunInfo, ptr %call3, i64 0, i32 13
  %__end_.i = getelementptr inbounds %"class.std::__1::vector.1", ptr %run_variant_names, i64 0, i32 1
  %17 = load ptr, ptr %__end_.i, align 8, !tbaa !54
  %18 = load ptr, ptr %run_variant_names, align 8, !tbaa !55
  %sub.ptr.lhs.cast.i = ptrtoint ptr %17 to i64
  %sub.ptr.rhs.cast.i = ptrtoint ptr %18 to i64
  %sub.ptr.sub.i = sub i64 %sub.ptr.lhs.cast.i, %sub.ptr.rhs.cast.i
  %sub.ptr.div.i = sdiv exact i64 %sub.ptr.sub.i, 24
  %__end_.i.i1395 = getelementptr inbounds %class.LoopSuiteRunInfo, ptr %call3, i64 0, i32 13, i32 1
  %19 = load ptr, ptr %__end_.i.i1395, align 8, !tbaa !59
  %20 = load ptr, ptr %num_loops_run, align 16, !tbaa !60
  %sub.ptr.lhs.cast.i.i1396 = ptrtoint ptr %19 to i64
  %sub.ptr.rhs.cast.i.i1397 = ptrtoint ptr %20 to i64
  %sub.ptr.sub.i.i1398 = sub i64 %sub.ptr.lhs.cast.i.i1396, %sub.ptr.rhs.cast.i.i1397
  %sub.ptr.div.i.i1399 = sdiv exact i64 %sub.ptr.sub.i.i1398, 24
  %cmp.i1400 = icmp ugt i64 %sub.ptr.div.i, %sub.ptr.div.i.i1399
  br i1 %cmp.i1400, label %if.then.i1402, label %if.else.i1404

if.then.i1402:                                    ; preds = %_ZNSt3__112basic_stringIcNS_11char_traitsIcEENS_9allocatorIcEEED2Ev.exit1394
  %sub.i1401 = sub nsw i64 %sub.ptr.div.i, %sub.ptr.div.i.i1399
  invoke void @_ZNSt3__16vectorINS0_IiNS_9allocatorIiEEEENS1_IS3_EEE8__appendEm(ptr noundef nonnull align 8 dereferenceable(24) %num_loops_run, i64 noundef %sub.i1401)
          to label %invoke.cont36 unwind label %lpad1

if.else.i1404:                                    ; preds = %_ZNSt3__112basic_stringIcNS_11char_traitsIcEENS_9allocatorIcEEED2Ev.exit1394
  %cmp2.i1403 = icmp ult i64 %sub.ptr.div.i, %sub.ptr.div.i.i1399
  br i1 %cmp2.i1403, label %if.then3.i1407, label %invoke.cont36

if.then3.i1407:                                   ; preds = %if.else.i1404
  %add.ptr.i1405 = getelementptr inbounds %"class.std::__1::vector.39", ptr %20, i64 %sub.ptr.div.i
  %cmp.not6.i.i.i1406 = icmp eq ptr %19, %add.ptr.i1405
  br i1 %cmp.not6.i.i.i1406, label %_ZNSt3__16vectorINS0_IiNS_9allocatorIiEEEENS1_IS3_EEE17__destruct_at_endB7v170000EPS3_.exit.i, label %while.body.i.i.i1410

while.body.i.i.i1410:                             ; preds = %if.then3.i1407, %_ZNSt3__116allocator_traitsINS_9allocatorINS_6vectorIiNS1_IiEEEEEEE7destroyB7v170000IS4_vEEvRS5_PT_.exit.i.i.i
  %__soon_to_be_end.07.i.i.i1408 = phi ptr [ %incdec.ptr.i.i.i1409, %_ZNSt3__116allocator_traitsINS_9allocatorINS_6vectorIiNS1_IiEEEEEEE7destroyB7v170000IS4_vEEvRS5_PT_.exit.i.i.i ], [ %19, %if.then3.i1407 ]
  %incdec.ptr.i.i.i1409 = getelementptr inbounds %"class.std::__1::vector.39", ptr %__soon_to_be_end.07.i.i.i1408, i64 -1
  %21 = load ptr, ptr %incdec.ptr.i.i.i1409, align 8, !tbaa !61
  %cmp.not.i.i.i.i.i.i.i = icmp eq ptr %21, null
  br i1 %cmp.not.i.i.i.i.i.i.i, label %_ZNSt3__116allocator_traitsINS_9allocatorINS_6vectorIiNS1_IiEEEEEEE7destroyB7v170000IS4_vEEvRS5_PT_.exit.i.i.i, label %if.then.i.i.i.i.i.i.i

if.then.i.i.i.i.i.i.i:                            ; preds = %while.body.i.i.i1410
  %__end_.i.i.i.i.i.i.i.i.i = getelementptr %"class.std::__1::vector.39", ptr %__soon_to_be_end.07.i.i.i1408, i64 -1, i32 1
  store ptr %21, ptr %__end_.i.i.i.i.i.i.i.i.i, align 8, !tbaa !62
  call void @_ZdlPv(ptr noundef nonnull %21) #26
  br label %_ZNSt3__116allocator_traitsINS_9allocatorINS_6vectorIiNS1_IiEEEEEEE7destroyB7v170000IS4_vEEvRS5_PT_.exit.i.i.i

_ZNSt3__116allocator_traitsINS_9allocatorINS_6vectorIiNS1_IiEEEEEEE7destroyB7v170000IS4_vEEvRS5_PT_.exit.i.i.i: ; preds = %if.then.i.i.i.i.i.i.i, %while.body.i.i.i1410
  %cmp.not.i.i.i1411 = icmp eq ptr %incdec.ptr.i.i.i1409, %add.ptr.i1405
  br i1 %cmp.not.i.i.i1411, label %_ZNSt3__16vectorINS0_IiNS_9allocatorIiEEEENS1_IS3_EEE17__destruct_at_endB7v170000EPS3_.exit.i, label %while.body.i.i.i1410

_ZNSt3__16vectorINS0_IiNS_9allocatorIiEEEENS1_IS3_EEE17__destruct_at_endB7v170000EPS3_.exit.i: ; preds = %_ZNSt3__116allocator_traitsINS_9allocatorINS_6vectorIiNS1_IiEEEEEEE7destroyB7v170000IS4_vEEvRS5_PT_.exit.i.i.i, %if.then3.i1407
  store ptr %add.ptr.i1405, ptr %__end_.i.i1395, align 8, !tbaa !59
  br label %invoke.cont36

invoke.cont36:                                    ; preds = %_ZNSt3__16vectorINS0_IiNS_9allocatorIiEEEENS1_IS3_EEE17__destruct_at_endB7v170000EPS3_.exit.i, %if.else.i1404, %if.then.i1402
  %tot_time = getelementptr inbounds %class.LoopSuiteRunInfo, ptr %call3, i64 0, i32 14
  %22 = load ptr, ptr %__end_.i, align 8, !tbaa !54
  %23 = load ptr, ptr %run_variant_names, align 8, !tbaa !55
  %sub.ptr.lhs.cast.i1414 = ptrtoint ptr %22 to i64
  %sub.ptr.rhs.cast.i1415 = ptrtoint ptr %23 to i64
  %sub.ptr.sub.i1416 = sub i64 %sub.ptr.lhs.cast.i1414, %sub.ptr.rhs.cast.i1415
  %sub.ptr.div.i1417 = sdiv exact i64 %sub.ptr.sub.i1416, 24
  %__end_.i.i1418 = getelementptr inbounds %class.LoopSuiteRunInfo, ptr %call3, i64 0, i32 14, i32 1
  %24 = load ptr, ptr %__end_.i.i1418, align 16, !tbaa !63
  %25 = load ptr, ptr %tot_time, align 8, !tbaa !64
  %sub.ptr.lhs.cast.i.i1419 = ptrtoint ptr %24 to i64
  %sub.ptr.rhs.cast.i.i1420 = ptrtoint ptr %25 to i64
  %sub.ptr.sub.i.i1421 = sub i64 %sub.ptr.lhs.cast.i.i1419, %sub.ptr.rhs.cast.i.i1420
  %sub.ptr.div.i.i1422 = sdiv exact i64 %sub.ptr.sub.i.i1421, 24
  %cmp.i1423 = icmp ugt i64 %sub.ptr.div.i1417, %sub.ptr.div.i.i1422
  br i1 %cmp.i1423, label %if.then.i1425, label %if.else.i1427

if.then.i1425:                                    ; preds = %invoke.cont36
  %sub.i1424 = sub nsw i64 %sub.ptr.div.i1417, %sub.ptr.div.i.i1422
  invoke void @_ZNSt3__16vectorINS0_IeNS_9allocatorIeEEEENS1_IS3_EEE8__appendEm(ptr noundef nonnull align 8 dereferenceable(24) %tot_time, i64 noundef %sub.i1424)
          to label %invoke.cont38 unwind label %lpad1

if.else.i1427:                                    ; preds = %invoke.cont36
  %cmp2.i1426 = icmp ult i64 %sub.ptr.div.i1417, %sub.ptr.div.i.i1422
  br i1 %cmp2.i1426, label %if.then3.i1430, label %invoke.cont38

if.then3.i1430:                                   ; preds = %if.else.i1427
  %add.ptr.i1428 = getelementptr inbounds %"class.std::__1::vector.23", ptr %25, i64 %sub.ptr.div.i1417
  %cmp.not6.i.i.i1429 = icmp eq ptr %24, %add.ptr.i1428
  br i1 %cmp.not6.i.i.i1429, label %_ZNSt3__16vectorINS0_IeNS_9allocatorIeEEEENS1_IS3_EEE17__destruct_at_endB7v170000EPS3_.exit.i, label %while.body.i.i.i1434

while.body.i.i.i1434:                             ; preds = %if.then3.i1430, %_ZNSt3__116allocator_traitsINS_9allocatorINS_6vectorIeNS1_IeEEEEEEE7destroyB7v170000IS4_vEEvRS5_PT_.exit.i.i.i
  %__soon_to_be_end.07.i.i.i1431 = phi ptr [ %incdec.ptr.i.i.i1432, %_ZNSt3__116allocator_traitsINS_9allocatorINS_6vectorIeNS1_IeEEEEEEE7destroyB7v170000IS4_vEEvRS5_PT_.exit.i.i.i ], [ %24, %if.then3.i1430 ]
  %incdec.ptr.i.i.i1432 = getelementptr inbounds %"class.std::__1::vector.23", ptr %__soon_to_be_end.07.i.i.i1431, i64 -1
  %26 = load ptr, ptr %incdec.ptr.i.i.i1432, align 8, !tbaa !65
  %cmp.not.i.i.i.i.i.i.i1433 = icmp eq ptr %26, null
  br i1 %cmp.not.i.i.i.i.i.i.i1433, label %_ZNSt3__116allocator_traitsINS_9allocatorINS_6vectorIeNS1_IeEEEEEEE7destroyB7v170000IS4_vEEvRS5_PT_.exit.i.i.i, label %if.then.i.i.i.i.i.i.i1436

if.then.i.i.i.i.i.i.i1436:                        ; preds = %while.body.i.i.i1434
  %__end_.i.i.i.i.i.i.i.i.i1435 = getelementptr %"class.std::__1::vector.23", ptr %__soon_to_be_end.07.i.i.i1431, i64 -1, i32 1
  store ptr %26, ptr %__end_.i.i.i.i.i.i.i.i.i1435, align 8, !tbaa !66
  call void @_ZdlPv(ptr noundef nonnull %26) #26
  br label %_ZNSt3__116allocator_traitsINS_9allocatorINS_6vectorIeNS1_IeEEEEEEE7destroyB7v170000IS4_vEEvRS5_PT_.exit.i.i.i

_ZNSt3__116allocator_traitsINS_9allocatorINS_6vectorIeNS1_IeEEEEEEE7destroyB7v170000IS4_vEEvRS5_PT_.exit.i.i.i: ; preds = %if.then.i.i.i.i.i.i.i1436, %while.body.i.i.i1434
  %cmp.not.i.i.i1437 = icmp eq ptr %incdec.ptr.i.i.i1432, %add.ptr.i1428
  br i1 %cmp.not.i.i.i1437, label %_ZNSt3__16vectorINS0_IeNS_9allocatorIeEEEENS1_IS3_EEE17__destruct_at_endB7v170000EPS3_.exit.i, label %while.body.i.i.i1434

_ZNSt3__16vectorINS0_IeNS_9allocatorIeEEEENS1_IS3_EEE17__destruct_at_endB7v170000EPS3_.exit.i: ; preds = %_ZNSt3__116allocator_traitsINS_9allocatorINS_6vectorIeNS1_IeEEEEEEE7destroyB7v170000IS4_vEEvRS5_PT_.exit.i.i.i, %if.then3.i1430
  store ptr %add.ptr.i1428, ptr %__end_.i.i1418, align 16, !tbaa !63
  br label %invoke.cont38

invoke.cont38:                                    ; preds = %_ZNSt3__16vectorINS0_IeNS_9allocatorIeEEEENS1_IS3_EEE17__destruct_at_endB7v170000EPS3_.exit.i, %if.else.i1427, %if.then.i1425
  %fom_rel = getelementptr inbounds %class.LoopSuiteRunInfo, ptr %call3, i64 0, i32 15
  %27 = load ptr, ptr %__end_.i, align 8, !tbaa !54
  %28 = load ptr, ptr %run_variant_names, align 8, !tbaa !55
  %sub.ptr.lhs.cast.i1440 = ptrtoint ptr %27 to i64
  %sub.ptr.rhs.cast.i1441 = ptrtoint ptr %28 to i64
  %sub.ptr.sub.i1442 = sub i64 %sub.ptr.lhs.cast.i1440, %sub.ptr.rhs.cast.i1441
  %sub.ptr.div.i1443 = sdiv exact i64 %sub.ptr.sub.i1442, 24
  %__end_.i.i1444 = getelementptr inbounds %class.LoopSuiteRunInfo, ptr %call3, i64 0, i32 15, i32 1
  %29 = load ptr, ptr %__end_.i.i1444, align 8, !tbaa !63
  %30 = load ptr, ptr %fom_rel, align 16, !tbaa !64
  %sub.ptr.lhs.cast.i.i1445 = ptrtoint ptr %29 to i64
  %sub.ptr.rhs.cast.i.i1446 = ptrtoint ptr %30 to i64
  %sub.ptr.sub.i.i1447 = sub i64 %sub.ptr.lhs.cast.i.i1445, %sub.ptr.rhs.cast.i.i1446
  %sub.ptr.div.i.i1448 = sdiv exact i64 %sub.ptr.sub.i.i1447, 24
  %cmp.i1449 = icmp ugt i64 %sub.ptr.div.i1443, %sub.ptr.div.i.i1448
  br i1 %cmp.i1449, label %if.then.i1451, label %if.else.i1453

if.then.i1451:                                    ; preds = %invoke.cont38
  %sub.i1450 = sub nsw i64 %sub.ptr.div.i1443, %sub.ptr.div.i.i1448
  invoke void @_ZNSt3__16vectorINS0_IeNS_9allocatorIeEEEENS1_IS3_EEE8__appendEm(ptr noundef nonnull align 8 dereferenceable(24) %fom_rel, i64 noundef %sub.i1450)
          to label %invoke.cont40 unwind label %lpad1

if.else.i1453:                                    ; preds = %invoke.cont38
  %cmp2.i1452 = icmp ult i64 %sub.ptr.div.i1443, %sub.ptr.div.i.i1448
  br i1 %cmp2.i1452, label %if.then3.i1456, label %invoke.cont40

if.then3.i1456:                                   ; preds = %if.else.i1453
  %add.ptr.i1454 = getelementptr inbounds %"class.std::__1::vector.23", ptr %30, i64 %sub.ptr.div.i1443
  %cmp.not6.i.i.i1455 = icmp eq ptr %29, %add.ptr.i1454
  br i1 %cmp.not6.i.i.i1455, label %_ZNSt3__16vectorINS0_IeNS_9allocatorIeEEEENS1_IS3_EEE17__destruct_at_endB7v170000EPS3_.exit.i1465, label %while.body.i.i.i1460

while.body.i.i.i1460:                             ; preds = %if.then3.i1456, %_ZNSt3__116allocator_traitsINS_9allocatorINS_6vectorIeNS1_IeEEEEEEE7destroyB7v170000IS4_vEEvRS5_PT_.exit.i.i.i1464
  %__soon_to_be_end.07.i.i.i1457 = phi ptr [ %incdec.ptr.i.i.i1458, %_ZNSt3__116allocator_traitsINS_9allocatorINS_6vectorIeNS1_IeEEEEEEE7destroyB7v170000IS4_vEEvRS5_PT_.exit.i.i.i1464 ], [ %29, %if.then3.i1456 ]
  %incdec.ptr.i.i.i1458 = getelementptr inbounds %"class.std::__1::vector.23", ptr %__soon_to_be_end.07.i.i.i1457, i64 -1
  %31 = load ptr, ptr %incdec.ptr.i.i.i1458, align 8, !tbaa !65
  %cmp.not.i.i.i.i.i.i.i1459 = icmp eq ptr %31, null
  br i1 %cmp.not.i.i.i.i.i.i.i1459, label %_ZNSt3__116allocator_traitsINS_9allocatorINS_6vectorIeNS1_IeEEEEEEE7destroyB7v170000IS4_vEEvRS5_PT_.exit.i.i.i1464, label %if.then.i.i.i.i.i.i.i1462

if.then.i.i.i.i.i.i.i1462:                        ; preds = %while.body.i.i.i1460
  %__end_.i.i.i.i.i.i.i.i.i1461 = getelementptr %"class.std::__1::vector.23", ptr %__soon_to_be_end.07.i.i.i1457, i64 -1, i32 1
  store ptr %31, ptr %__end_.i.i.i.i.i.i.i.i.i1461, align 8, !tbaa !66
  call void @_ZdlPv(ptr noundef nonnull %31) #26
  br label %_ZNSt3__116allocator_traitsINS_9allocatorINS_6vectorIeNS1_IeEEEEEEE7destroyB7v170000IS4_vEEvRS5_PT_.exit.i.i.i1464

_ZNSt3__116allocator_traitsINS_9allocatorINS_6vectorIeNS1_IeEEEEEEE7destroyB7v170000IS4_vEEvRS5_PT_.exit.i.i.i1464: ; preds = %if.then.i.i.i.i.i.i.i1462, %while.body.i.i.i1460
  %cmp.not.i.i.i1463 = icmp eq ptr %incdec.ptr.i.i.i1458, %add.ptr.i1454
  br i1 %cmp.not.i.i.i1463, label %_ZNSt3__16vectorINS0_IeNS_9allocatorIeEEEENS1_IS3_EEE17__destruct_at_endB7v170000EPS3_.exit.i1465, label %while.body.i.i.i1460

_ZNSt3__16vectorINS0_IeNS_9allocatorIeEEEENS1_IS3_EEE17__destruct_at_endB7v170000EPS3_.exit.i1465: ; preds = %_ZNSt3__116allocator_traitsINS_9allocatorINS_6vectorIeNS1_IeEEEEEEE7destroyB7v170000IS4_vEEvRS5_PT_.exit.i.i.i1464, %if.then3.i1456
  store ptr %add.ptr.i1454, ptr %__end_.i.i1444, align 8, !tbaa !63
  br label %invoke.cont40

invoke.cont40:                                    ; preds = %_ZNSt3__16vectorINS0_IeNS_9allocatorIeEEEENS1_IS3_EEE17__destruct_at_endB7v170000EPS3_.exit.i1465, %if.else.i1453, %if.then.i1451
  %fom_rate = getelementptr inbounds %class.LoopSuiteRunInfo, ptr %call3, i64 0, i32 16
  %32 = load ptr, ptr %__end_.i, align 8, !tbaa !54
  %33 = load ptr, ptr %run_variant_names, align 8, !tbaa !55
  %sub.ptr.lhs.cast.i1469 = ptrtoint ptr %32 to i64
  %sub.ptr.rhs.cast.i1470 = ptrtoint ptr %33 to i64
  %sub.ptr.sub.i1471 = sub i64 %sub.ptr.lhs.cast.i1469, %sub.ptr.rhs.cast.i1470
  %sub.ptr.div.i1472 = sdiv exact i64 %sub.ptr.sub.i1471, 24
  %__end_.i.i1473 = getelementptr inbounds %class.LoopSuiteRunInfo, ptr %call3, i64 0, i32 16, i32 1
  %34 = load ptr, ptr %__end_.i.i1473, align 16, !tbaa !63
  %35 = load ptr, ptr %fom_rate, align 8, !tbaa !64
  %sub.ptr.lhs.cast.i.i1474 = ptrtoint ptr %34 to i64
  %sub.ptr.rhs.cast.i.i1475 = ptrtoint ptr %35 to i64
  %sub.ptr.sub.i.i1476 = sub i64 %sub.ptr.lhs.cast.i.i1474, %sub.ptr.rhs.cast.i.i1475
  %sub.ptr.div.i.i1477 = sdiv exact i64 %sub.ptr.sub.i.i1476, 24
  %cmp.i1478 = icmp ugt i64 %sub.ptr.div.i1472, %sub.ptr.div.i.i1477
  br i1 %cmp.i1478, label %if.then.i1480, label %if.else.i1482

if.then.i1480:                                    ; preds = %invoke.cont40
  %sub.i1479 = sub nsw i64 %sub.ptr.div.i1472, %sub.ptr.div.i.i1477
  invoke void @_ZNSt3__16vectorINS0_IeNS_9allocatorIeEEEENS1_IS3_EEE8__appendEm(ptr noundef nonnull align 8 dereferenceable(24) %fom_rate, i64 noundef %sub.i1479)
          to label %_ZNSt3__16vectorINS0_IeNS_9allocatorIeEEEENS1_IS3_EEE6resizeEm.exit1496 unwind label %lpad1

if.else.i1482:                                    ; preds = %invoke.cont40
  %cmp2.i1481 = icmp ult i64 %sub.ptr.div.i1472, %sub.ptr.div.i.i1477
  br i1 %cmp2.i1481, label %if.then3.i1485, label %_ZNSt3__16vectorINS0_IeNS_9allocatorIeEEEENS1_IS3_EEE6resizeEm.exit1496

if.then3.i1485:                                   ; preds = %if.else.i1482
  %add.ptr.i1483 = getelementptr inbounds %"class.std::__1::vector.23", ptr %35, i64 %sub.ptr.div.i1472
  %cmp.not6.i.i.i1484 = icmp eq ptr %34, %add.ptr.i1483
  br i1 %cmp.not6.i.i.i1484, label %_ZNSt3__16vectorINS0_IeNS_9allocatorIeEEEENS1_IS3_EEE17__destruct_at_endB7v170000EPS3_.exit.i1494, label %while.body.i.i.i1489

while.body.i.i.i1489:                             ; preds = %if.then3.i1485, %_ZNSt3__116allocator_traitsINS_9allocatorINS_6vectorIeNS1_IeEEEEEEE7destroyB7v170000IS4_vEEvRS5_PT_.exit.i.i.i1493
  %__soon_to_be_end.07.i.i.i1486 = phi ptr [ %incdec.ptr.i.i.i1487, %_ZNSt3__116allocator_traitsINS_9allocatorINS_6vectorIeNS1_IeEEEEEEE7destroyB7v170000IS4_vEEvRS5_PT_.exit.i.i.i1493 ], [ %34, %if.then3.i1485 ]
  %incdec.ptr.i.i.i1487 = getelementptr inbounds %"class.std::__1::vector.23", ptr %__soon_to_be_end.07.i.i.i1486, i64 -1
  %36 = load ptr, ptr %incdec.ptr.i.i.i1487, align 8, !tbaa !65
  %cmp.not.i.i.i.i.i.i.i1488 = icmp eq ptr %36, null
  br i1 %cmp.not.i.i.i.i.i.i.i1488, label %_ZNSt3__116allocator_traitsINS_9allocatorINS_6vectorIeNS1_IeEEEEEEE7destroyB7v170000IS4_vEEvRS5_PT_.exit.i.i.i1493, label %if.then.i.i.i.i.i.i.i1491

if.then.i.i.i.i.i.i.i1491:                        ; preds = %while.body.i.i.i1489
  %__end_.i.i.i.i.i.i.i.i.i1490 = getelementptr %"class.std::__1::vector.23", ptr %__soon_to_be_end.07.i.i.i1486, i64 -1, i32 1
  store ptr %36, ptr %__end_.i.i.i.i.i.i.i.i.i1490, align 8, !tbaa !66
  call void @_ZdlPv(ptr noundef nonnull %36) #26
  br label %_ZNSt3__116allocator_traitsINS_9allocatorINS_6vectorIeNS1_IeEEEEEEE7destroyB7v170000IS4_vEEvRS5_PT_.exit.i.i.i1493

_ZNSt3__116allocator_traitsINS_9allocatorINS_6vectorIeNS1_IeEEEEEEE7destroyB7v170000IS4_vEEvRS5_PT_.exit.i.i.i1493: ; preds = %if.then.i.i.i.i.i.i.i1491, %while.body.i.i.i1489
  %cmp.not.i.i.i1492 = icmp eq ptr %incdec.ptr.i.i.i1487, %add.ptr.i1483
  br i1 %cmp.not.i.i.i1492, label %_ZNSt3__16vectorINS0_IeNS_9allocatorIeEEEENS1_IS3_EEE17__destruct_at_endB7v170000EPS3_.exit.i1494, label %while.body.i.i.i1489

_ZNSt3__16vectorINS0_IeNS_9allocatorIeEEEENS1_IS3_EEE17__destruct_at_endB7v170000EPS3_.exit.i1494: ; preds = %_ZNSt3__116allocator_traitsINS_9allocatorINS_6vectorIeNS1_IeEEEEEEE7destroyB7v170000IS4_vEEvRS5_PT_.exit.i.i.i1493, %if.then3.i1485
  store ptr %add.ptr.i1483, ptr %__end_.i.i1473, align 16, !tbaa !63
  br label %_ZNSt3__16vectorINS0_IeNS_9allocatorIeEEEENS1_IS3_EEE6resizeEm.exit1496

_ZNSt3__16vectorINS0_IeNS_9allocatorIeEEEENS1_IS3_EEE6resizeEm.exit1496: ; preds = %if.then.i1480, %if.else.i1482, %_ZNSt3__16vectorINS0_IeNS_9allocatorIeEEEENS1_IS3_EEE17__destruct_at_endB7v170000EPS3_.exit.i1494
  %37 = load ptr, ptr %__end_.i, align 8, !tbaa !54
  %38 = load ptr, ptr %run_variant_names, align 8, !tbaa !55
  %cmp443602.not = icmp eq ptr %37, %38
  br i1 %cmp443602.not, label %for.cond.cleanup, label %for.body.lr.ph

for.body.lr.ph:                                   ; preds = %_ZNSt3__16vectorINS0_IeNS_9allocatorIeEEEENS1_IS3_EEE6resizeEm.exit1496
  %loop_test_stats.i = getelementptr inbounds %class.LoopSuiteRunInfo, ptr %call3, i64 0, i32 20
  %second.i.i = getelementptr inbounds %"struct.std::__1::pair.75", ptr %ref.tmp.i, i64 0, i32 1
  %__data_.i.i.i.i = getelementptr inbounds %"struct.std::__1::basic_string<char>::__long", ptr %ref.tmp.i, i64 0, i32 2
  br label %for.body

for.cond.cleanup:                                 ; preds = %invoke.cont72, %_ZNSt3__16vectorINS0_IeNS_9allocatorIeEEEENS1_IS3_EEE6resizeEm.exit1496
  %call.i.i.i.i.i7.i = invoke noalias noundef nonnull dereferenceable(12) ptr @_Znwm(i64 noundef 12) #25
          to label %invoke.cont74 unwind label %_ZNSt3__128__exception_guard_exceptionsINS_6vectorIiNS_9allocatorIiEEE16__destroy_vectorEED2B7v170000Ev.exit.i

_ZNSt3__128__exception_guard_exceptionsINS_6vectorIiNS_9allocatorIiEEE16__destroy_vectorEED2B7v170000Ev.exit.i: ; preds = %for.cond.cleanup
  %39 = landingpad { ptr, i32 }
          cleanup
  br label %ehcleanup1108

lpad1:                                            ; preds = %if.then.i1480, %if.then.i1451, %if.then.i1425, %if.then.i1402, %if.then.i1310, %if.then.i, %if.end
  %40 = landingpad { ptr, i32 }
          cleanup
  br label %ehcleanup1108

for.body:                                         ; preds = %for.body.lr.ph, %invoke.cont72
  %41 = phi ptr [ %38, %for.body.lr.ph ], [ %58, %invoke.cont72 ]
  %conv3604 = phi i64 [ 0, %for.body.lr.ph ], [ %conv, %invoke.cont72 ]
  %call.i1507 = invoke noalias noundef nonnull dereferenceable(24) ptr @_Znwm(i64 noundef 24) #25
          to label %call.i.noexc unwind label %lpad47

call.i.noexc:                                     ; preds = %for.body
  %arrayidx.i1505 = getelementptr inbounds %"class.std::__1::basic_string", ptr %41, i64 %conv3604
  call void @llvm.memset.p0.i64(ptr noundef nonnull align 8 dereferenceable(24) %call.i1507, i8 0, i64 24, i1 false)
  call void @llvm.lifetime.start.p0(i64 32, ptr nonnull %ref.tmp.i) #24
  invoke void @_ZNSt3__112basic_stringIcNS_11char_traitsIcEENS_9allocatorIcEEEC1ERKS5_(ptr noundef nonnull align 8 dereferenceable(24) %ref.tmp.i, ptr noundef nonnull align 8 dereferenceable(24) %arrayidx.i1505)
          to label %.noexc1508 unwind label %lpad47

.noexc1508:                                       ; preds = %call.i.noexc
  store ptr %call.i1507, ptr %second.i.i, align 8, !tbaa !67
  %call2.i.i4.i = invoke { ptr, i8 } @_ZNSt3__16__treeINS_12__value_typeINS_12basic_stringIcNS_11char_traitsIcEENS_9allocatorIcEEEEPNS_6vectorI8LoopStatNS5_IS9_EEEEEENS_19__map_value_compareIS7_SD_NS_4lessIS7_EELb1EEENS5_ISD_EEE25__emplace_unique_key_argsIS7_JNS_4pairIKS7_SC_EEEEENSL_INS_15__tree_iteratorISD_PNS_11__tree_nodeISD_PvEElEEbEERKT_DpOT0_(ptr noundef nonnull align 8 dereferenceable(24) %loop_test_stats.i, ptr noundef nonnull align 8 dereferenceable(24) %ref.tmp.i, ptr noundef nonnull align 8 dereferenceable(32) %ref.tmp.i)
          to label %invoke.cont.i unwind label %lpad.i

invoke.cont.i:                                    ; preds = %.noexc1508
  %bf.load.i.i.i.i = load i8, ptr %ref.tmp.i, align 8
  %bf.clear.i.i.i.i = and i8 %bf.load.i.i.i.i, 1
  %tobool.i.not.i.i.i = icmp eq i8 %bf.clear.i.i.i.i, 0
  br i1 %tobool.i.not.i.i.i, label %invoke.cont48, label %if.then.i.i.i1506

if.then.i.i.i1506:                                ; preds = %invoke.cont.i
  %42 = load ptr, ptr %__data_.i.i.i.i, align 8, !tbaa !56
  call void @_ZdlPv(ptr noundef %42) #26
  br label %invoke.cont48

lpad.i:                                           ; preds = %.noexc1508
  %43 = landingpad { ptr, i32 }
          cleanup
  %bf.load.i.i.i5.i = load i8, ptr %ref.tmp.i, align 8
  %bf.clear.i.i.i6.i = and i8 %bf.load.i.i.i5.i, 1
  %tobool.i.not.i.i7.i = icmp eq i8 %bf.clear.i.i.i6.i, 0
  br i1 %tobool.i.not.i.i7.i, label %_ZNSt3__14pairIKNS_12basic_stringIcNS_11char_traitsIcEENS_9allocatorIcEEEEPNS_6vectorI8LoopStatNS4_IS9_EEEEED2Ev.exit10.i, label %if.then.i.i9.i

if.then.i.i9.i:                                   ; preds = %lpad.i
  %44 = load ptr, ptr %__data_.i.i.i.i, align 8, !tbaa !56
  call void @_ZdlPv(ptr noundef %44) #26
  br label %_ZNSt3__14pairIKNS_12basic_stringIcNS_11char_traitsIcEENS_9allocatorIcEEEEPNS_6vectorI8LoopStatNS4_IS9_EEEEED2Ev.exit10.i

_ZNSt3__14pairIKNS_12basic_stringIcNS_11char_traitsIcEENS_9allocatorIcEEEEPNS_6vectorI8LoopStatNS4_IS9_EEEEED2Ev.exit10.i: ; preds = %if.then.i.i9.i, %lpad.i
  call void @llvm.lifetime.end.p0(i64 32, ptr nonnull %ref.tmp.i) #24
  br label %ehcleanup1108

invoke.cont48:                                    ; preds = %if.then.i.i.i1506, %invoke.cont.i
  call void @llvm.lifetime.end.p0(i64 32, ptr nonnull %ref.tmp.i) #24
  %45 = load ptr, ptr %num_loops_run, align 16, !tbaa !60
  %arrayidx.i1510 = getelementptr inbounds %"class.std::__1::vector.39", ptr %45, i64 %conv3604
  call void @llvm.lifetime.start.p0(i64 4, ptr nonnull %ref.tmp52) #24
  store i32 0, ptr %ref.tmp52, align 4, !tbaa !69
  %__end_.i.i1511 = getelementptr inbounds %"class.std::__1::vector.39", ptr %45, i64 %conv3604, i32 1
  %46 = load ptr, ptr %__end_.i.i1511, align 8, !tbaa !62
  %47 = load ptr, ptr %arrayidx.i1510, align 8, !tbaa !61
  %sub.ptr.lhs.cast.i.i1512 = ptrtoint ptr %46 to i64
  %sub.ptr.rhs.cast.i.i1513 = ptrtoint ptr %47 to i64
  %sub.ptr.sub.i.i1514 = sub i64 %sub.ptr.lhs.cast.i.i1512, %sub.ptr.rhs.cast.i.i1513
  %cmp.i1516 = icmp ult i64 %sub.ptr.sub.i.i1514, 12
  br i1 %cmp.i1516, label %if.then.i1518, label %if.else.i1520

if.then.i1518:                                    ; preds = %invoke.cont48
  %sub.ptr.div.i.i1515 = lshr exact i64 %sub.ptr.sub.i.i1514, 2
  %sub.i1517 = sub nuw nsw i64 3, %sub.ptr.div.i.i1515
  invoke void @_ZNSt3__16vectorIiNS_9allocatorIiEEE8__appendEmRKi(ptr noundef nonnull align 8 dereferenceable(24) %arrayidx.i1510, i64 noundef %sub.i1517, ptr noundef nonnull align 4 dereferenceable(4) %ref.tmp52)
          to label %invoke.cont54 unwind label %lpad53

if.else.i1520:                                    ; preds = %invoke.cont48
  %cmp2.i1519.not = icmp eq i64 %sub.ptr.sub.i.i1514, 12
  br i1 %cmp2.i1519.not, label %invoke.cont54, label %if.then3.i1522

if.then3.i1522:                                   ; preds = %if.else.i1520
  %add.ptr.i1521 = getelementptr inbounds i32, ptr %47, i64 3
  store ptr %add.ptr.i1521, ptr %__end_.i.i1511, align 8, !tbaa !62
  br label %invoke.cont54

invoke.cont54:                                    ; preds = %if.then3.i1522, %if.else.i1520, %if.then.i1518
  call void @llvm.lifetime.end.p0(i64 4, ptr nonnull %ref.tmp52) #24
  %48 = load ptr, ptr %tot_time, align 8, !tbaa !64
  %arrayidx.i1524 = getelementptr inbounds %"class.std::__1::vector.23", ptr %48, i64 %conv3604
  call void @llvm.lifetime.start.p0(i64 16, ptr nonnull %ref.tmp58) #24
  store x86_fp80 0xK00000000000000000000, ptr %ref.tmp58, align 16, !tbaa !70
  %__end_.i.i1525 = getelementptr inbounds %"class.std::__1::vector.23", ptr %48, i64 %conv3604, i32 1
  %49 = load ptr, ptr %__end_.i.i1525, align 8, !tbaa !66
  %50 = load ptr, ptr %arrayidx.i1524, align 8, !tbaa !65
  %sub.ptr.lhs.cast.i.i1526 = ptrtoint ptr %49 to i64
  %sub.ptr.rhs.cast.i.i1527 = ptrtoint ptr %50 to i64
  %sub.ptr.sub.i.i1528 = sub i64 %sub.ptr.lhs.cast.i.i1526, %sub.ptr.rhs.cast.i.i1527
  %cmp.i1530 = icmp ult i64 %sub.ptr.sub.i.i1528, 48
  br i1 %cmp.i1530, label %if.then.i1532, label %if.else.i1534

if.then.i1532:                                    ; preds = %invoke.cont54
  %sub.ptr.div.i.i1529 = lshr exact i64 %sub.ptr.sub.i.i1528, 4
  %sub.i1531 = sub nuw nsw i64 3, %sub.ptr.div.i.i1529
  invoke void @_ZNSt3__16vectorIeNS_9allocatorIeEEE8__appendEmRKe(ptr noundef nonnull align 8 dereferenceable(24) %arrayidx.i1524, i64 noundef %sub.i1531, ptr noundef nonnull align 16 dereferenceable(16) %ref.tmp58)
          to label %invoke.cont60 unwind label %lpad59

if.else.i1534:                                    ; preds = %invoke.cont54
  %cmp2.i1533.not = icmp eq i64 %sub.ptr.sub.i.i1528, 48
  br i1 %cmp2.i1533.not, label %invoke.cont60, label %if.then3.i1536

if.then3.i1536:                                   ; preds = %if.else.i1534
  %add.ptr.i1535 = getelementptr inbounds x86_fp80, ptr %50, i64 3
  store ptr %add.ptr.i1535, ptr %__end_.i.i1525, align 8, !tbaa !66
  br label %invoke.cont60

invoke.cont60:                                    ; preds = %if.then3.i1536, %if.else.i1534, %if.then.i1532
  call void @llvm.lifetime.end.p0(i64 16, ptr nonnull %ref.tmp58) #24
  %51 = load ptr, ptr %fom_rel, align 16, !tbaa !64
  %arrayidx.i1538 = getelementptr inbounds %"class.std::__1::vector.23", ptr %51, i64 %conv3604
  call void @llvm.lifetime.start.p0(i64 16, ptr nonnull %ref.tmp64) #24
  store x86_fp80 0xK00000000000000000000, ptr %ref.tmp64, align 16, !tbaa !70
  %__end_.i.i1539 = getelementptr inbounds %"class.std::__1::vector.23", ptr %51, i64 %conv3604, i32 1
  %52 = load ptr, ptr %__end_.i.i1539, align 8, !tbaa !66
  %53 = load ptr, ptr %arrayidx.i1538, align 8, !tbaa !65
  %sub.ptr.lhs.cast.i.i1540 = ptrtoint ptr %52 to i64
  %sub.ptr.rhs.cast.i.i1541 = ptrtoint ptr %53 to i64
  %sub.ptr.sub.i.i1542 = sub i64 %sub.ptr.lhs.cast.i.i1540, %sub.ptr.rhs.cast.i.i1541
  %cmp.i1544 = icmp ult i64 %sub.ptr.sub.i.i1542, 48
  br i1 %cmp.i1544, label %if.then.i1546, label %if.else.i1548

if.then.i1546:                                    ; preds = %invoke.cont60
  %sub.ptr.div.i.i1543 = lshr exact i64 %sub.ptr.sub.i.i1542, 4
  %sub.i1545 = sub nuw nsw i64 3, %sub.ptr.div.i.i1543
  invoke void @_ZNSt3__16vectorIeNS_9allocatorIeEEE8__appendEmRKe(ptr noundef nonnull align 8 dereferenceable(24) %arrayidx.i1538, i64 noundef %sub.i1545, ptr noundef nonnull align 16 dereferenceable(16) %ref.tmp64)
          to label %invoke.cont66 unwind label %lpad65

if.else.i1548:                                    ; preds = %invoke.cont60
  %cmp2.i1547.not = icmp eq i64 %sub.ptr.sub.i.i1542, 48
  br i1 %cmp2.i1547.not, label %invoke.cont66, label %if.then3.i1550

if.then3.i1550:                                   ; preds = %if.else.i1548
  %add.ptr.i1549 = getelementptr inbounds x86_fp80, ptr %53, i64 3
  store ptr %add.ptr.i1549, ptr %__end_.i.i1539, align 8, !tbaa !66
  br label %invoke.cont66

invoke.cont66:                                    ; preds = %if.then3.i1550, %if.else.i1548, %if.then.i1546
  call void @llvm.lifetime.end.p0(i64 16, ptr nonnull %ref.tmp64) #24
  %54 = load ptr, ptr %fom_rate, align 8, !tbaa !64
  %arrayidx.i1553 = getelementptr inbounds %"class.std::__1::vector.23", ptr %54, i64 %conv3604
  call void @llvm.lifetime.start.p0(i64 16, ptr nonnull %ref.tmp70) #24
  store x86_fp80 0xK00000000000000000000, ptr %ref.tmp70, align 16, !tbaa !70
  %__end_.i.i1554 = getelementptr inbounds %"class.std::__1::vector.23", ptr %54, i64 %conv3604, i32 1
  %55 = load ptr, ptr %__end_.i.i1554, align 8, !tbaa !66
  %56 = load ptr, ptr %arrayidx.i1553, align 8, !tbaa !65
  %sub.ptr.lhs.cast.i.i1555 = ptrtoint ptr %55 to i64
  %sub.ptr.rhs.cast.i.i1556 = ptrtoint ptr %56 to i64
  %sub.ptr.sub.i.i1557 = sub i64 %sub.ptr.lhs.cast.i.i1555, %sub.ptr.rhs.cast.i.i1556
  %cmp.i1559 = icmp ult i64 %sub.ptr.sub.i.i1557, 48
  br i1 %cmp.i1559, label %if.then.i1561, label %if.else.i1563

if.then.i1561:                                    ; preds = %invoke.cont66
  %sub.ptr.div.i.i1558 = lshr exact i64 %sub.ptr.sub.i.i1557, 4
  %sub.i1560 = sub nuw nsw i64 3, %sub.ptr.div.i.i1558
  invoke void @_ZNSt3__16vectorIeNS_9allocatorIeEEE8__appendEmRKe(ptr noundef nonnull align 8 dereferenceable(24) %arrayidx.i1553, i64 noundef %sub.i1560, ptr noundef nonnull align 16 dereferenceable(16) %ref.tmp70)
          to label %invoke.cont72 unwind label %lpad71

if.else.i1563:                                    ; preds = %invoke.cont66
  %cmp2.i1562.not = icmp eq i64 %sub.ptr.sub.i.i1557, 48
  br i1 %cmp2.i1562.not, label %invoke.cont72, label %if.then3.i1565

if.then3.i1565:                                   ; preds = %if.else.i1563
  %add.ptr.i1564 = getelementptr inbounds x86_fp80, ptr %56, i64 3
  store ptr %add.ptr.i1564, ptr %__end_.i.i1554, align 8, !tbaa !66
  br label %invoke.cont72

invoke.cont72:                                    ; preds = %if.then3.i1565, %if.else.i1563, %if.then.i1561
  call void @llvm.lifetime.end.p0(i64 16, ptr nonnull %ref.tmp70) #24
  %inc = add nuw nsw i64 %conv3604, 1
  %conv = and i64 %inc, 4294967295
  %57 = load ptr, ptr %__end_.i, align 8, !tbaa !54
  %58 = load ptr, ptr %run_variant_names, align 8, !tbaa !55
  %sub.ptr.lhs.cast.i1498 = ptrtoint ptr %57 to i64
  %sub.ptr.rhs.cast.i1499 = ptrtoint ptr %58 to i64
  %sub.ptr.sub.i1500 = sub i64 %sub.ptr.lhs.cast.i1498, %sub.ptr.rhs.cast.i1499
  %sub.ptr.div.i1501 = sdiv exact i64 %sub.ptr.sub.i1500, 24
  %cmp44 = icmp ugt i64 %sub.ptr.div.i1501, %conv
  br i1 %cmp44, label %for.body, label %for.cond.cleanup, !llvm.loop !71

lpad47:                                           ; preds = %call.i.noexc, %for.body
  %59 = landingpad { ptr, i32 }
          cleanup
  br label %ehcleanup1108

lpad53:                                           ; preds = %if.then.i1518
  %60 = landingpad { ptr, i32 }
          cleanup
  call void @llvm.lifetime.end.p0(i64 4, ptr nonnull %ref.tmp52) #24
  br label %ehcleanup1108

lpad59:                                           ; preds = %if.then.i1532
  %61 = landingpad { ptr, i32 }
          cleanup
  call void @llvm.lifetime.end.p0(i64 16, ptr nonnull %ref.tmp58) #24
  br label %ehcleanup1108

lpad65:                                           ; preds = %if.then.i1546
  %62 = landingpad { ptr, i32 }
          cleanup
  call void @llvm.lifetime.end.p0(i64 16, ptr nonnull %ref.tmp64) #24
  br label %ehcleanup1108

lpad71:                                           ; preds = %if.then.i1561
  %63 = landingpad { ptr, i32 }
          cleanup
  call void @llvm.lifetime.end.p0(i64 16, ptr nonnull %ref.tmp70) #24
  br label %ehcleanup1108

invoke.cont74:                                    ; preds = %for.cond.cleanup
  %64 = insertelement <2 x double> poison, double %loop_length_factor, i64 0
  %65 = shufflevector <2 x double> %64, <2 x double> poison, <2 x i32> zeroinitializer
  %66 = fmul <2 x double> %65, <double 4.421700e+04, double 5.001000e+03>
  %arrayidx.i1568 = getelementptr inbounds i32, ptr %call.i.i.i.i.i7.i, i64 1
  %67 = fptosi <2 x double> %66 to <2 x i32>
  store <2 x i32> %67, ptr %call.i.i.i.i.i7.i, align 4, !tbaa !69
  %mul80 = fmul double %loop_length_factor, 1.710000e+02
  %conv81 = fptosi double %mul80 to i32
  %arrayidx.i1569 = getelementptr inbounds i32, ptr %call.i.i.i.i.i7.i, i64 2
  store i32 %conv81, ptr %arrayidx.i1569, align 4, !tbaa !69
  store double %loop_length_factor, ptr @_ZN7ADomain18loop_length_factorE, align 8, !tbaa !53
  %num_loops = getelementptr inbounds %class.LoopSuiteRunInfo, ptr %call3, i64 0, i32 1
  %68 = load i32, ptr %num_loops, align 8, !tbaa !73
  %cmp853641.not = icmp eq i32 %68, 0
  br i1 %cmp853641.not, label %for.cond.cleanup86, label %for.body87.lr.ph

for.body87.lr.ph:                                 ; preds = %invoke.cont74
  %num_loop_lengths = getelementptr inbounds %class.LoopSuiteRunInfo, ptr %call3, i64 0, i32 4
  %__data_.i.i.i1727 = getelementptr inbounds %"struct.std::__1::basic_string<char>::__short", ptr %ref.tmp138, i64 0, i32 2
  %cmp.i24.i.i1736 = icmp ugt ptr %__data_.i.i.i1727, @.str.7
  %add.ptr.i.i.i1737 = getelementptr inbounds %"struct.std::__1::basic_string<char>::__short", ptr %ref.tmp138, i64 0, i32 2, i64 15
  %cmp1.i.i.i1738 = icmp ule ptr %add.ptr.i.i.i1737, @.str.7
  %69 = or i1 %cmp.i24.i.i1736, %cmp1.i.i.i1738
  %__data_.i.i.i1746 = getelementptr inbounds %"struct.std::__1::basic_string<char>::__long", ptr %loop_name, i64 0, i32 2
  %__data_.i.i.i1691 = getelementptr inbounds %"struct.std::__1::basic_string<char>::__short", ptr %ref.tmp132, i64 0, i32 2
  %cmp.i24.i.i1700 = icmp ugt ptr %__data_.i.i.i1691, @.str.6
  %add.ptr.i.i.i1701 = getelementptr inbounds %"struct.std::__1::basic_string<char>::__short", ptr %ref.tmp132, i64 0, i32 2, i64 11
  %cmp1.i.i.i1702 = icmp ule ptr %add.ptr.i.i.i1701, @.str.6
  %70 = or i1 %cmp.i24.i.i1700, %cmp1.i.i.i1702
  %loop_weight145 = getelementptr inbounds %class.LoopStat, ptr %loop_stat, i64 0, i32 1
  %loop_length153 = getelementptr inbounds %class.LoopStat, ptr %loop_stat, i64 0, i32 10
  %samples_per_pass161 = getelementptr inbounds %class.LoopStat, ptr %loop_stat, i64 0, i32 11
  %__data_.i.i.i3312 = getelementptr inbounds %"struct.std::__1::basic_string<char>::__short", ptr %ref.tmp933, i64 0, i32 2
  %cmp.i24.i.i3321 = icmp ugt ptr %__data_.i.i.i3312, @.str.33
  %add.ptr.i.i.i3322 = getelementptr inbounds %"struct.std::__1::basic_string<char>::__short", ptr %ref.tmp933, i64 0, i32 2, i64 9
  %cmp1.i.i.i3323 = icmp ule ptr %add.ptr.i.i.i3322, @.str.33
  %71 = or i1 %cmp.i24.i.i3321, %cmp1.i.i.i3323
  %__data_.i.i.i3271 = getelementptr inbounds %"struct.std::__1::basic_string<char>::__short", ptr %ref.tmp904, i64 0, i32 2
  %cmp.i24.i.i3280 = icmp ugt ptr %__data_.i.i.i3271, @.str.32
  %add.ptr.i.i.i3281 = getelementptr inbounds %"struct.std::__1::basic_string<char>::__short", ptr %ref.tmp904, i64 0, i32 2, i64 9
  %cmp1.i.i.i3282 = icmp ule ptr %add.ptr.i.i.i3281, @.str.32
  %72 = or i1 %cmp.i24.i.i3280, %cmp1.i.i.i3282
  %__data_.i.i.i3230 = getelementptr inbounds %"struct.std::__1::basic_string<char>::__short", ptr %ref.tmp875, i64 0, i32 2
  %cmp.i24.i.i3239 = icmp ugt ptr %__data_.i.i.i3230, @.str.31
  %add.ptr.i.i.i3240 = getelementptr inbounds %"struct.std::__1::basic_string<char>::__short", ptr %ref.tmp875, i64 0, i32 2, i64 8
  %cmp1.i.i.i3241 = icmp ule ptr %add.ptr.i.i.i3240, @.str.31
  %73 = or i1 %cmp.i24.i.i3239, %cmp1.i.i.i3241
  %__data_.i.i.i3189 = getelementptr inbounds %"struct.std::__1::basic_string<char>::__short", ptr %ref.tmp846, i64 0, i32 2
  %cmp.i24.i.i3198 = icmp ugt ptr %__data_.i.i.i3189, @.str.30
  %add.ptr.i.i.i3199 = getelementptr inbounds %"struct.std::__1::basic_string<char>::__short", ptr %ref.tmp846, i64 0, i32 2, i64 13
  %cmp1.i.i.i3200 = icmp ule ptr %add.ptr.i.i.i3199, @.str.30
  %74 = or i1 %cmp.i24.i.i3198, %cmp1.i.i.i3200
  %__data_.i.i.i3148 = getelementptr inbounds %"struct.std::__1::basic_string<char>::__short", ptr %ref.tmp817, i64 0, i32 2
  %cmp.i24.i.i3157 = icmp ugt ptr %__data_.i.i.i3148, @.str.29
  %add.ptr.i.i.i3158 = getelementptr inbounds %"struct.std::__1::basic_string<char>::__short", ptr %ref.tmp817, i64 0, i32 2, i64 8
  %cmp1.i.i.i3159 = icmp ule ptr %add.ptr.i.i.i3158, @.str.29
  %75 = or i1 %cmp.i24.i.i3157, %cmp1.i.i.i3159
  %__data_.i.i.i3107 = getelementptr inbounds %"struct.std::__1::basic_string<char>::__short", ptr %ref.tmp788, i64 0, i32 2
  %cmp.i24.i.i3116 = icmp ugt ptr %__data_.i.i.i3107, @.str.28
  %add.ptr.i.i.i3117 = getelementptr inbounds %"struct.std::__1::basic_string<char>::__short", ptr %ref.tmp788, i64 0, i32 2, i64 6
  %cmp1.i.i.i3118 = icmp ule ptr %add.ptr.i.i.i3117, @.str.28
  %76 = or i1 %cmp.i24.i.i3116, %cmp1.i.i.i3118
  %__data_.i.i.i3066 = getelementptr inbounds %"struct.std::__1::basic_string<char>::__short", ptr %ref.tmp759, i64 0, i32 2
  %cmp.i24.i.i3075 = icmp ugt ptr %__data_.i.i.i3066, @.str.27
  %add.ptr.i.i.i3076 = getelementptr inbounds %"struct.std::__1::basic_string<char>::__short", ptr %ref.tmp759, i64 0, i32 2, i64 6
  %cmp1.i.i.i3077 = icmp ule ptr %add.ptr.i.i.i3076, @.str.27
  %77 = or i1 %cmp.i24.i.i3075, %cmp1.i.i.i3077
  %__data_.i.i.i3026 = getelementptr inbounds %"struct.std::__1::basic_string<char>::__short", ptr %ref.tmp730, i64 0, i32 2
  %cmp.i24.i.i3035 = icmp ugt ptr %__data_.i.i.i3026, @.str.26
  %add.ptr.i.i.i3036 = getelementptr inbounds %"struct.std::__1::basic_string<char>::__short", ptr %ref.tmp730, i64 0, i32 2, i64 10
  %cmp1.i.i.i3037 = icmp ule ptr %add.ptr.i.i.i3036, @.str.26
  %78 = or i1 %cmp.i24.i.i3035, %cmp1.i.i.i3037
  %__data_.i.i.i2985 = getelementptr inbounds %"struct.std::__1::basic_string<char>::__short", ptr %ref.tmp701, i64 0, i32 2
  %cmp.i24.i.i2994 = icmp ugt ptr %__data_.i.i.i2985, @.str.25
  %add.ptr.i.i.i2995 = getelementptr inbounds %"struct.std::__1::basic_string<char>::__short", ptr %ref.tmp701, i64 0, i32 2, i64 9
  %cmp1.i.i.i2996 = icmp ule ptr %add.ptr.i.i.i2995, @.str.25
  %79 = or i1 %cmp.i24.i.i2994, %cmp1.i.i.i2996
  %__data_.i.i.i2944 = getelementptr inbounds %"struct.std::__1::basic_string<char>::__short", ptr %ref.tmp672, i64 0, i32 2
  %cmp.i24.i.i2953 = icmp ugt ptr %__data_.i.i.i2944, @.str.24
  %add.ptr.i.i.i2954 = getelementptr inbounds %"struct.std::__1::basic_string<char>::__short", ptr %ref.tmp672, i64 0, i32 2, i64 12
  %cmp1.i.i.i2955 = icmp ule ptr %add.ptr.i.i.i2954, @.str.24
  %80 = or i1 %cmp.i24.i.i2953, %cmp1.i.i.i2955
  %__data_.i.i.i2903 = getelementptr inbounds %"struct.std::__1::basic_string<char>::__short", ptr %ref.tmp643, i64 0, i32 2
  %cmp.i24.i.i2912 = icmp ugt ptr %__data_.i.i.i2903, @.str.23
  %add.ptr.i.i.i2913 = getelementptr inbounds %"struct.std::__1::basic_string<char>::__short", ptr %ref.tmp643, i64 0, i32 2, i64 11
  %cmp1.i.i.i2914 = icmp ule ptr %add.ptr.i.i.i2913, @.str.23
  %81 = or i1 %cmp.i24.i.i2912, %cmp1.i.i.i2914
  %__data_.i.i.i2862 = getelementptr inbounds %"struct.std::__1::basic_string<char>::__short", ptr %ref.tmp614, i64 0, i32 2
  %cmp.i24.i.i2871 = icmp ugt ptr %__data_.i.i.i2862, @.str.22
  %add.ptr.i.i.i2872 = getelementptr inbounds %"struct.std::__1::basic_string<char>::__short", ptr %ref.tmp614, i64 0, i32 2, i64 3
  %cmp1.i.i.i2873 = icmp ule ptr %add.ptr.i.i.i2872, @.str.22
  %82 = or i1 %cmp.i24.i.i2871, %cmp1.i.i.i2873
  %__data_.i.i.i2822 = getelementptr inbounds %"struct.std::__1::basic_string<char>::__short", ptr %ref.tmp585, i64 0, i32 2
  %cmp.i24.i.i2831 = icmp ugt ptr %__data_.i.i.i2822, @.str.21
  %add.ptr.i.i.i2832 = getelementptr inbounds %"struct.std::__1::basic_string<char>::__short", ptr %ref.tmp585, i64 0, i32 2, i64 3
  %cmp1.i.i.i2833 = icmp ule ptr %add.ptr.i.i.i2832, @.str.21
  %83 = or i1 %cmp.i24.i.i2831, %cmp1.i.i.i2833
  %__data_.i.i.i2781 = getelementptr inbounds %"struct.std::__1::basic_string<char>::__short", ptr %ref.tmp556, i64 0, i32 2
  %cmp.i24.i.i2790 = icmp ugt ptr %__data_.i.i.i2781, @.str.20
  %add.ptr.i.i.i2791 = getelementptr inbounds %"struct.std::__1::basic_string<char>::__short", ptr %ref.tmp556, i64 0, i32 2, i64 12
  %cmp1.i.i.i2792 = icmp ule ptr %add.ptr.i.i.i2791, @.str.20
  %84 = or i1 %cmp.i24.i.i2790, %cmp1.i.i.i2792
  %__data_.i.i.i2740 = getelementptr inbounds %"struct.std::__1::basic_string<char>::__short", ptr %ref.tmp527, i64 0, i32 2
  %cmp.i24.i.i2749 = icmp ugt ptr %__data_.i.i.i2740, @.str.19
  %add.ptr.i.i.i2750 = getelementptr inbounds %"struct.std::__1::basic_string<char>::__short", ptr %ref.tmp527, i64 0, i32 2, i64 11
  %cmp1.i.i.i2751 = icmp ule ptr %add.ptr.i.i.i2750, @.str.19
  %85 = or i1 %cmp.i24.i.i2749, %cmp1.i.i.i2751
  %__data_.i.i.i2699 = getelementptr inbounds %"struct.std::__1::basic_string<char>::__short", ptr %ref.tmp498, i64 0, i32 2
  %cmp.i24.i.i2708 = icmp ugt ptr %__data_.i.i.i2699, @.str.18
  %add.ptr.i.i.i2709 = getelementptr inbounds %"struct.std::__1::basic_string<char>::__short", ptr %ref.tmp498, i64 0, i32 2, i64 10
  %cmp1.i.i.i2710 = icmp ule ptr %add.ptr.i.i.i2709, @.str.18
  %86 = or i1 %cmp.i24.i.i2708, %cmp1.i.i.i2710
  %__data_.i.i.i2658 = getelementptr inbounds %"struct.std::__1::basic_string<char>::__short", ptr %ref.tmp469, i64 0, i32 2
  %cmp.i24.i.i2667 = icmp ugt ptr %__data_.i.i.i2658, @.str.17
  %add.ptr.i.i.i2668 = getelementptr inbounds %"struct.std::__1::basic_string<char>::__short", ptr %ref.tmp469, i64 0, i32 2, i64 4
  %cmp1.i.i.i2669 = icmp ule ptr %add.ptr.i.i.i2668, @.str.17
  %87 = or i1 %cmp.i24.i.i2667, %cmp1.i.i.i2669
  %__data_.i.i.i2618 = getelementptr inbounds %"struct.std::__1::basic_string<char>::__short", ptr %ref.tmp440, i64 0, i32 2
  %cmp.i24.i.i2627 = icmp ugt ptr %__data_.i.i.i2618, @.str.16
  %add.ptr.i.i.i2628 = getelementptr inbounds %"struct.std::__1::basic_string<char>::__short", ptr %ref.tmp440, i64 0, i32 2, i64 8
  %cmp1.i.i.i2629 = icmp ule ptr %add.ptr.i.i.i2628, @.str.16
  %88 = or i1 %cmp.i24.i.i2627, %cmp1.i.i.i2629
  %__data_.i.i.i2577 = getelementptr inbounds %"struct.std::__1::basic_string<char>::__short", ptr %ref.tmp411, i64 0, i32 2
  %cmp.i24.i.i2586 = icmp ugt ptr %__data_.i.i.i2577, @.str.15
  %add.ptr.i.i.i2587 = getelementptr inbounds %"struct.std::__1::basic_string<char>::__short", ptr %ref.tmp411, i64 0, i32 2, i64 8
  %cmp1.i.i.i2588 = icmp ule ptr %add.ptr.i.i.i2587, @.str.15
  %89 = or i1 %cmp.i24.i.i2586, %cmp1.i.i.i2588
  %__data_.i.i.i2536 = getelementptr inbounds %"struct.std::__1::basic_string<char>::__short", ptr %ref.tmp382, i64 0, i32 2
  %cmp.i24.i.i2545 = icmp ugt ptr %__data_.i.i.i2536, @.str.14
  %add.ptr.i.i.i2546 = getelementptr inbounds %"struct.std::__1::basic_string<char>::__short", ptr %ref.tmp382, i64 0, i32 2, i64 7
  %cmp1.i.i.i2547 = icmp ule ptr %add.ptr.i.i.i2546, @.str.14
  %90 = or i1 %cmp.i24.i.i2545, %cmp1.i.i.i2547
  %__data_.i.i.i2496 = getelementptr inbounds %"struct.std::__1::basic_string<char>::__short", ptr %ref.tmp353, i64 0, i32 2
  %cmp.i24.i.i2505 = icmp ugt ptr %__data_.i.i.i2496, @.str.13
  %add.ptr.i.i.i2506 = getelementptr inbounds %"struct.std::__1::basic_string<char>::__short", ptr %ref.tmp353, i64 0, i32 2, i64 9
  %cmp1.i.i.i2507 = icmp ule ptr %add.ptr.i.i.i2506, @.str.13
  %91 = or i1 %cmp.i24.i.i2505, %cmp1.i.i.i2507
  %__data_.i.i.i2456 = getelementptr inbounds %"struct.std::__1::basic_string<char>::__short", ptr %ref.tmp324, i64 0, i32 2
  %cmp.i24.i.i2465 = icmp ugt ptr %__data_.i.i.i2456, @.str.12
  %add.ptr.i.i.i2466 = getelementptr inbounds %"struct.std::__1::basic_string<char>::__short", ptr %ref.tmp324, i64 0, i32 2, i64 5
  %cmp1.i.i.i2467 = icmp ule ptr %add.ptr.i.i.i2466, @.str.12
  %92 = or i1 %cmp.i24.i.i2465, %cmp1.i.i.i2467
  %__data_.i.i.i2415 = getelementptr inbounds %"struct.std::__1::basic_string<char>::__short", ptr %ref.tmp295, i64 0, i32 2
  %cmp.i24.i.i2424 = icmp ugt ptr %__data_.i.i.i2415, @.str.11
  %add.ptr.i.i.i2425 = getelementptr inbounds %"struct.std::__1::basic_string<char>::__short", ptr %ref.tmp295, i64 0, i32 2, i64 3
  %cmp1.i.i.i2426 = icmp ule ptr %add.ptr.i.i.i2425, @.str.11
  %93 = or i1 %cmp.i24.i.i2424, %cmp1.i.i.i2426
  %__data_.i.i.i2153 = getelementptr inbounds %"struct.std::__1::basic_string<char>::__short", ptr %ref.tmp246, i64 0, i32 2
  %cmp.i24.i.i2162 = icmp ugt ptr %__data_.i.i.i2153, @.str.10
  %add.ptr.i.i.i2163 = getelementptr inbounds %"struct.std::__1::basic_string<char>::__short", ptr %ref.tmp246, i64 0, i32 2, i64 6
  %cmp1.i.i.i2164 = icmp ule ptr %add.ptr.i.i.i2163, @.str.10
  %94 = or i1 %cmp.i24.i.i2162, %cmp1.i.i.i2164
  %__data_.i.i.i1958 = getelementptr inbounds %"struct.std::__1::basic_string<char>::__short", ptr %ref.tmp208, i64 0, i32 2
  %cmp.i24.i.i1967 = icmp ugt ptr %__data_.i.i.i1958, @.str.9
  %add.ptr.i.i.i1968 = getelementptr inbounds %"struct.std::__1::basic_string<char>::__short", ptr %ref.tmp208, i64 0, i32 2, i64 14
  %cmp1.i.i.i1969 = icmp ule ptr %add.ptr.i.i.i1968, @.str.9
  %95 = or i1 %cmp.i24.i.i1967, %cmp1.i.i.i1969
  %__data_.i.i.i1768 = getelementptr inbounds %"struct.std::__1::basic_string<char>::__short", ptr %ref.tmp168, i64 0, i32 2
  %cmp.i24.i.i1777 = icmp ugt ptr %__data_.i.i.i1768, @.str.8
  %add.ptr.i.i.i1778 = getelementptr inbounds %"struct.std::__1::basic_string<char>::__short", ptr %ref.tmp168, i64 0, i32 2, i64 10
  %cmp1.i.i.i1779 = icmp ule ptr %add.ptr.i.i.i1778, @.str.8
  %96 = or i1 %cmp.i24.i.i1777, %cmp1.i.i.i1779
  %__data_.i.i.i1614 = getelementptr inbounds %"struct.std::__1::basic_string<char>::__short", ptr %ref.tmp99, i64 0, i32 2
  %cmp.i24.i.i1623 = icmp ugt ptr %__data_.i.i.i1614, @.str.4
  %add.ptr.i.i.i1624 = getelementptr inbounds %"struct.std::__1::basic_string<char>::__short", ptr %ref.tmp99, i64 0, i32 2, i64 13
  %cmp1.i.i.i1625 = icmp ule ptr %add.ptr.i.i.i1624, @.str.4
  %97 = or i1 %cmp.i24.i.i1623, %cmp1.i.i.i1625
  %__data_.i.i.i1650 = getelementptr inbounds %"struct.std::__1::basic_string<char>::__short", ptr %ref.tmp104, i64 0, i32 2
  %cmp.i24.i.i1659 = icmp ugt ptr %__data_.i.i.i1650, @.str.5
  %add.ptr.i.i.i1660 = getelementptr inbounds %"struct.std::__1::basic_string<char>::__short", ptr %ref.tmp104, i64 0, i32 2, i64 17
  %cmp1.i.i.i1661 = icmp ule ptr %add.ptr.i.i.i1660, @.str.5
  %98 = or i1 %cmp.i24.i.i1659, %cmp1.i.i.i1661
  %__data_.i.i.i3353 = getelementptr inbounds %"struct.std::__1::basic_string<char>::__short", ptr %ref.tmp962, i64 0, i32 2
  %cmp.i24.i.i3362 = icmp ugt ptr %__data_.i.i.i3353, @.str.34
  %add.ptr.i.i.i3363 = getelementptr inbounds %"struct.std::__1::basic_string<char>::__short", ptr %ref.tmp962, i64 0, i32 2, i64 12
  %cmp1.i.i.i3364 = icmp ule ptr %add.ptr.i.i.i3363, @.str.34
  %99 = or i1 %cmp.i24.i.i3362, %cmp1.i.i.i3364
  %__data_.i.i.i3394 = getelementptr inbounds %"struct.std::__1::basic_string<char>::__short", ptr %ref.tmp991, i64 0, i32 2
  %cmp.i24.i.i3403 = icmp ugt ptr %__data_.i.i.i3394, @.str.35
  %add.ptr.i.i.i3404 = getelementptr inbounds %"struct.std::__1::basic_string<char>::__short", ptr %ref.tmp991, i64 0, i32 2, i64 14
  %cmp1.i.i.i3405 = icmp ule ptr %add.ptr.i.i.i3404, @.str.35
  %100 = or i1 %cmp.i24.i.i3403, %cmp1.i.i.i3405
  %__data_.i.i.i1578 = getelementptr inbounds %"struct.std::__1::basic_string<char>::__short", ptr %ref.tmp91, i64 0, i32 2
  %cmp.i24.i.i1587 = icmp ugt ptr %__data_.i.i.i1578, @.str.3
  %add.ptr.i.i.i1588 = getelementptr inbounds %"struct.std::__1::basic_string<char>::__short", ptr %ref.tmp91, i64 0, i32 2, i64 8
  %cmp1.i.i.i1589 = icmp ule ptr %add.ptr.i.i.i1588, @.str.3
  %101 = or i1 %cmp.i24.i.i1587, %cmp1.i.i.i1589
  %__end_.i3432 = getelementptr inbounds %class.LoopSuiteRunInfo, ptr %call3, i64 0, i32 3, i32 1
  %__end_cap_.i.i = getelementptr inbounds %class.LoopSuiteRunInfo, ptr %call3, i64 0, i32 3, i32 2
  %loop_names = getelementptr inbounds %class.LoopSuiteRunInfo, ptr %call3, i64 0, i32 3
  %run_loop_length = getelementptr inbounds %class.LoopSuiteRunInfo, ptr %call3, i64 0, i32 6
  %num_suite_passes = getelementptr inbounds %class.LoopSuiteRunInfo, ptr %call3, i64 0, i32 8
  %loop_run_count = getelementptr inbounds %class.LoopStat, ptr %loop_stat, i64 0, i32 3
  %__pair1_.i.i.i = getelementptr inbounds %class.LoopSuiteRunInfo, ptr %call3, i64 0, i32 20, i32 0, i32 1
  %__end_cap_.i15.i = getelementptr inbounds %"struct.std::__1::__split_buffer.155", ptr %__v.i, i64 0, i32 3
  %102 = getelementptr inbounds %"struct.std::__1::__split_buffer.155", ptr %__v.i, i64 0, i32 3, i32 1
  %__end_.i17.i = getelementptr inbounds %"struct.std::__1::__split_buffer.155", ptr %__v.i, i64 0, i32 2
  %__begin_.i.i = getelementptr inbounds %"struct.std::__1::__split_buffer.155", ptr %__v.i, i64 0, i32 1
  br label %for.body87

for.cond.cleanup86:                               ; preds = %_ZNSt3__112basic_stringIcNS_11char_traitsIcEENS_9allocatorIcEEED2Ev.exit3454, %invoke.cont74
  %max_loop_length.0.lcssa = phi i32 [ 0, %invoke.cont74 ], [ %.sroa.speculated, %_ZNSt3__112basic_stringIcNS_11char_traitsIcEENS_9allocatorIcEEED2Ev.exit3454 ]
  invoke void @_Z26defineReferenceLoopRunInfov()
          to label %invoke.cont1100 unwind label %lpad1096

for.body87:                                       ; preds = %for.body87.lr.ph, %_ZNSt3__112basic_stringIcNS_11char_traitsIcEENS_9allocatorIcEEED2Ev.exit3454
  %indvars.iv3730 = phi i64 [ 0, %for.body87.lr.ph ], [ %indvars.iv.next3731, %_ZNSt3__112basic_stringIcNS_11char_traitsIcEENS_9allocatorIcEEED2Ev.exit3454 ]
  %max_loop_length.03642 = phi i32 [ 0, %for.body87.lr.ph ], [ %.sroa.speculated, %_ZNSt3__112basic_stringIcNS_11char_traitsIcEENS_9allocatorIcEEED2Ev.exit3454 ]
  call void @llvm.lifetime.start.p0(i64 24, ptr nonnull %loop_name) #24
  call void @llvm.memset.p0.i64(ptr noundef nonnull align 8 dereferenceable(24) %loop_name, i8 0, i64 24, i1 false)
  call void @llvm.lifetime.start.p0(i64 280, ptr nonnull %loop_stat) #24
  %103 = load i32, ptr %num_loop_lengths, align 8, !tbaa !74
  invoke void @_ZN8LoopStatC2Ej(ptr noundef nonnull align 8 dereferenceable(280) %loop_stat, i32 noundef %103)
          to label %invoke.cont89 unwind label %lpad88

invoke.cont89:                                    ; preds = %for.body87
  %arrayidx = getelementptr inbounds i8, ptr %run_loop, i64 %indvars.iv3730
  %104 = load i8, ptr %arrayidx, align 1, !tbaa !75, !range !76, !noundef !77
  %tobool.not = icmp eq i8 %104, 0
  br i1 %tobool.not, label %if.end1026, label %if.then90

if.then90:                                        ; preds = %invoke.cont89
  %105 = trunc i64 %indvars.iv3730 to i32
  switch i32 %105, label %sw.default [
    i32 0, label %sw.bb
    i32 32, label %sw.bb990
    i32 31, label %sw.bb961
    i32 2, label %if.else
    i32 1, label %if.then98
    i32 5, label %sw.bb167
    i32 6, label %sw.bb207
    i32 7, label %sw.bb245
    i32 8, label %sw.bb294
    i32 9, label %sw.bb323
    i32 10, label %sw.bb352
    i32 11, label %sw.bb381
    i32 12, label %sw.bb410
    i32 13, label %sw.bb439
    i32 14, label %sw.bb468
    i32 15, label %sw.bb497
    i32 16, label %sw.bb526
    i32 17, label %sw.bb555
    i32 18, label %sw.bb584
    i32 19, label %sw.bb613
    i32 20, label %sw.bb642
    i32 21, label %sw.bb671
    i32 22, label %sw.bb700
    i32 23, label %sw.bb729
    i32 24, label %sw.bb758
    i32 25, label %sw.bb787
    i32 26, label %sw.bb816
    i32 27, label %sw.bb845
    i32 28, label %sw.bb874
    i32 29, label %sw.bb903
    i32 30, label %sw.bb932
    i32 3, label %if.then131
    i32 4, label %if.else137
  ]

lpad88:                                           ; preds = %for.body87
  %106 = landingpad { ptr, i32 }
          cleanup
  br label %ehcleanup1089

sw.bb:                                            ; preds = %if.then90
  call void @llvm.lifetime.start.p0(i64 24, ptr nonnull %ref.tmp91) #24
  store i8 16, ptr %ref.tmp91, align 8
  call void @llvm.assume(i1 %101)
  store i64 5786931235628926290, ptr %__data_.i.i.i1578, align 1
  store i8 0, ptr %add.ptr.i.i.i1588, align 1, !tbaa !56
  %bf.load.i.i.i1594 = load i8, ptr %loop_name, align 8
  %bf.clear.i.i.i1595 = and i8 %bf.load.i.i.i1594, 1
  %tobool.i.not.i.i1596 = icmp eq i8 %bf.clear.i.i.i1595, 0
  br i1 %tobool.i.not.i.i1596, label %_ZNSt3__112basic_stringIcNS_11char_traitsIcEENS_9allocatorIcEEED2Ev.exit1606, label %if.then.i.i1598

if.then.i.i1598:                                  ; preds = %sw.bb
  %107 = load ptr, ptr %__data_.i.i.i1746, align 8, !tbaa !56
  call void @_ZdlPv(ptr noundef %107) #26
  br label %_ZNSt3__112basic_stringIcNS_11char_traitsIcEENS_9allocatorIcEEED2Ev.exit1606

_ZNSt3__112basic_stringIcNS_11char_traitsIcEENS_9allocatorIcEEED2Ev.exit1606: ; preds = %if.then.i.i1598, %sw.bb
  call void @llvm.memcpy.p0.p0.i64(ptr noundef nonnull align 8 dereferenceable(24) %loop_name, ptr noundef nonnull align 8 dereferenceable(24) %ref.tmp91, i64 24, i1 false), !tbaa.struct !57
  call void @llvm.lifetime.end.p0(i64 24, ptr nonnull %ref.tmp91) #24
  br label %if.end1026

if.then98:                                        ; preds = %if.then90
  call void @llvm.lifetime.start.p0(i64 24, ptr nonnull %ref.tmp99) #24
  store i8 26, ptr %ref.tmp99, align 8
  call void @llvm.assume(i1 %97)
  call void @llvm.memcpy.p0.p0.i64(ptr noundef nonnull align 1 dereferenceable(13) %__data_.i.i.i1614, ptr noundef nonnull align 1 dereferenceable(13) @.str.4, i64 13, i1 false)
  store i8 0, ptr %add.ptr.i.i.i1624, align 2, !tbaa !56
  %bf.load.i.i.i1630 = load i8, ptr %loop_name, align 8
  %bf.clear.i.i.i1631 = and i8 %bf.load.i.i.i1630, 1
  %tobool.i.not.i.i1632 = icmp eq i8 %bf.clear.i.i.i1631, 0
  br i1 %tobool.i.not.i.i1632, label %_ZNSt3__112basic_stringIcNS_11char_traitsIcEENS_9allocatorIcEEED2Ev.exit1642, label %if.then.i.i1634

if.then.i.i1634:                                  ; preds = %if.then98
  %108 = load ptr, ptr %__data_.i.i.i1746, align 8, !tbaa !56
  call void @_ZdlPv(ptr noundef %108) #26
  br label %_ZNSt3__112basic_stringIcNS_11char_traitsIcEENS_9allocatorIcEEED2Ev.exit1642

_ZNSt3__112basic_stringIcNS_11char_traitsIcEENS_9allocatorIcEEED2Ev.exit1642: ; preds = %if.then.i.i1634, %if.then98
  call void @llvm.memcpy.p0.p0.i64(ptr noundef nonnull align 8 dereferenceable(24) %loop_name, ptr noundef nonnull align 8 dereferenceable(24) %ref.tmp99, i64 24, i1 false), !tbaa.struct !57
  call void @llvm.lifetime.end.p0(i64 24, ptr nonnull %ref.tmp99) #24
  br label %if.end109

if.else:                                          ; preds = %if.then90
  call void @llvm.lifetime.start.p0(i64 24, ptr nonnull %ref.tmp104) #24
  store i8 34, ptr %ref.tmp104, align 8
  call void @llvm.assume(i1 %98)
  call void @llvm.memcpy.p0.p0.i64(ptr noundef nonnull align 1 dereferenceable(17) %__data_.i.i.i1650, ptr noundef nonnull align 1 dereferenceable(17) @.str.5, i64 17, i1 false)
  store i8 0, ptr %add.ptr.i.i.i1660, align 2, !tbaa !56
  %bf.load.i.i.i1666 = load i8, ptr %loop_name, align 8
  %bf.clear.i.i.i1667 = and i8 %bf.load.i.i.i1666, 1
  %tobool.i.not.i.i1668 = icmp eq i8 %bf.clear.i.i.i1667, 0
  br i1 %tobool.i.not.i.i1668, label %_ZNSt3__112basic_stringIcNS_11char_traitsIcEENS_9allocatorIcEEED2Ev.exit1678, label %if.then.i.i1670

if.then.i.i1670:                                  ; preds = %if.else
  %109 = load ptr, ptr %__data_.i.i.i1746, align 8, !tbaa !56
  call void @_ZdlPv(ptr noundef %109) #26
  br label %_ZNSt3__112basic_stringIcNS_11char_traitsIcEENS_9allocatorIcEEED2Ev.exit1678

_ZNSt3__112basic_stringIcNS_11char_traitsIcEENS_9allocatorIcEEED2Ev.exit1678: ; preds = %if.then.i.i1670, %if.else
  call void @llvm.memcpy.p0.p0.i64(ptr noundef nonnull align 8 dereferenceable(24) %loop_name, ptr noundef nonnull align 8 dereferenceable(24) %ref.tmp104, i64 24, i1 false), !tbaa.struct !57
  call void @llvm.lifetime.end.p0(i64 24, ptr nonnull %ref.tmp104) #24
  br label %if.end109

if.end109:                                        ; preds = %_ZNSt3__112basic_stringIcNS_11char_traitsIcEENS_9allocatorIcEEED2Ev.exit1678, %_ZNSt3__112basic_stringIcNS_11char_traitsIcEENS_9allocatorIcEEED2Ev.exit1642
  %110 = load ptr, ptr %loop_weights, align 8, !tbaa !52
  %arrayidx.i1679 = getelementptr inbounds double, ptr %110, i64 3
  %111 = load double, ptr %arrayidx.i1679, align 8, !tbaa !53
  store double %111, ptr %loop_weight145, align 8, !tbaa !78
  %112 = load ptr, ptr %loop_length153, align 8, !tbaa !61
  %113 = load i32, ptr %call.i.i.i.i.i7.i, align 4, !tbaa !69
  store i32 %113, ptr %112, align 4, !tbaa !69
  %114 = load i32, ptr %arrayidx.i1568, align 4, !tbaa !69
  %arrayidx.i1683.1 = getelementptr inbounds i32, ptr %112, i64 1
  store i32 %114, ptr %arrayidx.i1683.1, align 4, !tbaa !69
  %115 = load i32, ptr %arrayidx.i1569, align 4, !tbaa !69
  %arrayidx.i1683.2 = getelementptr inbounds i32, ptr %112, i64 2
  store i32 %115, ptr %arrayidx.i1683.2, align 4, !tbaa !69
  %116 = load ptr, ptr %samples_per_pass161, align 8, !tbaa !61
  store i32 15000, ptr %116, align 4, !tbaa !69
  %arrayidx.i1680 = getelementptr inbounds i32, ptr %116, i64 1
  store i32 200000, ptr %arrayidx.i1680, align 4, !tbaa !69
  %arrayidx.i1681 = getelementptr inbounds i32, ptr %116, i64 2
  store i32 10000000, ptr %arrayidx.i1681, align 4, !tbaa !69
  br label %if.end1026

if.then131:                                       ; preds = %if.then90
  call void @llvm.lifetime.start.p0(i64 24, ptr nonnull %ref.tmp132) #24
  store i8 22, ptr %ref.tmp132, align 8
  call void @llvm.assume(i1 %70)
  call void @llvm.memcpy.p0.p0.i64(ptr noundef nonnull align 1 dereferenceable(11) %__data_.i.i.i1691, ptr noundef nonnull align 1 dereferenceable(11) @.str.6, i64 11, i1 false)
  store i8 0, ptr %add.ptr.i.i.i1701, align 4, !tbaa !56
  %bf.load.i.i.i1707 = load i8, ptr %loop_name, align 8
  %bf.clear.i.i.i1708 = and i8 %bf.load.i.i.i1707, 1
  %tobool.i.not.i.i1709 = icmp eq i8 %bf.clear.i.i.i1708, 0
  br i1 %tobool.i.not.i.i1709, label %_ZNSt3__112basic_stringIcNS_11char_traitsIcEENS_9allocatorIcEEED2Ev.exit1719, label %if.then.i.i1711

if.then.i.i1711:                                  ; preds = %if.then131
  %117 = load ptr, ptr %__data_.i.i.i1746, align 8, !tbaa !56
  call void @_ZdlPv(ptr noundef %117) #26
  br label %_ZNSt3__112basic_stringIcNS_11char_traitsIcEENS_9allocatorIcEEED2Ev.exit1719

_ZNSt3__112basic_stringIcNS_11char_traitsIcEENS_9allocatorIcEEED2Ev.exit1719: ; preds = %if.then.i.i1711, %if.then131
  call void @llvm.memcpy.p0.p0.i64(ptr noundef nonnull align 8 dereferenceable(24) %loop_name, ptr noundef nonnull align 8 dereferenceable(24) %ref.tmp132, i64 24, i1 false), !tbaa.struct !57
  call void @llvm.lifetime.end.p0(i64 24, ptr nonnull %ref.tmp132) #24
  br label %if.end143

if.else137:                                       ; preds = %if.then90
  call void @llvm.lifetime.start.p0(i64 24, ptr nonnull %ref.tmp138) #24
  store i8 30, ptr %ref.tmp138, align 8
  call void @llvm.assume(i1 %69)
  call void @llvm.memcpy.p0.p0.i64(ptr noundef nonnull align 1 dereferenceable(15) %__data_.i.i.i1727, ptr noundef nonnull align 1 dereferenceable(15) @.str.7, i64 15, i1 false)
  store i8 0, ptr %add.ptr.i.i.i1737, align 8, !tbaa !56
  %bf.load.i.i.i1743 = load i8, ptr %loop_name, align 8
  %bf.clear.i.i.i1744 = and i8 %bf.load.i.i.i1743, 1
  %tobool.i.not.i.i1745 = icmp eq i8 %bf.clear.i.i.i1744, 0
  br i1 %tobool.i.not.i.i1745, label %_ZNSt3__112basic_stringIcNS_11char_traitsIcEENS_9allocatorIcEEED2Ev.exit1755, label %if.then.i.i1747

if.then.i.i1747:                                  ; preds = %if.else137
  %118 = load ptr, ptr %__data_.i.i.i1746, align 8, !tbaa !56
  call void @_ZdlPv(ptr noundef %118) #26
  br label %_ZNSt3__112basic_stringIcNS_11char_traitsIcEENS_9allocatorIcEEED2Ev.exit1755

_ZNSt3__112basic_stringIcNS_11char_traitsIcEENS_9allocatorIcEEED2Ev.exit1755: ; preds = %if.then.i.i1747, %if.else137
  call void @llvm.memcpy.p0.p0.i64(ptr noundef nonnull align 8 dereferenceable(24) %loop_name, ptr noundef nonnull align 8 dereferenceable(24) %ref.tmp138, i64 24, i1 false), !tbaa.struct !57
  call void @llvm.lifetime.end.p0(i64 24, ptr nonnull %ref.tmp138) #24
  br label %if.end143

if.end143:                                        ; preds = %_ZNSt3__112basic_stringIcNS_11char_traitsIcEENS_9allocatorIcEEED2Ev.exit1755, %_ZNSt3__112basic_stringIcNS_11char_traitsIcEENS_9allocatorIcEEED2Ev.exit1719
  %119 = load ptr, ptr %loop_weights, align 8, !tbaa !52
  %arrayidx.i1756 = getelementptr inbounds double, ptr %119, i64 3
  %120 = load double, ptr %arrayidx.i1756, align 8, !tbaa !53
  store double %120, ptr %loop_weight145, align 8, !tbaa !78
  %121 = load ptr, ptr %loop_length153, align 8, !tbaa !61
  %122 = load i32, ptr %call.i.i.i.i.i7.i, align 4, !tbaa !69
  store i32 %122, ptr %121, align 4, !tbaa !69
  %123 = load i32, ptr %arrayidx.i1568, align 4, !tbaa !69
  %arrayidx.i1760.1 = getelementptr inbounds i32, ptr %121, i64 1
  store i32 %123, ptr %arrayidx.i1760.1, align 4, !tbaa !69
  %124 = load i32, ptr %arrayidx.i1569, align 4, !tbaa !69
  %arrayidx.i1760.2 = getelementptr inbounds i32, ptr %121, i64 2
  store i32 %124, ptr %arrayidx.i1760.2, align 4, !tbaa !69
  %125 = load ptr, ptr %samples_per_pass161, align 8, !tbaa !61
  store i32 3000, ptr %125, align 4, !tbaa !69
  %arrayidx.i1757 = getelementptr inbounds i32, ptr %125, i64 1
  store i32 30000, ptr %arrayidx.i1757, align 4, !tbaa !69
  %arrayidx.i1758 = getelementptr inbounds i32, ptr %125, i64 2
  store i32 1000000, ptr %arrayidx.i1758, align 4, !tbaa !69
  br label %if.end1026

sw.bb167:                                         ; preds = %if.then90
  call void @llvm.lifetime.start.p0(i64 24, ptr nonnull %ref.tmp168) #24
  store i8 20, ptr %ref.tmp168, align 8
  call void @llvm.assume(i1 %96)
  call void @llvm.memcpy.p0.p0.i64(ptr noundef nonnull align 1 dereferenceable(10) %__data_.i.i.i1768, ptr noundef nonnull align 1 dereferenceable(10) @.str.8, i64 10, i1 false)
  store i8 0, ptr %add.ptr.i.i.i1778, align 1, !tbaa !56
  %bf.load.i.i.i1784 = load i8, ptr %loop_name, align 8
  %bf.clear.i.i.i1785 = and i8 %bf.load.i.i.i1784, 1
  %tobool.i.not.i.i1786 = icmp eq i8 %bf.clear.i.i.i1785, 0
  br i1 %tobool.i.not.i.i1786, label %_ZNSt3__112basic_stringIcNS_11char_traitsIcEENS_9allocatorIcEEED2Ev.exit1796, label %if.then.i.i1788

if.then.i.i1788:                                  ; preds = %sw.bb167
  %126 = load ptr, ptr %__data_.i.i.i1746, align 8, !tbaa !56
  call void @_ZdlPv(ptr noundef %126) #26
  br label %_ZNSt3__112basic_stringIcNS_11char_traitsIcEENS_9allocatorIcEEED2Ev.exit1796

_ZNSt3__112basic_stringIcNS_11char_traitsIcEENS_9allocatorIcEEED2Ev.exit1796: ; preds = %if.then.i.i1788, %sw.bb167
  call void @llvm.memcpy.p0.p0.i64(ptr noundef nonnull align 8 dereferenceable(24) %loop_name, ptr noundef nonnull align 8 dereferenceable(24) %ref.tmp168, i64 24, i1 false), !tbaa.struct !57
  call void @llvm.lifetime.end.p0(i64 24, ptr nonnull %ref.tmp168) #24
  %127 = load ptr, ptr %loop_weights, align 8, !tbaa !52
  %arrayidx.i1797 = getelementptr inbounds double, ptr %127, i64 1
  %128 = load double, ptr %arrayidx.i1797, align 8, !tbaa !53
  store double %128, ptr %loop_weight145, align 8, !tbaa !78
  %129 = load double, ptr @_ZN7ADomain18loop_length_factorE, align 8, !tbaa !53
  %130 = load ptr, ptr %loop_length153, align 8, !tbaa !61
  %131 = insertelement <2 x double> poison, double %129, i64 0
  %132 = shufflevector <2 x double> %131, <2 x double> poison, <2 x i32> zeroinitializer
  %133 = fmul <2 x double> %132, <double 2.800000e+01, double 1.600000e+01>
  %134 = fptosi <2 x double> %133 to <2 x i32>
  %135 = add nsw <2 x i32> %134, <i32 3, i32 3>
  %136 = mul nsw <2 x i32> %135, %135
  %137 = mul nsw <2 x i32> %136, %135
  %138 = extractelement <2 x i32> %137, i64 0
  %sub89.i = add nsw i32 %138, -1
  %139 = add <2 x i32> %136, %135
  %140 = add <2 x i32> %137, <i32 -2, i32 -2>
  %141 = shl <2 x i32> %139, <i32 1, i32 1>
  %142 = sub <2 x i32> %140, %141
  store <2 x i32> %142, ptr %130, align 4, !tbaa !69
  %mul28.i = fmul double %129, 4.000000e+00
  %conv29.i = fptosi double %mul28.i to i32
  %add43.i1873 = add nsw i32 %conv29.i, 3
  %mul73.i1877 = mul nsw i32 %add43.i1873, %add43.i1873
  %mul84.i1879 = mul nsw i32 %mul73.i1877, %add43.i1873
  %add94.i1884 = add i32 %mul73.i1877, %add43.i1873
  %sub191 = add i32 %mul84.i1879, -2
  %143 = shl i32 %add94.i1884, 1
  %add192 = sub i32 %sub191, %143
  %arrayidx.i1931 = getelementptr inbounds i32, ptr %130, i64 2
  store i32 %add192, ptr %arrayidx.i1931, align 4, !tbaa !69
  %144 = load ptr, ptr %samples_per_pass161, align 8, !tbaa !61
  store i32 6500, ptr %144, align 4, !tbaa !69
  %arrayidx.i1932 = getelementptr inbounds i32, ptr %144, i64 1
  store i32 30000, ptr %arrayidx.i1932, align 4, !tbaa !69
  %arrayidx.i1933 = getelementptr inbounds i32, ptr %144, i64 2
  store i32 800000, ptr %arrayidx.i1933, align 4, !tbaa !69
  br label %if.end1026

sw.bb207:                                         ; preds = %if.then90
  call void @llvm.lifetime.start.p0(i64 24, ptr nonnull %ref.tmp208) #24
  store i8 28, ptr %ref.tmp208, align 8
  call void @llvm.assume(i1 %95)
  call void @llvm.memcpy.p0.p0.i64(ptr noundef nonnull align 1 dereferenceable(14) %__data_.i.i.i1958, ptr noundef nonnull align 1 dereferenceable(14) @.str.9, i64 14, i1 false)
  store i8 0, ptr %add.ptr.i.i.i1968, align 1, !tbaa !56
  %bf.load.i.i.i1974 = load i8, ptr %loop_name, align 8
  %bf.clear.i.i.i1975 = and i8 %bf.load.i.i.i1974, 1
  %tobool.i.not.i.i1976 = icmp eq i8 %bf.clear.i.i.i1975, 0
  br i1 %tobool.i.not.i.i1976, label %_ZNSt3__112basic_stringIcNS_11char_traitsIcEENS_9allocatorIcEEED2Ev.exit1986, label %if.then.i.i1978

if.then.i.i1978:                                  ; preds = %sw.bb207
  %145 = load ptr, ptr %__data_.i.i.i1746, align 8, !tbaa !56
  call void @_ZdlPv(ptr noundef %145) #26
  br label %_ZNSt3__112basic_stringIcNS_11char_traitsIcEENS_9allocatorIcEEED2Ev.exit1986

_ZNSt3__112basic_stringIcNS_11char_traitsIcEENS_9allocatorIcEEED2Ev.exit1986: ; preds = %if.then.i.i1978, %sw.bb207
  call void @llvm.memcpy.p0.p0.i64(ptr noundef nonnull align 8 dereferenceable(24) %loop_name, ptr noundef nonnull align 8 dereferenceable(24) %ref.tmp208, i64 24, i1 false), !tbaa.struct !57
  call void @llvm.lifetime.end.p0(i64 24, ptr nonnull %ref.tmp208) #24
  %146 = load ptr, ptr %loop_weights, align 8, !tbaa !52
  %147 = load double, ptr %146, align 8, !tbaa !53
  store double %147, ptr %loop_weight145, align 8, !tbaa !78
  %148 = load double, ptr @_ZN7ADomain18loop_length_factorE, align 8, !tbaa !53
  %mul.i = fmul double %148, 1.560000e+02
  %conv.i = fptosi double %mul.i to i32
  %add43.i1995 = add nsw i32 %conv.i, 3
  %mul55.i = mul nsw i32 %add43.i1995, %add43.i1995
  %149 = sub i32 -5, %conv.i
  %sub107.i2004 = add i32 %149, %mul55.i
  %cmp124255.i = icmp sgt i32 %conv.i, 1
  br i1 %cmp124255.i, label %for.body126.us.i.preheader, label %invoke.cont218

for.body126.us.i.preheader:                       ; preds = %_ZNSt3__112basic_stringIcNS_11char_traitsIcEENS_9allocatorIcEEED2Ev.exit1986
  %150 = add nsw i32 %conv.i, -2
  %151 = zext i32 %150 to i64
  %152 = add nuw nsw i64 %151, 1
  %153 = add i32 %conv.i, -1
  %154 = add i32 %conv.i, -2
  %xtraiter = and i32 %153, 3
  %155 = icmp ult i32 %154, 3
  br i1 %155, label %if.end196.sink.split.i2014.unr-lcssa, label %for.body126.us.i.preheader.new

for.body126.us.i.preheader.new:                   ; preds = %for.body126.us.i.preheader
  %unroll_iter = and i32 %153, -4
  %156 = shl nuw nsw i64 %152, 1
  br label %for.body126.us.i

for.body126.us.i:                                 ; preds = %for.body126.us.i, %for.body126.us.i.preheader.new
  %inc142.lcssa254256.us.i = phi i64 [ 0, %for.body126.us.i.preheader.new ], [ %160, %for.body126.us.i ]
  %niter = phi i32 [ 0, %for.body126.us.i.preheader.new ], [ %niter.next.3, %for.body126.us.i ]
  %157 = add nsw i64 %156, %inc142.lcssa254256.us.i
  %158 = add nsw i64 %152, %157
  %sext270.i.3 = shl i64 %158, 32
  %159 = ashr exact i64 %sext270.i.3, 32
  %160 = add nsw i64 %152, %159
  %niter.next.3 = add i32 %niter, 4
  %niter.ncmp.3 = icmp eq i32 %niter.next.3, %unroll_iter
  br i1 %niter.ncmp.3, label %if.end196.sink.split.i2014.unr-lcssa, label %for.body126.us.i, !llvm.loop !79

if.end196.sink.split.i2014.unr-lcssa:             ; preds = %for.body126.us.i, %for.body126.us.i.preheader
  %.lcssa.ph = phi i64 [ undef, %for.body126.us.i.preheader ], [ %160, %for.body126.us.i ]
  %inc142.lcssa254256.us.i.unr = phi i64 [ 0, %for.body126.us.i.preheader ], [ %160, %for.body126.us.i ]
  %lcmp.mod.not = icmp eq i32 %xtraiter, 0
  br i1 %lcmp.mod.not, label %if.end196.sink.split.i2014, label %for.body126.us.i.epil

for.body126.us.i.epil:                            ; preds = %if.end196.sink.split.i2014.unr-lcssa, %for.body126.us.i.epil
  %inc142.lcssa254256.us.i.epil = phi i64 [ %162, %for.body126.us.i.epil ], [ %inc142.lcssa254256.us.i.unr, %if.end196.sink.split.i2014.unr-lcssa ]
  %epil.iter = phi i32 [ %epil.iter.next, %for.body126.us.i.epil ], [ 0, %if.end196.sink.split.i2014.unr-lcssa ]
  %sext270.i.epil = shl i64 %inc142.lcssa254256.us.i.epil, 32
  %161 = ashr exact i64 %sext270.i.epil, 32
  %162 = add nsw i64 %152, %161
  %epil.iter.next = add i32 %epil.iter, 1
  %epil.iter.cmp.not = icmp eq i32 %epil.iter.next, %xtraiter
  br i1 %epil.iter.cmp.not, label %if.end196.sink.split.i2014, label %for.body126.us.i.epil, !llvm.loop !80

if.end196.sink.split.i2014:                       ; preds = %for.body126.us.i.epil, %if.end196.sink.split.i2014.unr-lcssa
  %.lcssa = phi i64 [ %.lcssa.ph, %if.end196.sink.split.i2014.unr-lcssa ], [ %162, %for.body126.us.i.epil ]
  %163 = trunc i64 %.lcssa to i32
  br label %invoke.cont218

invoke.cont218:                                   ; preds = %if.end196.sink.split.i2014, %_ZNSt3__112basic_stringIcNS_11char_traitsIcEENS_9allocatorIcEEED2Ev.exit1986
  %Ldomain216.sroa.25.0 = phi i32 [ %163, %if.end196.sink.split.i2014 ], [ 0, %_ZNSt3__112basic_stringIcNS_11char_traitsIcEENS_9allocatorIcEEED2Ev.exit1986 ]
  %164 = load ptr, ptr %loop_length153, align 8, !tbaa !61
  store i32 %Ldomain216.sroa.25.0, ptr %164, align 4, !tbaa !69
  %mul11.i = fmul double %148, 6.400000e+01
  %conv12.i = fptosi double %mul11.i to i32
  %cmp124255.i2049 = icmp sgt i32 %conv12.i, 1
  br i1 %cmp124255.i2049, label %for.body126.us.i2054.preheader, label %invoke.cont223

for.body126.us.i2054.preheader:                   ; preds = %invoke.cont218
  %165 = add nsw i32 %conv12.i, -2
  %166 = zext i32 %165 to i64
  %167 = add nuw nsw i64 %166, 1
  %168 = add i32 %conv12.i, -1
  %169 = add i32 %conv12.i, -2
  %xtraiter3828 = and i32 %168, 3
  %170 = icmp ult i32 %169, 3
  br i1 %170, label %if.end196.sink.split.i2066.unr-lcssa, label %for.body126.us.i2054.preheader.new

for.body126.us.i2054.preheader.new:               ; preds = %for.body126.us.i2054.preheader
  %unroll_iter3832 = and i32 %168, -4
  %171 = shl nuw nsw i64 %167, 1
  br label %for.body126.us.i2054

for.body126.us.i2054:                             ; preds = %for.body126.us.i2054, %for.body126.us.i2054.preheader.new
  %inc142.lcssa254256.us.i2051 = phi i64 [ 0, %for.body126.us.i2054.preheader.new ], [ %175, %for.body126.us.i2054 ]
  %niter3833 = phi i32 [ 0, %for.body126.us.i2054.preheader.new ], [ %niter3833.next.3, %for.body126.us.i2054 ]
  %172 = add nsw i64 %171, %inc142.lcssa254256.us.i2051
  %173 = add nsw i64 %167, %172
  %sext270.i2053.3 = shl i64 %173, 32
  %174 = ashr exact i64 %sext270.i2053.3, 32
  %175 = add nsw i64 %167, %174
  %niter3833.next.3 = add i32 %niter3833, 4
  %niter3833.ncmp.3 = icmp eq i32 %niter3833.next.3, %unroll_iter3832
  br i1 %niter3833.ncmp.3, label %if.end196.sink.split.i2066.unr-lcssa, label %for.body126.us.i2054, !llvm.loop !79

if.end196.sink.split.i2066.unr-lcssa:             ; preds = %for.body126.us.i2054, %for.body126.us.i2054.preheader
  %.lcssa3796.ph = phi i64 [ undef, %for.body126.us.i2054.preheader ], [ %175, %for.body126.us.i2054 ]
  %inc142.lcssa254256.us.i2051.unr = phi i64 [ 0, %for.body126.us.i2054.preheader ], [ %175, %for.body126.us.i2054 ]
  %lcmp.mod3830.not = icmp eq i32 %xtraiter3828, 0
  br i1 %lcmp.mod3830.not, label %if.end196.sink.split.i2066, label %for.body126.us.i2054.epil

for.body126.us.i2054.epil:                        ; preds = %if.end196.sink.split.i2066.unr-lcssa, %for.body126.us.i2054.epil
  %inc142.lcssa254256.us.i2051.epil = phi i64 [ %177, %for.body126.us.i2054.epil ], [ %inc142.lcssa254256.us.i2051.unr, %if.end196.sink.split.i2066.unr-lcssa ]
  %epil.iter3829 = phi i32 [ %epil.iter3829.next, %for.body126.us.i2054.epil ], [ 0, %if.end196.sink.split.i2066.unr-lcssa ]
  %sext270.i2053.epil = shl i64 %inc142.lcssa254256.us.i2051.epil, 32
  %176 = ashr exact i64 %sext270.i2053.epil, 32
  %177 = add nsw i64 %167, %176
  %epil.iter3829.next = add i32 %epil.iter3829, 1
  %epil.iter3829.cmp.not = icmp eq i32 %epil.iter3829.next, %xtraiter3828
  br i1 %epil.iter3829.cmp.not, label %if.end196.sink.split.i2066, label %for.body126.us.i2054.epil, !llvm.loop !82

if.end196.sink.split.i2066:                       ; preds = %for.body126.us.i2054.epil, %if.end196.sink.split.i2066.unr-lcssa
  %.lcssa3796 = phi i64 [ %.lcssa3796.ph, %if.end196.sink.split.i2066.unr-lcssa ], [ %177, %for.body126.us.i2054.epil ]
  %178 = trunc i64 %.lcssa3796 to i32
  br label %invoke.cont223

invoke.cont223:                                   ; preds = %if.end196.sink.split.i2066, %invoke.cont218
  %Mdomain221.sroa.24.0 = phi i32 [ %178, %if.end196.sink.split.i2066 ], [ 0, %invoke.cont218 ]
  %arrayidx.i2070 = getelementptr inbounds i32, ptr %164, i64 1
  store i32 %Mdomain221.sroa.24.0, ptr %arrayidx.i2070, align 4, !tbaa !69
  %mul23.i = fmul double %148, 8.000000e+00
  %conv24.i = fptosi double %mul23.i to i32
  %cmp124255.i2102 = icmp sgt i32 %conv24.i, 1
  br i1 %cmp124255.i2102, label %for.body126.us.i2107.preheader, label %_ZN7ADomainD2Ev.exit2137

for.body126.us.i2107.preheader:                   ; preds = %invoke.cont223
  %179 = add nsw i32 %conv24.i, -2
  %180 = zext i32 %179 to i64
  %181 = add nuw nsw i64 %180, 1
  %182 = add i32 %conv24.i, -1
  %183 = add i32 %conv24.i, -2
  %xtraiter3834 = and i32 %182, 3
  %184 = icmp ult i32 %183, 3
  br i1 %184, label %if.end196.sink.split.i2119.unr-lcssa, label %for.body126.us.i2107.preheader.new

for.body126.us.i2107.preheader.new:               ; preds = %for.body126.us.i2107.preheader
  %unroll_iter3838 = and i32 %182, -4
  %185 = shl nuw nsw i64 %181, 1
  br label %for.body126.us.i2107

for.body126.us.i2107:                             ; preds = %for.body126.us.i2107, %for.body126.us.i2107.preheader.new
  %inc142.lcssa254256.us.i2104 = phi i64 [ 0, %for.body126.us.i2107.preheader.new ], [ %189, %for.body126.us.i2107 ]
  %niter3839 = phi i32 [ 0, %for.body126.us.i2107.preheader.new ], [ %niter3839.next.3, %for.body126.us.i2107 ]
  %186 = add nsw i64 %185, %inc142.lcssa254256.us.i2104
  %187 = add nsw i64 %181, %186
  %sext270.i2106.3 = shl i64 %187, 32
  %188 = ashr exact i64 %sext270.i2106.3, 32
  %189 = add nsw i64 %181, %188
  %niter3839.next.3 = add i32 %niter3839, 4
  %niter3839.ncmp.3 = icmp eq i32 %niter3839.next.3, %unroll_iter3838
  br i1 %niter3839.ncmp.3, label %if.end196.sink.split.i2119.unr-lcssa, label %for.body126.us.i2107, !llvm.loop !79

if.end196.sink.split.i2119.unr-lcssa:             ; preds = %for.body126.us.i2107, %for.body126.us.i2107.preheader
  %.lcssa3797.ph = phi i64 [ undef, %for.body126.us.i2107.preheader ], [ %189, %for.body126.us.i2107 ]
  %inc142.lcssa254256.us.i2104.unr = phi i64 [ 0, %for.body126.us.i2107.preheader ], [ %189, %for.body126.us.i2107 ]
  %lcmp.mod3836.not = icmp eq i32 %xtraiter3834, 0
  br i1 %lcmp.mod3836.not, label %if.end196.sink.split.i2119, label %for.body126.us.i2107.epil

for.body126.us.i2107.epil:                        ; preds = %if.end196.sink.split.i2119.unr-lcssa, %for.body126.us.i2107.epil
  %inc142.lcssa254256.us.i2104.epil = phi i64 [ %191, %for.body126.us.i2107.epil ], [ %inc142.lcssa254256.us.i2104.unr, %if.end196.sink.split.i2119.unr-lcssa ]
  %epil.iter3835 = phi i32 [ %epil.iter3835.next, %for.body126.us.i2107.epil ], [ 0, %if.end196.sink.split.i2119.unr-lcssa ]
  %sext270.i2106.epil = shl i64 %inc142.lcssa254256.us.i2104.epil, 32
  %190 = ashr exact i64 %sext270.i2106.epil, 32
  %191 = add nsw i64 %181, %190
  %epil.iter3835.next = add i32 %epil.iter3835, 1
  %epil.iter3835.cmp.not = icmp eq i32 %epil.iter3835.next, %xtraiter3834
  br i1 %epil.iter3835.cmp.not, label %if.end196.sink.split.i2119, label %for.body126.us.i2107.epil, !llvm.loop !83

if.end196.sink.split.i2119:                       ; preds = %for.body126.us.i2107.epil, %if.end196.sink.split.i2119.unr-lcssa
  %.lcssa3797 = phi i64 [ %.lcssa3797.ph, %if.end196.sink.split.i2119.unr-lcssa ], [ %191, %for.body126.us.i2107.epil ]
  %192 = trunc i64 %.lcssa3797 to i32
  br label %_ZN7ADomainD2Ev.exit2137

_ZN7ADomainD2Ev.exit2137:                         ; preds = %if.end196.sink.split.i2119, %invoke.cont223
  %Sdomain227.sroa.23.0 = phi i32 [ %192, %if.end196.sink.split.i2119 ], [ 0, %invoke.cont223 ]
  %arrayidx.i2123 = getelementptr inbounds i32, ptr %164, i64 2
  store i32 %Sdomain227.sroa.23.0, ptr %arrayidx.i2123, align 4, !tbaa !69
  %193 = load ptr, ptr %samples_per_pass161, align 8, !tbaa !61
  store i32 4000, ptr %193, align 4, !tbaa !69
  %arrayidx.i2124 = getelementptr inbounds i32, ptr %193, i64 1
  store i32 25000, ptr %arrayidx.i2124, align 4, !tbaa !69
  %arrayidx.i2125 = getelementptr inbounds i32, ptr %193, i64 2
  store i32 2000000, ptr %arrayidx.i2125, align 4, !tbaa !69
  br label %if.end1026

sw.bb245:                                         ; preds = %if.then90
  call void @llvm.lifetime.start.p0(i64 24, ptr nonnull %ref.tmp246) #24
  store i8 12, ptr %ref.tmp246, align 8
  call void @llvm.assume(i1 %94)
  call void @llvm.memcpy.p0.p0.i64(ptr noundef nonnull align 1 dereferenceable(6) %__data_.i.i.i2153, ptr noundef nonnull align 1 dereferenceable(6) @.str.10, i64 6, i1 false)
  store i8 0, ptr %add.ptr.i.i.i2163, align 1, !tbaa !56
  %bf.load.i.i.i2169 = load i8, ptr %loop_name, align 8
  %bf.clear.i.i.i2170 = and i8 %bf.load.i.i.i2169, 1
  %tobool.i.not.i.i2171 = icmp eq i8 %bf.clear.i.i.i2170, 0
  br i1 %tobool.i.not.i.i2171, label %_ZNSt3__112basic_stringIcNS_11char_traitsIcEENS_9allocatorIcEEED2Ev.exit2181, label %if.then.i.i2173

if.then.i.i2173:                                  ; preds = %sw.bb245
  %194 = load ptr, ptr %__data_.i.i.i1746, align 8, !tbaa !56
  call void @_ZdlPv(ptr noundef %194) #26
  br label %_ZNSt3__112basic_stringIcNS_11char_traitsIcEENS_9allocatorIcEEED2Ev.exit2181

_ZNSt3__112basic_stringIcNS_11char_traitsIcEENS_9allocatorIcEEED2Ev.exit2181: ; preds = %if.then.i.i2173, %sw.bb245
  call void @llvm.memcpy.p0.p0.i64(ptr noundef nonnull align 8 dereferenceable(24) %loop_name, ptr noundef nonnull align 8 dereferenceable(24) %ref.tmp246, i64 24, i1 false), !tbaa.struct !57
  call void @llvm.lifetime.end.p0(i64 24, ptr nonnull %ref.tmp246) #24
  %195 = load ptr, ptr %loop_weights, align 8, !tbaa !52
  %arrayidx.i2182 = getelementptr inbounds double, ptr %195, i64 2
  %196 = load double, ptr %arrayidx.i2182, align 8, !tbaa !53
  store double %196, ptr %loop_weight145, align 8, !tbaa !78
  %197 = load double, ptr @_ZN7ADomain18loop_length_factorE, align 8, !tbaa !53
  %mul5.i2185 = fmul double %197, 2.800000e+01
  %conv6.i2186 = fptosi double %mul5.i2185 to i32
  %add43.i2192 = add nsw i32 %conv6.i2186, 3
  %mul73.i2196 = mul nsw i32 %add43.i2192, %add43.i2192
  %mul84.i2198 = mul nsw i32 %mul73.i2196, %add43.i2192
  %sub89.i2201 = add nsw i32 %mul84.i2198, -1
  %add94.i2203 = add i32 %mul73.i2196, %add43.i2192
  %.neg.i2206 = xor i32 %add94.i2203, -1
  %sub107.i2207 = add i32 %sub89.i2201, %.neg.i2206
  %add260 = sub i32 %sub107.i2207, %add94.i2203
  %198 = load ptr, ptr %loop_length153, align 8, !tbaa !61
  store i32 %add260, ptr %198, align 4, !tbaa !69
  %arrayidx.i2317 = getelementptr inbounds i32, ptr %198, i64 1
  %199 = insertelement <2 x double> poison, double %197, i64 0
  %200 = shufflevector <2 x double> %199, <2 x double> poison, <2 x i32> zeroinitializer
  %201 = fmul <2 x double> %200, <double 1.600000e+01, double 4.000000e+00>
  %202 = fptosi <2 x double> %201 to <2 x i32>
  %203 = add nsw <2 x i32> %202, <i32 3, i32 3>
  %204 = mul nsw <2 x i32> %203, %203
  %205 = mul nsw <2 x i32> %204, %203
  %206 = add <2 x i32> %204, %203
  %207 = add <2 x i32> %205, <i32 -2, i32 -2>
  %208 = shl <2 x i32> %206, <i32 1, i32 1>
  %209 = sub <2 x i32> %207, %208
  store <2 x i32> %209, ptr %arrayidx.i2317, align 4, !tbaa !69
  %210 = load ptr, ptr %samples_per_pass161, align 8, !tbaa !61
  store i32 2000, ptr %210, align 4, !tbaa !69
  %arrayidx.i2386 = getelementptr inbounds i32, ptr %210, i64 1
  store i32 10000, ptr %arrayidx.i2386, align 4, !tbaa !69
  %arrayidx.i2387 = getelementptr inbounds i32, ptr %210, i64 2
  store i32 600000, ptr %arrayidx.i2387, align 4, !tbaa !69
  br label %if.end1026

sw.bb294:                                         ; preds = %if.then90
  call void @llvm.lifetime.start.p0(i64 24, ptr nonnull %ref.tmp295) #24
  store i8 6, ptr %ref.tmp295, align 8
  call void @llvm.assume(i1 %93)
  call void @llvm.memcpy.p0.p0.i64(ptr noundef nonnull align 1 dereferenceable(3) %__data_.i.i.i2415, ptr noundef nonnull align 1 dereferenceable(3) @.str.11, i64 3, i1 false)
  store i8 0, ptr %add.ptr.i.i.i2425, align 4, !tbaa !56
  %bf.load.i.i.i2431 = load i8, ptr %loop_name, align 8
  %bf.clear.i.i.i2432 = and i8 %bf.load.i.i.i2431, 1
  %tobool.i.not.i.i2433 = icmp eq i8 %bf.clear.i.i.i2432, 0
  br i1 %tobool.i.not.i.i2433, label %_ZNSt3__112basic_stringIcNS_11char_traitsIcEENS_9allocatorIcEEED2Ev.exit2443, label %if.then.i.i2435

if.then.i.i2435:                                  ; preds = %sw.bb294
  %211 = load ptr, ptr %__data_.i.i.i1746, align 8, !tbaa !56
  call void @_ZdlPv(ptr noundef %211) #26
  br label %_ZNSt3__112basic_stringIcNS_11char_traitsIcEENS_9allocatorIcEEED2Ev.exit2443

_ZNSt3__112basic_stringIcNS_11char_traitsIcEENS_9allocatorIcEEED2Ev.exit2443: ; preds = %if.then.i.i2435, %sw.bb294
  call void @llvm.memcpy.p0.p0.i64(ptr noundef nonnull align 8 dereferenceable(24) %loop_name, ptr noundef nonnull align 8 dereferenceable(24) %ref.tmp295, i64 24, i1 false), !tbaa.struct !57
  call void @llvm.lifetime.end.p0(i64 24, ptr nonnull %ref.tmp295) #24
  %212 = load ptr, ptr %loop_weights, align 8, !tbaa !52
  %arrayidx.i2444 = getelementptr inbounds double, ptr %212, i64 1
  %213 = load double, ptr %arrayidx.i2444, align 8, !tbaa !53
  store double %213, ptr %loop_weight145, align 8, !tbaa !78
  %214 = load ptr, ptr %loop_length153, align 8, !tbaa !61
  %215 = load i32, ptr %call.i.i.i.i.i7.i, align 4, !tbaa !69
  store i32 %215, ptr %214, align 4, !tbaa !69
  %216 = load i32, ptr %arrayidx.i1568, align 4, !tbaa !69
  %arrayidx.i2448.1 = getelementptr inbounds i32, ptr %214, i64 1
  store i32 %216, ptr %arrayidx.i2448.1, align 4, !tbaa !69
  %217 = load i32, ptr %arrayidx.i1569, align 4, !tbaa !69
  %arrayidx.i2448.2 = getelementptr inbounds i32, ptr %214, i64 2
  store i32 %217, ptr %arrayidx.i2448.2, align 4, !tbaa !69
  %218 = load ptr, ptr %samples_per_pass161, align 8, !tbaa !61
  store i32 10000, ptr %218, align 4, !tbaa !69
  %arrayidx.i2445 = getelementptr inbounds i32, ptr %218, i64 1
  store i32 80000, ptr %arrayidx.i2445, align 4, !tbaa !69
  %arrayidx.i2446 = getelementptr inbounds i32, ptr %218, i64 2
  store i32 3000000, ptr %arrayidx.i2446, align 4, !tbaa !69
  br label %if.end1026

sw.bb323:                                         ; preds = %if.then90
  call void @llvm.lifetime.start.p0(i64 24, ptr nonnull %ref.tmp324) #24
  store i8 10, ptr %ref.tmp324, align 8
  call void @llvm.assume(i1 %92)
  call void @llvm.memcpy.p0.p0.i64(ptr noundef nonnull align 1 dereferenceable(5) %__data_.i.i.i2456, ptr noundef nonnull align 1 dereferenceable(5) @.str.12, i64 5, i1 false)
  store i8 0, ptr %add.ptr.i.i.i2466, align 2, !tbaa !56
  %bf.load.i.i.i2472 = load i8, ptr %loop_name, align 8
  %bf.clear.i.i.i2473 = and i8 %bf.load.i.i.i2472, 1
  %tobool.i.not.i.i2474 = icmp eq i8 %bf.clear.i.i.i2473, 0
  br i1 %tobool.i.not.i.i2474, label %_ZNSt3__112basic_stringIcNS_11char_traitsIcEENS_9allocatorIcEEED2Ev.exit2484, label %if.then.i.i2476

if.then.i.i2476:                                  ; preds = %sw.bb323
  %219 = load ptr, ptr %__data_.i.i.i1746, align 8, !tbaa !56
  call void @_ZdlPv(ptr noundef %219) #26
  br label %_ZNSt3__112basic_stringIcNS_11char_traitsIcEENS_9allocatorIcEEED2Ev.exit2484

_ZNSt3__112basic_stringIcNS_11char_traitsIcEENS_9allocatorIcEEED2Ev.exit2484: ; preds = %if.then.i.i2476, %sw.bb323
  call void @llvm.memcpy.p0.p0.i64(ptr noundef nonnull align 8 dereferenceable(24) %loop_name, ptr noundef nonnull align 8 dereferenceable(24) %ref.tmp324, i64 24, i1 false), !tbaa.struct !57
  call void @llvm.lifetime.end.p0(i64 24, ptr nonnull %ref.tmp324) #24
  %220 = load ptr, ptr %loop_weights, align 8, !tbaa !52
  %221 = load double, ptr %220, align 8, !tbaa !53
  store double %221, ptr %loop_weight145, align 8, !tbaa !78
  %222 = load ptr, ptr %loop_length153, align 8, !tbaa !61
  %223 = load i32, ptr %call.i.i.i.i.i7.i, align 4, !tbaa !69
  store i32 %223, ptr %222, align 4, !tbaa !69
  %224 = load i32, ptr %arrayidx.i1568, align 4, !tbaa !69
  %arrayidx.i2488.1 = getelementptr inbounds i32, ptr %222, i64 1
  store i32 %224, ptr %arrayidx.i2488.1, align 4, !tbaa !69
  %225 = load i32, ptr %arrayidx.i1569, align 4, !tbaa !69
  %arrayidx.i2488.2 = getelementptr inbounds i32, ptr %222, i64 2
  store i32 %225, ptr %arrayidx.i2488.2, align 4, !tbaa !69
  %226 = load ptr, ptr %samples_per_pass161, align 8, !tbaa !61
  store i32 10000, ptr %226, align 4, !tbaa !69
  %arrayidx.i2485 = getelementptr inbounds i32, ptr %226, i64 1
  store i32 110000, ptr %arrayidx.i2485, align 4, !tbaa !69
  %arrayidx.i2486 = getelementptr inbounds i32, ptr %226, i64 2
  store i32 12000000, ptr %arrayidx.i2486, align 4, !tbaa !69
  br label %if.end1026

sw.bb352:                                         ; preds = %if.then90
  call void @llvm.lifetime.start.p0(i64 24, ptr nonnull %ref.tmp353) #24
  store i8 18, ptr %ref.tmp353, align 8
  call void @llvm.assume(i1 %91)
  call void @llvm.memcpy.p0.p0.i64(ptr noundef nonnull align 1 dereferenceable(9) %__data_.i.i.i2496, ptr noundef nonnull align 1 dereferenceable(9) @.str.13, i64 9, i1 false)
  store i8 0, ptr %add.ptr.i.i.i2506, align 2, !tbaa !56
  %bf.load.i.i.i2512 = load i8, ptr %loop_name, align 8
  %bf.clear.i.i.i2513 = and i8 %bf.load.i.i.i2512, 1
  %tobool.i.not.i.i2514 = icmp eq i8 %bf.clear.i.i.i2513, 0
  br i1 %tobool.i.not.i.i2514, label %_ZNSt3__112basic_stringIcNS_11char_traitsIcEENS_9allocatorIcEEED2Ev.exit2524, label %if.then.i.i2516

if.then.i.i2516:                                  ; preds = %sw.bb352
  %227 = load ptr, ptr %__data_.i.i.i1746, align 8, !tbaa !56
  call void @_ZdlPv(ptr noundef %227) #26
  br label %_ZNSt3__112basic_stringIcNS_11char_traitsIcEENS_9allocatorIcEEED2Ev.exit2524

_ZNSt3__112basic_stringIcNS_11char_traitsIcEENS_9allocatorIcEEED2Ev.exit2524: ; preds = %if.then.i.i2516, %sw.bb352
  call void @llvm.memcpy.p0.p0.i64(ptr noundef nonnull align 8 dereferenceable(24) %loop_name, ptr noundef nonnull align 8 dereferenceable(24) %ref.tmp353, i64 24, i1 false), !tbaa.struct !57
  call void @llvm.lifetime.end.p0(i64 24, ptr nonnull %ref.tmp353) #24
  %228 = load ptr, ptr %loop_weights, align 8, !tbaa !52
  %229 = load double, ptr %228, align 8, !tbaa !53
  store double %229, ptr %loop_weight145, align 8, !tbaa !78
  %230 = load ptr, ptr %loop_length153, align 8, !tbaa !61
  %231 = load i32, ptr %call.i.i.i.i.i7.i, align 4, !tbaa !69
  store i32 %231, ptr %230, align 4, !tbaa !69
  %232 = load i32, ptr %arrayidx.i1568, align 4, !tbaa !69
  %arrayidx.i2528.1 = getelementptr inbounds i32, ptr %230, i64 1
  store i32 %232, ptr %arrayidx.i2528.1, align 4, !tbaa !69
  %233 = load i32, ptr %arrayidx.i1569, align 4, !tbaa !69
  %arrayidx.i2528.2 = getelementptr inbounds i32, ptr %230, i64 2
  store i32 %233, ptr %arrayidx.i2528.2, align 4, !tbaa !69
  %234 = load ptr, ptr %samples_per_pass161, align 8, !tbaa !61
  store i32 12000, ptr %234, align 4, !tbaa !69
  %arrayidx.i2525 = getelementptr inbounds i32, ptr %234, i64 1
  store i32 140000, ptr %arrayidx.i2525, align 4, !tbaa !69
  %arrayidx.i2526 = getelementptr inbounds i32, ptr %234, i64 2
  store i32 15000000, ptr %arrayidx.i2526, align 4, !tbaa !69
  br label %if.end1026

sw.bb381:                                         ; preds = %if.then90
  call void @llvm.lifetime.start.p0(i64 24, ptr nonnull %ref.tmp382) #24
  store i8 14, ptr %ref.tmp382, align 8
  call void @llvm.assume(i1 %90)
  call void @llvm.memcpy.p0.p0.i64(ptr noundef nonnull align 1 dereferenceable(7) %__data_.i.i.i2536, ptr noundef nonnull align 1 dereferenceable(7) @.str.14, i64 7, i1 false)
  store i8 0, ptr %add.ptr.i.i.i2546, align 8, !tbaa !56
  %bf.load.i.i.i2552 = load i8, ptr %loop_name, align 8
  %bf.clear.i.i.i2553 = and i8 %bf.load.i.i.i2552, 1
  %tobool.i.not.i.i2554 = icmp eq i8 %bf.clear.i.i.i2553, 0
  br i1 %tobool.i.not.i.i2554, label %_ZNSt3__112basic_stringIcNS_11char_traitsIcEENS_9allocatorIcEEED2Ev.exit2564, label %if.then.i.i2556

if.then.i.i2556:                                  ; preds = %sw.bb381
  %235 = load ptr, ptr %__data_.i.i.i1746, align 8, !tbaa !56
  call void @_ZdlPv(ptr noundef %235) #26
  br label %_ZNSt3__112basic_stringIcNS_11char_traitsIcEENS_9allocatorIcEEED2Ev.exit2564

_ZNSt3__112basic_stringIcNS_11char_traitsIcEENS_9allocatorIcEEED2Ev.exit2564: ; preds = %if.then.i.i2556, %sw.bb381
  call void @llvm.memcpy.p0.p0.i64(ptr noundef nonnull align 8 dereferenceable(24) %loop_name, ptr noundef nonnull align 8 dereferenceable(24) %ref.tmp382, i64 24, i1 false), !tbaa.struct !57
  call void @llvm.lifetime.end.p0(i64 24, ptr nonnull %ref.tmp382) #24
  %236 = load ptr, ptr %loop_weights, align 8, !tbaa !52
  %arrayidx.i2565 = getelementptr inbounds double, ptr %236, i64 3
  %237 = load double, ptr %arrayidx.i2565, align 8, !tbaa !53
  store double %237, ptr %loop_weight145, align 8, !tbaa !78
  %238 = load ptr, ptr %loop_length153, align 8, !tbaa !61
  %239 = load i32, ptr %call.i.i.i.i.i7.i, align 4, !tbaa !69
  store i32 %239, ptr %238, align 4, !tbaa !69
  %240 = load i32, ptr %arrayidx.i1568, align 4, !tbaa !69
  %arrayidx.i2569.1 = getelementptr inbounds i32, ptr %238, i64 1
  store i32 %240, ptr %arrayidx.i2569.1, align 4, !tbaa !69
  %241 = load i32, ptr %arrayidx.i1569, align 4, !tbaa !69
  %arrayidx.i2569.2 = getelementptr inbounds i32, ptr %238, i64 2
  store i32 %241, ptr %arrayidx.i2569.2, align 4, !tbaa !69
  %242 = load ptr, ptr %samples_per_pass161, align 8, !tbaa !61
  store i32 3000, ptr %242, align 4, !tbaa !69
  %arrayidx.i2566 = getelementptr inbounds i32, ptr %242, i64 1
  store i32 30000, ptr %arrayidx.i2566, align 4, !tbaa !69
  %arrayidx.i2567 = getelementptr inbounds i32, ptr %242, i64 2
  store i32 1000000, ptr %arrayidx.i2567, align 4, !tbaa !69
  br label %if.end1026

sw.bb410:                                         ; preds = %if.then90
  call void @llvm.lifetime.start.p0(i64 24, ptr nonnull %ref.tmp411) #24
  store i8 16, ptr %ref.tmp411, align 8
  call void @llvm.assume(i1 %89)
  store i64 6074873621086556756, ptr %__data_.i.i.i2577, align 1
  store i8 0, ptr %add.ptr.i.i.i2587, align 1, !tbaa !56
  %bf.load.i.i.i2593 = load i8, ptr %loop_name, align 8
  %bf.clear.i.i.i2594 = and i8 %bf.load.i.i.i2593, 1
  %tobool.i.not.i.i2595 = icmp eq i8 %bf.clear.i.i.i2594, 0
  br i1 %tobool.i.not.i.i2595, label %_ZNSt3__112basic_stringIcNS_11char_traitsIcEENS_9allocatorIcEEED2Ev.exit2605, label %if.then.i.i2597

if.then.i.i2597:                                  ; preds = %sw.bb410
  %243 = load ptr, ptr %__data_.i.i.i1746, align 8, !tbaa !56
  call void @_ZdlPv(ptr noundef %243) #26
  br label %_ZNSt3__112basic_stringIcNS_11char_traitsIcEENS_9allocatorIcEEED2Ev.exit2605

_ZNSt3__112basic_stringIcNS_11char_traitsIcEENS_9allocatorIcEEED2Ev.exit2605: ; preds = %if.then.i.i2597, %sw.bb410
  call void @llvm.memcpy.p0.p0.i64(ptr noundef nonnull align 8 dereferenceable(24) %loop_name, ptr noundef nonnull align 8 dereferenceable(24) %ref.tmp411, i64 24, i1 false), !tbaa.struct !57
  call void @llvm.lifetime.end.p0(i64 24, ptr nonnull %ref.tmp411) #24
  %244 = load ptr, ptr %loop_weights, align 8, !tbaa !52
  %arrayidx.i2606 = getelementptr inbounds double, ptr %244, i64 1
  %245 = load double, ptr %arrayidx.i2606, align 8, !tbaa !53
  store double %245, ptr %loop_weight145, align 8, !tbaa !78
  %246 = load ptr, ptr %loop_length153, align 8, !tbaa !61
  %247 = load i32, ptr %call.i.i.i.i.i7.i, align 4, !tbaa !69
  store i32 %247, ptr %246, align 4, !tbaa !69
  %248 = load i32, ptr %arrayidx.i1568, align 4, !tbaa !69
  %arrayidx.i2610.1 = getelementptr inbounds i32, ptr %246, i64 1
  store i32 %248, ptr %arrayidx.i2610.1, align 4, !tbaa !69
  %249 = load i32, ptr %arrayidx.i1569, align 4, !tbaa !69
  %arrayidx.i2610.2 = getelementptr inbounds i32, ptr %246, i64 2
  store i32 %249, ptr %arrayidx.i2610.2, align 4, !tbaa !69
  %250 = load ptr, ptr %samples_per_pass161, align 8, !tbaa !61
  store i32 4000, ptr %250, align 4, !tbaa !69
  %arrayidx.i2607 = getelementptr inbounds i32, ptr %250, i64 1
  store i32 32000, ptr %arrayidx.i2607, align 4, !tbaa !69
  %arrayidx.i2608 = getelementptr inbounds i32, ptr %250, i64 2
  store i32 1000000, ptr %arrayidx.i2608, align 4, !tbaa !69
  br label %if.end1026

sw.bb439:                                         ; preds = %if.then90
  call void @llvm.lifetime.start.p0(i64 24, ptr nonnull %ref.tmp440) #24
  store i8 16, ptr %ref.tmp440, align 8
  call void @llvm.assume(i1 %88)
  store i64 4913813462725187912, ptr %__data_.i.i.i2618, align 1
  store i8 0, ptr %add.ptr.i.i.i2628, align 1, !tbaa !56
  %bf.load.i.i.i2634 = load i8, ptr %loop_name, align 8
  %bf.clear.i.i.i2635 = and i8 %bf.load.i.i.i2634, 1
  %tobool.i.not.i.i2636 = icmp eq i8 %bf.clear.i.i.i2635, 0
  br i1 %tobool.i.not.i.i2636, label %_ZNSt3__112basic_stringIcNS_11char_traitsIcEENS_9allocatorIcEEED2Ev.exit2646, label %if.then.i.i2638

if.then.i.i2638:                                  ; preds = %sw.bb439
  %251 = load ptr, ptr %__data_.i.i.i1746, align 8, !tbaa !56
  call void @_ZdlPv(ptr noundef %251) #26
  br label %_ZNSt3__112basic_stringIcNS_11char_traitsIcEENS_9allocatorIcEEED2Ev.exit2646

_ZNSt3__112basic_stringIcNS_11char_traitsIcEENS_9allocatorIcEEED2Ev.exit2646: ; preds = %if.then.i.i2638, %sw.bb439
  call void @llvm.memcpy.p0.p0.i64(ptr noundef nonnull align 8 dereferenceable(24) %loop_name, ptr noundef nonnull align 8 dereferenceable(24) %ref.tmp440, i64 24, i1 false), !tbaa.struct !57
  call void @llvm.lifetime.end.p0(i64 24, ptr nonnull %ref.tmp440) #24
  %252 = load ptr, ptr %loop_weights, align 8, !tbaa !52
  %253 = load double, ptr %252, align 8, !tbaa !53
  store double %253, ptr %loop_weight145, align 8, !tbaa !78
  %254 = load ptr, ptr %loop_length153, align 8, !tbaa !61
  %255 = load i32, ptr %call.i.i.i.i.i7.i, align 4, !tbaa !69
  store i32 %255, ptr %254, align 4, !tbaa !69
  %256 = load i32, ptr %arrayidx.i1568, align 4, !tbaa !69
  %arrayidx.i2650.1 = getelementptr inbounds i32, ptr %254, i64 1
  store i32 %256, ptr %arrayidx.i2650.1, align 4, !tbaa !69
  %257 = load i32, ptr %arrayidx.i1569, align 4, !tbaa !69
  %arrayidx.i2650.2 = getelementptr inbounds i32, ptr %254, i64 2
  store i32 %257, ptr %arrayidx.i2650.2, align 4, !tbaa !69
  %258 = load ptr, ptr %samples_per_pass161, align 8, !tbaa !61
  store i32 30000, ptr %258, align 4, !tbaa !69
  %arrayidx.i2647 = getelementptr inbounds i32, ptr %258, i64 1
  store i32 320000, ptr %arrayidx.i2647, align 4, !tbaa !69
  %arrayidx.i2648 = getelementptr inbounds i32, ptr %258, i64 2
  store i32 15000000, ptr %arrayidx.i2648, align 4, !tbaa !69
  br label %if.end1026

sw.bb468:                                         ; preds = %if.then90
  call void @llvm.lifetime.start.p0(i64 24, ptr nonnull %ref.tmp469) #24
  store i8 8, ptr %ref.tmp469, align 8
  call void @llvm.assume(i1 %87)
  store i32 1195590473, ptr %__data_.i.i.i2658, align 1
  store i8 0, ptr %add.ptr.i.i.i2668, align 1, !tbaa !56
  %bf.load.i.i.i2674 = load i8, ptr %loop_name, align 8
  %bf.clear.i.i.i2675 = and i8 %bf.load.i.i.i2674, 1
  %tobool.i.not.i.i2676 = icmp eq i8 %bf.clear.i.i.i2675, 0
  br i1 %tobool.i.not.i.i2676, label %_ZNSt3__112basic_stringIcNS_11char_traitsIcEENS_9allocatorIcEEED2Ev.exit2686, label %if.then.i.i2678

if.then.i.i2678:                                  ; preds = %sw.bb468
  %259 = load ptr, ptr %__data_.i.i.i1746, align 8, !tbaa !56
  call void @_ZdlPv(ptr noundef %259) #26
  br label %_ZNSt3__112basic_stringIcNS_11char_traitsIcEENS_9allocatorIcEEED2Ev.exit2686

_ZNSt3__112basic_stringIcNS_11char_traitsIcEENS_9allocatorIcEEED2Ev.exit2686: ; preds = %if.then.i.i2678, %sw.bb468
  call void @llvm.memcpy.p0.p0.i64(ptr noundef nonnull align 8 dereferenceable(24) %loop_name, ptr noundef nonnull align 8 dereferenceable(24) %ref.tmp469, i64 24, i1 false), !tbaa.struct !57
  call void @llvm.lifetime.end.p0(i64 24, ptr nonnull %ref.tmp469) #24
  %260 = load ptr, ptr %loop_weights, align 8, !tbaa !52
  %arrayidx.i2687 = getelementptr inbounds double, ptr %260, i64 5
  %261 = load double, ptr %arrayidx.i2687, align 8, !tbaa !53
  store double %261, ptr %loop_weight145, align 8, !tbaa !78
  %262 = load ptr, ptr %loop_length153, align 8, !tbaa !61
  %263 = load i32, ptr %call.i.i.i.i.i7.i, align 4, !tbaa !69
  store i32 %263, ptr %262, align 4, !tbaa !69
  %264 = load i32, ptr %arrayidx.i1568, align 4, !tbaa !69
  %arrayidx.i2691.1 = getelementptr inbounds i32, ptr %262, i64 1
  store i32 %264, ptr %arrayidx.i2691.1, align 4, !tbaa !69
  %265 = load i32, ptr %arrayidx.i1569, align 4, !tbaa !69
  %arrayidx.i2691.2 = getelementptr inbounds i32, ptr %262, i64 2
  store i32 %265, ptr %arrayidx.i2691.2, align 4, !tbaa !69
  %266 = load ptr, ptr %samples_per_pass161, align 8, !tbaa !61
  store i32 20000, ptr %266, align 4, !tbaa !69
  %arrayidx.i2688 = getelementptr inbounds i32, ptr %266, i64 1
  store i32 200000, ptr %arrayidx.i2688, align 4, !tbaa !69
  %arrayidx.i2689 = getelementptr inbounds i32, ptr %266, i64 2
  store i32 6000000, ptr %arrayidx.i2689, align 4, !tbaa !69
  br label %if.end1026

sw.bb497:                                         ; preds = %if.then90
  call void @llvm.lifetime.start.p0(i64 24, ptr nonnull %ref.tmp498) #24
  store i8 20, ptr %ref.tmp498, align 8
  call void @llvm.assume(i1 %86)
  call void @llvm.memcpy.p0.p0.i64(ptr noundef nonnull align 1 dereferenceable(10) %__data_.i.i.i2699, ptr noundef nonnull align 1 dereferenceable(10) @.str.18, i64 10, i1 false)
  store i8 0, ptr %add.ptr.i.i.i2709, align 1, !tbaa !56
  %bf.load.i.i.i2715 = load i8, ptr %loop_name, align 8
  %bf.clear.i.i.i2716 = and i8 %bf.load.i.i.i2715, 1
  %tobool.i.not.i.i2717 = icmp eq i8 %bf.clear.i.i.i2716, 0
  br i1 %tobool.i.not.i.i2717, label %_ZNSt3__112basic_stringIcNS_11char_traitsIcEENS_9allocatorIcEEED2Ev.exit2727, label %if.then.i.i2719

if.then.i.i2719:                                  ; preds = %sw.bb497
  %267 = load ptr, ptr %__data_.i.i.i1746, align 8, !tbaa !56
  call void @_ZdlPv(ptr noundef %267) #26
  br label %_ZNSt3__112basic_stringIcNS_11char_traitsIcEENS_9allocatorIcEEED2Ev.exit2727

_ZNSt3__112basic_stringIcNS_11char_traitsIcEENS_9allocatorIcEEED2Ev.exit2727: ; preds = %if.then.i.i2719, %sw.bb497
  call void @llvm.memcpy.p0.p0.i64(ptr noundef nonnull align 8 dereferenceable(24) %loop_name, ptr noundef nonnull align 8 dereferenceable(24) %ref.tmp498, i64 24, i1 false), !tbaa.struct !57
  call void @llvm.lifetime.end.p0(i64 24, ptr nonnull %ref.tmp498) #24
  %268 = load ptr, ptr %loop_weights, align 8, !tbaa !52
  %arrayidx.i2728 = getelementptr inbounds double, ptr %268, i64 1
  %269 = load double, ptr %arrayidx.i2728, align 8, !tbaa !53
  store double %269, ptr %loop_weight145, align 8, !tbaa !78
  %270 = load ptr, ptr %loop_length153, align 8, !tbaa !61
  %271 = load i32, ptr %call.i.i.i.i.i7.i, align 4, !tbaa !69
  store i32 %271, ptr %270, align 4, !tbaa !69
  %272 = load i32, ptr %arrayidx.i1568, align 4, !tbaa !69
  %arrayidx.i2732.1 = getelementptr inbounds i32, ptr %270, i64 1
  store i32 %272, ptr %arrayidx.i2732.1, align 4, !tbaa !69
  %273 = load i32, ptr %arrayidx.i1569, align 4, !tbaa !69
  %arrayidx.i2732.2 = getelementptr inbounds i32, ptr %270, i64 2
  store i32 %273, ptr %arrayidx.i2732.2, align 4, !tbaa !69
  %274 = load ptr, ptr %samples_per_pass161, align 8, !tbaa !61
  store i32 50000, ptr %274, align 4, !tbaa !69
  %arrayidx.i2729 = getelementptr inbounds i32, ptr %274, i64 1
  store i32 600000, ptr %arrayidx.i2729, align 4, !tbaa !69
  %arrayidx.i2730 = getelementptr inbounds i32, ptr %274, i64 2
  store i32 30000000, ptr %arrayidx.i2730, align 4, !tbaa !69
  br label %if.end1026

sw.bb526:                                         ; preds = %if.then90
  call void @llvm.lifetime.start.p0(i64 24, ptr nonnull %ref.tmp527) #24
  store i8 22, ptr %ref.tmp527, align 8
  call void @llvm.assume(i1 %85)
  call void @llvm.memcpy.p0.p0.i64(ptr noundef nonnull align 1 dereferenceable(11) %__data_.i.i.i2740, ptr noundef nonnull align 1 dereferenceable(11) @.str.19, i64 11, i1 false)
  store i8 0, ptr %add.ptr.i.i.i2750, align 4, !tbaa !56
  %bf.load.i.i.i2756 = load i8, ptr %loop_name, align 8
  %bf.clear.i.i.i2757 = and i8 %bf.load.i.i.i2756, 1
  %tobool.i.not.i.i2758 = icmp eq i8 %bf.clear.i.i.i2757, 0
  br i1 %tobool.i.not.i.i2758, label %_ZNSt3__112basic_stringIcNS_11char_traitsIcEENS_9allocatorIcEEED2Ev.exit2768, label %if.then.i.i2760

if.then.i.i2760:                                  ; preds = %sw.bb526
  %275 = load ptr, ptr %__data_.i.i.i1746, align 8, !tbaa !56
  call void @_ZdlPv(ptr noundef %275) #26
  br label %_ZNSt3__112basic_stringIcNS_11char_traitsIcEENS_9allocatorIcEEED2Ev.exit2768

_ZNSt3__112basic_stringIcNS_11char_traitsIcEENS_9allocatorIcEEED2Ev.exit2768: ; preds = %if.then.i.i2760, %sw.bb526
  call void @llvm.memcpy.p0.p0.i64(ptr noundef nonnull align 8 dereferenceable(24) %loop_name, ptr noundef nonnull align 8 dereferenceable(24) %ref.tmp527, i64 24, i1 false), !tbaa.struct !57
  call void @llvm.lifetime.end.p0(i64 24, ptr nonnull %ref.tmp527) #24
  %276 = load ptr, ptr %loop_weights, align 8, !tbaa !52
  %arrayidx.i2769 = getelementptr inbounds double, ptr %276, i64 5
  %277 = load double, ptr %arrayidx.i2769, align 8, !tbaa !53
  store double %277, ptr %loop_weight145, align 8, !tbaa !78
  %278 = load ptr, ptr %loop_length153, align 8, !tbaa !61
  %279 = load i32, ptr %call.i.i.i.i.i7.i, align 4, !tbaa !69
  store i32 %279, ptr %278, align 4, !tbaa !69
  %280 = load i32, ptr %arrayidx.i1568, align 4, !tbaa !69
  %arrayidx.i2773.1 = getelementptr inbounds i32, ptr %278, i64 1
  store i32 %280, ptr %arrayidx.i2773.1, align 4, !tbaa !69
  %281 = load i32, ptr %arrayidx.i1569, align 4, !tbaa !69
  %arrayidx.i2773.2 = getelementptr inbounds i32, ptr %278, i64 2
  store i32 %281, ptr %arrayidx.i2773.2, align 4, !tbaa !69
  %282 = load ptr, ptr %samples_per_pass161, align 8, !tbaa !61
  store i32 40000, ptr %282, align 4, !tbaa !69
  %arrayidx.i2770 = getelementptr inbounds i32, ptr %282, i64 1
  store i32 600000, ptr %arrayidx.i2770, align 4, !tbaa !69
  %arrayidx.i2771 = getelementptr inbounds i32, ptr %282, i64 2
  store i32 20000000, ptr %arrayidx.i2771, align 4, !tbaa !69
  br label %if.end1026

sw.bb555:                                         ; preds = %if.then90
  call void @llvm.lifetime.start.p0(i64 24, ptr nonnull %ref.tmp556) #24
  store i8 24, ptr %ref.tmp556, align 8
  call void @llvm.assume(i1 %84)
  call void @llvm.memcpy.p0.p0.i64(ptr noundef nonnull align 1 dereferenceable(12) %__data_.i.i.i2781, ptr noundef nonnull align 1 dereferenceable(12) @.str.20, i64 12, i1 false)
  store i8 0, ptr %add.ptr.i.i.i2791, align 1, !tbaa !56
  %bf.load.i.i.i2797 = load i8, ptr %loop_name, align 8
  %bf.clear.i.i.i2798 = and i8 %bf.load.i.i.i2797, 1
  %tobool.i.not.i.i2799 = icmp eq i8 %bf.clear.i.i.i2798, 0
  br i1 %tobool.i.not.i.i2799, label %_ZNSt3__112basic_stringIcNS_11char_traitsIcEENS_9allocatorIcEEED2Ev.exit2809, label %if.then.i.i2801

if.then.i.i2801:                                  ; preds = %sw.bb555
  %283 = load ptr, ptr %__data_.i.i.i1746, align 8, !tbaa !56
  call void @_ZdlPv(ptr noundef %283) #26
  br label %_ZNSt3__112basic_stringIcNS_11char_traitsIcEENS_9allocatorIcEEED2Ev.exit2809

_ZNSt3__112basic_stringIcNS_11char_traitsIcEENS_9allocatorIcEEED2Ev.exit2809: ; preds = %if.then.i.i2801, %sw.bb555
  call void @llvm.memcpy.p0.p0.i64(ptr noundef nonnull align 8 dereferenceable(24) %loop_name, ptr noundef nonnull align 8 dereferenceable(24) %ref.tmp556, i64 24, i1 false), !tbaa.struct !57
  call void @llvm.lifetime.end.p0(i64 24, ptr nonnull %ref.tmp556) #24
  %284 = load ptr, ptr %loop_weights, align 8, !tbaa !52
  %arrayidx.i2810 = getelementptr inbounds double, ptr %284, i64 1
  %285 = load double, ptr %arrayidx.i2810, align 8, !tbaa !53
  store double %285, ptr %loop_weight145, align 8, !tbaa !78
  %286 = load ptr, ptr %loop_length153, align 8, !tbaa !61
  %287 = load i32, ptr %call.i.i.i.i.i7.i, align 4, !tbaa !69
  store i32 %287, ptr %286, align 4, !tbaa !69
  %288 = load i32, ptr %arrayidx.i1568, align 4, !tbaa !69
  %arrayidx.i2814.1 = getelementptr inbounds i32, ptr %286, i64 1
  store i32 %288, ptr %arrayidx.i2814.1, align 4, !tbaa !69
  %289 = load i32, ptr %arrayidx.i1569, align 4, !tbaa !69
  %arrayidx.i2814.2 = getelementptr inbounds i32, ptr %286, i64 2
  store i32 %289, ptr %arrayidx.i2814.2, align 4, !tbaa !69
  %290 = load ptr, ptr %samples_per_pass161, align 8, !tbaa !61
  store i32 10000, ptr %290, align 4, !tbaa !69
  %arrayidx.i2811 = getelementptr inbounds i32, ptr %290, i64 1
  store i32 100000, ptr %arrayidx.i2811, align 4, !tbaa !69
  %arrayidx.i2812 = getelementptr inbounds i32, ptr %290, i64 2
  store i32 3000000, ptr %arrayidx.i2812, align 4, !tbaa !69
  br label %if.end1026

sw.bb584:                                         ; preds = %if.then90
  call void @llvm.lifetime.start.p0(i64 24, ptr nonnull %ref.tmp585) #24
  store i8 6, ptr %ref.tmp585, align 8
  call void @llvm.assume(i1 %83)
  call void @llvm.memcpy.p0.p0.i64(ptr noundef nonnull align 1 dereferenceable(3) %__data_.i.i.i2822, ptr noundef nonnull align 1 dereferenceable(3) @.str.21, i64 3, i1 false)
  store i8 0, ptr %add.ptr.i.i.i2832, align 4, !tbaa !56
  %bf.load.i.i.i2838 = load i8, ptr %loop_name, align 8
  %bf.clear.i.i.i2839 = and i8 %bf.load.i.i.i2838, 1
  %tobool.i.not.i.i2840 = icmp eq i8 %bf.clear.i.i.i2839, 0
  br i1 %tobool.i.not.i.i2840, label %_ZNSt3__112basic_stringIcNS_11char_traitsIcEENS_9allocatorIcEEED2Ev.exit2850, label %if.then.i.i2842

if.then.i.i2842:                                  ; preds = %sw.bb584
  %291 = load ptr, ptr %__data_.i.i.i1746, align 8, !tbaa !56
  call void @_ZdlPv(ptr noundef %291) #26
  br label %_ZNSt3__112basic_stringIcNS_11char_traitsIcEENS_9allocatorIcEEED2Ev.exit2850

_ZNSt3__112basic_stringIcNS_11char_traitsIcEENS_9allocatorIcEEED2Ev.exit2850: ; preds = %if.then.i.i2842, %sw.bb584
  call void @llvm.memcpy.p0.p0.i64(ptr noundef nonnull align 8 dereferenceable(24) %loop_name, ptr noundef nonnull align 8 dereferenceable(24) %ref.tmp585, i64 24, i1 false), !tbaa.struct !57
  call void @llvm.lifetime.end.p0(i64 24, ptr nonnull %ref.tmp585) #24
  %292 = load ptr, ptr %loop_weights, align 8, !tbaa !52
  %293 = load double, ptr %292, align 8, !tbaa !53
  store double %293, ptr %loop_weight145, align 8, !tbaa !78
  %294 = load ptr, ptr %loop_length153, align 8, !tbaa !61
  %295 = load i32, ptr %call.i.i.i.i.i7.i, align 4, !tbaa !69
  store i32 %295, ptr %294, align 4, !tbaa !69
  %296 = load i32, ptr %arrayidx.i1568, align 4, !tbaa !69
  %arrayidx.i2854.1 = getelementptr inbounds i32, ptr %294, i64 1
  store i32 %296, ptr %arrayidx.i2854.1, align 4, !tbaa !69
  %297 = load i32, ptr %arrayidx.i1569, align 4, !tbaa !69
  %arrayidx.i2854.2 = getelementptr inbounds i32, ptr %294, i64 2
  store i32 %297, ptr %arrayidx.i2854.2, align 4, !tbaa !69
  %298 = load ptr, ptr %samples_per_pass161, align 8, !tbaa !61
  store i32 18000, ptr %298, align 4, !tbaa !69
  %arrayidx.i2851 = getelementptr inbounds i32, ptr %298, i64 1
  store i32 140000, ptr %arrayidx.i2851, align 4, !tbaa !69
  %arrayidx.i2852 = getelementptr inbounds i32, ptr %298, i64 2
  store i32 5000000, ptr %arrayidx.i2852, align 4, !tbaa !69
  br label %if.end1026

sw.bb613:                                         ; preds = %if.then90
  call void @llvm.lifetime.start.p0(i64 24, ptr nonnull %ref.tmp614) #24
  store i8 6, ptr %ref.tmp614, align 8
  call void @llvm.assume(i1 %82)
  call void @llvm.memcpy.p0.p0.i64(ptr noundef nonnull align 1 dereferenceable(3) %__data_.i.i.i2862, ptr noundef nonnull align 1 dereferenceable(3) @.str.22, i64 3, i1 false)
  store i8 0, ptr %add.ptr.i.i.i2872, align 4, !tbaa !56
  %bf.load.i.i.i2878 = load i8, ptr %loop_name, align 8
  %bf.clear.i.i.i2879 = and i8 %bf.load.i.i.i2878, 1
  %tobool.i.not.i.i2880 = icmp eq i8 %bf.clear.i.i.i2879, 0
  br i1 %tobool.i.not.i.i2880, label %_ZNSt3__112basic_stringIcNS_11char_traitsIcEENS_9allocatorIcEEED2Ev.exit2890, label %if.then.i.i2882

if.then.i.i2882:                                  ; preds = %sw.bb613
  %299 = load ptr, ptr %__data_.i.i.i1746, align 8, !tbaa !56
  call void @_ZdlPv(ptr noundef %299) #26
  br label %_ZNSt3__112basic_stringIcNS_11char_traitsIcEENS_9allocatorIcEEED2Ev.exit2890

_ZNSt3__112basic_stringIcNS_11char_traitsIcEENS_9allocatorIcEEED2Ev.exit2890: ; preds = %if.then.i.i2882, %sw.bb613
  call void @llvm.memcpy.p0.p0.i64(ptr noundef nonnull align 8 dereferenceable(24) %loop_name, ptr noundef nonnull align 8 dereferenceable(24) %ref.tmp614, i64 24, i1 false), !tbaa.struct !57
  call void @llvm.lifetime.end.p0(i64 24, ptr nonnull %ref.tmp614) #24
  %300 = load ptr, ptr %loop_weights, align 8, !tbaa !52
  %arrayidx.i2891 = getelementptr inbounds double, ptr %300, i64 5
  %301 = load double, ptr %arrayidx.i2891, align 8, !tbaa !53
  store double %301, ptr %loop_weight145, align 8, !tbaa !78
  %302 = load ptr, ptr %loop_length153, align 8, !tbaa !61
  %303 = load i32, ptr %call.i.i.i.i.i7.i, align 4, !tbaa !69
  store i32 %303, ptr %302, align 4, !tbaa !69
  %304 = load i32, ptr %arrayidx.i1568, align 4, !tbaa !69
  %arrayidx.i2895.1 = getelementptr inbounds i32, ptr %302, i64 1
  store i32 %304, ptr %arrayidx.i2895.1, align 4, !tbaa !69
  %305 = load i32, ptr %arrayidx.i1569, align 4, !tbaa !69
  %arrayidx.i2895.2 = getelementptr inbounds i32, ptr %302, i64 2
  store i32 %305, ptr %arrayidx.i2895.2, align 4, !tbaa !69
  %306 = load ptr, ptr %samples_per_pass161, align 8, !tbaa !61
  store i32 1000, ptr %306, align 4, !tbaa !69
  %arrayidx.i2892 = getelementptr inbounds i32, ptr %306, i64 1
  store i32 9000, ptr %arrayidx.i2892, align 4, !tbaa !69
  %arrayidx.i2893 = getelementptr inbounds i32, ptr %306, i64 2
  store i32 300000, ptr %arrayidx.i2893, align 4, !tbaa !69
  br label %if.end1026

sw.bb642:                                         ; preds = %if.then90
  call void @llvm.lifetime.start.p0(i64 24, ptr nonnull %ref.tmp643) #24
  store i8 22, ptr %ref.tmp643, align 8
  call void @llvm.assume(i1 %81)
  call void @llvm.memcpy.p0.p0.i64(ptr noundef nonnull align 1 dereferenceable(11) %__data_.i.i.i2903, ptr noundef nonnull align 1 dereferenceable(11) @.str.23, i64 11, i1 false)
  store i8 0, ptr %add.ptr.i.i.i2913, align 4, !tbaa !56
  %bf.load.i.i.i2919 = load i8, ptr %loop_name, align 8
  %bf.clear.i.i.i2920 = and i8 %bf.load.i.i.i2919, 1
  %tobool.i.not.i.i2921 = icmp eq i8 %bf.clear.i.i.i2920, 0
  br i1 %tobool.i.not.i.i2921, label %_ZNSt3__112basic_stringIcNS_11char_traitsIcEENS_9allocatorIcEEED2Ev.exit2931, label %if.then.i.i2923

if.then.i.i2923:                                  ; preds = %sw.bb642
  %307 = load ptr, ptr %__data_.i.i.i1746, align 8, !tbaa !56
  call void @_ZdlPv(ptr noundef %307) #26
  br label %_ZNSt3__112basic_stringIcNS_11char_traitsIcEENS_9allocatorIcEEED2Ev.exit2931

_ZNSt3__112basic_stringIcNS_11char_traitsIcEENS_9allocatorIcEEED2Ev.exit2931: ; preds = %if.then.i.i2923, %sw.bb642
  call void @llvm.memcpy.p0.p0.i64(ptr noundef nonnull align 8 dereferenceable(24) %loop_name, ptr noundef nonnull align 8 dereferenceable(24) %ref.tmp643, i64 24, i1 false), !tbaa.struct !57
  call void @llvm.lifetime.end.p0(i64 24, ptr nonnull %ref.tmp643) #24
  %308 = load ptr, ptr %loop_weights, align 8, !tbaa !52
  %arrayidx.i2932 = getelementptr inbounds double, ptr %308, i64 4
  %309 = load double, ptr %arrayidx.i2932, align 8, !tbaa !53
  store double %309, ptr %loop_weight145, align 8, !tbaa !78
  %310 = load ptr, ptr %loop_length153, align 8, !tbaa !61
  %311 = load i32, ptr %call.i.i.i.i.i7.i, align 4, !tbaa !69
  store i32 %311, ptr %310, align 4, !tbaa !69
  %312 = load i32, ptr %arrayidx.i1568, align 4, !tbaa !69
  %arrayidx.i2936.1 = getelementptr inbounds i32, ptr %310, i64 1
  store i32 %312, ptr %arrayidx.i2936.1, align 4, !tbaa !69
  %313 = load i32, ptr %arrayidx.i1569, align 4, !tbaa !69
  %arrayidx.i2936.2 = getelementptr inbounds i32, ptr %310, i64 2
  store i32 %313, ptr %arrayidx.i2936.2, align 4, !tbaa !69
  %314 = load ptr, ptr %samples_per_pass161, align 8, !tbaa !61
  store i32 3000, ptr %314, align 4, !tbaa !69
  %arrayidx.i2933 = getelementptr inbounds i32, ptr %314, i64 1
  store i32 30000, ptr %arrayidx.i2933, align 4, !tbaa !69
  %arrayidx.i2934 = getelementptr inbounds i32, ptr %314, i64 2
  store i32 2000000, ptr %arrayidx.i2934, align 4, !tbaa !69
  br label %if.end1026

sw.bb671:                                         ; preds = %if.then90
  call void @llvm.lifetime.start.p0(i64 24, ptr nonnull %ref.tmp672) #24
  store i8 24, ptr %ref.tmp672, align 8
  call void @llvm.assume(i1 %80)
  call void @llvm.memcpy.p0.p0.i64(ptr noundef nonnull align 1 dereferenceable(12) %__data_.i.i.i2944, ptr noundef nonnull align 1 dereferenceable(12) @.str.24, i64 12, i1 false)
  store i8 0, ptr %add.ptr.i.i.i2954, align 1, !tbaa !56
  %bf.load.i.i.i2960 = load i8, ptr %loop_name, align 8
  %bf.clear.i.i.i2961 = and i8 %bf.load.i.i.i2960, 1
  %tobool.i.not.i.i2962 = icmp eq i8 %bf.clear.i.i.i2961, 0
  br i1 %tobool.i.not.i.i2962, label %_ZNSt3__112basic_stringIcNS_11char_traitsIcEENS_9allocatorIcEEED2Ev.exit2972, label %if.then.i.i2964

if.then.i.i2964:                                  ; preds = %sw.bb671
  %315 = load ptr, ptr %__data_.i.i.i1746, align 8, !tbaa !56
  call void @_ZdlPv(ptr noundef %315) #26
  br label %_ZNSt3__112basic_stringIcNS_11char_traitsIcEENS_9allocatorIcEEED2Ev.exit2972

_ZNSt3__112basic_stringIcNS_11char_traitsIcEENS_9allocatorIcEEED2Ev.exit2972: ; preds = %if.then.i.i2964, %sw.bb671
  call void @llvm.memcpy.p0.p0.i64(ptr noundef nonnull align 8 dereferenceable(24) %loop_name, ptr noundef nonnull align 8 dereferenceable(24) %ref.tmp672, i64 24, i1 false), !tbaa.struct !57
  call void @llvm.lifetime.end.p0(i64 24, ptr nonnull %ref.tmp672) #24
  %316 = load ptr, ptr %loop_weights, align 8, !tbaa !52
  %arrayidx.i2973 = getelementptr inbounds double, ptr %316, i64 4
  %317 = load double, ptr %arrayidx.i2973, align 8, !tbaa !53
  store double %317, ptr %loop_weight145, align 8, !tbaa !78
  %318 = load ptr, ptr %loop_length153, align 8, !tbaa !61
  %319 = load i32, ptr %call.i.i.i.i.i7.i, align 4, !tbaa !69
  store i32 %319, ptr %318, align 4, !tbaa !69
  %320 = load i32, ptr %arrayidx.i1568, align 4, !tbaa !69
  %arrayidx.i2977.1 = getelementptr inbounds i32, ptr %318, i64 1
  store i32 %320, ptr %arrayidx.i2977.1, align 4, !tbaa !69
  %321 = load i32, ptr %arrayidx.i1569, align 4, !tbaa !69
  %arrayidx.i2977.2 = getelementptr inbounds i32, ptr %318, i64 2
  store i32 %321, ptr %arrayidx.i2977.2, align 4, !tbaa !69
  %322 = load ptr, ptr %samples_per_pass161, align 8, !tbaa !61
  store i32 2000, ptr %322, align 4, !tbaa !69
  %arrayidx.i2974 = getelementptr inbounds i32, ptr %322, i64 1
  store i32 22000, ptr %arrayidx.i2974, align 4, !tbaa !69
  %arrayidx.i2975 = getelementptr inbounds i32, ptr %322, i64 2
  store i32 1800000, ptr %arrayidx.i2975, align 4, !tbaa !69
  br label %if.end1026

sw.bb700:                                         ; preds = %if.then90
  call void @llvm.lifetime.start.p0(i64 24, ptr nonnull %ref.tmp701) #24
  store i8 18, ptr %ref.tmp701, align 8
  call void @llvm.assume(i1 %79)
  call void @llvm.memcpy.p0.p0.i64(ptr noundef nonnull align 1 dereferenceable(9) %__data_.i.i.i2985, ptr noundef nonnull align 1 dereferenceable(9) @.str.25, i64 9, i1 false)
  store i8 0, ptr %add.ptr.i.i.i2995, align 2, !tbaa !56
  %bf.load.i.i.i3001 = load i8, ptr %loop_name, align 8
  %bf.clear.i.i.i3002 = and i8 %bf.load.i.i.i3001, 1
  %tobool.i.not.i.i3003 = icmp eq i8 %bf.clear.i.i.i3002, 0
  br i1 %tobool.i.not.i.i3003, label %_ZNSt3__112basic_stringIcNS_11char_traitsIcEENS_9allocatorIcEEED2Ev.exit3013, label %if.then.i.i3005

if.then.i.i3005:                                  ; preds = %sw.bb700
  %323 = load ptr, ptr %__data_.i.i.i1746, align 8, !tbaa !56
  call void @_ZdlPv(ptr noundef %323) #26
  br label %_ZNSt3__112basic_stringIcNS_11char_traitsIcEENS_9allocatorIcEEED2Ev.exit3013

_ZNSt3__112basic_stringIcNS_11char_traitsIcEENS_9allocatorIcEEED2Ev.exit3013: ; preds = %if.then.i.i3005, %sw.bb700
  call void @llvm.memcpy.p0.p0.i64(ptr noundef nonnull align 8 dereferenceable(24) %loop_name, ptr noundef nonnull align 8 dereferenceable(24) %ref.tmp701, i64 24, i1 false), !tbaa.struct !57
  call void @llvm.lifetime.end.p0(i64 24, ptr nonnull %ref.tmp701) #24
  %324 = load ptr, ptr %loop_weights, align 8, !tbaa !52
  %arrayidx.i3014 = getelementptr inbounds double, ptr %324, i64 1
  %325 = load double, ptr %arrayidx.i3014, align 8, !tbaa !53
  store double %325, ptr %loop_weight145, align 8, !tbaa !78
  %326 = load ptr, ptr %loop_length153, align 8, !tbaa !61
  %327 = load i32, ptr %call.i.i.i.i.i7.i, align 4, !tbaa !69
  store i32 %327, ptr %326, align 4, !tbaa !69
  %328 = load i32, ptr %arrayidx.i1568, align 4, !tbaa !69
  %arrayidx.i3018.1 = getelementptr inbounds i32, ptr %326, i64 1
  store i32 %328, ptr %arrayidx.i3018.1, align 4, !tbaa !69
  %329 = load i32, ptr %arrayidx.i1569, align 4, !tbaa !69
  %arrayidx.i3018.2 = getelementptr inbounds i32, ptr %326, i64 2
  store i32 %329, ptr %arrayidx.i3018.2, align 4, !tbaa !69
  %330 = load ptr, ptr %samples_per_pass161, align 8, !tbaa !61
  store i32 30000, ptr %330, align 4, !tbaa !69
  %arrayidx.i3015 = getelementptr inbounds i32, ptr %330, i64 1
  store i32 250000, ptr %arrayidx.i3015, align 4, !tbaa !69
  %arrayidx.i3016 = getelementptr inbounds i32, ptr %330, i64 2
  store i32 8000000, ptr %arrayidx.i3016, align 4, !tbaa !69
  br label %if.end1026

sw.bb729:                                         ; preds = %if.then90
  call void @llvm.lifetime.start.p0(i64 24, ptr nonnull %ref.tmp730) #24
  store i8 20, ptr %ref.tmp730, align 8
  call void @llvm.assume(i1 %78)
  call void @llvm.memcpy.p0.p0.i64(ptr noundef nonnull align 1 dereferenceable(10) %__data_.i.i.i3026, ptr noundef nonnull align 1 dereferenceable(10) @.str.26, i64 10, i1 false)
  store i8 0, ptr %add.ptr.i.i.i3036, align 1, !tbaa !56
  %bf.load.i.i.i3042 = load i8, ptr %loop_name, align 8
  %bf.clear.i.i.i3043 = and i8 %bf.load.i.i.i3042, 1
  %tobool.i.not.i.i3044 = icmp eq i8 %bf.clear.i.i.i3043, 0
  br i1 %tobool.i.not.i.i3044, label %_ZNSt3__112basic_stringIcNS_11char_traitsIcEENS_9allocatorIcEEED2Ev.exit3054, label %if.then.i.i3046

if.then.i.i3046:                                  ; preds = %sw.bb729
  %331 = load ptr, ptr %__data_.i.i.i1746, align 8, !tbaa !56
  call void @_ZdlPv(ptr noundef %331) #26
  br label %_ZNSt3__112basic_stringIcNS_11char_traitsIcEENS_9allocatorIcEEED2Ev.exit3054

_ZNSt3__112basic_stringIcNS_11char_traitsIcEENS_9allocatorIcEEED2Ev.exit3054: ; preds = %if.then.i.i3046, %sw.bb729
  call void @llvm.memcpy.p0.p0.i64(ptr noundef nonnull align 8 dereferenceable(24) %loop_name, ptr noundef nonnull align 8 dereferenceable(24) %ref.tmp730, i64 24, i1 false), !tbaa.struct !57
  call void @llvm.lifetime.end.p0(i64 24, ptr nonnull %ref.tmp730) #24
  %332 = load ptr, ptr %loop_weights, align 8, !tbaa !52
  %333 = load double, ptr %332, align 8, !tbaa !53
  store double %333, ptr %loop_weight145, align 8, !tbaa !78
  %334 = load ptr, ptr %loop_length153, align 8, !tbaa !61
  %335 = load i32, ptr %call.i.i.i.i.i7.i, align 4, !tbaa !69
  store i32 %335, ptr %334, align 4, !tbaa !69
  %336 = load i32, ptr %arrayidx.i1568, align 4, !tbaa !69
  %arrayidx.i3058.1 = getelementptr inbounds i32, ptr %334, i64 1
  store i32 %336, ptr %arrayidx.i3058.1, align 4, !tbaa !69
  %337 = load i32, ptr %arrayidx.i1569, align 4, !tbaa !69
  %arrayidx.i3058.2 = getelementptr inbounds i32, ptr %334, i64 2
  store i32 %337, ptr %arrayidx.i3058.2, align 4, !tbaa !69
  %338 = load ptr, ptr %samples_per_pass161, align 8, !tbaa !61
  store i32 30000, ptr %338, align 4, !tbaa !69
  %arrayidx.i3055 = getelementptr inbounds i32, ptr %338, i64 1
  store i32 500000, ptr %arrayidx.i3055, align 4, !tbaa !69
  %arrayidx.i3056 = getelementptr inbounds i32, ptr %338, i64 2
  store i32 30000000, ptr %arrayidx.i3056, align 4, !tbaa !69
  br label %if.end1026

sw.bb758:                                         ; preds = %if.then90
  call void @llvm.lifetime.start.p0(i64 24, ptr nonnull %ref.tmp759) #24
  store i8 12, ptr %ref.tmp759, align 8
  call void @llvm.assume(i1 %77)
  call void @llvm.memcpy.p0.p0.i64(ptr noundef nonnull align 1 dereferenceable(6) %__data_.i.i.i3066, ptr noundef nonnull align 1 dereferenceable(6) @.str.27, i64 6, i1 false)
  store i8 0, ptr %add.ptr.i.i.i3076, align 1, !tbaa !56
  %bf.load.i.i.i3082 = load i8, ptr %loop_name, align 8
  %bf.clear.i.i.i3083 = and i8 %bf.load.i.i.i3082, 1
  %tobool.i.not.i.i3084 = icmp eq i8 %bf.clear.i.i.i3083, 0
  br i1 %tobool.i.not.i.i3084, label %_ZNSt3__112basic_stringIcNS_11char_traitsIcEENS_9allocatorIcEEED2Ev.exit3094, label %if.then.i.i3086

if.then.i.i3086:                                  ; preds = %sw.bb758
  %339 = load ptr, ptr %__data_.i.i.i1746, align 8, !tbaa !56
  call void @_ZdlPv(ptr noundef %339) #26
  br label %_ZNSt3__112basic_stringIcNS_11char_traitsIcEENS_9allocatorIcEEED2Ev.exit3094

_ZNSt3__112basic_stringIcNS_11char_traitsIcEENS_9allocatorIcEEED2Ev.exit3094: ; preds = %if.then.i.i3086, %sw.bb758
  call void @llvm.memcpy.p0.p0.i64(ptr noundef nonnull align 8 dereferenceable(24) %loop_name, ptr noundef nonnull align 8 dereferenceable(24) %ref.tmp759, i64 24, i1 false), !tbaa.struct !57
  call void @llvm.lifetime.end.p0(i64 24, ptr nonnull %ref.tmp759) #24
  %340 = load ptr, ptr %loop_weights, align 8, !tbaa !52
  %arrayidx.i3095 = getelementptr inbounds double, ptr %340, i64 5
  %341 = load double, ptr %arrayidx.i3095, align 8, !tbaa !53
  store double %341, ptr %loop_weight145, align 8, !tbaa !78
  %342 = load ptr, ptr %loop_length153, align 8, !tbaa !61
  %343 = load i32, ptr %call.i.i.i.i.i7.i, align 4, !tbaa !69
  store i32 %343, ptr %342, align 4, !tbaa !69
  %344 = load i32, ptr %arrayidx.i1568, align 4, !tbaa !69
  %arrayidx.i3099.1 = getelementptr inbounds i32, ptr %342, i64 1
  store i32 %344, ptr %arrayidx.i3099.1, align 4, !tbaa !69
  %345 = load i32, ptr %arrayidx.i1569, align 4, !tbaa !69
  %arrayidx.i3099.2 = getelementptr inbounds i32, ptr %342, i64 2
  store i32 %345, ptr %arrayidx.i3099.2, align 4, !tbaa !69
  %346 = load ptr, ptr %samples_per_pass161, align 8, !tbaa !61
  store i32 2000, ptr %346, align 4, !tbaa !69
  %arrayidx.i3096 = getelementptr inbounds i32, ptr %346, i64 1
  store i32 18000, ptr %arrayidx.i3096, align 4, !tbaa !69
  %arrayidx.i3097 = getelementptr inbounds i32, ptr %346, i64 2
  store i32 700000, ptr %arrayidx.i3097, align 4, !tbaa !69
  br label %if.end1026

sw.bb787:                                         ; preds = %if.then90
  call void @llvm.lifetime.start.p0(i64 24, ptr nonnull %ref.tmp788) #24
  store i8 12, ptr %ref.tmp788, align 8
  call void @llvm.assume(i1 %76)
  call void @llvm.memcpy.p0.p0.i64(ptr noundef nonnull align 1 dereferenceable(6) %__data_.i.i.i3107, ptr noundef nonnull align 1 dereferenceable(6) @.str.28, i64 6, i1 false)
  store i8 0, ptr %add.ptr.i.i.i3117, align 1, !tbaa !56
  %bf.load.i.i.i3123 = load i8, ptr %loop_name, align 8
  %bf.clear.i.i.i3124 = and i8 %bf.load.i.i.i3123, 1
  %tobool.i.not.i.i3125 = icmp eq i8 %bf.clear.i.i.i3124, 0
  br i1 %tobool.i.not.i.i3125, label %_ZNSt3__112basic_stringIcNS_11char_traitsIcEENS_9allocatorIcEEED2Ev.exit3135, label %if.then.i.i3127

if.then.i.i3127:                                  ; preds = %sw.bb787
  %347 = load ptr, ptr %__data_.i.i.i1746, align 8, !tbaa !56
  call void @_ZdlPv(ptr noundef %347) #26
  br label %_ZNSt3__112basic_stringIcNS_11char_traitsIcEENS_9allocatorIcEEED2Ev.exit3135

_ZNSt3__112basic_stringIcNS_11char_traitsIcEENS_9allocatorIcEEED2Ev.exit3135: ; preds = %if.then.i.i3127, %sw.bb787
  call void @llvm.memcpy.p0.p0.i64(ptr noundef nonnull align 8 dereferenceable(24) %loop_name, ptr noundef nonnull align 8 dereferenceable(24) %ref.tmp788, i64 24, i1 false), !tbaa.struct !57
  call void @llvm.lifetime.end.p0(i64 24, ptr nonnull %ref.tmp788) #24
  %348 = load ptr, ptr %loop_weights, align 8, !tbaa !52
  %arrayidx.i3136 = getelementptr inbounds double, ptr %348, i64 3
  %349 = load double, ptr %arrayidx.i3136, align 8, !tbaa !53
  store double %349, ptr %loop_weight145, align 8, !tbaa !78
  %350 = load ptr, ptr %loop_length153, align 8, !tbaa !61
  %351 = load i32, ptr %call.i.i.i.i.i7.i, align 4, !tbaa !69
  store i32 %351, ptr %350, align 4, !tbaa !69
  %352 = load i32, ptr %arrayidx.i1568, align 4, !tbaa !69
  %arrayidx.i3140.1 = getelementptr inbounds i32, ptr %350, i64 1
  store i32 %352, ptr %arrayidx.i3140.1, align 4, !tbaa !69
  %353 = load i32, ptr %arrayidx.i1569, align 4, !tbaa !69
  %arrayidx.i3140.2 = getelementptr inbounds i32, ptr %350, i64 2
  store i32 %353, ptr %arrayidx.i3140.2, align 4, !tbaa !69
  %354 = load ptr, ptr %samples_per_pass161, align 8, !tbaa !61
  store i32 3000, ptr %354, align 4, !tbaa !69
  %arrayidx.i3137 = getelementptr inbounds i32, ptr %354, i64 1
  store i32 24000, ptr %arrayidx.i3137, align 4, !tbaa !69
  %arrayidx.i3138 = getelementptr inbounds i32, ptr %354, i64 2
  store i32 1000000, ptr %arrayidx.i3138, align 4, !tbaa !69
  br label %if.end1026

sw.bb816:                                         ; preds = %if.then90
  call void @llvm.lifetime.start.p0(i64 24, ptr nonnull %ref.tmp817) #24
  store i8 16, ptr %ref.tmp817, align 8
  call void @llvm.assume(i1 %75)
  store i64 4914094937701898568, ptr %__data_.i.i.i3148, align 1
  store i8 0, ptr %add.ptr.i.i.i3158, align 1, !tbaa !56
  %bf.load.i.i.i3164 = load i8, ptr %loop_name, align 8
  %bf.clear.i.i.i3165 = and i8 %bf.load.i.i.i3164, 1
  %tobool.i.not.i.i3166 = icmp eq i8 %bf.clear.i.i.i3165, 0
  br i1 %tobool.i.not.i.i3166, label %_ZNSt3__112basic_stringIcNS_11char_traitsIcEENS_9allocatorIcEEED2Ev.exit3176, label %if.then.i.i3168

if.then.i.i3168:                                  ; preds = %sw.bb816
  %355 = load ptr, ptr %__data_.i.i.i1746, align 8, !tbaa !56
  call void @_ZdlPv(ptr noundef %355) #26
  br label %_ZNSt3__112basic_stringIcNS_11char_traitsIcEENS_9allocatorIcEEED2Ev.exit3176

_ZNSt3__112basic_stringIcNS_11char_traitsIcEENS_9allocatorIcEEED2Ev.exit3176: ; preds = %if.then.i.i3168, %sw.bb816
  call void @llvm.memcpy.p0.p0.i64(ptr noundef nonnull align 8 dereferenceable(24) %loop_name, ptr noundef nonnull align 8 dereferenceable(24) %ref.tmp817, i64 24, i1 false), !tbaa.struct !57
  call void @llvm.lifetime.end.p0(i64 24, ptr nonnull %ref.tmp817) #24
  %356 = load ptr, ptr %loop_weights, align 8, !tbaa !52
  %arrayidx.i3177 = getelementptr inbounds double, ptr %356, i64 1
  %357 = load double, ptr %arrayidx.i3177, align 8, !tbaa !53
  store double %357, ptr %loop_weight145, align 8, !tbaa !78
  %358 = load ptr, ptr %loop_length153, align 8, !tbaa !61
  %359 = load i32, ptr %call.i.i.i.i.i7.i, align 4, !tbaa !69
  store i32 %359, ptr %358, align 4, !tbaa !69
  %360 = load i32, ptr %arrayidx.i1568, align 4, !tbaa !69
  %arrayidx.i3181.1 = getelementptr inbounds i32, ptr %358, i64 1
  store i32 %360, ptr %arrayidx.i3181.1, align 4, !tbaa !69
  %361 = load i32, ptr %arrayidx.i1569, align 4, !tbaa !69
  %arrayidx.i3181.2 = getelementptr inbounds i32, ptr %358, i64 2
  store i32 %361, ptr %arrayidx.i3181.2, align 4, !tbaa !69
  %362 = load ptr, ptr %samples_per_pass161, align 8, !tbaa !61
  store i32 300, ptr %362, align 4, !tbaa !69
  %arrayidx.i3178 = getelementptr inbounds i32, ptr %362, i64 1
  store i32 2000, ptr %arrayidx.i3178, align 4, !tbaa !69
  %arrayidx.i3179 = getelementptr inbounds i32, ptr %362, i64 2
  store i32 50000, ptr %arrayidx.i3179, align 4, !tbaa !69
  br label %if.end1026

sw.bb845:                                         ; preds = %if.then90
  call void @llvm.lifetime.start.p0(i64 24, ptr nonnull %ref.tmp846) #24
  store i8 26, ptr %ref.tmp846, align 8
  call void @llvm.assume(i1 %74)
  call void @llvm.memcpy.p0.p0.i64(ptr noundef nonnull align 1 dereferenceable(13) %__data_.i.i.i3189, ptr noundef nonnull align 1 dereferenceable(13) @.str.30, i64 13, i1 false)
  store i8 0, ptr %add.ptr.i.i.i3199, align 2, !tbaa !56
  %bf.load.i.i.i3205 = load i8, ptr %loop_name, align 8
  %bf.clear.i.i.i3206 = and i8 %bf.load.i.i.i3205, 1
  %tobool.i.not.i.i3207 = icmp eq i8 %bf.clear.i.i.i3206, 0
  br i1 %tobool.i.not.i.i3207, label %_ZNSt3__112basic_stringIcNS_11char_traitsIcEENS_9allocatorIcEEED2Ev.exit3217, label %if.then.i.i3209

if.then.i.i3209:                                  ; preds = %sw.bb845
  %363 = load ptr, ptr %__data_.i.i.i1746, align 8, !tbaa !56
  call void @_ZdlPv(ptr noundef %363) #26
  br label %_ZNSt3__112basic_stringIcNS_11char_traitsIcEENS_9allocatorIcEEED2Ev.exit3217

_ZNSt3__112basic_stringIcNS_11char_traitsIcEENS_9allocatorIcEEED2Ev.exit3217: ; preds = %if.then.i.i3209, %sw.bb845
  call void @llvm.memcpy.p0.p0.i64(ptr noundef nonnull align 8 dereferenceable(24) %loop_name, ptr noundef nonnull align 8 dereferenceable(24) %ref.tmp846, i64 24, i1 false), !tbaa.struct !57
  call void @llvm.lifetime.end.p0(i64 24, ptr nonnull %ref.tmp846) #24
  %364 = load ptr, ptr %loop_weights, align 8, !tbaa !52
  %arrayidx.i3218 = getelementptr inbounds double, ptr %364, i64 1
  %365 = load double, ptr %arrayidx.i3218, align 8, !tbaa !53
  store double %365, ptr %loop_weight145, align 8, !tbaa !78
  %366 = load ptr, ptr %loop_length153, align 8, !tbaa !61
  %367 = load i32, ptr %call.i.i.i.i.i7.i, align 4, !tbaa !69
  store i32 %367, ptr %366, align 4, !tbaa !69
  %368 = load i32, ptr %arrayidx.i1568, align 4, !tbaa !69
  %arrayidx.i3222.1 = getelementptr inbounds i32, ptr %366, i64 1
  store i32 %368, ptr %arrayidx.i3222.1, align 4, !tbaa !69
  %369 = load i32, ptr %arrayidx.i1569, align 4, !tbaa !69
  %arrayidx.i3222.2 = getelementptr inbounds i32, ptr %366, i64 2
  store i32 %369, ptr %arrayidx.i3222.2, align 4, !tbaa !69
  %370 = load ptr, ptr %samples_per_pass161, align 8, !tbaa !61
  store i32 4000, ptr %370, align 4, !tbaa !69
  %arrayidx.i3219 = getelementptr inbounds i32, ptr %370, i64 1
  store i32 36000, ptr %arrayidx.i3219, align 4, !tbaa !69
  %arrayidx.i3220 = getelementptr inbounds i32, ptr %370, i64 2
  store i32 1000000, ptr %arrayidx.i3220, align 4, !tbaa !69
  br label %if.end1026

sw.bb874:                                         ; preds = %if.then90
  call void @llvm.lifetime.start.p0(i64 24, ptr nonnull %ref.tmp875) #24
  store i8 16, ptr %ref.tmp875, align 8
  call void @llvm.assume(i1 %73)
  store i64 4923084613239392580, ptr %__data_.i.i.i3230, align 1
  store i8 0, ptr %add.ptr.i.i.i3240, align 1, !tbaa !56
  %bf.load.i.i.i3246 = load i8, ptr %loop_name, align 8
  %bf.clear.i.i.i3247 = and i8 %bf.load.i.i.i3246, 1
  %tobool.i.not.i.i3248 = icmp eq i8 %bf.clear.i.i.i3247, 0
  br i1 %tobool.i.not.i.i3248, label %_ZNSt3__112basic_stringIcNS_11char_traitsIcEENS_9allocatorIcEEED2Ev.exit3258, label %if.then.i.i3250

if.then.i.i3250:                                  ; preds = %sw.bb874
  %371 = load ptr, ptr %__data_.i.i.i1746, align 8, !tbaa !56
  call void @_ZdlPv(ptr noundef %371) #26
  br label %_ZNSt3__112basic_stringIcNS_11char_traitsIcEENS_9allocatorIcEEED2Ev.exit3258

_ZNSt3__112basic_stringIcNS_11char_traitsIcEENS_9allocatorIcEEED2Ev.exit3258: ; preds = %if.then.i.i3250, %sw.bb874
  call void @llvm.memcpy.p0.p0.i64(ptr noundef nonnull align 8 dereferenceable(24) %loop_name, ptr noundef nonnull align 8 dereferenceable(24) %ref.tmp875, i64 24, i1 false), !tbaa.struct !57
  call void @llvm.lifetime.end.p0(i64 24, ptr nonnull %ref.tmp875) #24
  %372 = load ptr, ptr %loop_weights, align 8, !tbaa !52
  %arrayidx.i3259 = getelementptr inbounds double, ptr %372, i64 1
  %373 = load double, ptr %arrayidx.i3259, align 8, !tbaa !53
  store double %373, ptr %loop_weight145, align 8, !tbaa !78
  %374 = load ptr, ptr %loop_length153, align 8, !tbaa !61
  %375 = load i32, ptr %call.i.i.i.i.i7.i, align 4, !tbaa !69
  store i32 %375, ptr %374, align 4, !tbaa !69
  %376 = load i32, ptr %arrayidx.i1568, align 4, !tbaa !69
  %arrayidx.i3263.1 = getelementptr inbounds i32, ptr %374, i64 1
  store i32 %376, ptr %arrayidx.i3263.1, align 4, !tbaa !69
  %377 = load i32, ptr %arrayidx.i1569, align 4, !tbaa !69
  %arrayidx.i3263.2 = getelementptr inbounds i32, ptr %374, i64 2
  store i32 %377, ptr %arrayidx.i3263.2, align 4, !tbaa !69
  %378 = load ptr, ptr %samples_per_pass161, align 8, !tbaa !61
  store i32 1000, ptr %378, align 4, !tbaa !69
  %arrayidx.i3260 = getelementptr inbounds i32, ptr %378, i64 1
  store i32 8000, ptr %arrayidx.i3260, align 4, !tbaa !69
  %arrayidx.i3261 = getelementptr inbounds i32, ptr %378, i64 2
  store i32 200000, ptr %arrayidx.i3261, align 4, !tbaa !69
  br label %if.end1026

sw.bb903:                                         ; preds = %if.then90
  call void @llvm.lifetime.start.p0(i64 24, ptr nonnull %ref.tmp904) #24
  store i8 18, ptr %ref.tmp904, align 8
  call void @llvm.assume(i1 %72)
  call void @llvm.memcpy.p0.p0.i64(ptr noundef nonnull align 1 dereferenceable(9) %__data_.i.i.i3271, ptr noundef nonnull align 1 dereferenceable(9) @.str.32, i64 9, i1 false)
  store i8 0, ptr %add.ptr.i.i.i3281, align 2, !tbaa !56
  %bf.load.i.i.i3287 = load i8, ptr %loop_name, align 8
  %bf.clear.i.i.i3288 = and i8 %bf.load.i.i.i3287, 1
  %tobool.i.not.i.i3289 = icmp eq i8 %bf.clear.i.i.i3288, 0
  br i1 %tobool.i.not.i.i3289, label %_ZNSt3__112basic_stringIcNS_11char_traitsIcEENS_9allocatorIcEEED2Ev.exit3299, label %if.then.i.i3291

if.then.i.i3291:                                  ; preds = %sw.bb903
  %379 = load ptr, ptr %__data_.i.i.i1746, align 8, !tbaa !56
  call void @_ZdlPv(ptr noundef %379) #26
  br label %_ZNSt3__112basic_stringIcNS_11char_traitsIcEENS_9allocatorIcEEED2Ev.exit3299

_ZNSt3__112basic_stringIcNS_11char_traitsIcEENS_9allocatorIcEEED2Ev.exit3299: ; preds = %if.then.i.i3291, %sw.bb903
  call void @llvm.memcpy.p0.p0.i64(ptr noundef nonnull align 8 dereferenceable(24) %loop_name, ptr noundef nonnull align 8 dereferenceable(24) %ref.tmp904, i64 24, i1 false), !tbaa.struct !57
  call void @llvm.lifetime.end.p0(i64 24, ptr nonnull %ref.tmp904) #24
  %380 = load ptr, ptr %loop_weights, align 8, !tbaa !52
  %arrayidx.i3300 = getelementptr inbounds double, ptr %380, i64 1
  %381 = load double, ptr %arrayidx.i3300, align 8, !tbaa !53
  store double %381, ptr %loop_weight145, align 8, !tbaa !78
  %382 = load ptr, ptr %loop_length153, align 8, !tbaa !61
  %383 = load i32, ptr %call.i.i.i.i.i7.i, align 4, !tbaa !69
  store i32 %383, ptr %382, align 4, !tbaa !69
  %384 = load i32, ptr %arrayidx.i1568, align 4, !tbaa !69
  %arrayidx.i3304.1 = getelementptr inbounds i32, ptr %382, i64 1
  store i32 %384, ptr %arrayidx.i3304.1, align 4, !tbaa !69
  %385 = load i32, ptr %arrayidx.i1569, align 4, !tbaa !69
  %arrayidx.i3304.2 = getelementptr inbounds i32, ptr %382, i64 2
  store i32 %385, ptr %arrayidx.i3304.2, align 4, !tbaa !69
  %386 = load ptr, ptr %samples_per_pass161, align 8, !tbaa !61
  store i32 8, ptr %386, align 4, !tbaa !69
  %arrayidx.i3301 = getelementptr inbounds i32, ptr %386, i64 1
  store i32 70, ptr %arrayidx.i3301, align 4, !tbaa !69
  %arrayidx.i3302 = getelementptr inbounds i32, ptr %386, i64 2
  store i32 8000, ptr %arrayidx.i3302, align 4, !tbaa !69
  br label %if.end1026

sw.bb932:                                         ; preds = %if.then90
  call void @llvm.lifetime.start.p0(i64 24, ptr nonnull %ref.tmp933) #24
  store i8 18, ptr %ref.tmp933, align 8
  call void @llvm.assume(i1 %71)
  call void @llvm.memcpy.p0.p0.i64(ptr noundef nonnull align 1 dereferenceable(9) %__data_.i.i.i3312, ptr noundef nonnull align 1 dereferenceable(9) @.str.33, i64 9, i1 false)
  store i8 0, ptr %add.ptr.i.i.i3322, align 2, !tbaa !56
  %bf.load.i.i.i3328 = load i8, ptr %loop_name, align 8
  %bf.clear.i.i.i3329 = and i8 %bf.load.i.i.i3328, 1
  %tobool.i.not.i.i3330 = icmp eq i8 %bf.clear.i.i.i3329, 0
  br i1 %tobool.i.not.i.i3330, label %_ZNSt3__112basic_stringIcNS_11char_traitsIcEENS_9allocatorIcEEED2Ev.exit3340, label %if.then.i.i3332

if.then.i.i3332:                                  ; preds = %sw.bb932
  %387 = load ptr, ptr %__data_.i.i.i1746, align 8, !tbaa !56
  call void @_ZdlPv(ptr noundef %387) #26
  br label %_ZNSt3__112basic_stringIcNS_11char_traitsIcEENS_9allocatorIcEEED2Ev.exit3340

_ZNSt3__112basic_stringIcNS_11char_traitsIcEENS_9allocatorIcEEED2Ev.exit3340: ; preds = %if.then.i.i3332, %sw.bb932
  call void @llvm.memcpy.p0.p0.i64(ptr noundef nonnull align 8 dereferenceable(24) %loop_name, ptr noundef nonnull align 8 dereferenceable(24) %ref.tmp933, i64 24, i1 false), !tbaa.struct !57
  call void @llvm.lifetime.end.p0(i64 24, ptr nonnull %ref.tmp933) #24
  %388 = load ptr, ptr %loop_weights, align 8, !tbaa !52
  %arrayidx.i3341 = getelementptr inbounds double, ptr %388, i64 2
  %389 = load double, ptr %arrayidx.i3341, align 8, !tbaa !53
  store double %389, ptr %loop_weight145, align 8, !tbaa !78
  %390 = load ptr, ptr %loop_length153, align 8, !tbaa !61
  %391 = load i32, ptr %call.i.i.i.i.i7.i, align 4, !tbaa !69
  store i32 %391, ptr %390, align 4, !tbaa !69
  %392 = load i32, ptr %arrayidx.i1568, align 4, !tbaa !69
  %arrayidx.i3345.1 = getelementptr inbounds i32, ptr %390, i64 1
  store i32 %392, ptr %arrayidx.i3345.1, align 4, !tbaa !69
  %393 = load i32, ptr %arrayidx.i1569, align 4, !tbaa !69
  %arrayidx.i3345.2 = getelementptr inbounds i32, ptr %390, i64 2
  store i32 %393, ptr %arrayidx.i3345.2, align 4, !tbaa !69
  %394 = load ptr, ptr %samples_per_pass161, align 8, !tbaa !61
  store i32 4000, ptr %394, align 4, !tbaa !69
  %arrayidx.i3342 = getelementptr inbounds i32, ptr %394, i64 1
  store i32 30000, ptr %arrayidx.i3342, align 4, !tbaa !69
  %arrayidx.i3343 = getelementptr inbounds i32, ptr %394, i64 2
  store i32 1000000, ptr %arrayidx.i3343, align 4, !tbaa !69
  br label %if.end1026

sw.bb961:                                         ; preds = %if.then90
  call void @llvm.lifetime.start.p0(i64 24, ptr nonnull %ref.tmp962) #24
  store i8 24, ptr %ref.tmp962, align 8
  call void @llvm.assume(i1 %99)
  call void @llvm.memcpy.p0.p0.i64(ptr noundef nonnull align 1 dereferenceable(12) %__data_.i.i.i3353, ptr noundef nonnull align 1 dereferenceable(12) @.str.34, i64 12, i1 false)
  store i8 0, ptr %add.ptr.i.i.i3363, align 1, !tbaa !56
  %bf.load.i.i.i3369 = load i8, ptr %loop_name, align 8
  %bf.clear.i.i.i3370 = and i8 %bf.load.i.i.i3369, 1
  %tobool.i.not.i.i3371 = icmp eq i8 %bf.clear.i.i.i3370, 0
  br i1 %tobool.i.not.i.i3371, label %_ZNSt3__112basic_stringIcNS_11char_traitsIcEENS_9allocatorIcEEED2Ev.exit3381, label %if.then.i.i3373

if.then.i.i3373:                                  ; preds = %sw.bb961
  %395 = load ptr, ptr %__data_.i.i.i1746, align 8, !tbaa !56
  call void @_ZdlPv(ptr noundef %395) #26
  br label %_ZNSt3__112basic_stringIcNS_11char_traitsIcEENS_9allocatorIcEEED2Ev.exit3381

_ZNSt3__112basic_stringIcNS_11char_traitsIcEENS_9allocatorIcEEED2Ev.exit3381: ; preds = %if.then.i.i3373, %sw.bb961
  call void @llvm.memcpy.p0.p0.i64(ptr noundef nonnull align 8 dereferenceable(24) %loop_name, ptr noundef nonnull align 8 dereferenceable(24) %ref.tmp962, i64 24, i1 false), !tbaa.struct !57
  call void @llvm.lifetime.end.p0(i64 24, ptr nonnull %ref.tmp962) #24
  %396 = load ptr, ptr %loop_weights, align 8, !tbaa !52
  %arrayidx.i3382 = getelementptr inbounds double, ptr %396, i64 1
  %397 = load double, ptr %arrayidx.i3382, align 8, !tbaa !53
  store double %397, ptr %loop_weight145, align 8, !tbaa !78
  %398 = load ptr, ptr %loop_length153, align 8, !tbaa !61
  %399 = load i32, ptr %call.i.i.i.i.i7.i, align 4, !tbaa !69
  store i32 %399, ptr %398, align 4, !tbaa !69
  %400 = load i32, ptr %arrayidx.i1568, align 4, !tbaa !69
  %arrayidx.i3386.1 = getelementptr inbounds i32, ptr %398, i64 1
  store i32 %400, ptr %arrayidx.i3386.1, align 4, !tbaa !69
  %401 = load i32, ptr %arrayidx.i1569, align 4, !tbaa !69
  %arrayidx.i3386.2 = getelementptr inbounds i32, ptr %398, i64 2
  store i32 %401, ptr %arrayidx.i3386.2, align 4, !tbaa !69
  %402 = load ptr, ptr %samples_per_pass161, align 8, !tbaa !61
  store i32 800, ptr %402, align 4, !tbaa !69
  %arrayidx.i3383 = getelementptr inbounds i32, ptr %402, i64 1
  store i32 6000, ptr %arrayidx.i3383, align 4, !tbaa !69
  %arrayidx.i3384 = getelementptr inbounds i32, ptr %402, i64 2
  store i32 150000, ptr %arrayidx.i3384, align 4, !tbaa !69
  br label %if.end1026

sw.bb990:                                         ; preds = %if.then90
  call void @llvm.lifetime.start.p0(i64 24, ptr nonnull %ref.tmp991) #24
  store i8 28, ptr %ref.tmp991, align 8
  call void @llvm.assume(i1 %100)
  call void @llvm.memcpy.p0.p0.i64(ptr noundef nonnull align 1 dereferenceable(14) %__data_.i.i.i3394, ptr noundef nonnull align 1 dereferenceable(14) @.str.35, i64 14, i1 false)
  store i8 0, ptr %add.ptr.i.i.i3404, align 1, !tbaa !56
  %bf.load.i.i.i3410 = load i8, ptr %loop_name, align 8
  %bf.clear.i.i.i3411 = and i8 %bf.load.i.i.i3410, 1
  %tobool.i.not.i.i3412 = icmp eq i8 %bf.clear.i.i.i3411, 0
  br i1 %tobool.i.not.i.i3412, label %_ZNSt3__112basic_stringIcNS_11char_traitsIcEENS_9allocatorIcEEED2Ev.exit3422, label %if.then.i.i3414

if.then.i.i3414:                                  ; preds = %sw.bb990
  %403 = load ptr, ptr %__data_.i.i.i1746, align 8, !tbaa !56
  call void @_ZdlPv(ptr noundef %403) #26
  br label %_ZNSt3__112basic_stringIcNS_11char_traitsIcEENS_9allocatorIcEEED2Ev.exit3422

_ZNSt3__112basic_stringIcNS_11char_traitsIcEENS_9allocatorIcEEED2Ev.exit3422: ; preds = %if.then.i.i3414, %sw.bb990
  call void @llvm.memcpy.p0.p0.i64(ptr noundef nonnull align 8 dereferenceable(24) %loop_name, ptr noundef nonnull align 8 dereferenceable(24) %ref.tmp991, i64 24, i1 false), !tbaa.struct !57
  call void @llvm.lifetime.end.p0(i64 24, ptr nonnull %ref.tmp991) #24
  %404 = load ptr, ptr %loop_weights, align 8, !tbaa !52
  %arrayidx.i3423 = getelementptr inbounds double, ptr %404, i64 3
  %405 = load double, ptr %arrayidx.i3423, align 8, !tbaa !53
  store double %405, ptr %loop_weight145, align 8, !tbaa !78
  %406 = load ptr, ptr %loop_length153, align 8, !tbaa !61
  %407 = load i32, ptr %call.i.i.i.i.i7.i, align 4, !tbaa !69
  store i32 %407, ptr %406, align 4, !tbaa !69
  %408 = load i32, ptr %arrayidx.i1568, align 4, !tbaa !69
  %arrayidx.i3427.1 = getelementptr inbounds i32, ptr %406, i64 1
  store i32 %408, ptr %arrayidx.i3427.1, align 4, !tbaa !69
  %409 = load i32, ptr %arrayidx.i1569, align 4, !tbaa !69
  %arrayidx.i3427.2 = getelementptr inbounds i32, ptr %406, i64 2
  store i32 %409, ptr %arrayidx.i3427.2, align 4, !tbaa !69
  %410 = load ptr, ptr %samples_per_pass161, align 8, !tbaa !61
  store i32 50000, ptr %410, align 4, !tbaa !69
  %arrayidx.i3424 = getelementptr inbounds i32, ptr %410, i64 1
  store i32 330000, ptr %arrayidx.i3424, align 4, !tbaa !69
  %arrayidx.i3425 = getelementptr inbounds i32, ptr %410, i64 2
  store i32 8000000, ptr %arrayidx.i3425, align 4, !tbaa !69
  br label %if.end1026

sw.default:                                       ; preds = %if.then90
  %call1.i3429 = invoke noundef nonnull align 8 dereferenceable(8) ptr @_ZNSt3__124__put_character_sequenceB7v170000IcNS_11char_traitsIcEEEERNS_13basic_ostreamIT_T0_EES7_PKS4_m(ptr noundef nonnull align 8 dereferenceable(8) @_ZNSt3__14coutE, ptr noundef nonnull @.str.36, i64 noundef 20)
          to label %invoke.cont1020 unwind label %lpad1019

invoke.cont1020:                                  ; preds = %sw.default
  %call1023 = invoke noundef nonnull align 8 dereferenceable(8) ptr @_ZNSt3__113basic_ostreamIcNS_11char_traitsIcEEElsEj(ptr noundef nonnull align 8 dereferenceable(8) %call1.i3429, i32 noundef %105)
          to label %invoke.cont1022 unwind label %lpad1019

invoke.cont1022:                                  ; preds = %invoke.cont1020
  %vtable.i = load ptr, ptr %call1023, align 8, !tbaa !84
  %vbase.offset.ptr.i = getelementptr i8, ptr %vtable.i, i64 -24
  %vbase.offset.i = load i64, ptr %vbase.offset.ptr.i, align 8
  %add.ptr.i3484 = getelementptr inbounds i8, ptr %call1023, i64 %vbase.offset.i
  call void @llvm.lifetime.start.p0(i64 8, ptr nonnull %ref.tmp.i.i) #24
  invoke void @_ZNKSt3__18ios_base6getlocEv(ptr nonnull sret(%"class.std::__1::locale") align 8 %ref.tmp.i.i, ptr noundef nonnull align 8 dereferenceable(136) %add.ptr.i3484)
          to label %.noexc3486 unwind label %lpad1019

.noexc3486:                                       ; preds = %invoke.cont1022
  %call.i5.i.i = invoke noundef ptr @_ZNKSt3__16locale9use_facetERNS0_2idE(ptr noundef nonnull align 8 dereferenceable(8) %ref.tmp.i.i, ptr noundef nonnull align 8 dereferenceable(12) @_ZNSt3__15ctypeIcE2idE)
          to label %invoke.cont.i.i unwind label %lpad.i.i3485

invoke.cont.i.i:                                  ; preds = %.noexc3486
  %vtable.i.i.i = load ptr, ptr %call.i5.i.i, align 8, !tbaa !84
  %vfn.i.i.i = getelementptr inbounds ptr, ptr %vtable.i.i.i, i64 7
  %411 = load ptr, ptr %vfn.i.i.i, align 8
  %call.i6.i.i = invoke noundef signext i8 %411(ptr noundef nonnull align 8 dereferenceable(25) %call.i5.i.i, i8 noundef signext 10)
          to label %_ZNKSt3__19basic_iosIcNS_11char_traitsIcEEE5widenB7v170000Ec.exit.i unwind label %lpad.i.i3485

lpad.i.i3485:                                     ; preds = %invoke.cont.i.i, %.noexc3486
  %412 = landingpad { ptr, i32 }
          cleanup
  call void @_ZNSt3__16localeD1Ev(ptr noundef nonnull align 8 dereferenceable(8) %ref.tmp.i.i) #24
  call void @llvm.lifetime.end.p0(i64 8, ptr nonnull %ref.tmp.i.i) #24
  br label %ehcleanup1087

_ZNKSt3__19basic_iosIcNS_11char_traitsIcEEE5widenB7v170000Ec.exit.i: ; preds = %invoke.cont.i.i
  call void @_ZNSt3__16localeD1Ev(ptr noundef nonnull align 8 dereferenceable(8) %ref.tmp.i.i) #24
  call void @llvm.lifetime.end.p0(i64 8, ptr nonnull %ref.tmp.i.i) #24
  %call1.i3489 = invoke noundef nonnull align 8 dereferenceable(8) ptr @_ZNSt3__113basic_ostreamIcNS_11char_traitsIcEEE3putEc(ptr noundef nonnull align 8 dereferenceable(8) %call1023, i8 noundef signext %call.i6.i.i)
          to label %call1.i.noexc unwind label %lpad1019

call1.i.noexc:                                    ; preds = %_ZNKSt3__19basic_iosIcNS_11char_traitsIcEEE5widenB7v170000Ec.exit.i
  %call2.i3490 = invoke noundef nonnull align 8 dereferenceable(8) ptr @_ZNSt3__113basic_ostreamIcNS_11char_traitsIcEEE5flushEv(ptr noundef nonnull align 8 dereferenceable(8) %call1023)
          to label %if.end1026 unwind label %lpad1019

lpad1019:                                         ; preds = %call1.i.noexc, %_ZNKSt3__19basic_iosIcNS_11char_traitsIcEEE5widenB7v170000Ec.exit.i, %invoke.cont1022, %if.else.i3434, %sw.default, %invoke.cont1020
  %413 = landingpad { ptr, i32 }
          cleanup
  br label %ehcleanup1087

if.end1026:                                       ; preds = %call1.i.noexc, %_ZNSt3__112basic_stringIcNS_11char_traitsIcEENS_9allocatorIcEEED2Ev.exit1606, %if.end109, %if.end143, %_ZNSt3__112basic_stringIcNS_11char_traitsIcEENS_9allocatorIcEEED2Ev.exit1796, %_ZN7ADomainD2Ev.exit2137, %_ZNSt3__112basic_stringIcNS_11char_traitsIcEENS_9allocatorIcEEED2Ev.exit2181, %_ZNSt3__112basic_stringIcNS_11char_traitsIcEENS_9allocatorIcEEED2Ev.exit2443, %_ZNSt3__112basic_stringIcNS_11char_traitsIcEENS_9allocatorIcEEED2Ev.exit2484, %_ZNSt3__112basic_stringIcNS_11char_traitsIcEENS_9allocatorIcEEED2Ev.exit2524, %_ZNSt3__112basic_stringIcNS_11char_traitsIcEENS_9allocatorIcEEED2Ev.exit2564, %_ZNSt3__112basic_stringIcNS_11char_traitsIcEENS_9allocatorIcEEED2Ev.exit2605, %_ZNSt3__112basic_stringIcNS_11char_traitsIcEENS_9allocatorIcEEED2Ev.exit2646, %_ZNSt3__112basic_stringIcNS_11char_traitsIcEENS_9allocatorIcEEED2Ev.exit2686, %_ZNSt3__112basic_stringIcNS_11char_traitsIcEENS_9allocatorIcEEED2Ev.exit2727, %_ZNSt3__112basic_stringIcNS_11char_traitsIcEENS_9allocatorIcEEED2Ev.exit2768, %_ZNSt3__112basic_stringIcNS_11char_traitsIcEENS_9allocatorIcEEED2Ev.exit2809, %_ZNSt3__112basic_stringIcNS_11char_traitsIcEENS_9allocatorIcEEED2Ev.exit2850, %_ZNSt3__112basic_stringIcNS_11char_traitsIcEENS_9allocatorIcEEED2Ev.exit2890, %_ZNSt3__112basic_stringIcNS_11char_traitsIcEENS_9allocatorIcEEED2Ev.exit2931, %_ZNSt3__112basic_stringIcNS_11char_traitsIcEENS_9allocatorIcEEED2Ev.exit2972, %_ZNSt3__112basic_stringIcNS_11char_traitsIcEENS_9allocatorIcEEED2Ev.exit3013, %_ZNSt3__112basic_stringIcNS_11char_traitsIcEENS_9allocatorIcEEED2Ev.exit3054, %_ZNSt3__112basic_stringIcNS_11char_traitsIcEENS_9allocatorIcEEED2Ev.exit3094, %_ZNSt3__112basic_stringIcNS_11char_traitsIcEENS_9allocatorIcEEED2Ev.exit3135, %_ZNSt3__112basic_stringIcNS_11char_traitsIcEENS_9allocatorIcEEED2Ev.exit3176, %_ZNSt3__112basic_stringIcNS_11char_traitsIcEENS_9allocatorIcEEED2Ev.exit3217, %_ZNSt3__112basic_stringIcNS_11char_traitsIcEENS_9allocatorIcEEED2Ev.exit3258, %_ZNSt3__112basic_stringIcNS_11char_traitsIcEENS_9allocatorIcEEED2Ev.exit3299, %_ZNSt3__112basic_stringIcNS_11char_traitsIcEENS_9allocatorIcEEED2Ev.exit3340, %_ZNSt3__112basic_stringIcNS_11char_traitsIcEENS_9allocatorIcEEED2Ev.exit3381, %_ZNSt3__112basic_stringIcNS_11char_traitsIcEENS_9allocatorIcEEED2Ev.exit3422, %invoke.cont89
  %max_loop_indx.0 = phi i32 [ 0, %invoke.cont89 ], [ %122, %if.end143 ], [ %391, %_ZNSt3__112basic_stringIcNS_11char_traitsIcEENS_9allocatorIcEEED2Ev.exit3340 ], [ %383, %_ZNSt3__112basic_stringIcNS_11char_traitsIcEENS_9allocatorIcEEED2Ev.exit3299 ], [ %375, %_ZNSt3__112basic_stringIcNS_11char_traitsIcEENS_9allocatorIcEEED2Ev.exit3258 ], [ %367, %_ZNSt3__112basic_stringIcNS_11char_traitsIcEENS_9allocatorIcEEED2Ev.exit3217 ], [ %359, %_ZNSt3__112basic_stringIcNS_11char_traitsIcEENS_9allocatorIcEEED2Ev.exit3176 ], [ %351, %_ZNSt3__112basic_stringIcNS_11char_traitsIcEENS_9allocatorIcEEED2Ev.exit3135 ], [ %343, %_ZNSt3__112basic_stringIcNS_11char_traitsIcEENS_9allocatorIcEEED2Ev.exit3094 ], [ %335, %_ZNSt3__112basic_stringIcNS_11char_traitsIcEENS_9allocatorIcEEED2Ev.exit3054 ], [ %327, %_ZNSt3__112basic_stringIcNS_11char_traitsIcEENS_9allocatorIcEEED2Ev.exit3013 ], [ %319, %_ZNSt3__112basic_stringIcNS_11char_traitsIcEENS_9allocatorIcEEED2Ev.exit2972 ], [ %311, %_ZNSt3__112basic_stringIcNS_11char_traitsIcEENS_9allocatorIcEEED2Ev.exit2931 ], [ %303, %_ZNSt3__112basic_stringIcNS_11char_traitsIcEENS_9allocatorIcEEED2Ev.exit2890 ], [ %295, %_ZNSt3__112basic_stringIcNS_11char_traitsIcEENS_9allocatorIcEEED2Ev.exit2850 ], [ %287, %_ZNSt3__112basic_stringIcNS_11char_traitsIcEENS_9allocatorIcEEED2Ev.exit2809 ], [ %279, %_ZNSt3__112basic_stringIcNS_11char_traitsIcEENS_9allocatorIcEEED2Ev.exit2768 ], [ %271, %_ZNSt3__112basic_stringIcNS_11char_traitsIcEENS_9allocatorIcEEED2Ev.exit2727 ], [ %263, %_ZNSt3__112basic_stringIcNS_11char_traitsIcEENS_9allocatorIcEEED2Ev.exit2686 ], [ %255, %_ZNSt3__112basic_stringIcNS_11char_traitsIcEENS_9allocatorIcEEED2Ev.exit2646 ], [ %247, %_ZNSt3__112basic_stringIcNS_11char_traitsIcEENS_9allocatorIcEEED2Ev.exit2605 ], [ %239, %_ZNSt3__112basic_stringIcNS_11char_traitsIcEENS_9allocatorIcEEED2Ev.exit2564 ], [ %231, %_ZNSt3__112basic_stringIcNS_11char_traitsIcEENS_9allocatorIcEEED2Ev.exit2524 ], [ %223, %_ZNSt3__112basic_stringIcNS_11char_traitsIcEENS_9allocatorIcEEED2Ev.exit2484 ], [ %215, %_ZNSt3__112basic_stringIcNS_11char_traitsIcEENS_9allocatorIcEEED2Ev.exit2443 ], [ %sub107.i2207, %_ZNSt3__112basic_stringIcNS_11char_traitsIcEENS_9allocatorIcEEED2Ev.exit2181 ], [ %sub107.i2004, %_ZN7ADomainD2Ev.exit2137 ], [ %sub89.i, %_ZNSt3__112basic_stringIcNS_11char_traitsIcEENS_9allocatorIcEEED2Ev.exit1796 ], [ %113, %if.end109 ], [ %399, %_ZNSt3__112basic_stringIcNS_11char_traitsIcEENS_9allocatorIcEEED2Ev.exit3381 ], [ %407, %_ZNSt3__112basic_stringIcNS_11char_traitsIcEENS_9allocatorIcEEED2Ev.exit3422 ], [ 0, %_ZNSt3__112basic_stringIcNS_11char_traitsIcEENS_9allocatorIcEEED2Ev.exit1606 ], [ 0, %call1.i.noexc ]
  %414 = load ptr, ptr %__end_.i3432, align 8, !tbaa !54
  %415 = load ptr, ptr %__end_cap_.i.i, align 16, !tbaa !5
  %cmp.not.i = icmp eq ptr %414, %415
  br i1 %cmp.not.i, label %if.else.i3434, label %if.then.i3433

if.then.i3433:                                    ; preds = %if.end1026
  invoke void @_ZNSt3__112basic_stringIcNS_11char_traitsIcEENS_9allocatorIcEEEC1ERKS5_(ptr noundef nonnull align 8 dereferenceable(24) %414, ptr noundef nonnull align 8 dereferenceable(24) %loop_name)
          to label %_ZNSt3__16vectorINS_12basic_stringIcNS_11char_traitsIcEENS_9allocatorIcEEEENS4_IS6_EEE22__construct_one_at_endB7v170000IJRKS6_EEEvDpOT_.exit.i unwind label %lpad.i.i

lpad.i.i:                                         ; preds = %if.then.i3433
  %416 = landingpad { ptr, i32 }
          cleanup
  store ptr %414, ptr %__end_.i3432, align 8, !tbaa !54
  br label %ehcleanup1087

_ZNSt3__16vectorINS_12basic_stringIcNS_11char_traitsIcEENS_9allocatorIcEEEENS4_IS6_EEE22__construct_one_at_endB7v170000IJRKS6_EEEvDpOT_.exit.i: ; preds = %if.then.i3433
  %incdec.ptr.i.i = getelementptr inbounds %"class.std::__1::basic_string", ptr %414, i64 1
  store ptr %incdec.ptr.i.i, ptr %__end_.i3432, align 8, !tbaa !54
  br label %invoke.cont1028

if.else.i3434:                                    ; preds = %if.end1026
  invoke void @_ZNSt3__16vectorINS_12basic_stringIcNS_11char_traitsIcEENS_9allocatorIcEEEENS4_IS6_EEE21__push_back_slow_pathIRKS6_EEvOT_(ptr noundef nonnull align 8 dereferenceable(24) %loop_names, ptr noundef nonnull align 8 dereferenceable(24) %loop_name)
          to label %invoke.cont1028 unwind label %lpad1019

invoke.cont1028:                                  ; preds = %if.else.i3434, %_ZNSt3__16vectorINS_12basic_stringIcNS_11char_traitsIcEENS_9allocatorIcEEEENS4_IS6_EEE22__construct_one_at_endB7v170000IJRKS6_EEEvDpOT_.exit.i
  %.sroa.speculated = call i32 @llvm.smax.i32(i32 %max_loop_length.03642, i32 %max_loop_indx.0)
  %417 = load i32, ptr %num_loop_lengths, align 8, !tbaa !74
  %cmp10333632.not = icmp eq i32 %417, 0
  br i1 %cmp10333632.not, label %for.cond1071.preheader, label %for.body1035.lr.ph

for.body1035.lr.ph:                               ; preds = %invoke.cont1028
  %418 = load ptr, ptr %samples_per_pass161, align 8, !tbaa !61
  %419 = load double, ptr %loop_samp_frac, align 8, !tbaa !9
  %420 = load ptr, ptr %run_loop_length, align 16, !tbaa !86
  %421 = load ptr, ptr %loop_run_count, align 8
  br label %for.body1035

for.cond1071.preheader:                           ; preds = %for.body1035, %invoke.cont1028
  %422 = load ptr, ptr %__end_.i, align 8, !tbaa !54
  %423 = load ptr, ptr %run_variant_names, align 8, !tbaa !55
  %cmp10743638.not = icmp eq ptr %422, %423
  br i1 %cmp10743638.not, label %for.cond.cleanup1075, label %for.body1076

for.body1035:                                     ; preds = %for.body1035.lr.ph, %for.body1035
  %indvars.iv = phi i64 [ 0, %for.body1035.lr.ph ], [ %indvars.iv.next, %for.body1035 ]
  %arrayidx.i3438 = getelementptr inbounds i32, ptr %418, i64 %indvars.iv
  %424 = load i32, ptr %arrayidx.i3438, align 4, !tbaa !69
  %conv1039 = sitofp i32 %424 to double
  %mul1041 = fmul double %419, %conv1039
  %div = fdiv double %mul1041, %loop_length_factor
  %conv1042 = fptosi double %div to i32
  store i32 %conv1042, ptr %arrayidx.i3438, align 4, !tbaa !69
  %div3.i.i = lshr i64 %indvars.iv, 6
  %add.ptr.i.i3440 = getelementptr inbounds i64, ptr %420, i64 %div3.i.i
  %rem.i.i = and i64 %indvars.iv, 63
  %shl.i.i = shl nuw i64 1, %rem.i.i
  %425 = load i64, ptr %add.ptr.i.i3440, align 8, !tbaa !58
  %and.i = and i64 %425, %shl.i.i
  %tobool.i.not = icmp eq i64 %and.i, 0
  %426 = load i32, ptr %num_suite_passes, align 16
  %mul1057 = mul i32 %426, %conv1042
  %conv1058 = zext i32 %mul1057 to i64
  %conv1058.sink = select i1 %tobool.i.not, i64 0, i64 %conv1058
  %427 = getelementptr inbounds i64, ptr %421, i64 %indvars.iv
  store i64 %conv1058.sink, ptr %427, align 8
  %indvars.iv.next = add nuw nsw i64 %indvars.iv, 1
  %428 = load i32, ptr %num_loop_lengths, align 8, !tbaa !74
  %429 = zext i32 %428 to i64
  %cmp1033 = icmp ult i64 %indvars.iv.next, %429
  br i1 %cmp1033, label %for.body1035, label %for.cond1071.preheader, !llvm.loop !87

for.cond.cleanup1075:                             ; preds = %for.inc1083, %for.cond1071.preheader
  call void @_ZN8LoopStatD2Ev(ptr noundef nonnull align 8 dereferenceable(280) %loop_stat) #24
  call void @llvm.lifetime.end.p0(i64 280, ptr nonnull %loop_stat) #24
  %bf.load.i.i3449 = load i8, ptr %loop_name, align 8
  %bf.clear.i.i3450 = and i8 %bf.load.i.i3449, 1
  %tobool.i.not.i3451 = icmp eq i8 %bf.clear.i.i3450, 0
  br i1 %tobool.i.not.i3451, label %_ZNSt3__112basic_stringIcNS_11char_traitsIcEENS_9allocatorIcEEED2Ev.exit3454, label %if.then.i3453

if.then.i3453:                                    ; preds = %for.cond.cleanup1075
  %430 = load ptr, ptr %__data_.i.i.i1746, align 8, !tbaa !56
  call void @_ZdlPv(ptr noundef %430) #26
  br label %_ZNSt3__112basic_stringIcNS_11char_traitsIcEENS_9allocatorIcEEED2Ev.exit3454

_ZNSt3__112basic_stringIcNS_11char_traitsIcEENS_9allocatorIcEEED2Ev.exit3454: ; preds = %for.cond.cleanup1075, %if.then.i3453
  call void @llvm.lifetime.end.p0(i64 24, ptr nonnull %loop_name) #24
  %indvars.iv.next3731 = add nuw nsw i64 %indvars.iv3730, 1
  %431 = load i32, ptr %num_loops, align 8, !tbaa !73
  %432 = zext i32 %431 to i64
  %cmp85 = icmp ult i64 %indvars.iv.next3731, %432
  br i1 %cmp85, label %for.body87, label %for.cond.cleanup86, !llvm.loop !88

for.body1076:                                     ; preds = %for.cond1071.preheader, %for.inc1083
  %433 = phi ptr [ %474, %for.inc1083 ], [ %423, %for.cond1071.preheader ]
  %conv10723640 = phi i64 [ %conv1072, %for.inc1083 ], [ 0, %for.cond1071.preheader ]
  %434 = load ptr, ptr %__pair1_.i.i.i, align 8, !tbaa !89
  %cmp.not7.i.i = icmp eq ptr %434, null
  br i1 %cmp.not7.i.i, label %if.end.i, label %while.body.lr.ph.i.i

while.body.lr.ph.i.i:                             ; preds = %for.body1076
  %arrayidx.i3455 = getelementptr inbounds %"class.std::__1::basic_string", ptr %433, i64 %conv10723640
  %bf.load.i.i.i.i.i.i.i.i.i.i = load i8, ptr %arrayidx.i3455, align 8
  %bf.clear.i.i.i.i.i.i.i.i.i.i = and i8 %bf.load.i.i.i.i.i.i.i.i.i.i, 1
  %tobool.i.not.i.i.i.i.i.i.i.i.i = icmp eq i8 %bf.clear.i.i.i.i.i.i.i.i.i.i, 0
  %__size_.i.i.i.i.i.i.i.i.i = getelementptr inbounds %"struct.std::__1::basic_string<char>::__long", ptr %arrayidx.i3455, i64 0, i32 1
  %435 = load i64, ptr %__size_.i.i.i.i.i.i.i.i.i, align 8
  %bf.lshr.i.i.i.i.i.i.i.i.i = lshr i8 %bf.load.i.i.i.i.i.i.i.i.i.i, 1
  %conv.i.i.i.i.i.i.i.i.i = zext i8 %bf.lshr.i.i.i.i.i.i.i.i.i to i64
  %cond.i.i.i.i.i.i.i.i = select i1 %tobool.i.not.i.i.i.i.i.i.i.i.i, i64 %conv.i.i.i.i.i.i.i.i.i, i64 %435
  %__data_.i4.i.i.i.i.i.i.i.i.i = getelementptr inbounds %"struct.std::__1::basic_string<char>::__short", ptr %arrayidx.i3455, i64 0, i32 2
  %__data_.i.i.i.i.i.i.i.i.i.i = getelementptr inbounds %"struct.std::__1::basic_string<char>::__long", ptr %arrayidx.i3455, i64 0, i32 2
  %436 = load ptr, ptr %__data_.i.i.i.i.i.i.i.i.i.i, align 8
  %cond.i.i.i.i.i.i.i.i.i = select i1 %tobool.i.not.i.i.i.i.i.i.i.i.i, ptr %__data_.i4.i.i.i.i.i.i.i.i.i, ptr %436
  br label %while.body.i.i

while.body.i.i:                                   ; preds = %_ZNKSt3__119__map_value_compareINS_12basic_stringIcNS_11char_traitsIcEENS_9allocatorIcEEEENS_12__value_typeIS6_PNS_6vectorI8LoopStatNS4_IS9_EEEEEENS_4lessIS6_EELb1EEclB7v170000ERKSD_RKS6_.exit.i.i, %while.body.lr.ph.i.i
  %__result.addr.010.i.i = phi ptr [ %__pair1_.i.i.i, %while.body.lr.ph.i.i ], [ %__result.addr.1.i.i, %_ZNKSt3__119__map_value_compareINS_12basic_stringIcNS_11char_traitsIcEENS_9allocatorIcEEEENS_12__value_typeIS6_PNS_6vectorI8LoopStatNS4_IS9_EEEEEENS_4lessIS6_EELb1EEclB7v170000ERKSD_RKS6_.exit.i.i ]
  %__root.addr.08.i.i = phi ptr [ %434, %while.body.lr.ph.i.i ], [ %__root.addr.1.i.i, %_ZNKSt3__119__map_value_compareINS_12basic_stringIcNS_11char_traitsIcEENS_9allocatorIcEEEENS_12__value_typeIS6_PNS_6vectorI8LoopStatNS4_IS9_EEEEEENS_4lessIS6_EELb1EEclB7v170000ERKSD_RKS6_.exit.i.i ]
  %__value_.i.i = getelementptr inbounds %"class.std::__1::__tree_node", ptr %__root.addr.08.i.i, i64 0, i32 1
  %bf.load.i.i.i.i.i.i.i.i.i = load i8, ptr %__value_.i.i, align 8
  %bf.clear.i.i.i.i.i.i.i.i.i = and i8 %bf.load.i.i.i.i.i.i.i.i.i, 1
  %tobool.i.not.i.i.i.i.i.i.i.i = icmp eq i8 %bf.clear.i.i.i.i.i.i.i.i.i, 0
  %__size_.i.i.i3.i.i.i.i.i.i = getelementptr inbounds %"class.std::__1::__tree_node", ptr %__root.addr.08.i.i, i64 0, i32 1, i32 0, i32 0, i32 0, i32 0, i32 0, i32 0, i32 0, i32 1
  %437 = load i64, ptr %__size_.i.i.i3.i.i.i.i.i.i, align 8
  %bf.lshr.i.i.i4.i.i.i.i.i.i = lshr i8 %bf.load.i.i.i.i.i.i.i.i.i, 1
  %conv.i.i.i5.i.i.i.i.i.i = zext i8 %bf.lshr.i.i.i4.i.i.i.i.i.i to i64
  %cond.i.i6.i.i.i.i.i.i = select i1 %tobool.i.not.i.i.i.i.i.i.i.i, i64 %conv.i.i.i5.i.i.i.i.i.i, i64 %437
  %cmp.i.i.i.i.i.i.i.i.i.i = icmp ult i64 %cond.i.i.i.i.i.i.i.i, %cond.i.i6.i.i.i.i.i.i
  %.sroa.speculated.i.i.i.i.i.i.i = call i64 @llvm.umin.i64(i64 %cond.i.i.i.i.i.i.i.i, i64 %cond.i.i6.i.i.i.i.i.i)
  %cmp.i.i.i.i.i.i.i.i = icmp eq i64 %.sroa.speculated.i.i.i.i.i.i.i, 0
  br i1 %cmp.i.i.i.i.i.i.i.i, label %if.end.i.i.i.i.i.i.i, label %_ZNSt3__111char_traitsIcE7compareEPKcS3_m.exit.i.i.i.i.i.i.i

_ZNSt3__111char_traitsIcE7compareEPKcS3_m.exit.i.i.i.i.i.i.i: ; preds = %while.body.i.i
  %__data_.i4.i.i.i7.i.i.i.i.i.i = getelementptr inbounds i8, ptr %__root.addr.08.i.i, i64 33
  %__data_.i.i.i.i8.i.i.i.i.i.i = getelementptr inbounds %"class.std::__1::__tree_node", ptr %__root.addr.08.i.i, i64 0, i32 1, i32 0, i32 0, i32 0, i32 0, i32 0, i32 0, i32 0, i32 2
  %438 = load ptr, ptr %__data_.i.i.i.i8.i.i.i.i.i.i, align 8
  %cond.i.i.i9.i.i.i.i.i.i = select i1 %tobool.i.not.i.i.i.i.i.i.i.i, ptr %__data_.i4.i.i.i7.i.i.i.i.i.i, ptr %438
  %call.i.i.i.i.i.i.i.i.i = call i32 @memcmp(ptr noundef %cond.i.i.i9.i.i.i.i.i.i, ptr noundef %cond.i.i.i.i.i.i.i.i.i, i64 noundef %.sroa.speculated.i.i.i.i.i.i.i) #24
  %cmp.not.i.i.i.i.i.i.i3491 = icmp eq i32 %call.i.i.i.i.i.i.i.i.i, 0
  br i1 %cmp.not.i.i.i.i.i.i.i3491, label %if.end.i.i.i.i.i.i.i, label %_ZNKSt3__119__map_value_compareINS_12basic_stringIcNS_11char_traitsIcEENS_9allocatorIcEEEENS_12__value_typeIS6_PNS_6vectorI8LoopStatNS4_IS9_EEEEEENS_4lessIS6_EELb1EEclB7v170000ERKSD_RKS6_.exit.i.i

if.end.i.i.i.i.i.i.i:                             ; preds = %_ZNSt3__111char_traitsIcE7compareEPKcS3_m.exit.i.i.i.i.i.i.i, %while.body.i.i
  %cmp7.i.i.i.i.i.i.i = icmp ult i64 %cond.i.i6.i.i.i.i.i.i, %cond.i.i.i.i.i.i.i.i
  %..i.i.i.i.i.i.i = zext i1 %cmp.i.i.i.i.i.i.i.i.i.i to i32
  %spec.select.i.i.i.i.i.i.i = select i1 %cmp7.i.i.i.i.i.i.i, i32 -1, i32 %..i.i.i.i.i.i.i
  br label %_ZNKSt3__119__map_value_compareINS_12basic_stringIcNS_11char_traitsIcEENS_9allocatorIcEEEENS_12__value_typeIS6_PNS_6vectorI8LoopStatNS4_IS9_EEEEEENS_4lessIS6_EELb1EEclB7v170000ERKSD_RKS6_.exit.i.i

_ZNKSt3__119__map_value_compareINS_12basic_stringIcNS_11char_traitsIcEENS_9allocatorIcEEEENS_12__value_typeIS6_PNS_6vectorI8LoopStatNS4_IS9_EEEEEENS_4lessIS6_EELb1EEclB7v170000ERKSD_RKS6_.exit.i.i: ; preds = %if.end.i.i.i.i.i.i.i, %_ZNSt3__111char_traitsIcE7compareEPKcS3_m.exit.i.i.i.i.i.i.i
  %retval.0.i.i.i.i.i.i.i = phi i32 [ %call.i.i.i.i.i.i.i.i.i, %_ZNSt3__111char_traitsIcE7compareEPKcS3_m.exit.i.i.i.i.i.i.i ], [ %spec.select.i.i.i.i.i.i.i, %if.end.i.i.i.i.i.i.i ]
  %cmp.i.i.i.i.i = icmp slt i32 %retval.0.i.i.i.i.i.i.i, 0
  %__right_.i.i = getelementptr inbounds %"class.std::__1::__tree_node_base", ptr %__root.addr.08.i.i, i64 0, i32 1
  %__root.addr.1.in.i.i = select i1 %cmp.i.i.i.i.i, ptr %__right_.i.i, ptr %__root.addr.08.i.i
  %__result.addr.1.i.i = select i1 %cmp.i.i.i.i.i, ptr %__result.addr.010.i.i, ptr %__root.addr.08.i.i
  %__root.addr.1.i.i = load ptr, ptr %__root.addr.1.in.i.i, align 8, !tbaa !5
  %cmp.not.i.i3492 = icmp eq ptr %__root.addr.1.i.i, null
  br i1 %cmp.not.i.i3492, label %_ZNSt3__16__treeINS_12__value_typeINS_12basic_stringIcNS_11char_traitsIcEENS_9allocatorIcEEEEPNS_6vectorI8LoopStatNS5_IS9_EEEEEENS_19__map_value_compareIS7_SD_NS_4lessIS7_EELb1EEENS5_ISD_EEE13__lower_boundIS7_EENS_15__tree_iteratorISD_PNS_11__tree_nodeISD_PvEElEERKT_SP_PNS_15__tree_end_nodeIPNS_16__tree_node_baseISN_EEEE.exit.i, label %while.body.i.i, !llvm.loop !90

_ZNSt3__16__treeINS_12__value_typeINS_12basic_stringIcNS_11char_traitsIcEENS_9allocatorIcEEEEPNS_6vectorI8LoopStatNS5_IS9_EEEEEENS_19__map_value_compareIS7_SD_NS_4lessIS7_EELb1EEENS5_ISD_EEE13__lower_boundIS7_EENS_15__tree_iteratorISD_PNS_11__tree_nodeISD_PvEElEERKT_SP_PNS_15__tree_end_nodeIPNS_16__tree_node_baseISN_EEEE.exit.i: ; preds = %_ZNKSt3__119__map_value_compareINS_12basic_stringIcNS_11char_traitsIcEENS_9allocatorIcEEEENS_12__value_typeIS6_PNS_6vectorI8LoopStatNS4_IS9_EEEEEENS_4lessIS6_EELb1EEclB7v170000ERKSD_RKS6_.exit.i.i
  %cmp.i.i.not.i = icmp eq ptr %__result.addr.1.i.i, %__pair1_.i.i.i
  br i1 %cmp.i.i.not.i, label %if.end.i, label %land.rhs.i

land.rhs.i:                                       ; preds = %_ZNSt3__16__treeINS_12__value_typeINS_12basic_stringIcNS_11char_traitsIcEENS_9allocatorIcEEEEPNS_6vectorI8LoopStatNS5_IS9_EEEEEENS_19__map_value_compareIS7_SD_NS_4lessIS7_EELb1EEENS5_ISD_EEE13__lower_boundIS7_EENS_15__tree_iteratorISD_PNS_11__tree_nodeISD_PvEElEERKT_SP_PNS_15__tree_end_nodeIPNS_16__tree_node_baseISN_EEEE.exit.i
  %__value_.i15.i = getelementptr inbounds %"class.std::__1::__tree_node", ptr %__result.addr.1.i.i, i64 0, i32 1
  %bf.load.i.i.i.i.i.i.i.i16.i = load i8, ptr %__value_.i15.i, align 8
  %bf.clear.i.i.i.i.i.i.i.i17.i = and i8 %bf.load.i.i.i.i.i.i.i.i16.i, 1
  %tobool.i.not.i.i.i.i.i.i.i18.i = icmp eq i8 %bf.clear.i.i.i.i.i.i.i.i17.i, 0
  %__size_.i.i.i.i.i.i.i.i = getelementptr inbounds %"class.std::__1::__tree_node", ptr %__result.addr.1.i.i, i64 0, i32 1, i32 0, i32 0, i32 0, i32 0, i32 0, i32 0, i32 0, i32 1
  %439 = load i64, ptr %__size_.i.i.i.i.i.i.i.i, align 8
  %bf.lshr.i.i.i.i.i.i.i.i = lshr i8 %bf.load.i.i.i.i.i.i.i.i16.i, 1
  %conv.i.i.i.i.i.i.i.i = zext i8 %bf.lshr.i.i.i.i.i.i.i.i to i64
  %cond.i.i.i.i.i.i.i = select i1 %tobool.i.not.i.i.i.i.i.i.i18.i, i64 %conv.i.i.i.i.i.i.i.i, i64 %439
  %.sroa.speculated.i.i.i.i.i.i = call i64 @llvm.umin.i64(i64 %cond.i.i.i.i.i.i.i, i64 %cond.i.i.i.i.i.i.i.i)
  %cmp.i.i.i.i.i.i.i = icmp eq i64 %.sroa.speculated.i.i.i.i.i.i, 0
  br i1 %cmp.i.i.i.i.i.i.i, label %if.end.i.i.i.i.i.i, label %_ZNSt3__111char_traitsIcE7compareEPKcS3_m.exit.i.i.i.i.i.i

_ZNSt3__111char_traitsIcE7compareEPKcS3_m.exit.i.i.i.i.i.i: ; preds = %land.rhs.i
  %__data_.i4.i.i.i.i.i.i.i.i = getelementptr inbounds i8, ptr %__result.addr.1.i.i, i64 33
  %__data_.i.i.i.i.i.i.i.i.i = getelementptr inbounds %"class.std::__1::__tree_node", ptr %__result.addr.1.i.i, i64 0, i32 1, i32 0, i32 0, i32 0, i32 0, i32 0, i32 0, i32 0, i32 2
  %440 = load ptr, ptr %__data_.i.i.i.i.i.i.i.i.i, align 8
  %cond.i.i.i.i.i.i.i19.i = select i1 %tobool.i.not.i.i.i.i.i.i.i18.i, ptr %__data_.i4.i.i.i.i.i.i.i.i, ptr %440
  %call.i.i.i.i.i.i.i.i = call i32 @memcmp(ptr noundef %cond.i.i.i.i.i.i.i.i.i, ptr noundef %cond.i.i.i.i.i.i.i19.i, i64 noundef %.sroa.speculated.i.i.i.i.i.i) #24
  %cmp.not.i.i.i.i.i.i = icmp eq i32 %call.i.i.i.i.i.i.i.i, 0
  br i1 %cmp.not.i.i.i.i.i.i, label %if.end.i.i.i.i.i.i, label %_ZNKSt3__119__map_value_compareINS_12basic_stringIcNS_11char_traitsIcEENS_9allocatorIcEEEENS_12__value_typeIS6_PNS_6vectorI8LoopStatNS4_IS9_EEEEEENS_4lessIS6_EELb1EEclB7v170000ERKS6_RKSD_.exit.i

if.end.i.i.i.i.i.i:                               ; preds = %_ZNSt3__111char_traitsIcE7compareEPKcS3_m.exit.i.i.i.i.i.i, %land.rhs.i
  %cmp7.i.i.i.i.i.i = icmp ult i64 %cond.i.i.i.i.i.i.i.i, %cond.i.i.i.i.i.i.i
  br i1 %cmp7.i.i.i.i.i.i, label %if.end.i, label %invoke.cont1080

_ZNKSt3__119__map_value_compareINS_12basic_stringIcNS_11char_traitsIcEENS_9allocatorIcEEEENS_12__value_typeIS6_PNS_6vectorI8LoopStatNS4_IS9_EEEEEENS_4lessIS6_EELb1EEclB7v170000ERKS6_RKSD_.exit.i: ; preds = %_ZNSt3__111char_traitsIcE7compareEPKcS3_m.exit.i.i.i.i.i.i
  %cmp.i.i.i.i = icmp slt i32 %call.i.i.i.i.i.i.i.i, 0
  br i1 %cmp.i.i.i.i, label %if.end.i, label %invoke.cont1080

if.end.i:                                         ; preds = %_ZNKSt3__119__map_value_compareINS_12basic_stringIcNS_11char_traitsIcEENS_9allocatorIcEEEENS_12__value_typeIS6_PNS_6vectorI8LoopStatNS4_IS9_EEEEEENS_4lessIS6_EELb1EEclB7v170000ERKS6_RKSD_.exit.i, %if.end.i.i.i.i.i.i, %_ZNSt3__16__treeINS_12__value_typeINS_12basic_stringIcNS_11char_traitsIcEENS_9allocatorIcEEEEPNS_6vectorI8LoopStatNS5_IS9_EEEEEENS_19__map_value_compareIS7_SD_NS_4lessIS7_EELb1EEENS5_ISD_EEE13__lower_boundIS7_EENS_15__tree_iteratorISD_PNS_11__tree_nodeISD_PvEElEERKT_SP_PNS_15__tree_end_nodeIPNS_16__tree_node_baseISN_EEEE.exit.i, %for.body1076
  br label %invoke.cont1080

invoke.cont1080:                                  ; preds = %if.end.i.i.i.i.i.i, %_ZNKSt3__119__map_value_compareINS_12basic_stringIcNS_11char_traitsIcEENS_9allocatorIcEEEENS_12__value_typeIS6_PNS_6vectorI8LoopStatNS4_IS9_EEEEEENS_4lessIS6_EELb1EEclB7v170000ERKS6_RKSD_.exit.i, %if.end.i
  %retval.sroa.0.0.i = phi ptr [ %__pair1_.i.i.i, %if.end.i ], [ %__result.addr.1.i.i, %_ZNKSt3__119__map_value_compareINS_12basic_stringIcNS_11char_traitsIcEENS_9allocatorIcEEEENS_12__value_typeIS6_PNS_6vectorI8LoopStatNS4_IS9_EEEEEENS_4lessIS6_EELb1EEclB7v170000ERKS6_RKSD_.exit.i ], [ %__result.addr.1.i.i, %if.end.i.i.i.i.i.i ]
  %second.i = getelementptr inbounds %"class.std::__1::__tree_node", ptr %retval.sroa.0.0.i, i64 0, i32 1, i32 0, i32 1
  %441 = load ptr, ptr %second.i, align 8, !tbaa !67
  %__end_.i3458 = getelementptr inbounds %"class.std::__1::vector.68", ptr %441, i64 0, i32 1
  %442 = load ptr, ptr %__end_.i3458, align 8, !tbaa !91
  %__end_cap_.i.i3459 = getelementptr inbounds %"class.std::__1::vector.68", ptr %441, i64 0, i32 2
  %443 = load ptr, ptr %__end_cap_.i.i3459, align 8, !tbaa !5
  %cmp.not.i3460 = icmp eq ptr %442, %443
  br i1 %cmp.not.i3460, label %if.else.i3464, label %if.then.i3461

if.then.i3461:                                    ; preds = %invoke.cont1080
  invoke void @_ZN8LoopStatC2ERKS_(ptr noundef nonnull align 8 dereferenceable(280) %442, ptr noundef nonnull align 8 dereferenceable(280) %loop_stat)
          to label %_ZNSt3__16vectorI8LoopStatNS_9allocatorIS1_EEE22__construct_one_at_endB7v170000IJRKS1_EEEvDpOT_.exit.i unwind label %lpad.i.i3462

lpad.i.i3462:                                     ; preds = %if.then.i3461
  %444 = landingpad { ptr, i32 }
          cleanup
  store ptr %442, ptr %__end_.i3458, align 8, !tbaa !91
  br label %ehcleanup1087

_ZNSt3__16vectorI8LoopStatNS_9allocatorIS1_EEE22__construct_one_at_endB7v170000IJRKS1_EEEvDpOT_.exit.i: ; preds = %if.then.i3461
  %incdec.ptr.i.i3463 = getelementptr inbounds %class.LoopStat, ptr %442, i64 1
  store ptr %incdec.ptr.i.i3463, ptr %__end_.i3458, align 8, !tbaa !91
  br label %for.inc1083

if.else.i3464:                                    ; preds = %invoke.cont1080
  call void @llvm.lifetime.start.p0(i64 40, ptr nonnull %__v.i) #24
  %445 = load ptr, ptr %441, align 8, !tbaa !95
  %sub.ptr.lhs.cast.i.i3495 = ptrtoint ptr %442 to i64
  %sub.ptr.rhs.cast.i.i3496 = ptrtoint ptr %445 to i64
  %sub.ptr.sub.i.i3497 = sub i64 %sub.ptr.lhs.cast.i.i3495, %sub.ptr.rhs.cast.i.i3496
  %sub.ptr.div.i.i3498 = sdiv exact i64 %sub.ptr.sub.i.i3497, 280
  %add.i3499 = add nsw i64 %sub.ptr.div.i.i3498, 1
  %cmp.i.i3500 = icmp ugt i64 %add.i3499, 65881228834676970
  br i1 %cmp.i.i3500, label %if.then.i.i3501, label %_ZNKSt3__16vectorI8LoopStatNS_9allocatorIS1_EEE11__recommendB7v170000Em.exit.i

if.then.i.i3501:                                  ; preds = %if.else.i3464
  invoke void @_ZNKSt3__16vectorI8LoopStatNS_9allocatorIS1_EEE20__throw_length_errorB7v170000Ev(ptr noundef nonnull align 8 dereferenceable(24) %441) #27
          to label %.noexc3508 unwind label %lpad1079.loopexit.split-lp

.noexc3508:                                       ; preds = %if.then.i.i3501
  unreachable

_ZNKSt3__16vectorI8LoopStatNS_9allocatorIS1_EEE11__recommendB7v170000Em.exit.i: ; preds = %if.else.i3464
  %cmp3.not.i.i = icmp ult i64 %sub.ptr.div.i.i3498, 32940614417338485
  %mul.i.i = shl nuw nsw i64 %sub.ptr.div.i.i3498, 1
  %.sroa.speculated.i.i = call i64 @llvm.umax.i64(i64 %mul.i.i, i64 %add.i3499)
  %retval.0.i.i = select i1 %cmp3.not.i.i, i64 %.sroa.speculated.i.i, i64 65881228834676970
  store ptr %__end_cap_.i.i3459, ptr %102, align 8, !tbaa !5
  %cmp.i16.i = icmp eq i64 %retval.0.i.i, 0
  br i1 %cmp.i16.i, label %_ZNSt3__114__split_bufferI8LoopStatRNS_9allocatorIS1_EEEC2EmmS4_.exit.i, label %if.else.i.i3503

if.else.i.i3503:                                  ; preds = %_ZNKSt3__16vectorI8LoopStatNS_9allocatorIS1_EEE11__recommendB7v170000Em.exit.i
  %cmp.i.i.i.i3502 = icmp ugt i64 %retval.0.i.i, 65881228834676970
  br i1 %cmp.i.i.i.i3502, label %if.then.i.i.i.i, label %_ZNSt3__119__allocate_at_leastB7v170000INS_9allocatorI8LoopStatEEEENS_19__allocation_resultINS_16allocator_traitsIT_E7pointerEEERS6_m.exit.i.i

if.then.i.i.i.i:                                  ; preds = %if.else.i.i3503
  invoke void @_ZSt28__throw_bad_array_new_lengthB7v170000v() #27
          to label %.noexc3509 unwind label %lpad1079.loopexit.split-lp

.noexc3509:                                       ; preds = %if.then.i.i.i.i
  unreachable

_ZNSt3__119__allocate_at_leastB7v170000INS_9allocatorI8LoopStatEEEENS_19__allocation_resultINS_16allocator_traitsIT_E7pointerEEERS6_m.exit.i.i: ; preds = %if.else.i.i3503
  %mul.i.i.i.i = mul nuw i64 %retval.0.i.i, 280
  %call.i.i.i.i.i.i3511 = invoke noalias noundef nonnull ptr @_Znwm(i64 noundef %mul.i.i.i.i) #25
          to label %_ZNSt3__114__split_bufferI8LoopStatRNS_9allocatorIS1_EEEC2EmmS4_.exit.i unwind label %lpad1079.loopexit

_ZNSt3__114__split_bufferI8LoopStatRNS_9allocatorIS1_EEEC2EmmS4_.exit.i: ; preds = %_ZNSt3__119__allocate_at_leastB7v170000INS_9allocatorI8LoopStatEEEENS_19__allocation_resultINS_16allocator_traitsIT_E7pointerEEERS6_m.exit.i.i, %_ZNKSt3__16vectorI8LoopStatNS_9allocatorIS1_EEE11__recommendB7v170000Em.exit.i
  %storemerge.i.i = phi ptr [ null, %_ZNKSt3__16vectorI8LoopStatNS_9allocatorIS1_EEE11__recommendB7v170000Em.exit.i ], [ %call.i.i.i.i.i.i3511, %_ZNSt3__119__allocate_at_leastB7v170000INS_9allocatorI8LoopStatEEEENS_19__allocation_resultINS_16allocator_traitsIT_E7pointerEEERS6_m.exit.i.i ]
  store ptr %storemerge.i.i, ptr %__v.i, align 8, !tbaa !96
  %add.ptr.i.i3504 = getelementptr inbounds %class.LoopStat, ptr %storemerge.i.i, i64 %sub.ptr.div.i.i3498
  store ptr %add.ptr.i.i3504, ptr %__end_.i17.i, align 8, !tbaa !100
  store ptr %add.ptr.i.i3504, ptr %__begin_.i.i, align 8, !tbaa !101
  %add.ptr6.i.i = getelementptr inbounds %class.LoopStat, ptr %storemerge.i.i, i64 %retval.0.i.i
  store ptr %add.ptr6.i.i, ptr %__end_cap_.i15.i, align 8, !tbaa !5
  invoke void @_ZN8LoopStatC2ERKS_(ptr noundef nonnull align 8 dereferenceable(280) %add.ptr.i.i3504, ptr noundef nonnull align 8 dereferenceable(280) %loop_stat)
          to label %invoke.cont.i3505 unwind label %lpad.i3507

invoke.cont.i3505:                                ; preds = %_ZNSt3__114__split_bufferI8LoopStatRNS_9allocatorIS1_EEEC2EmmS4_.exit.i
  %incdec.ptr.i = getelementptr inbounds %class.LoopStat, ptr %add.ptr.i.i3504, i64 1
  %446 = load ptr, ptr %__end_.i3458, align 8, !tbaa !91
  %447 = load ptr, ptr %441, align 8, !tbaa !95
  %cmp.i.not37.i.i.i = icmp eq ptr %446, %447
  br i1 %cmp.i.not37.i.i.i, label %invoke.cont7.i.thread, label %invoke.cont4.i.i.i

invoke.cont7.i.thread:                            ; preds = %invoke.cont.i3505
  store ptr %add.ptr.i.i3504, ptr %441, align 8, !tbaa !5
  store ptr %incdec.ptr.i, ptr %__end_.i3458, align 8, !tbaa !5
  store ptr %add.ptr6.i.i, ptr %__end_cap_.i.i3459, align 8, !tbaa !5
  br label %_ZNSt3__114__split_bufferI8LoopStatRNS_9allocatorIS1_EEE5clearB7v170000Ev.exit.i.i

invoke.cont4.i.i.i:                               ; preds = %invoke.cont.i3505, %invoke.cont4.i.i.i
  %incdec.ptr.i.i.i.i39.i.i.i = phi ptr [ %incdec.ptr.i.i.i.i.i.i.i, %invoke.cont4.i.i.i ], [ %add.ptr.i.i3504, %invoke.cont.i3505 ]
  %__first1.sroa.1.038.i.i.i = phi ptr [ %incdec.ptr.i.i.i.i3506, %invoke.cont4.i.i.i ], [ %446, %invoke.cont.i3505 ]
  %incdec.ptr.i.i.i.i.i.i.i = getelementptr inbounds %class.LoopStat, ptr %incdec.ptr.i.i.i.i39.i.i.i, i64 -1
  %incdec.ptr.i.i.i.i3506 = getelementptr inbounds %class.LoopStat, ptr %__first1.sroa.1.038.i.i.i, i64 -1
  call void @llvm.memcpy.p0.p0.i64(ptr noundef nonnull align 8 dereferenceable(16) %incdec.ptr.i.i.i.i.i.i.i, ptr noundef nonnull align 8 dereferenceable(16) %incdec.ptr.i.i.i.i3506, i64 16, i1 false)
  %loop_run_time.i.i = getelementptr %class.LoopStat, ptr %incdec.ptr.i.i.i.i39.i.i.i, i64 -1, i32 2
  %loop_run_time3.i.i = getelementptr %class.LoopStat, ptr %__first1.sroa.1.038.i.i.i, i64 -1, i32 2
  %__end_cap_.i.i.i = getelementptr %class.LoopStat, ptr %incdec.ptr.i.i.i.i39.i.i.i, i64 -1, i32 2, i32 2
  call void @llvm.memset.p0.i64(ptr noundef nonnull align 8 dereferenceable(24) %loop_run_time.i.i, i8 0, i64 24, i1 false)
  %448 = load <2 x ptr>, ptr %loop_run_time3.i.i, align 8, !tbaa !5
  store <2 x ptr> %448, ptr %loop_run_time.i.i, align 8, !tbaa !5
  %__end_cap_.i19.i.i.i = getelementptr %class.LoopStat, ptr %__first1.sroa.1.038.i.i.i, i64 -1, i32 2, i32 2
  %449 = load ptr, ptr %__end_cap_.i19.i.i.i, align 8, !tbaa !5
  store ptr %449, ptr %__end_cap_.i.i.i, align 8, !tbaa !5
  call void @llvm.memset.p0.i64(ptr noundef nonnull align 8 dereferenceable(24) %loop_run_time3.i.i, i8 0, i64 24, i1 false)
  %loop_run_count.i.i = getelementptr %class.LoopStat, ptr %incdec.ptr.i.i.i.i39.i.i.i, i64 -1, i32 3
  %loop_run_count4.i.i = getelementptr %class.LoopStat, ptr %__first1.sroa.1.038.i.i.i, i64 -1, i32 3
  %__end_cap_.i26.i.i = getelementptr %class.LoopStat, ptr %incdec.ptr.i.i.i.i39.i.i.i, i64 -1, i32 3, i32 2
  call void @llvm.memset.p0.i64(ptr noundef nonnull align 8 dereferenceable(24) %loop_run_count.i.i, i8 0, i64 24, i1 false)
  %450 = load <2 x ptr>, ptr %loop_run_count4.i.i, align 8, !tbaa !5
  store <2 x ptr> %450, ptr %loop_run_count.i.i, align 8, !tbaa !5
  %__end_cap_.i19.i28.i.i = getelementptr %class.LoopStat, ptr %__first1.sroa.1.038.i.i.i, i64 -1, i32 3, i32 2
  %451 = load ptr, ptr %__end_cap_.i19.i28.i.i, align 8, !tbaa !5
  store ptr %451, ptr %__end_cap_.i26.i.i, align 8, !tbaa !5
  call void @llvm.memset.p0.i64(ptr noundef nonnull align 8 dereferenceable(24) %loop_run_count4.i.i, i8 0, i64 24, i1 false)
  %mean.i.i = getelementptr %class.LoopStat, ptr %incdec.ptr.i.i.i.i39.i.i.i, i64 -1, i32 4
  %mean5.i.i = getelementptr %class.LoopStat, ptr %__first1.sroa.1.038.i.i.i, i64 -1, i32 4
  %__end_cap_.i30.i.i = getelementptr %class.LoopStat, ptr %incdec.ptr.i.i.i.i39.i.i.i, i64 -1, i32 4, i32 2
  call void @llvm.memset.p0.i64(ptr noundef nonnull align 8 dereferenceable(24) %mean.i.i, i8 0, i64 24, i1 false)
  %452 = load <2 x ptr>, ptr %mean5.i.i, align 8, !tbaa !5
  store <2 x ptr> %452, ptr %mean.i.i, align 8, !tbaa !5
  %__end_cap_.i19.i32.i.i = getelementptr %class.LoopStat, ptr %__first1.sroa.1.038.i.i.i, i64 -1, i32 4, i32 2
  %453 = load ptr, ptr %__end_cap_.i19.i32.i.i, align 8, !tbaa !5
  store ptr %453, ptr %__end_cap_.i30.i.i, align 8, !tbaa !5
  call void @llvm.memset.p0.i64(ptr noundef nonnull align 8 dereferenceable(24) %mean5.i.i, i8 0, i64 24, i1 false)
  %std_dev.i.i = getelementptr %class.LoopStat, ptr %incdec.ptr.i.i.i.i39.i.i.i, i64 -1, i32 5
  %std_dev6.i.i = getelementptr %class.LoopStat, ptr %__first1.sroa.1.038.i.i.i, i64 -1, i32 5
  %__end_cap_.i34.i.i = getelementptr %class.LoopStat, ptr %incdec.ptr.i.i.i.i39.i.i.i, i64 -1, i32 5, i32 2
  call void @llvm.memset.p0.i64(ptr noundef nonnull align 8 dereferenceable(24) %std_dev.i.i, i8 0, i64 24, i1 false)
  %454 = load <2 x ptr>, ptr %std_dev6.i.i, align 8, !tbaa !5
  store <2 x ptr> %454, ptr %std_dev.i.i, align 8, !tbaa !5
  %__end_cap_.i19.i36.i.i = getelementptr %class.LoopStat, ptr %__first1.sroa.1.038.i.i.i, i64 -1, i32 5, i32 2
  %455 = load ptr, ptr %__end_cap_.i19.i36.i.i, align 8, !tbaa !5
  store ptr %455, ptr %__end_cap_.i34.i.i, align 8, !tbaa !5
  call void @llvm.memset.p0.i64(ptr noundef nonnull align 8 dereferenceable(24) %std_dev6.i.i, i8 0, i64 24, i1 false)
  %min.i.i = getelementptr %class.LoopStat, ptr %incdec.ptr.i.i.i.i39.i.i.i, i64 -1, i32 6
  %min7.i.i = getelementptr %class.LoopStat, ptr %__first1.sroa.1.038.i.i.i, i64 -1, i32 6
  %__end_cap_.i38.i.i = getelementptr %class.LoopStat, ptr %incdec.ptr.i.i.i.i39.i.i.i, i64 -1, i32 6, i32 2
  call void @llvm.memset.p0.i64(ptr noundef nonnull align 8 dereferenceable(24) %min.i.i, i8 0, i64 24, i1 false)
  %456 = load <2 x ptr>, ptr %min7.i.i, align 8, !tbaa !5
  store <2 x ptr> %456, ptr %min.i.i, align 8, !tbaa !5
  %__end_cap_.i19.i40.i.i = getelementptr %class.LoopStat, ptr %__first1.sroa.1.038.i.i.i, i64 -1, i32 6, i32 2
  %457 = load ptr, ptr %__end_cap_.i19.i40.i.i, align 8, !tbaa !5
  store ptr %457, ptr %__end_cap_.i38.i.i, align 8, !tbaa !5
  call void @llvm.memset.p0.i64(ptr noundef nonnull align 8 dereferenceable(24) %min7.i.i, i8 0, i64 24, i1 false)
  %max.i.i = getelementptr %class.LoopStat, ptr %incdec.ptr.i.i.i.i39.i.i.i, i64 -1, i32 7
  %max8.i.i = getelementptr %class.LoopStat, ptr %__first1.sroa.1.038.i.i.i, i64 -1, i32 7
  %__end_cap_.i42.i.i = getelementptr %class.LoopStat, ptr %incdec.ptr.i.i.i.i39.i.i.i, i64 -1, i32 7, i32 2
  call void @llvm.memset.p0.i64(ptr noundef nonnull align 8 dereferenceable(24) %max.i.i, i8 0, i64 24, i1 false)
  %458 = load <2 x ptr>, ptr %max8.i.i, align 8, !tbaa !5
  store <2 x ptr> %458, ptr %max.i.i, align 8, !tbaa !5
  %__end_cap_.i19.i44.i.i = getelementptr %class.LoopStat, ptr %__first1.sroa.1.038.i.i.i, i64 -1, i32 7, i32 2
  %459 = load ptr, ptr %__end_cap_.i19.i44.i.i, align 8, !tbaa !5
  store ptr %459, ptr %__end_cap_.i42.i.i, align 8, !tbaa !5
  call void @llvm.memset.p0.i64(ptr noundef nonnull align 8 dereferenceable(24) %max8.i.i, i8 0, i64 24, i1 false)
  %harm_mean.i.i = getelementptr %class.LoopStat, ptr %incdec.ptr.i.i.i.i39.i.i.i, i64 -1, i32 8
  %harm_mean9.i.i = getelementptr %class.LoopStat, ptr %__first1.sroa.1.038.i.i.i, i64 -1, i32 8
  %__end_cap_.i46.i.i = getelementptr %class.LoopStat, ptr %incdec.ptr.i.i.i.i39.i.i.i, i64 -1, i32 8, i32 2
  call void @llvm.memset.p0.i64(ptr noundef nonnull align 8 dereferenceable(24) %harm_mean.i.i, i8 0, i64 24, i1 false)
  %460 = load <2 x ptr>, ptr %harm_mean9.i.i, align 8, !tbaa !5
  store <2 x ptr> %460, ptr %harm_mean.i.i, align 8, !tbaa !5
  %__end_cap_.i19.i48.i.i = getelementptr %class.LoopStat, ptr %__first1.sroa.1.038.i.i.i, i64 -1, i32 8, i32 2
  %461 = load ptr, ptr %__end_cap_.i19.i48.i.i, align 8, !tbaa !5
  store ptr %461, ptr %__end_cap_.i46.i.i, align 8, !tbaa !5
  call void @llvm.memset.p0.i64(ptr noundef nonnull align 8 dereferenceable(24) %harm_mean9.i.i, i8 0, i64 24, i1 false)
  %meanrel2ref.i.i = getelementptr %class.LoopStat, ptr %incdec.ptr.i.i.i.i39.i.i.i, i64 -1, i32 9
  %meanrel2ref10.i.i = getelementptr %class.LoopStat, ptr %__first1.sroa.1.038.i.i.i, i64 -1, i32 9
  %__end_cap_.i50.i.i = getelementptr %class.LoopStat, ptr %incdec.ptr.i.i.i.i39.i.i.i, i64 -1, i32 9, i32 2
  call void @llvm.memset.p0.i64(ptr noundef nonnull align 8 dereferenceable(24) %meanrel2ref.i.i, i8 0, i64 24, i1 false)
  %462 = load <2 x ptr>, ptr %meanrel2ref10.i.i, align 8, !tbaa !5
  store <2 x ptr> %462, ptr %meanrel2ref.i.i, align 8, !tbaa !5
  %__end_cap_.i19.i52.i.i = getelementptr %class.LoopStat, ptr %__first1.sroa.1.038.i.i.i, i64 -1, i32 9, i32 2
  %463 = load ptr, ptr %__end_cap_.i19.i52.i.i, align 8, !tbaa !5
  store ptr %463, ptr %__end_cap_.i50.i.i, align 8, !tbaa !5
  call void @llvm.memset.p0.i64(ptr noundef nonnull align 8 dereferenceable(24) %meanrel2ref10.i.i, i8 0, i64 24, i1 false)
  %loop_length.i.i = getelementptr %class.LoopStat, ptr %incdec.ptr.i.i.i.i39.i.i.i, i64 -1, i32 10
  %loop_length11.i.i = getelementptr %class.LoopStat, ptr %__first1.sroa.1.038.i.i.i, i64 -1, i32 10
  %__end_cap_.i54.i.i = getelementptr %class.LoopStat, ptr %incdec.ptr.i.i.i.i39.i.i.i, i64 -1, i32 10, i32 2
  call void @llvm.memset.p0.i64(ptr noundef nonnull align 8 dereferenceable(24) %loop_length.i.i, i8 0, i64 24, i1 false)
  %464 = load <2 x ptr>, ptr %loop_length11.i.i, align 8, !tbaa !5
  store <2 x ptr> %464, ptr %loop_length.i.i, align 8, !tbaa !5
  %__end_cap_.i19.i56.i.i = getelementptr %class.LoopStat, ptr %__first1.sroa.1.038.i.i.i, i64 -1, i32 10, i32 2
  %465 = load ptr, ptr %__end_cap_.i19.i56.i.i, align 8, !tbaa !5
  store ptr %465, ptr %__end_cap_.i54.i.i, align 8, !tbaa !5
  call void @llvm.memset.p0.i64(ptr noundef nonnull align 8 dereferenceable(24) %loop_length11.i.i, i8 0, i64 24, i1 false)
  %samples_per_pass.i.i = getelementptr %class.LoopStat, ptr %incdec.ptr.i.i.i.i39.i.i.i, i64 -1, i32 11
  %samples_per_pass12.i.i = getelementptr %class.LoopStat, ptr %__first1.sroa.1.038.i.i.i, i64 -1, i32 11
  %__end_cap_.i58.i.i = getelementptr %class.LoopStat, ptr %incdec.ptr.i.i.i.i39.i.i.i, i64 -1, i32 11, i32 2
  call void @llvm.memset.p0.i64(ptr noundef nonnull align 8 dereferenceable(24) %samples_per_pass.i.i, i8 0, i64 24, i1 false)
  %466 = load <2 x ptr>, ptr %samples_per_pass12.i.i, align 8, !tbaa !5
  store <2 x ptr> %466, ptr %samples_per_pass.i.i, align 8, !tbaa !5
  %__end_cap_.i19.i60.i.i = getelementptr %class.LoopStat, ptr %__first1.sroa.1.038.i.i.i, i64 -1, i32 11, i32 2
  %467 = load ptr, ptr %__end_cap_.i19.i60.i.i, align 8, !tbaa !5
  store ptr %467, ptr %__end_cap_.i58.i.i, align 8, !tbaa !5
  call void @llvm.memset.p0.i64(ptr noundef nonnull align 8 dereferenceable(24) %samples_per_pass12.i.i, i8 0, i64 24, i1 false)
  %loop_chksum.i.i = getelementptr %class.LoopStat, ptr %incdec.ptr.i.i.i.i39.i.i.i, i64 -1, i32 12
  %loop_chksum13.i.i = getelementptr %class.LoopStat, ptr %__first1.sroa.1.038.i.i.i, i64 -1, i32 12
  %__end_cap_.i62.i.i = getelementptr %class.LoopStat, ptr %incdec.ptr.i.i.i.i39.i.i.i, i64 -1, i32 12, i32 2
  call void @llvm.memset.p0.i64(ptr noundef nonnull align 8 dereferenceable(24) %loop_chksum.i.i, i8 0, i64 24, i1 false)
  %468 = load <2 x ptr>, ptr %loop_chksum13.i.i, align 8, !tbaa !5
  store <2 x ptr> %468, ptr %loop_chksum.i.i, align 8, !tbaa !5
  %__end_cap_.i19.i64.i.i = getelementptr %class.LoopStat, ptr %__first1.sroa.1.038.i.i.i, i64 -1, i32 12, i32 2
  %469 = load ptr, ptr %__end_cap_.i19.i64.i.i, align 8, !tbaa !5
  store ptr %469, ptr %__end_cap_.i62.i.i, align 8, !tbaa !5
  call void @llvm.memset.p0.i64(ptr noundef nonnull align 8 dereferenceable(24) %loop_chksum13.i.i, i8 0, i64 24, i1 false)
  %cmp.i.not.i.i.i = icmp eq ptr %incdec.ptr.i.i.i.i3506, %447
  br i1 %cmp.i.not.i.i.i, label %invoke.cont7.i, label %invoke.cont4.i.i.i, !llvm.loop !102

invoke.cont7.i:                                   ; preds = %invoke.cont4.i.i.i
  %.pre.i = load ptr, ptr %441, align 8, !tbaa !5
  %.pre20.i = load ptr, ptr %__end_.i3458, align 8, !tbaa !5
  store ptr %incdec.ptr.i.i.i.i.i.i.i, ptr %441, align 8, !tbaa !5
  store ptr %incdec.ptr.i, ptr %__end_.i3458, align 8, !tbaa !5
  store ptr %add.ptr6.i.i, ptr %__end_cap_.i.i3459, align 8, !tbaa !5
  %cmp.not4.i.i.i.i.i = icmp eq ptr %.pre20.i, %.pre.i
  br i1 %cmp.not4.i.i.i.i.i, label %_ZNSt3__114__split_bufferI8LoopStatRNS_9allocatorIS1_EEE5clearB7v170000Ev.exit.i.i, label %while.body.i.i.i.i.i

while.body.i.i.i.i.i:                             ; preds = %invoke.cont7.i, %while.body.i.i.i.i.i
  %470 = phi ptr [ %incdec.ptr.i.i.i.i.i, %while.body.i.i.i.i.i ], [ %.pre20.i, %invoke.cont7.i ]
  %incdec.ptr.i.i.i.i.i = getelementptr inbounds %class.LoopStat, ptr %470, i64 -1
  call void @_ZN8LoopStatD2Ev(ptr noundef nonnull align 8 dereferenceable(280) %incdec.ptr.i.i.i.i.i) #24
  %cmp.not.i.i.i.i.i = icmp eq ptr %incdec.ptr.i.i.i.i.i, %.pre.i
  br i1 %cmp.not.i.i.i.i.i, label %_ZNSt3__114__split_bufferI8LoopStatRNS_9allocatorIS1_EEE5clearB7v170000Ev.exit.i.i, label %while.body.i.i.i.i.i

_ZNSt3__114__split_bufferI8LoopStatRNS_9allocatorIS1_EEE5clearB7v170000Ev.exit.i.i: ; preds = %while.body.i.i.i.i.i, %invoke.cont7.i.thread, %invoke.cont7.i
  %471 = phi ptr [ %.pre.i, %invoke.cont7.i ], [ %446, %invoke.cont7.i.thread ], [ %.pre.i, %while.body.i.i.i.i.i ]
  %tobool.not.i.i = icmp eq ptr %471, null
  br i1 %tobool.not.i.i, label %.noexc3466, label %if.then.i19.i

if.then.i19.i:                                    ; preds = %_ZNSt3__114__split_bufferI8LoopStatRNS_9allocatorIS1_EEE5clearB7v170000Ev.exit.i.i
  call void @_ZdlPv(ptr noundef nonnull %471) #26
  br label %.noexc3466

lpad.i3507:                                       ; preds = %_ZNSt3__114__split_bufferI8LoopStatRNS_9allocatorIS1_EEEC2EmmS4_.exit.i
  %472 = landingpad { ptr, i32 }
          cleanup
  call void @_ZNSt3__114__split_bufferI8LoopStatRNS_9allocatorIS1_EEED2Ev(ptr noundef nonnull align 8 dereferenceable(40) %__v.i) #24
  call void @llvm.lifetime.end.p0(i64 40, ptr nonnull %__v.i) #24
  br label %ehcleanup1087

.noexc3466:                                       ; preds = %if.then.i19.i, %_ZNSt3__114__split_bufferI8LoopStatRNS_9allocatorIS1_EEE5clearB7v170000Ev.exit.i.i
  call void @llvm.lifetime.end.p0(i64 40, ptr nonnull %__v.i) #24
  br label %for.inc1083

for.inc1083:                                      ; preds = %.noexc3466, %_ZNSt3__16vectorI8LoopStatNS_9allocatorIS1_EEE22__construct_one_at_endB7v170000IJRKS1_EEEvDpOT_.exit.i
  %inc1084 = add nuw nsw i64 %conv10723640, 1
  %conv1072 = and i64 %inc1084, 4294967295
  %473 = load ptr, ptr %__end_.i, align 8, !tbaa !54
  %474 = load ptr, ptr %run_variant_names, align 8, !tbaa !55
  %sub.ptr.lhs.cast.i3445 = ptrtoint ptr %473 to i64
  %sub.ptr.rhs.cast.i3446 = ptrtoint ptr %474 to i64
  %sub.ptr.sub.i3447 = sub i64 %sub.ptr.lhs.cast.i3445, %sub.ptr.rhs.cast.i3446
  %sub.ptr.div.i3448 = sdiv exact i64 %sub.ptr.sub.i3447, 24
  %cmp1074 = icmp ugt i64 %sub.ptr.div.i3448, %conv1072
  br i1 %cmp1074, label %for.body1076, label %for.cond.cleanup1075, !llvm.loop !103

lpad1079.loopexit:                                ; preds = %_ZNSt3__119__allocate_at_leastB7v170000INS_9allocatorI8LoopStatEEEENS_19__allocation_resultINS_16allocator_traitsIT_E7pointerEEERS6_m.exit.i.i
  %lpad.loopexit = landingpad { ptr, i32 }
          cleanup
  br label %ehcleanup1087

lpad1079.loopexit.split-lp:                       ; preds = %if.then.i.i3501, %if.then.i.i.i.i
  %lpad.loopexit.split-lp = landingpad { ptr, i32 }
          cleanup
  br label %ehcleanup1087

ehcleanup1087:                                    ; preds = %lpad1079.loopexit, %lpad1079.loopexit.split-lp, %lpad.i.i3462, %lpad.i3507, %lpad.i.i, %lpad.i.i3485, %lpad1019
  %.pn1288 = phi { ptr, i32 } [ %416, %lpad.i.i ], [ %413, %lpad1019 ], [ %412, %lpad.i.i3485 ], [ %444, %lpad.i.i3462 ], [ %472, %lpad.i3507 ], [ %lpad.loopexit, %lpad1079.loopexit ], [ %lpad.loopexit.split-lp, %lpad1079.loopexit.split-lp ]
  call void @_ZN8LoopStatD2Ev(ptr noundef nonnull align 8 dereferenceable(280) %loop_stat) #24
  br label %ehcleanup1089

ehcleanup1089:                                    ; preds = %ehcleanup1087, %lpad88
  %.pn1288.pn = phi { ptr, i32 } [ %.pn1288, %ehcleanup1087 ], [ %106, %lpad88 ]
  call void @llvm.lifetime.end.p0(i64 280, ptr nonnull %loop_stat) #24
  %bf.load.i.i3467 = load i8, ptr %loop_name, align 8
  %bf.clear.i.i3468 = and i8 %bf.load.i.i3467, 1
  %tobool.i.not.i3469 = icmp eq i8 %bf.clear.i.i3468, 0
  br i1 %tobool.i.not.i3469, label %_ZNSt3__112basic_stringIcNS_11char_traitsIcEENS_9allocatorIcEEED2Ev.exit3472, label %if.then.i3471

if.then.i3471:                                    ; preds = %ehcleanup1089
  %475 = load ptr, ptr %__data_.i.i.i1746, align 8, !tbaa !56
  call void @_ZdlPv(ptr noundef %475) #26
  br label %_ZNSt3__112basic_stringIcNS_11char_traitsIcEENS_9allocatorIcEEED2Ev.exit3472

_ZNSt3__112basic_stringIcNS_11char_traitsIcEENS_9allocatorIcEEED2Ev.exit3472: ; preds = %ehcleanup1089, %if.then.i3471
  call void @llvm.lifetime.end.p0(i64 24, ptr nonnull %loop_name) #24
  br label %_ZNSt3__16vectorIiNS_9allocatorIiEEED2B7v170000Ev.exit3483

invoke.cont1100:                                  ; preds = %for.cond.cleanup86
  %loop_length1098 = getelementptr inbounds %class.LoopSuiteRunInfo, ptr %call3, i64 0, i32 11, i32 10
  %476 = load ptr, ptr %loop_length1098, align 16, !tbaa !61
  %477 = load i32, ptr %476, align 4, !tbaa !69
  %spec.select = call i32 @llvm.smax.i32(i32 %max_loop_length.0.lcssa, i32 %477)
  %478 = load ptr, ptr @_ZL11s_loop_data, align 8, !tbaa !5
  store i32 %spec.select, ptr %478, align 8, !tbaa !104
  call void @_ZdlPv(ptr noundef nonnull %call.i.i.i.i.i7.i) #26
  %479 = load ptr, ptr %run_variant_names, align 8, !tbaa !55
  %cmp.not.i.i3476 = icmp eq ptr %479, null
  br i1 %cmp.not.i.i3476, label %_ZNSt3__16vectorINS_12basic_stringIcNS_11char_traitsIcEENS_9allocatorIcEEEENS4_IS6_EEED2B7v170000Ev.exit, label %if.then.i.i3478

if.then.i.i3478:                                  ; preds = %invoke.cont1100
  %480 = load ptr, ptr %__end_.i, align 8, !tbaa !54
  %cmp.not6.i.i.i.i = icmp eq ptr %480, %479
  br i1 %cmp.not6.i.i.i.i, label %_ZNSt3__16vectorINS_12basic_stringIcNS_11char_traitsIcEENS_9allocatorIcEEEENS4_IS6_EEE7__clearB7v170000Ev.exit.i.i, label %while.body.i.i.i.i

while.body.i.i.i.i:                               ; preds = %if.then.i.i3478, %_ZNSt3__116allocator_traitsINS_9allocatorINS_12basic_stringIcNS_11char_traitsIcEENS1_IcEEEEEEE7destroyB7v170000IS6_vEEvRS7_PT_.exit.i.i.i.i
  %__soon_to_be_end.07.i.i.i.i = phi ptr [ %incdec.ptr.i.i.i.i, %_ZNSt3__116allocator_traitsINS_9allocatorINS_12basic_stringIcNS_11char_traitsIcEENS1_IcEEEEEEE7destroyB7v170000IS6_vEEvRS7_PT_.exit.i.i.i.i ], [ %480, %if.then.i.i3478 ]
  %incdec.ptr.i.i.i.i = getelementptr inbounds %"class.std::__1::basic_string", ptr %__soon_to_be_end.07.i.i.i.i, i64 -1
  %bf.load.i.i.i.i.i.i.i.i = load i8, ptr %incdec.ptr.i.i.i.i, align 8
  %bf.clear.i.i.i.i.i.i.i.i = and i8 %bf.load.i.i.i.i.i.i.i.i, 1
  %tobool.i.not.i.i.i.i.i.i.i = icmp eq i8 %bf.clear.i.i.i.i.i.i.i.i, 0
  br i1 %tobool.i.not.i.i.i.i.i.i.i, label %_ZNSt3__116allocator_traitsINS_9allocatorINS_12basic_stringIcNS_11char_traitsIcEENS1_IcEEEEEEE7destroyB7v170000IS6_vEEvRS7_PT_.exit.i.i.i.i, label %if.then.i.i.i.i.i.i.i3479

if.then.i.i.i.i.i.i.i3479:                        ; preds = %while.body.i.i.i.i
  %__data_.i.i.i.i.i.i.i.i = getelementptr %"class.std::__1::basic_string", ptr %__soon_to_be_end.07.i.i.i.i, i64 -1, i32 0, i32 0, i32 0, i32 0, i32 0, i32 2
  %481 = load ptr, ptr %__data_.i.i.i.i.i.i.i.i, align 8, !tbaa !56
  call void @_ZdlPv(ptr noundef %481) #26
  br label %_ZNSt3__116allocator_traitsINS_9allocatorINS_12basic_stringIcNS_11char_traitsIcEENS1_IcEEEEEEE7destroyB7v170000IS6_vEEvRS7_PT_.exit.i.i.i.i

_ZNSt3__116allocator_traitsINS_9allocatorINS_12basic_stringIcNS_11char_traitsIcEENS1_IcEEEEEEE7destroyB7v170000IS6_vEEvRS7_PT_.exit.i.i.i.i: ; preds = %if.then.i.i.i.i.i.i.i3479, %while.body.i.i.i.i
  %cmp.not.i.i.i.i = icmp eq ptr %incdec.ptr.i.i.i.i, %479
  br i1 %cmp.not.i.i.i.i, label %_ZNSt3__16vectorINS_12basic_stringIcNS_11char_traitsIcEENS_9allocatorIcEEEENS4_IS6_EEE7__clearB7v170000Ev.exit.loopexit.i.i, label %while.body.i.i.i.i

_ZNSt3__16vectorINS_12basic_stringIcNS_11char_traitsIcEENS_9allocatorIcEEEENS4_IS6_EEE7__clearB7v170000Ev.exit.loopexit.i.i: ; preds = %_ZNSt3__116allocator_traitsINS_9allocatorINS_12basic_stringIcNS_11char_traitsIcEENS1_IcEEEEEEE7destroyB7v170000IS6_vEEvRS7_PT_.exit.i.i.i.i
  %.pre10.i.i = load ptr, ptr %run_variant_names, align 8, !tbaa !55
  br label %_ZNSt3__16vectorINS_12basic_stringIcNS_11char_traitsIcEENS_9allocatorIcEEEENS4_IS6_EEE7__clearB7v170000Ev.exit.i.i

_ZNSt3__16vectorINS_12basic_stringIcNS_11char_traitsIcEENS_9allocatorIcEEEENS4_IS6_EEE7__clearB7v170000Ev.exit.i.i: ; preds = %_ZNSt3__16vectorINS_12basic_stringIcNS_11char_traitsIcEENS_9allocatorIcEEEENS4_IS6_EEE7__clearB7v170000Ev.exit.loopexit.i.i, %if.then.i.i3478
  %482 = phi ptr [ %.pre10.i.i, %_ZNSt3__16vectorINS_12basic_stringIcNS_11char_traitsIcEENS_9allocatorIcEEEENS4_IS6_EEE7__clearB7v170000Ev.exit.loopexit.i.i ], [ %479, %if.then.i.i3478 ]
  store ptr %479, ptr %__end_.i, align 8, !tbaa !54
  call void @_ZdlPv(ptr noundef %482) #26
  br label %_ZNSt3__16vectorINS_12basic_stringIcNS_11char_traitsIcEENS_9allocatorIcEEEENS4_IS6_EEED2B7v170000Ev.exit

_ZNSt3__16vectorINS_12basic_stringIcNS_11char_traitsIcEENS_9allocatorIcEEEENS4_IS6_EEED2B7v170000Ev.exit: ; preds = %invoke.cont1100, %_ZNSt3__16vectorINS_12basic_stringIcNS_11char_traitsIcEENS_9allocatorIcEEEENS4_IS6_EEE7__clearB7v170000Ev.exit.i.i
  call void @llvm.lifetime.end.p0(i64 24, ptr nonnull %run_variant_names) #24
  ret void

lpad1096:                                         ; preds = %for.cond.cleanup86
  %483 = landingpad { ptr, i32 }
          cleanup
  br label %_ZNSt3__16vectorIiNS_9allocatorIiEEED2B7v170000Ev.exit3483

_ZNSt3__16vectorIiNS_9allocatorIiEEED2B7v170000Ev.exit3483: ; preds = %lpad1096, %_ZNSt3__112basic_stringIcNS_11char_traitsIcEENS_9allocatorIcEEED2Ev.exit3472
  %.pn1288.pn.pn = phi { ptr, i32 } [ %.pn1288.pn, %_ZNSt3__112basic_stringIcNS_11char_traitsIcEENS_9allocatorIcEEED2Ev.exit3472 ], [ %483, %lpad1096 ]
  call void @_ZdlPv(ptr noundef nonnull %call.i.i.i.i.i7.i) #26
  br label %ehcleanup1108

ehcleanup1108:                                    ; preds = %_ZNSt3__16vectorIiNS_9allocatorIiEEED2B7v170000Ev.exit3483, %_ZNSt3__128__exception_guard_exceptionsINS_6vectorIiNS_9allocatorIiEEE16__destroy_vectorEED2B7v170000Ev.exit.i, %lpad47, %_ZNSt3__14pairIKNS_12basic_stringIcNS_11char_traitsIcEENS_9allocatorIcEEEEPNS_6vectorI8LoopStatNS4_IS9_EEEEED2Ev.exit10.i, %lpad1, %lpad71, %lpad65, %lpad59, %lpad53, %lpad
  %.pn1295.pn.pn = phi { ptr, i32 } [ %1, %lpad ], [ %40, %lpad1 ], [ %63, %lpad71 ], [ %62, %lpad65 ], [ %61, %lpad59 ], [ %60, %lpad53 ], [ %59, %lpad47 ], [ %43, %_ZNSt3__14pairIKNS_12basic_stringIcNS_11char_traitsIcEENS_9allocatorIcEEEEPNS_6vectorI8LoopStatNS4_IS9_EEEEED2Ev.exit10.i ], [ %.pn1288.pn.pn, %_ZNSt3__16vectorIiNS_9allocatorIiEEED2B7v170000Ev.exit3483 ], [ %39, %_ZNSt3__128__exception_guard_exceptionsINS_6vectorIiNS_9allocatorIiEEE16__destroy_vectorEED2B7v170000Ev.exit.i ]
  call void @_ZNSt3__16vectorINS_12basic_stringIcNS_11char_traitsIcEENS_9allocatorIcEEEENS4_IS6_EEED2B7v170000Ev(ptr noundef nonnull align 8 dereferenceable(24) %run_variant_names) #24
  call void @llvm.lifetime.end.p0(i64 24, ptr nonnull %run_variant_names) #24
  resume { ptr, i32 } %.pn1295.pn.pn
}

; Function Attrs: mustprogress nocallback nofree nosync nounwind willreturn memory(argmem: readwrite)
declare void @llvm.lifetime.start.p0(i64 immarg, ptr nocapture) #2

; Function Attrs: uwtable
define dso_local void @_Z15getVariantNamesRKNSt3__16vectorI13LoopVariantIDNS_9allocatorIS1_EEEE(ptr noalias sret(%"class.std::__1::vector.1") align 8 %agg.result, ptr nocapture noundef nonnull readonly align 8 dereferenceable(24) %lvids) local_unnamed_addr #1 personality ptr @__gxx_personality_v0 {
entry:
  %variant_name = alloca %"class.std::__1::basic_string", align 8
  tail call void @llvm.memset.p0.i64(ptr noundef nonnull align 8 dereferenceable(24) %agg.result, i8 0, i64 24, i1 false)
  %__end_.i = getelementptr inbounds %"class.std::__1::vector", ptr %lvids, i64 0, i32 1
  %0 = load ptr, ptr %__end_.i, align 8, !tbaa !107
  %1 = load ptr, ptr %lvids, align 8, !tbaa !111
  %cmp26.not = icmp eq ptr %0, %1
  br i1 %cmp26.not, label %nrvo.skipdtor, label %for.body.lr.ph

for.body.lr.ph:                                   ; preds = %entry
  %__end_.i12 = getelementptr inbounds %"class.std::__1::vector.1", ptr %agg.result, i64 0, i32 1
  %__end_cap_.i.i = getelementptr inbounds %"class.std::__1::vector.1", ptr %agg.result, i64 0, i32 2
  %__data_.i.i = getelementptr inbounds %"struct.std::__1::basic_string<char>::__long", ptr %variant_name, i64 0, i32 2
  br label %for.body

for.body:                                         ; preds = %for.body.lr.ph, %_ZNSt3__112basic_stringIcNS_11char_traitsIcEENS_9allocatorIcEEED2Ev.exit
  %2 = phi ptr [ %1, %for.body.lr.ph ], [ %9, %_ZNSt3__112basic_stringIcNS_11char_traitsIcEENS_9allocatorIcEEED2Ev.exit ]
  %conv28 = phi i64 [ 0, %for.body.lr.ph ], [ %conv, %_ZNSt3__112basic_stringIcNS_11char_traitsIcEENS_9allocatorIcEEED2Ev.exit ]
  call void @llvm.lifetime.start.p0(i64 24, ptr nonnull %variant_name) #24
  %arrayidx.i = getelementptr inbounds i32, ptr %2, i64 %conv28
  %3 = load i32, ptr %arrayidx.i, align 4, !tbaa !112
  invoke void @_Z14getVariantName13LoopVariantID(ptr nonnull sret(%"class.std::__1::basic_string") align 8 %variant_name, i32 noundef %3)
          to label %invoke.cont unwind label %lpad

invoke.cont:                                      ; preds = %for.body
  %4 = load ptr, ptr %__end_.i12, align 8, !tbaa !54
  %5 = load ptr, ptr %__end_cap_.i.i, align 8, !tbaa !5
  %cmp.not.i = icmp eq ptr %4, %5
  br i1 %cmp.not.i, label %if.else.i, label %if.then.i

if.then.i:                                        ; preds = %invoke.cont
  invoke void @_ZNSt3__112basic_stringIcNS_11char_traitsIcEENS_9allocatorIcEEEC1ERKS5_(ptr noundef nonnull align 8 dereferenceable(24) %4, ptr noundef nonnull align 8 dereferenceable(24) %variant_name)
          to label %_ZNSt3__16vectorINS_12basic_stringIcNS_11char_traitsIcEENS_9allocatorIcEEEENS4_IS6_EEE22__construct_one_at_endB7v170000IJRKS6_EEEvDpOT_.exit.i unwind label %lpad.i.i

lpad.i.i:                                         ; preds = %if.then.i
  %6 = landingpad { ptr, i32 }
          cleanup
  store ptr %4, ptr %__end_.i12, align 8, !tbaa !54
  br label %lpad3.body

_ZNSt3__16vectorINS_12basic_stringIcNS_11char_traitsIcEENS_9allocatorIcEEEENS4_IS6_EEE22__construct_one_at_endB7v170000IJRKS6_EEEvDpOT_.exit.i: ; preds = %if.then.i
  %incdec.ptr.i.i = getelementptr inbounds %"class.std::__1::basic_string", ptr %4, i64 1
  store ptr %incdec.ptr.i.i, ptr %__end_.i12, align 8, !tbaa !54
  br label %invoke.cont4

if.else.i:                                        ; preds = %invoke.cont
  invoke void @_ZNSt3__16vectorINS_12basic_stringIcNS_11char_traitsIcEENS_9allocatorIcEEEENS4_IS6_EEE21__push_back_slow_pathIRKS6_EEvOT_(ptr noundef nonnull align 8 dereferenceable(24) %agg.result, ptr noundef nonnull align 8 dereferenceable(24) %variant_name)
          to label %invoke.cont4 unwind label %lpad3

invoke.cont4:                                     ; preds = %_ZNSt3__16vectorINS_12basic_stringIcNS_11char_traitsIcEENS_9allocatorIcEEEENS4_IS6_EEE22__construct_one_at_endB7v170000IJRKS6_EEEvDpOT_.exit.i, %if.else.i
  %bf.load.i.i = load i8, ptr %variant_name, align 8
  %bf.clear.i.i = and i8 %bf.load.i.i, 1
  %tobool.i.not.i = icmp eq i8 %bf.clear.i.i, 0
  br i1 %tobool.i.not.i, label %_ZNSt3__112basic_stringIcNS_11char_traitsIcEENS_9allocatorIcEEED2Ev.exit, label %if.then.i13

if.then.i13:                                      ; preds = %invoke.cont4
  %7 = load ptr, ptr %__data_.i.i, align 8, !tbaa !56
  call void @_ZdlPv(ptr noundef %7) #26
  br label %_ZNSt3__112basic_stringIcNS_11char_traitsIcEENS_9allocatorIcEEED2Ev.exit

_ZNSt3__112basic_stringIcNS_11char_traitsIcEENS_9allocatorIcEEED2Ev.exit: ; preds = %invoke.cont4, %if.then.i13
  call void @llvm.lifetime.end.p0(i64 24, ptr nonnull %variant_name) #24
  %inc = add nuw nsw i64 %conv28, 1
  %conv = and i64 %inc, 4294967295
  %8 = load ptr, ptr %__end_.i, align 8, !tbaa !107
  %9 = load ptr, ptr %lvids, align 8, !tbaa !111
  %sub.ptr.lhs.cast.i = ptrtoint ptr %8 to i64
  %sub.ptr.rhs.cast.i = ptrtoint ptr %9 to i64
  %sub.ptr.sub.i = sub i64 %sub.ptr.lhs.cast.i, %sub.ptr.rhs.cast.i
  %sub.ptr.div.i = ashr exact i64 %sub.ptr.sub.i, 2
  %cmp = icmp ugt i64 %sub.ptr.div.i, %conv
  br i1 %cmp, label %for.body, label %nrvo.skipdtor, !llvm.loop !114

lpad:                                             ; preds = %for.body
  %10 = landingpad { ptr, i32 }
          cleanup
  br label %ehcleanup

lpad3:                                            ; preds = %if.else.i
  %11 = landingpad { ptr, i32 }
          cleanup
  br label %lpad3.body

lpad3.body:                                       ; preds = %lpad.i.i, %lpad3
  %eh.lpad-body = phi { ptr, i32 } [ %11, %lpad3 ], [ %6, %lpad.i.i ]
  %bf.load.i.i14 = load i8, ptr %variant_name, align 8
  %bf.clear.i.i15 = and i8 %bf.load.i.i14, 1
  %tobool.i.not.i16 = icmp eq i8 %bf.clear.i.i15, 0
  br i1 %tobool.i.not.i16, label %ehcleanup, label %if.then.i18

if.then.i18:                                      ; preds = %lpad3.body
  %12 = load ptr, ptr %__data_.i.i, align 8, !tbaa !56
  call void @_ZdlPv(ptr noundef %12) #26
  br label %ehcleanup

ehcleanup:                                        ; preds = %if.then.i18, %lpad3.body, %lpad
  %.pn = phi { ptr, i32 } [ %10, %lpad ], [ %eh.lpad-body, %lpad3.body ], [ %eh.lpad-body, %if.then.i18 ]
  call void @llvm.lifetime.end.p0(i64 24, ptr nonnull %variant_name) #24
  call void @_ZNSt3__16vectorINS_12basic_stringIcNS_11char_traitsIcEENS_9allocatorIcEEEENS4_IS6_EEED2B7v170000Ev(ptr noundef nonnull align 8 dereferenceable(24) %agg.result) #24
  resume { ptr, i32 } %.pn

nrvo.skipdtor:                                    ; preds = %_ZNSt3__112basic_stringIcNS_11char_traitsIcEENS_9allocatorIcEEED2Ev.exit, %entry
  ret void
}

; Function Attrs: nobuiltin allocsize(0)
declare noundef nonnull ptr @_Znwm(i64 noundef) local_unnamed_addr #3

declare i32 @__gxx_personality_v0(...)

; Function Attrs: mustprogress nocallback nofree nounwind willreturn memory(argmem: write)
declare void @llvm.memset.p0.i64(ptr nocapture writeonly, i8, i64, i1 immarg) #4

declare noundef nonnull align 16 dereferenceable(584) ptr @_Z19getLoopSuiteRunInfov() local_unnamed_addr #5

; Function Attrs: mustprogress nocallback nofree nosync nounwind willreturn memory(argmem: readwrite)
declare void @llvm.lifetime.end.p0(i64 immarg, ptr nocapture) #2

; Function Attrs: uwtable
define linkonce_odr dso_local void @_ZN8LoopStatC2Ej(ptr noundef nonnull align 8 dereferenceable(280) %this, i32 noundef %num_loop_lengths) unnamed_addr #1 comdat align 2 personality ptr @__gxx_personality_v0 {
entry:
  %__guard.i = alloca %"struct.std::__1::__exception_guard_exceptions", align 8
  store i8 0, ptr %this, align 8, !tbaa !115
  %loop_weight = getelementptr inbounds %class.LoopStat, ptr %this, i64 0, i32 1
  %loop_run_time = getelementptr inbounds %class.LoopStat, ptr %this, i64 0, i32 2
  %conv = zext i32 %num_loop_lengths to i64
  %__end_.i = getelementptr inbounds %class.LoopStat, ptr %this, i64 0, i32 2, i32 1
  %__end_cap_.i = getelementptr inbounds %class.LoopStat, ptr %this, i64 0, i32 2, i32 2
  tail call void @llvm.memset.p0.i64(ptr noundef nonnull align 8 dereferenceable(32) %loop_weight, i8 0, i64 32, i1 false)
  call void @llvm.lifetime.start.p0(i64 16, ptr nonnull %__guard.i) #24
  store ptr %loop_run_time, ptr %__guard.i, align 8, !tbaa.struct !116, !alias.scope !117
  %__completed_.i.i.i = getelementptr inbounds %"struct.std::__1::__exception_guard_exceptions", ptr %__guard.i, i64 0, i32 1
  store i8 0, ptr %__completed_.i.i.i, align 8, !tbaa !120, !alias.scope !117
  %cmp.not.i = icmp eq i32 %num_loop_lengths, 0
  br i1 %cmp.not.i, label %invoke.cont34.thread, label %if.then.i

if.then.i:                                        ; preds = %entry
  %mul.i.i.i.i = mul nuw nsw i64 %conv, 24
  %call.i.i.i.i.i8.i = invoke noalias noundef nonnull ptr @_Znwm(i64 noundef %mul.i.i.i.i) #25
          to label %if.then.i70 unwind label %lpad.i

common.resume:                                    ; preds = %ehcleanup46, %lpad.i
  %common.resume.op = phi { ptr, i32 } [ %0, %lpad.i ], [ %.pn.pn.pn.pn.pn.pn.pn.pn.pn, %ehcleanup46 ]
  resume { ptr, i32 } %common.resume.op

lpad.i:                                           ; preds = %if.then.i
  %0 = landingpad { ptr, i32 }
          cleanup
  call void @_ZNSt3__128__exception_guard_exceptionsINS_6vectorINS1_IeNS_9allocatorIeEEEENS2_IS4_EEE16__destroy_vectorEED2B7v170000Ev(ptr noundef nonnull align 8 dereferenceable(9) %__guard.i) #24
  call void @llvm.lifetime.end.p0(i64 16, ptr nonnull %__guard.i) #24
  br label %common.resume

if.then.i70:                                      ; preds = %if.then.i
  store ptr %call.i.i.i.i.i8.i, ptr %loop_run_time, align 8, !tbaa !64
  %add.ptr.i.i = getelementptr inbounds %"class.std::__1::vector.23", ptr %call.i.i.i.i.i8.i, i64 %conv
  store ptr %add.ptr.i.i, ptr %__end_cap_.i, align 8, !tbaa !5
  %1 = add nsw i64 %mul.i.i.i.i, -24
  %2 = urem i64 %1, 24
  %3 = sub nuw nsw i64 %1, %2
  %4 = add nuw nsw i64 %3, 24
  tail call void @llvm.memset.p0.i64(ptr nonnull align 8 %call.i.i.i.i.i8.i, i8 0, i64 %4, i1 false)
  %uglygep.i.i = getelementptr i8, ptr %call.i.i.i.i.i8.i, i64 %4
  store ptr %uglygep.i.i, ptr %__end_.i, align 8, !tbaa !63
  call void @llvm.lifetime.end.p0(i64 16, ptr nonnull %__guard.i) #24
  %loop_run_count = getelementptr inbounds %class.LoopStat, ptr %this, i64 0, i32 3
  %__end_.i67 = getelementptr inbounds %class.LoopStat, ptr %this, i64 0, i32 3, i32 1
  tail call void @llvm.memset.p0.i64(ptr noundef nonnull align 8 dereferenceable(24) %loop_run_count, i8 0, i64 24, i1 false)
  %mul.i.i.i.i71 = shl nuw nsw i64 %conv, 3
  %call.i.i.i.i.i8.i72 = invoke noalias noundef nonnull ptr @_Znwm(i64 noundef %mul.i.i.i.i71) #25
          to label %if.then.i77 unwind label %if.then.i9.i

if.then.i9.i:                                     ; preds = %if.then.i70
  %5 = landingpad { ptr, i32 }
          cleanup
  br label %ehcleanup46

if.then.i77:                                      ; preds = %if.then.i70
  %__end_cap_.i68 = getelementptr inbounds %class.LoopStat, ptr %this, i64 0, i32 3, i32 2
  store ptr %call.i.i.i.i.i8.i72, ptr %loop_run_count, align 8, !tbaa !123
  %add.ptr.i.i73 = getelementptr inbounds i64, ptr %call.i.i.i.i.i8.i72, i64 %conv
  store ptr %add.ptr.i.i73, ptr %__end_cap_.i68, align 8, !tbaa !5
  tail call void @llvm.memset.p0.i64(ptr nonnull align 8 %call.i.i.i.i.i8.i72, i8 0, i64 %mul.i.i.i.i71, i1 false), !tbaa !58
  store ptr %add.ptr.i.i73, ptr %__end_.i67, align 8, !tbaa !124
  %mean = getelementptr inbounds %class.LoopStat, ptr %this, i64 0, i32 4
  %__end_.i74 = getelementptr inbounds %class.LoopStat, ptr %this, i64 0, i32 4, i32 1
  tail call void @llvm.memset.p0.i64(ptr noundef nonnull align 8 dereferenceable(24) %mean, i8 0, i64 24, i1 false)
  %mul.i.i.i.i78 = shl nuw nsw i64 %conv, 4
  %call.i.i.i.i.i7.i = invoke noalias noundef nonnull ptr @_Znwm(i64 noundef %mul.i.i.i.i78) #25
          to label %invoke.cont.i unwind label %if.then.i8.i

invoke.cont.i:                                    ; preds = %if.then.i77
  %__end_cap_.i75 = getelementptr inbounds %class.LoopStat, ptr %this, i64 0, i32 4, i32 2
  store ptr %call.i.i.i.i.i7.i, ptr %mean, align 8, !tbaa !65
  store ptr %call.i.i.i.i.i7.i, ptr %__end_.i74, align 8, !tbaa !66
  %add.ptr.i.i79 = getelementptr inbounds x86_fp80, ptr %call.i.i.i.i.i7.i, i64 %conv
  store ptr %add.ptr.i.i79, ptr %__end_cap_.i75, align 8, !tbaa !5
  br label %for.inc.i.i83

for.inc.i.i83:                                    ; preds = %for.inc.i.i83, %invoke.cont.i
  %__tx.sroa.6.015.i.i80 = phi ptr [ %incdec.ptr.i.i81, %for.inc.i.i83 ], [ %call.i.i.i.i.i7.i, %invoke.cont.i ]
  store x86_fp80 0xK00000000000000000000, ptr %__tx.sroa.6.015.i.i80, align 16, !tbaa !70
  %incdec.ptr.i.i81 = getelementptr inbounds x86_fp80, ptr %__tx.sroa.6.015.i.i80, i64 1
  %cmp.not.i.i82 = icmp eq ptr %incdec.ptr.i.i81, %add.ptr.i.i79
  br i1 %cmp.not.i.i82, label %if.then.i90, label %for.inc.i.i83, !llvm.loop !125

if.then.i8.i:                                     ; preds = %if.then.i77
  %6 = landingpad { ptr, i32 }
          cleanup
  br label %ehcleanup45

if.then.i90:                                      ; preds = %for.inc.i.i83
  store ptr %add.ptr.i.i79, ptr %__end_.i74, align 8, !tbaa !66
  %std_dev = getelementptr inbounds %class.LoopStat, ptr %this, i64 0, i32 5
  %__end_.i87 = getelementptr inbounds %class.LoopStat, ptr %this, i64 0, i32 5, i32 1
  tail call void @llvm.memset.p0.i64(ptr noundef nonnull align 8 dereferenceable(24) %std_dev, i8 0, i64 24, i1 false)
  %call.i.i.i.i.i7.i92 = invoke noalias noundef nonnull ptr @_Znwm(i64 noundef %mul.i.i.i.i78) #25
          to label %invoke.cont.i94 unwind label %if.then.i8.i101

invoke.cont.i94:                                  ; preds = %if.then.i90
  %__end_cap_.i88 = getelementptr inbounds %class.LoopStat, ptr %this, i64 0, i32 5, i32 2
  store ptr %call.i.i.i.i.i7.i92, ptr %std_dev, align 8, !tbaa !65
  store ptr %call.i.i.i.i.i7.i92, ptr %__end_.i87, align 8, !tbaa !66
  %add.ptr.i.i93 = getelementptr inbounds x86_fp80, ptr %call.i.i.i.i.i7.i92, i64 %conv
  store ptr %add.ptr.i.i93, ptr %__end_cap_.i88, align 8, !tbaa !5
  br label %for.inc.i.i98

for.inc.i.i98:                                    ; preds = %for.inc.i.i98, %invoke.cont.i94
  %__tx.sroa.6.015.i.i95 = phi ptr [ %incdec.ptr.i.i96, %for.inc.i.i98 ], [ %call.i.i.i.i.i7.i92, %invoke.cont.i94 ]
  store x86_fp80 0xK00000000000000000000, ptr %__tx.sroa.6.015.i.i95, align 16, !tbaa !70
  %incdec.ptr.i.i96 = getelementptr inbounds x86_fp80, ptr %__tx.sroa.6.015.i.i95, i64 1
  %cmp.not.i.i97 = icmp eq ptr %incdec.ptr.i.i96, %add.ptr.i.i93
  br i1 %cmp.not.i.i97, label %if.then.i109, label %for.inc.i.i98, !llvm.loop !125

if.then.i8.i101:                                  ; preds = %if.then.i90
  %7 = landingpad { ptr, i32 }
          cleanup
  br label %ehcleanup44

if.then.i109:                                     ; preds = %for.inc.i.i98
  store ptr %add.ptr.i.i93, ptr %__end_.i87, align 8, !tbaa !66
  %min = getelementptr inbounds %class.LoopStat, ptr %this, i64 0, i32 6
  %__end_.i106 = getelementptr inbounds %class.LoopStat, ptr %this, i64 0, i32 6, i32 1
  tail call void @llvm.memset.p0.i64(ptr noundef nonnull align 8 dereferenceable(24) %min, i8 0, i64 24, i1 false)
  %call.i.i.i.i.i7.i111 = invoke noalias noundef nonnull ptr @_Znwm(i64 noundef %mul.i.i.i.i78) #25
          to label %invoke.cont.i113 unwind label %if.then.i8.i120

invoke.cont.i113:                                 ; preds = %if.then.i109
  %__end_cap_.i107 = getelementptr inbounds %class.LoopStat, ptr %this, i64 0, i32 6, i32 2
  store ptr %call.i.i.i.i.i7.i111, ptr %min, align 8, !tbaa !65
  store ptr %call.i.i.i.i.i7.i111, ptr %__end_.i106, align 8, !tbaa !66
  %add.ptr.i.i112 = getelementptr inbounds x86_fp80, ptr %call.i.i.i.i.i7.i111, i64 %conv
  store ptr %add.ptr.i.i112, ptr %__end_cap_.i107, align 8, !tbaa !5
  br label %for.inc.i.i117

for.inc.i.i117:                                   ; preds = %for.inc.i.i117, %invoke.cont.i113
  %__tx.sroa.6.015.i.i114 = phi ptr [ %incdec.ptr.i.i115, %for.inc.i.i117 ], [ %call.i.i.i.i.i7.i111, %invoke.cont.i113 ]
  store x86_fp80 0xK00000000000000000000, ptr %__tx.sroa.6.015.i.i114, align 16, !tbaa !70
  %incdec.ptr.i.i115 = getelementptr inbounds x86_fp80, ptr %__tx.sroa.6.015.i.i114, i64 1
  %cmp.not.i.i116 = icmp eq ptr %incdec.ptr.i.i115, %add.ptr.i.i112
  br i1 %cmp.not.i.i116, label %if.then.i128, label %for.inc.i.i117, !llvm.loop !125

if.then.i8.i120:                                  ; preds = %if.then.i109
  %8 = landingpad { ptr, i32 }
          cleanup
  br label %ehcleanup43

if.then.i128:                                     ; preds = %for.inc.i.i117
