; ModuleID = '/local/mnt2/workspace2/mnadeem/llvm/llvm-test-suite/MicroBenchmarks/libs/benchmark/src/benchmark.cc'
source_filename = "/local/mnt2/workspace2/mnadeem/llvm/llvm-test-suite/MicroBenchmarks/libs/benchmark/src/benchmark.cc"
target datalayout = "e-m:e-p270:32:32-p271:32:32-p272:64:64-i64:64-f80:128-n8:16:32:64-S128"
target triple = "x86_64-unknown-linux-gnu"

%"class.std::__1::basic_string" = type { %"class.std::__1::__compressed_pair" }
%"class.std::__1::__compressed_pair" = type { %"struct.std::__1::__compressed_pair_elem" }
%"struct.std::__1::__compressed_pair_elem" = type { %"struct.std::__1::basic_string<char>::__rep" }
%"struct.std::__1::basic_string<char>::__rep" = type { %union.anon }
%union.anon = type { %"struct.std::__1::basic_string<char>::__long" }
%"struct.std::__1::basic_string<char>::__long" = type { %struct.anon, i64, ptr }
%struct.anon = type { i64 }
%"class.std::__1::map" = type { %"class.std::__1::__tree" }
%"class.std::__1::__tree" = type { ptr, %"class.std::__1::__compressed_pair.2", %"class.std::__1::__compressed_pair.8" }
%"class.std::__1::__compressed_pair.2" = type { %"struct.std::__1::__compressed_pair_elem.3" }
%"struct.std::__1::__compressed_pair_elem.3" = type { %"class.std::__1::__tree_end_node" }
%"class.std::__1::__tree_end_node" = type { ptr }
%"class.std::__1::__compressed_pair.8" = type { %"struct.std::__1::__compressed_pair_elem.9" }
%"struct.std::__1::__compressed_pair_elem.9" = type { i64 }
%"class.std::__1::basic_ostream" = type { ptr, %"class.std::__1::basic_ios.base" }
%"class.std::__1::basic_ios.base" = type <{ %"class.std::__1::ios_base", ptr, i32 }>
%"class.std::__1::ios_base" = type { ptr, i32, i64, i64, i32, i32, ptr, ptr, ptr, ptr, i64, i64, ptr, i64, i64, ptr, i64, i64 }
%"class.std::__1::ios_base::Init" = type { i8 }
%"class.benchmark::internal::LogType" = type { ptr }
%"class.benchmark::Mutex" = type { %"class.std::__1::mutex" }
%"class.std::__1::mutex" = type { %union.pthread_mutex_t }
%union.pthread_mutex_t = type { %"struct.(anonymous union)::__pthread_mutex_s" }
%"struct.(anonymous union)::__pthread_mutex_s" = type { i32, i32, i32, i32, i32, i16, i16, %struct.__pthread_internal_list }
%struct.__pthread_internal_list = type { ptr, ptr }
%"class.benchmark::internal::PerfCounters" = type { %"class.std::__1::vector.69", %"class.std::__1::vector.41" }
%"class.std::__1::vector.69" = type { ptr, ptr, %"class.std::__1::__compressed_pair.70" }
%"class.std::__1::__compressed_pair.70" = type { %"struct.std::__1::__compressed_pair_elem.71" }
%"struct.std::__1::__compressed_pair_elem.71" = type { ptr }
%"class.std::__1::vector.41" = type { ptr, ptr, %"class.std::__1::__compressed_pair.42" }
%"class.std::__1::__compressed_pair.42" = type { %"struct.std::__1::__compressed_pair_elem.43" }
%"struct.std::__1::__compressed_pair_elem.43" = type { ptr }
%"struct.std::__1::piecewise_construct_t" = type { i8 }
%"class.std::__1::locale::id" = type <{ %"struct.std::__1::once_flag", i32, [4 x i8] }>
%"struct.std::__1::once_flag" = type { i64 }
%"class.benchmark::State" = type { i64, i64, i64, i8, i8, i8, %"class.std::__1::vector", i64, %"class.std::__1::map.17", i32, i32, ptr, ptr, ptr }
%"class.std::__1::vector" = type { ptr, ptr, %"class.std::__1::__compressed_pair.11" }
%"class.std::__1::__compressed_pair.11" = type { %"struct.std::__1::__compressed_pair_elem.12" }
%"struct.std::__1::__compressed_pair_elem.12" = type { ptr }
%"class.std::__1::map.17" = type { %"class.std::__1::__tree.18" }
%"class.std::__1::__tree.18" = type { ptr, %"class.std::__1::__compressed_pair.19", %"class.std::__1::__compressed_pair.24" }
%"class.std::__1::__compressed_pair.19" = type { %"struct.std::__1::__compressed_pair_elem.3" }
%"class.std::__1::__compressed_pair.24" = type { %"struct.std::__1::__compressed_pair_elem.9" }
%"class.std::__1::tuple.241" = type { %"struct.std::__1::__tuple_impl.242" }
%"struct.std::__1::__tuple_impl.242" = type { %"class.std::__1::__tuple_leaf.243" }
%"class.std::__1::__tuple_leaf.243" = type { ptr }
%"class.std::__1::tuple.174" = type { i8 }
%"struct.std::__1::pair" = type { %"class.std::__1::basic_string", double }
%"class.std::__1::vector.29" = type { ptr, ptr, %"class.std::__1::__compressed_pair.30" }
%"class.std::__1::__compressed_pair.30" = type { %"struct.std::__1::__compressed_pair_elem.31" }
%"struct.std::__1::__compressed_pair_elem.31" = type { ptr }
%"class.benchmark::internal::ThreadTimer" = type { i8, i8, double, double, double, double, double }
%"class.benchmark::internal::PerfCountersMeasurement" = type { i8, %"class.benchmark::internal::PerfCounterValues", %"class.benchmark::internal::PerfCounterValues" }
%"class.benchmark::internal::PerfCounterValues" = type { %"struct.std::__1::array", i64 }
%"struct.std::__1::array" = type { [4 x i64] }
%"class.std::__1::__tree_node.200" = type { %"class.std::__1::__tree_node_base.base", %"struct.std::__1::__value_type.201" }
%"class.std::__1::__tree_node_base.base" = type <{ %"class.std::__1::__tree_end_node", ptr, ptr, i8 }>
%"struct.std::__1::__value_type.201" = type { %"struct.std::__1::pair.197" }
%"struct.std::__1::pair.197" = type { %"class.std::__1::basic_string", %"class.benchmark::Counter" }
%"class.benchmark::Counter" = type { double, i32, i32 }
%"class.benchmark::internal::ThreadManager" = type { %"struct.benchmark::internal::ThreadManager::Result", %"class.benchmark::Mutex", %"struct.std::__1::atomic", [4 x i8], %"class.benchmark::Barrier", %"class.benchmark::Mutex", %"class.std::__1::condition_variable" }
%"struct.benchmark::internal::ThreadManager::Result" = type { i64, double, double, double, i64, %"class.std::__1::basic_string", %"class.std::__1::basic_string", i8, %"class.std::__1::map.17" }
%"struct.std::__1::atomic" = type { %"struct.std::__1::__atomic_base" }
%"struct.std::__1::__atomic_base" = type { %"struct.std::__1::__atomic_base.27" }
%"struct.std::__1::__atomic_base.27" = type { %"struct.std::__1::__cxx_atomic_impl" }
%"struct.std::__1::__cxx_atomic_impl" = type { %"struct.std::__1::__cxx_atomic_base_impl" }
%"struct.std::__1::__cxx_atomic_base_impl" = type { i32 }
%"class.benchmark::Barrier" = type <{ %"class.benchmark::Mutex", %"class.std::__1::condition_variable", i32, i32, i32, [4 x i8] }>
%"class.std::__1::condition_variable" = type { %union.pthread_cond_t }
%union.pthread_cond_t = type { %struct.anon.28 }
%struct.anon.28 = type { i32, i32, i64, i64, i64, ptr, i32, i32 }
%"struct.std::__1::basic_string<char>::__short" = type { %struct.anon.0, [0 x i8], [23 x i8] }
%struct.anon.0 = type { i8 }
%"class.std::__1::unique_ptr" = type { %"class.std::__1::__compressed_pair.36" }
%"class.std::__1::__compressed_pair.36" = type { %"struct.std::__1::__compressed_pair_elem.37" }
%"struct.std::__1::__compressed_pair_elem.37" = type { ptr }
%"class.benchmark::ConsoleReporter" = type <{ %"class.benchmark::BenchmarkReporter", i32, [4 x i8], i64, %"class.std::__1::map.17", i8, [7 x i8] }>
%"class.benchmark::BenchmarkReporter" = type { ptr, ptr, ptr }
%"class.benchmark::JSONReporter" = type <{ %"class.benchmark::BenchmarkReporter", i8, [7 x i8] }>
%"class.benchmark::CSVReporter" = type { %"class.benchmark::BenchmarkReporter", i8, %"class.std::__1::set" }
%"class.std::__1::set" = type { %"class.std::__1::__tree.92" }
%"class.std::__1::__tree.92" = type { ptr, %"class.std::__1::__compressed_pair.93", %"class.std::__1::__compressed_pair.98" }
%"class.std::__1::__compressed_pair.93" = type { %"struct.std::__1::__compressed_pair_elem.3" }
%"class.std::__1::__compressed_pair.98" = type { %"struct.std::__1::__compressed_pair_elem.9" }
%"class.std::__1::uniform_int_distribution" = type { %"class.std::__1::uniform_int_distribution<long>::param_type" }
%"class.std::__1::uniform_int_distribution<long>::param_type" = type { i64, i64 }
%"struct.benchmark::BenchmarkReporter::Context" = type { ptr, ptr, i64 }
%"class.std::__1::map.109" = type { %"class.std::__1::__tree.110" }
%"class.std::__1::__tree.110" = type { ptr, %"class.std::__1::__compressed_pair.111", %"class.std::__1::__compressed_pair.116" }
%"class.std::__1::__compressed_pair.111" = type { %"struct.std::__1::__compressed_pair_elem.3" }
%"class.std::__1::__compressed_pair.116" = type { %"struct.std::__1::__compressed_pair_elem.9" }
%"class.std::__1::vector.121" = type { ptr, ptr, %"class.std::__1::__compressed_pair.143" }
%"class.std::__1::__compressed_pair.143" = type { %"struct.std::__1::__compressed_pair_elem.144" }
%"struct.std::__1::__compressed_pair_elem.144" = type { ptr }
%"class.std::__1::vector.149" = type { ptr, ptr, %"class.std::__1::__compressed_pair.150" }
%"class.std::__1::__compressed_pair.150" = type { %"struct.std::__1::__compressed_pair_elem.151" }
%"struct.std::__1::__compressed_pair_elem.151" = type { ptr }
%"class.std::__1::random_device" = type { i32 }
%"class.std::__1::mersenne_twister_engine" = type { [624 x i64], i64 }
%"struct.benchmark::internal::RunResults" = type <{ %"class.std::__1::vector.122", %"class.std::__1::vector.122", i8, i8, [6 x i8] }>
%"class.std::__1::vector.122" = type { ptr, ptr, %"class.std::__1::__compressed_pair.123" }
%"class.std::__1::__compressed_pair.123" = type { %"struct.std::__1::__compressed_pair_elem.124" }
%"struct.std::__1::__compressed_pair_elem.124" = type { ptr }
%"class.std::__1::basic_ofstream" = type { %"class.std::__1::basic_ostream.base", %"class.std::__1::basic_filebuf", %"class.std::__1::basic_ios.base" }
%"class.std::__1::basic_ostream.base" = type { ptr }
%"class.std::__1::basic_filebuf" = type <{ %"class.std::__1::basic_streambuf", ptr, ptr, ptr, [8 x i8], i64, ptr, i64, ptr, ptr, %struct.__mbstate_t, %struct.__mbstate_t, i32, i32, i8, i8, i8, [5 x i8] }>
%"class.std::__1::basic_streambuf" = type { ptr, %"class.std::__1::locale", ptr, ptr, ptr, ptr, ptr, ptr }
%"class.std::__1::locale" = type { ptr }
%struct.__mbstate_t = type { i32, %union.anon.39 }
%union.anon.39 = type { i32 }
%"class.std::__1::vector.40" = type { ptr, ptr, %"class.std::__1::__compressed_pair.76" }
%"class.std::__1::__compressed_pair.76" = type { %"struct.std::__1::__compressed_pair_elem.77" }
%"struct.std::__1::__compressed_pair_elem.77" = type { ptr }
%"class.benchmark::internal::BenchmarkInstance" = type { %"struct.benchmark::BenchmarkName", ptr, i32, i32, i32, ptr, i32, i8, i8, i8, i32, ptr, %"class.std::__1::map.17", ptr, i32, double, i64, i32, ptr, ptr }
%"struct.benchmark::BenchmarkName" = type { %"class.std::__1::basic_string", %"class.std::__1::basic_string", %"class.std::__1::basic_string", %"class.std::__1::basic_string", %"class.std::__1::basic_string", %"class.std::__1::basic_string", %"class.std::__1::basic_string" }
%"class.std::__1::vector.55" = type { ptr, ptr, %"class.std::__1::__compressed_pair.63" }
%"class.std::__1::__compressed_pair.63" = type { %"struct.std::__1::__compressed_pair_elem.64" }
%"struct.std::__1::__compressed_pair_elem.64" = type { ptr }
%"struct.benchmark::internal::Statistics" = type <{ %"class.std::__1::basic_string", ptr, i32, [4 x i8] }>
%"class.std::__1::__tree_node" = type { %"class.std::__1::__tree_node_base.base", %"struct.std::__1::__value_type" }
%"struct.std::__1::__value_type" = type { %"struct.std::__1::pair.170" }
%"struct.std::__1::pair.170" = type { i32, %"struct.benchmark::BenchmarkReporter::PerFamilyRunReports" }
%"struct.benchmark::BenchmarkReporter::PerFamilyRunReports" = type { i32, i32, %"class.std::__1::vector.122" }
%"class.std::__1::__tree_node_base" = type <{ %"class.std::__1::__tree_end_node", ptr, ptr, i8, [7 x i8] }>
%"class.benchmark::internal::BenchmarkRunner" = type { %"struct.benchmark::internal::RunResults", ptr, ptr, double, i32, i8, i32, %"class.std::__1::vector.129", %"class.std::__1::vector.136", i64, %"class.benchmark::internal::PerfCountersMeasurement", ptr }
%"class.std::__1::vector.129" = type { ptr, ptr, %"class.std::__1::__compressed_pair.130" }
%"class.std::__1::__compressed_pair.130" = type { %"struct.std::__1::__compressed_pair_elem.131" }
%"struct.std::__1::__compressed_pair_elem.131" = type { ptr }
%"class.std::__1::vector.136" = type { ptr, ptr, %"class.std::__1::__compressed_pair.137" }
%"class.std::__1::__compressed_pair.137" = type { %"struct.std::__1::__compressed_pair_elem.138" }
%"struct.std::__1::__compressed_pair_elem.138" = type { ptr }
%"struct.benchmark::BenchmarkReporter::Run" = type { %"struct.benchmark::BenchmarkName", i64, i64, i32, %"class.std::__1::basic_string", i32, %"class.std::__1::basic_string", i8, %"class.std::__1::basic_string", i64, i64, i64, i64, i32, double, double, double, i32, ptr, i64, ptr, i8, i8, %"class.std::__1::map.17", ptr, double }
%"class.std::__1::__tree_node.231" = type { %"class.std::__1::__tree_node_base.base", %"struct.std::__1::__value_type.232" }
%"struct.std::__1::__value_type.232" = type { %"struct.std::__1::pair.84" }
%"struct.std::__1::pair.84" = type { %"class.std::__1::basic_string", %"class.std::__1::basic_string" }
%"class.benchmark::MutexLock" = type { %"class.std::__1::unique_lock" }
%"class.std::__1::unique_lock" = type <{ ptr, i8, [7 x i8] }>
%"struct.std::__1::__exception_guard_exceptions.192" = type <{ %"class.std::__1::_AllocatorDestroyRangeReverse.193", i8, [7 x i8] }>
%"class.std::__1::_AllocatorDestroyRangeReverse.193" = type { ptr, ptr, ptr }
%"struct.std::__1::__split_buffer.189" = type { ptr, ptr, ptr, %"class.std::__1::__compressed_pair.190" }
%"class.std::__1::__compressed_pair.190" = type { %"struct.std::__1::__compressed_pair_elem.124", %"struct.std::__1::__compressed_pair_elem.191" }
%"struct.std::__1::__compressed_pair_elem.191" = type { ptr }
%"struct.std::__1::__split_buffer.160" = type { ptr, ptr, ptr, %"class.std::__1::__compressed_pair.161" }
%"class.std::__1::__compressed_pair.161" = type { %"struct.std::__1::__compressed_pair_elem.144", %"struct.std::__1::__compressed_pair_elem.162" }
%"struct.std::__1::__compressed_pair_elem.162" = type { ptr }
%"class.std::__1::thread" = type { i64 }
%"class.std::__1::__independent_bits_engine" = type { ptr, i64, i64, i64, i64, i64, i64, i64, i64 }
%"struct.std::__1::__tree<std::__1::__value_type<std::__1::string, benchmark::Counter>, std::__1::__map_value_compare<std::__1::string, std::__1::__value_type<std::__1::string, benchmark::Counter>, std::__1::less<std::__1::string>>, std::__1::allocator<std::__1::__value_type<std::__1::string, benchmark::Counter>>>::_DetachedTreeCache" = type { ptr, ptr, ptr }
%"class.std::__1::unique_ptr.202" = type { %"class.std::__1::__compressed_pair.203" }
%"class.std::__1::__compressed_pair.203" = type { %"struct.std::__1::__compressed_pair_elem.204", %"struct.std::__1::__compressed_pair_elem.205" }
%"struct.std::__1::__compressed_pair_elem.204" = type { ptr }
%"struct.std::__1::__compressed_pair_elem.205" = type { %"class.std::__1::__tree_node_destructor.206" }
%"class.std::__1::__tree_node_destructor.206" = type <{ ptr, i8, [7 x i8] }>
%"class.std::__1::basic_ostream<char>::sentry" = type { i8, ptr }
%"class.std::__1::basic_ios" = type <{ %"class.std::__1::ios_base", ptr, i32, [4 x i8] }>

$_ZNSt3__13mapINS_12basic_stringIcNS_11char_traitsIcEENS_9allocatorIcEEEES6_NS_4lessIS6_EENS4_INS_4pairIKS6_S6_EEEEED2B7v170000Ev = comdat any

$_ZNSt3__16vectorINS_4pairINS_12basic_stringIcNS_11char_traitsIcEENS_9allocatorIcEEEEdEENS5_IS8_EEED2B7v170000Ev = comdat any

$_ZNSt3__1lsB7v170000INS_11char_traitsIcEEEERNS_13basic_ostreamIcT_EES6_PKc = comdat any

$_ZNSt3__14endlB7v170000IcNS_11char_traitsIcEEEERNS_13basic_ostreamIT_T0_EES7_ = comdat any

$_ZNSt3__1lsB7v170000IcNS_11char_traitsIcEENS_9allocatorIcEEEERNS_13basic_ostreamIT_T0_EES9_RKNS_12basic_stringIS6_S7_T1_EE = comdat any

$_ZNSt3__16vectorIN9benchmark8internal17BenchmarkInstanceENS_9allocatorIS3_EEED2B7v170000Ev = comdat any

$_ZNSt3__114basic_ofstreamIcNS_11char_traitsIcEEED1Ev = comdat any

$_ZNSt3__16vectorINS_4pairINS_12basic_stringIcNS_11char_traitsIcEENS_9allocatorIcEEEEdEENS5_IS8_EEE21__push_back_slow_pathIS8_EEvOT_ = comdat any

$_ZNKSt3__16vectorINS_4pairINS_12basic_stringIcNS_11char_traitsIcEENS_9allocatorIcEEEEdEENS5_IS8_EEE20__throw_length_errorB7v170000Ev = comdat any

$__clang_call_terminate = comdat any

$_ZNSt3__120__throw_length_errorB7v170000EPKc = comdat any

$_ZNSt12length_errorC2B7v170000EPKc = comdat any

$_ZSt28__throw_bad_array_new_lengthB7v170000v = comdat any

$_ZN9benchmark7Barrier4waitEv = comdat any

$_ZNSt3__16vectorIN9benchmark8internal15BenchmarkRunnerENS_9allocatorIS3_EEE7reserveEm = comdat any

$_ZNSt3__16vectorIN9benchmark17BenchmarkReporter3RunENS_9allocatorIS3_EEE6insertINS_11__wrap_iterIPS3_EELi0EEESA_NS8_IPKS3_EET_SE_ = comdat any

$_ZNSt3__16vectorIN9benchmark17BenchmarkReporter3RunENS_9allocatorIS3_EEED2B7v170000Ev = comdat any

$_ZN9benchmark8internal10RunResultsD2Ev = comdat any

$_ZNSt3__16vectorIN9benchmark8internal15BenchmarkRunnerENS_9allocatorIS3_EEED2B7v170000Ev = comdat any

$_ZNKSt3__16vectorIN9benchmark8internal15BenchmarkRunnerENS_9allocatorIS3_EEE20__throw_length_errorB7v170000Ev = comdat any

$_ZNSt3__114__split_bufferIN9benchmark8internal15BenchmarkRunnerERNS_9allocatorIS3_EEED2Ev = comdat any

$_ZN9benchmark8internal15BenchmarkRunnerD2Ev = comdat any

$_ZNSt3__127__tree_balance_after_insertB7v170000IPNS_16__tree_node_baseIPvEEEEvT_S5_ = comdat any

$_ZNSt3__16vectorIN9benchmark8internal15BenchmarkRunnerENS_9allocatorIS3_EEE24__emplace_back_slow_pathIJRKNS2_17BenchmarkInstanceERPNS1_17BenchmarkReporter19PerFamilyRunReportsEEEEvDpOT_ = comdat any

$_ZNKSt3__16vectorImNS_9allocatorImEEE20__throw_length_errorB7v170000Ev = comdat any

$_ZNSt3__124uniform_int_distributionIlEclINS_23mersenne_twister_engineImLm32ELm624ELm397ELm31ELm2567483615ELm11ELm4294967295ELm7ELm2636928640ELm15ELm4022730752ELm18ELm1812433253EEEEElRT_RKNS1_10param_typeE = comdat any

$_ZNSt3__125__independent_bits_engineINS_23mersenne_twister_engineImLm32ELm624ELm397ELm31ELm2567483615ELm11ELm4294967295ELm7ELm2636928640ELm15ELm4022730752ELm18ELm1812433253EEEmE6__evalENS_17integral_constantIbLb1EEE = comdat any

$_ZNSt3__16vectorIN9benchmark17BenchmarkReporter3RunENS_9allocatorIS3_EEE12__move_rangeEPS3_S7_S7_ = comdat any

$_ZNSt3__16vectorIN9benchmark17BenchmarkReporter3RunENS_9allocatorIS3_EEE26__swap_out_circular_bufferERNS_14__split_bufferIS3_RS5_EEPS3_ = comdat any

$_ZNSt3__114__split_bufferIN9benchmark17BenchmarkReporter3RunERNS_9allocatorIS3_EEED2Ev = comdat any

$_ZNSt3__128__exception_guard_exceptionsINS_29_AllocatorDestroyRangeReverseINS_9allocatorIN9benchmark17BenchmarkReporter3RunEEEPS5_EEED2B7v170000Ev = comdat any

$_ZN9benchmark17BenchmarkReporter3RunC2ERKS1_ = comdat any

$_ZN9benchmark13BenchmarkNameC2ERKS0_ = comdat any

$_ZN9benchmark13BenchmarkNameD2Ev = comdat any

$_ZNSt3__16__treeINS_12__value_typeINS_12basic_stringIcNS_11char_traitsIcEENS_9allocatorIcEEEEN9benchmark7CounterEEENS_19__map_value_compareIS7_SA_NS_4lessIS7_EELb1EEENS5_ISA_EEE30__emplace_hint_unique_key_argsIS7_JRKNS_4pairIKS7_S9_EEEEENSI_INS_15__tree_iteratorISA_PNS_11__tree_nodeISA_PvEElEEbEENS_21__tree_const_iteratorISA_SR_lEERKT_DpOT0_ = comdat any

$_ZNSt3__16__treeINS_12__value_typeINS_12basic_stringIcNS_11char_traitsIcEENS_9allocatorIcEEEEN9benchmark7CounterEEENS_19__map_value_compareIS7_SA_NS_4lessIS7_EELb1EEENS5_ISA_EEE12__find_equalIS7_EERPNS_16__tree_node_baseIPvEENS_21__tree_const_iteratorISA_PNS_11__tree_nodeISA_SJ_EElEERPNS_15__tree_end_nodeISL_EESM_RKT_ = comdat any

$_ZNSt3__110unique_ptrINS_11__tree_nodeINS_12__value_typeINS_12basic_stringIcNS_11char_traitsIcEENS_9allocatorIcEEEEN9benchmark7CounterEEEPvEENS_22__tree_node_destructorINS6_ISD_EEEEED2B7v170000Ev = comdat any

$_ZNSt3__16__treeINS_12__value_typeINS_12basic_stringIcNS_11char_traitsIcEENS_9allocatorIcEEEEN9benchmark7CounterEEENS_19__map_value_compareIS7_SA_NS_4lessIS7_EELb1EEENS5_ISA_EEE12__find_equalIS7_EERPNS_16__tree_node_baseIPvEERPNS_15__tree_end_nodeISL_EERKT_ = comdat any

$_ZNSt3__16__treeINS_12__value_typeINS_12basic_stringIcNS_11char_traitsIcEENS_9allocatorIcEEEEN9benchmark7CounterEEENS_19__map_value_compareIS7_SA_NS_4lessIS7_EELb1EEENS5_ISA_EEE7destroyEPNS_11__tree_nodeISA_PvEE = comdat any

$_ZNKSt3__129_AllocatorDestroyRangeReverseINS_9allocatorIN9benchmark17BenchmarkReporter3RunEEEPS4_EclB7v170000Ev = comdat any

$_ZN9benchmark17BenchmarkReporter3RunaSEOS1_ = comdat any

$_ZN9benchmark13BenchmarkNameaSEOS0_ = comdat any

$_ZN9benchmark17BenchmarkReporter3RunaSERKS1_ = comdat any

$_ZNSt3__16__treeINS_12__value_typeINS_12basic_stringIcNS_11char_traitsIcEENS_9allocatorIcEEEEN9benchmark7CounterEEENS_19__map_value_compareIS7_SA_NS_4lessIS7_EELb1EEENS5_ISA_EEE14__assign_multiINS_21__tree_const_iteratorISA_PNS_11__tree_nodeISA_PvEElEEEEvT_SO_ = comdat any

$_ZNSt3__16__treeINS_12__value_typeINS_12basic_stringIcNS_11char_traitsIcEENS_9allocatorIcEEEEN9benchmark7CounterEEENS_19__map_value_compareIS7_SA_NS_4lessIS7_EELb1EEENS5_ISA_EEE19__node_insert_multiEPNS_11__tree_nodeISA_PvEE = comdat any

$_ZNSt3__16__treeINS_12__value_typeINS_12basic_stringIcNS_11char_traitsIcEENS_9allocatorIcEEEEN9benchmark7CounterEEENS_19__map_value_compareIS7_SA_NS_4lessIS7_EELb1EEENS5_ISA_EEE18_DetachedTreeCacheD2B7v170000Ev = comdat any

$_ZNSt3__16__treeINS_12__value_typeINS_12basic_stringIcNS_11char_traitsIcEENS_9allocatorIcEEEEN9benchmark7CounterEEENS_19__map_value_compareIS7_SA_NS_4lessIS7_EELb1EEENS5_ISA_EEE15__emplace_multiIJRKNS_4pairIKS7_S9_EEEEENS_15__tree_iteratorISA_PNS_11__tree_nodeISA_PvEElEEDpOT_ = comdat any

$_ZNKSt3__16vectorIN9benchmark17BenchmarkReporter3RunENS_9allocatorIS3_EEE20__throw_length_errorB7v170000Ev = comdat any

$_ZNSt3__114__split_bufferIN9benchmark17BenchmarkReporter3RunERNS_9allocatorIS3_EEE17__destruct_at_endB7v170000EPS3_ = comdat any

$_ZNSt3__16__treeINS_12__value_typeIiN9benchmark17BenchmarkReporter19PerFamilyRunReportsEEENS_19__map_value_compareIiS5_NS_4lessIiEELb1EEENS_9allocatorIS5_EEE14__erase_uniqueIiEEmRKT_ = comdat any

$_ZNSt3__113__tree_removeB7v170000IPNS_16__tree_node_baseIPvEEEEvT_S5_ = comdat any

$_ZNSt3__16vectorIN9benchmark17BenchmarkReporter3RunENS_9allocatorIS3_EEE22__base_destruct_at_endB7v170000EPS3_ = comdat any

$_ZNSt3__16__treeINS_12__value_typeIiN9benchmark17BenchmarkReporter19PerFamilyRunReportsEEENS_19__map_value_compareIiS5_NS_4lessIiEELb1EEENS_9allocatorIS5_EEE7destroyEPNS_11__tree_nodeIS5_PvEE = comdat any

$_ZTv0_n24_NSt3__114basic_ofstreamIcNS_11char_traitsIcEEED1Ev = comdat any

$_ZNSt3__114basic_ofstreamIcNS_11char_traitsIcEEED0Ev = comdat any

$_ZTv0_n24_NSt3__114basic_ofstreamIcNS_11char_traitsIcEEED0Ev = comdat any

$_ZNSt3__113basic_filebufIcNS_11char_traitsIcEEED2Ev = comdat any

$_ZNSt3__113basic_filebufIcNS_11char_traitsIcEEED0Ev = comdat any

$_ZNSt3__113basic_filebufIcNS_11char_traitsIcEEE5imbueERKNS_6localeE = comdat any

$_ZNSt3__113basic_filebufIcNS_11char_traitsIcEEE6setbufEPcl = comdat any

$_ZNSt3__113basic_filebufIcNS_11char_traitsIcEEE7seekoffExNS_8ios_base7seekdirEj = comdat any

$_ZNSt3__113basic_filebufIcNS_11char_traitsIcEEE7seekposENS_4fposI11__mbstate_tEEj = comdat any

$_ZNSt3__113basic_filebufIcNS_11char_traitsIcEEE4syncEv = comdat any

$_ZNSt3__113basic_filebufIcNS_11char_traitsIcEEE9underflowEv = comdat any

$_ZNSt3__113basic_filebufIcNS_11char_traitsIcEEE9pbackfailEi = comdat any

$_ZNSt3__113basic_filebufIcNS_11char_traitsIcEEE8overflowEi = comdat any

$_ZNSt3__116__throw_bad_castB7v170000Ev = comdat any

$_ZNKSt3__112basic_stringIcNS_11char_traitsIcEENS_9allocatorIcEEE20__throw_length_errorB7v170000Ev = comdat any

$_ZNSt3__16__treeINS_12__value_typeINS_12basic_stringIcNS_11char_traitsIcEENS_9allocatorIcEEEES7_EENS_19__map_value_compareIS7_S8_NS_4lessIS7_EELb1EEENS5_IS8_EEE7destroyEPNS_11__tree_nodeIS8_PvEE = comdat any

$_ZNKSt3__16vectorIlNS_9allocatorIlEEE20__throw_length_errorB7v170000Ev = comdat any

$_ZNSt3__16__treeINS_12__value_typeINS_12basic_stringIcNS_11char_traitsIcEENS_9allocatorIcEEEEN9benchmark7CounterEEENS_19__map_value_compareIS7_SA_NS_4lessIS7_EELb1EEENS5_ISA_EEE25__emplace_unique_key_argsIS7_JRKNS_21piecewise_construct_tENS_5tupleIJRKS7_EEENSL_IJEEEEEENS_4pairINS_15__tree_iteratorISA_PNS_11__tree_nodeISA_PvEElEEbEERKT_DpOT0_ = comdat any

$_ZNSt3__124__put_character_sequenceB7v170000IcNS_11char_traitsIcEEEERNS_13basic_ostreamIT_T0_EES7_PKS4_m = comdat any

$_ZNSt3__116__pad_and_outputB7v170000IcNS_11char_traitsIcEEEENS_19ostreambuf_iteratorIT_T0_EES6_PKS4_S8_S8_RNS_8ios_baseES4_ = comdat any

$_ZNSt3__113basic_filebufIcNS_11char_traitsIcEEEC2Ev = comdat any

$_ZNSt3__16__treeINS_12__value_typeINS_12basic_stringIcNS_11char_traitsIcEENS_9allocatorIcEEEES7_EENS_19__map_value_compareIS7_S8_NS_4lessIS7_EELb1EEENS5_IS8_EEE25__emplace_unique_key_argsIS7_JRKS7_SH_EEENS_4pairINS_15__tree_iteratorIS8_PNS_11__tree_nodeIS8_PvEElEEbEERKT_DpOT0_ = comdat any

$_ZNSt3__16__treeINS_12__value_typeINS_12basic_stringIcNS_11char_traitsIcEENS_9allocatorIcEEEES7_EENS_19__map_value_compareIS7_S8_NS_4lessIS7_EELb1EEENS5_IS8_EEE12__find_equalIS7_EERPNS_16__tree_node_baseIPvEERPNS_15__tree_end_nodeISJ_EERKT_ = comdat any

$_ZZN9benchmark8internal18GetNullLogInstanceEvE3log = comdat any

$_ZGVZN9benchmark8internal18GetNullLogInstanceEvE3log = comdat any

$_ZTVNSt3__114basic_ofstreamIcNS_11char_traitsIcEEEE = comdat any

$_ZTTNSt3__114basic_ofstreamIcNS_11char_traitsIcEEEE = comdat any

$_ZTCNSt3__114basic_ofstreamIcNS_11char_traitsIcEEEE0_NS_13basic_ostreamIcS2_EE = comdat any

$_ZTSNSt3__114basic_ofstreamIcNS_11char_traitsIcEEEE = comdat any

$_ZTINSt3__114basic_ofstreamIcNS_11char_traitsIcEEEE = comdat any

$_ZTVNSt3__113basic_filebufIcNS_11char_traitsIcEEEE = comdat any

$_ZTSNSt3__113basic_filebufIcNS_11char_traitsIcEEEE = comdat any

$_ZTINSt3__113basic_filebufIcNS_11char_traitsIcEEEE = comdat any

$_ZZN9benchmark8internal8LogLevelEvE9log_level = comdat any

@_ZN9benchmark26FLAGS_benchmark_list_testsE = hidden global i8 0, align 1
@.str = private unnamed_addr constant [21 x i8] c"benchmark_list_tests\00", align 1
@_ZN9benchmark22FLAGS_benchmark_filterE = hidden global %"class.std::__1::basic_string" zeroinitializer, align 8
@.str.4 = private unnamed_addr constant [17 x i8] c"benchmark_filter\00", align 1
@.str.5 = private unnamed_addr constant [1 x i8] zeroinitializer, align 1
@__dso_handle = external hidden global i8
@_ZN9benchmark24FLAGS_benchmark_min_timeE = hidden global double 0.000000e+00, align 8
@.str.7 = private unnamed_addr constant [19 x i8] c"benchmark_min_time\00", align 1
@_ZN9benchmark27FLAGS_benchmark_repetitionsE = hidden global i32 0, align 4
@.str.9 = private unnamed_addr constant [22 x i8] c"benchmark_repetitions\00", align 1
@_ZN9benchmark42FLAGS_benchmark_enable_random_interleavingE = hidden global i8 0, align 1
@.str.11 = private unnamed_addr constant [37 x i8] c"benchmark_enable_random_interleaving\00", align 1
@_ZN9benchmark38FLAGS_benchmark_report_aggregates_onlyE = hidden global i8 0, align 1
@.str.13 = private unnamed_addr constant [33 x i8] c"benchmark_report_aggregates_only\00", align 1
@_ZN9benchmark39FLAGS_benchmark_display_aggregates_onlyE = hidden global i8 0, align 1
@.str.15 = private unnamed_addr constant [34 x i8] c"benchmark_display_aggregates_only\00", align 1
@_ZN9benchmark22FLAGS_benchmark_formatE = hidden global %"class.std::__1::basic_string" zeroinitializer, align 8
@.str.17 = private unnamed_addr constant [17 x i8] c"benchmark_format\00", align 1
@.str.18 = private unnamed_addr constant [8 x i8] c"console\00", align 1
@_ZN9benchmark26FLAGS_benchmark_out_formatE = hidden global %"class.std::__1::basic_string" zeroinitializer, align 8
@.str.20 = private unnamed_addr constant [21 x i8] c"benchmark_out_format\00", align 1
@.str.21 = private unnamed_addr constant [5 x i8] c"json\00", align 1
@_ZN9benchmark19FLAGS_benchmark_outE = hidden global %"class.std::__1::basic_string" zeroinitializer, align 8
@.str.23 = private unnamed_addr constant [14 x i8] c"benchmark_out\00", align 1
@_ZN9benchmark21FLAGS_benchmark_colorE = hidden global %"class.std::__1::basic_string" zeroinitializer, align 8
@.str.25 = private unnamed_addr constant [16 x i8] c"benchmark_color\00", align 1
@.str.26 = private unnamed_addr constant [5 x i8] c"auto\00", align 1
@_ZN9benchmark32FLAGS_benchmark_counters_tabularE = hidden global i8 0, align 1
@.str.28 = private unnamed_addr constant [27 x i8] c"benchmark_counters_tabular\00", align 1
@_ZN9benchmark29FLAGS_benchmark_perf_countersE = hidden global %"class.std::__1::basic_string" zeroinitializer, align 8
@.str.30 = private unnamed_addr constant [24 x i8] c"benchmark_perf_counters\00", align 1
@_ZN9benchmark23FLAGS_benchmark_contextE = hidden global %"class.std::__1::map" zeroinitializer, align 8
@.str.32 = private unnamed_addr constant [18 x i8] c"benchmark_context\00", align 1
@_ZN9benchmark25FLAGS_benchmark_time_unitE = hidden global %"class.std::__1::basic_string" zeroinitializer, align 8
@.str.34 = private unnamed_addr constant [20 x i8] c"benchmark_time_unit\00", align 1
@_ZN9benchmark7FLAGS_vE = hidden global i32 0, align 4
@.str.36 = private unnamed_addr constant [2 x i8] c"v\00", align 1
@_ZN9benchmark8internal14global_contextE = hidden local_unnamed_addr global ptr null, align 8
@.str.37 = private unnamed_addr constant [35 x i8] c"At least one iteration must be run\00", align 1
@.str.38 = private unnamed_addr constant [39 x i8] c"thread_index must be less than threads\00", align 1
@.str.39 = private unnamed_addr constant [37 x i8] c"Perf counters read the value failed.\00", align 1
@_ZZN9benchmark28CreateDefaultDisplayReporterEvE24default_display_reporter = internal unnamed_addr global ptr null, align 8
@_ZGVZN9benchmark28CreateDefaultDisplayReporterEvE24default_display_reporter = internal global i64 0, align 8
@.str.40 = private unnamed_addr constant [4 x i8] c"all\00", align 1
@.str.41 = private unnamed_addr constant [2 x i8] c".\00", align 1
@.str.42 = private unnamed_addr constant [82 x i8] c"A custom file reporter was provided but --benchmark_out=<file> was not specified.\00", align 1
@.str.43 = private unnamed_addr constant [21 x i8] c"invalid file name: '\00", align 1
@.str.44 = private unnamed_addr constant [2 x i8] c"'\00", align 1
@.str.45 = private unnamed_addr constant [47 x i8] c"Failed to match any benchmarks against regex: \00", align 1
@.str.46 = private unnamed_addr constant [2 x i8] c"\0A\00", align 1
@_ZN9benchmark12_GLOBAL__N_117default_time_unitE = internal unnamed_addr global i32 0, align 4
@_ZN9benchmark8internal14memory_managerE = external local_unnamed_addr global ptr, align 8
@_ZNSt3__14cerrE = external global %"class.std::__1::basic_ostream", align 8
@.str.47 = private unnamed_addr constant [31 x i8] c"Failed to add custom context \22\00", align 1
@.str.48 = private unnamed_addr constant [17 x i8] c"\22 as it already \00", align 1
@.str.49 = private unnamed_addr constant [20 x i8] c"exists with value \22\00", align 1
@.str.50 = private unnamed_addr constant [3 x i8] c"\22\0A\00", align 1
@_ZN9benchmark8internal12HelperPrintfE = hidden local_unnamed_addr global ptr null, align 8
@stdout = external local_unnamed_addr global ptr, align 8
@.str.51 = private unnamed_addr constant [741 x i8] c"benchmark [--benchmark_list_tests={true|false}]\0A          [--benchmark_filter=<regex>]\0A          [--benchmark_min_time=<min_time>]\0A          [--benchmark_repetitions=<num_repetitions>]\0A          [--benchmark_enable_random_interleaving={true|false}]\0A          [--benchmark_report_aggregates_only={true|false}]\0A          [--benchmark_display_aggregates_only={true|false}]\0A          [--benchmark_format=<console|json|csv>]\0A          [--benchmark_out=<filename>]\0A          [--benchmark_out_format=<json|console|csv>]\0A          [--benchmark_color={auto|true|false}]\0A          [--benchmark_counters_tabular={true|false}]\0A          [--benchmark_context=<key>=<value>,...]\0A          [--benchmark_time_unit={ns|us|ms|s}]\0A          [--v=<verbosity>]\0A\00", align 1
@.str.53 = private unnamed_addr constant [3 x i8] c"ms\00", align 1
@.str.54 = private unnamed_addr constant [3 x i8] c"us\00", align 1
@.str.55 = private unnamed_addr constant [3 x i8] c"ns\00", align 1
@.str.56 = private unnamed_addr constant [8 x i8] c"unknown\00", align 1
@_ZN9benchmark17BenchmarkReporter7Context15executable_nameE = external local_unnamed_addr global ptr, align 8
@.str.57 = private unnamed_addr constant [5 x i8] c"help\00", align 1
@.str.58 = private unnamed_addr constant [4 x i8] c"csv\00", align 1
@_ZZN9benchmark8internal17InitializeStreamsEvE4init = internal global %"class.std::__1::ios_base::Init" zeroinitializer, align 1
@_ZGVZN9benchmark8internal17InitializeStreamsEvE4init = internal global i64 0, align 8
@stderr = external local_unnamed_addr global ptr, align 8
@.str.59 = private unnamed_addr constant [47 x i8] c"%s: error: unrecognized command-line flag: %s\0A\00", align 1
@_ZZN9benchmark8internal18GetNullLogInstanceEvE3log = linkonce_odr hidden local_unnamed_addr global %"class.benchmark::internal::LogType" zeroinitializer, comdat, align 8
@_ZGVZN9benchmark8internal18GetNullLogInstanceEvE3log = linkonce_odr hidden global i64 0, comdat, align 8
@_ZN9benchmark8internal23PerfCountersMeasurement6mutex_E = external global %"class.benchmark::Mutex", align 8
@_ZN9benchmark8internal23PerfCountersMeasurement9counters_E = external local_unnamed_addr global %"class.benchmark::internal::PerfCounters", align 8
@.str.60 = private unnamed_addr constant [7 x i8] c"vector\00", align 1
@_ZTISt12length_error = external constant ptr
@_ZTVSt12length_error = external unnamed_addr constant { [5 x ptr] }, align 8
@_ZTISt20bad_array_new_length = external constant ptr
@.str.61 = private unnamed_addr constant [21 x i8] c"Unexpected format: '\00", align 1
@.str.62 = private unnamed_addr constant [3 x i8] c"'\0A\00", align 1
@_ZTVN9benchmark15ConsoleReporterE = external unnamed_addr constant { [9 x ptr] }, align 8
@_ZTVN9benchmark12JSONReporterE = external unnamed_addr constant { [7 x ptr] }, align 8
@_ZTVN9benchmark11CSVReporterE = external unnamed_addr constant { [7 x ptr] }, align 8
@_ZNSt3__1L19piecewise_constructE = internal constant %"struct.std::__1::piecewise_construct_t" undef, align 1
@.str.63 = private unnamed_addr constant [13 x i8] c"/dev/urandom\00", align 1
@_ZTVNSt3__114basic_ofstreamIcNS_11char_traitsIcEEEE = linkonce_odr dso_local unnamed_addr constant { [5 x ptr], [5 x ptr] } { [5 x ptr] [ptr inttoptr (i64 176 to ptr), ptr null, ptr @_ZTINSt3__114basic_ofstreamIcNS_11char_traitsIcEEEE, ptr @_ZNSt3__114basic_ofstreamIcNS_11char_traitsIcEEED1Ev, ptr @_ZNSt3__114basic_ofstreamIcNS_11char_traitsIcEEED0Ev], [5 x ptr] [ptr inttoptr (i64 -176 to ptr), ptr inttoptr (i64 -176 to ptr), ptr @_ZTINSt3__114basic_ofstreamIcNS_11char_traitsIcEEEE, ptr @_ZTv0_n24_NSt3__114basic_ofstreamIcNS_11char_traitsIcEEED1Ev, ptr @_ZTv0_n24_NSt3__114basic_ofstreamIcNS_11char_traitsIcEEED0Ev] }, comdat, align 8
@_ZTTNSt3__114basic_ofstreamIcNS_11char_traitsIcEEEE = linkonce_odr dso_local unnamed_addr constant [4 x ptr] [ptr getelementptr inbounds ({ [5 x ptr], [5 x ptr] }, ptr @_ZTVNSt3__114basic_ofstreamIcNS_11char_traitsIcEEEE, i32 0, inrange i32 0, i32 3), ptr getelementptr inbounds ({ [5 x ptr], [5 x ptr] }, ptr @_ZTCNSt3__114basic_ofstreamIcNS_11char_traitsIcEEEE0_NS_13basic_ostreamIcS2_EE, i32 0, inrange i32 0, i32 3), ptr getelementptr inbounds ({ [5 x ptr], [5 x ptr] }, ptr @_ZTCNSt3__114basic_ofstreamIcNS_11char_traitsIcEEEE0_NS_13basic_ostreamIcS2_EE, i32 0, inrange i32 1, i32 3), ptr getelementptr inbounds ({ [5 x ptr], [5 x ptr] }, ptr @_ZTVNSt3__114basic_ofstreamIcNS_11char_traitsIcEEEE, i32 0, inrange i32 1, i32 3)], comdat, align 8
@_ZTCNSt3__114basic_ofstreamIcNS_11char_traitsIcEEEE0_NS_13basic_ostreamIcS2_EE = linkonce_odr dso_local unnamed_addr constant { [5 x ptr], [5 x ptr] } { [5 x ptr] [ptr inttoptr (i64 176 to ptr), ptr null, ptr @_ZTINSt3__113basic_ostreamIcNS_11char_traitsIcEEEE, ptr @_ZNSt3__113basic_ostreamIcNS_11char_traitsIcEEED1Ev, ptr @_ZNSt3__113basic_ostreamIcNS_11char_traitsIcEEED0Ev], [5 x ptr] [ptr inttoptr (i64 -176 to ptr), ptr inttoptr (i64 -176 to ptr), ptr @_ZTINSt3__113basic_ostreamIcNS_11char_traitsIcEEEE, ptr @_ZTv0_n24_NSt3__113basic_ostreamIcNS_11char_traitsIcEEED1Ev, ptr @_ZTv0_n24_NSt3__113basic_ostreamIcNS_11char_traitsIcEEED0Ev] }, comdat, align 8
@_ZTINSt3__113basic_ostreamIcNS_11char_traitsIcEEEE = external constant ptr
@_ZTVN10__cxxabiv120__si_class_type_infoE = external global ptr
@_ZTSNSt3__114basic_ofstreamIcNS_11char_traitsIcEEEE = linkonce_odr dso_local constant [48 x i8] c"NSt3__114basic_ofstreamIcNS_11char_traitsIcEEEE\00", comdat, align 1
@_ZTINSt3__114basic_ofstreamIcNS_11char_traitsIcEEEE = linkonce_odr dso_local constant { ptr, ptr, ptr } { ptr getelementptr inbounds (ptr, ptr @_ZTVN10__cxxabiv120__si_class_type_infoE, i64 2), ptr @_ZTSNSt3__114basic_ofstreamIcNS_11char_traitsIcEEEE, ptr @_ZTINSt3__113basic_ostreamIcNS_11char_traitsIcEEEE }, comdat, align 8
@_ZTVNSt3__113basic_filebufIcNS_11char_traitsIcEEEE = linkonce_odr dso_local unnamed_addr constant { [16 x ptr] } { [16 x ptr] [ptr null, ptr @_ZTINSt3__113basic_filebufIcNS_11char_traitsIcEEEE, ptr @_ZNSt3__113basic_filebufIcNS_11char_traitsIcEEED2Ev, ptr @_ZNSt3__113basic_filebufIcNS_11char_traitsIcEEED0Ev, ptr @_ZNSt3__113basic_filebufIcNS_11char_traitsIcEEE5imbueERKNS_6localeE, ptr @_ZNSt3__113basic_filebufIcNS_11char_traitsIcEEE6setbufEPcl, ptr @_ZNSt3__113basic_filebufIcNS_11char_traitsIcEEE7seekoffExNS_8ios_base7seekdirEj, ptr @_ZNSt3__113basic_filebufIcNS_11char_traitsIcEEE7seekposENS_4fposI11__mbstate_tEEj, ptr @_ZNSt3__113basic_filebufIcNS_11char_traitsIcEEE4syncEv, ptr @_ZNSt3__115basic_streambufIcNS_11char_traitsIcEEE9showmanycEv, ptr @_ZNSt3__115basic_streambufIcNS_11char_traitsIcEEE6xsgetnEPcl, ptr @_ZNSt3__113basic_filebufIcNS_11char_traitsIcEEE9underflowEv, ptr @_ZNSt3__115basic_streambufIcNS_11char_traitsIcEEE5uflowEv, ptr @_ZNSt3__113basic_filebufIcNS_11char_traitsIcEEE9pbackfailEi, ptr @_ZNSt3__115basic_streambufIcNS_11char_traitsIcEEE6xsputnEPKcl, ptr @_ZNSt3__113basic_filebufIcNS_11char_traitsIcEEE8overflowEi] }, comdat, align 8
@_ZTSNSt3__113basic_filebufIcNS_11char_traitsIcEEEE = linkonce_odr dso_local constant [47 x i8] c"NSt3__113basic_filebufIcNS_11char_traitsIcEEEE\00", comdat, align 1
@_ZTINSt3__115basic_streambufIcNS_11char_traitsIcEEEE = external constant ptr
@_ZTINSt3__113basic_filebufIcNS_11char_traitsIcEEEE = linkonce_odr dso_local constant { ptr, ptr, ptr } { ptr getelementptr inbounds (ptr, ptr @_ZTVN10__cxxabiv120__si_class_type_infoE, i64 2), ptr @_ZTSNSt3__113basic_filebufIcNS_11char_traitsIcEEEE, ptr @_ZTINSt3__115basic_streambufIcNS_11char_traitsIcEEEE }, comdat, align 8
@_ZNSt3__17codecvtIcc11__mbstate_tE2idE = external global %"class.std::__1::locale::id", align 8
@_ZTISt8bad_cast = external constant ptr
@_ZZN9benchmark8internal8LogLevelEvE9log_level = linkonce_odr hidden local_unnamed_addr global i32 0, comdat, align 4
@.str.64 = private unnamed_addr constant [13 x i8] c"basic_string\00", align 1
@_ZNSt3__15ctypeIcE2idE = external global %"class.std::__1::locale::id", align 8
@.str.65 = private unnamed_addr constant [2 x i8] c"w\00", align 1
@llvm.global_ctors = appending global [1 x { i32, ptr, ptr }] [{ i32, ptr, ptr } { i32 65535, ptr @_GLOBAL__sub_I_benchmark.cc, ptr null }]

@_ZN9benchmark5StateC1EmRKNSt3__16vectorIlNS1_9allocatorIlEEEEiiPNS_8internal11ThreadTimerEPNS8_13ThreadManagerEPNS8_23PerfCountersMeasurementE = hidden unnamed_addr alias void (ptr, i64, ptr, i32, i32, ptr, ptr, ptr), ptr @_ZN9benchmark5StateC2EmRKNSt3__16vectorIlNS1_9allocatorIlEEEEiiPNS_8internal11ThreadTimerEPNS8_13ThreadManagerEPNS8_23PerfCountersMeasurementE

; Function Attrs: mustprogress uwtable
define hidden noundef i32 @_ZN9benchmark8internal17InitializeStreamsEv() local_unnamed_addr #0 personality ptr @__gxx_personality_v0 {
entry:
  %0 = load atomic i8, ptr @_ZGVZN9benchmark8internal17InitializeStreamsEvE4init acquire, align 8
  %guard.uninitialized = icmp eq i8 %0, 0
  br i1 %guard.uninitialized, label %init.check, label %init.end, !prof !5

init.check:                                       ; preds = %entry
  %1 = tail call i32 @__cxa_guard_acquire(ptr nonnull @_ZGVZN9benchmark8internal17InitializeStreamsEvE4init) #33
  %tobool.not = icmp eq i32 %1, 0
  br i1 %tobool.not, label %init.end, label %init

init:                                             ; preds = %init.check
  invoke void @_ZNSt3__18ios_base4InitC1Ev(ptr noundef nonnull align 1 dereferenceable(1) @_ZZN9benchmark8internal17InitializeStreamsEvE4init)
          to label %invoke.cont unwind label %lpad

invoke.cont:                                      ; preds = %init
  %2 = tail call i32 @__cxa_atexit(ptr nonnull @_ZNSt3__18ios_base4InitD1Ev, ptr nonnull @_ZZN9benchmark8internal17InitializeStreamsEvE4init, ptr nonnull @__dso_handle) #33
  tail call void @__cxa_guard_release(ptr nonnull @_ZGVZN9benchmark8internal17InitializeStreamsEvE4init) #33
  br label %init.end

init.end:                                         ; preds = %invoke.cont, %init.check, %entry
  ret i32 0

lpad:                                             ; preds = %init
  %3 = landingpad { ptr, i32 }
          cleanup
  tail call void @__cxa_guard_abort(ptr nonnull @_ZGVZN9benchmark8internal17InitializeStreamsEvE4init) #33
  resume { ptr, i32 } %3
}

declare noundef zeroext i1 @_ZN9benchmark8internal12PerfCounters10InitializeEv() local_unnamed_addr #1

declare noundef zeroext i1 @_ZN9benchmark11BoolFromEnvEPKcb(ptr noundef, i1 noundef zeroext) local_unnamed_addr #1

declare noundef ptr @_ZN9benchmark13StringFromEnvEPKcS1_(ptr noundef, ptr noundef) local_unnamed_addr #1

; Function Attrs: inlinehint nounwind uwtable
declare void @_ZNSt3__112basic_stringIcNS_11char_traitsIcEENS_9allocatorIcEEED2Ev(ptr noundef nonnull align 8 dereferenceable(24)) unnamed_addr #2 align 2

; Function Attrs: nofree nounwind
declare i32 @__cxa_atexit(ptr, ptr, ptr) local_unnamed_addr #3

declare noundef double @_ZN9benchmark13DoubleFromEnvEPKcd(ptr noundef, double noundef) local_unnamed_addr #1

declare noundef i32 @_ZN9benchmark12Int32FromEnvEPKci(ptr noundef, i32 noundef) local_unnamed_addr #1

declare void @_ZN9benchmark14KvPairsFromEnvEPKcNSt3__13mapINS2_12basic_stringIcNS2_11char_traitsIcEENS2_9allocatorIcEEEES9_NS2_4lessIS9_EENS7_INS2_4pairIKS9_S9_EEEEEE(ptr sret(%"class.std::__1::map") align 8, ptr noundef, ptr noundef) local_unnamed_addr #1

declare i32 @__gxx_personality_v0(...)

; Function Attrs: nounwind uwtable
define linkonce_odr hidden void @_ZNSt3__13mapINS_12basic_stringIcNS_11char_traitsIcEENS_9allocatorIcEEEES6_NS_4lessIS6_EENS4_INS_4pairIKS6_S6_EEEEED2B7v170000Ev(ptr noundef nonnull align 8 dereferenceable(24) %this) unnamed_addr #4 comdat align 2 {
entry:
  %__pair1_.i.i.i = getelementptr inbounds %"class.std::__1::__tree", ptr %this, i64 0, i32 1
  %0 = load ptr, ptr %__pair1_.i.i.i, align 8, !tbaa !6
  tail call void @_ZNSt3__16__treeINS_12__value_typeINS_12basic_stringIcNS_11char_traitsIcEENS_9allocatorIcEEEES7_EENS_19__map_value_compareIS7_S8_NS_4lessIS7_EELb1EEENS5_IS8_EEE7destroyEPNS_11__tree_nodeIS8_PvEE(ptr noundef nonnull align 8 dereferenceable(24) %this, ptr noundef %0) #33
  ret void
}

; Function Attrs: mustprogress nofree norecurse nosync nounwind willreturn memory(none) uwtable
define hidden void @_ZN9benchmark8internal14UseCharPointerEPVKc(ptr nocapture noundef %0) local_unnamed_addr #5 {
entry:
  ret void
}

; Function Attrs: uwtable
define hidden void @_ZN9benchmark5StateC2EmRKNSt3__16vectorIlNS1_9allocatorIlEEEEiiPNS_8internal11ThreadTimerEPNS8_13ThreadManagerEPNS8_23PerfCountersMeasurementE(ptr noundef nonnull align 8 dereferenceable(120) %this, i64 noundef %max_iters, ptr nocapture noundef nonnull readonly align 8 dereferenceable(24) %ranges, i32 noundef %thread_i, i32 noundef %n_threads, ptr noundef %timer, ptr noundef %manager, ptr noundef %perf_counters_measurement) unnamed_addr #6 align 2 personality ptr @__gxx_personality_v0 {
entry:
  %max_iterations = getelementptr inbounds %"class.benchmark::State", ptr %this, i64 0, i32 2
  tail call void @llvm.memset.p0.i64(ptr noundef nonnull align 8 dereferenceable(16) %this, i8 0, i64 16, i1 false)
  store i64 %max_iters, ptr %max_iterations, align 8, !tbaa !11
  %started_ = getelementptr inbounds %"class.benchmark::State", ptr %this, i64 0, i32 3
  store i8 0, ptr %started_, align 8, !tbaa !25
  %finished_ = getelementptr inbounds %"class.benchmark::State", ptr %this, i64 0, i32 4
  store i8 0, ptr %finished_, align 1, !tbaa !26
  %error_occurred_ = getelementptr inbounds %"class.benchmark::State", ptr %this, i64 0, i32 5
  store i8 0, ptr %error_occurred_, align 2, !tbaa !27
  %range_ = getelementptr inbounds %"class.benchmark::State", ptr %this, i64 0, i32 6
  %__end_.i = getelementptr inbounds %"class.benchmark::State", ptr %this, i64 0, i32 6, i32 1
  %__end_cap_.i = getelementptr inbounds %"class.benchmark::State", ptr %this, i64 0, i32 6, i32 2
  %__end_.i.i = getelementptr inbounds %"class.std::__1::vector", ptr %ranges, i64 0, i32 1
  tail call void @llvm.memset.p0.i64(ptr noundef nonnull align 8 dereferenceable(24) %range_, i8 0, i64 24, i1 false)
  %0 = load ptr, ptr %__end_.i.i, align 8, !tbaa !28
  %1 = load ptr, ptr %ranges, align 8, !tbaa !29
  %sub.ptr.lhs.cast.i.i = ptrtoint ptr %0 to i64
  %sub.ptr.rhs.cast.i.i = ptrtoint ptr %1 to i64
  %sub.ptr.sub.i.i = sub i64 %sub.ptr.lhs.cast.i.i, %sub.ptr.rhs.cast.i.i
  %sub.ptr.div.i.i = ashr exact i64 %sub.ptr.sub.i.i, 3
  %cmp.not.i = icmp eq ptr %0, %1
  br i1 %cmp.not.i, label %_ZNSt3__16vectorIlNS_9allocatorIlEEEC2ERKS3_.exit, label %if.then.i

if.then.i:                                        ; preds = %entry
  %cmp.i.i = icmp slt i64 %sub.ptr.sub.i.i, 0
  br i1 %cmp.i.i, label %if.then.i.i, label %_ZNSt3__119__allocate_at_leastB7v170000INS_9allocatorIlEEEENS_19__allocation_resultINS_16allocator_traitsIT_E7pointerEEERS5_m.exit.i.i

if.then.i.i:                                      ; preds = %if.then.i
  invoke void @_ZNKSt3__16vectorIlNS_9allocatorIlEEE20__throw_length_errorB7v170000Ev(ptr noundef nonnull align 8 dereferenceable(24) %range_) #34
          to label %.noexc.i unwind label %if.then.i19.i

.noexc.i:                                         ; preds = %if.then.i.i
  unreachable

_ZNSt3__119__allocate_at_leastB7v170000INS_9allocatorIlEEEENS_19__allocation_resultINS_16allocator_traitsIT_E7pointerEEERS5_m.exit.i.i: ; preds = %if.then.i
  %call.i.i.i.i.i17.i = invoke noalias noundef nonnull ptr @_Znwm(i64 noundef %sub.ptr.sub.i.i) #35
          to label %invoke.cont5.i unwind label %if.then.i19.i

invoke.cont5.i:                                   ; preds = %_ZNSt3__119__allocate_at_leastB7v170000INS_9allocatorIlEEEENS_19__allocation_resultINS_16allocator_traitsIT_E7pointerEEERS5_m.exit.i.i
  store ptr %call.i.i.i.i.i17.i, ptr %range_, align 8, !tbaa !29
  store ptr %call.i.i.i.i.i17.i, ptr %__end_.i, align 8, !tbaa !28
  %add.ptr.i.i = getelementptr inbounds i64, ptr %call.i.i.i.i.i17.i, i64 %sub.ptr.div.i.i
  store ptr %add.ptr.i.i, ptr %__end_cap_.i, align 8, !tbaa !30
  %2 = load ptr, ptr %ranges, align 8, !tbaa !29
  %3 = load ptr, ptr %__end_.i.i, align 8, !tbaa !28
  %cmp.not9.i.i.i = icmp eq ptr %2, %3
  br i1 %cmp.not9.i.i.i, label %_ZNSt3__16vectorIlNS_9allocatorIlEEE18__construct_at_endIPlLi0EEEvT_S6_m.exit.i, label %invoke.cont.i.i.i.preheader

invoke.cont.i.i.i.preheader:                      ; preds = %invoke.cont5.i
  %4 = ptrtoint ptr %2 to i64
  %call.i.i.i.i.i17.i24 = ptrtoint ptr %call.i.i.i.i.i17.i to i64
  %5 = ptrtoint ptr %3 to i64
  %6 = add i64 %5, -8
  %7 = sub i64 %6, %4
  %8 = lshr i64 %7, 3
  %9 = add nuw nsw i64 %8, 1
  %min.iters.check = icmp ult i64 %7, 56
  %10 = sub i64 %call.i.i.i.i.i17.i24, %4
  %diff.check = icmp ult i64 %10, 32
  %or.cond = or i1 %min.iters.check, %diff.check
  br i1 %or.cond, label %invoke.cont.i.i.i.preheader31, label %vector.ph

vector.ph:                                        ; preds = %invoke.cont.i.i.i.preheader
  %n.vec = and i64 %9, -4
  %11 = shl i64 %n.vec, 3
  %ind.end = getelementptr i8, ptr %2, i64 %11
  %12 = shl i64 %n.vec, 3
  %ind.end25 = getelementptr i8, ptr %call.i.i.i.i.i17.i, i64 %12
  br label %vector.body

vector.body:                                      ; preds = %vector.body, %vector.ph
  %index = phi i64 [ 0, %vector.ph ], [ %index.next, %vector.body ]
  %13 = shl i64 %index, 3
  %next.gep = getelementptr i8, ptr %2, i64 %13
  %14 = shl i64 %index, 3
  %next.gep28 = getelementptr i8, ptr %call.i.i.i.i.i17.i, i64 %14
  %wide.load = load <2 x i64>, ptr %next.gep, align 8, !tbaa !31
  %15 = getelementptr i64, ptr %next.gep, i64 2
  %wide.load30 = load <2 x i64>, ptr %15, align 8, !tbaa !31
  store <2 x i64> %wide.load, ptr %next.gep28, align 8, !tbaa !31
  %16 = getelementptr i64, ptr %next.gep28, i64 2
  store <2 x i64> %wide.load30, ptr %16, align 8, !tbaa !31
  %index.next = add nuw i64 %index, 4
  %17 = icmp eq i64 %index.next, %n.vec
  br i1 %17, label %middle.block, label %vector.body, !llvm.loop !32

middle.block:                                     ; preds = %vector.body
  %cmp.n = icmp eq i64 %9, %n.vec
  br i1 %cmp.n, label %_ZNSt3__16vectorIlNS_9allocatorIlEEE18__construct_at_endIPlLi0EEEvT_S6_m.exit.i, label %invoke.cont.i.i.i.preheader31

invoke.cont.i.i.i.preheader31:                    ; preds = %invoke.cont.i.i.i.preheader, %middle.block
  %__first1.addr.011.i.i.i.ph = phi ptr [ %2, %invoke.cont.i.i.i.preheader ], [ %ind.end, %middle.block ]
  %__first2.addr.010.i.i.i.ph = phi ptr [ %call.i.i.i.i.i17.i, %invoke.cont.i.i.i.preheader ], [ %ind.end25, %middle.block ]
  br label %invoke.cont.i.i.i

invoke.cont.i.i.i:                                ; preds = %invoke.cont.i.i.i.preheader31, %invoke.cont.i.i.i
  %__first1.addr.011.i.i.i = phi ptr [ %incdec.ptr.i.i.i, %invoke.cont.i.i.i ], [ %__first1.addr.011.i.i.i.ph, %invoke.cont.i.i.i.preheader31 ]
  %__first2.addr.010.i.i.i = phi ptr [ %incdec.ptr1.i.i.i, %invoke.cont.i.i.i ], [ %__first2.addr.010.i.i.i.ph, %invoke.cont.i.i.i.preheader31 ]
  %18 = load i64, ptr %__first1.addr.011.i.i.i, align 8, !tbaa !31
  store i64 %18, ptr %__first2.addr.010.i.i.i, align 8, !tbaa !31
  %incdec.ptr.i.i.i = getelementptr inbounds i64, ptr %__first1.addr.011.i.i.i, i64 1
  %incdec.ptr1.i.i.i = getelementptr inbounds i64, ptr %__first2.addr.010.i.i.i, i64 1
  %cmp.not.i.i.i = icmp eq ptr %incdec.ptr.i.i.i, %3
  br i1 %cmp.not.i.i.i, label %_ZNSt3__16vectorIlNS_9allocatorIlEEE18__construct_at_endIPlLi0EEEvT_S6_m.exit.i, label %invoke.cont.i.i.i, !llvm.loop !36

_ZNSt3__16vectorIlNS_9allocatorIlEEE18__construct_at_endIPlLi0EEEvT_S6_m.exit.i: ; preds = %invoke.cont.i.i.i, %middle.block, %invoke.cont5.i
  %__first2.addr.0.lcssa.i.i.i = phi ptr [ %call.i.i.i.i.i17.i, %invoke.cont5.i ], [ %ind.end25, %middle.block ], [ %incdec.ptr1.i.i.i, %invoke.cont.i.i.i ]
  store ptr %__first2.addr.0.lcssa.i.i.i, ptr %__end_.i, align 8, !tbaa !28
  br label %_ZNSt3__16vectorIlNS_9allocatorIlEEEC2ERKS3_.exit

if.then.i19.i:                                    ; preds = %_ZNSt3__119__allocate_at_leastB7v170000INS_9allocatorIlEEEENS_19__allocation_resultINS_16allocator_traitsIT_E7pointerEEERS5_m.exit.i.i, %if.then.i.i
  %19 = landingpad { ptr, i32 }
          cleanup
  %20 = load ptr, ptr %range_, align 8, !tbaa !29
  %cmp.not.i.i18.i = icmp eq ptr %20, null
  br i1 %cmp.not.i.i18.i, label %common.resume, label %common.resume.sink.split

common.resume.sink.split:                         ; preds = %if.then.i19.i, %lpad
  %.sink23 = phi ptr [ %29, %lpad ], [ %20, %if.then.i19.i ]
  %common.resume.op.ph = phi { ptr, i32 } [ %27, %lpad ], [ %19, %if.then.i19.i ]
  store ptr %.sink23, ptr %__end_.i, align 8, !tbaa !28
  tail call void @_ZdlPv(ptr noundef nonnull %.sink23) #36
  br label %common.resume

common.resume:                                    ; preds = %common.resume.sink.split, %lpad, %if.then.i19.i
  %common.resume.op = phi { ptr, i32 } [ %19, %if.then.i19.i ], [ %27, %lpad ], [ %common.resume.op.ph, %common.resume.sink.split ]
  resume { ptr, i32 } %common.resume.op

_ZNSt3__16vectorIlNS_9allocatorIlEEEC2ERKS3_.exit: ; preds = %entry, %_ZNSt3__16vectorIlNS_9allocatorIlEEE18__construct_at_endIPlLi0EEEvT_S6_m.exit.i
  %complexity_n_ = getelementptr inbounds %"class.benchmark::State", ptr %this, i64 0, i32 7
  store i64 0, ptr %complexity_n_, align 8, !tbaa !37
  %counters = getelementptr inbounds %"class.benchmark::State", ptr %this, i64 0, i32 8
  %__pair1_.i.i = getelementptr inbounds %"class.benchmark::State", ptr %this, i64 0, i32 8, i32 0, i32 1
  tail call void @llvm.memset.p0.i64(ptr noundef nonnull align 8 dereferenceable(16) %__pair1_.i.i, i8 0, i64 16, i1 false)
  store ptr %__pair1_.i.i, ptr %counters, align 8, !tbaa !30
  %thread_index_ = getelementptr inbounds %"class.benchmark::State", ptr %this, i64 0, i32 9
  store i32 %thread_i, ptr %thread_index_, align 8, !tbaa !38
  %threads_ = getelementptr inbounds %"class.benchmark::State", ptr %this, i64 0, i32 10
  store i32 %n_threads, ptr %threads_, align 4, !tbaa !39
  %timer_ = getelementptr inbounds %"class.benchmark::State", ptr %this, i64 0, i32 11
  store ptr %timer, ptr %timer_, align 8, !tbaa !40
  %manager_ = getelementptr inbounds %"class.benchmark::State", ptr %this, i64 0, i32 12
  store ptr %manager, ptr %manager_, align 8, !tbaa !41
  %perf_counters_measurement_ = getelementptr inbounds %"class.benchmark::State", ptr %this, i64 0, i32 13
  store ptr %perf_counters_measurement, ptr %perf_counters_measurement_, align 8, !tbaa !42
  %21 = load atomic i8, ptr @_ZGVZN9benchmark8internal18GetNullLogInstanceEvE3log acquire, align 8
  %guard.uninitialized.i = icmp eq i8 %21, 0
  br i1 %guard.uninitialized.i, label %init.check.i, label %invoke.cont, !prof !5

init.check.i:                                     ; preds = %_ZNSt3__16vectorIlNS_9allocatorIlEEEC2ERKS3_.exit
  %22 = tail call i32 @__cxa_guard_acquire(ptr nonnull @_ZGVZN9benchmark8internal18GetNullLogInstanceEvE3log) #33
  %tobool.not.i = icmp eq i32 %22, 0
  br i1 %tobool.not.i, label %invoke.cont, label %init.i

init.i:                                           ; preds = %init.check.i
  store ptr null, ptr @_ZZN9benchmark8internal18GetNullLogInstanceEvE3log, align 8, !tbaa !43
  tail call void @__cxa_guard_release(ptr nonnull @_ZGVZN9benchmark8internal18GetNullLogInstanceEvE3log) #33
  br label %invoke.cont

invoke.cont:                                      ; preds = %init.i, %init.check.i, %_ZNSt3__16vectorIlNS_9allocatorIlEEEC2ERKS3_.exit
  %23 = load ptr, ptr @_ZZN9benchmark8internal18GetNullLogInstanceEvE3log, align 8, !tbaa !43
  %tobool.not.i9 = icmp eq ptr %23, null
  br i1 %tobool.not.i9, label %invoke.cont2, label %if.then.i10

if.then.i10:                                      ; preds = %invoke.cont
  %call1.i.i11 = invoke noundef nonnull align 8 dereferenceable(8) ptr @_ZNSt3__124__put_character_sequenceB7v170000IcNS_11char_traitsIcEEEERNS_13basic_ostreamIT_T0_EES7_PKS4_m(ptr noundef nonnull align 8 dereferenceable(8) %23, ptr noundef nonnull @.str.37, i64 noundef 34)
          to label %invoke.cont2 unwind label %lpad

invoke.cont2:                                     ; preds = %invoke.cont, %if.then.i10
  %24 = load atomic i8, ptr @_ZGVZN9benchmark8internal18GetNullLogInstanceEvE3log acquire, align 8
  %guard.uninitialized.i12 = icmp eq i8 %24, 0
  br i1 %guard.uninitialized.i12, label %init.check.i14, label %invoke.cont4, !prof !5

init.check.i14:                                   ; preds = %invoke.cont2
  %25 = tail call i32 @__cxa_guard_acquire(ptr nonnull @_ZGVZN9benchmark8internal18GetNullLogInstanceEvE3log) #33
  %tobool.not.i13 = icmp eq i32 %25, 0
  br i1 %tobool.not.i13, label %invoke.cont4, label %init.i15

init.i15:                                         ; preds = %init.check.i14
  store ptr null, ptr @_ZZN9benchmark8internal18GetNullLogInstanceEvE3log, align 8, !tbaa !43
  tail call void @__cxa_guard_release(ptr nonnull @_ZGVZN9benchmark8internal18GetNullLogInstanceEvE3log) #33
  br label %invoke.cont4

invoke.cont4:                                     ; preds = %init.i15, %init.check.i14, %invoke.cont2
  %26 = load ptr, ptr @_ZZN9benchmark8internal18GetNullLogInstanceEvE3log, align 8, !tbaa !43
  %tobool.not.i17 = icmp eq ptr %26, null
  br i1 %tobool.not.i17, label %invoke.cont6, label %if.then.i19

if.then.i19:                                      ; preds = %invoke.cont4
  %call1.i.i21 = invoke noundef nonnull align 8 dereferenceable(8) ptr @_ZNSt3__124__put_character_sequenceB7v170000IcNS_11char_traitsIcEEEERNS_13basic_ostreamIT_T0_EES7_PKS4_m(ptr noundef nonnull align 8 dereferenceable(8) %26, ptr noundef nonnull @.str.38, i64 noundef 38)
          to label %invoke.cont6 unwind label %lpad

invoke.cont6:                                     ; preds = %invoke.cont4, %if.then.i19
  ret void

lpad:                                             ; preds = %if.then.i19, %if.then.i10
  %27 = landingpad { ptr, i32 }
          cleanup
  %28 = load ptr, ptr %__pair1_.i.i, align 8, !tbaa !6
  tail call void @_ZNSt3__16__treeINS_12__value_typeINS_12basic_stringIcNS_11char_traitsIcEENS_9allocatorIcEEEEN9benchmark7CounterEEENS_19__map_value_compareIS7_SA_NS_4lessIS7_EELb1EEENS5_ISA_EEE7destroyEPNS_11__tree_nodeISA_PvEE(ptr noundef nonnull align 8 dereferenceable(24) %counters, ptr noundef %28) #33
  %29 = load ptr, ptr %range_, align 8, !tbaa !29
  %cmp.not.i.i = icmp eq ptr %29, null
  br i1 %cmp.not.i.i, label %common.resume, label %common.resume.sink.split
}

; Function Attrs: mustprogress nocallback nofree nosync nounwind willreturn memory(argmem: readwrite)
declare void @llvm.lifetime.start.p0(i64 immarg, ptr nocapture) #7

; Function Attrs: mustprogress nocallback nofree nosync nounwind willreturn memory(argmem: readwrite)
declare void @llvm.lifetime.end.p0(i64 immarg, ptr nocapture) #7

; Function Attrs: uwtable
define hidden void @_ZN9benchmark5State11PauseTimingEv(ptr noundef nonnull align 8 dereferenceable(120) %this) local_unnamed_addr #6 align 2 personality ptr @__gxx_personality_v0 {
entry:
  %ref.tmp2.i = alloca %"class.std::__1::tuple.241", align 8
  %ref.tmp5.i = alloca %"class.std::__1::tuple.174", align 1
  %ref.tmp.i = alloca %"struct.std::__1::pair", align 8
  %measurements = alloca %"class.std::__1::vector.29", align 8
  %name = alloca %"class.std::__1::basic_string", align 8
  %0 = load atomic i8, ptr @_ZGVZN9benchmark8internal18GetNullLogInstanceEvE3log acquire, align 8
  %guard.uninitialized.i = icmp eq i8 %0, 0
  br i1 %guard.uninitialized.i, label %init.check.i, label %_ZN9benchmark8internal18GetNullLogInstanceEv.exit, !prof !5

init.check.i:                                     ; preds = %entry
  %1 = tail call i32 @__cxa_guard_acquire(ptr nonnull @_ZGVZN9benchmark8internal18GetNullLogInstanceEvE3log) #33
  %tobool.not.i = icmp eq i32 %1, 0
  br i1 %tobool.not.i, label %_ZN9benchmark8internal18GetNullLogInstanceEv.exit, label %init.i

init.i:                                           ; preds = %init.check.i
  store ptr null, ptr @_ZZN9benchmark8internal18GetNullLogInstanceEvE3log, align 8, !tbaa !43
  tail call void @__cxa_guard_release(ptr nonnull @_ZGVZN9benchmark8internal18GetNullLogInstanceEvE3log) #33
  br label %_ZN9benchmark8internal18GetNullLogInstanceEv.exit

_ZN9benchmark8internal18GetNullLogInstanceEv.exit: ; preds = %entry, %init.check.i, %init.i
  %timer_ = getelementptr inbounds %"class.benchmark::State", ptr %this, i64 0, i32 11
  %2 = load ptr, ptr %timer_, align 8, !tbaa !40
  %3 = load atomic i8, ptr @_ZGVZN9benchmark8internal18GetNullLogInstanceEvE3log acquire, align 8
  %guard.uninitialized.i.i = icmp eq i8 %3, 0
  br i1 %guard.uninitialized.i.i, label %init.check.i.i, label %_ZN9benchmark8internal18GetNullLogInstanceEv.exit.i, !prof !5

init.check.i.i:                                   ; preds = %_ZN9benchmark8internal18GetNullLogInstanceEv.exit
  %4 = tail call i32 @__cxa_guard_acquire(ptr nonnull @_ZGVZN9benchmark8internal18GetNullLogInstanceEvE3log) #33
  %tobool.not.i.i = icmp eq i32 %4, 0
  br i1 %tobool.not.i.i, label %_ZN9benchmark8internal18GetNullLogInstanceEv.exit.i, label %init.i.i

init.i.i:                                         ; preds = %init.check.i.i
  store ptr null, ptr @_ZZN9benchmark8internal18GetNullLogInstanceEvE3log, align 8, !tbaa !43
  tail call void @__cxa_guard_release(ptr nonnull @_ZGVZN9benchmark8internal18GetNullLogInstanceEvE3log) #33
  br label %_ZN9benchmark8internal18GetNullLogInstanceEv.exit.i

_ZN9benchmark8internal18GetNullLogInstanceEv.exit.i: ; preds = %init.i.i, %init.check.i.i, %_ZN9benchmark8internal18GetNullLogInstanceEv.exit
  %running_.i = getelementptr inbounds %"class.benchmark::internal::ThreadTimer", ptr %2, i64 0, i32 1
  store i8 0, ptr %running_.i, align 1, !tbaa !45
  %call.i.i = tail call i64 @_ZNSt3__16chrono12steady_clock3nowEv() #33
  %conv.i.i.i.i.i = sitofp i64 %call.i.i to double
  %div.i.i.i.i.i = fdiv double %conv.i.i.i.i.i, 1.000000e+09
  %start_real_time_.i = getelementptr inbounds %"class.benchmark::internal::ThreadTimer", ptr %2, i64 0, i32 2
  %5 = load double, ptr %start_real_time_.i, align 8, !tbaa !48
  %sub.i39 = fsub double %div.i.i.i.i.i, %5
  %real_time_used_.i = getelementptr inbounds %"class.benchmark::internal::ThreadTimer", ptr %2, i64 0, i32 4
  %6 = load double, ptr %real_time_used_.i, align 8, !tbaa !49
  %add.i = fadd double %6, %sub.i39
  store double %add.i, ptr %real_time_used_.i, align 8, !tbaa !49
  %7 = load i8, ptr %2, align 8, !tbaa !50, !range !51, !noundef !52
  %tobool.not.i8.i = icmp eq i8 %7, 0
  br i1 %tobool.not.i8.i, label %if.end.i.i, label %if.then.i.i

if.then.i.i:                                      ; preds = %_ZN9benchmark8internal18GetNullLogInstanceEv.exit.i
  %call.i9.i = tail call noundef double @_ZN9benchmark15ProcessCPUUsageEv()
  br label %_ZN9benchmark8internal11ThreadTimer9StopTimerEv.exit

if.end.i.i:                                       ; preds = %_ZN9benchmark8internal18GetNullLogInstanceEv.exit.i
  %call2.i.i = tail call noundef double @_ZN9benchmark14ThreadCPUUsageEv()
  br label %_ZN9benchmark8internal11ThreadTimer9StopTimerEv.exit

_ZN9benchmark8internal11ThreadTimer9StopTimerEv.exit: ; preds = %if.then.i.i, %if.end.i.i
  %retval.0.i.i = phi double [ %call.i9.i, %if.then.i.i ], [ %call2.i.i, %if.end.i.i ]
  %start_cpu_time_.i = getelementptr inbounds %"class.benchmark::internal::ThreadTimer", ptr %2, i64 0, i32 3
  %8 = load double, ptr %start_cpu_time_.i, align 8, !tbaa !53
  %sub4.i = fsub double %retval.0.i.i, %8
  %cmp.i.i.i.i = fcmp olt double %sub4.i, 0.000000e+00
  %.sroa.speculated.i = select i1 %cmp.i.i.i.i, double 0.000000e+00, double %sub4.i
  %cpu_time_used_.i = getelementptr inbounds %"class.benchmark::internal::ThreadTimer", ptr %2, i64 0, i32 5
  %9 = load double, ptr %cpu_time_used_.i, align 8, !tbaa !54
  %add7.i = fadd double %9, %.sroa.speculated.i
  store double %add7.i, ptr %cpu_time_used_.i, align 8, !tbaa !54
  %perf_counters_measurement_ = getelementptr inbounds %"class.benchmark::State", ptr %this, i64 0, i32 13
  %10 = load ptr, ptr %perf_counters_measurement_, align 8, !tbaa !42
  %tobool.not = icmp eq ptr %10, null
  br i1 %tobool.not, label %if.end32, label %if.then

if.then:                                          ; preds = %_ZN9benchmark8internal11ThreadTimer9StopTimerEv.exit
  call void @llvm.lifetime.start.p0(i64 24, ptr nonnull %measurements) #33
  call void @llvm.memset.p0.i64(ptr noundef nonnull align 8 dereferenceable(24) %measurements, i8 0, i64 24, i1 false)
  invoke void @_ZNSt3__15mutex4lockEv(ptr noundef nonnull align 8 dereferenceable(40) @_ZN9benchmark8internal23PerfCountersMeasurement6mutex_E)
          to label %.noexc unwind label %lpad

.noexc:                                           ; preds = %if.then
  fence syncscope("singlethread") acq_rel
  %end_values_.i = getelementptr inbounds %"class.benchmark::internal::PerfCountersMeasurement", ptr %10, i64 0, i32 2
  %nr_counters_.i.i.i = getelementptr inbounds %"class.benchmark::internal::PerfCountersMeasurement", ptr %10, i64 0, i32 2, i32 1
  %11 = load i64, ptr %nr_counters_.i.i.i, align 8, !tbaa !55
  %add.i.i.i = shl i64 %11, 3
  %mul.i.i.i = add i64 %add.i.i.i, 8
  %12 = load ptr, ptr @_ZN9benchmark8internal23PerfCountersMeasurement9counters_E, align 8, !tbaa !58
  %13 = load i32, ptr %12, align 4, !tbaa !62
  %call3.i38.i = invoke i64 @read(i32 noundef %13, ptr noundef nonnull %end_values_.i, i64 noundef %mul.i.i.i)
          to label %invoke.cont2.i unwind label %lpad.i

invoke.cont2.i:                                   ; preds = %.noexc
  %cmp.i.i = icmp eq i64 %call3.i38.i, %mul.i.i.i
  %14 = load i8, ptr %10, align 8, !tbaa !63, !range !51, !noundef !52
  %15 = icmp ne i8 %14, 0
  %tobool4.i = and i1 %cmp.i.i, %15
  %frombool.i = zext i1 %tobool4.i to i8
  store i8 %frombool.i, ptr %10, align 8, !tbaa !63
  fence syncscope("singlethread") acq_rel
  %16 = load ptr, ptr getelementptr inbounds (%"class.benchmark::internal::PerfCounters", ptr @_ZN9benchmark8internal23PerfCountersMeasurement9counters_E, i64 0, i32 1, i32 1), align 8, !tbaa !65
  %17 = load ptr, ptr getelementptr inbounds (%"class.benchmark::internal::PerfCounters", ptr @_ZN9benchmark8internal23PerfCountersMeasurement9counters_E, i64 0, i32 1), align 8, !tbaa !69
  %cmp60.not.i = icmp eq ptr %16, %17
  br i1 %cmp60.not.i, label %invoke.cont, label %for.body.lr.ph.i

for.body.lr.ph.i:                                 ; preds = %invoke.cont2.i
  %start_values_.i = getelementptr inbounds %"class.benchmark::internal::PerfCountersMeasurement", ptr %10, i64 0, i32 1
  %second.i.i = getelementptr inbounds %"struct.std::__1::pair", ptr %ref.tmp.i, i64 0, i32 1
  %__end_.i.i = getelementptr inbounds %"class.std::__1::vector.29", ptr %measurements, i64 0, i32 1
  %__end_cap_.i.i.i = getelementptr inbounds %"class.std::__1::vector.29", ptr %measurements, i64 0, i32 2
  %__data_.i.i.i.i = getelementptr inbounds %"struct.std::__1::basic_string<char>::__long", ptr %ref.tmp.i, i64 0, i32 2
  br label %for.body.i

lpad.i:                                           ; preds = %.noexc
  %18 = landingpad { ptr, i32 }
          cleanup
  br label %_ZN9benchmark9MutexLockD2Ev.exit53.i

for.body.i:                                       ; preds = %_ZNSt3__14pairINS_12basic_stringIcNS_11char_traitsIcEENS_9allocatorIcEEEEdED2Ev.exit.i, %for.body.lr.ph.i
  %19 = phi ptr [ %17, %for.body.lr.ph.i ], [ %27, %_ZNSt3__14pairINS_12basic_stringIcNS_11char_traitsIcEENS_9allocatorIcEEEEdED2Ev.exit.i ]
  %i.061.i = phi i64 [ 0, %for.body.lr.ph.i ], [ %add.i.i, %_ZNSt3__14pairINS_12basic_stringIcNS_11char_traitsIcEENS_9allocatorIcEEEEdED2Ev.exit.i ]
  %add.i.i = add nuw nsw i64 %i.061.i, 1
  %arrayidx.i.i.i = getelementptr inbounds [4 x i64], ptr %end_values_.i, i64 0, i64 %add.i.i
  %20 = load i64, ptr %arrayidx.i.i.i, align 8, !tbaa !31
  %arrayidx.i.i41.i = getelementptr inbounds [4 x i64], ptr %start_values_.i, i64 0, i64 %add.i.i
  %21 = load i64, ptr %arrayidx.i.i41.i, align 8, !tbaa !31
  call void @llvm.lifetime.start.p0(i64 32, ptr nonnull %ref.tmp.i) #33
  %arrayidx.i.i = getelementptr inbounds %"class.std::__1::basic_string", ptr %19, i64 %i.061.i
  invoke void @_ZNSt3__112basic_stringIcNS_11char_traitsIcEENS_9allocatorIcEEEC1ERKS5_(ptr noundef nonnull align 8 dereferenceable(24) %ref.tmp.i, ptr noundef nonnull align 8 dereferenceable(24) %arrayidx.i.i)
          to label %invoke.cont22.i unwind label %lpad18.i

invoke.cont22.i:                                  ; preds = %for.body.i
  %conv14.i = uitofp i64 %20 to double
  %conv17.i = uitofp i64 %21 to double
  %sub.i = fsub double %conv14.i, %conv17.i
  store double %sub.i, ptr %second.i.i, align 8, !tbaa !70
  %22 = load ptr, ptr %__end_.i.i, align 8, !tbaa !76
  %23 = load ptr, ptr %__end_cap_.i.i.i, align 8, !tbaa !30
  %cmp.i42.i = icmp ult ptr %22, %23
  br i1 %cmp.i42.i, label %invoke.cont24.thread.i, label %if.else.i.i

invoke.cont24.thread.i:                           ; preds = %invoke.cont22.i
  call void @llvm.memcpy.p0.p0.i64(ptr noundef nonnull align 8 dereferenceable(24) %22, ptr noundef nonnull align 8 dereferenceable(24) %ref.tmp.i, i64 24, i1 false)
  %second.i.i.i.i.i.i = getelementptr inbounds %"struct.std::__1::pair", ptr %22, i64 0, i32 1
  %24 = load double, ptr %second.i.i, align 8, !tbaa !70
  store double %24, ptr %second.i.i.i.i.i.i, align 8, !tbaa !70
  %incdec.ptr.i.i.i = getelementptr inbounds %"struct.std::__1::pair", ptr %22, i64 1
  store ptr %incdec.ptr.i.i.i, ptr %__end_.i.i, align 8, !tbaa !76
  br label %_ZNSt3__14pairINS_12basic_stringIcNS_11char_traitsIcEENS_9allocatorIcEEEEdED2Ev.exit.i

if.else.i.i:                                      ; preds = %invoke.cont22.i
  invoke void @_ZNSt3__16vectorINS_4pairINS_12basic_stringIcNS_11char_traitsIcEENS_9allocatorIcEEEEdEENS5_IS8_EEE21__push_back_slow_pathIS8_EEvOT_(ptr noundef nonnull align 8 dereferenceable(24) %measurements, ptr noundef nonnull align 8 dereferenceable(32) %ref.tmp.i)
          to label %invoke.cont24.i unwind label %lpad23.i

invoke.cont24.i:                                  ; preds = %if.else.i.i
  %bf.load.i.i.i.pre.i = load i8, ptr %ref.tmp.i, align 8
  %bf.clear.i.i.i.i = and i8 %bf.load.i.i.i.pre.i, 1
  %tobool.i.not.i.i.i = icmp eq i8 %bf.clear.i.i.i.i, 0
  br i1 %tobool.i.not.i.i.i, label %_ZNSt3__14pairINS_12basic_stringIcNS_11char_traitsIcEENS_9allocatorIcEEEEdED2Ev.exit.i, label %if.then.i.i43.i

if.then.i.i43.i:                                  ; preds = %invoke.cont24.i
  %25 = load ptr, ptr %__data_.i.i.i.i, align 8, !tbaa !80
  call void @_ZdlPv(ptr noundef %25) #36
  br label %_ZNSt3__14pairINS_12basic_stringIcNS_11char_traitsIcEENS_9allocatorIcEEEEdED2Ev.exit.i

_ZNSt3__14pairINS_12basic_stringIcNS_11char_traitsIcEENS_9allocatorIcEEEEdED2Ev.exit.i: ; preds = %if.then.i.i43.i, %invoke.cont24.i, %invoke.cont24.thread.i
  call void @llvm.lifetime.end.p0(i64 32, ptr nonnull %ref.tmp.i) #33
  %26 = load ptr, ptr getelementptr inbounds (%"class.benchmark::internal::PerfCounters", ptr @_ZN9benchmark8internal23PerfCountersMeasurement9counters_E, i64 0, i32 1, i32 1), align 8, !tbaa !65
  %27 = load ptr, ptr getelementptr inbounds (%"class.benchmark::internal::PerfCounters", ptr @_ZN9benchmark8internal23PerfCountersMeasurement9counters_E, i64 0, i32 1), align 8, !tbaa !69
  %sub.ptr.lhs.cast.i.i = ptrtoint ptr %26 to i64
  %sub.ptr.rhs.cast.i.i = ptrtoint ptr %27 to i64
  %sub.ptr.sub.i.i = sub i64 %sub.ptr.lhs.cast.i.i, %sub.ptr.rhs.cast.i.i
  %sub.ptr.div.i.i = sdiv exact i64 %sub.ptr.sub.i.i, 24
  %cmp.i = icmp ult i64 %add.i.i, %sub.ptr.div.i.i
  br i1 %cmp.i, label %for.body.i, label %invoke.cont, !llvm.loop !81

lpad18.i:                                         ; preds = %for.body.i
  %28 = landingpad { ptr, i32 }
          cleanup
  br label %ehcleanup.i

lpad23.i:                                         ; preds = %if.else.i.i
  %29 = landingpad { ptr, i32 }
          cleanup
  %bf.load.i.i.i44.i = load i8, ptr %ref.tmp.i, align 8
  %bf.clear.i.i.i45.i = and i8 %bf.load.i.i.i44.i, 1
  %tobool.i.not.i.i46.i = icmp eq i8 %bf.clear.i.i.i45.i, 0
  br i1 %tobool.i.not.i.i46.i, label %ehcleanup.i, label %if.then.i.i48.i

if.then.i.i48.i:                                  ; preds = %lpad23.i
  %30 = load ptr, ptr %__data_.i.i.i.i, align 8, !tbaa !80
  call void @_ZdlPv(ptr noundef %30) #36
  br label %ehcleanup.i

ehcleanup.i:                                      ; preds = %if.then.i.i48.i, %lpad23.i, %lpad18.i
  %.pn.i = phi { ptr, i32 } [ %28, %lpad18.i ], [ %29, %lpad23.i ], [ %29, %if.then.i.i48.i ]
  call void @llvm.lifetime.end.p0(i64 32, ptr nonnull %ref.tmp.i) #33
  br label %_ZN9benchmark9MutexLockD2Ev.exit53.i

_ZN9benchmark9MutexLockD2Ev.exit53.i:             ; preds = %ehcleanup.i, %lpad.i
  %.pn.pn.i = phi { ptr, i32 } [ %.pn.i, %ehcleanup.i ], [ %18, %lpad.i ]
  call void @_ZNSt3__15mutex6unlockEv(ptr noundef nonnull align 8 dereferenceable(40) @_ZN9benchmark8internal23PerfCountersMeasurement6mutex_E) #33
  br label %ehcleanup30

invoke.cont:                                      ; preds = %_ZNSt3__14pairINS_12basic_stringIcNS_11char_traitsIcEENS_9allocatorIcEEEEdED2Ev.exit.i, %invoke.cont2.i
  %31 = load i8, ptr %10, align 8, !tbaa !63, !range !51, !noundef !52
  %tobool28.i.not = icmp eq i8 %31, 0
  call void @_ZNSt3__15mutex6unlockEv(ptr noundef nonnull align 8 dereferenceable(40) @_ZN9benchmark8internal23PerfCountersMeasurement6mutex_E) #33
  br i1 %tobool28.i.not, label %if.then4, label %if.end

if.then4:                                         ; preds = %invoke.cont
  %32 = load atomic i8, ptr @_ZGVZN9benchmark8internal18GetNullLogInstanceEvE3log acquire, align 8
  %guard.uninitialized.i40 = icmp eq i8 %32, 0
  br i1 %guard.uninitialized.i40, label %init.check.i42, label %invoke.cont5, !prof !5

init.check.i42:                                   ; preds = %if.then4
  %33 = call i32 @__cxa_guard_acquire(ptr nonnull @_ZGVZN9benchmark8internal18GetNullLogInstanceEvE3log) #33
  %tobool.not.i41 = icmp eq i32 %33, 0
  br i1 %tobool.not.i41, label %invoke.cont5, label %init.i43

init.i43:                                         ; preds = %init.check.i42
  store ptr null, ptr @_ZZN9benchmark8internal18GetNullLogInstanceEvE3log, align 8, !tbaa !43
  call void @__cxa_guard_release(ptr nonnull @_ZGVZN9benchmark8internal18GetNullLogInstanceEvE3log) #33
  br label %invoke.cont5

invoke.cont5:                                     ; preds = %init.i43, %init.check.i42, %if.then4
  %34 = load ptr, ptr @_ZZN9benchmark8internal18GetNullLogInstanceEvE3log, align 8, !tbaa !43
  %tobool.not.i45 = icmp eq ptr %34, null
  br i1 %tobool.not.i45, label %if.end, label %if.then.i

if.then.i:                                        ; preds = %invoke.cont5
  %call1.i.i46 = invoke noundef nonnull align 8 dereferenceable(8) ptr @_ZNSt3__124__put_character_sequenceB7v170000IcNS_11char_traitsIcEEEERNS_13basic_ostreamIT_T0_EES7_PKS4_m(ptr noundef nonnull align 8 dereferenceable(8) %34, ptr noundef nonnull @.str.39, i64 noundef 36)
          to label %if.end unwind label %lpad

lpad:                                             ; preds = %if.then.i, %if.then
  %35 = landingpad { ptr, i32 }
          cleanup
  br label %ehcleanup30

if.end:                                           ; preds = %invoke.cont5, %if.then.i, %invoke.cont
  %36 = load ptr, ptr %measurements, align 8, !tbaa !82
  %__end_.i = getelementptr inbounds %"class.std::__1::vector.29", ptr %measurements, i64 0, i32 1
  %37 = load ptr, ptr %__end_.i, align 8, !tbaa !76
  %cmp.i.i47.not65 = icmp eq ptr %36, %37
  br i1 %cmp.i.i47.not65, label %for.cond.cleanup, label %for.body.lr.ph

for.body.lr.ph:                                   ; preds = %if.end
  %counters = getelementptr inbounds %"class.benchmark::State", ptr %this, i64 0, i32 8
  %__data_.i.i = getelementptr inbounds %"struct.std::__1::basic_string<char>::__long", ptr %name, i64 0, i32 2
  br label %for.body

for.cond.cleanup.loopexit:                        ; preds = %_ZNSt3__112basic_stringIcNS_11char_traitsIcEENS_9allocatorIcEEED2Ev.exit
  %.pre = load ptr, ptr %measurements, align 8, !tbaa !82
  br label %for.cond.cleanup

for.cond.cleanup:                                 ; preds = %for.cond.cleanup.loopexit, %if.end
  %38 = phi ptr [ %.pre, %for.cond.cleanup.loopexit ], [ %36, %if.end ]
  %cmp.not.i.i = icmp eq ptr %38, null
  br i1 %cmp.not.i.i, label %_ZNSt3__16vectorINS_4pairINS_12basic_stringIcNS_11char_traitsIcEENS_9allocatorIcEEEEdEENS5_IS8_EEED2B7v170000Ev.exit, label %if.then.i.i48

if.then.i.i48:                                    ; preds = %for.cond.cleanup
  %39 = load ptr, ptr %__end_.i, align 8, !tbaa !76
  %cmp.not6.i.i.i.i = icmp eq ptr %39, %38
  br i1 %cmp.not6.i.i.i.i, label %_ZNSt3__16vectorINS_4pairINS_12basic_stringIcNS_11char_traitsIcEENS_9allocatorIcEEEEdEENS5_IS8_EEE7__clearB7v170000Ev.exit.i.i, label %while.body.i.i.i.i

while.body.i.i.i.i:                               ; preds = %if.then.i.i48, %_ZNSt3__116allocator_traitsINS_9allocatorINS_4pairINS_12basic_stringIcNS_11char_traitsIcEENS1_IcEEEEdEEEEE7destroyB7v170000IS8_vEEvRS9_PT_.exit.i.i.i.i
  %__soon_to_be_end.07.i.i.i.i = phi ptr [ %incdec.ptr.i.i.i.i, %_ZNSt3__116allocator_traitsINS_9allocatorINS_4pairINS_12basic_stringIcNS_11char_traitsIcEENS1_IcEEEEdEEEEE7destroyB7v170000IS8_vEEvRS9_PT_.exit.i.i.i.i ], [ %39, %if.then.i.i48 ]
  %incdec.ptr.i.i.i.i = getelementptr inbounds %"struct.std::__1::pair", ptr %__soon_to_be_end.07.i.i.i.i, i64 -1
  %bf.load.i.i.i.i.i.i.i.i.i = load i8, ptr %incdec.ptr.i.i.i.i, align 8
  %bf.clear.i.i.i.i.i.i.i.i.i = and i8 %bf.load.i.i.i.i.i.i.i.i.i, 1
  %tobool.i.not.i.i.i.i.i.i.i.i = icmp eq i8 %bf.clear.i.i.i.i.i.i.i.i.i, 0
  br i1 %tobool.i.not.i.i.i.i.i.i.i.i, label %_ZNSt3__116allocator_traitsINS_9allocatorINS_4pairINS_12basic_stringIcNS_11char_traitsIcEENS1_IcEEEEdEEEEE7destroyB7v170000IS8_vEEvRS9_PT_.exit.i.i.i.i, label %if.then.i.i.i.i.i.i.i.i

if.then.i.i.i.i.i.i.i.i:                          ; preds = %while.body.i.i.i.i
  %__data_.i.i.i.i.i.i.i.i.i = getelementptr %"struct.std::__1::pair", ptr %__soon_to_be_end.07.i.i.i.i, i64 -1, i32 0, i32 0, i32 0, i32 0, i32 0, i32 0, i32 2
  %40 = load ptr, ptr %__data_.i.i.i.i.i.i.i.i.i, align 8, !tbaa !80
  call void @_ZdlPv(ptr noundef %40) #36
  br label %_ZNSt3__116allocator_traitsINS_9allocatorINS_4pairINS_12basic_stringIcNS_11char_traitsIcEENS1_IcEEEEdEEEEE7destroyB7v170000IS8_vEEvRS9_PT_.exit.i.i.i.i

_ZNSt3__116allocator_traitsINS_9allocatorINS_4pairINS_12basic_stringIcNS_11char_traitsIcEENS1_IcEEEEdEEEEE7destroyB7v170000IS8_vEEvRS9_PT_.exit.i.i.i.i: ; preds = %if.then.i.i.i.i.i.i.i.i, %while.body.i.i.i.i
  %cmp.not.i.i.i.i = icmp eq ptr %incdec.ptr.i.i.i.i, %38
  br i1 %cmp.not.i.i.i.i, label %_ZNSt3__16vectorINS_4pairINS_12basic_stringIcNS_11char_traitsIcEENS_9allocatorIcEEEEdEENS5_IS8_EEE7__clearB7v170000Ev.exit.loopexit.i.i, label %while.body.i.i.i.i

_ZNSt3__16vectorINS_4pairINS_12basic_stringIcNS_11char_traitsIcEENS_9allocatorIcEEEEdEENS5_IS8_EEE7__clearB7v170000Ev.exit.loopexit.i.i: ; preds = %_ZNSt3__116allocator_traitsINS_9allocatorINS_4pairINS_12basic_stringIcNS_11char_traitsIcEENS1_IcEEEEdEEEEE7destroyB7v170000IS8_vEEvRS9_PT_.exit.i.i.i.i
  %.pre10.i.i = load ptr, ptr %measurements, align 8, !tbaa !82
  br label %_ZNSt3__16vectorINS_4pairINS_12basic_stringIcNS_11char_traitsIcEENS_9allocatorIcEEEEdEENS5_IS8_EEE7__clearB7v170000Ev.exit.i.i

_ZNSt3__16vectorINS_4pairINS_12basic_stringIcNS_11char_traitsIcEENS_9allocatorIcEEEEdEENS5_IS8_EEE7__clearB7v170000Ev.exit.i.i: ; preds = %_ZNSt3__16vectorINS_4pairINS_12basic_stringIcNS_11char_traitsIcEENS_9allocatorIcEEEEdEENS5_IS8_EEE7__clearB7v170000Ev.exit.loopexit.i.i, %if.then.i.i48
  %41 = phi ptr [ %.pre10.i.i, %_ZNSt3__16vectorINS_4pairINS_12basic_stringIcNS_11char_traitsIcEENS_9allocatorIcEEEEdEENS5_IS8_EEE7__clearB7v170000Ev.exit.loopexit.i.i ], [ %38, %if.then.i.i48 ]
  store ptr %38, ptr %__end_.i, align 8, !tbaa !76
  call void @_ZdlPv(ptr noundef %41) #36
  br label %_ZNSt3__16vectorINS_4pairINS_12basic_stringIcNS_11char_traitsIcEENS_9allocatorIcEEEEdEENS5_IS8_EEED2B7v170000Ev.exit

_ZNSt3__16vectorINS_4pairINS_12basic_stringIcNS_11char_traitsIcEENS_9allocatorIcEEEEdEENS5_IS8_EEED2B7v170000Ev.exit: ; preds = %for.cond.cleanup, %_ZNSt3__16vectorINS_4pairINS_12basic_stringIcNS_11char_traitsIcEENS_9allocatorIcEEEEdEENS5_IS8_EEE7__clearB7v170000Ev.exit.i.i
  call void @llvm.lifetime.end.p0(i64 24, ptr nonnull %measurements) #33
  br label %if.end32

for.body:                                         ; preds = %for.body.lr.ph, %_ZNSt3__112basic_stringIcNS_11char_traitsIcEENS_9allocatorIcEEED2Ev.exit
  %__begin2.sroa.0.066 = phi ptr [ %36, %for.body.lr.ph ], [ %incdec.ptr.i, %_ZNSt3__112basic_stringIcNS_11char_traitsIcEENS_9allocatorIcEEED2Ev.exit ]
  call void @llvm.lifetime.start.p0(i64 24, ptr nonnull %name) #33
  invoke void @_ZNSt3__112basic_stringIcNS_11char_traitsIcEENS_9allocatorIcEEEC1ERKS5_(ptr noundef nonnull align 8 dereferenceable(24) %name, ptr noundef nonnull align 8 dereferenceable(24) %__begin2.sroa.0.066)
          to label %invoke.cont15 unwind label %lpad14

invoke.cont15:                                    ; preds = %for.body
  %second = getelementptr inbounds %"struct.std::__1::pair", ptr %__begin2.sroa.0.066, i64 0, i32 1
  %42 = load double, ptr %second, align 8, !tbaa !70
  %43 = load atomic i8, ptr @_ZGVZN9benchmark8internal18GetNullLogInstanceEvE3log acquire, align 8
  %guard.uninitialized.i50 = icmp eq i8 %43, 0
  br i1 %guard.uninitialized.i50, label %init.check.i52, label %invoke.cont17, !prof !5

init.check.i52:                                   ; preds = %invoke.cont15
  %44 = call i32 @__cxa_guard_acquire(ptr nonnull @_ZGVZN9benchmark8internal18GetNullLogInstanceEvE3log) #33
  %tobool.not.i51 = icmp eq i32 %44, 0
  br i1 %tobool.not.i51, label %invoke.cont17, label %init.i53

init.i53:                                         ; preds = %init.check.i52
  store ptr null, ptr @_ZZN9benchmark8internal18GetNullLogInstanceEvE3log, align 8, !tbaa !43
  call void @__cxa_guard_release(ptr nonnull @_ZGVZN9benchmark8internal18GetNullLogInstanceEvE3log) #33
  br label %invoke.cont17

invoke.cont17:                                    ; preds = %init.i53, %init.check.i52, %invoke.cont15
  call void @llvm.lifetime.start.p0(i64 8, ptr nonnull %ref.tmp2.i) #33
  store ptr %name, ptr %ref.tmp2.i, align 8
  call void @llvm.lifetime.start.p0(i64 1, ptr nonnull %ref.tmp5.i) #33
  %call6.i55 = invoke { ptr, i8 } @_ZNSt3__16__treeINS_12__value_typeINS_12basic_stringIcNS_11char_traitsIcEENS_9allocatorIcEEEEN9benchmark7CounterEEENS_19__map_value_compareIS7_SA_NS_4lessIS7_EELb1EEENS5_ISA_EEE25__emplace_unique_key_argsIS7_JRKNS_21piecewise_construct_tENS_5tupleIJRKS7_EEENSL_IJEEEEEENS_4pairINS_15__tree_iteratorISA_PNS_11__tree_nodeISA_PvEElEEbEERKT_DpOT0_(ptr noundef nonnull align 8 dereferenceable(24) %counters, ptr noundef nonnull align 8 dereferenceable(24) %name, ptr noundef nonnull align 1 dereferenceable(1) @_ZNSt3__1L19piecewise_constructE, ptr noundef nonnull align 8 dereferenceable(8) %ref.tmp2.i, ptr noundef nonnull align 1 dereferenceable(1) %ref.tmp5.i)
          to label %invoke.cont21 unwind label %lpad19

invoke.cont21:                                    ; preds = %invoke.cont17
  %45 = extractvalue { ptr, i8 } %call6.i55, 0
  %second.i = getelementptr inbounds %"class.std::__1::__tree_node.200", ptr %45, i64 0, i32 1, i32 0, i32 1
  call void @llvm.lifetime.end.p0(i64 1, ptr nonnull %ref.tmp5.i) #33
  call void @llvm.lifetime.end.p0(i64 8, ptr nonnull %ref.tmp2.i) #33
  store double %42, ptr %second.i, align 8, !tbaa.struct !83
  %ref.tmp.sroa.5.0.second.i.sroa_idx = getelementptr inbounds %"class.std::__1::__tree_node.200", ptr %45, i64 0, i32 1, i32 0, i32 1, i32 1
  store i32 8, ptr %ref.tmp.sroa.5.0.second.i.sroa_idx, align 8, !tbaa.struct !89
  %ref.tmp.sroa.6.0.second.i.sroa_idx = getelementptr inbounds %"class.std::__1::__tree_node.200", ptr %45, i64 0, i32 1, i32 0, i32 1, i32 2
  store i32 1000, ptr %ref.tmp.sroa.6.0.second.i.sroa_idx, align 4, !tbaa.struct !90
  %bf.load.i.i = load i8, ptr %name, align 8
  %bf.clear.i.i = and i8 %bf.load.i.i, 1
  %tobool.i.not.i = icmp eq i8 %bf.clear.i.i, 0
  br i1 %tobool.i.not.i, label %_ZNSt3__112basic_stringIcNS_11char_traitsIcEENS_9allocatorIcEEED2Ev.exit, label %if.then.i56

if.then.i56:                                      ; preds = %invoke.cont21
  %46 = load ptr, ptr %__data_.i.i, align 8, !tbaa !80
  call void @_ZdlPv(ptr noundef %46) #36
  br label %_ZNSt3__112basic_stringIcNS_11char_traitsIcEENS_9allocatorIcEEED2Ev.exit

_ZNSt3__112basic_stringIcNS_11char_traitsIcEENS_9allocatorIcEEED2Ev.exit: ; preds = %invoke.cont21, %if.then.i56
  call void @llvm.lifetime.end.p0(i64 24, ptr nonnull %name) #33
  %incdec.ptr.i = getelementptr inbounds %"struct.std::__1::pair", ptr %__begin2.sroa.0.066, i64 1
  %cmp.i.i47.not = icmp eq ptr %incdec.ptr.i, %37
  br i1 %cmp.i.i47.not, label %for.cond.cleanup.loopexit, label %for.body

lpad14:                                           ; preds = %for.body
  %47 = landingpad { ptr, i32 }
          cleanup
  br label %ehcleanup24

lpad19:                                           ; preds = %invoke.cont17
  %48 = landingpad { ptr, i32 }
          cleanup
  %bf.load.i.i57 = load i8, ptr %name, align 8
  %bf.clear.i.i58 = and i8 %bf.load.i.i57, 1
  %tobool.i.not.i59 = icmp eq i8 %bf.clear.i.i58, 0
  br i1 %tobool.i.not.i59, label %ehcleanup24, label %if.then.i61

if.then.i61:                                      ; preds = %lpad19
  %49 = load ptr, ptr %__data_.i.i, align 8, !tbaa !80
  call void @_ZdlPv(ptr noundef %49) #36
  br label %ehcleanup24

ehcleanup24:                                      ; preds = %if.then.i61, %lpad19, %lpad14
  %.pn.pn = phi { ptr, i32 } [ %47, %lpad14 ], [ %48, %lpad19 ], [ %48, %if.then.i61 ]
  call void @llvm.lifetime.end.p0(i64 24, ptr nonnull %name) #33
  br label %ehcleanup30

ehcleanup30:                                      ; preds = %lpad, %_ZN9benchmark9MutexLockD2Ev.exit53.i, %ehcleanup24
  %.pn.pn.pn = phi { ptr, i32 } [ %.pn.pn, %ehcleanup24 ], [ %35, %lpad ], [ %.pn.pn.i, %_ZN9benchmark9MutexLockD2Ev.exit53.i ]
  call void @_ZNSt3__16vectorINS_4pairINS_12basic_stringIcNS_11char_traitsIcEENS_9allocatorIcEEEEdEENS5_IS8_EEED2B7v170000Ev(ptr noundef nonnull align 8 dereferenceable(24) %measurements) #33
  call void @llvm.lifetime.end.p0(i64 24, ptr nonnull %measurements) #33
  resume { ptr, i32 } %.pn.pn.pn

if.end32:                                         ; preds = %_ZNSt3__16vectorINS_4pairINS_12basic_stringIcNS_11char_traitsIcEENS_9allocatorIcEEEEdEENS5_IS8_EEED2B7v170000Ev.exit, %_ZN9benchmark8internal11ThreadTimer9StopTimerEv.exit
  ret void
}

declare void @_ZNSt3__112basic_stringIcNS_11char_traitsIcEENS_9allocatorIcEEEC1ERKS5_(ptr noundef nonnull align 8 dereferenceable(24), ptr noundef nonnull align 8 dereferenceable(24)) unnamed_addr #1

; Function Attrs: mustprogress nocallback nofree nounwind willreturn memory(argmem: readwrite)
declare void @llvm.memcpy.p0.p0.i64(ptr noalias nocapture writeonly, ptr noalias nocapture readonly, i64, i1 immarg) #8

; Function Attrs: nounwind uwtable
define linkonce_odr hidden void @_ZNSt3__16vectorINS_4pairINS_12basic_stringIcNS_11char_traitsIcEENS_9allocatorIcEEEEdEENS5_IS8_EEED2B7v170000Ev(ptr noundef nonnull align 8 dereferenceable(24) %this) unnamed_addr #4 comdat align 2 personality ptr @__gxx_personality_v0 {
entry:
  %0 = load ptr, ptr %this, align 8, !tbaa !82
  %cmp.not.i = icmp eq ptr %0, null
  br i1 %cmp.not.i, label %invoke.cont2, label %if.then.i

if.then.i:                                        ; preds = %entry
  %__end_.i.i.i = getelementptr inbounds %"class.std::__1::vector.29", ptr %this, i64 0, i32 1
  %1 = load ptr, ptr %__end_.i.i.i, align 8, !tbaa !76
  %cmp.not6.i.i.i = icmp eq ptr %1, %0
  br i1 %cmp.not6.i.i.i, label %_ZNSt3__16vectorINS_4pairINS_12basic_stringIcNS_11char_traitsIcEENS_9allocatorIcEEEEdEENS5_IS8_EEE7__clearB7v170000Ev.exit.i, label %while.body.i.i.i

while.body.i.i.i:                                 ; preds = %if.then.i, %_ZNSt3__116allocator_traitsINS_9allocatorINS_4pairINS_12basic_stringIcNS_11char_traitsIcEENS1_IcEEEEdEEEEE7destroyB7v170000IS8_vEEvRS9_PT_.exit.i.i.i
  %__soon_to_be_end.07.i.i.i = phi ptr [ %incdec.ptr.i.i.i, %_ZNSt3__116allocator_traitsINS_9allocatorINS_4pairINS_12basic_stringIcNS_11char_traitsIcEENS1_IcEEEEdEEEEE7destroyB7v170000IS8_vEEvRS9_PT_.exit.i.i.i ], [ %1, %if.then.i ]
  %incdec.ptr.i.i.i = getelementptr inbounds %"struct.std::__1::pair", ptr %__soon_to_be_end.07.i.i.i, i64 -1
  %bf.load.i.i.i.i.i.i.i.i = load i8, ptr %incdec.ptr.i.i.i, align 8
  %bf.clear.i.i.i.i.i.i.i.i = and i8 %bf.load.i.i.i.i.i.i.i.i, 1
  %tobool.i.not.i.i.i.i.i.i.i = icmp eq i8 %bf.clear.i.i.i.i.i.i.i.i, 0
  br i1 %tobool.i.not.i.i.i.i.i.i.i, label %_ZNSt3__116allocator_traitsINS_9allocatorINS_4pairINS_12basic_stringIcNS_11char_traitsIcEENS1_IcEEEEdEEEEE7destroyB7v170000IS8_vEEvRS9_PT_.exit.i.i.i, label %if.then.i.i.i.i.i.i.i

if.then.i.i.i.i.i.i.i:                            ; preds = %while.body.i.i.i
  %__data_.i.i.i.i.i.i.i.i = getelementptr %"struct.std::__1::pair", ptr %__soon_to_be_end.07.i.i.i, i64 -1, i32 0, i32 0, i32 0, i32 0, i32 0, i32 0, i32 2
  %2 = load ptr, ptr %__data_.i.i.i.i.i.i.i.i, align 8, !tbaa !80
  tail call void @_ZdlPv(ptr noundef %2) #36
  br label %_ZNSt3__116allocator_traitsINS_9allocatorINS_4pairINS_12basic_stringIcNS_11char_traitsIcEENS1_IcEEEEdEEEEE7destroyB7v170000IS8_vEEvRS9_PT_.exit.i.i.i

_ZNSt3__116allocator_traitsINS_9allocatorINS_4pairINS_12basic_stringIcNS_11char_traitsIcEENS1_IcEEEEdEEEEE7destroyB7v170000IS8_vEEvRS9_PT_.exit.i.i.i: ; preds = %if.then.i.i.i.i.i.i.i, %while.body.i.i.i
  %cmp.not.i.i.i = icmp eq ptr %incdec.ptr.i.i.i, %0
  br i1 %cmp.not.i.i.i, label %_ZNSt3__16vectorINS_4pairINS_12basic_stringIcNS_11char_traitsIcEENS_9allocatorIcEEEEdEENS5_IS8_EEE7__clearB7v170000Ev.exit.loopexit.i, label %while.body.i.i.i

_ZNSt3__16vectorINS_4pairINS_12basic_stringIcNS_11char_traitsIcEENS_9allocatorIcEEEEdEENS5_IS8_EEE7__clearB7v170000Ev.exit.loopexit.i: ; preds = %_ZNSt3__116allocator_traitsINS_9allocatorINS_4pairINS_12basic_stringIcNS_11char_traitsIcEENS1_IcEEEEdEEEEE7destroyB7v170000IS8_vEEvRS9_PT_.exit.i.i.i
  %.pre10.i = load ptr, ptr %this, align 8, !tbaa !82
  br label %_ZNSt3__16vectorINS_4pairINS_12basic_stringIcNS_11char_traitsIcEENS_9allocatorIcEEEEdEENS5_IS8_EEE7__clearB7v170000Ev.exit.i

_ZNSt3__16vectorINS_4pairINS_12basic_stringIcNS_11char_traitsIcEENS_9allocatorIcEEEEdEENS5_IS8_EEE7__clearB7v170000Ev.exit.i: ; preds = %_ZNSt3__16vectorINS_4pairINS_12basic_stringIcNS_11char_traitsIcEENS_9allocatorIcEEEEdEENS5_IS8_EEE7__clearB7v170000Ev.exit.loopexit.i, %if.then.i
  %3 = phi ptr [ %.pre10.i, %_ZNSt3__16vectorINS_4pairINS_12basic_stringIcNS_11char_traitsIcEENS_9allocatorIcEEEEdEENS5_IS8_EEE7__clearB7v170000Ev.exit.loopexit.i ], [ %0, %if.then.i ]
  store ptr %0, ptr %__end_.i.i.i, align 8, !tbaa !76
  tail call void @_ZdlPv(ptr noundef %3) #36
  br label %invoke.cont2

invoke.cont2:                                     ; preds = %_ZNSt3__16vectorINS_4pairINS_12basic_stringIcNS_11char_traitsIcEENS_9allocatorIcEEEEdEENS5_IS8_EEE7__clearB7v170000Ev.exit.i, %entry
  ret void
}

; Function Attrs: uwtable
define hidden void @_ZN9benchmark5State12ResumeTimingEv(ptr nocapture noundef nonnull readonly align 8 dereferenceable(120) %this) local_unnamed_addr #6 align 2 personality ptr @__gxx_personality_v0 {
entry:
  %0 = load atomic i8, ptr @_ZGVZN9benchmark8internal18GetNullLogInstanceEvE3log acquire, align 8
  %guard.uninitialized.i = icmp eq i8 %0, 0
  br i1 %guard.uninitialized.i, label %init.check.i, label %_ZN9benchmark8internal18GetNullLogInstanceEv.exit, !prof !5

init.check.i:                                     ; preds = %entry
  %1 = tail call i32 @__cxa_guard_acquire(ptr nonnull @_ZGVZN9benchmark8internal18GetNullLogInstanceEvE3log) #33
  %tobool.not.i = icmp eq i32 %1, 0
  br i1 %tobool.not.i, label %_ZN9benchmark8internal18GetNullLogInstanceEv.exit, label %init.i

init.i:                                           ; preds = %init.check.i
  store ptr null, ptr @_ZZN9benchmark8internal18GetNullLogInstanceEvE3log, align 8, !tbaa !43
  tail call void @__cxa_guard_release(ptr nonnull @_ZGVZN9benchmark8internal18GetNullLogInstanceEvE3log) #33
  br label %_ZN9benchmark8internal18GetNullLogInstanceEv.exit

_ZN9benchmark8internal18GetNullLogInstanceEv.exit: ; preds = %entry, %init.check.i, %init.i
  %timer_ = getelementptr inbounds %"class.benchmark::State", ptr %this, i64 0, i32 11
  %2 = load ptr, ptr %timer_, align 8, !tbaa !40
  %running_.i = getelementptr inbounds %"class.benchmark::internal::ThreadTimer", ptr %2, i64 0, i32 1
  store i8 1, ptr %running_.i, align 1, !tbaa !45
  %call.i.i = tail call i64 @_ZNSt3__16chrono12steady_clock3nowEv() #33
  %conv.i.i.i.i.i = sitofp i64 %call.i.i to double
  %div.i.i.i.i.i = fdiv double %conv.i.i.i.i.i, 1.000000e+09
  %start_real_time_.i = getelementptr inbounds %"class.benchmark::internal::ThreadTimer", ptr %2, i64 0, i32 2
  store double %div.i.i.i.i.i, ptr %start_real_time_.i, align 8, !tbaa !48
  %3 = load i8, ptr %2, align 8, !tbaa !50, !range !51, !noundef !52
  %tobool.not.i.i = icmp eq i8 %3, 0
  br i1 %tobool.not.i.i, label %if.end.i.i, label %if.then.i.i

if.then.i.i:                                      ; preds = %_ZN9benchmark8internal18GetNullLogInstanceEv.exit
  %call.i3.i = tail call noundef double @_ZN9benchmark15ProcessCPUUsageEv()
  br label %_ZN9benchmark8internal11ThreadTimer10StartTimerEv.exit

if.end.i.i:                                       ; preds = %_ZN9benchmark8internal18GetNullLogInstanceEv.exit
  %call2.i.i = tail call noundef double @_ZN9benchmark14ThreadCPUUsageEv()
  br label %_ZN9benchmark8internal11ThreadTimer10StartTimerEv.exit

_ZN9benchmark8internal11ThreadTimer10StartTimerEv.exit: ; preds = %if.then.i.i, %if.end.i.i
  %retval.0.i.i = phi double [ %call.i3.i, %if.then.i.i ], [ %call2.i.i, %if.end.i.i ]
  %start_cpu_time_.i = getelementptr inbounds %"class.benchmark::internal::ThreadTimer", ptr %2, i64 0, i32 3
  store double %retval.0.i.i, ptr %start_cpu_time_.i, align 8, !tbaa !53
  %perf_counters_measurement_ = getelementptr inbounds %"class.benchmark::State", ptr %this, i64 0, i32 13
  %4 = load ptr, ptr %perf_counters_measurement_, align 8, !tbaa !42
  %tobool.not = icmp eq ptr %4, null
  br i1 %tobool.not, label %if.end, label %if.then

if.then:                                          ; preds = %_ZN9benchmark8internal11ThreadTimer10StartTimerEv.exit
  tail call void @_ZNSt3__15mutex4lockEv(ptr noundef nonnull align 8 dereferenceable(40) @_ZN9benchmark8internal23PerfCountersMeasurement6mutex_E)
  fence syncscope("singlethread") acq_rel
  %start_values_.i = getelementptr inbounds %"class.benchmark::internal::PerfCountersMeasurement", ptr %4, i64 0, i32 1
  %nr_counters_.i.i.i = getelementptr inbounds %"class.benchmark::internal::PerfCountersMeasurement", ptr %4, i64 0, i32 1, i32 1
  %5 = load i64, ptr %nr_counters_.i.i.i, align 8, !tbaa !55
  %add.i.i.i = shl i64 %5, 3
  %mul.i.i.i = add i64 %add.i.i.i, 8
  %6 = load ptr, ptr @_ZN9benchmark8internal23PerfCountersMeasurement9counters_E, align 8, !tbaa !58
  %7 = load i32, ptr %6, align 4, !tbaa !62
  %call3.i5.i = invoke i64 @read(i32 noundef %7, ptr noundef nonnull %start_values_.i, i64 noundef %mul.i.i.i)
          to label %_ZN9benchmark8internal23PerfCountersMeasurement5StartEv.exit unwind label %_ZN9benchmark9MutexLockD2Ev.exit10.i

_ZN9benchmark9MutexLockD2Ev.exit10.i:             ; preds = %if.then
  %8 = landingpad { ptr, i32 }
          cleanup
  tail call void @_ZNSt3__15mutex6unlockEv(ptr noundef nonnull align 8 dereferenceable(40) @_ZN9benchmark8internal23PerfCountersMeasurement6mutex_E) #33
  resume { ptr, i32 } %8

_ZN9benchmark8internal23PerfCountersMeasurement5StartEv.exit: ; preds = %if.then
  %cmp.i.i = icmp eq i64 %call3.i5.i, %mul.i.i.i
  %9 = load i8, ptr %4, align 8, !tbaa !63, !range !51, !noundef !52
  %10 = icmp ne i8 %9, 0
  %tobool3.i = and i1 %cmp.i.i, %10
  %frombool.i = zext i1 %tobool3.i to i8
  store i8 %frombool.i, ptr %4, align 8, !tbaa !63
  fence syncscope("singlethread") acq_rel
  tail call void @_ZNSt3__15mutex6unlockEv(ptr noundef nonnull align 8 dereferenceable(40) @_ZN9benchmark8internal23PerfCountersMeasurement6mutex_E) #33
  br label %if.end

if.end:                                           ; preds = %_ZN9benchmark8internal23PerfCountersMeasurement5StartEv.exit, %_ZN9benchmark8internal11ThreadTimer10StartTimerEv.exit
  ret void
}

; Function Attrs: uwtable
define hidden void @_ZN9benchmark5State13SkipWithErrorEPKc(ptr nocapture noundef nonnull align 8 dereferenceable(120) %this, ptr noundef %msg) local_unnamed_addr #6 align 2 personality ptr @__gxx_personality_v0 {
entry:
  %0 = load atomic i8, ptr @_ZGVZN9benchmark8internal18GetNullLogInstanceEvE3log acquire, align 8
  %guard.uninitialized.i = icmp eq i8 %0, 0
  br i1 %guard.uninitialized.i, label %init.check.i, label %_ZN9benchmark8internal18GetNullLogInstanceEv.exit, !prof !5

init.check.i:                                     ; preds = %entry
  %1 = tail call i32 @__cxa_guard_acquire(ptr nonnull @_ZGVZN9benchmark8internal18GetNullLogInstanceEvE3log) #33
  %tobool.not.i = icmp eq i32 %1, 0
  br i1 %tobool.not.i, label %_ZN9benchmark8internal18GetNullLogInstanceEv.exit, label %init.i

init.i:                                           ; preds = %init.check.i
  store ptr null, ptr @_ZZN9benchmark8internal18GetNullLogInstanceEvE3log, align 8, !tbaa !43
  tail call void @__cxa_guard_release(ptr nonnull @_ZGVZN9benchmark8internal18GetNullLogInstanceEvE3log) #33
  br label %_ZN9benchmark8internal18GetNullLogInstanceEv.exit

_ZN9benchmark8internal18GetNullLogInstanceEv.exit: ; preds = %entry, %init.check.i, %init.i
  %error_occurred_ = getelementptr inbounds %"class.benchmark::State", ptr %this, i64 0, i32 5
  store i8 1, ptr %error_occurred_, align 2, !tbaa !27
  %manager_ = getelementptr inbounds %"class.benchmark::State", ptr %this, i64 0, i32 12
  %2 = load ptr, ptr %manager_, align 8, !tbaa !41
  %benchmark_mutex_.i = getelementptr inbounds %"class.benchmark::internal::ThreadManager", ptr %2, i64 0, i32 1
  tail call void @_ZNSt3__15mutex4lockEv(ptr noundef nonnull align 8 dereferenceable(40) %benchmark_mutex_.i)
  %3 = load ptr, ptr %manager_, align 8, !tbaa !41
  %has_error_ = getelementptr inbounds %"struct.benchmark::internal::ThreadManager::Result", ptr %3, i64 0, i32 7
  %4 = load i8, ptr %has_error_, align 8, !tbaa !91, !range !51, !noundef !52
  %cmp = icmp eq i8 %4, 0
  br i1 %cmp, label %if.then, label %_ZN9benchmark9MutexLockD2Ev.exit20

if.then:                                          ; preds = %_ZN9benchmark8internal18GetNullLogInstanceEv.exit
  %error_message_ = getelementptr inbounds %"struct.benchmark::internal::ThreadManager::Result", ptr %3, i64 0, i32 6
  %call.i15 = invoke noundef nonnull align 8 dereferenceable(24) ptr @_ZNSt3__112basic_stringIcNS_11char_traitsIcEENS_9allocatorIcEEE6assignEPKc(ptr noundef nonnull align 8 dereferenceable(24) %error_message_, ptr noundef %msg)
          to label %invoke.cont unwind label %_ZN9benchmark9MutexLockD2Ev.exit

invoke.cont:                                      ; preds = %if.then
  %5 = load ptr, ptr %manager_, align 8, !tbaa !41
  %has_error_9 = getelementptr inbounds %"struct.benchmark::internal::ThreadManager::Result", ptr %5, i64 0, i32 7
  store i8 1, ptr %has_error_9, align 8, !tbaa !91
  br label %_ZN9benchmark9MutexLockD2Ev.exit20

_ZN9benchmark9MutexLockD2Ev.exit:                 ; preds = %if.then
  %6 = landingpad { ptr, i32 }
          cleanup
  tail call void @_ZNSt3__15mutex6unlockEv(ptr noundef nonnull align 8 dereferenceable(40) %benchmark_mutex_.i) #33
  resume { ptr, i32 } %6

_ZN9benchmark9MutexLockD2Ev.exit20:               ; preds = %invoke.cont, %_ZN9benchmark8internal18GetNullLogInstanceEv.exit
  tail call void @_ZNSt3__15mutex6unlockEv(ptr noundef nonnull align 8 dereferenceable(40) %benchmark_mutex_.i) #33
  store i64 0, ptr %this, align 8, !tbaa !103
  %timer_ = getelementptr inbounds %"class.benchmark::State", ptr %this, i64 0, i32 11
  %7 = load ptr, ptr %timer_, align 8, !tbaa !40
  %running_.i = getelementptr inbounds %"class.benchmark::internal::ThreadTimer", ptr %7, i64 0, i32 1
  %8 = load i8, ptr %running_.i, align 1, !tbaa !45, !range !51, !noundef !52
  %tobool.i.not = icmp eq i8 %8, 0
  br i1 %tobool.i.not, label %if.end13, label %if.then11

if.then11:                                        ; preds = %_ZN9benchmark9MutexLockD2Ev.exit20
  %9 = load atomic i8, ptr @_ZGVZN9benchmark8internal18GetNullLogInstanceEvE3log acquire, align 8
  %guard.uninitialized.i.i = icmp eq i8 %9, 0
  br i1 %guard.uninitialized.i.i, label %init.check.i.i, label %_ZN9benchmark8internal18GetNullLogInstanceEv.exit.i, !prof !5

init.check.i.i:                                   ; preds = %if.then11
  %10 = tail call i32 @__cxa_guard_acquire(ptr nonnull @_ZGVZN9benchmark8internal18GetNullLogInstanceEvE3log) #33
  %tobool.not.i.i21 = icmp eq i32 %10, 0
  br i1 %tobool.not.i.i21, label %_ZN9benchmark8internal18GetNullLogInstanceEv.exit.i, label %init.i.i

init.i.i:                                         ; preds = %init.check.i.i
  store ptr null, ptr @_ZZN9benchmark8internal18GetNullLogInstanceEvE3log, align 8, !tbaa !43
  tail call void @__cxa_guard_release(ptr nonnull @_ZGVZN9benchmark8internal18GetNullLogInstanceEvE3log) #33
  br label %_ZN9benchmark8internal18GetNullLogInstanceEv.exit.i

_ZN9benchmark8internal18GetNullLogInstanceEv.exit.i: ; preds = %init.i.i, %init.check.i.i, %if.then11
  store i8 0, ptr %running_.i, align 1, !tbaa !45
  %call.i.i = tail call i64 @_ZNSt3__16chrono12steady_clock3nowEv() #33
  %conv.i.i.i.i.i = sitofp i64 %call.i.i to double
  %div.i.i.i.i.i = fdiv double %conv.i.i.i.i.i, 1.000000e+09
  %start_real_time_.i = getelementptr inbounds %"class.benchmark::internal::ThreadTimer", ptr %7, i64 0, i32 2
  %11 = load double, ptr %start_real_time_.i, align 8, !tbaa !48
  %sub.i = fsub double %div.i.i.i.i.i, %11
  %real_time_used_.i = getelementptr inbounds %"class.benchmark::internal::ThreadTimer", ptr %7, i64 0, i32 4
  %12 = load double, ptr %real_time_used_.i, align 8, !tbaa !49
  %add.i = fadd double %12, %sub.i
  store double %add.i, ptr %real_time_used_.i, align 8, !tbaa !49
  %13 = load i8, ptr %7, align 8, !tbaa !50, !range !51, !noundef !52
  %tobool.not.i8.i = icmp eq i8 %13, 0
  br i1 %tobool.not.i8.i, label %if.end.i.i, label %if.then.i.i23

if.then.i.i23:                                    ; preds = %_ZN9benchmark8internal18GetNullLogInstanceEv.exit.i
  %call.i9.i = tail call noundef double @_ZN9benchmark15ProcessCPUUsageEv()
  br label %_ZN9benchmark8internal11ThreadTimer9StopTimerEv.exit

if.end.i.i:                                       ; preds = %_ZN9benchmark8internal18GetNullLogInstanceEv.exit.i
  %call2.i.i = tail call noundef double @_ZN9benchmark14ThreadCPUUsageEv()
  br label %_ZN9benchmark8internal11ThreadTimer9StopTimerEv.exit

_ZN9benchmark8internal11ThreadTimer9StopTimerEv.exit: ; preds = %if.then.i.i23, %if.end.i.i
  %retval.0.i.i = phi double [ %call.i9.i, %if.then.i.i23 ], [ %call2.i.i, %if.end.i.i ]
  %start_cpu_time_.i = getelementptr inbounds %"class.benchmark::internal::ThreadTimer", ptr %7, i64 0, i32 3
  %14 = load double, ptr %start_cpu_time_.i, align 8, !tbaa !53
  %sub4.i = fsub double %retval.0.i.i, %14
  %cmp.i.i.i.i = fcmp olt double %sub4.i, 0.000000e+00
  %.sroa.speculated.i = select i1 %cmp.i.i.i.i, double 0.000000e+00, double %sub4.i
  %cpu_time_used_.i = getelementptr inbounds %"class.benchmark::internal::ThreadTimer", ptr %7, i64 0, i32 5
  %15 = load double, ptr %cpu_time_used_.i, align 8, !tbaa !54
  %add7.i = fadd double %15, %.sroa.speculated.i
  store double %add7.i, ptr %cpu_time_used_.i, align 8, !tbaa !54
  br label %if.end13

if.end13:                                         ; preds = %_ZN9benchmark8internal11ThreadTimer9StopTimerEv.exit, %_ZN9benchmark9MutexLockD2Ev.exit20
  ret void
}

; Function Attrs: mustprogress nofree norecurse nosync nounwind willreturn memory(readwrite, inaccessiblemem: none) uwtable
define hidden void @_ZN9benchmark5State16SetIterationTimeEd(ptr nocapture noundef nonnull readonly align 8 dereferenceable(120) %this, double noundef %seconds) local_unnamed_addr #9 align 2 {
entry:
  %timer_ = getelementptr inbounds %"class.benchmark::State", ptr %this, i64 0, i32 11
  %0 = load ptr, ptr %timer_, align 8, !tbaa !40
  %manual_time_used_.i = getelementptr inbounds %"class.benchmark::internal::ThreadTimer", ptr %0, i64 0, i32 6
  %1 = load double, ptr %manual_time_used_.i, align 8, !tbaa !104
  %add.i = fadd double %1, %seconds
  store double %add.i, ptr %manual_time_used_.i, align 8, !tbaa !104
  ret void
}

; Function Attrs: uwtable
define hidden void @_ZN9benchmark5State8SetLabelEPKc(ptr nocapture noundef nonnull readonly align 8 dereferenceable(120) %this, ptr noundef %label) local_unnamed_addr #6 align 2 personality ptr @__gxx_personality_v0 {
entry:
  %manager_ = getelementptr inbounds %"class.benchmark::State", ptr %this, i64 0, i32 12
  %0 = load ptr, ptr %manager_, align 8, !tbaa !41
  %benchmark_mutex_.i = getelementptr inbounds %"class.benchmark::internal::ThreadManager", ptr %0, i64 0, i32 1
  tail call void @_ZNSt3__15mutex4lockEv(ptr noundef nonnull align 8 dereferenceable(40) %benchmark_mutex_.i)
  %1 = load ptr, ptr %manager_, align 8, !tbaa !41
  %report_label_ = getelementptr inbounds %"struct.benchmark::internal::ThreadManager::Result", ptr %1, i64 0, i32 5
  %call.i5 = invoke noundef nonnull align 8 dereferenceable(24) ptr @_ZNSt3__112basic_stringIcNS_11char_traitsIcEENS_9allocatorIcEEE6assignEPKc(ptr noundef nonnull align 8 dereferenceable(24) %report_label_, ptr noundef %label)
          to label %_ZN9benchmark9MutexLockD2Ev.exit unwind label %_ZN9benchmark9MutexLockD2Ev.exit10

_ZN9benchmark9MutexLockD2Ev.exit:                 ; preds = %entry
  tail call void @_ZNSt3__15mutex6unlockEv(ptr noundef nonnull align 8 dereferenceable(40) %benchmark_mutex_.i) #33
  ret void

_ZN9benchmark9MutexLockD2Ev.exit10:               ; preds = %entry
  %2 = landingpad { ptr, i32 }
          cleanup
  tail call void @_ZNSt3__15mutex6unlockEv(ptr noundef nonnull align 8 dereferenceable(40) %benchmark_mutex_.i) #33
  resume { ptr, i32 } %2
}

; Function Attrs: uwtable
define hidden void @_ZN9benchmark5State16StartKeepRunningEv(ptr nocapture noundef nonnull align 8 dereferenceable(120) %this) local_unnamed_addr #6 align 2 personality ptr @__gxx_personality_v0 {
entry:
  %0 = load atomic i8, ptr @_ZGVZN9benchmark8internal18GetNullLogInstanceEvE3log acquire, align 8
  %guard.uninitialized.i = icmp eq i8 %0, 0
  br i1 %guard.uninitialized.i, label %init.check.i, label %_ZN9benchmark8internal18GetNullLogInstanceEv.exit, !prof !5

init.check.i:                                     ; preds = %entry
  %1 = tail call i32 @__cxa_guard_acquire(ptr nonnull @_ZGVZN9benchmark8internal18GetNullLogInstanceEvE3log) #33
  %tobool.not.i = icmp eq i32 %1, 0
  br i1 %tobool.not.i, label %_ZN9benchmark8internal18GetNullLogInstanceEv.exit, label %init.i

init.i:                                           ; preds = %init.check.i
  store ptr null, ptr @_ZZN9benchmark8internal18GetNullLogInstanceEvE3log, align 8, !tbaa !43
  tail call void @__cxa_guard_release(ptr nonnull @_ZGVZN9benchmark8internal18GetNullLogInstanceEvE3log) #33
  br label %_ZN9benchmark8internal18GetNullLogInstanceEv.exit

_ZN9benchmark8internal18GetNullLogInstanceEv.exit: ; preds = %entry, %init.check.i, %init.i
  %started_ = getelementptr inbounds %"class.benchmark::State", ptr %this, i64 0, i32 3
  store i8 1, ptr %started_, align 8, !tbaa !25
  %error_occurred_ = getelementptr inbounds %"class.benchmark::State", ptr %this, i64 0, i32 5
  %2 = load i8, ptr %error_occurred_, align 2, !tbaa !27, !range !51, !noundef !52
  %tobool.not = icmp eq i8 %2, 0
  %max_iterations = getelementptr inbounds %"class.benchmark::State", ptr %this, i64 0, i32 2
  %3 = load i64, ptr %max_iterations, align 8
  %cond = select i1 %tobool.not, i64 %3, i64 0
  store i64 %cond, ptr %this, align 8, !tbaa !103
  %manager_ = getelementptr inbounds %"class.benchmark::State", ptr %this, i64 0, i32 12
  %4 = load ptr, ptr %manager_, align 8, !tbaa !41
  %start_stop_barrier_.i = getelementptr inbounds %"class.benchmark::internal::ThreadManager", ptr %4, i64 0, i32 4
  %call.i = tail call noundef zeroext i1 @_ZN9benchmark7Barrier4waitEv(ptr noundef nonnull align 8 dereferenceable(100) %start_stop_barrier_.i)
  %5 = load i8, ptr %error_occurred_, align 2, !tbaa !27, !range !51, !noundef !52
  %tobool4.not = icmp eq i8 %5, 0
  br i1 %tobool4.not, label %if.then, label %if.end

if.then:                                          ; preds = %_ZN9benchmark8internal18GetNullLogInstanceEv.exit
  tail call void @_ZN9benchmark5State12ResumeTimingEv(ptr noundef nonnull align 8 dereferenceable(120) %this)
  br label %if.end

if.end:                                           ; preds = %if.then, %_ZN9benchmark8internal18GetNullLogInstanceEv.exit
  ret void
}

; Function Attrs: uwtable
define hidden void @_ZN9benchmark5State17FinishKeepRunningEv(ptr noundef nonnull align 8 dereferenceable(120) %this) local_unnamed_addr #6 align 2 personality ptr @__gxx_personality_v0 {
entry:
  %0 = load atomic i8, ptr @_ZGVZN9benchmark8internal18GetNullLogInstanceEvE3log acquire, align 8
  %guard.uninitialized.i = icmp eq i8 %0, 0
  br i1 %guard.uninitialized.i, label %init.check.i, label %_ZN9benchmark8internal18GetNullLogInstanceEv.exit, !prof !5

init.check.i:                                     ; preds = %entry
  %1 = tail call i32 @__cxa_guard_acquire(ptr nonnull @_ZGVZN9benchmark8internal18GetNullLogInstanceEvE3log) #33
  %tobool.not.i = icmp eq i32 %1, 0
  br i1 %tobool.not.i, label %_ZN9benchmark8internal18GetNullLogInstanceEv.exit, label %init.i

init.i:                                           ; preds = %init.check.i
  store ptr null, ptr @_ZZN9benchmark8internal18GetNullLogInstanceEvE3log, align 8, !tbaa !43
  tail call void @__cxa_guard_release(ptr nonnull @_ZGVZN9benchmark8internal18GetNullLogInstanceEvE3log) #33
  br label %_ZN9benchmark8internal18GetNullLogInstanceEv.exit

_ZN9benchmark8internal18GetNullLogInstanceEv.exit: ; preds = %entry, %init.check.i, %init.i
  %error_occurred_ = getelementptr inbounds %"class.benchmark::State", ptr %this, i64 0, i32 5
  %2 = load i8, ptr %error_occurred_, align 2, !tbaa !27, !range !51, !noundef !52
  %tobool.not = icmp eq i8 %2, 0
  br i1 %tobool.not, label %if.then, label %if.end

if.then:                                          ; preds = %_ZN9benchmark8internal18GetNullLogInstanceEv.exit
  tail call void @_ZN9benchmark5State11PauseTimingEv(ptr noundef nonnull align 8 dereferenceable(120) %this)
  br label %if.end

if.end:                                           ; preds = %if.then, %_ZN9benchmark8internal18GetNullLogInstanceEv.exit
  store i64 0, ptr %this, align 8, !tbaa !103
  %finished_ = getelementptr inbounds %"class.benchmark::State", ptr %this, i64 0, i32 4
  store i8 1, ptr %finished_, align 1, !tbaa !26
  %manager_ = getelementptr inbounds %"class.benchmark::State", ptr %this, i64 0, i32 12
  %3 = load ptr, ptr %manager_, align 8, !tbaa !41
  %start_stop_barrier_.i = getelementptr inbounds %"class.benchmark::internal::ThreadManager", ptr %3, i64 0, i32 4
  %call.i = tail call noundef zeroext i1 @_ZN9benchmark7Barrier4waitEv(ptr noundef nonnull align 8 dereferenceable(100) %start_stop_barrier_.i)
  ret void
}

; Function Attrs: mustprogress nofree nosync nounwind willreturn memory(none) uwtable
define hidden noundef zeroext i1 @_ZN9benchmark8internal6IsZeroEd(double noundef %n) local_unnamed_addr #10 {
entry:
  %0 = tail call double @llvm.fabs.f64(double %n)
  %cmp = fcmp olt double %0, 0x3CB0000000000000
  ret i1 %cmp
}

; Function Attrs: mustprogress uwtable
define hidden noundef i32 @_ZN9benchmark8internal16GetOutputOptionsEb(i1 noundef zeroext %force_no_color) local_unnamed_addr #0 personality ptr @__gxx_personality_v0 {
entry:
  br i1 %force_no_color, label %"_ZZN9benchmark8internal16GetOutputOptionsEbENK3$_0clEv.exit.thread", label %if.end.i

if.end.i:                                         ; preds = %entry
  %bf.load.i.i.i.i = load i8, ptr @_ZN9benchmark21FLAGS_benchmark_colorE, align 8
  %bf.clear.i.i.i.i = and i8 %bf.load.i.i.i.i, 1
  %tobool.i.not.i.i.i = icmp eq i8 %bf.clear.i.i.i.i, 0
  %0 = load i64, ptr getelementptr inbounds (%"class.std::__1::basic_string", ptr @_ZN9benchmark21FLAGS_benchmark_colorE, i64 0, i32 0, i32 0, i32 0, i32 0, i32 0, i32 1), align 8
  %bf.lshr.i.i.i.i = lshr i8 %bf.load.i.i.i.i, 1
  %conv.i.i.i.i = zext i8 %bf.lshr.i.i.i.i to i64
  %cond.i.i.i = select i1 %tobool.i.not.i.i.i, i64 %conv.i.i.i.i, i64 %0
  %cmp2.not.i.i = icmp eq i64 %cond.i.i.i, 4
  br i1 %cmp2.not.i.i, label %_ZNSt3__111char_traitsIcE7compareEPKcS3_m.exit.i.i.i, label %"_ZZN9benchmark8internal16GetOutputOptionsEbENK3$_0clEv.exit"

_ZNSt3__111char_traitsIcE7compareEPKcS3_m.exit.i.i.i: ; preds = %if.end.i
  %1 = load ptr, ptr getelementptr inbounds (%"class.std::__1::basic_string", ptr @_ZN9benchmark21FLAGS_benchmark_colorE, i64 0, i32 0, i32 0, i32 0, i32 0, i32 0, i32 2), align 8
  %cond.i.i.i.i.i = select i1 %tobool.i.not.i.i.i, ptr getelementptr inbounds (%"struct.std::__1::basic_string<char>::__short", ptr @_ZN9benchmark21FLAGS_benchmark_colorE, i64 0, i32 2), ptr %1
  %bcmp.i = tail call i32 @bcmp(ptr noundef nonnull dereferenceable(4) %cond.i.i.i.i.i, ptr noundef nonnull dereferenceable(4) @.str.26, i64 4)
  %cmp9.i.i.i = icmp eq i32 %bcmp.i, 0
  br i1 %cmp9.i.i.i, label %if.then2.i, label %"_ZZN9benchmark8internal16GetOutputOptionsEbENK3$_0clEv.exit"

if.then2.i:                                       ; preds = %_ZNSt3__111char_traitsIcE7compareEPKcS3_m.exit.i.i.i
  %call3.i = tail call noundef zeroext i1 @_ZN9benchmark15IsColorTerminalEv()
  br i1 %call3.i, label %2, label %"_ZZN9benchmark8internal16GetOutputOptionsEbENK3$_0clEv.exit.thread"

"_ZZN9benchmark8internal16GetOutputOptionsEbENK3$_0clEv.exit": ; preds = %if.end.i, %_ZNSt3__111char_traitsIcE7compareEPKcS3_m.exit.i.i.i
  %call5.i = tail call noundef zeroext i1 @_ZN9benchmark17IsTruthyFlagValueERKNSt3__112basic_stringIcNS0_11char_traitsIcEENS0_9allocatorIcEEEE(ptr noundef nonnull align 8 dereferenceable(24) @_ZN9benchmark21FLAGS_benchmark_colorE)
  br i1 %call5.i, label %2, label %"_ZZN9benchmark8internal16GetOutputOptionsEbENK3$_0clEv.exit.thread"

2:                                                ; preds = %if.then2.i, %"_ZZN9benchmark8internal16GetOutputOptionsEbENK3$_0clEv.exit"
  br label %"_ZZN9benchmark8internal16GetOutputOptionsEbENK3$_0clEv.exit.thread"

"_ZZN9benchmark8internal16GetOutputOptionsEbENK3$_0clEv.exit.thread": ; preds = %entry, %if.then2.i, %"_ZZN9benchmark8internal16GetOutputOptionsEbENK3$_0clEv.exit", %2
  %3 = phi i32 [ 3, %2 ], [ 2, %"_ZZN9benchmark8internal16GetOutputOptionsEbENK3$_0clEv.exit" ], [ 2, %if.then2.i ], [ 2, %entry ]
  %4 = load i8, ptr @_ZN9benchmark32FLAGS_benchmark_counters_tabularE, align 1, !tbaa !105, !range !51, !noundef !52
  %tobool2.not = icmp eq i8 %4, 0
  %and6 = and i32 %3, 1
  %output_opts.1 = select i1 %tobool2.not, i32 %and6, i32 %3
  ret i32 %output_opts.1
}

; Function Attrs: uwtable
define hidden noundef ptr @_ZN9benchmark28CreateDefaultDisplayReporterEv() local_unnamed_addr #6 personality ptr @__gxx_personality_v0 {
entry:
  %ref.tmp = alloca %"class.std::__1::unique_ptr", align 8
  %0 = load atomic i8, ptr @_ZGVZN9benchmark28CreateDefaultDisplayReporterEvE24default_display_reporter acquire, align 8
  %guard.uninitialized = icmp eq i8 %0, 0
  br i1 %guard.uninitialized, label %init.check, label %init.end, !prof !5

init.check:                                       ; preds = %entry
  %1 = tail call i32 @__cxa_guard_acquire(ptr nonnull @_ZGVZN9benchmark28CreateDefaultDisplayReporterEvE24default_display_reporter) #33
  %tobool.not = icmp eq i32 %1, 0
  br i1 %tobool.not, label %init.end, label %init

init:                                             ; preds = %init.check
  call void @llvm.lifetime.start.p0(i64 8, ptr nonnull %ref.tmp) #33
  %call = invoke noundef i32 @_ZN9benchmark8internal16GetOutputOptionsEb(i1 noundef zeroext false)
          to label %invoke.cont unwind label %lpad, !range !106

invoke.cont:                                      ; preds = %init
  invoke fastcc void @_ZN9benchmark8internal12_GLOBAL__N_114CreateReporterERKNSt3__112basic_stringIcNS2_11char_traitsIcEENS2_9allocatorIcEEEENS_15ConsoleReporter13OutputOptionsE(ptr noalias nonnull align 8 %ref.tmp, ptr noundef nonnull align 8 dereferenceable(24) @_ZN9benchmark22FLAGS_benchmark_formatE, i32 noundef %call)
          to label %_ZNSt3__110unique_ptrIN9benchmark17BenchmarkReporterENS_14default_deleteIS2_EEED2B7v170000Ev.exit unwind label %lpad

_ZNSt3__110unique_ptrIN9benchmark17BenchmarkReporterENS_14default_deleteIS2_EEED2B7v170000Ev.exit: ; preds = %invoke.cont
  %2 = load ptr, ptr %ref.tmp, align 8, !tbaa !30
  call void @llvm.lifetime.end.p0(i64 8, ptr nonnull %ref.tmp) #33
  store ptr %2, ptr @_ZZN9benchmark28CreateDefaultDisplayReporterEvE24default_display_reporter, align 8, !tbaa !30
  tail call void @__cxa_guard_release(ptr nonnull @_ZGVZN9benchmark28CreateDefaultDisplayReporterEvE24default_display_reporter) #33
  br label %init.end

init.end:                                         ; preds = %_ZNSt3__110unique_ptrIN9benchmark17BenchmarkReporterENS_14default_deleteIS2_EEED2B7v170000Ev.exit, %init.check, %entry
  %3 = load ptr, ptr @_ZZN9benchmark28CreateDefaultDisplayReporterEvE24default_display_reporter, align 8, !tbaa !30
  ret ptr %3

lpad:                                             ; preds = %invoke.cont, %init
  %4 = landingpad { ptr, i32 }
          cleanup
  call void @llvm.lifetime.end.p0(i64 8, ptr nonnull %ref.tmp) #33
  tail call void @__cxa_guard_abort(ptr nonnull @_ZGVZN9benchmark28CreateDefaultDisplayReporterEvE24default_display_reporter) #33
  resume { ptr, i32 } %4
}

; Function Attrs: nofree nounwind
declare i32 @__cxa_guard_acquire(ptr) local_unnamed_addr #3

; Function Attrs: uwtable
define internal fastcc void @_ZN9benchmark8internal12_GLOBAL__N_114CreateReporterERKNSt3__112basic_stringIcNS2_11char_traitsIcEENS2_9allocatorIcEEEENS_15ConsoleReporter13OutputOptionsE(ptr noalias nocapture writeonly align 8 %agg.result, ptr noundef nonnull align 8 dereferenceable(24) %name, i32 noundef %output_opts) unnamed_addr #6 personality ptr @__gxx_personality_v0 {
entry:
  %bf.load.i.i.i = load i8, ptr %name, align 8
  %bf.clear.i.i.i = and i8 %bf.load.i.i.i, 1
  %tobool.i.not.i.i = icmp eq i8 %bf.clear.i.i.i, 0
  %__size_.i.i.i = getelementptr inbounds %"struct.std::__1::basic_string<char>::__long", ptr %name, i64 0, i32 1
  %0 = load i64, ptr %__size_.i.i.i, align 8
  %bf.lshr.i.i.i = lshr i8 %bf.load.i.i.i, 1
  %conv.i.i.i = zext i8 %bf.lshr.i.i.i to i64
  %cond.i.i = select i1 %tobool.i.not.i.i, i64 %conv.i.i.i, i64 %0
  switch i64 %cond.i.i, label %if.else13 [
    i64 7, label %_ZNSt3__111char_traitsIcE7compareEPKcS3_m.exit.i.i
    i64 4, label %_ZNSt3__111char_traitsIcE7compareEPKcS3_m.exit.i.i40
    i64 3, label %_ZNSt3__111char_traitsIcE7compareEPKcS3_m.exit.i.i66
  ]

_ZNSt3__111char_traitsIcE7compareEPKcS3_m.exit.i.i: ; preds = %entry
  %__data_.i4.i.i.i.i = getelementptr inbounds %"struct.std::__1::basic_string<char>::__short", ptr %name, i64 0, i32 2
  %__data_.i.i.i.i.i = getelementptr inbounds %"struct.std::__1::basic_string<char>::__long", ptr %name, i64 0, i32 2
  %1 = load ptr, ptr %__data_.i.i.i.i.i, align 8
  %cond.i.i.i.i = select i1 %tobool.i.not.i.i, ptr %__data_.i4.i.i.i.i, ptr %1
  %bcmp90 = tail call i32 @bcmp(ptr noundef nonnull dereferenceable(7) %cond.i.i.i.i, ptr noundef nonnull dereferenceable(7) @.str.18, i64 7)
  %cmp9.i.i = icmp eq i32 %bcmp90, 0
  br i1 %cmp9.i.i, label %if.then, label %if.else13

if.then:                                          ; preds = %_ZNSt3__111char_traitsIcE7compareEPKcS3_m.exit.i.i
  %call1 = tail call noalias noundef nonnull dereferenceable(72) ptr @_Znwm(i64 noundef 72) #35
  invoke void @_ZN9benchmark17BenchmarkReporterC2Ev(ptr noundef nonnull align 8 dereferenceable(24) %call1)
          to label %invoke.cont unwind label %lpad

invoke.cont:                                      ; preds = %if.then
  store ptr getelementptr inbounds ({ [9 x ptr] }, ptr @_ZTVN9benchmark15ConsoleReporterE, i64 0, inrange i32 0, i64 2), ptr %call1, align 8, !tbaa !107
  %output_options_.i = getelementptr inbounds %"class.benchmark::ConsoleReporter", ptr %call1, i64 0, i32 1
  store i32 %output_opts, ptr %output_options_.i, align 8, !tbaa !109
  %name_field_width_.i = getelementptr inbounds %"class.benchmark::ConsoleReporter", ptr %call1, i64 0, i32 3
  store i64 0, ptr %name_field_width_.i, align 8, !tbaa !113
  %prev_counters_.i = getelementptr inbounds %"class.benchmark::ConsoleReporter", ptr %call1, i64 0, i32 4
  %__pair1_.i.i.i = getelementptr inbounds %"class.benchmark::ConsoleReporter", ptr %call1, i64 0, i32 4, i32 0, i32 1
  tail call void @llvm.memset.p0.i64(ptr noundef nonnull align 8 dereferenceable(16) %__pair1_.i.i.i, i8 0, i64 16, i1 false)
  store ptr %__pair1_.i.i.i, ptr %prev_counters_.i, align 8, !tbaa !30
  %printed_header_.i = getelementptr inbounds %"class.benchmark::ConsoleReporter", ptr %call1, i64 0, i32 5
  store i8 0, ptr %printed_header_.i, align 8, !tbaa !114
  br label %return

lpad:                                             ; preds = %if.then
  %2 = landingpad { ptr, i32 }
          cleanup
  br label %eh.resume

_ZNSt3__111char_traitsIcE7compareEPKcS3_m.exit.i.i40: ; preds = %entry
  %__data_.i.i.i.i.i36.phi.trans.insert = getelementptr inbounds %"struct.std::__1::basic_string<char>::__long", ptr %name, i64 0, i32 2
  %.pre = load ptr, ptr %__data_.i.i.i.i.i36.phi.trans.insert, align 8
  %__data_.i4.i.i.i.i35 = getelementptr inbounds %"struct.std::__1::basic_string<char>::__short", ptr %name, i64 0, i32 2
  %cond.i.i.i.i37 = select i1 %tobool.i.not.i.i, ptr %__data_.i4.i.i.i.i35, ptr %.pre
  %bcmp89 = tail call i32 @bcmp(ptr noundef nonnull dereferenceable(4) %cond.i.i.i.i37, ptr noundef nonnull dereferenceable(4) @.str.21, i64 4)
  %cmp9.i.i39 = icmp eq i32 %bcmp89, 0
  br i1 %cmp9.i.i39, label %if.then3, label %if.else13

if.then3:                                         ; preds = %_ZNSt3__111char_traitsIcE7compareEPKcS3_m.exit.i.i40
  %call4 = tail call noalias noundef nonnull dereferenceable(32) ptr @_Znwm(i64 noundef 32) #35
  invoke void @_ZN9benchmark17BenchmarkReporterC2Ev(ptr noundef nonnull align 8 dereferenceable(24) %call4)
          to label %invoke.cont6 unwind label %lpad5

invoke.cont6:                                     ; preds = %if.then3
  store ptr getelementptr inbounds ({ [7 x ptr] }, ptr @_ZTVN9benchmark12JSONReporterE, i64 0, inrange i32 0, i64 2), ptr %call4, align 8, !tbaa !107
  %first_report_.i = getelementptr inbounds %"class.benchmark::JSONReporter", ptr %call4, i64 0, i32 1
  store i8 1, ptr %first_report_.i, align 8, !tbaa !115
  br label %return

lpad5:                                            ; preds = %if.then3
  %3 = landingpad { ptr, i32 }
          cleanup
  br label %eh.resume

_ZNSt3__111char_traitsIcE7compareEPKcS3_m.exit.i.i66: ; preds = %entry
  %__data_.i.i.i.i.i62.phi.trans.insert = getelementptr inbounds %"struct.std::__1::basic_string<char>::__long", ptr %name, i64 0, i32 2
  %.pre91 = load ptr, ptr %__data_.i.i.i.i.i62.phi.trans.insert, align 8
  %__data_.i4.i.i.i.i61 = getelementptr inbounds %"struct.std::__1::basic_string<char>::__short", ptr %name, i64 0, i32 2
  %cond.i.i.i.i63 = select i1 %tobool.i.not.i.i, ptr %__data_.i4.i.i.i.i61, ptr %.pre91
  %bcmp = tail call i32 @bcmp(ptr noundef nonnull dereferenceable(3) %cond.i.i.i.i63, ptr noundef nonnull dereferenceable(3) @.str.58, i64 3)
  %cmp9.i.i65 = icmp eq i32 %bcmp, 0
  br i1 %cmp9.i.i65, label %if.then9, label %if.else13

if.then9:                                         ; preds = %_ZNSt3__111char_traitsIcE7compareEPKcS3_m.exit.i.i66
  %call10 = tail call noalias noundef nonnull dereferenceable(56) ptr @_Znwm(i64 noundef 56) #35
  invoke void @_ZN9benchmark17BenchmarkReporterC2Ev(ptr noundef nonnull align 8 dereferenceable(24) %call10)
          to label %invoke.cont12 unwind label %lpad11

invoke.cont12:                                    ; preds = %if.then9
  store ptr getelementptr inbounds ({ [7 x ptr] }, ptr @_ZTVN9benchmark11CSVReporterE, i64 0, inrange i32 0, i64 2), ptr %call10, align 8, !tbaa !107
  %printed_header_.i74 = getelementptr inbounds %"class.benchmark::CSVReporter", ptr %call10, i64 0, i32 1
  store i8 0, ptr %printed_header_.i74, align 8, !tbaa !117
  %user_counter_names_.i = getelementptr inbounds %"class.benchmark::CSVReporter", ptr %call10, i64 0, i32 2
  %__pair1_.i.i.i75 = getelementptr inbounds %"class.benchmark::CSVReporter", ptr %call10, i64 0, i32 2, i32 0, i32 1
  tail call void @llvm.memset.p0.i64(ptr noundef nonnull align 8 dereferenceable(16) %__pair1_.i.i.i75, i8 0, i64 16, i1 false)
  store ptr %__pair1_.i.i.i75, ptr %user_counter_names_.i, align 8, !tbaa !30
  br label %return

lpad11:                                           ; preds = %if.then9
  %4 = landingpad { ptr, i32 }
          cleanup
  br label %eh.resume

if.else13:                                        ; preds = %_ZNSt3__111char_traitsIcE7compareEPKcS3_m.exit.i.i40, %_ZNSt3__111char_traitsIcE7compareEPKcS3_m.exit.i.i, %entry, %_ZNSt3__111char_traitsIcE7compareEPKcS3_m.exit.i.i66
  %call14 = tail call noundef nonnull align 8 dereferenceable(8) ptr @_ZNSt3__1lsB7v170000INS_11char_traitsIcEEEERNS_13basic_ostreamIcT_EES6_PKc(ptr noundef nonnull align 8 dereferenceable(8) @_ZNSt3__14cerrE, ptr noundef nonnull @.str.61)
  %call15 = tail call noundef nonnull align 8 dereferenceable(8) ptr @_ZNSt3__1lsB7v170000IcNS_11char_traitsIcEENS_9allocatorIcEEEERNS_13basic_ostreamIT_T0_EES9_RKNS_12basic_stringIS6_S7_T1_EE(ptr noundef nonnull align 8 dereferenceable(8) %call14, ptr noundef nonnull align 8 dereferenceable(24) %name)
  %call16 = tail call noundef nonnull align 8 dereferenceable(8) ptr @_ZNSt3__1lsB7v170000INS_11char_traitsIcEEEERNS_13basic_ostreamIcT_EES6_PKc(ptr noundef nonnull align 8 dereferenceable(8) %call15, ptr noundef nonnull @.str.62)
  tail call void @exit(i32 noundef 1) #37
  unreachable

return:                                           ; preds = %invoke.cont12, %invoke.cont6, %invoke.cont
  %call10.sink = phi ptr [ %call10, %invoke.cont12 ], [ %call4, %invoke.cont6 ], [ %call1, %invoke.cont ]
  store ptr %call10.sink, ptr %agg.result, align 8, !tbaa !123
  ret void

eh.resume:                                        ; preds = %lpad11, %lpad5, %lpad
  %call10.sink92 = phi ptr [ %call10, %lpad11 ], [ %call4, %lpad5 ], [ %call1, %lpad ]
  %.pn = phi { ptr, i32 } [ %4, %lpad11 ], [ %3, %lpad5 ], [ %2, %lpad ]
  tail call void @_ZdlPv(ptr noundef nonnull %call10.sink92) #36
  resume { ptr, i32 } %.pn
}

; Function Attrs: nofree nounwind
declare void @__cxa_guard_abort(ptr) local_unnamed_addr #3

; Function Attrs: nofree nounwind
declare void @__cxa_guard_release(ptr) local_unnamed_addr #3

; Function Attrs: uwtable
define hidden noundef i64 @_ZN9benchmark22RunSpecifiedBenchmarksEv() local_unnamed_addr #6 personality ptr @__gxx_personality_v0 {
entry:
  %agg.tmp = alloca %"class.std::__1::basic_string", align 8
  call void @_ZNSt3__112basic_stringIcNS_11char_traitsIcEENS_9allocatorIcEEEC1ERKS5_(ptr noundef nonnull align 8 dereferenceable(24) %agg.tmp, ptr noundef nonnull align 8 dereferenceable(24) @_ZN9benchmark22FLAGS_benchmark_filterE)
  %call = invoke noundef i64 @_ZN9benchmark22RunSpecifiedBenchmarksEPNS_17BenchmarkReporterES1_NSt3__112basic_stringIcNS2_11char_traitsIcEENS2_9allocatorIcEEEE(ptr noundef null, ptr noundef null, ptr noundef nonnull %agg.tmp)
          to label %invoke.cont unwind label %lpad

invoke.cont:                                      ; preds = %entry
  %bf.load.i.i = load i8, ptr %agg.tmp, align 8
  %bf.clear.i.i = and i8 %bf.load.i.i, 1
  %tobool.i.not.i = icmp eq i8 %bf.clear.i.i, 0
  br i1 %tobool.i.not.i, label %_ZNSt3__112basic_stringIcNS_11char_traitsIcEENS_9allocatorIcEEED2Ev.exit, label %if.then.i

if.then.i:                                        ; preds = %invoke.cont
  %__data_.i.i = getelementptr inbounds %"struct.std::__1::basic_string<char>::__long", ptr %agg.tmp, i64 0, i32 2
  %0 = load ptr, ptr %__data_.i.i, align 8, !tbaa !80
  call void @_ZdlPv(ptr noundef %0) #36
  br label %_ZNSt3__112basic_stringIcNS_11char_traitsIcEENS_9allocatorIcEEED2Ev.exit

_ZNSt3__112basic_stringIcNS_11char_traitsIcEENS_9allocatorIcEEED2Ev.exit: ; preds = %invoke.cont, %if.then.i
  ret i64 %call

lpad:                                             ; preds = %entry
  %1 = landingpad { ptr, i32 }
          cleanup
  %bf.load.i.i2 = load i8, ptr %agg.tmp, align 8
  %bf.clear.i.i3 = and i8 %bf.load.i.i2, 1
  %tobool.i.not.i4 = icmp eq i8 %bf.clear.i.i3, 0
  br i1 %tobool.i.not.i4, label %_ZNSt3__112basic_stringIcNS_11char_traitsIcEENS_9allocatorIcEEED2Ev.exit7, label %if.then.i6

if.then.i6:                                       ; preds = %lpad
  %__data_.i.i5 = getelementptr inbounds %"struct.std::__1::basic_string<char>::__long", ptr %agg.tmp, i64 0, i32 2
  %2 = load ptr, ptr %__data_.i.i5, align 8, !tbaa !80
  call void @_ZdlPv(ptr noundef %2) #36
  br label %_ZNSt3__112basic_stringIcNS_11char_traitsIcEENS_9allocatorIcEEED2Ev.exit7

_ZNSt3__112basic_stringIcNS_11char_traitsIcEENS_9allocatorIcEEED2Ev.exit7: ; preds = %lpad, %if.then.i6
  resume { ptr, i32 } %1
}

; Function Attrs: uwtable
define hidden noundef i64 @_ZN9benchmark22RunSpecifiedBenchmarksEPNS_17BenchmarkReporterES1_NSt3__112basic_stringIcNS2_11char_traitsIcEENS2_9allocatorIcEEEE(ptr noundef %display_reporter, ptr noundef %file_reporter, ptr noundef %spec) local_unnamed_addr #6 personality ptr @__gxx_personality_v0 {
entry:
  %__uid.i.i.i = alloca %"class.std::__1::uniform_int_distribution", align 8
  %ref.tmp.i.i.i = alloca %"class.std::__1::uniform_int_distribution<long>::param_type", align 8
  %ref.tmp.i.i = alloca %"class.std::__1::basic_string", align 8
  %ref.tmp6.i = alloca %"class.std::__1::basic_string", align 8
  %context.i = alloca %"struct.benchmark::BenchmarkReporter::Context", align 8
  %per_family_reports.i = alloca %"class.std::__1::map.109", align 8
  %runners.i = alloca %"class.std::__1::vector.121", align 8
  %reports_for_family.i = alloca ptr, align 8
  %repetition_indices.i = alloca %"class.std::__1::vector.149", align 8
  %rd.i = alloca %"class.std::__1::random_device", align 4
  %g.i = alloca %"class.std::__1::mersenne_twister_engine", align 8
  %run_results.i = alloca %"struct.benchmark::internal::RunResults", align 16
  %additional_run_stats.i = alloca %"class.std::__1::vector.122", align 8
  %ref.tmp191.i = alloca i32, align 4
  %ref.tmp.i = alloca %"class.std::__1::unique_ptr", align 8
  %output_file = alloca %"class.std::__1::basic_ofstream", align 8
  %ref.tmp = alloca %"class.std::__1::unique_ptr", align 8
  %benchmarks = alloca %"class.std::__1::vector.40", align 8
  %ref.tmp68 = alloca %"class.std::__1::basic_string", align 8
  %bf.load.i.i.i = load i8, ptr %spec, align 8
  %bf.clear.i.i.i = and i8 %bf.load.i.i.i, 1
  %tobool.i.not.i.i = icmp eq i8 %bf.clear.i.i.i, 0
  %__size_.i.i.i = getelementptr inbounds %"struct.std::__1::basic_string<char>::__long", ptr %spec, i64 0, i32 1
  %0 = load i64, ptr %__size_.i.i.i, align 8
  %bf.lshr.i.i.i = lshr i8 %bf.load.i.i.i, 1
  %conv.i.i.i = zext i8 %bf.lshr.i.i.i to i64
  %cond.i.i = select i1 %tobool.i.not.i.i, i64 %conv.i.i.i, i64 %0
  switch i64 %cond.i.i, label %if.end [
    i64 0, label %if.then
    i64 3, label %_ZNSt3__111char_traitsIcE7compareEPKcS3_m.exit.i.i
  ]

_ZNSt3__111char_traitsIcE7compareEPKcS3_m.exit.i.i: ; preds = %entry
  %__data_.i4.i.i.i.i = getelementptr inbounds %"struct.std::__1::basic_string<char>::__short", ptr %spec, i64 0, i32 2
  %__data_.i.i.i.i.i = getelementptr inbounds %"struct.std::__1::basic_string<char>::__long", ptr %spec, i64 0, i32 2
  %1 = load ptr, ptr %__data_.i.i.i.i.i, align 8
  %cond.i.i.i.i = select i1 %tobool.i.not.i.i, ptr %__data_.i4.i.i.i.i, ptr %1
  %bcmp = tail call i32 @bcmp(ptr noundef nonnull dereferenceable(3) %cond.i.i.i.i, ptr noundef nonnull dereferenceable(3) @.str.40, i64 3)
  %cmp9.i.i = icmp eq i32 %bcmp, 0
  br i1 %cmp9.i.i, label %if.then, label %if.end

if.then:                                          ; preds = %entry, %_ZNSt3__111char_traitsIcE7compareEPKcS3_m.exit.i.i
  %call.i = tail call noundef nonnull align 8 dereferenceable(24) ptr @_ZNSt3__112basic_stringIcNS_11char_traitsIcEENS_9allocatorIcEEE6assignEPKc(ptr noundef nonnull align 8 dereferenceable(24) %spec, ptr noundef nonnull @.str.41)
  br label %if.end

if.end:                                           ; preds = %entry, %_ZNSt3__111char_traitsIcE7compareEPKcS3_m.exit.i.i, %if.then
  call void @llvm.lifetime.start.p0(i64 328, ptr nonnull %output_file) #33
  %2 = getelementptr inbounds i8, ptr %output_file, i64 176
  %__sb_.i = getelementptr inbounds %"class.std::__1::basic_ofstream", ptr %output_file, i64 0, i32 1
  store ptr getelementptr inbounds ({ [5 x ptr], [5 x ptr] }, ptr @_ZTCNSt3__114basic_ofstreamIcNS_11char_traitsIcEEEE0_NS_13basic_ostreamIcS2_EE, i64 0, inrange i32 0, i64 3), ptr %output_file, align 8, !tbaa !107
  store ptr getelementptr inbounds ({ [5 x ptr], [5 x ptr] }, ptr @_ZTCNSt3__114basic_ofstreamIcNS_11char_traitsIcEEEE0_NS_13basic_ostreamIcS2_EE, i64 0, inrange i32 1, i64 3), ptr %2, align 8, !tbaa !107
  invoke void @_ZNSt3__18ios_base4initEPv(ptr noundef nonnull align 8 dereferenceable(136) %2, ptr noundef nonnull %__sb_.i)
          to label %invoke.cont.i132 unwind label %lpad.i

invoke.cont.i132:                                 ; preds = %if.end
  %__tie_.i.i.i = getelementptr inbounds i8, ptr %output_file, i64 312
  store ptr null, ptr %__tie_.i.i.i, align 8, !tbaa !125
  %__fill_.i.i.i = getelementptr inbounds i8, ptr %output_file, i64 320
  store i32 -1, ptr %__fill_.i.i.i, align 8, !tbaa !128
  store ptr getelementptr inbounds ({ [5 x ptr], [5 x ptr] }, ptr @_ZTVNSt3__114basic_ofstreamIcNS_11char_traitsIcEEEE, i64 0, inrange i32 0, i64 3), ptr %output_file, align 8, !tbaa !107
  store ptr getelementptr inbounds ({ [5 x ptr], [5 x ptr] }, ptr @_ZTVNSt3__114basic_ofstreamIcNS_11char_traitsIcEEEE, i64 0, inrange i32 1, i64 3), ptr %2, align 8, !tbaa !107
  invoke void @_ZNSt3__113basic_filebufIcNS_11char_traitsIcEEEC2Ev(ptr noundef nonnull align 8 dereferenceable(163) %__sb_.i)
          to label %_ZNSt3__114basic_ofstreamIcNS_11char_traitsIcEEEC1Ev.exit unwind label %lpad4.i

lpad.i:                                           ; preds = %if.end
  %3 = landingpad { ptr, i32 }
          cleanup
  br label %ehcleanup.i

lpad4.i:                                          ; preds = %invoke.cont.i132
  %4 = landingpad { ptr, i32 }
          cleanup
  call void @_ZNSt3__113basic_ostreamIcNS_11char_traitsIcEEED2Ev(ptr noundef nonnull align 8 dereferenceable(8) %output_file, ptr noundef nonnull getelementptr inbounds ([4 x ptr], ptr @_ZTTNSt3__114basic_ofstreamIcNS_11char_traitsIcEEEE, i64 0, i64 1)) #33
  br label %ehcleanup.i

common.resume:                                    ; preds = %_ZNSt3__110unique_ptrIN9benchmark17BenchmarkReporterENS_14default_deleteIS2_EEED2B7v170000Ev.exit262, %ehcleanup.i
  %common.resume.op = phi { ptr, i32 } [ %.pn.i, %ehcleanup.i ], [ %.pn120.pn290294, %_ZNSt3__110unique_ptrIN9benchmark17BenchmarkReporterENS_14default_deleteIS2_EEED2B7v170000Ev.exit262 ]
  resume { ptr, i32 } %common.resume.op

ehcleanup.i:                                      ; preds = %lpad4.i, %lpad.i
  %.pn.i = phi { ptr, i32 } [ %4, %lpad4.i ], [ %3, %lpad.i ]
  call void @_ZNSt3__19basic_iosIcNS_11char_traitsIcEEED2Ev(ptr noundef nonnull align 8 dereferenceable(148) %2) #33
  br label %common.resume

_ZNSt3__114basic_ofstreamIcNS_11char_traitsIcEEEC1Ev.exit: ; preds = %invoke.cont.i132
  %tobool.not = icmp eq ptr %display_reporter, null
  br i1 %tobool.not, label %if.then3, label %if.end6

if.then3:                                         ; preds = %_ZNSt3__114basic_ofstreamIcNS_11char_traitsIcEEEC1Ev.exit
  %5 = load atomic i8, ptr @_ZGVZN9benchmark28CreateDefaultDisplayReporterEvE24default_display_reporter acquire, align 8
  %guard.uninitialized.i = icmp eq i8 %5, 0
  br i1 %guard.uninitialized.i, label %init.check.i, label %_ZNSt3__110unique_ptrIN9benchmark17BenchmarkReporterENS_14default_deleteIS2_EEE5resetB7v170000EPS2_.exit, !prof !5

init.check.i:                                     ; preds = %if.then3
  %6 = call i32 @__cxa_guard_acquire(ptr nonnull @_ZGVZN9benchmark28CreateDefaultDisplayReporterEvE24default_display_reporter) #33
  %tobool.not.i = icmp eq i32 %6, 0
  br i1 %tobool.not.i, label %_ZNSt3__110unique_ptrIN9benchmark17BenchmarkReporterENS_14default_deleteIS2_EEE5resetB7v170000EPS2_.exit, label %init.i

init.i:                                           ; preds = %init.check.i
  call void @llvm.lifetime.start.p0(i64 8, ptr nonnull %ref.tmp.i) #33
  %call.i135 = invoke noundef i32 @_ZN9benchmark8internal16GetOutputOptionsEb(i1 noundef zeroext false)
          to label %invoke.cont.i136 unwind label %lpad.i137, !range !106

invoke.cont.i136:                                 ; preds = %init.i
  invoke fastcc void @_ZN9benchmark8internal12_GLOBAL__N_114CreateReporterERKNSt3__112basic_stringIcNS2_11char_traitsIcEENS2_9allocatorIcEEEENS_15ConsoleReporter13OutputOptionsE(ptr noalias nonnull align 8 %ref.tmp.i, ptr noundef nonnull align 8 dereferenceable(24) @_ZN9benchmark22FLAGS_benchmark_formatE, i32 noundef %call.i135)
          to label %_ZNSt3__110unique_ptrIN9benchmark17BenchmarkReporterENS_14default_deleteIS2_EEED2B7v170000Ev.exit.i unwind label %lpad.i137

_ZNSt3__110unique_ptrIN9benchmark17BenchmarkReporterENS_14default_deleteIS2_EEED2B7v170000Ev.exit.i: ; preds = %invoke.cont.i136
  %7 = load ptr, ptr %ref.tmp.i, align 8, !tbaa !30
  call void @llvm.lifetime.end.p0(i64 8, ptr nonnull %ref.tmp.i) #33
  store ptr %7, ptr @_ZZN9benchmark28CreateDefaultDisplayReporterEvE24default_display_reporter, align 8, !tbaa !30
  call void @__cxa_guard_release(ptr nonnull @_ZGVZN9benchmark28CreateDefaultDisplayReporterEvE24default_display_reporter) #33
  br label %_ZNSt3__110unique_ptrIN9benchmark17BenchmarkReporterENS_14default_deleteIS2_EEE5resetB7v170000EPS2_.exit

lpad.i137:                                        ; preds = %invoke.cont.i136, %init.i
  %8 = landingpad { ptr, i32 }
          cleanup
  call void @llvm.lifetime.end.p0(i64 8, ptr nonnull %ref.tmp.i) #33
  call void @__cxa_guard_abort(ptr nonnull @_ZGVZN9benchmark28CreateDefaultDisplayReporterEvE24default_display_reporter) #33
  br label %_ZNSt3__110unique_ptrIN9benchmark17BenchmarkReporterENS_14default_deleteIS2_EEED2B7v170000Ev.exit262

_ZNSt3__110unique_ptrIN9benchmark17BenchmarkReporterENS_14default_deleteIS2_EEE5resetB7v170000EPS2_.exit: ; preds = %if.then3, %init.check.i, %_ZNSt3__110unique_ptrIN9benchmark17BenchmarkReporterENS_14default_deleteIS2_EEED2B7v170000Ev.exit.i
  %9 = load ptr, ptr @_ZZN9benchmark28CreateDefaultDisplayReporterEvE24default_display_reporter, align 8, !tbaa !30
  br label %if.end6

if.end6:                                          ; preds = %_ZNSt3__110unique_ptrIN9benchmark17BenchmarkReporterENS_14default_deleteIS2_EEE5resetB7v170000EPS2_.exit, %_ZNSt3__114basic_ofstreamIcNS_11char_traitsIcEEEC1Ev.exit
  %default_display_reporter.sroa.0.0 = phi ptr [ %9, %_ZNSt3__110unique_ptrIN9benchmark17BenchmarkReporterENS_14default_deleteIS2_EEE5resetB7v170000EPS2_.exit ], [ null, %_ZNSt3__114basic_ofstreamIcNS_11char_traitsIcEEEC1Ev.exit ]
  %display_reporter.addr.0 = phi ptr [ %9, %_ZNSt3__110unique_ptrIN9benchmark17BenchmarkReporterENS_14default_deleteIS2_EEE5resetB7v170000EPS2_.exit ], [ %display_reporter, %_ZNSt3__114basic_ofstreamIcNS_11char_traitsIcEEEC1Ev.exit ]
  %output_stream_.i = getelementptr inbounds %"class.benchmark::BenchmarkReporter", ptr %display_reporter.addr.0, i64 0, i32 1
  %10 = load ptr, ptr %output_stream_.i, align 8, !tbaa !129
  %error_stream_.i = getelementptr inbounds %"class.benchmark::BenchmarkReporter", ptr %display_reporter.addr.0, i64 0, i32 2
  %11 = load ptr, ptr %error_stream_.i, align 8, !tbaa !130
  %bf.load.i.i.i140 = load i8, ptr @_ZN9benchmark19FLAGS_benchmark_outE, align 8
  %bf.clear.i.i.i141 = and i8 %bf.load.i.i.i140, 1
  %tobool.i.not.i.i142 = icmp eq i8 %bf.clear.i.i.i141, 0
  %12 = load i64, ptr getelementptr inbounds (%"class.std::__1::basic_string", ptr @_ZN9benchmark19FLAGS_benchmark_outE, i64 0, i32 0, i32 0, i32 0, i32 0, i32 0, i32 1), align 8
  %bf.lshr.i.i.i143 = lshr i8 %bf.load.i.i.i140, 1
  %conv.i.i.i144 = zext i8 %bf.lshr.i.i.i143 to i64
  %cond.i.i145 = select i1 %tobool.i.not.i.i142, i64 %conv.i.i.i144, i64 %12
  %cmp.i146 = icmp eq i64 %cond.i.i145, 0
  %tobool14 = icmp ne ptr %file_reporter, null
  %or.cond = and i1 %tobool14, %cmp.i146
  br i1 %or.cond, label %if.then15, label %if.end21

if.then15:                                        ; preds = %if.end6
  %call1.i148 = invoke noundef nonnull align 8 dereferenceable(8) ptr @_ZNSt3__124__put_character_sequenceB7v170000IcNS_11char_traitsIcEEEERNS_13basic_ostreamIT_T0_EES7_PKS4_m(ptr noundef nonnull align 8 dereferenceable(8) %11, ptr noundef nonnull @.str.42, i64 noundef 81)
          to label %invoke.cont17 unwind label %lpad16

invoke.cont17:                                    ; preds = %if.then15
  %call.i149150 = invoke noundef nonnull align 8 dereferenceable(8) ptr @_ZNSt3__14endlB7v170000IcNS_11char_traitsIcEEEERNS_13basic_ostreamIT_T0_EES7_(ptr noundef nonnull align 8 dereferenceable(8) %call1.i148)
          to label %invoke.cont19 unwind label %lpad16

invoke.cont19:                                    ; preds = %invoke.cont17
  call void @exit(i32 noundef 1) #37
  unreachable

lpad16:                                           ; preds = %invoke.cont32, %invoke.cont30, %if.then27, %if.end.i160, %invoke.cont17, %if.then15, %invoke.cont28
  %13 = landingpad { ptr, i32 }
          cleanup
  br label %_ZNSt3__110unique_ptrIN9benchmark17BenchmarkReporterENS_14default_deleteIS2_EEED2B7v170000Ev.exit257

if.end21:                                         ; preds = %if.end6
  br i1 %cmp.i146, label %if.end46, label %if.then23

if.then23:                                        ; preds = %if.end21
  %__file_.i = getelementptr inbounds %"class.std::__1::basic_ofstream", ptr %output_file, i64 0, i32 1, i32 8
  %14 = load ptr, ptr %__file_.i, align 8, !tbaa !131
  %cmp.i263 = icmp eq ptr %14, null
  br i1 %cmp.i263, label %if.then.i264, label %if.else.i

if.then.i264:                                     ; preds = %if.then23
  %15 = load ptr, ptr getelementptr inbounds (%"class.std::__1::basic_string", ptr @_ZN9benchmark19FLAGS_benchmark_outE, i64 0, i32 0, i32 0, i32 0, i32 0, i32 0, i32 2), align 8
  %cond.i.i.i.i.i = select i1 %tobool.i.not.i.i142, ptr getelementptr inbounds (%"struct.std::__1::basic_string<char>::__short", ptr @_ZN9benchmark19FLAGS_benchmark_outE, i64 0, i32 2), ptr %15
  %call3.i = call ptr @fopen(ptr noundef %cond.i.i.i.i.i, ptr noundef nonnull @.str.65)
  store ptr %call3.i, ptr %__file_.i, align 8, !tbaa !131
  %tobool6.not.i = icmp eq ptr %call3.i, null
  br i1 %tobool6.not.i, label %if.else.i, label %call2.i.i.noexc

call2.i.i.noexc:                                  ; preds = %if.then.i264
  %__om_.i = getelementptr inbounds %"class.std::__1::basic_ofstream", ptr %output_file, i64 0, i32 1, i32 12
  store i32 16, ptr %__om_.i, align 8, !tbaa !136
  %vtable2.i = load ptr, ptr %output_file, align 8, !tbaa !107
  %vbase.offset.ptr3.i = getelementptr i8, ptr %vtable2.i, i64 -24
  %vbase.offset4.i = load i64, ptr %vbase.offset.ptr3.i, align 8
  %add.ptr5.i = getelementptr inbounds i8, ptr %output_file, i64 %vbase.offset4.i
  br label %if.end.i160

if.else.i:                                        ; preds = %if.then23, %if.then.i264
  %vtable2.i279 = load ptr, ptr %output_file, align 8, !tbaa !107
  %vbase.offset.ptr3.i280 = getelementptr i8, ptr %vtable2.i279, i64 -24
  %vbase.offset4.i281 = load i64, ptr %vbase.offset.ptr3.i280, align 8
  %add.ptr5.i282 = getelementptr inbounds i8, ptr %output_file, i64 %vbase.offset4.i281
  %__rdstate_.i.i.i = getelementptr inbounds %"class.std::__1::ios_base", ptr %add.ptr5.i282, i64 0, i32 4
  %16 = load i32, ptr %__rdstate_.i.i.i, align 8, !tbaa !137
  %or.i.i.i = or i32 %16, 4
  br label %if.end.i160

if.end.i160:                                      ; preds = %call2.i.i.noexc, %if.else.i
  %add.ptr5.i284 = phi ptr [ %add.ptr5.i282, %if.else.i ], [ %add.ptr5.i, %call2.i.i.noexc ]
  %or.i.i.sink.i = phi i32 [ %or.i.i.i, %if.else.i ], [ 0, %call2.i.i.noexc ]
  invoke void @_ZNSt3__18ios_base5clearEj(ptr noundef nonnull align 8 dereferenceable(136) %add.ptr5.i284, i32 noundef %or.i.i.sink.i)
          to label %invoke.cont25 unwind label %lpad16

invoke.cont25:                                    ; preds = %if.end.i160
  %17 = load ptr, ptr %__file_.i, align 8, !tbaa !131
  %cmp.i.i.not = icmp eq ptr %17, null
  br i1 %cmp.i.i.not, label %if.then27, label %if.end36

if.then27:                                        ; preds = %invoke.cont25
  %call1.i163 = invoke noundef nonnull align 8 dereferenceable(8) ptr @_ZNSt3__124__put_character_sequenceB7v170000IcNS_11char_traitsIcEEEERNS_13basic_ostreamIT_T0_EES7_PKS4_m(ptr noundef nonnull align 8 dereferenceable(8) %11, ptr noundef nonnull @.str.43, i64 noundef 20)
          to label %invoke.cont28 unwind label %lpad16

invoke.cont28:                                    ; preds = %if.then27
  %call31 = invoke noundef nonnull align 8 dereferenceable(8) ptr @_ZNSt3__1lsB7v170000IcNS_11char_traitsIcEENS_9allocatorIcEEEERNS_13basic_ostreamIT_T0_EES9_RKNS_12basic_stringIS6_S7_T1_EE(ptr noundef nonnull align 8 dereferenceable(8) %call1.i163, ptr noundef nonnull align 8 dereferenceable(24) @_ZN9benchmark19FLAGS_benchmark_outE)
          to label %invoke.cont30 unwind label %lpad16

invoke.cont30:                                    ; preds = %invoke.cont28
  %call1.i166 = invoke noundef nonnull align 8 dereferenceable(8) ptr @_ZNSt3__124__put_character_sequenceB7v170000IcNS_11char_traitsIcEEEERNS_13basic_ostreamIT_T0_EES7_PKS4_m(ptr noundef nonnull align 8 dereferenceable(8) %call31, ptr noundef nonnull @.str.44, i64 noundef 1)
          to label %invoke.cont32 unwind label %lpad16

invoke.cont32:                                    ; preds = %invoke.cont30
  %call.i168169 = invoke noundef nonnull align 8 dereferenceable(8) ptr @_ZNSt3__14endlB7v170000IcNS_11char_traitsIcEEEERNS_13basic_ostreamIT_T0_EES7_(ptr noundef nonnull align 8 dereferenceable(8) %call1.i166)
          to label %invoke.cont34 unwind label %lpad16

invoke.cont34:                                    ; preds = %invoke.cont32
  call void @exit(i32 noundef 1) #37
  unreachable

if.end36:                                         ; preds = %invoke.cont25
  br i1 %tobool14, label %if.end43, label %if.then38

if.then38:                                        ; preds = %if.end36
  call void @llvm.lifetime.start.p0(i64 8, ptr nonnull %ref.tmp) #33
  invoke fastcc void @_ZN9benchmark8internal12_GLOBAL__N_114CreateReporterERKNSt3__112basic_stringIcNS2_11char_traitsIcEENS2_9allocatorIcEEEENS_15ConsoleReporter13OutputOptionsE(ptr noalias nonnull align 8 %ref.tmp, ptr noundef nonnull align 8 dereferenceable(24) @_ZN9benchmark26FLAGS_benchmark_out_formatE, i32 noundef 0)
          to label %_ZNSt3__110unique_ptrIN9benchmark17BenchmarkReporterENS_14default_deleteIS2_EEED2B7v170000Ev.exit unwind label %lpad39

_ZNSt3__110unique_ptrIN9benchmark17BenchmarkReporterENS_14default_deleteIS2_EEED2B7v170000Ev.exit: ; preds = %if.then38
  %18 = load ptr, ptr %ref.tmp, align 8, !tbaa !30
  call void @llvm.lifetime.end.p0(i64 8, ptr nonnull %ref.tmp) #33
  br label %if.end43

lpad39:                                           ; preds = %if.then38
  %19 = landingpad { ptr, i32 }
          cleanup
  call void @llvm.lifetime.end.p0(i64 8, ptr nonnull %ref.tmp) #33
  br label %_ZNSt3__110unique_ptrIN9benchmark17BenchmarkReporterENS_14default_deleteIS2_EEED2B7v170000Ev.exit257

if.end43:                                         ; preds = %_ZNSt3__110unique_ptrIN9benchmark17BenchmarkReporterENS_14default_deleteIS2_EEED2B7v170000Ev.exit, %if.end36
  %default_file_reporter.sroa.0.0 = phi ptr [ null, %if.end36 ], [ %18, %_ZNSt3__110unique_ptrIN9benchmark17BenchmarkReporterENS_14default_deleteIS2_EEED2B7v170000Ev.exit ]
  %file_reporter.addr.0 = phi ptr [ %file_reporter, %if.end36 ], [ %18, %_ZNSt3__110unique_ptrIN9benchmark17BenchmarkReporterENS_14default_deleteIS2_EEED2B7v170000Ev.exit ]
  %output_stream_.i175 = getelementptr inbounds %"class.benchmark::BenchmarkReporter", ptr %file_reporter.addr.0, i64 0, i32 1
  store ptr %output_file, ptr %output_stream_.i175, align 8, !tbaa !129
  %error_stream_.i176 = getelementptr inbounds %"class.benchmark::BenchmarkReporter", ptr %file_reporter.addr.0, i64 0, i32 2
  store ptr %output_file, ptr %error_stream_.i176, align 8, !tbaa !130
  br label %if.end46

if.end46:                                         ; preds = %if.end43, %if.end21
  %default_file_reporter.sroa.0.1 = phi ptr [ null, %if.end21 ], [ %default_file_reporter.sroa.0.0, %if.end43 ]
  %file_reporter.addr.1 = phi ptr [ %file_reporter, %if.end21 ], [ %file_reporter.addr.0, %if.end43 ]
  call void @llvm.lifetime.start.p0(i64 24, ptr nonnull %benchmarks) #33
  call void @llvm.memset.p0.i64(ptr noundef nonnull align 8 dereferenceable(24) %benchmarks, i8 0, i64 24, i1 false)
  %call49 = invoke noundef zeroext i1 @_ZN9benchmark8internal22FindBenchmarksInternalERKNSt3__112basic_stringIcNS1_11char_traitsIcEENS1_9allocatorIcEEEEPNS1_6vectorINS0_17BenchmarkInstanceENS5_ISB_EEEEPNS1_13basic_ostreamIcS4_EE(ptr noundef nonnull align 8 dereferenceable(24) %spec, ptr noundef nonnull %benchmarks, ptr noundef nonnull %11)
          to label %invoke.cont48 unwind label %lpad47.loopexit.split-lp

invoke.cont48:                                    ; preds = %if.end46
  br i1 %call49, label %if.end51, label %cleanupthread-pre-split

lpad47.loopexit:                                  ; preds = %invoke.cont.i224
  %lpad.loopexit = landingpad { ptr, i32 }
          cleanup
  br label %ehcleanup96

lpad47.loopexit.split-lp:                         ; preds = %if.end46, %if.then53, %invoke.cont54, %invoke.cont56, %for.cond.cleanup.i
  %lpad.loopexit.split-lp = landingpad { ptr, i32 }
          cleanup
  br label %ehcleanup96

if.end51:                                         ; preds = %invoke.cont48
  %20 = load ptr, ptr %benchmarks, align 8, !tbaa !138
  %__end_.i = getelementptr inbounds %"class.std::__1::vector.40", ptr %benchmarks, i64 0, i32 1
  %21 = load ptr, ptr %__end_.i, align 8, !tbaa !142
  %cmp.i178 = icmp eq ptr %20, %21
  br i1 %cmp.i178, label %if.then53, label %if.end60

if.then53:                                        ; preds = %if.end51
  %call1.i180 = invoke noundef nonnull align 8 dereferenceable(8) ptr @_ZNSt3__124__put_character_sequenceB7v170000IcNS_11char_traitsIcEEEERNS_13basic_ostreamIT_T0_EES7_PKS4_m(ptr noundef nonnull align 8 dereferenceable(8) %11, ptr noundef nonnull @.str.45, i64 noundef 46)
          to label %invoke.cont54 unwind label %lpad47.loopexit.split-lp

invoke.cont54:                                    ; preds = %if.then53
  %bf.load.i.i.i.i = load i8, ptr %spec, align 8
  %bf.clear.i.i.i.i = and i8 %bf.load.i.i.i.i, 1
  %tobool.i.not.i.i.i = icmp eq i8 %bf.clear.i.i.i.i, 0
  %__data_.i.i.i.i = getelementptr inbounds %"struct.std::__1::basic_string<char>::__long", ptr %spec, i64 0, i32 2
  %22 = load ptr, ptr %__data_.i.i.i.i, align 8
  %__data_.i4.i.i.i = getelementptr inbounds %"struct.std::__1::basic_string<char>::__short", ptr %spec, i64 0, i32 2
  %cond.i.i.i = select i1 %tobool.i.not.i.i.i, ptr %__data_.i4.i.i.i, ptr %22
  %23 = load i64, ptr %__size_.i.i.i, align 8
  %bf.lshr.i.i.i183 = lshr i8 %bf.load.i.i.i.i, 1
  %conv.i.i.i184 = zext i8 %bf.lshr.i.i.i183 to i64
  %cond.i.i185 = select i1 %tobool.i.not.i.i.i, i64 %conv.i.i.i184, i64 %23
  %call2.i186 = invoke noundef nonnull align 8 dereferenceable(8) ptr @_ZNSt3__124__put_character_sequenceB7v170000IcNS_11char_traitsIcEEEERNS_13basic_ostreamIT_T0_EES7_PKS4_m(ptr noundef nonnull align 8 dereferenceable(8) %call1.i180, ptr noundef %cond.i.i.i, i64 noundef %cond.i.i185)
          to label %invoke.cont56 unwind label %lpad47.loopexit.split-lp

invoke.cont56:                                    ; preds = %invoke.cont54
  %call1.i188 = invoke noundef nonnull align 8 dereferenceable(8) ptr @_ZNSt3__124__put_character_sequenceB7v170000IcNS_11char_traitsIcEEEERNS_13basic_ostreamIT_T0_EES7_PKS4_m(ptr noundef nonnull align 8 dereferenceable(8) %call2.i186, ptr noundef nonnull @.str.46, i64 noundef 1)
          to label %cleanupthread-pre-split unwind label %lpad47.loopexit.split-lp

if.end60:                                         ; preds = %if.end51
  %24 = load i8, ptr @_ZN9benchmark26FLAGS_benchmark_list_testsE, align 1, !tbaa !105, !range !51, !noundef !52
  %tobool61.not = icmp eq i8 %24, 0
  br i1 %tobool61.not, label %if.else, label %for.body.lr.ph

for.body.lr.ph:                                   ; preds = %if.end60
  %__data_.i.i.i.i195 = getelementptr inbounds %"struct.std::__1::basic_string<char>::__long", ptr %ref.tmp68, i64 0, i32 2
  %__data_.i4.i.i.i196 = getelementptr inbounds %"struct.std::__1::basic_string<char>::__short", ptr %ref.tmp68, i64 0, i32 2
  %__size_.i.i.i198 = getelementptr inbounds %"struct.std::__1::basic_string<char>::__long", ptr %ref.tmp68, i64 0, i32 1
  br label %for.body

for.body:                                         ; preds = %for.body.lr.ph, %_ZNSt3__112basic_stringIcNS_11char_traitsIcEENS_9allocatorIcEEED2Ev.exit
  %__begin2.sroa.0.0304 = phi ptr [ %20, %for.body.lr.ph ], [ %incdec.ptr.i, %_ZNSt3__112basic_stringIcNS_11char_traitsIcEENS_9allocatorIcEEED2Ev.exit ]
  call void @llvm.lifetime.start.p0(i64 24, ptr nonnull %ref.tmp68) #33
  invoke void @_ZNK9benchmark13BenchmarkName3strEv(ptr nonnull sret(%"class.std::__1::basic_string") align 8 %ref.tmp68, ptr noundef nonnull align 8 dereferenceable(168) %__begin2.sroa.0.0304)
          to label %invoke.cont72 unwind label %lpad69

invoke.cont72:                                    ; preds = %for.body
  %bf.load.i.i.i.i192 = load i8, ptr %ref.tmp68, align 8
  %bf.clear.i.i.i.i193 = and i8 %bf.load.i.i.i.i192, 1
  %tobool.i.not.i.i.i194 = icmp eq i8 %bf.clear.i.i.i.i193, 0
  %25 = load ptr, ptr %__data_.i.i.i.i195, align 8
  %cond.i.i.i197 = select i1 %tobool.i.not.i.i.i194, ptr %__data_.i4.i.i.i196, ptr %25
  %26 = load i64, ptr %__size_.i.i.i198, align 8
  %bf.lshr.i.i.i199 = lshr i8 %bf.load.i.i.i.i192, 1
  %conv.i.i.i200 = zext i8 %bf.lshr.i.i.i199 to i64
  %cond.i.i201 = select i1 %tobool.i.not.i.i.i194, i64 %conv.i.i.i200, i64 %26
  %call2.i202 = invoke noundef nonnull align 8 dereferenceable(8) ptr @_ZNSt3__124__put_character_sequenceB7v170000IcNS_11char_traitsIcEEEERNS_13basic_ostreamIT_T0_EES7_PKS4_m(ptr noundef nonnull align 8 dereferenceable(8) %10, ptr noundef %cond.i.i.i197, i64 noundef %cond.i.i201)
          to label %invoke.cont74 unwind label %lpad73

invoke.cont74:                                    ; preds = %invoke.cont72
  %call1.i205 = invoke noundef nonnull align 8 dereferenceable(8) ptr @_ZNSt3__124__put_character_sequenceB7v170000IcNS_11char_traitsIcEEEERNS_13basic_ostreamIT_T0_EES7_PKS4_m(ptr noundef nonnull align 8 dereferenceable(8) %call2.i202, ptr noundef nonnull @.str.46, i64 noundef 1)
          to label %invoke.cont76 unwind label %lpad73

invoke.cont76:                                    ; preds = %invoke.cont74
  %bf.load.i.i = load i8, ptr %ref.tmp68, align 8
  %bf.clear.i.i = and i8 %bf.load.i.i, 1
  %tobool.i.not.i = icmp eq i8 %bf.clear.i.i, 0
  br i1 %tobool.i.not.i, label %_ZNSt3__112basic_stringIcNS_11char_traitsIcEENS_9allocatorIcEEED2Ev.exit, label %if.then.i

if.then.i:                                        ; preds = %invoke.cont76
  %27 = load ptr, ptr %__data_.i.i.i.i195, align 8, !tbaa !80
  call void @_ZdlPv(ptr noundef %27) #36
  br label %_ZNSt3__112basic_stringIcNS_11char_traitsIcEENS_9allocatorIcEEED2Ev.exit

_ZNSt3__112basic_stringIcNS_11char_traitsIcEENS_9allocatorIcEEED2Ev.exit: ; preds = %invoke.cont76, %if.then.i
  call void @llvm.lifetime.end.p0(i64 24, ptr nonnull %ref.tmp68) #33
  %incdec.ptr.i = getelementptr inbounds %"class.benchmark::internal::BenchmarkInstance", ptr %__begin2.sroa.0.0304, i64 1
  %cmp.i.i191.not = icmp eq ptr %incdec.ptr.i, %21
  br i1 %cmp.i.i191.not, label %if.end84, label %for.body

lpad69:                                           ; preds = %for.body
  %28 = landingpad { ptr, i32 }
          cleanup
  br label %ehcleanup

lpad73:                                           ; preds = %invoke.cont74, %invoke.cont72
  %29 = landingpad { ptr, i32 }
          cleanup
  %bf.load.i.i208 = load i8, ptr %ref.tmp68, align 8
  %bf.clear.i.i209 = and i8 %bf.load.i.i208, 1
  %tobool.i.not.i210 = icmp eq i8 %bf.clear.i.i209, 0
  br i1 %tobool.i.not.i210, label %ehcleanup, label %if.then.i212

if.then.i212:                                     ; preds = %lpad73
  %30 = load ptr, ptr %__data_.i.i.i.i195, align 8, !tbaa !80
  call void @_ZdlPv(ptr noundef %30) #36
  br label %ehcleanup

ehcleanup:                                        ; preds = %if.then.i212, %lpad73, %lpad69
  %.pn = phi { ptr, i32 } [ %28, %lpad69 ], [ %29, %lpad73 ], [ %29, %if.then.i212 ]
  call void @llvm.lifetime.end.p0(i64 24, ptr nonnull %ref.tmp68) #33
  br label %ehcleanup96

if.else:                                          ; preds = %if.end60
  %31 = load atomic i8, ptr @_ZGVZN9benchmark8internal18GetNullLogInstanceEvE3log acquire, align 8
  %guard.uninitialized.i.i = icmp eq i8 %31, 0
  br i1 %guard.uninitialized.i.i, label %init.check.i.i, label %_ZN9benchmark8internal18GetNullLogInstanceEv.exit.i, !prof !5

init.check.i.i:                                   ; preds = %if.else
  %32 = call i32 @__cxa_guard_acquire(ptr nonnull @_ZGVZN9benchmark8internal18GetNullLogInstanceEvE3log) #33
  %tobool.not.i.i215 = icmp eq i32 %32, 0
  br i1 %tobool.not.i.i215, label %_ZN9benchmark8internal18GetNullLogInstanceEv.exit.i, label %init.i.i

init.i.i:                                         ; preds = %init.check.i.i
  store ptr null, ptr @_ZZN9benchmark8internal18GetNullLogInstanceEvE3log, align 8, !tbaa !43
  call void @__cxa_guard_release(ptr nonnull @_ZGVZN9benchmark8internal18GetNullLogInstanceEvE3log) #33
  br label %_ZN9benchmark8internal18GetNullLogInstanceEv.exit.i

_ZN9benchmark8internal18GetNullLogInstanceEv.exit.i: ; preds = %init.i.i, %init.check.i.i, %if.else
  %33 = load i32, ptr @_ZN9benchmark27FLAGS_benchmark_repetitionsE, align 4, !tbaa !62
  %cmp.i216 = icmp sgt i32 %33, 1
  %34 = load ptr, ptr %benchmarks, align 8, !tbaa !138
  %35 = load ptr, ptr %__end_.i, align 8, !tbaa !142
  %cmp.i.i.not574.i = icmp eq ptr %34, %35
  br i1 %cmp.i.i.not574.i, label %for.cond.cleanup.i, label %invoke.cont.lr.ph.i

invoke.cont.lr.ph.i:                              ; preds = %_ZN9benchmark8internal18GetNullLogInstanceEv.exit.i
  %__size_.i.i.i217 = getelementptr inbounds %"struct.std::__1::basic_string<char>::__long", ptr %ref.tmp6.i, i64 0, i32 1
  %__data_.i.i.i = getelementptr inbounds %"struct.std::__1::basic_string<char>::__long", ptr %ref.tmp6.i, i64 0, i32 2
  br label %invoke.cont.i224

for.cond.cleanup.i:                               ; preds = %for.cond.cleanup22.i, %_ZN9benchmark8internal18GetNullLogInstanceEv.exit.i
  %stat_field_width.0.lcssa.i = phi i64 [ 0, %_ZN9benchmark8internal18GetNullLogInstanceEv.exit.i ], [ %stat_field_width.1.lcssa.i, %for.cond.cleanup22.i ]
  %name_field_width.0.lcssa.i = phi i64 [ 10, %_ZN9benchmark8internal18GetNullLogInstanceEv.exit.i ], [ %.sroa.speculated553.i, %for.cond.cleanup22.i ]
  %might_have_aggregates.0.in.lcssa.i = phi i1 [ %cmp.i216, %_ZN9benchmark8internal18GetNullLogInstanceEv.exit.i ], [ %or293.i, %for.cond.cleanup22.i ]
  call void @llvm.lifetime.start.p0(i64 24, ptr nonnull %context.i) #33
  invoke void @_ZN9benchmark17BenchmarkReporter7ContextC1Ev(ptr noundef nonnull align 8 dereferenceable(24) %context.i)
          to label %.noexc unwind label %lpad47.loopexit.split-lp

.noexc:                                           ; preds = %for.cond.cleanup.i
  %add.i = add i64 %stat_field_width.0.lcssa.i, 1
  %add33.i = select i1 %might_have_aggregates.0.in.lcssa.i, i64 %add.i, i64 0
  %name_field_width.1.i = add i64 %add33.i, %name_field_width.0.lcssa.i
  %name_field_width34.i = getelementptr inbounds %"struct.benchmark::BenchmarkReporter::Context", ptr %context.i, i64 0, i32 2
  store i64 %name_field_width.1.i, ptr %name_field_width34.i, align 8, !tbaa !143
  call void @llvm.lifetime.start.p0(i64 24, ptr nonnull %per_family_reports.i) #33
  %__pair1_.i.i.i = getelementptr inbounds %"class.std::__1::__tree.110", ptr %per_family_reports.i, i64 0, i32 1
  call void @llvm.memset.p0.i64(ptr noundef nonnull align 8 dereferenceable(16) %__pair1_.i.i.i, i8 0, i64 16, i1 false)
  store ptr %__pair1_.i.i.i, ptr %per_family_reports.i, align 8, !tbaa !30
  %vtable.i = load ptr, ptr %display_reporter.addr.0, align 8, !tbaa !107
  %36 = load ptr, ptr %vtable.i, align 8
  %call37.i = invoke noundef zeroext i1 %36(ptr noundef nonnull align 8 dereferenceable(24) %display_reporter.addr.0, ptr noundef nonnull align 8 dereferenceable(24) %context.i)
          to label %invoke.cont36.i unwind label %lpad35.i

invoke.cont.i224:                                 ; preds = %for.cond.cleanup22.i, %invoke.cont.lr.ph.i
  %might_have_aggregates.0.in578.i = phi i1 [ %cmp.i216, %invoke.cont.lr.ph.i ], [ %or293.i, %for.cond.cleanup22.i ]
  %name_field_width.0577.i = phi i64 [ 10, %invoke.cont.lr.ph.i ], [ %.sroa.speculated553.i, %for.cond.cleanup22.i ]
  %stat_field_width.0576.i = phi i64 [ 0, %invoke.cont.lr.ph.i ], [ %stat_field_width.1.lcssa.i, %for.cond.cleanup22.i ]
  %__begin2.sroa.0.0575.i = phi ptr [ %34, %invoke.cont.lr.ph.i ], [ %incdec.ptr.i.i, %for.cond.cleanup22.i ]
  call void @llvm.lifetime.start.p0(i64 24, ptr nonnull %ref.tmp6.i) #33
  invoke void @_ZNK9benchmark13BenchmarkName3strEv(ptr nonnull sret(%"class.std::__1::basic_string") align 8 %ref.tmp6.i, ptr noundef nonnull align 8 dereferenceable(168) %__begin2.sroa.0.0575.i)
          to label %.noexc236 unwind label %lpad47.loopexit

.noexc236:                                        ; preds = %invoke.cont.i224
  %bf.load.i.i.i218 = load i8, ptr %ref.tmp6.i, align 8
  %bf.clear.i.i.i219 = and i8 %bf.load.i.i.i218, 1
  %tobool.i.not.i.i220 = icmp eq i8 %bf.clear.i.i.i219, 0
  %37 = load i64, ptr %__size_.i.i.i217, align 8
  %bf.lshr.i.i.i221 = lshr i8 %bf.load.i.i.i218, 1
  %conv.i.i.i222 = zext i8 %bf.lshr.i.i.i221 to i64
  %cond.i.i223 = select i1 %tobool.i.not.i.i220, i64 %conv.i.i.i222, i64 %37
  %.sroa.speculated553.i = call i64 @llvm.umax.i64(i64 %name_field_width.0577.i, i64 %cond.i.i223)
  br i1 %tobool.i.not.i.i220, label %_ZNSt3__112basic_stringIcNS_11char_traitsIcEENS_9allocatorIcEEED2Ev.exit.i, label %if.then.i.i225

if.then.i.i225:                                   ; preds = %.noexc236
  %38 = load ptr, ptr %__data_.i.i.i, align 8, !tbaa !80
  call void @_ZdlPv(ptr noundef %38) #36
  br label %_ZNSt3__112basic_stringIcNS_11char_traitsIcEENS_9allocatorIcEEED2Ev.exit.i

_ZNSt3__112basic_stringIcNS_11char_traitsIcEENS_9allocatorIcEEED2Ev.exit.i: ; preds = %if.then.i.i225, %.noexc236
  call void @llvm.lifetime.end.p0(i64 24, ptr nonnull %ref.tmp6.i) #33
  %repetitions_.i.i = getelementptr inbounds %"class.benchmark::internal::BenchmarkInstance", ptr %__begin2.sroa.0.0575.i, i64 0, i32 14
  %39 = load i32, ptr %repetitions_.i.i, align 8, !tbaa !145
  %cmp11.i = icmp sgt i32 %39, 1
  %or293.i = or i1 %might_have_aggregates.0.in578.i, %cmp11.i
  %statistics_.i.i = getelementptr inbounds %"class.benchmark::internal::BenchmarkInstance", ptr %__begin2.sroa.0.0575.i, i64 0, i32 13
  %40 = load ptr, ptr %statistics_.i.i, align 8, !tbaa !151
  %41 = load ptr, ptr %40, align 8, !tbaa !152
  %__end_.i297.i = getelementptr inbounds %"class.std::__1::vector.55", ptr %40, i64 0, i32 1
  %42 = load ptr, ptr %__end_.i297.i, align 8, !tbaa !156
  %cmp.i.i298.not571.i = icmp eq ptr %41, %42
  br i1 %cmp.i.i298.not571.i, label %for.cond.cleanup22.i, label %for.body23.i

for.cond.cleanup22.i:                             ; preds = %for.body23.i, %_ZNSt3__112basic_stringIcNS_11char_traitsIcEENS_9allocatorIcEEED2Ev.exit.i
  %stat_field_width.1.lcssa.i = phi i64 [ %stat_field_width.0576.i, %_ZNSt3__112basic_stringIcNS_11char_traitsIcEENS_9allocatorIcEEED2Ev.exit.i ], [ %.sroa.speculated.i, %for.body23.i ]
  %incdec.ptr.i.i = getelementptr inbounds %"class.benchmark::internal::BenchmarkInstance", ptr %__begin2.sroa.0.0575.i, i64 1
  %cmp.i.i.not.i = icmp eq ptr %incdec.ptr.i.i, %35
  br i1 %cmp.i.i.not.i, label %for.cond.cleanup.i, label %invoke.cont.i224

for.body23.i:                                     ; preds = %_ZNSt3__112basic_stringIcNS_11char_traitsIcEENS_9allocatorIcEEED2Ev.exit.i, %for.body23.i
  %stat_field_width.1573.i = phi i64 [ %.sroa.speculated.i, %for.body23.i ], [ %stat_field_width.0576.i, %_ZNSt3__112basic_stringIcNS_11char_traitsIcEENS_9allocatorIcEEED2Ev.exit.i ]
  %__begin3.sroa.0.0572.i = phi ptr [ %incdec.ptr.i314.i, %for.body23.i ], [ %41, %_ZNSt3__112basic_stringIcNS_11char_traitsIcEENS_9allocatorIcEEED2Ev.exit.i ]
  %bf.load.i.i305.i = load i8, ptr %__begin3.sroa.0.0572.i, align 8
  %bf.clear.i.i306.i = and i8 %bf.load.i.i305.i, 1
  %tobool.i.not.i307.i = icmp eq i8 %bf.clear.i.i306.i, 0
  %__size_.i.i308.i = getelementptr inbounds %"struct.std::__1::basic_string<char>::__long", ptr %__begin3.sroa.0.0572.i, i64 0, i32 1
  %43 = load i64, ptr %__size_.i.i308.i, align 8
  %bf.lshr.i.i309.i = lshr i8 %bf.load.i.i305.i, 1
  %conv.i.i310.i = zext i8 %bf.lshr.i.i309.i to i64
  %cond.i311.i = select i1 %tobool.i.not.i307.i, i64 %conv.i.i310.i, i64 %43
  %.sroa.speculated.i = call i64 @llvm.umax.i64(i64 %stat_field_width.1573.i, i64 %cond.i311.i)
  %incdec.ptr.i314.i = getelementptr inbounds %"struct.benchmark::internal::Statistics", ptr %__begin3.sroa.0.0572.i, i64 1
  %cmp.i.i298.not.i = icmp eq ptr %incdec.ptr.i314.i, %42
  br i1 %cmp.i.i298.not.i, label %for.cond.cleanup22.i, label %for.body23.i

invoke.cont36.i:                                  ; preds = %.noexc
  br i1 %call37.i, label %land.lhs.true.i, label %if.end227.i

land.lhs.true.i:                                  ; preds = %invoke.cont36.i
  %tobool38.not.i = icmp eq ptr %file_reporter.addr.1, null
  br i1 %tobool38.not.i, label %if.end.i.i, label %lor.lhs.false.i

lor.lhs.false.i:                                  ; preds = %land.lhs.true.i
  %vtable39.i = load ptr, ptr %file_reporter.addr.1, align 8, !tbaa !107
  %44 = load ptr, ptr %vtable39.i, align 8
  %call42.i = invoke noundef zeroext i1 %44(ptr noundef nonnull align 8 dereferenceable(24) %file_reporter.addr.1, ptr noundef nonnull align 8 dereferenceable(24) %context.i)
          to label %invoke.cont41.i unwind label %lpad35.i

invoke.cont41.i:                                  ; preds = %lor.lhs.false.i
  br i1 %call42.i, label %if.end.i.i, label %if.end227.i

if.end.i.i:                                       ; preds = %invoke.cont41.i, %land.lhs.true.i
  %45 = load ptr, ptr %output_stream_.i, align 8, !tbaa !129
  %call.i.i316.i = invoke noundef nonnull align 8 dereferenceable(8) ptr @_ZNSt3__113basic_ostreamIcNS_11char_traitsIcEEE5flushEv(ptr noundef nonnull align 8 dereferenceable(8) %45)
          to label %call.i.i.noexc.i unwind label %lpad35.i

call.i.i.noexc.i:                                 ; preds = %if.end.i.i
  %46 = load ptr, ptr %error_stream_.i, align 8, !tbaa !130
  %call.i6.i317.i = invoke noundef nonnull align 8 dereferenceable(8) ptr @_ZNSt3__113basic_ostreamIcNS_11char_traitsIcEEE5flushEv(ptr noundef nonnull align 8 dereferenceable(8) %46)
          to label %invoke.cont44.i unwind label %lpad35.i

invoke.cont44.i:                                  ; preds = %call.i.i.noexc.i
  br i1 %tobool38.not.i, label %invoke.cont45.i, label %if.end.i321.i

if.end.i321.i:                                    ; preds = %invoke.cont44.i
  %output_stream_.i.i319.i = getelementptr inbounds %"class.benchmark::BenchmarkReporter", ptr %file_reporter.addr.1, i64 0, i32 1
  %47 = load ptr, ptr %output_stream_.i.i319.i, align 8, !tbaa !129
  %call.i.i323.i = invoke noundef nonnull align 8 dereferenceable(8) ptr @_ZNSt3__113basic_ostreamIcNS_11char_traitsIcEEE5flushEv(ptr noundef nonnull align 8 dereferenceable(8) %47)
          to label %call.i.i.noexc322.i unwind label %lpad35.i

call.i.i.noexc322.i:                              ; preds = %if.end.i321.i
  %error_stream_.i.i320.i = getelementptr inbounds %"class.benchmark::BenchmarkReporter", ptr %file_reporter.addr.1, i64 0, i32 2
  %48 = load ptr, ptr %error_stream_.i.i320.i, align 8, !tbaa !130
  %call.i6.i325.i = invoke noundef nonnull align 8 dereferenceable(8) ptr @_ZNSt3__113basic_ostreamIcNS_11char_traitsIcEEE5flushEv(ptr noundef nonnull align 8 dereferenceable(8) %48)
          to label %invoke.cont45.i unwind label %lpad35.i

invoke.cont45.i:                                  ; preds = %call.i.i.noexc322.i, %invoke.cont44.i
  call void @llvm.lifetime.start.p0(i64 24, ptr nonnull %runners.i) #33
  call void @llvm.memset.p0.i64(ptr noundef nonnull align 8 dereferenceable(24) %runners.i, i8 0, i64 24, i1 false)
  %49 = load ptr, ptr %__end_.i, align 8, !tbaa !142
  %50 = load ptr, ptr %benchmarks, align 8, !tbaa !138
  %sub.ptr.lhs.cast.i.i = ptrtoint ptr %49 to i64
  %sub.ptr.rhs.cast.i.i = ptrtoint ptr %50 to i64
  %sub.ptr.sub.i.i = sub i64 %sub.ptr.lhs.cast.i.i, %sub.ptr.rhs.cast.i.i
  %sub.ptr.div.i.i = sdiv exact i64 %sub.ptr.sub.i.i, 304
  invoke void @_ZNSt3__16vectorIN9benchmark8internal15BenchmarkRunnerENS_9allocatorIS3_EEE7reserveEm(ptr noundef nonnull align 8 dereferenceable(24) %runners.i, i64 noundef %sub.ptr.div.i.i)
          to label %invoke.cont48.i unwind label %lpad47.i

invoke.cont48.i:                                  ; preds = %invoke.cont45.i
  %51 = load ptr, ptr %benchmarks, align 8, !tbaa !138
  %52 = load ptr, ptr %__end_.i, align 8, !tbaa !142
  %cmp.i.i329.not586.i = icmp eq ptr %51, %52
  br i1 %cmp.i.i329.not586.i, label %for.cond.cleanup58.thread.i, label %for.body59.lr.ph.i

for.cond.cleanup58.thread.i:                      ; preds = %invoke.cont48.i
  call void @llvm.lifetime.start.p0(i64 24, ptr nonnull %repetition_indices.i) #33
  call void @llvm.memset.p0.i64(ptr noundef nonnull align 8 dereferenceable(24) %repetition_indices.i, i8 0, i64 24, i1 false)
  %__end_cap_.i.i.i606.i = getelementptr inbounds %"class.std::__1::vector.149", ptr %repetition_indices.i, i64 0, i32 2
  %__end_.i341.i.phi.trans.insert = getelementptr inbounds %"class.std::__1::vector.121", ptr %runners.i, i64 0, i32 1
  %.pre = load ptr, ptr %__end_.i341.i.phi.trans.insert, align 8, !tbaa !157
  br label %invoke.cont93.i

for.body59.lr.ph.i:                               ; preds = %invoke.cont48.i
  %__pair3_.i.i.i.i.i = getelementptr inbounds %"class.std::__1::__tree.110", ptr %per_family_reports.i, i64 0, i32 2
  %__end_.i334.i = getelementptr inbounds %"class.std::__1::vector.121", ptr %runners.i, i64 0, i32 1
  %__end_cap_.i.i.i = getelementptr inbounds %"class.std::__1::vector.121", ptr %runners.i, i64 0, i32 2
  br label %for.body59.i

for.cond.cleanup58.i:                             ; preds = %if.end84.i
  call void @llvm.lifetime.start.p0(i64 24, ptr nonnull %repetition_indices.i) #33
  call void @llvm.memset.p0.i64(ptr noundef nonnull align 8 dereferenceable(24) %repetition_indices.i, i8 0, i64 24, i1 false)
  %__end_cap_.i.i.i.i = getelementptr inbounds %"class.std::__1::vector.149", ptr %repetition_indices.i, i64 0, i32 2
  %cmp.i.not.i = icmp eq i64 %add80.i, 0
  br i1 %cmp.i.not.i, label %invoke.cont93.i, label %if.then.i330.i

if.then.i330.i:                                   ; preds = %for.cond.cleanup58.i
  %cmp3.i.i = icmp ugt i64 %add80.i, 2305843009213693951
  br i1 %cmp3.i.i, label %if.then4.i.i, label %_ZNSt3__114__split_bufferImRNS_9allocatorImEEEC2EmmS3_.exit.i.i

if.then4.i.i:                                     ; preds = %if.then.i330.i
  invoke void @_ZNKSt3__16vectorImNS_9allocatorImEEE20__throw_length_errorB7v170000Ev(ptr noundef nonnull align 8 dereferenceable(24) %repetition_indices.i) #34
          to label %.noexc.i226 unwind label %lpad92.i

.noexc.i226:                                      ; preds = %if.then4.i.i
  unreachable

_ZNSt3__114__split_bufferImRNS_9allocatorImEEEC2EmmS3_.exit.i.i: ; preds = %if.then.i330.i
  %mul.i.i.i.i.i = shl nuw i64 %add80.i, 3
  %call.i.i.i.i.i.i331.i = invoke noalias noundef nonnull ptr @_Znwm(i64 noundef %mul.i.i.i.i.i) #35
          to label %_ZNSt3__114__split_bufferImRNS_9allocatorImEEE5clearB7v170000Ev.exit.i.i.i unwind label %lpad92.i

_ZNSt3__114__split_bufferImRNS_9allocatorImEEE5clearB7v170000Ev.exit.i.i.i: ; preds = %_ZNSt3__114__split_bufferImRNS_9allocatorImEEEC2EmmS3_.exit.i.i
  %__end_.i.i.i = getelementptr inbounds %"class.std::__1::vector.149", ptr %repetition_indices.i, i64 0, i32 1
  %add.ptr6.i.i.i = getelementptr inbounds i64, ptr %call.i.i.i.i.i.i331.i, i64 %add80.i
  store ptr %call.i.i.i.i.i.i331.i, ptr %repetition_indices.i, align 8, !tbaa !30
  store ptr %call.i.i.i.i.i.i331.i, ptr %__end_.i.i.i, align 8, !tbaa !30
  store ptr %add.ptr6.i.i.i, ptr %__end_cap_.i.i.i.i, align 8, !tbaa !30
  br label %invoke.cont93.i

lpad35.i:                                         ; preds = %call.i.i.noexc410.i, %if.end.i409.i, %call.i.i.noexc401.i, %if.end.i400.i, %if.then232.i, %if.end227.i, %call.i.i.noexc322.i, %if.end.i321.i, %call.i.i.noexc.i, %if.end.i.i, %lor.lhs.false.i, %.noexc
  %53 = landingpad { ptr, i32 }
          cleanup
  br label %ehcleanup239.i

lpad47.i:                                         ; preds = %invoke.cont45.i
  %54 = landingpad { ptr, i32 }
          cleanup
  br label %ehcleanup224.i

for.body59.i:                                     ; preds = %if.end84.i, %for.body59.lr.ph.i
  %num_repetitions_total.0588.i = phi i64 [ 0, %for.body59.lr.ph.i ], [ %add80.i, %if.end84.i ]
  %__begin350.sroa.0.0587.i = phi ptr [ %51, %for.body59.lr.ph.i ], [ %incdec.ptr.i340.i, %if.end84.i ]
  call void @llvm.lifetime.start.p0(i64 8, ptr nonnull %reports_for_family.i) #33
  store ptr null, ptr %reports_for_family.i, align 8, !tbaa !30
  %complexity_.i.i = getelementptr inbounds %"class.benchmark::internal::BenchmarkInstance", ptr %__begin350.sroa.0.0587.i, i64 0, i32 10
  %55 = load i32, ptr %complexity_.i.i, align 8, !tbaa !161
  %cmp65.not.i = icmp eq i32 %55, 0
  br i1 %cmp65.not.i, label %if.end73.i, label %if.then66.i

if.then66.i:                                      ; preds = %for.body59.i
  %family_index_.i.i = getelementptr inbounds %"class.benchmark::internal::BenchmarkInstance", ptr %__begin350.sroa.0.0587.i, i64 0, i32 2
  %56 = load i32, ptr %family_index_.i.i, align 8, !tbaa !162
  %57 = load ptr, ptr %__pair1_.i.i.i, align 8, !tbaa !30
  %cmp.not.i.i.i.i = icmp eq ptr %57, null
  br i1 %cmp.not.i.i.i.i, label %if.then.i.i332.i, label %while.cond.i.i.i.i

while.cond.i.i.i.i:                               ; preds = %if.then66.i, %while.cond.i.i.i.i.backedge
  %.pr.i.i.i = phi ptr [ %.pr.i.i.i.be, %while.cond.i.i.i.i.backedge ], [ %57, %if.then66.i ]
  %__value_.i.i.i.i = getelementptr inbounds %"class.std::__1::__tree_node", ptr %.pr.i.i.i, i64 0, i32 1
  %58 = load i32, ptr %__value_.i.i.i.i, align 8, !tbaa !62
  %cmp.i.i.i.i.i.i = icmp slt i32 %56, %58
  br i1 %cmp.i.i.i.i.i.i, label %if.then5.i.i.i.i, label %if.else11.i.i.i.i

if.then5.i.i.i.i:                                 ; preds = %while.cond.i.i.i.i
  %59 = load ptr, ptr %.pr.i.i.i, align 8, !tbaa !30
  %cmp6.not.i.i.i.i = icmp eq ptr %59, null
  br i1 %cmp6.not.i.i.i.i, label %if.then.i.i332.i, label %while.cond.i.i.i.i.backedge

if.else11.i.i.i.i:                                ; preds = %while.cond.i.i.i.i
  %cmp.i.i51.i.i.i.i = icmp slt i32 %58, %56
  br i1 %cmp.i.i51.i.i.i.i, label %if.then15.i.i.i.i, label %invoke.cont71.i

if.then15.i.i.i.i:                                ; preds = %if.else11.i.i.i.i
  %__right_.i.i.i.i = getelementptr inbounds %"class.std::__1::__tree_node_base", ptr %.pr.i.i.i, i64 0, i32 1
  %60 = load ptr, ptr %__right_.i.i.i.i, align 8, !tbaa !30
  %cmp16.not.i.i.i.i = icmp eq ptr %60, null
  br i1 %cmp16.not.i.i.i.i, label %if.then.i.i332.i.loopexit.split.loop.exit, label %while.cond.i.i.i.i.backedge

while.cond.i.i.i.i.backedge:                      ; preds = %if.then15.i.i.i.i, %if.then5.i.i.i.i
  %.pr.i.i.i.be = phi ptr [ %59, %if.then5.i.i.i.i ], [ %60, %if.then15.i.i.i.i ]
  br label %while.cond.i.i.i.i, !llvm.loop !163

if.then.i.i332.i.loopexit.split.loop.exit:        ; preds = %if.then15.i.i.i.i
  %__right_.i.i.i.i.le = getelementptr inbounds %"class.std::__1::__tree_node_base", ptr %.pr.i.i.i, i64 0, i32 1
  br label %if.then.i.i332.i

if.then.i.i332.i:                                 ; preds = %if.then5.i.i.i.i, %if.then.i.i332.i.loopexit.split.loop.exit, %if.then66.i
  %retval.0.i19.i.i.i = phi ptr [ %__pair1_.i.i.i, %if.then66.i ], [ %__right_.i.i.i.i.le, %if.then.i.i332.i.loopexit.split.loop.exit ], [ %.pr.i.i.i, %if.then5.i.i.i.i ]
  %__pair1_.i.i.sink.i18.i.i.i = phi ptr [ %__pair1_.i.i.i, %if.then66.i ], [ %.pr.i.i.i, %if.then.i.i332.i.loopexit.split.loop.exit ], [ %.pr.i.i.i, %if.then5.i.i.i.i ]
  %call.i.i.i.i.i.i.i333.i = invoke noalias noundef nonnull dereferenceable(72) ptr @_Znwm(i64 noundef 72) #35
          to label %call.i.i.i.i.i.i.i.noexc.i unwind label %lpad68.i

call.i.i.i.i.i.i.i.noexc.i:                       ; preds = %if.then.i.i332.i
  %__value_.i10.i.i.i = getelementptr inbounds %"class.std::__1::__tree_node", ptr %call.i.i.i.i.i.i.i333.i, i64 0, i32 1
  store i32 %56, ptr %__value_.i10.i.i.i, align 8, !tbaa !164, !noalias !170
  %second.i.i.i.i.i.i.i.i = getelementptr inbounds %"class.std::__1::__tree_node", ptr %call.i.i.i.i.i.i.i333.i, i64 0, i32 1, i32 0, i32 1
  call void @llvm.memset.p0.i64(ptr noundef nonnull align 8 dereferenceable(32) %second.i.i.i.i.i.i.i.i, i8 0, i64 32, i1 false), !noalias !170
  %__parent_.i.i.i.i = getelementptr inbounds %"class.std::__1::__tree_node_base", ptr %call.i.i.i.i.i.i.i333.i, i64 0, i32 2
  call void @llvm.memset.p0.i64(ptr noundef nonnull align 8 dereferenceable(16) %call.i.i.i.i.i.i.i333.i, i8 0, i64 16, i1 false)
  store ptr %__pair1_.i.i.sink.i18.i.i.i, ptr %__parent_.i.i.i.i, align 8, !tbaa !173
  store ptr %call.i.i.i.i.i.i.i333.i, ptr %retval.0.i19.i.i.i, align 8, !tbaa !30
  %61 = load ptr, ptr %per_family_reports.i, align 8, !tbaa !30
  %62 = load ptr, ptr %61, align 8, !tbaa !6
  %cmp.not.i11.i.i.i = icmp eq ptr %62, null
  br i1 %cmp.not.i11.i.i.i, label %_ZNSt3__110unique_ptrINS_11__tree_nodeINS_12__value_typeIiN9benchmark17BenchmarkReporter19PerFamilyRunReportsEEEPvEENS_22__tree_node_destructorINS_9allocatorIS8_EEEEED2B7v170000Ev.exit.i.i.i, label %if.then.i.i.i.i

if.then.i.i.i.i:                                  ; preds = %call.i.i.i.i.i.i.i.noexc.i
  store ptr %62, ptr %per_family_reports.i, align 8, !tbaa !30
  %.pre.i.i.i.i = load ptr, ptr %retval.0.i19.i.i.i, align 8, !tbaa !30
  br label %_ZNSt3__110unique_ptrINS_11__tree_nodeINS_12__value_typeIiN9benchmark17BenchmarkReporter19PerFamilyRunReportsEEEPvEENS_22__tree_node_destructorINS_9allocatorIS8_EEEEED2B7v170000Ev.exit.i.i.i

_ZNSt3__110unique_ptrINS_11__tree_nodeINS_12__value_typeIiN9benchmark17BenchmarkReporter19PerFamilyRunReportsEEEPvEENS_22__tree_node_destructorINS_9allocatorIS8_EEEEED2B7v170000Ev.exit.i.i.i: ; preds = %if.then.i.i.i.i, %call.i.i.i.i.i.i.i.noexc.i
  %63 = phi ptr [ %.pre.i.i.i.i, %if.then.i.i.i.i ], [ %call.i.i.i.i.i.i.i333.i, %call.i.i.i.i.i.i.i.noexc.i ]
  %64 = load ptr, ptr %__pair1_.i.i.i, align 8, !tbaa !6
  call void @_ZNSt3__127__tree_balance_after_insertB7v170000IPNS_16__tree_node_baseIPvEEEEvT_S5_(ptr noundef %64, ptr noundef %63) #33
  %65 = load i64, ptr %__pair3_.i.i.i.i.i, align 8, !tbaa !31
  %inc.i.i.i.i = add i64 %65, 1
  store i64 %inc.i.i.i.i, ptr %__pair3_.i.i.i.i.i, align 8, !tbaa !31
  br label %invoke.cont71.i

invoke.cont71.i:                                  ; preds = %if.else11.i.i.i.i, %_ZNSt3__110unique_ptrINS_11__tree_nodeINS_12__value_typeIiN9benchmark17BenchmarkReporter19PerFamilyRunReportsEEEPvEENS_22__tree_node_destructorINS_9allocatorIS8_EEEEED2B7v170000Ev.exit.i.i.i
  %__r.0.i.i.i = phi ptr [ %call.i.i.i.i.i.i.i333.i, %_ZNSt3__110unique_ptrINS_11__tree_nodeINS_12__value_typeIiN9benchmark17BenchmarkReporter19PerFamilyRunReportsEEEPvEENS_22__tree_node_destructorINS_9allocatorIS8_EEEEED2B7v170000Ev.exit.i.i.i ], [ %.pr.i.i.i, %if.else11.i.i.i.i ]
  %second.i.i = getelementptr inbounds %"class.std::__1::__tree_node", ptr %__r.0.i.i.i, i64 0, i32 1, i32 0, i32 1
  store ptr %second.i.i, ptr %reports_for_family.i, align 8, !tbaa !30
  br label %if.end73.i

lpad62.i:                                         ; preds = %if.else.i.i
  %66 = landingpad { ptr, i32 }
          cleanup
  br label %ehcleanup.i227

lpad68.i:                                         ; preds = %if.then.i.i332.i
  %67 = landingpad { ptr, i32 }
          cleanup
  br label %ehcleanup.i227

if.end73.i:                                       ; preds = %invoke.cont71.i, %for.body59.i
  %68 = phi ptr [ %second.i.i, %invoke.cont71.i ], [ null, %for.body59.i ]
  %69 = load ptr, ptr %__end_.i334.i, align 8, !tbaa !157
  %70 = load ptr, ptr %__end_cap_.i.i.i, align 8, !tbaa !30
  %cmp.i335.i = icmp ult ptr %69, %70
  br i1 %cmp.i335.i, label %if.then.i336.i, label %if.else.i.i

if.then.i336.i:                                   ; preds = %if.end73.i
  invoke void @_ZN9benchmark8internal15BenchmarkRunnerC1ERKNS0_17BenchmarkInstanceEPNS_17BenchmarkReporter19PerFamilyRunReportsE(ptr noundef nonnull align 8 dereferenceable(248) %69, ptr noundef nonnull align 8 dereferenceable(304) %__begin350.sroa.0.0587.i, ptr noundef %68)
          to label %_ZNSt3__16vectorIN9benchmark8internal15BenchmarkRunnerENS_9allocatorIS3_EEE22__construct_one_at_endB7v170000IJRKNS2_17BenchmarkInstanceERPNS1_17BenchmarkReporter19PerFamilyRunReportsEEEEvDpOT_.exit.i.i unwind label %lpad.i.i.i

lpad.i.i.i:                                       ; preds = %if.then.i336.i
  %71 = landingpad { ptr, i32 }
          cleanup
  store ptr %69, ptr %__end_.i334.i, align 8, !tbaa !157
  br label %ehcleanup.i227

_ZNSt3__16vectorIN9benchmark8internal15BenchmarkRunnerENS_9allocatorIS3_EEE22__construct_one_at_endB7v170000IJRKNS2_17BenchmarkInstanceERPNS1_17BenchmarkReporter19PerFamilyRunReportsEEEEvDpOT_.exit.i.i: ; preds = %if.then.i336.i
  %incdec.ptr.i.i.i = getelementptr inbounds %"class.benchmark::internal::BenchmarkRunner", ptr %69, i64 1
  store ptr %incdec.ptr.i.i.i, ptr %__end_.i334.i, align 8, !tbaa !157
  br label %invoke.cont74.i

if.else.i.i:                                      ; preds = %if.end73.i
  invoke void @_ZNSt3__16vectorIN9benchmark8internal15BenchmarkRunnerENS_9allocatorIS3_EEE24__emplace_back_slow_pathIJRKNS2_17BenchmarkInstanceERPNS1_17BenchmarkReporter19PerFamilyRunReportsEEEEvDpOT_(ptr noundef nonnull align 8 dereferenceable(24) %runners.i, ptr noundef nonnull align 8 dereferenceable(304) %__begin350.sroa.0.0587.i, ptr noundef nonnull align 8 dereferenceable(8) %reports_for_family.i)
          to label %if.else.i.invoke.cont74_crit_edge.i unwind label %lpad62.i

if.else.i.invoke.cont74_crit_edge.i:              ; preds = %if.else.i.i
  %.pre.i = load ptr, ptr %__end_.i334.i, align 8, !tbaa !157
  br label %invoke.cont74.i

invoke.cont74.i:                                  ; preds = %if.else.i.invoke.cont74_crit_edge.i, %_ZNSt3__16vectorIN9benchmark8internal15BenchmarkRunnerENS_9allocatorIS3_EEE22__construct_one_at_endB7v170000IJRKNS2_17BenchmarkInstanceERPNS1_17BenchmarkReporter19PerFamilyRunReportsEEEEvDpOT_.exit.i.i
  %72 = phi ptr [ %.pre.i, %if.else.i.invoke.cont74_crit_edge.i ], [ %incdec.ptr.i.i.i, %_ZNSt3__16vectorIN9benchmark8internal15BenchmarkRunnerENS_9allocatorIS3_EEE22__construct_one_at_endB7v170000IJRKNS2_17BenchmarkInstanceERPNS1_17BenchmarkReporter19PerFamilyRunReportsEEEEvDpOT_.exit.i.i ]
  %repeats.i.i = getelementptr %"class.benchmark::internal::BenchmarkRunner", ptr %72, i64 -1, i32 4
  %73 = load i32, ptr %repeats.i.i, align 8, !tbaa !175
  %conv79.i = sext i32 %73 to i64
  %add80.i = add i64 %num_repetitions_total.0588.i, %conv79.i
  %74 = load ptr, ptr %reports_for_family.i, align 8, !tbaa !30
  %tobool81.not.i = icmp eq ptr %74, null
  br i1 %tobool81.not.i, label %if.end84.i, label %if.then82.i

if.then82.i:                                      ; preds = %invoke.cont74.i
  %75 = load i32, ptr %74, align 8, !tbaa !184
  %add83.i = add nsw i32 %75, %73
  store i32 %add83.i, ptr %74, align 8, !tbaa !184
  br label %if.end84.i

if.end84.i:                                       ; preds = %if.then82.i, %invoke.cont74.i
  call void @llvm.lifetime.end.p0(i64 8, ptr nonnull %reports_for_family.i) #33
  %incdec.ptr.i340.i = getelementptr inbounds %"class.benchmark::internal::BenchmarkInstance", ptr %__begin350.sroa.0.0587.i, i64 1
  %cmp.i.i329.not.i = icmp eq ptr %incdec.ptr.i340.i, %52
  br i1 %cmp.i.i329.not.i, label %for.cond.cleanup58.i, label %for.body59.i

ehcleanup.i227:                                   ; preds = %lpad.i.i.i, %lpad68.i, %lpad62.i
  %.pn287.i = phi { ptr, i32 } [ %67, %lpad68.i ], [ %66, %lpad62.i ], [ %71, %lpad.i.i.i ]
  call void @llvm.lifetime.end.p0(i64 8, ptr nonnull %reports_for_family.i) #33
  br label %ehcleanup224.i

invoke.cont93.i:                                  ; preds = %_ZNSt3__114__split_bufferImRNS_9allocatorImEEE5clearB7v170000Ev.exit.i.i.i, %for.cond.cleanup58.i, %for.cond.cleanup58.thread.i
  %76 = phi ptr [ %72, %_ZNSt3__114__split_bufferImRNS_9allocatorImEEE5clearB7v170000Ev.exit.i.i.i ], [ %72, %for.cond.cleanup58.i ], [ %.pre, %for.cond.cleanup58.thread.i ]
  %__end_cap_.i.i.i608.i = phi ptr [ %__end_cap_.i.i.i.i, %_ZNSt3__114__split_bufferImRNS_9allocatorImEEE5clearB7v170000Ev.exit.i.i.i ], [ %__end_cap_.i.i.i.i, %for.cond.cleanup58.i ], [ %__end_cap_.i.i.i606.i, %for.cond.cleanup58.thread.i ]
  %77 = phi ptr [ %add.ptr6.i.i.i, %_ZNSt3__114__split_bufferImRNS_9allocatorImEEE5clearB7v170000Ev.exit.i.i.i ], [ null, %for.cond.cleanup58.i ], [ null, %for.cond.cleanup58.thread.i ]
  %78 = phi ptr [ %call.i.i.i.i.i.i331.i, %_ZNSt3__114__split_bufferImRNS_9allocatorImEEE5clearB7v170000Ev.exit.i.i.i ], [ null, %for.cond.cleanup58.i ], [ null, %for.cond.cleanup58.thread.i ]
  %__end_.i341.i = getelementptr inbounds %"class.std::__1::vector.121", ptr %runners.i, i64 0, i32 1
  %79 = load ptr, ptr %runners.i, align 8, !tbaa !185
  %sub.ptr.lhs.cast.i342.i = ptrtoint ptr %76 to i64
  %sub.ptr.rhs.cast.i343.i = ptrtoint ptr %79 to i64
  %sub.ptr.sub.i344.i = sub i64 %sub.ptr.lhs.cast.i342.i, %sub.ptr.rhs.cast.i343.i
  %sub.ptr.div.i345.i = sdiv exact i64 %sub.ptr.sub.i344.i, 248
  %cmp96.not590.i = icmp eq ptr %76, %79
  br i1 %cmp96.not590.i, label %for.cond.cleanup97.i, label %invoke.cont101.lr.ph.i

invoke.cont101.lr.ph.i:                           ; preds = %invoke.cont93.i
  %__end_.i.i416.i = getelementptr inbounds %"class.std::__1::vector.149", ptr %repetition_indices.i, i64 0, i32 1
  br label %invoke.cont101.i

for.cond.cleanup97.i:                             ; preds = %invoke.cont107.i, %invoke.cont93.i
  %80 = phi ptr [ %78, %invoke.cont93.i ], [ %128, %invoke.cont107.i ]
  %81 = phi ptr [ %78, %invoke.cont93.i ], [ %126, %invoke.cont107.i ]
  %82 = load i8, ptr @_ZN9benchmark42FLAGS_benchmark_enable_random_interleavingE, align 1, !tbaa !105, !range !51, !noundef !52
  %tobool115.not.i = icmp eq i8 %82, 0
  br i1 %tobool115.not.i, label %if.end136.i, label %if.then116.i

lpad92.i:                                         ; preds = %_ZNSt3__114__split_bufferImRNS_9allocatorImEEEC2EmmS3_.exit.i.i, %if.then4.i.i
  %83 = landingpad { ptr, i32 }
          cleanup
  br label %ehcleanup222.i

invoke.cont101.i:                                 ; preds = %invoke.cont107.i, %invoke.cont101.lr.ph.i
  %84 = phi ptr [ %78, %invoke.cont101.lr.ph.i ], [ %126, %invoke.cont107.i ]
  %85 = phi ptr [ %77, %invoke.cont101.lr.ph.i ], [ %127, %invoke.cont107.i ]
  %86 = phi ptr [ %78, %invoke.cont101.lr.ph.i ], [ %128, %invoke.cont107.i ]
  %runner_index.0591.i = phi i64 [ 0, %invoke.cont101.lr.ph.i ], [ %inc.i, %invoke.cont107.i ]
  %87 = load ptr, ptr %runners.i, align 8, !tbaa !185
  %repeats.i346.i = getelementptr inbounds %"class.benchmark::internal::BenchmarkRunner", ptr %87, i64 %runner_index.0591.i, i32 4
  %88 = load i32, ptr %repeats.i346.i, align 8, !tbaa !175
  %cmp5.i.i.i = icmp sgt i32 %88, 0
  br i1 %cmp5.i.i.i, label %for.body.i.i.i, label %invoke.cont107.i

for.body.i.i.i:                                   ; preds = %invoke.cont101.i, %call1.i.i.noexc.i
  %89 = phi ptr [ %123, %call1.i.i.noexc.i ], [ %84, %invoke.cont101.i ]
  %90 = phi ptr [ %124, %call1.i.i.noexc.i ], [ %85, %invoke.cont101.i ]
  %91 = phi ptr [ %125, %call1.i.i.noexc.i ], [ %86, %invoke.cont101.i ]
  %__n.addr.06.i.i.i = phi i32 [ %dec.i.i.i, %call1.i.i.noexc.i ], [ %88, %invoke.cont101.i ]
  %cmp.not.i.i418.i = icmp eq ptr %91, %90
  br i1 %cmp.not.i.i418.i, label %if.else.i.i.i, label %if.then.i.i420.i

if.then.i.i420.i:                                 ; preds = %for.body.i.i.i
  store i64 %runner_index.0591.i, ptr %91, align 8, !tbaa !31
  %incdec.ptr.i.i.i419.i = getelementptr inbounds i64, ptr %91, i64 1
  store ptr %incdec.ptr.i.i.i419.i, ptr %__end_.i.i416.i, align 8, !tbaa !186
  br label %call1.i.i.noexc.i

if.else.i.i.i:                                    ; preds = %for.body.i.i.i
  %sub.ptr.lhs.cast.i.i.i.i.i = ptrtoint ptr %91 to i64
  %sub.ptr.rhs.cast.i.i.i.i.i = ptrtoint ptr %89 to i64
  %sub.ptr.sub.i.i.i.i.i = sub i64 %sub.ptr.lhs.cast.i.i.i.i.i, %sub.ptr.rhs.cast.i.i.i.i.i
  %sub.ptr.div.i.i.i.i.i = ashr exact i64 %sub.ptr.sub.i.i.i.i.i, 3
  %add.i.i.i.i = add nsw i64 %sub.ptr.div.i.i.i.i.i, 1
  %cmp.i.i.i.i.i = icmp ugt i64 %add.i.i.i.i, 2305843009213693951
  br i1 %cmp.i.i.i.i.i, label %if.then.i.i.i.i.i, label %_ZNKSt3__16vectorImNS_9allocatorImEEE11__recommendB7v170000Em.exit.i.i.i.i

if.then.i.i.i.i.i:                                ; preds = %if.else.i.i.i
  invoke void @_ZNKSt3__16vectorImNS_9allocatorImEEE20__throw_length_errorB7v170000Ev(ptr noundef nonnull align 8 dereferenceable(24) %repetition_indices.i) #34
          to label %.noexc423.i unwind label %lpad100.loopexit.split-lp.i

.noexc423.i:                                      ; preds = %if.then.i.i.i.i.i
  unreachable

_ZNKSt3__16vectorImNS_9allocatorImEEE11__recommendB7v170000Em.exit.i.i.i.i: ; preds = %if.else.i.i.i
  %sub.ptr.lhs.cast.i.i.i.i.i.i = ptrtoint ptr %90 to i64
  %sub.ptr.sub.i.i.i.i.i.i = sub i64 %sub.ptr.lhs.cast.i.i.i.i.i.i, %sub.ptr.rhs.cast.i.i.i.i.i
  %cmp3.not.i.i.i.i.i = icmp ult i64 %sub.ptr.sub.i.i.i.i.i.i, 9223372036854775800
  %mul.i.i.i.i421.i = lshr exact i64 %sub.ptr.sub.i.i.i.i.i.i, 2
  %.sroa.speculated.i.i.i.i.i = call i64 @llvm.umax.i64(i64 %mul.i.i.i.i421.i, i64 %add.i.i.i.i)
  %retval.0.i.i.i.i.i = select i1 %cmp3.not.i.i.i.i.i, i64 %.sroa.speculated.i.i.i.i.i, i64 2305843009213693951
  %cmp.i16.i.i.i.i = icmp eq i64 %retval.0.i.i.i.i.i, 0
  br i1 %cmp.i16.i.i.i.i, label %invoke.cont.i.i.i.i, label %if.else.i.i.i.i.i

if.else.i.i.i.i.i:                                ; preds = %_ZNKSt3__16vectorImNS_9allocatorImEEE11__recommendB7v170000Em.exit.i.i.i.i
  %cmp.i.i.i.i.i.i.i = icmp ugt i64 %retval.0.i.i.i.i.i, 2305843009213693951
  br i1 %cmp.i.i.i.i.i.i.i, label %if.then.i.i.i.i.i.i.i, label %_ZNSt3__119__allocate_at_leastB7v170000INS_9allocatorImEEEENS_19__allocation_resultINS_16allocator_traitsIT_E7pointerEEERS5_m.exit.i.i.i.i.i

if.then.i.i.i.i.i.i.i:                            ; preds = %if.else.i.i.i.i.i
  invoke void @_ZSt28__throw_bad_array_new_lengthB7v170000v() #34
          to label %.noexc424.i unwind label %lpad100.loopexit.split-lp.i

.noexc424.i:                                      ; preds = %if.then.i.i.i.i.i.i.i
  unreachable

_ZNSt3__119__allocate_at_leastB7v170000INS_9allocatorImEEEENS_19__allocation_resultINS_16allocator_traitsIT_E7pointerEEERS5_m.exit.i.i.i.i.i: ; preds = %if.else.i.i.i.i.i
  %mul.i.i.i.i.i.i.i = shl nuw i64 %retval.0.i.i.i.i.i, 3
  %call.i.i.i.i.i.i.i.i425.i = invoke noalias noundef nonnull ptr @_Znwm(i64 noundef %mul.i.i.i.i.i.i.i) #35
          to label %invoke.cont.i.i.i.i unwind label %lpad100.loopexit.i

invoke.cont.i.i.i.i:                              ; preds = %_ZNSt3__119__allocate_at_leastB7v170000INS_9allocatorImEEEENS_19__allocation_resultINS_16allocator_traitsIT_E7pointerEEERS5_m.exit.i.i.i.i.i, %_ZNKSt3__16vectorImNS_9allocatorImEEE11__recommendB7v170000Em.exit.i.i.i.i
  %storemerge.i.i.i.i.i = phi ptr [ null, %_ZNKSt3__16vectorImNS_9allocatorImEEE11__recommendB7v170000Em.exit.i.i.i.i ], [ %call.i.i.i.i.i.i.i.i425.i, %_ZNSt3__119__allocate_at_leastB7v170000INS_9allocatorImEEEENS_19__allocation_resultINS_16allocator_traitsIT_E7pointerEEERS5_m.exit.i.i.i.i.i ]
  %storemerge.i.i.i.i.i349 = ptrtoint ptr %storemerge.i.i.i.i.i to i64
  %add.ptr.i.i.i.i422.i = getelementptr inbounds i64, ptr %storemerge.i.i.i.i.i, i64 %sub.ptr.div.i.i.i.i.i
  %add.ptr6.i.i.i.i.i = getelementptr inbounds i64, ptr %storemerge.i.i.i.i.i, i64 %retval.0.i.i.i.i.i
  store i64 %runner_index.0591.i, ptr %add.ptr.i.i.i.i422.i, align 8, !tbaa !31
  %incdec.ptr.i4.i.i.i = getelementptr inbounds i64, ptr %add.ptr.i.i.i.i422.i, i64 1
  %cmp.i.not13.i.i.i.i.i.i.i.i.i.i.i = icmp eq ptr %91, %89
  br i1 %cmp.i.not13.i.i.i.i.i.i.i.i.i.i.i, label %_ZNSt3__114__split_bufferImRNS_9allocatorImEEE5clearB7v170000Ev.exit.i.i.i.i.i, label %while.body.i.i.i.i.i.i.i.i.i.i.i.preheader

while.body.i.i.i.i.i.i.i.i.i.i.i.preheader:       ; preds = %invoke.cont.i.i.i.i
  %92 = add i64 %sub.ptr.lhs.cast.i.i.i.i.i, -8
  %93 = sub i64 %92, %sub.ptr.rhs.cast.i.i.i.i.i
  %94 = lshr i64 %93, 3
  %95 = add nuw nsw i64 %94, 1
  %min.iters.check = icmp ult i64 %93, 552
  br i1 %min.iters.check, label %while.body.i.i.i.i.i.i.i.i.i.i.i.preheader359, label %vector.scevcheck

vector.scevcheck:                                 ; preds = %while.body.i.i.i.i.i.i.i.i.i.i.i.preheader
  %96 = add i64 %sub.ptr.lhs.cast.i.i.i.i.i, -8
  %97 = sub i64 %96, %sub.ptr.rhs.cast.i.i.i.i.i
  %mul346 = and i64 %97, -8
  %uglygep = getelementptr i8, ptr %storemerge.i.i.i.i.i, i64 -8
  %uglygep344 = getelementptr i8, ptr %uglygep, i64 %sub.ptr.sub.i.i.i.i.i
  %mul = and i64 %97, -8
  %98 = sub i64 0, %mul
  %99 = getelementptr i8, ptr %uglygep344, i64 %98
  %100 = icmp ugt ptr %99, %uglygep344
  %uglygep345 = getelementptr i8, ptr %91, i64 -8
  %101 = sub i64 0, %mul346
  %102 = getelementptr i8, ptr %uglygep345, i64 %101
  %103 = icmp ugt ptr %102, %uglygep345
  %104 = or i1 %100, %103
  br i1 %104, label %while.body.i.i.i.i.i.i.i.i.i.i.i.preheader359, label %vector.memcheck

vector.memcheck:                                  ; preds = %vector.scevcheck
  %105 = add i64 %sub.ptr.lhs.cast.i.i.i.i.i, -8
  %106 = add i64 %storemerge.i.i.i.i.i349, -8
  %107 = add i64 %106, %sub.ptr.sub.i.i.i.i.i
  %108 = sub i64 %105, %107
  %diff.check = icmp ult i64 %108, 32
  br i1 %diff.check, label %while.body.i.i.i.i.i.i.i.i.i.i.i.preheader359, label %vector.ph

vector.ph:                                        ; preds = %vector.memcheck
  %n.vec = and i64 %95, -4
  %109 = mul i64 %n.vec, -8
  %ind.end = getelementptr i8, ptr %add.ptr.i.i.i.i422.i, i64 %109
  %110 = mul i64 %n.vec, -8
  %ind.end350 = getelementptr i8, ptr %91, i64 %110
  br label %vector.body

vector.body:                                      ; preds = %vector.body, %vector.ph
  %index = phi i64 [ 0, %vector.ph ], [ %index.next, %vector.body ]
  %111 = mul i64 %index, -8
  %next.gep = getelementptr i8, ptr %add.ptr.i.i.i.i422.i, i64 %111
  %112 = mul i64 %index, -8
  %next.gep353 = getelementptr i8, ptr %91, i64 %112
  %113 = getelementptr inbounds i64, ptr %next.gep353, i64 -1
  %114 = getelementptr inbounds i64, ptr %113, i64 -1
  %wide.load = load <2 x i64>, ptr %114, align 8, !tbaa !31, !noalias !190
  %115 = getelementptr inbounds i64, ptr %113, i64 -2
  %116 = getelementptr inbounds i64, ptr %115, i64 -1
  %wide.load355 = load <2 x i64>, ptr %116, align 8, !tbaa !31, !noalias !190
  %117 = getelementptr inbounds i64, ptr %next.gep, i64 -1
  %118 = getelementptr inbounds i64, ptr %117, i64 -1
  store <2 x i64> %wide.load, ptr %118, align 8, !tbaa !31, !noalias !190
  %119 = getelementptr inbounds i64, ptr %117, i64 -2
  %120 = getelementptr inbounds i64, ptr %119, i64 -1
  store <2 x i64> %wide.load355, ptr %120, align 8, !tbaa !31, !noalias !190
  %index.next = add nuw i64 %index, 4
  %121 = icmp eq i64 %index.next, %n.vec
  br i1 %121, label %middle.block, label %vector.body, !llvm.loop !199

middle.block:                                     ; preds = %vector.body
  %cmp.n = icmp eq i64 %95, %n.vec
  br i1 %cmp.n, label %_ZNSt3__114__split_bufferImRNS_9allocatorImEEE5clearB7v170000Ev.exit.i.i.i.i.i, label %while.body.i.i.i.i.i.i.i.i.i.i.i.preheader359

while.body.i.i.i.i.i.i.i.i.i.i.i.preheader359:    ; preds = %vector.memcheck, %vector.scevcheck, %while.body.i.i.i.i.i.i.i.i.i.i.i.preheader, %middle.block
  %incdec.ptr.i15.i.i.i.i.i.i.i.i.i.i.i.ph = phi ptr [ %add.ptr.i.i.i.i422.i, %vector.memcheck ], [ %add.ptr.i.i.i.i422.i, %vector.scevcheck ], [ %add.ptr.i.i.i.i422.i, %while.body.i.i.i.i.i.i.i.i.i.i.i.preheader ], [ %ind.end, %middle.block ]
  %__first.sroa.2.014.i.i.i.i.i.i.i.i.i.i.i.ph = phi ptr [ %91, %vector.memcheck ], [ %91, %vector.scevcheck ], [ %91, %while.body.i.i.i.i.i.i.i.i.i.i.i.preheader ], [ %ind.end350, %middle.block ]
  br label %while.body.i.i.i.i.i.i.i.i.i.i.i

while.body.i.i.i.i.i.i.i.i.i.i.i:                 ; preds = %while.body.i.i.i.i.i.i.i.i.i.i.i.preheader359, %while.body.i.i.i.i.i.i.i.i.i.i.i
  %incdec.ptr.i15.i.i.i.i.i.i.i.i.i.i.i = phi ptr [ %incdec.ptr.i.i.i.i.i.i.i.i.i.i.i.i, %while.body.i.i.i.i.i.i.i.i.i.i.i ], [ %incdec.ptr.i15.i.i.i.i.i.i.i.i.i.i.i.ph, %while.body.i.i.i.i.i.i.i.i.i.i.i.preheader359 ]
  %__first.sroa.2.014.i.i.i.i.i.i.i.i.i.i.i = phi ptr [ %incdec.ptr.i.i.i.i.i.i.i.i.i.i.i.i.i, %while.body.i.i.i.i.i.i.i.i.i.i.i ], [ %__first.sroa.2.014.i.i.i.i.i.i.i.i.i.i.i.ph, %while.body.i.i.i.i.i.i.i.i.i.i.i.preheader359 ]
  %incdec.ptr.i.i.i.i.i.i.i.i.i.i.i.i.i = getelementptr inbounds i64, ptr %__first.sroa.2.014.i.i.i.i.i.i.i.i.i.i.i, i64 -1
  %122 = load i64, ptr %incdec.ptr.i.i.i.i.i.i.i.i.i.i.i.i.i, align 8, !tbaa !31, !noalias !190
  %incdec.ptr.i.i.i.i.i.i.i.i.i.i.i.i = getelementptr inbounds i64, ptr %incdec.ptr.i15.i.i.i.i.i.i.i.i.i.i.i, i64 -1
  store i64 %122, ptr %incdec.ptr.i.i.i.i.i.i.i.i.i.i.i.i, align 8, !tbaa !31, !noalias !190
  %cmp.i.not.i.i.i.i.i.i.i.i.i.i.i = icmp eq ptr %incdec.ptr.i.i.i.i.i.i.i.i.i.i.i.i.i, %89
  br i1 %cmp.i.not.i.i.i.i.i.i.i.i.i.i.i, label %_ZNSt3__114__split_bufferImRNS_9allocatorImEEE5clearB7v170000Ev.exit.i.i.i.i.i, label %while.body.i.i.i.i.i.i.i.i.i.i.i, !llvm.loop !200

_ZNSt3__114__split_bufferImRNS_9allocatorImEEE5clearB7v170000Ev.exit.i.i.i.i.i: ; preds = %while.body.i.i.i.i.i.i.i.i.i.i.i, %middle.block, %invoke.cont.i.i.i.i
  %storemerge.i.i.i.i = phi ptr [ %add.ptr.i.i.i.i422.i, %invoke.cont.i.i.i.i ], [ %ind.end, %middle.block ], [ %incdec.ptr.i.i.i.i.i.i.i.i.i.i.i.i, %while.body.i.i.i.i.i.i.i.i.i.i.i ]
  store ptr %storemerge.i.i.i.i, ptr %repetition_indices.i, align 8, !tbaa !30
  store ptr %incdec.ptr.i4.i.i.i, ptr %__end_.i.i416.i, align 8, !tbaa !30
  store ptr %add.ptr6.i.i.i.i.i, ptr %__end_cap_.i.i.i608.i, align 8, !tbaa !30
  %tobool.not.i.i.i.i.i = icmp eq ptr %89, null
  br i1 %tobool.not.i.i.i.i.i, label %call1.i.i.noexc.i, label %if.then.i19.i.i.i.i

if.then.i19.i.i.i.i:                              ; preds = %_ZNSt3__114__split_bufferImRNS_9allocatorImEEE5clearB7v170000Ev.exit.i.i.i.i.i
  call void @_ZdlPv(ptr noundef nonnull %89) #36
  br label %call1.i.i.noexc.i

call1.i.i.noexc.i:                                ; preds = %if.then.i19.i.i.i.i, %_ZNSt3__114__split_bufferImRNS_9allocatorImEEE5clearB7v170000Ev.exit.i.i.i.i.i, %if.then.i.i420.i
  %123 = phi ptr [ %storemerge.i.i.i.i, %if.then.i19.i.i.i.i ], [ %storemerge.i.i.i.i, %_ZNSt3__114__split_bufferImRNS_9allocatorImEEE5clearB7v170000Ev.exit.i.i.i.i.i ], [ %89, %if.then.i.i420.i ]
  %124 = phi ptr [ %add.ptr6.i.i.i.i.i, %if.then.i19.i.i.i.i ], [ %add.ptr6.i.i.i.i.i, %_ZNSt3__114__split_bufferImRNS_9allocatorImEEE5clearB7v170000Ev.exit.i.i.i.i.i ], [ %90, %if.then.i.i420.i ]
  %125 = phi ptr [ %incdec.ptr.i4.i.i.i, %if.then.i19.i.i.i.i ], [ %incdec.ptr.i4.i.i.i, %_ZNSt3__114__split_bufferImRNS_9allocatorImEEE5clearB7v170000Ev.exit.i.i.i.i.i ], [ %incdec.ptr.i.i.i419.i, %if.then.i.i420.i ]
  %dec.i.i.i = add nsw i32 %__n.addr.06.i.i.i, -1
  %cmp.i.i347.i = icmp ugt i32 %__n.addr.06.i.i.i, 1
  br i1 %cmp.i.i347.i, label %for.body.i.i.i, label %invoke.cont107.i, !llvm.loop !201

invoke.cont107.i:                                 ; preds = %call1.i.i.noexc.i, %invoke.cont101.i
  %126 = phi ptr [ %84, %invoke.cont101.i ], [ %123, %call1.i.i.noexc.i ]
  %127 = phi ptr [ %85, %invoke.cont101.i ], [ %124, %call1.i.i.noexc.i ]
  %128 = phi ptr [ %86, %invoke.cont101.i ], [ %125, %call1.i.i.noexc.i ]
  %inc.i = add i64 %runner_index.0591.i, 1
  %cmp96.not.i = icmp eq i64 %inc.i, %sub.ptr.div.i345.i
  br i1 %cmp96.not.i, label %for.cond.cleanup97.i, label %invoke.cont101.i, !llvm.loop !202

lpad100.loopexit.i:                               ; preds = %_ZNSt3__119__allocate_at_leastB7v170000INS_9allocatorImEEEENS_19__allocation_resultINS_16allocator_traitsIT_E7pointerEEERS5_m.exit.i.i.i.i.i
  %lpad.loopexit562.i = landingpad { ptr, i32 }
          cleanup
  br label %ehcleanup222.i

lpad100.loopexit.split-lp.i:                      ; preds = %if.then.i.i.i.i.i.i.i, %if.then.i.i.i.i.i
  %lpad.loopexit.split-lp563.i = landingpad { ptr, i32 }
          cleanup
  br label %ehcleanup222.i

if.then116.i:                                     ; preds = %for.cond.cleanup97.i
  call void @llvm.lifetime.start.p0(i64 4, ptr nonnull %rd.i) #33
  call void @llvm.lifetime.start.p0(i64 24, ptr nonnull %ref.tmp.i.i) #33
  store i8 24, ptr %ref.tmp.i.i, align 8
  %__data_.i.i.i.i.i228 = getelementptr inbounds %"struct.std::__1::basic_string<char>::__short", ptr %ref.tmp.i.i, i64 0, i32 2
  %cmp.i24.i.i.i.i = icmp ugt ptr %__data_.i.i.i.i.i228, @.str.63
  %add.ptr.i.i.i.i.i = getelementptr inbounds %"struct.std::__1::basic_string<char>::__short", ptr %ref.tmp.i.i, i64 0, i32 2, i64 12
  %cmp1.i.i.i.i.i = icmp ule ptr %add.ptr.i.i.i.i.i, @.str.63
  %129 = or i1 %cmp.i24.i.i.i.i, %cmp1.i.i.i.i.i
  call void @llvm.assume(i1 %129)
  call void @llvm.memcpy.p0.p0.i64(ptr noundef nonnull align 1 dereferenceable(12) %__data_.i.i.i.i.i228, ptr noundef nonnull align 1 dereferenceable(12) @.str.63, i64 12, i1 false)
  store i8 0, ptr %add.ptr.i.i.i.i.i, align 1, !tbaa !80
  invoke void @_ZNSt3__113random_deviceC2ERKNS_12basic_stringIcNS_11char_traitsIcEENS_9allocatorIcEEEE(ptr noundef nonnull align 4 dereferenceable(4) %rd.i, ptr noundef nonnull align 8 dereferenceable(24) %ref.tmp.i.i)
          to label %invoke.cont.i.i unwind label %lpad.i.i

invoke.cont.i.i:                                  ; preds = %if.then116.i
  %bf.load.i.i.i.i229 = load i8, ptr %ref.tmp.i.i, align 8
  %bf.clear.i.i.i.i230 = and i8 %bf.load.i.i.i.i229, 1
  %tobool.i.not.i.i.i231 = icmp eq i8 %bf.clear.i.i.i.i230, 0
  br i1 %tobool.i.not.i.i.i231, label %invoke.cont118.i, label %if.then.i.i349.i

if.then.i.i349.i:                                 ; preds = %invoke.cont.i.i
  %__data_.i.i.i.i232 = getelementptr inbounds %"struct.std::__1::basic_string<char>::__long", ptr %ref.tmp.i.i, i64 0, i32 2
  %130 = load ptr, ptr %__data_.i.i.i.i232, align 8, !tbaa !80
  call void @_ZdlPv(ptr noundef %130) #36
  br label %invoke.cont118.i

lpad.i.i:                                         ; preds = %if.then116.i
  %131 = landingpad { ptr, i32 }
          cleanup
  %bf.load.i.i3.i.i = load i8, ptr %ref.tmp.i.i, align 8
  %bf.clear.i.i4.i.i = and i8 %bf.load.i.i3.i.i, 1
  %tobool.i.not.i5.i.i = icmp eq i8 %bf.clear.i.i4.i.i, 0
  br i1 %tobool.i.not.i5.i.i, label %_ZNSt3__112basic_stringIcNS_11char_traitsIcEENS_9allocatorIcEEED2Ev.exit8.i.i, label %if.then.i7.i.i

if.then.i7.i.i:                                   ; preds = %lpad.i.i
  %__data_.i.i6.i.i = getelementptr inbounds %"struct.std::__1::basic_string<char>::__long", ptr %ref.tmp.i.i, i64 0, i32 2
  %132 = load ptr, ptr %__data_.i.i6.i.i, align 8, !tbaa !80
  call void @_ZdlPv(ptr noundef %132) #36
  br label %_ZNSt3__112basic_stringIcNS_11char_traitsIcEENS_9allocatorIcEEED2Ev.exit8.i.i

_ZNSt3__112basic_stringIcNS_11char_traitsIcEENS_9allocatorIcEEED2Ev.exit8.i.i: ; preds = %if.then.i7.i.i, %lpad.i.i
  call void @llvm.lifetime.end.p0(i64 24, ptr nonnull %ref.tmp.i.i) #33
  br label %ehcleanup135.i

invoke.cont118.i:                                 ; preds = %if.then.i.i349.i, %invoke.cont.i.i
  call void @llvm.lifetime.end.p0(i64 24, ptr nonnull %ref.tmp.i.i) #33
  call void @llvm.lifetime.start.p0(i64 5000, ptr nonnull %g.i) #33
  %call121.i = invoke noundef i32 @_ZNSt3__113random_deviceclEv(ptr noundef nonnull align 4 dereferenceable(4) %rd.i)
          to label %invoke.cont120.i unwind label %lpad119.loopexit.split-lp.i

invoke.cont120.i:                                 ; preds = %invoke.cont118.i
  %conv122.i = zext i32 %call121.i to i64
  store i64 %conv122.i, ptr %g.i, align 8, !tbaa !31
  br label %for.body.i.i351.i

for.body.i.i351.i:                                ; preds = %for.body.i.i351.i.1, %invoke.cont120.i
  %133 = phi i64 [ %conv122.i, %invoke.cont120.i ], [ %and7.i.i.i.1, %for.body.i.i351.i.1 ]
  %__i.015.i.i.i = phi i64 [ 1, %invoke.cont120.i ], [ %inc.i.i.i.1, %for.body.i.i351.i.1 ]
  %shr.i.i.i.i = lshr i64 %133, 30
  %xor.i.i.i = xor i64 %shr.i.i.i.i, %133
  %mul.i.i.i = mul nuw nsw i64 %xor.i.i.i, 1812433253
  %add.i.i.i = add nuw i64 %mul.i.i.i, %__i.015.i.i.i
  %and7.i.i.i = and i64 %add.i.i.i, 4294967295
  %arrayidx9.i.i.i = getelementptr inbounds [624 x i64], ptr %g.i, i64 0, i64 %__i.015.i.i.i
  store i64 %and7.i.i.i, ptr %arrayidx9.i.i.i, align 8, !tbaa !31
  %inc.i.i.i = add nuw nsw i64 %__i.015.i.i.i, 1
  %exitcond.not.i.i.i = icmp eq i64 %inc.i.i.i, 624
  br i1 %exitcond.not.i.i.i, label %invoke.cont123.i, label %for.body.i.i351.i.1, !llvm.loop !203

for.body.i.i351.i.1:                              ; preds = %for.body.i.i351.i
  %shr.i.i.i.i.1 = lshr i64 %and7.i.i.i, 30
  %xor.i.i.i.1 = xor i64 %shr.i.i.i.i.1, %add.i.i.i
  %mul.i.i.i.1 = mul i64 %xor.i.i.i.1, 1812433253
  %add.i.i.i.1 = add i64 %mul.i.i.i.1, %inc.i.i.i
  %and7.i.i.i.1 = and i64 %add.i.i.i.1, 4294967295
  %arrayidx9.i.i.i.1 = getelementptr inbounds [624 x i64], ptr %g.i, i64 0, i64 %inc.i.i.i
  store i64 %and7.i.i.i.1, ptr %arrayidx9.i.i.i.1, align 8, !tbaa !31
  %inc.i.i.i.1 = add nuw nsw i64 %__i.015.i.i.i, 2
  br label %for.body.i.i351.i

invoke.cont123.i:                                 ; preds = %for.body.i.i351.i
  %__i_.i.i.i = getelementptr inbounds %"class.std::__1::mersenne_twister_engine", ptr %g.i, i64 0, i32 1
  store i64 0, ptr %__i_.i.i.i, align 8, !tbaa !204
  %sub.ptr.lhs.cast.i.i.i.i = ptrtoint ptr %80 to i64
  %sub.ptr.rhs.cast.i.i.i.i = ptrtoint ptr %81 to i64
  %sub.ptr.sub.i.i.i.i = sub i64 %sub.ptr.lhs.cast.i.i.i.i, %sub.ptr.rhs.cast.i.i.i.i
  %cmp.i.i353.i = icmp sgt i64 %sub.ptr.sub.i.i.i.i, 8
  br i1 %cmp.i.i353.i, label %if.then.i.i354.i, label %invoke.cont132.i

if.then.i.i354.i:                                 ; preds = %invoke.cont123.i
  call void @llvm.lifetime.start.p0(i64 16, ptr nonnull %__uid.i.i.i) #33
  store i64 0, ptr %__uid.i.i.i, align 8, !tbaa !206
  %__b_.i.i.i.i.i.i = getelementptr inbounds %"class.std::__1::uniform_int_distribution<long>::param_type", ptr %__uid.i.i.i, i64 0, i32 1
  store i64 9223372036854775807, ptr %__b_.i.i.i.i.i.i, align 8, !tbaa !208
  %incdec.ptr.i.i.i.i = getelementptr inbounds i64, ptr %80, i64 -1
  %cmp.i29.i.i.i = icmp ugt ptr %incdec.ptr.i.i.i.i, %81
  br i1 %cmp.i29.i.i.i, label %for.body.lr.ph.i.i.i, label %for.end.i.i.i

for.body.lr.ph.i.i.i:                             ; preds = %if.then.i.i354.i
  %sub.ptr.div.i.i.i.i = lshr exact i64 %sub.ptr.sub.i.i.i.i, 3
  %__b_.i.i.i.i = getelementptr inbounds %"class.std::__1::uniform_int_distribution<long>::param_type", ptr %ref.tmp.i.i.i, i64 0, i32 1
  br label %for.body.i.i355.i

for.body.i.i355.i:                                ; preds = %if.end.i.i.i, %for.body.lr.ph.i.i.i
  %__d.031.in.i.i.i = phi i64 [ %sub.ptr.div.i.i.i.i, %for.body.lr.ph.i.i.i ], [ %__d.031.i.i.i, %if.end.i.i.i ]
  %__first.sroa.0.030.i.i.i = phi ptr [ %81, %for.body.lr.ph.i.i.i ], [ %incdec.ptr.i23.i.i.i, %if.end.i.i.i ]
  %__d.031.i.i.i = add nsw i64 %__d.031.in.i.i.i, -1
  call void @llvm.lifetime.start.p0(i64 16, ptr nonnull %ref.tmp.i.i.i) #33
  store i64 0, ptr %ref.tmp.i.i.i, align 8, !tbaa !206
  store i64 %__d.031.i.i.i, ptr %__b_.i.i.i.i, align 8, !tbaa !208
  %call9.i.i358.i = invoke noundef i64 @_ZNSt3__124uniform_int_distributionIlEclINS_23mersenne_twister_engineImLm32ELm624ELm397ELm31ELm2567483615ELm11ELm4294967295ELm7ELm2636928640ELm15ELm4022730752ELm18ELm1812433253EEEEElRT_RKNS1_10param_typeE(ptr noundef nonnull align 8 dereferenceable(16) %__uid.i.i.i, ptr noundef nonnull align 8 dereferenceable(5000) %g.i, ptr noundef nonnull align 8 dereferenceable(16) %ref.tmp.i.i.i)
          to label %call9.i.i.noexc.i unwind label %lpad119.loopexit.i

call9.i.i.noexc.i:                                ; preds = %for.body.i.i355.i
  call void @llvm.lifetime.end.p0(i64 16, ptr nonnull %ref.tmp.i.i.i) #33
  %cmp10.not.i.i.i = icmp eq i64 %call9.i.i358.i, 0
  br i1 %cmp10.not.i.i.i, label %if.end.i.i.i, label %if.then11.i.i.i

if.then11.i.i.i:                                  ; preds = %call9.i.i.noexc.i
  %add.ptr.i.i.i.i356.i = getelementptr inbounds i64, ptr %__first.sroa.0.030.i.i.i, i64 %call9.i.i358.i
  %134 = load i64, ptr %__first.sroa.0.030.i.i.i, align 8, !tbaa !31
  %135 = load i64, ptr %add.ptr.i.i.i.i356.i, align 8, !tbaa !31
  store i64 %135, ptr %__first.sroa.0.030.i.i.i, align 8, !tbaa !31
  store i64 %134, ptr %add.ptr.i.i.i.i356.i, align 8, !tbaa !31
  br label %if.end.i.i.i

if.end.i.i.i:                                     ; preds = %if.then11.i.i.i, %call9.i.i.noexc.i
  %incdec.ptr.i23.i.i.i = getelementptr inbounds i64, ptr %__first.sroa.0.030.i.i.i, i64 1
  %cmp.i.i.i357.i = icmp ult ptr %incdec.ptr.i23.i.i.i, %incdec.ptr.i.i.i.i
  br i1 %cmp.i.i.i357.i, label %for.body.i.i355.i, label %for.end.i.i.i, !llvm.loop !209

for.end.i.i.i:                                    ; preds = %if.end.i.i.i, %if.then.i.i354.i
  call void @llvm.lifetime.end.p0(i64 16, ptr nonnull %__uid.i.i.i) #33
  br label %invoke.cont132.i

invoke.cont132.i:                                 ; preds = %for.end.i.i.i, %invoke.cont123.i
  call void @llvm.lifetime.end.p0(i64 5000, ptr nonnull %g.i) #33
  call void @_ZNSt3__113random_deviceD1Ev(ptr noundef nonnull align 4 dereferenceable(4) %rd.i) #33
  call void @llvm.lifetime.end.p0(i64 4, ptr nonnull %rd.i) #33
  br label %if.end136.i

lpad119.loopexit.i:                               ; preds = %for.body.i.i355.i
  %lpad.loopexit.i = landingpad { ptr, i32 }
          cleanup
  br label %lpad119.i

lpad119.loopexit.split-lp.i:                      ; preds = %invoke.cont118.i
  %lpad.loopexit.split-lp.i = landingpad { ptr, i32 }
          cleanup
  br label %lpad119.i

lpad119.i:                                        ; preds = %lpad119.loopexit.split-lp.i, %lpad119.loopexit.i
  %lpad.phi.i = phi { ptr, i32 } [ %lpad.loopexit.i, %lpad119.loopexit.i ], [ %lpad.loopexit.split-lp.i, %lpad119.loopexit.split-lp.i ]
  call void @llvm.lifetime.end.p0(i64 5000, ptr nonnull %g.i) #33
  call void @_ZNSt3__113random_deviceD1Ev(ptr noundef nonnull align 4 dereferenceable(4) %rd.i) #33
  br label %ehcleanup135.i

ehcleanup135.i:                                   ; preds = %lpad119.i, %_ZNSt3__112basic_stringIcNS_11char_traitsIcEENS_9allocatorIcEEED2Ev.exit8.i.i
  %.pn283.i = phi { ptr, i32 } [ %lpad.phi.i, %lpad119.i ], [ %131, %_ZNSt3__112basic_stringIcNS_11char_traitsIcEENS_9allocatorIcEEED2Ev.exit8.i.i ]
  call void @llvm.lifetime.end.p0(i64 4, ptr nonnull %rd.i) #33
  br label %ehcleanup222.i

if.end136.i:                                      ; preds = %invoke.cont132.i, %for.cond.cleanup97.i
  %__end_.i359.i = getelementptr inbounds %"class.std::__1::vector.149", ptr %repetition_indices.i, i64 0, i32 1
  %cmp.i.i360.not592.i = icmp eq ptr %81, %80
  br i1 %cmp.i.i360.not592.i, label %for.cond.cleanup146.i, label %for.body147.lr.ph.i

for.body147.lr.ph.i:                              ; preds = %if.end136.i
  %__end_.i.i367.i = getelementptr inbounds %"class.std::__1::vector.122", ptr %run_results.i, i64 0, i32 1
  %__end_cap_.i.i368.i = getelementptr inbounds %"class.std::__1::vector.122", ptr %run_results.i, i64 0, i32 2
  %aggregates_only.i.i = getelementptr inbounds %"struct.benchmark::internal::RunResults", ptr %run_results.i, i64 0, i32 1
  %__end_.i7.i.i = getelementptr inbounds %"struct.benchmark::internal::RunResults", ptr %run_results.i, i64 0, i32 1, i32 1
  %__end_cap_.i8.i.i = getelementptr inbounds %"struct.benchmark::internal::RunResults", ptr %run_results.i, i64 0, i32 1, i32 2
  %display_report_aggregates_only.i.i = getelementptr inbounds %"struct.benchmark::internal::RunResults", ptr %run_results.i, i64 0, i32 2
  %__end_.i370.i = getelementptr inbounds %"class.std::__1::vector.122", ptr %additional_run_stats.i, i64 0, i32 1
  %file_report_aggregates_only.i.i = getelementptr inbounds %"struct.benchmark::internal::RunResults", ptr %run_results.i, i64 0, i32 3
  br label %for.body147.i

for.cond.cleanup146.i:                            ; preds = %cleanup.i, %if.end136.i
  %cmp.not.i.i.i = icmp eq ptr %81, null
  br i1 %cmp.not.i.i.i, label %_ZNSt3__16vectorImNS_9allocatorImEEED2B7v170000Ev.exit.i, label %if.then.i.i361.i

if.then.i.i361.i:                                 ; preds = %for.cond.cleanup146.i
  store ptr %81, ptr %__end_.i359.i, align 8, !tbaa !186
  call void @_ZdlPv(ptr noundef nonnull %81) #36
  br label %_ZNSt3__16vectorImNS_9allocatorImEEED2B7v170000Ev.exit.i

_ZNSt3__16vectorImNS_9allocatorImEEED2B7v170000Ev.exit.i: ; preds = %if.then.i.i361.i, %for.cond.cleanup146.i
  call void @llvm.lifetime.end.p0(i64 24, ptr nonnull %repetition_indices.i) #33
  %136 = load ptr, ptr %runners.i, align 8, !tbaa !185
  %cmp.not.i.i362.i = icmp eq ptr %136, null
  br i1 %cmp.not.i.i362.i, label %_ZNSt3__16vectorIN9benchmark8internal15BenchmarkRunnerENS_9allocatorIS3_EEED2B7v170000Ev.exit.i, label %if.then.i.i364.i

if.then.i.i364.i:                                 ; preds = %_ZNSt3__16vectorImNS_9allocatorImEEED2B7v170000Ev.exit.i
  %137 = load ptr, ptr %__end_.i341.i, align 8, !tbaa !157
  %cmp.not6.i.i.i.i.i = icmp eq ptr %137, %136
  br i1 %cmp.not6.i.i.i.i.i, label %_ZNSt3__16vectorIN9benchmark8internal15BenchmarkRunnerENS_9allocatorIS3_EEE7__clearB7v170000Ev.exit.i.i.i, label %while.body.i.i.i.i.i

while.body.i.i.i.i.i:                             ; preds = %if.then.i.i364.i, %while.body.i.i.i.i.i
  %__soon_to_be_end.07.i.i.i.i.i = phi ptr [ %incdec.ptr.i.i.i.i.i, %while.body.i.i.i.i.i ], [ %137, %if.then.i.i364.i ]
  %incdec.ptr.i.i.i.i.i = getelementptr inbounds %"class.benchmark::internal::BenchmarkRunner", ptr %__soon_to_be_end.07.i.i.i.i.i, i64 -1
  call void @_ZN9benchmark8internal15BenchmarkRunnerD2Ev(ptr noundef nonnull align 8 dereferenceable(248) %incdec.ptr.i.i.i.i.i) #33
  %cmp.not.i.i.i.i.i = icmp eq ptr %incdec.ptr.i.i.i.i.i, %136
  br i1 %cmp.not.i.i.i.i.i, label %_ZNSt3__16vectorIN9benchmark8internal15BenchmarkRunnerENS_9allocatorIS3_EEE7__clearB7v170000Ev.exit.loopexit.i.i.i, label %while.body.i.i.i.i.i

_ZNSt3__16vectorIN9benchmark8internal15BenchmarkRunnerENS_9allocatorIS3_EEE7__clearB7v170000Ev.exit.loopexit.i.i.i: ; preds = %while.body.i.i.i.i.i
  %.pre10.i.i.i = load ptr, ptr %runners.i, align 8, !tbaa !185
  br label %_ZNSt3__16vectorIN9benchmark8internal15BenchmarkRunnerENS_9allocatorIS3_EEE7__clearB7v170000Ev.exit.i.i.i

_ZNSt3__16vectorIN9benchmark8internal15BenchmarkRunnerENS_9allocatorIS3_EEE7__clearB7v170000Ev.exit.i.i.i: ; preds = %_ZNSt3__16vectorIN9benchmark8internal15BenchmarkRunnerENS_9allocatorIS3_EEE7__clearB7v170000Ev.exit.loopexit.i.i.i, %if.then.i.i364.i
  %138 = phi ptr [ %.pre10.i.i.i, %_ZNSt3__16vectorIN9benchmark8internal15BenchmarkRunnerENS_9allocatorIS3_EEE7__clearB7v170000Ev.exit.loopexit.i.i.i ], [ %136, %if.then.i.i364.i ]
  store ptr %136, ptr %__end_.i341.i, align 8, !tbaa !157
  call void @_ZdlPv(ptr noundef %138) #36
  br label %_ZNSt3__16vectorIN9benchmark8internal15BenchmarkRunnerENS_9allocatorIS3_EEED2B7v170000Ev.exit.i

_ZNSt3__16vectorIN9benchmark8internal15BenchmarkRunnerENS_9allocatorIS3_EEED2B7v170000Ev.exit.i: ; preds = %_ZNSt3__16vectorIN9benchmark8internal15BenchmarkRunnerENS_9allocatorIS3_EEE7__clearB7v170000Ev.exit.i.i.i, %_ZNSt3__16vectorImNS_9allocatorImEEED2B7v170000Ev.exit.i
  call void @llvm.lifetime.end.p0(i64 24, ptr nonnull %runners.i) #33
  br label %if.end227.i

for.body147.i:                                    ; preds = %cleanup.i, %for.body147.lr.ph.i
  %__begin3138.sroa.0.0593.i = phi ptr [ %81, %for.body147.lr.ph.i ], [ %incdec.ptr.i392.i, %cleanup.i ]
  %139 = load i64, ptr %__begin3138.sroa.0.0593.i, align 8, !tbaa !31
  %140 = load ptr, ptr %runners.i, align 8, !tbaa !185
  %arrayidx.i365.i = getelementptr inbounds %"class.benchmark::internal::BenchmarkRunner", ptr %140, i64 %139
  invoke void @_ZN9benchmark8internal15BenchmarkRunner15DoOneRepetitionEv(ptr noundef nonnull align 8 dereferenceable(248) %arrayidx.i365.i)
          to label %invoke.cont152.i unwind label %lpad151.i

invoke.cont152.i:                                 ; preds = %for.body147.i
  %repeats.i.i.i = getelementptr inbounds %"class.benchmark::internal::BenchmarkRunner", ptr %140, i64 %139, i32 4
  %141 = load i32, ptr %repeats.i.i.i, align 8, !tbaa !175
  %num_repetitions_done.i.i = getelementptr inbounds %"class.benchmark::internal::BenchmarkRunner", ptr %140, i64 %139, i32 6
  %142 = load i32, ptr %num_repetitions_done.i.i, align 8, !tbaa !210
  %cmp.i366.not.i = icmp eq i32 %141, %142
  br i1 %cmp.i366.not.i, label %if.end156.i, label %cleanup.i

lpad151.i:                                        ; preds = %for.body147.i
  %143 = landingpad { ptr, i32 }
          cleanup
  br label %ehcleanup222.i

if.end156.i:                                      ; preds = %invoke.cont152.i
  call void @llvm.lifetime.start.p0(i64 56, ptr nonnull %run_results.i) #33
  %call159.i = invoke noundef nonnull align 8 dereferenceable(50) ptr @_ZN9benchmark8internal15BenchmarkRunner10GetResultsEv(ptr noundef nonnull align 8 dereferenceable(248) %arrayidx.i365.i)
          to label %invoke.cont158.i unwind label %lpad157.i

invoke.cont158.i:                                 ; preds = %if.end156.i
  call void @llvm.memset.p0.i64(ptr noundef nonnull align 16 dereferenceable(24) %run_results.i, i8 0, i64 24, i1 false)
  %144 = load <2 x ptr>, ptr %call159.i, align 8, !tbaa !30
  store <2 x ptr> %144, ptr %run_results.i, align 16, !tbaa !30
  %__end_cap_.i19.i.i.i = getelementptr inbounds %"class.std::__1::vector.122", ptr %call159.i, i64 0, i32 2
  %145 = load ptr, ptr %__end_cap_.i19.i.i.i, align 8, !tbaa !30
  store ptr %145, ptr %__end_cap_.i.i368.i, align 16, !tbaa !30
  call void @llvm.memset.p0.i64(ptr noundef nonnull align 8 dereferenceable(24) %call159.i, i8 0, i64 24, i1 false)
  %aggregates_only3.i.i = getelementptr inbounds %"struct.benchmark::internal::RunResults", ptr %call159.i, i64 0, i32 1
  call void @llvm.memset.p0.i64(ptr noundef nonnull align 8 dereferenceable(24) %aggregates_only.i.i, i8 0, i64 24, i1 false)
  %146 = load <2 x ptr>, ptr %aggregates_only3.i.i, align 8, !tbaa !30
  store <2 x ptr> %146, ptr %aggregates_only.i.i, align 8, !tbaa !30
  %__end_cap_.i19.i10.i.i = getelementptr inbounds %"struct.benchmark::internal::RunResults", ptr %call159.i, i64 0, i32 1, i32 2
  %147 = load ptr, ptr %__end_cap_.i19.i10.i.i, align 8, !tbaa !30
  store ptr %147, ptr %__end_cap_.i8.i.i, align 8, !tbaa !30
  call void @llvm.memset.p0.i64(ptr noundef nonnull align 8 dereferenceable(24) %aggregates_only3.i.i, i8 0, i64 24, i1 false)
  %display_report_aggregates_only4.i.i = getelementptr inbounds %"struct.benchmark::internal::RunResults", ptr %call159.i, i64 0, i32 2
  %148 = load i16, ptr %display_report_aggregates_only4.i.i, align 8
  store i16 %148, ptr %display_report_aggregates_only.i.i, align 16
  %reports_for_family.i.i = getelementptr inbounds %"class.benchmark::internal::BenchmarkRunner", ptr %140, i64 %139, i32 2
  %149 = load ptr, ptr %reports_for_family.i.i, align 8, !tbaa !211
  %tobool164.not.i = icmp eq ptr %149, null
  %150 = trunc i16 %148 to i8
  br i1 %tobool164.not.i, label %if.end202.i, label %if.then165.i

if.then165.i:                                     ; preds = %invoke.cont158.i
  %num_runs_done.i = getelementptr inbounds %"struct.benchmark::BenchmarkReporter::PerFamilyRunReports", ptr %149, i64 0, i32 1
  %151 = load i32, ptr %num_runs_done.i, align 4, !tbaa !212
  %152 = load i32, ptr %149, align 8, !tbaa !184
  %cmp167.i = icmp eq i32 %151, %152
  br i1 %cmp167.i, label %if.then168.i, label %if.end202.i

if.then168.i:                                     ; preds = %if.then165.i
  call void @llvm.lifetime.start.p0(i64 24, ptr nonnull %additional_run_stats.i) #33
  %Runs.i = getelementptr inbounds %"struct.benchmark::BenchmarkReporter::PerFamilyRunReports", ptr %149, i64 0, i32 2
  invoke void @_ZN9benchmark11ComputeBigOERKNSt3__16vectorINS_17BenchmarkReporter3RunENS0_9allocatorIS3_EEEE(ptr nonnull sret(%"class.std::__1::vector.122") align 8 %additional_run_stats.i, ptr noundef nonnull align 8 dereferenceable(24) %Runs.i)
          to label %invoke.cont170.i unwind label %lpad169.i

invoke.cont170.i:                                 ; preds = %if.then168.i
  %153 = load ptr, ptr %__end_.i7.i.i, align 16, !tbaa !213
  %154 = load ptr, ptr %additional_run_stats.i, align 8, !tbaa !214
  %155 = load ptr, ptr %__end_.i370.i, align 8, !tbaa !213
  %call187.i = invoke ptr @_ZNSt3__16vectorIN9benchmark17BenchmarkReporter3RunENS_9allocatorIS3_EEE6insertINS_11__wrap_iterIPS3_EELi0EEESA_NS8_IPKS3_EET_SE_(ptr noundef nonnull align 8 dereferenceable(24) %aggregates_only.i.i, ptr %153, ptr %154, ptr %155)
          to label %invoke.cont186.i unwind label %lpad185.i

invoke.cont186.i:                                 ; preds = %invoke.cont170.i
  call void @llvm.lifetime.start.p0(i64 4, ptr nonnull %ref.tmp191.i) #33
  %156 = load ptr, ptr %Runs.i, align 8, !tbaa !214
  %family_index.i = getelementptr inbounds %"struct.benchmark::BenchmarkReporter::Run", ptr %156, i64 0, i32 1
  %157 = load i64, ptr %family_index.i, align 8, !tbaa !215
  %conv194.i = trunc i64 %157 to i32
  store i32 %conv194.i, ptr %ref.tmp191.i, align 4, !tbaa !62
  %call.i371.i = invoke noundef i64 @_ZNSt3__16__treeINS_12__value_typeIiN9benchmark17BenchmarkReporter19PerFamilyRunReportsEEENS_19__map_value_compareIiS5_NS_4lessIiEELb1EEENS_9allocatorIS5_EEE14__erase_uniqueIiEEmRKT_(ptr noundef nonnull align 8 dereferenceable(24) %per_family_reports.i, ptr noundef nonnull align 4 dereferenceable(4) %ref.tmp191.i)
          to label %invoke.cont196.i unwind label %lpad195.i

invoke.cont196.i:                                 ; preds = %invoke.cont186.i
  call void @llvm.lifetime.end.p0(i64 4, ptr nonnull %ref.tmp191.i) #33
  %158 = load ptr, ptr %additional_run_stats.i, align 8, !tbaa !214
  %cmp.not.i.i372.i = icmp eq ptr %158, null
  br i1 %cmp.not.i.i372.i, label %_ZNSt3__16vectorIN9benchmark17BenchmarkReporter3RunENS_9allocatorIS3_EEED2B7v170000Ev.exit.i, label %if.then.i.i373.i

if.then.i.i373.i:                                 ; preds = %invoke.cont196.i
  %159 = load ptr, ptr %__end_.i370.i, align 8, !tbaa !213
  %cmp.not6.i.i = icmp eq ptr %159, %158
  br i1 %cmp.not6.i.i, label %_ZNSt3__16vectorIN9benchmark17BenchmarkReporter3RunENS_9allocatorIS3_EEE22__base_destruct_at_endB7v170000EPS3_.exit.i, label %while.body.i.i

while.body.i.i:                                   ; preds = %if.then.i.i373.i, %_ZNSt3__116allocator_traitsINS_9allocatorIN9benchmark17BenchmarkReporter3RunEEEE7destroyB7v170000IS4_vEEvRS5_PT_.exit.i.i
  %__soon_to_be_end.07.i.i = phi ptr [ %incdec.ptr.i427.i, %_ZNSt3__116allocator_traitsINS_9allocatorIN9benchmark17BenchmarkReporter3RunEEEE7destroyB7v170000IS4_vEEvRS5_PT_.exit.i.i ], [ %159, %if.then.i.i373.i ]
  %incdec.ptr.i427.i = getelementptr inbounds %"struct.benchmark::BenchmarkReporter::Run", ptr %__soon_to_be_end.07.i.i, i64 -1
  %counters.i.i.i.i.i = getelementptr %"struct.benchmark::BenchmarkReporter::Run", ptr %__soon_to_be_end.07.i.i, i64 -1, i32 23
  %__pair1_.i.i.i.i.i.i.i.i.i = getelementptr %"struct.benchmark::BenchmarkReporter::Run", ptr %__soon_to_be_end.07.i.i, i64 -1, i32 23, i32 0, i32 1
  %160 = load ptr, ptr %__pair1_.i.i.i.i.i.i.i.i.i, align 8, !tbaa !6
  call void @_ZNSt3__16__treeINS_12__value_typeINS_12basic_stringIcNS_11char_traitsIcEENS_9allocatorIcEEEEN9benchmark7CounterEEENS_19__map_value_compareIS7_SA_NS_4lessIS7_EELb1EEENS5_ISA_EEE7destroyEPNS_11__tree_nodeISA_PvEE(ptr noundef nonnull align 8 dereferenceable(24) %counters.i.i.i.i.i, ptr noundef %160) #33
  %error_message.i.i.i.i.i = getelementptr %"struct.benchmark::BenchmarkReporter::Run", ptr %__soon_to_be_end.07.i.i, i64 -1, i32 8
  %bf.load.i.i.i.i.i.i.i = load i8, ptr %error_message.i.i.i.i.i, align 8
  %bf.clear.i.i.i.i.i.i.i = and i8 %bf.load.i.i.i.i.i.i.i, 1
  %tobool.i.not.i.i.i.i.i.i = icmp eq i8 %bf.clear.i.i.i.i.i.i.i, 0
  br i1 %tobool.i.not.i.i.i.i.i.i, label %_ZNSt3__112basic_stringIcNS_11char_traitsIcEENS_9allocatorIcEEED2Ev.exit.i.i.i.i.i, label %if.then.i.i.i.i.i.i

if.then.i.i.i.i.i.i:                              ; preds = %while.body.i.i
  %__data_.i.i.i.i.i.i.i = getelementptr %"struct.benchmark::BenchmarkReporter::Run", ptr %__soon_to_be_end.07.i.i, i64 -1, i32 8, i32 0, i32 0, i32 0, i32 0, i32 0, i32 2
  %161 = load ptr, ptr %__data_.i.i.i.i.i.i.i, align 8, !tbaa !80
  call void @_ZdlPv(ptr noundef %161) #36
  br label %_ZNSt3__112basic_stringIcNS_11char_traitsIcEENS_9allocatorIcEEED2Ev.exit.i.i.i.i.i

_ZNSt3__112basic_stringIcNS_11char_traitsIcEENS_9allocatorIcEEED2Ev.exit.i.i.i.i.i: ; preds = %if.then.i.i.i.i.i.i, %while.body.i.i
  %report_label.i.i.i.i.i = getelementptr %"struct.benchmark::BenchmarkReporter::Run", ptr %__soon_to_be_end.07.i.i, i64 -1, i32 6
  %bf.load.i.i2.i.i.i.i.i = load i8, ptr %report_label.i.i.i.i.i, align 8
  %bf.clear.i.i3.i.i.i.i.i = and i8 %bf.load.i.i2.i.i.i.i.i, 1
  %tobool.i.not.i4.i.i.i.i.i = icmp eq i8 %bf.clear.i.i3.i.i.i.i.i, 0
  br i1 %tobool.i.not.i4.i.i.i.i.i, label %_ZNSt3__112basic_stringIcNS_11char_traitsIcEENS_9allocatorIcEEED2Ev.exit7.i.i.i.i.i, label %if.then.i6.i.i.i.i.i

if.then.i6.i.i.i.i.i:                             ; preds = %_ZNSt3__112basic_stringIcNS_11char_traitsIcEENS_9allocatorIcEEED2Ev.exit.i.i.i.i.i
  %__data_.i.i5.i.i.i.i.i = getelementptr %"struct.benchmark::BenchmarkReporter::Run", ptr %__soon_to_be_end.07.i.i, i64 -1, i32 6, i32 0, i32 0, i32 0, i32 0, i32 0, i32 2
  %162 = load ptr, ptr %__data_.i.i5.i.i.i.i.i, align 8, !tbaa !80
  call void @_ZdlPv(ptr noundef %162) #36
  br label %_ZNSt3__112basic_stringIcNS_11char_traitsIcEENS_9allocatorIcEEED2Ev.exit7.i.i.i.i.i

_ZNSt3__112basic_stringIcNS_11char_traitsIcEENS_9allocatorIcEEED2Ev.exit7.i.i.i.i.i: ; preds = %if.then.i6.i.i.i.i.i, %_ZNSt3__112basic_stringIcNS_11char_traitsIcEENS_9allocatorIcEEED2Ev.exit.i.i.i.i.i
  %aggregate_name.i.i.i.i.i = getelementptr %"struct.benchmark::BenchmarkReporter::Run", ptr %__soon_to_be_end.07.i.i, i64 -1, i32 4
  %bf.load.i.i8.i.i.i.i.i = load i8, ptr %aggregate_name.i.i.i.i.i, align 8
  %bf.clear.i.i9.i.i.i.i.i = and i8 %bf.load.i.i8.i.i.i.i.i, 1
  %tobool.i.not.i10.i.i.i.i.i = icmp eq i8 %bf.clear.i.i9.i.i.i.i.i, 0
  br i1 %tobool.i.not.i10.i.i.i.i.i, label %_ZNSt3__116allocator_traitsINS_9allocatorIN9benchmark17BenchmarkReporter3RunEEEE7destroyB7v170000IS4_vEEvRS5_PT_.exit.i.i, label %if.then.i12.i.i.i.i.i

if.then.i12.i.i.i.i.i:                            ; preds = %_ZNSt3__112basic_stringIcNS_11char_traitsIcEENS_9allocatorIcEEED2Ev.exit7.i.i.i.i.i
  %__data_.i.i11.i.i.i.i.i = getelementptr %"struct.benchmark::BenchmarkReporter::Run", ptr %__soon_to_be_end.07.i.i, i64 -1, i32 4, i32 0, i32 0, i32 0, i32 0, i32 0, i32 2
  %163 = load ptr, ptr %__data_.i.i11.i.i.i.i.i, align 8, !tbaa !80
  call void @_ZdlPv(ptr noundef %163) #36
  br label %_ZNSt3__116allocator_traitsINS_9allocatorIN9benchmark17BenchmarkReporter3RunEEEE7destroyB7v170000IS4_vEEvRS5_PT_.exit.i.i

_ZNSt3__116allocator_traitsINS_9allocatorIN9benchmark17BenchmarkReporter3RunEEEE7destroyB7v170000IS4_vEEvRS5_PT_.exit.i.i: ; preds = %if.then.i12.i.i.i.i.i, %_ZNSt3__112basic_stringIcNS_11char_traitsIcEENS_9allocatorIcEEED2Ev.exit7.i.i.i.i.i
  call void @_ZN9benchmark13BenchmarkNameD2Ev(ptr noundef nonnull align 8 dereferenceable(168) %incdec.ptr.i427.i) #33
  %cmp.not.i.i = icmp eq ptr %incdec.ptr.i427.i, %158
  br i1 %cmp.not.i.i, label %_ZNSt3__16vectorIN9benchmark17BenchmarkReporter3RunENS_9allocatorIS3_EEE22__base_destruct_at_endB7v170000EPS3_.exit.loopexit.i, label %while.body.i.i

_ZNSt3__16vectorIN9benchmark17BenchmarkReporter3RunENS_9allocatorIS3_EEE22__base_destruct_at_endB7v170000EPS3_.exit.loopexit.i: ; preds = %_ZNSt3__116allocator_traitsINS_9allocatorIN9benchmark17BenchmarkReporter3RunEEEE7destroyB7v170000IS4_vEEvRS5_PT_.exit.i.i
  %.pre601.i = load ptr, ptr %additional_run_stats.i, align 8, !tbaa !214
  br label %_ZNSt3__16vectorIN9benchmark17BenchmarkReporter3RunENS_9allocatorIS3_EEE22__base_destruct_at_endB7v170000EPS3_.exit.i

_ZNSt3__16vectorIN9benchmark17BenchmarkReporter3RunENS_9allocatorIS3_EEE22__base_destruct_at_endB7v170000EPS3_.exit.i: ; preds = %_ZNSt3__16vectorIN9benchmark17BenchmarkReporter3RunENS_9allocatorIS3_EEE22__base_destruct_at_endB7v170000EPS3_.exit.loopexit.i, %if.then.i.i373.i
  %164 = phi ptr [ %.pre601.i, %_ZNSt3__16vectorIN9benchmark17BenchmarkReporter3RunENS_9allocatorIS3_EEE22__base_destruct_at_endB7v170000EPS3_.exit.loopexit.i ], [ %158, %if.then.i.i373.i ]
  store ptr %158, ptr %__end_.i370.i, align 8, !tbaa !213
  call void @_ZdlPv(ptr noundef %164) #36
  br label %_ZNSt3__16vectorIN9benchmark17BenchmarkReporter3RunENS_9allocatorIS3_EEED2B7v170000Ev.exit.i

_ZNSt3__16vectorIN9benchmark17BenchmarkReporter3RunENS_9allocatorIS3_EEED2B7v170000Ev.exit.i: ; preds = %_ZNSt3__16vectorIN9benchmark17BenchmarkReporter3RunENS_9allocatorIS3_EEE22__base_destruct_at_endB7v170000EPS3_.exit.i, %invoke.cont196.i
  call void @llvm.lifetime.end.p0(i64 24, ptr nonnull %additional_run_stats.i) #33
  %.pre602.i = load i8, ptr %display_report_aggregates_only.i.i, align 16, !tbaa !219, !range !51
  br label %if.end202.i

lpad157.i:                                        ; preds = %if.end156.i
  %165 = landingpad { ptr, i32 }
          cleanup
  br label %ehcleanup207.i

lpad169.i:                                        ; preds = %if.then168.i
  %166 = landingpad { ptr, i32 }
          cleanup
  br label %ehcleanup200.i

lpad185.i:                                        ; preds = %invoke.cont170.i
  %167 = landingpad { ptr, i32 }
          cleanup
  br label %ehcleanup199.i

lpad195.i:                                        ; preds = %invoke.cont186.i
  %168 = landingpad { ptr, i32 }
          cleanup
  call void @llvm.lifetime.end.p0(i64 4, ptr nonnull %ref.tmp191.i) #33
  br label %ehcleanup199.i

ehcleanup199.i:                                   ; preds = %lpad195.i, %lpad185.i
  %.pn.i233 = phi { ptr, i32 } [ %168, %lpad195.i ], [ %167, %lpad185.i ]
  call void @_ZNSt3__16vectorIN9benchmark17BenchmarkReporter3RunENS_9allocatorIS3_EEED2B7v170000Ev(ptr noundef nonnull align 8 dereferenceable(24) %additional_run_stats.i) #33
  br label %ehcleanup200.i

ehcleanup200.i:                                   ; preds = %ehcleanup199.i, %lpad169.i
  %.pn.pn.i = phi { ptr, i32 } [ %.pn.i233, %ehcleanup199.i ], [ %166, %lpad169.i ]
  call void @llvm.lifetime.end.p0(i64 24, ptr nonnull %additional_run_stats.i) #33
  br label %ehcleanup206.i

if.end202.i:                                      ; preds = %_ZNSt3__16vectorIN9benchmark17BenchmarkReporter3RunENS_9allocatorIS3_EEED2B7v170000Ev.exit.i, %if.then165.i, %invoke.cont158.i
  %169 = phi i8 [ %150, %if.then165.i ], [ %.pre602.i, %_ZNSt3__16vectorIN9benchmark17BenchmarkReporter3RunENS_9allocatorIS3_EEED2B7v170000Ev.exit.i ], [ %150, %invoke.cont158.i ]
  %tobool.i.i = icmp ne i8 %169, 0
  %170 = load ptr, ptr %aggregates_only.i.i, align 8, !tbaa !214
  %171 = load ptr, ptr %__end_.i7.i.i, align 16, !tbaa !213
  %cmp.i.i.i375.i = icmp ne ptr %170, %171
  %and19.i.i.i = and i1 %tobool.i.i, %cmp.i.i.i375.i
  br i1 %and19.i.i.i, label %if.end.i.i377.i, label %if.then.i.i376.i

if.then.i.i376.i:                                 ; preds = %if.end202.i
  %vtable.i.i.i234 = load ptr, ptr %display_reporter.addr.0, align 8, !tbaa !107
  %vfn.i.i.i235 = getelementptr inbounds ptr, ptr %vtable.i.i.i234, i64 1
  %172 = load ptr, ptr %vfn.i.i.i235, align 8
  invoke void %172(ptr noundef nonnull align 8 dereferenceable(24) %display_reporter.addr.0, ptr noundef nonnull align 8 dereferenceable(24) %run_results.i)
          to label %.noexc381.i unwind label %lpad204.i

.noexc381.i:                                      ; preds = %if.then.i.i376.i
  %.pre.i.i.i = load ptr, ptr %aggregates_only.i.i, align 8, !tbaa !214
  %.pre1.i.i.i = load ptr, ptr %__end_.i7.i.i, align 16, !tbaa !213
  br label %if.end.i.i377.i

if.end.i.i377.i:                                  ; preds = %.noexc381.i, %if.end202.i
  %173 = phi ptr [ %.pre1.i.i.i, %.noexc381.i ], [ %171, %if.end202.i ]
  %174 = phi ptr [ %.pre.i.i.i, %.noexc381.i ], [ %170, %if.end202.i ]
  %cmp.i21.i.i.i = icmp eq ptr %174, %173
  br i1 %cmp.i21.i.i.i, label %"_ZZN9benchmark8internal12_GLOBAL__N_16ReportEPNS_17BenchmarkReporterES3_RKNS0_10RunResultsEENK3$_0clES3_bS6_.exit.i.i", label %if.then9.i.i.i

if.then9.i.i.i:                                   ; preds = %if.end.i.i377.i
  %vtable11.i.i.i = load ptr, ptr %display_reporter.addr.0, align 8, !tbaa !107
  %vfn12.i.i.i = getelementptr inbounds ptr, ptr %vtable11.i.i.i, i64 1
  %175 = load ptr, ptr %vfn12.i.i.i, align 8
  invoke void %175(ptr noundef nonnull align 8 dereferenceable(24) %display_reporter.addr.0, ptr noundef nonnull align 8 dereferenceable(24) %aggregates_only.i.i)
          to label %"_ZZN9benchmark8internal12_GLOBAL__N_16ReportEPNS_17BenchmarkReporterES3_RKNS0_10RunResultsEENK3$_0clES3_bS6_.exit.i.i" unwind label %lpad204.i

"_ZZN9benchmark8internal12_GLOBAL__N_16ReportEPNS_17BenchmarkReporterES3_RKNS0_10RunResultsEENK3$_0clES3_bS6_.exit.i.i": ; preds = %if.then9.i.i.i, %if.end.i.i377.i
  br i1 %tobool38.not.i, label %if.end.sink.split.i.i, label %if.then.i379.i

if.then.i379.i:                                   ; preds = %"_ZZN9benchmark8internal12_GLOBAL__N_16ReportEPNS_17BenchmarkReporterES3_RKNS0_10RunResultsEENK3$_0clES3_bS6_.exit.i.i"
  %176 = load i8, ptr %file_report_aggregates_only.i.i, align 1, !tbaa !220, !range !51, !noundef !52
  %tobool2.i.i = icmp ne i8 %176, 0
  %177 = load ptr, ptr %aggregates_only.i.i, align 8, !tbaa !214
  %178 = load ptr, ptr %__end_.i7.i.i, align 16, !tbaa !213
  %cmp.i.i12.i.i = icmp ne ptr %177, %178
  %and19.i13.i.i = and i1 %tobool2.i.i, %cmp.i.i12.i.i
  br i1 %and19.i13.i.i, label %if.end.i20.i.i, label %if.then.i18.i.i

if.then.i18.i.i:                                  ; preds = %if.then.i379.i
  %vtable.i14.i.i = load ptr, ptr %file_reporter.addr.1, align 8, !tbaa !107
  %vfn.i15.i.i = getelementptr inbounds ptr, ptr %vtable.i14.i.i, i64 1
  %179 = load ptr, ptr %vfn.i15.i.i, align 8
  invoke void %179(ptr noundef nonnull align 8 dereferenceable(24) %file_reporter.addr.1, ptr noundef nonnull align 8 dereferenceable(24) %run_results.i)
          to label %.noexc383.i unwind label %lpad204.i

.noexc383.i:                                      ; preds = %if.then.i18.i.i
  %.pre.i16.i.i = load ptr, ptr %aggregates_only.i.i, align 8, !tbaa !214
  %.pre1.i17.i.i = load ptr, ptr %__end_.i7.i.i, align 16, !tbaa !213
  br label %if.end.i20.i.i

if.end.i20.i.i:                                   ; preds = %.noexc383.i, %if.then.i379.i
  %180 = phi ptr [ %.pre1.i17.i.i, %.noexc383.i ], [ %178, %if.then.i379.i ]
  %181 = phi ptr [ %.pre.i16.i.i, %.noexc383.i ], [ %177, %if.then.i379.i ]
  %cmp.i21.i19.i.i = icmp eq ptr %181, %180
  br i1 %cmp.i21.i19.i.i, label %if.end.i30.i.i, label %if.then9.i23.i.i

if.then9.i23.i.i:                                 ; preds = %if.end.i20.i.i
  %vtable11.i21.i.i = load ptr, ptr %file_reporter.addr.1, align 8, !tbaa !107
  %vfn12.i22.i.i = getelementptr inbounds ptr, ptr %vtable11.i21.i.i, i64 1
  %182 = load ptr, ptr %vfn12.i22.i.i, align 8
  invoke void %182(ptr noundef nonnull align 8 dereferenceable(24) %file_reporter.addr.1, ptr noundef nonnull align 8 dereferenceable(24) %aggregates_only.i.i)
          to label %if.end.i30.i.i unwind label %lpad204.i

if.end.i30.i.i:                                   ; preds = %if.then9.i23.i.i, %if.end.i20.i.i
  %183 = load ptr, ptr %output_stream_.i, align 8, !tbaa !129
  %call.i.i27.i385.i = invoke noundef nonnull align 8 dereferenceable(8) ptr @_ZNSt3__113basic_ostreamIcNS_11char_traitsIcEEE5flushEv(ptr noundef nonnull align 8 dereferenceable(8) %183)
          to label %call.i.i27.i.noexc.i unwind label %lpad204.i

call.i.i27.i.noexc.i:                             ; preds = %if.end.i30.i.i
  %184 = load ptr, ptr %error_stream_.i, align 8, !tbaa !130
  %call.i6.i29.i386.i = invoke noundef nonnull align 8 dereferenceable(8) ptr @_ZNSt3__113basic_ostreamIcNS_11char_traitsIcEEE5flushEv(ptr noundef nonnull align 8 dereferenceable(8) %184)
          to label %if.end.sink.split.i.i unwind label %lpad204.i

if.end.sink.split.i.i:                            ; preds = %call.i.i27.i.noexc.i, %"_ZZN9benchmark8internal12_GLOBAL__N_16ReportEPNS_17BenchmarkReporterES3_RKNS0_10RunResultsEENK3$_0clES3_bS6_.exit.i.i"
  %display_reporter.sink39.i.i = phi ptr [ %display_reporter.addr.0, %"_ZZN9benchmark8internal12_GLOBAL__N_16ReportEPNS_17BenchmarkReporterES3_RKNS0_10RunResultsEENK3$_0clES3_bS6_.exit.i.i" ], [ %file_reporter.addr.1, %call.i.i27.i.noexc.i ]
  %output_stream_.i.i.i.i = getelementptr inbounds %"class.benchmark::BenchmarkReporter", ptr %display_reporter.sink39.i.i, i64 0, i32 1
  %185 = load ptr, ptr %output_stream_.i.i.i.i, align 8, !tbaa !129
  %call.i.i.i387.i = invoke noundef nonnull align 8 dereferenceable(8) ptr @_ZNSt3__113basic_ostreamIcNS_11char_traitsIcEEE5flushEv(ptr noundef nonnull align 8 dereferenceable(8) %185)
          to label %call.i.i.i.noexc.i unwind label %lpad204.i

call.i.i.i.noexc.i:                               ; preds = %if.end.sink.split.i.i
  %error_stream_.i.i.i.i = getelementptr inbounds %"class.benchmark::BenchmarkReporter", ptr %display_reporter.sink39.i.i, i64 0, i32 2
  %186 = load ptr, ptr %error_stream_.i.i.i.i, align 8, !tbaa !130
  %call.i6.i.i388.i = invoke noundef nonnull align 8 dereferenceable(8) ptr @_ZNSt3__113basic_ostreamIcNS_11char_traitsIcEEE5flushEv(ptr noundef nonnull align 8 dereferenceable(8) %186)
          to label %invoke.cont205.i unwind label %lpad204.i

invoke.cont205.i:                                 ; preds = %call.i.i.i.noexc.i
  %187 = load ptr, ptr %aggregates_only.i.i, align 8, !tbaa !214
  %cmp.not.i.i.i390.i = icmp eq ptr %187, null
  br i1 %cmp.not.i.i.i390.i, label %_ZNSt3__16vectorIN9benchmark17BenchmarkReporter3RunENS_9allocatorIS3_EEED2B7v170000Ev.exit.i.i, label %if.then.i.i.i391.i

if.then.i.i.i391.i:                               ; preds = %invoke.cont205.i
  %188 = load ptr, ptr %__end_.i7.i.i, align 16, !tbaa !213
  %cmp.not6.i459.i = icmp eq ptr %188, %187
  br i1 %cmp.not6.i459.i, label %_ZNSt3__16vectorIN9benchmark17BenchmarkReporter3RunENS_9allocatorIS3_EEE22__base_destruct_at_endB7v170000EPS3_.exit487.i, label %while.body.i468.i

while.body.i468.i:                                ; preds = %if.then.i.i.i391.i, %_ZN9benchmark13BenchmarkNameD2Ev.exit541.i
  %__soon_to_be_end.07.i460.i = phi ptr [ %incdec.ptr.i461.i, %_ZN9benchmark13BenchmarkNameD2Ev.exit541.i ], [ %188, %if.then.i.i.i391.i ]
  %incdec.ptr.i461.i = getelementptr inbounds %"struct.benchmark::BenchmarkReporter::Run", ptr %__soon_to_be_end.07.i460.i, i64 -1
  %counters.i.i.i.i462.i = getelementptr %"struct.benchmark::BenchmarkReporter::Run", ptr %__soon_to_be_end.07.i460.i, i64 -1, i32 23
  %__pair1_.i.i.i.i.i.i.i.i463.i = getelementptr %"struct.benchmark::BenchmarkReporter::Run", ptr %__soon_to_be_end.07.i460.i, i64 -1, i32 23, i32 0, i32 1
  %189 = load ptr, ptr %__pair1_.i.i.i.i.i.i.i.i463.i, align 8, !tbaa !6
  call void @_ZNSt3__16__treeINS_12__value_typeINS_12basic_stringIcNS_11char_traitsIcEENS_9allocatorIcEEEEN9benchmark7CounterEEENS_19__map_value_compareIS7_SA_NS_4lessIS7_EELb1EEENS5_ISA_EEE7destroyEPNS_11__tree_nodeISA_PvEE(ptr noundef nonnull align 8 dereferenceable(24) %counters.i.i.i.i462.i, ptr noundef %189) #33
  %error_message.i.i.i.i464.i = getelementptr %"struct.benchmark::BenchmarkReporter::Run", ptr %__soon_to_be_end.07.i460.i, i64 -1, i32 8
  %bf.load.i.i.i.i.i.i465.i = load i8, ptr %error_message.i.i.i.i464.i, align 8
  %bf.clear.i.i.i.i.i.i466.i = and i8 %bf.load.i.i.i.i.i.i465.i, 1
  %tobool.i.not.i.i.i.i.i467.i = icmp eq i8 %bf.clear.i.i.i.i.i.i466.i, 0
  br i1 %tobool.i.not.i.i.i.i.i467.i, label %_ZNSt3__112basic_stringIcNS_11char_traitsIcEENS_9allocatorIcEEED2Ev.exit.i.i.i.i475.i, label %if.then.i.i.i.i.i470.i

if.then.i.i.i.i.i470.i:                           ; preds = %while.body.i468.i
  %__data_.i.i.i.i.i.i469.i = getelementptr %"struct.benchmark::BenchmarkReporter::Run", ptr %__soon_to_be_end.07.i460.i, i64 -1, i32 8, i32 0, i32 0, i32 0, i32 0, i32 0, i32 2
  %190 = load ptr, ptr %__data_.i.i.i.i.i.i469.i, align 8, !tbaa !80
  call void @_ZdlPv(ptr noundef %190) #36
  br label %_ZNSt3__112basic_stringIcNS_11char_traitsIcEENS_9allocatorIcEEED2Ev.exit.i.i.i.i475.i

_ZNSt3__112basic_stringIcNS_11char_traitsIcEENS_9allocatorIcEEED2Ev.exit.i.i.i.i475.i: ; preds = %if.then.i.i.i.i.i470.i, %while.body.i468.i
  %report_label.i.i.i.i471.i = getelementptr %"struct.benchmark::BenchmarkReporter::Run", ptr %__soon_to_be_end.07.i460.i, i64 -1, i32 6
  %bf.load.i.i2.i.i.i.i472.i = load i8, ptr %report_label.i.i.i.i471.i, align 8
  %bf.clear.i.i3.i.i.i.i473.i = and i8 %bf.load.i.i2.i.i.i.i472.i, 1
  %tobool.i.not.i4.i.i.i.i474.i = icmp eq i8 %bf.clear.i.i3.i.i.i.i473.i, 0
  br i1 %tobool.i.not.i4.i.i.i.i474.i, label %_ZNSt3__112basic_stringIcNS_11char_traitsIcEENS_9allocatorIcEEED2Ev.exit7.i.i.i.i482.i, label %if.then.i6.i.i.i.i477.i

if.then.i6.i.i.i.i477.i:                          ; preds = %_ZNSt3__112basic_stringIcNS_11char_traitsIcEENS_9allocatorIcEEED2Ev.exit.i.i.i.i475.i
  %__data_.i.i5.i.i.i.i476.i = getelementptr %"struct.benchmark::BenchmarkReporter::Run", ptr %__soon_to_be_end.07.i460.i, i64 -1, i32 6, i32 0, i32 0, i32 0, i32 0, i32 0, i32 2
  %191 = load ptr, ptr %__data_.i.i5.i.i.i.i476.i, align 8, !tbaa !80
  call void @_ZdlPv(ptr noundef %191) #36
  br label %_ZNSt3__112basic_stringIcNS_11char_traitsIcEENS_9allocatorIcEEED2Ev.exit7.i.i.i.i482.i

_ZNSt3__112basic_stringIcNS_11char_traitsIcEENS_9allocatorIcEEED2Ev.exit7.i.i.i.i482.i: ; preds = %if.then.i6.i.i.i.i477.i, %_ZNSt3__112basic_stringIcNS_11char_traitsIcEENS_9allocatorIcEEED2Ev.exit.i.i.i.i475.i
  %aggregate_name.i.i.i.i478.i = getelementptr %"struct.benchmark::BenchmarkReporter::Run", ptr %__soon_to_be_end.07.i460.i, i64 -1, i32 4
  %bf.load.i.i8.i.i.i.i479.i = load i8, ptr %aggregate_name.i.i.i.i478.i, align 8
  %bf.clear.i.i9.i.i.i.i480.i = and i8 %bf.load.i.i8.i.i.i.i479.i, 1
  %tobool.i.not.i10.i.i.i.i481.i = icmp eq i8 %bf.clear.i.i9.i.i.i.i480.i, 0
  br i1 %tobool.i.not.i10.i.i.i.i481.i, label %_ZNSt3__116allocator_traitsINS_9allocatorIN9benchmark17BenchmarkReporter3RunEEEE7destroyB7v170000IS4_vEEvRS5_PT_.exit.i486.i, label %if.then.i12.i.i.i.i484.i

if.then.i12.i.i.i.i484.i:                         ; preds = %_ZNSt3__112basic_stringIcNS_11char_traitsIcEENS_9allocatorIcEEED2Ev.exit7.i.i.i.i482.i
  %__data_.i.i11.i.i.i.i483.i = getelementptr %"struct.benchmark::BenchmarkReporter::Run", ptr %__soon_to_be_end.07.i460.i, i64 -1, i32 4, i32 0, i32 0, i32 0, i32 0, i32 0, i32 2
  %192 = load ptr, ptr %__data_.i.i11.i.i.i.i483.i, align 8, !tbaa !80
  call void @_ZdlPv(ptr noundef %192) #36
  br label %_ZNSt3__116allocator_traitsINS_9allocatorIN9benchmark17BenchmarkReporter3RunEEEE7destroyB7v170000IS4_vEEvRS5_PT_.exit.i486.i

_ZNSt3__116allocator_traitsINS_9allocatorIN9benchmark17BenchmarkReporter3RunEEEE7destroyB7v170000IS4_vEEvRS5_PT_.exit.i486.i: ; preds = %if.then.i12.i.i.i.i484.i, %_ZNSt3__112basic_stringIcNS_11char_traitsIcEENS_9allocatorIcEEED2Ev.exit7.i.i.i.i482.i
  %threads.i494.i = getelementptr %"struct.benchmark::BenchmarkReporter::Run", ptr %__soon_to_be_end.07.i460.i, i64 -1, i32 0, i32 6
  %bf.load.i.i.i495.i = load i8, ptr %threads.i494.i, align 8
  %bf.clear.i.i.i496.i = and i8 %bf.load.i.i.i495.i, 1
  %tobool.i.not.i.i497.i = icmp eq i8 %bf.clear.i.i.i496.i, 0
  br i1 %tobool.i.not.i.i497.i, label %_ZNSt3__112basic_stringIcNS_11char_traitsIcEENS_9allocatorIcEEED2Ev.exit.i504.i, label %if.then.i.i499.i

if.then.i.i499.i:                                 ; preds = %_ZNSt3__116allocator_traitsINS_9allocatorIN9benchmark17BenchmarkReporter3RunEEEE7destroyB7v170000IS4_vEEvRS5_PT_.exit.i486.i
  %__data_.i.i.i498.i = getelementptr %"struct.benchmark::BenchmarkReporter::Run", ptr %__soon_to_be_end.07.i460.i, i64 -1, i32 0, i32 6, i32 0, i32 0, i32 0, i32 0, i32 0, i32 2
  %193 = load ptr, ptr %__data_.i.i.i498.i, align 8, !tbaa !80
  call void @_ZdlPv(ptr noundef %193) #36
  br label %_ZNSt3__112basic_stringIcNS_11char_traitsIcEENS_9allocatorIcEEED2Ev.exit.i504.i

_ZNSt3__112basic_stringIcNS_11char_traitsIcEENS_9allocatorIcEEED2Ev.exit.i504.i: ; preds = %if.then.i.i499.i, %_ZNSt3__116allocator_traitsINS_9allocatorIN9benchmark17BenchmarkReporter3RunEEEE7destroyB7v170000IS4_vEEvRS5_PT_.exit.i486.i
  %time_type.i500.i = getelementptr %"struct.benchmark::BenchmarkReporter::Run", ptr %__soon_to_be_end.07.i460.i, i64 -1, i32 0, i32 5
  %bf.load.i.i2.i501.i = load i8, ptr %time_type.i500.i, align 8
  %bf.clear.i.i3.i502.i = and i8 %bf.load.i.i2.i501.i, 1
  %tobool.i.not.i4.i503.i = icmp eq i8 %bf.clear.i.i3.i502.i, 0
  br i1 %tobool.i.not.i4.i503.i, label %_ZNSt3__112basic_stringIcNS_11char_traitsIcEENS_9allocatorIcEEED2Ev.exit7.i511.i, label %if.then.i6.i506.i

if.then.i6.i506.i:                                ; preds = %_ZNSt3__112basic_stringIcNS_11char_traitsIcEENS_9allocatorIcEEED2Ev.exit.i504.i
  %__data_.i.i5.i505.i = getelementptr %"struct.benchmark::BenchmarkReporter::Run", ptr %__soon_to_be_end.07.i460.i, i64 -1, i32 0, i32 5, i32 0, i32 0, i32 0, i32 0, i32 0, i32 2
  %194 = load ptr, ptr %__data_.i.i5.i505.i, align 8, !tbaa !80
  call void @_ZdlPv(ptr noundef %194) #36
  br label %_ZNSt3__112basic_stringIcNS_11char_traitsIcEENS_9allocatorIcEEED2Ev.exit7.i511.i

_ZNSt3__112basic_stringIcNS_11char_traitsIcEENS_9allocatorIcEEED2Ev.exit7.i511.i: ; preds = %if.then.i6.i506.i, %_ZNSt3__112basic_stringIcNS_11char_traitsIcEENS_9allocatorIcEEED2Ev.exit.i504.i
  %repetitions.i507.i = getelementptr %"struct.benchmark::BenchmarkReporter::Run", ptr %__soon_to_be_end.07.i460.i, i64 -1, i32 0, i32 4
  %bf.load.i.i8.i508.i = load i8, ptr %repetitions.i507.i, align 8
  %bf.clear.i.i9.i509.i = and i8 %bf.load.i.i8.i508.i, 1
  %tobool.i.not.i10.i510.i = icmp eq i8 %bf.clear.i.i9.i509.i, 0
  br i1 %tobool.i.not.i10.i510.i, label %_ZNSt3__112basic_stringIcNS_11char_traitsIcEENS_9allocatorIcEEED2Ev.exit13.i518.i, label %if.then.i12.i513.i

if.then.i12.i513.i:                               ; preds = %_ZNSt3__112basic_stringIcNS_11char_traitsIcEENS_9allocatorIcEEED2Ev.exit7.i511.i
  %__data_.i.i11.i512.i = getelementptr %"struct.benchmark::BenchmarkReporter::Run", ptr %__soon_to_be_end.07.i460.i, i64 -1, i32 0, i32 4, i32 0, i32 0, i32 0, i32 0, i32 0, i32 2
  %195 = load ptr, ptr %__data_.i.i11.i512.i, align 8, !tbaa !80
  call void @_ZdlPv(ptr noundef %195) #36
  br label %_ZNSt3__112basic_stringIcNS_11char_traitsIcEENS_9allocatorIcEEED2Ev.exit13.i518.i

_ZNSt3__112basic_stringIcNS_11char_traitsIcEENS_9allocatorIcEEED2Ev.exit13.i518.i: ; preds = %if.then.i12.i513.i, %_ZNSt3__112basic_stringIcNS_11char_traitsIcEENS_9allocatorIcEEED2Ev.exit7.i511.i
  %iterations.i514.i = getelementptr %"struct.benchmark::BenchmarkReporter::Run", ptr %__soon_to_be_end.07.i460.i, i64 -1, i32 0, i32 3
  %bf.load.i.i14.i515.i = load i8, ptr %iterations.i514.i, align 8
  %bf.clear.i.i15.i516.i = and i8 %bf.load.i.i14.i515.i, 1
  %tobool.i.not.i16.i517.i = icmp eq i8 %bf.clear.i.i15.i516.i, 0
  br i1 %tobool.i.not.i16.i517.i, label %_ZNSt3__112basic_stringIcNS_11char_traitsIcEENS_9allocatorIcEEED2Ev.exit19.i525.i, label %if.then.i18.i520.i

if.then.i18.i520.i:                               ; preds = %_ZNSt3__112basic_stringIcNS_11char_traitsIcEENS_9allocatorIcEEED2Ev.exit13.i518.i
  %__data_.i.i17.i519.i = getelementptr %"struct.benchmark::BenchmarkReporter::Run", ptr %__soon_to_be_end.07.i460.i, i64 -1, i32 0, i32 3, i32 0, i32 0, i32 0, i32 0, i32 0, i32 2
  %196 = load ptr, ptr %__data_.i.i17.i519.i, align 8, !tbaa !80
  call void @_ZdlPv(ptr noundef %196) #36
  br label %_ZNSt3__112basic_stringIcNS_11char_traitsIcEENS_9allocatorIcEEED2Ev.exit19.i525.i

_ZNSt3__112basic_stringIcNS_11char_traitsIcEENS_9allocatorIcEEED2Ev.exit19.i525.i: ; preds = %if.then.i18.i520.i, %_ZNSt3__112basic_stringIcNS_11char_traitsIcEENS_9allocatorIcEEED2Ev.exit13.i518.i
  %min_time.i521.i = getelementptr %"struct.benchmark::BenchmarkReporter::Run", ptr %__soon_to_be_end.07.i460.i, i64 -1, i32 0, i32 2
  %bf.load.i.i20.i522.i = load i8, ptr %min_time.i521.i, align 8
  %bf.clear.i.i21.i523.i = and i8 %bf.load.i.i20.i522.i, 1
  %tobool.i.not.i22.i524.i = icmp eq i8 %bf.clear.i.i21.i523.i, 0
  br i1 %tobool.i.not.i22.i524.i, label %_ZNSt3__112basic_stringIcNS_11char_traitsIcEENS_9allocatorIcEEED2Ev.exit25.i532.i, label %if.then.i24.i527.i

