; ModuleID = '/local/mnt2/workspace2/mnadeem/llvm/llvm-test-suite/MicroBenchmarks/libs/benchmark/src/benchmark_register.cc'
source_filename = "/local/mnt2/workspace2/mnadeem/llvm/llvm-test-suite/MicroBenchmarks/libs/benchmark/src/benchmark_register.cc"
target datalayout = "e-m:e-p270:32:32-p271:32:32-p272:64:64-i64:64-f80:128-n8:16:32:64-S128"
target triple = "x86_64-unknown-linux-gnu"

%"class.benchmark::internal::BenchmarkFamilies" = type { %"class.std::__1::vector", %"class.benchmark::Mutex" }
%"class.std::__1::vector" = type { ptr, ptr, %"class.std::__1::__compressed_pair.56" }
%"class.std::__1::__compressed_pair.56" = type { %"struct.std::__1::__compressed_pair_elem.57" }
%"struct.std::__1::__compressed_pair_elem.57" = type { ptr }
%"class.benchmark::Mutex" = type { %"class.std::__1::mutex" }
%"class.std::__1::mutex" = type { %union.pthread_mutex_t }
%union.pthread_mutex_t = type { %"struct.(anonymous union)::__pthread_mutex_s" }
%"struct.(anonymous union)::__pthread_mutex_s" = type { i32, i32, i32, i32, i32, i16, i16, %struct.__pthread_internal_list }
%struct.__pthread_internal_list = type { ptr, ptr }
%"class.benchmark::internal::LogType" = type { ptr }
%"class.std::__1::locale::id" = type <{ %"struct.std::__1::once_flag", i32, [4 x i8] }>
%"struct.std::__1::once_flag" = type { i64 }
%"class.std::__1::unique_ptr" = type { %"class.std::__1::__compressed_pair" }
%"class.std::__1::__compressed_pair" = type { %"struct.std::__1::__compressed_pair_elem" }
%"struct.std::__1::__compressed_pair_elem" = type { ptr }
%"class.std::__1::locale" = type { ptr }
%"class.std::__1::match_results" = type { %"class.std::__1::vector.103", %"class.std::__1::sub_match", %"class.std::__1::sub_match", %"class.std::__1::sub_match", i8, ptr }
%"class.std::__1::vector.103" = type { ptr, ptr, %"class.std::__1::__compressed_pair.105" }
%"class.std::__1::__compressed_pair.105" = type { %"struct.std::__1::__compressed_pair_elem.106" }
%"struct.std::__1::__compressed_pair_elem.106" = type { ptr }
%"class.std::__1::sub_match" = type <{ %"struct.std::__1::pair.104", i8, [7 x i8] }>
%"struct.std::__1::pair.104" = type { ptr, ptr }
%"class.std::__1::basic_string" = type { %"class.std::__1::__compressed_pair.0" }
%"class.std::__1::__compressed_pair.0" = type { %"struct.std::__1::__compressed_pair_elem.1" }
%"struct.std::__1::__compressed_pair_elem.1" = type { %"struct.std::__1::basic_string<char>::__rep" }
%"struct.std::__1::basic_string<char>::__rep" = type { %union.anon }
%union.anon = type { %"struct.std::__1::basic_string<char>::__long" }
%"struct.std::__1::basic_string<char>::__long" = type { %struct.anon, i64, ptr }
%struct.anon = type { i64 }
%"class.benchmark::Regex" = type { i8, %"class.std::__1::basic_regex" }
%"class.std::__1::basic_regex" = type { %"struct.std::__1::regex_traits", i32, i32, i32, i32, %"class.std::__1::shared_ptr", ptr }
%"struct.std::__1::regex_traits" = type { %"class.std::__1::locale", ptr, ptr }
%"class.std::__1::shared_ptr" = type { ptr, ptr }
%"class.std::__1::vector.12" = type { ptr, ptr, %"class.std::__1::__compressed_pair.13" }
%"class.std::__1::__compressed_pair.13" = type { %"struct.std::__1::__compressed_pair_elem.14" }
%"struct.std::__1::__compressed_pair_elem.14" = type { ptr }
%"class.benchmark::internal::BenchmarkInstance" = type { %"struct.benchmark::BenchmarkName", ptr, i32, i32, i32, ptr, i32, i8, i8, i8, i32, ptr, %"class.std::__1::map", ptr, i32, double, i64, i32, ptr, ptr }
%"struct.benchmark::BenchmarkName" = type { %"class.std::__1::basic_string", %"class.std::__1::basic_string", %"class.std::__1::basic_string", %"class.std::__1::basic_string", %"class.std::__1::basic_string", %"class.std::__1::basic_string", %"class.std::__1::basic_string" }
%"class.std::__1::map" = type { %"class.std::__1::__tree" }
%"class.std::__1::__tree" = type { ptr, %"class.std::__1::__compressed_pair.46", %"class.std::__1::__compressed_pair.52" }
%"class.std::__1::__compressed_pair.46" = type { %"struct.std::__1::__compressed_pair_elem.47" }
%"struct.std::__1::__compressed_pair_elem.47" = type { %"class.std::__1::__tree_end_node" }
%"class.std::__1::__tree_end_node" = type { ptr }
%"class.std::__1::__compressed_pair.52" = type { %"struct.std::__1::__compressed_pair_elem.53" }
%"struct.std::__1::__compressed_pair_elem.53" = type { i64 }
%"struct.std::__1::basic_string<char>::__short" = type { %struct.anon.2, [0 x i8], [23 x i8] }
%struct.anon.2 = type { i8 }
%"class.std::__1::vector.62" = type { ptr, ptr, %"class.std::__1::__compressed_pair.63" }
%"class.std::__1::__compressed_pair.63" = type { %"struct.std::__1::__compressed_pair_elem.64" }
%"struct.std::__1::__compressed_pair_elem.64" = type { ptr }
%"class.benchmark::internal::Benchmark" = type { ptr, %"class.std::__1::basic_string", i32, %"class.std::__1::vector.4", %"class.std::__1::vector.11", i32, i8, i32, double, i64, i32, i8, i8, i8, i32, ptr, %"class.std::__1::vector.25", %"class.std::__1::vector.39", ptr, ptr }
%"class.std::__1::vector.4" = type { ptr, ptr, %"class.std::__1::__compressed_pair.5" }
%"class.std::__1::__compressed_pair.5" = type { %"struct.std::__1::__compressed_pair_elem.6" }
%"struct.std::__1::__compressed_pair_elem.6" = type { ptr }
%"class.std::__1::vector.11" = type { ptr, ptr, %"class.std::__1::__compressed_pair.19" }
%"class.std::__1::__compressed_pair.19" = type { %"struct.std::__1::__compressed_pair_elem.20" }
%"struct.std::__1::__compressed_pair_elem.20" = type { ptr }
%"class.std::__1::vector.25" = type { ptr, ptr, %"class.std::__1::__compressed_pair.33" }
%"class.std::__1::__compressed_pair.33" = type { %"struct.std::__1::__compressed_pair_elem.34" }
%"struct.std::__1::__compressed_pair_elem.34" = type { ptr }
%"class.std::__1::vector.39" = type { ptr, ptr, %"class.std::__1::__compressed_pair.40" }
%"class.std::__1::__compressed_pair.40" = type { %"struct.std::__1::__compressed_pair_elem.41" }
%"struct.std::__1::__compressed_pair_elem.41" = type { ptr }
%"class.std::__1::__tree_node_base" = type <{ %"class.std::__1::__tree_end_node", ptr, ptr, i8, [7 x i8] }>
%"class.std::__1::__shared_count" = type { ptr, i64 }
%"struct.benchmark::internal::Statistics" = type <{ %"class.std::__1::basic_string", ptr, i32, [4 x i8] }>
%"struct.std::__1::__exception_guard_exceptions.313" = type <{ %"class.std::__1::vector<std::__1::vector<long>>::__destroy_vector", i8, [7 x i8] }>
%"class.std::__1::vector<std::__1::vector<long>>::__destroy_vector" = type { ptr }
%"class.std::__1::vector.73" = type { ptr, ptr, %"class.std::__1::__compressed_pair.74" }
%"class.std::__1::__compressed_pair.74" = type { %"struct.std::__1::__compressed_pair_elem.75" }
%"struct.std::__1::__compressed_pair_elem.75" = type { ptr }
%"struct.std::__1::pair" = type { i64, i64 }
%"class.std::__1::vector.80" = type { ptr, ptr, %"class.std::__1::__compressed_pair.81" }
%"class.std::__1::__compressed_pair.81" = type { %"struct.std::__1::__compressed_pair_elem.82" }
%"struct.std::__1::__compressed_pair_elem.82" = type { ptr }
%"class.benchmark::internal::FunctionBenchmark" = type { %"class.benchmark::internal::Benchmark", ptr }
%"class.std::__1::__has_one_state" = type { %"class.std::__1::__node", ptr }
%"class.std::__1::__node" = type { ptr }
%"class.std::__1::__shared_ptr_pointer" = type { %"class.std::__1::__shared_weak_count", %"class.std::__1::__compressed_pair.125" }
%"class.std::__1::__shared_weak_count" = type { %"class.std::__1::__shared_count", i64 }
%"class.std::__1::__compressed_pair.125" = type { %"struct.std::__1::__compressed_pair_elem.126" }
%"struct.std::__1::__compressed_pair_elem.126" = type { %"class.std::__1::__compressed_pair.127" }
%"class.std::__1::__compressed_pair.127" = type { %"struct.std::__1::__compressed_pair_elem.121" }
%"struct.std::__1::__compressed_pair_elem.121" = type { ptr }
%"class.std::__1::__owns_two_states" = type { %"class.std::__1::__owns_one_state", ptr }
%"class.std::__1::__owns_one_state" = type { %"class.std::__1::__has_one_state" }
%"class.std::__1::__l_anchor_multiline" = type <{ %"class.std::__1::__owns_one_state", i8, [7 x i8] }>
%"class.std::__1::__r_anchor_multiline" = type <{ %"class.std::__1::__owns_one_state", i8, [7 x i8] }>
%"class.std::type_info" = type { ptr, ptr }
%"struct.std::__1::__state" = type <{ i32, [4 x i8], ptr, ptr, ptr, %"class.std::__1::vector.103", %"class.std::__1::vector.111", ptr, i32, i8, [3 x i8] }>
%"class.std::__1::vector.111" = type { ptr, ptr, %"class.std::__1::__compressed_pair.113" }
%"class.std::__1::__compressed_pair.113" = type { %"struct.std::__1::__compressed_pair_elem.114" }
%"struct.std::__1::__compressed_pair_elem.114" = type { ptr }
%"class.std::__1::__word_boundary" = type <{ %"class.std::__1::__owns_one_state", %"struct.std::__1::regex_traits", i8, [7 x i8] }>
%"class.std::__1::__begin_marked_subexpression" = type <{ %"class.std::__1::__owns_one_state", i32, [4 x i8] }>
%"class.std::__1::__end_marked_subexpression" = type <{ %"class.std::__1::__owns_one_state", i32, [4 x i8] }>
%"class.std::__1::__lookahead" = type <{ %"class.std::__1::__owns_one_state", %"class.std::__1::basic_regex", i32, i8, [3 x i8] }>
%"class.std::__1::ctype" = type <{ %"class.std::__1::locale::facet", ptr, i8, [7 x i8] }>
%"class.std::__1::locale::facet" = type { %"class.std::__1::__shared_count" }
%"class.std::__1::vector.136" = type { ptr, ptr, %"class.std::__1::__compressed_pair.137" }
%"class.std::__1::__compressed_pair.137" = type { %"struct.std::__1::__compressed_pair_elem.138" }
%"struct.std::__1::__compressed_pair_elem.138" = type { ptr }
%"struct.std::__1::pair.112" = type { i64, ptr }
%"class.std::__1::__bracket_expression" = type { %"class.std::__1::__owns_one_state", %"struct.std::__1::regex_traits", %"class.std::__1::vector.176", %"class.std::__1::vector.176", %"class.std::__1::vector.179", %"class.std::__1::vector.187", %"class.std::__1::vector.4", i16, i16, i8, i8, i8, i8 }
%"class.std::__1::vector.176" = type { ptr, ptr, %"class.std::__1::__compressed_pair.177" }
%"class.std::__1::__compressed_pair.177" = type { %"struct.std::__1::__compressed_pair_elem.178" }
%"struct.std::__1::__compressed_pair_elem.178" = type { ptr }
%"class.std::__1::vector.179" = type { ptr, ptr, %"class.std::__1::__compressed_pair.181" }
%"class.std::__1::__compressed_pair.181" = type { %"struct.std::__1::__compressed_pair_elem.182" }
%"struct.std::__1::__compressed_pair_elem.182" = type { ptr }
%"class.std::__1::vector.187" = type { ptr, ptr, %"class.std::__1::__compressed_pair.189" }
%"class.std::__1::__compressed_pair.189" = type { %"struct.std::__1::__compressed_pair_elem.190" }
%"struct.std::__1::__compressed_pair_elem.190" = type { ptr }
%"class.std::__1::__match_char_icase" = type <{ %"class.std::__1::__owns_one_state", %"struct.std::__1::regex_traits", i8, [7 x i8] }>
%"class.std::__1::__match_char_collate" = type <{ %"class.std::__1::__owns_one_state", %"struct.std::__1::regex_traits", i8, [7 x i8] }>
%"class.std::__1::__match_char" = type <{ %"class.std::__1::__owns_one_state", i8, [7 x i8] }>
%"class.std::__1::__back_ref_icase" = type <{ %"class.std::__1::__owns_one_state", %"struct.std::__1::regex_traits", i32, [4 x i8] }>
%"class.std::__1::__back_ref_collate" = type <{ %"class.std::__1::__owns_one_state", %"struct.std::__1::regex_traits", i32, [4 x i8] }>
%"class.std::__1::__back_ref" = type <{ %"class.std::__1::__owns_one_state", i32, [4 x i8] }>
%"struct.std::__1::pair.180" = type { %"class.std::__1::basic_string", %"class.std::__1::basic_string" }
%"struct.std::__1::pair.188" = type { i8, i8 }
%"struct.std::__1::__split_buffer.205" = type { ptr, ptr, ptr, %"class.std::__1::__compressed_pair.206" }
%"class.std::__1::__compressed_pair.206" = type { %"struct.std::__1::__compressed_pair_elem.6", %"struct.std::__1::__compressed_pair_elem.207" }
%"struct.std::__1::__compressed_pair_elem.207" = type { ptr }
%"class.std::__1::__loop" = type <{ %"class.std::__1::__owns_two_states", i64, i64, i32, i32, i32, i8, [3 x i8] }>
%"class.std::__1::deque" = type { %"struct.std::__1::__split_buffer.241", i64, %"class.std::__1::__compressed_pair.248" }
%"struct.std::__1::__split_buffer.241" = type { ptr, ptr, ptr, %"class.std::__1::__compressed_pair.242" }
%"class.std::__1::__compressed_pair.242" = type { %"struct.std::__1::__compressed_pair_elem.243" }
%"struct.std::__1::__compressed_pair_elem.243" = type { ptr }
%"class.std::__1::__compressed_pair.248" = type { %"struct.std::__1::__compressed_pair_elem.53" }
%"class.std::__1::__tree_node" = type { %"class.std::__1::__tree_node_base.base", %"struct.std::__1::__value_type" }
%"class.std::__1::__tree_node_base.base" = type <{ %"class.std::__1::__tree_end_node", ptr, ptr, i8 }>
%"struct.std::__1::__value_type" = type { %"struct.std::__1::pair.261" }
%"struct.std::__1::pair.261" = type { %"class.std::__1::basic_string", %"class.benchmark::Counter" }
%"class.benchmark::Counter" = type { double, i32, i32 }
%"class.std::__1::basic_ostream<char>::sentry" = type { i8, ptr }
%"class.std::__1::ios_base" = type { ptr, i32, i64, i64, i32, i32, ptr, ptr, ptr, ptr, i64, i64, ptr, i64, i64, ptr, i64, i64 }
%"class.std::__1::basic_ios" = type <{ %"class.std::__1::ios_base", ptr, i32, [4 x i8] }>
%"struct.std::__1::__split_buffer.296" = type { ptr, ptr, ptr, %"class.std::__1::__compressed_pair.297" }
%"class.std::__1::__compressed_pair.297" = type { %"struct.std::__1::__compressed_pair_elem.20", %"struct.std::__1::__compressed_pair_elem.298" }
%"struct.std::__1::__compressed_pair_elem.298" = type { ptr }
%"struct.std::__1::__split_buffer.327" = type { ptr, ptr, ptr, %"class.std::__1::__compressed_pair.328" }
%"class.std::__1::__compressed_pair.328" = type { %"struct.std::__1::__compressed_pair_elem.34", %"struct.std::__1::__compressed_pair_elem.329" }
%"struct.std::__1::__compressed_pair_elem.329" = type { ptr }

$_ZN9benchmark8internal17BenchmarkFamiliesD2Ev = comdat any

$_ZNSt3__16vectorINS_10unique_ptrIN9benchmark8internal9BenchmarkENS_14default_deleteIS4_EEEENS_9allocatorIS7_EEE13shrink_to_fitEv = comdat any

$_ZN9benchmark5Regex4InitERKNSt3__112basic_stringIcNS1_11char_traitsIcEENS1_9allocatorIcEEEEPS7_ = comdat any

$_ZNSt3__16vectorIN9benchmark8internal17BenchmarkInstanceENS_9allocatorIS3_EEE7reserveEm = comdat any

$_ZNSt3__16vectorIN9benchmark8internal10StatisticsENS_9allocatorIS3_EEED2B7v170000Ev = comdat any

$_ZNSt3__16vectorINS0_IlNS_9allocatorIlEEEENS1_IS3_EEED2B7v170000Ev = comdat any

$_ZNSt3__16vectorINS_12basic_stringIcNS_11char_traitsIcEENS_9allocatorIcEEEENS4_IS6_EEED2B7v170000Ev = comdat any

$_ZN9benchmark8internal8AddRangeIlEEvPNSt3__16vectorIT_NS2_9allocatorIS4_EEEES4_S4_i = comdat any

$_ZN9benchmark8internal8AddRangeIiEEvPNSt3__16vectorIT_NS2_9allocatorIS4_EEEES4_S4_i = comdat any

$_ZN9benchmark8internal17FunctionBenchmarkD0Ev = comdat any

$__clang_call_terminate = comdat any

$_ZNSt3__111basic_regexIcNS_12regex_traitsIcEEEC2B7v170000Ev = comdat any

$_ZNSt3__111basic_regexIcNS_12regex_traitsIcEEED2Ev = comdat any

$_ZNSt3__110shared_ptrINS_13__empty_stateIcEEED2B7v170000Ev = comdat any

$_ZNSt3__111basic_regexIcNS_12regex_traitsIcEEE7__parseINS_11__wrap_iterIPKcEEEET_S9_S9_ = comdat any

$_ZNSt3__119__throw_regex_errorB7v170000ILNS_15regex_constants10error_typeE17EEEvv = comdat any

$_ZNSt3__111basic_regexIcNS_12regex_traitsIcEEE16__parse_ecma_expINS_11__wrap_iterIPKcEEEET_S9_S9_ = comdat any

$_ZNSt3__111basic_regexIcNS_12regex_traitsIcEEE21__parse_basic_reg_expINS_11__wrap_iterIPKcEEEET_S9_S9_ = comdat any

$_ZNSt3__111basic_regexIcNS_12regex_traitsIcEEE24__parse_extended_reg_expINS_11__wrap_iterIPKcEEEET_S9_S9_ = comdat any

$_ZNSt3__111basic_regexIcNS_12regex_traitsIcEEE12__parse_grepINS_11__wrap_iterIPKcEEEET_S9_S9_ = comdat any

$_ZNSt3__111basic_regexIcNS_12regex_traitsIcEEE13__parse_egrepINS_11__wrap_iterIPKcEEEET_S9_S9_ = comdat any

$_ZNSt3__119__throw_regex_errorB7v170000ILNS_15regex_constants10error_typeE14EEEvv = comdat any

$_ZNSt3__111__end_stateIcED0Ev = comdat any

$_ZNKSt3__111__end_stateIcE6__execERNS_7__stateIcEE = comdat any

$_ZNKSt3__16__nodeIcE12__exec_splitEbRNS_7__stateIcEE = comdat any

$_ZNKSt3__16__nodeIcE6__execERNS_7__stateIcEE = comdat any

$_ZNSt3__120__shared_ptr_pointerIPNS_13__empty_stateIcEENS_10shared_ptrIS2_E27__shared_ptr_default_deleteIS2_S2_EENS_9allocatorIS2_EEED0Ev = comdat any

$_ZNSt3__120__shared_ptr_pointerIPNS_13__empty_stateIcEENS_10shared_ptrIS2_E27__shared_ptr_default_deleteIS2_S2_EENS_9allocatorIS2_EEE16__on_zero_sharedEv = comdat any

$_ZNKSt3__120__shared_ptr_pointerIPNS_13__empty_stateIcEENS_10shared_ptrIS2_E27__shared_ptr_default_deleteIS2_S2_EENS_9allocatorIS2_EEE13__get_deleterERKSt9type_info = comdat any

$_ZNSt3__120__shared_ptr_pointerIPNS_13__empty_stateIcEENS_10shared_ptrIS2_E27__shared_ptr_default_deleteIS2_S2_EENS_9allocatorIS2_EEE21__on_zero_shared_weakEv = comdat any

$_ZNSt3__113__empty_stateIcED0Ev = comdat any

$_ZNKSt3__113__empty_stateIcE6__execERNS_7__stateIcEE = comdat any

$_ZNSt3__116__owns_one_stateIcED0Ev = comdat any

$_ZNSt3__16__nodeIcED2Ev = comdat any

$_ZNSt3__111basic_regexIcNS_12regex_traitsIcEEE17__parse_assertionINS_11__wrap_iterIPKcEEEET_S9_S9_ = comdat any

$_ZNSt3__111basic_regexIcNS_12regex_traitsIcEEE12__parse_atomINS_11__wrap_iterIPKcEEEET_S9_S9_ = comdat any

$_ZNSt3__111basic_regexIcNS_12regex_traitsIcEEE23__parse_ERE_dupl_symbolINS_11__wrap_iterIPKcEEEET_S9_S9_PNS_16__owns_one_stateIcEEjj = comdat any

$_ZNSt3__111basic_regexIcNS_12regex_traitsIcEEE16__push_lookaheadERKS3_bj = comdat any

$_ZNSt3__119__throw_regex_errorB7v170000ILNS_15regex_constants10error_typeE6EEEvv = comdat any

$_ZNSt3__120__l_anchor_multilineIcED0Ev = comdat any

$_ZNKSt3__120__l_anchor_multilineIcE6__execERNS_7__stateIcEE = comdat any

$_ZNSt3__120__r_anchor_multilineIcED0Ev = comdat any

$_ZNKSt3__120__r_anchor_multilineIcE6__execERNS_7__stateIcEE = comdat any

$_ZNSt3__115__word_boundaryIcNS_12regex_traitsIcEEED2Ev = comdat any

$_ZNSt3__115__word_boundaryIcNS_12regex_traitsIcEEED0Ev = comdat any

$_ZNKSt3__115__word_boundaryIcNS_12regex_traitsIcEEE6__execERNS_7__stateIcEE = comdat any

$_ZNSt3__111__lookaheadIcNS_12regex_traitsIcEEED2Ev = comdat any

$_ZNSt3__111__lookaheadIcNS_12regex_traitsIcEEED0Ev = comdat any

$_ZNKSt3__111__lookaheadIcNS_12regex_traitsIcEEE6__execERNS_7__stateIcEE = comdat any

$_ZNKSt3__111basic_regexIcNS_12regex_traitsIcEEE21__match_at_start_ecmaINS_9allocatorINS_9sub_matchIPKcEEEEEEbS8_S8_RNS_13match_resultsIS8_T_EENS_15regex_constants15match_flag_typeEb = comdat any

$_ZNSt3__16vectorINS_9sub_matchIPKcEENS_9allocatorIS4_EEE6assignEmRKS4_ = comdat any

$_ZNKSt3__16vectorINS_9sub_matchIPKcEENS_9allocatorIS4_EEE20__throw_length_errorB7v170000Ev = comdat any

$_ZNSt3__120__throw_length_errorB7v170000EPKc = comdat any

$_ZNSt12length_errorC2B7v170000EPKc = comdat any

$_ZSt28__throw_bad_array_new_lengthB7v170000v = comdat any

$_ZNSt3__17__stateIcED2Ev = comdat any

$_ZNSt3__119__throw_regex_errorB7v170000ILNS_15regex_constants10error_typeE12EEEvv = comdat any

$_ZNSt3__17__stateIcEC2ERKS1_ = comdat any

$_ZNSt3__119__throw_regex_errorB7v170000ILNS_15regex_constants10error_typeE16EEEvv = comdat any

$_ZNSt3__16vectorINS_7__stateIcEENS_9allocatorIS2_EEED2B7v170000Ev = comdat any

$_ZNSt3__16vectorINS_7__stateIcEENS_9allocatorIS2_EEE21__push_back_slow_pathIS2_EEvOT_ = comdat any

$_ZNKSt3__16vectorINS_7__stateIcEENS_9allocatorIS2_EEE20__throw_length_errorB7v170000Ev = comdat any

$_ZNSt3__16vectorINS_9sub_matchIPKcEENS_9allocatorIS4_EEE8__appendEmRKS4_ = comdat any

$_ZNSt3__16vectorINS_4pairImPKcEENS_9allocatorIS4_EEE8__appendEm = comdat any

$_ZNKSt3__16vectorINS_4pairImPKcEENS_9allocatorIS4_EEE20__throw_length_errorB7v170000Ev = comdat any

$_ZNSt3__111basic_regexIcNS_12regex_traitsIcEEE19__parse_atom_escapeINS_11__wrap_iterIPKcEEEET_S9_S9_ = comdat any

$_ZNSt3__111basic_regexIcNS_12regex_traitsIcEEE26__parse_bracket_expressionINS_11__wrap_iterIPKcEEEET_S9_S9_ = comdat any

$_ZNSt3__119__throw_regex_errorB7v170000ILNS_15regex_constants10error_typeE11EEEvv = comdat any

$_ZNSt3__111basic_regexIcNS_12regex_traitsIcEEE25__parse_pattern_characterINS_11__wrap_iterIPKcEEEET_S9_S9_ = comdat any

$_ZNSt3__123__match_any_but_newlineIcED0Ev = comdat any

$_ZNSt3__119__throw_regex_errorB7v170000ILNS_15regex_constants10error_typeE3EEEvv = comdat any

$_ZNSt3__111basic_regexIcNS_12regex_traitsIcEEE30__parse_character_class_escapeINS_11__wrap_iterIPKcEEEET_S9_S9_ = comdat any

$_ZNSt3__111basic_regexIcNS_12regex_traitsIcEEE24__parse_character_escapeINS_11__wrap_iterIPKcEEEET_S9_S9_PNS_12basic_stringIcNS_11char_traitsIcEENS_9allocatorIcEEEE = comdat any

$_ZNSt3__111basic_regexIcNS_12regex_traitsIcEEE11__push_charEc = comdat any

$_ZNSt3__119__throw_regex_errorB7v170000ILNS_15regex_constants10error_typeE4EEEvv = comdat any

$_ZNSt3__111basic_regexIcNS_12regex_traitsIcEEE15__push_back_refEi = comdat any

$_ZNSt3__118__match_char_icaseIcNS_12regex_traitsIcEEED2Ev = comdat any

$_ZNSt3__118__match_char_icaseIcNS_12regex_traitsIcEEED0Ev = comdat any

$_ZNKSt3__118__match_char_icaseIcNS_12regex_traitsIcEEE6__execERNS_7__stateIcEE = comdat any

$_ZNSt3__120__match_char_collateIcNS_12regex_traitsIcEEED2Ev = comdat any

$_ZNSt3__120__match_char_collateIcNS_12regex_traitsIcEEED0Ev = comdat any

$_ZNKSt3__120__match_char_collateIcNS_12regex_traitsIcEEE6__execERNS_7__stateIcEE = comdat any

$_ZNSt3__116__owns_one_stateIcED2Ev = comdat any

$_ZNSt3__112__match_charIcED0Ev = comdat any

$_ZNKSt3__112__match_charIcE6__execERNS_7__stateIcEE = comdat any

$_ZNSt3__116__back_ref_icaseIcNS_12regex_traitsIcEEED2Ev = comdat any

$_ZNSt3__116__back_ref_icaseIcNS_12regex_traitsIcEEED0Ev = comdat any

$_ZNKSt3__116__back_ref_icaseIcNS_12regex_traitsIcEEE6__execERNS_7__stateIcEE = comdat any

$_ZNSt3__118__back_ref_collateIcNS_12regex_traitsIcEEED2Ev = comdat any

$_ZNSt3__118__back_ref_collateIcNS_12regex_traitsIcEEED0Ev = comdat any

$_ZNKSt3__118__back_ref_collateIcNS_12regex_traitsIcEEE6__execERNS_7__stateIcEE = comdat any

$_ZNSt3__110__back_refIcED0Ev = comdat any

$_ZNKSt3__110__back_refIcE6__execERNS_7__stateIcEE = comdat any

$_ZNSt3__120__bracket_expressionIcNS_12regex_traitsIcEEE10__add_charB7v170000Ec = comdat any

$_ZNSt3__120__bracket_expressionIcNS_12regex_traitsIcEEEC2B7v170000ERKS2_PNS_6__nodeIcEEbbb = comdat any

$_ZNSt3__16vectorINS_4pairINS_12basic_stringIcNS_11char_traitsIcEENS_9allocatorIcEEEES7_EENS5_IS8_EEED2B7v170000Ev = comdat any

$_ZNSt3__120__bracket_expressionIcNS_12regex_traitsIcEEED2Ev = comdat any

$_ZNSt3__120__bracket_expressionIcNS_12regex_traitsIcEEED0Ev = comdat any

$_ZNKSt3__120__bracket_expressionIcNS_12regex_traitsIcEEE6__execERNS_7__stateIcEE = comdat any

$_ZNSt3__14pairINS_12basic_stringIcNS_11char_traitsIcEENS_9allocatorIcEEEES6_ED2Ev = comdat any

$_ZNKSt3__112regex_traitsIcE9transformIPcEENS_12basic_stringIcNS_11char_traitsIcEENS_9allocatorIcEEEET_SA_ = comdat any

$_ZNKSt3__112regex_traitsIcE20__lookup_collatenameIPcEENS_12basic_stringIcNS_11char_traitsIcEENS_9allocatorIcEEEET_SA_c = comdat any

$_ZNKSt3__112basic_stringIcNS_11char_traitsIcEENS_9allocatorIcEEE20__throw_length_errorB7v170000Ev = comdat any

$_ZNKSt3__112regex_traitsIcE19__transform_primaryIPcEENS_12basic_stringIcNS_11char_traitsIcEENS_9allocatorIcEEEET_SA_c = comdat any

$_ZNKSt3__16vectorIcNS_9allocatorIcEEE20__throw_length_errorB7v170000Ev = comdat any

$_ZNSt3__119__throw_regex_errorB7v170000ILNS_15regex_constants10error_typeE5EEEvv = comdat any

$_ZNSt3__111basic_regexIcNS_12regex_traitsIcEEE23__parse_expression_termINS_11__wrap_iterIPKcEEEET_S9_S9_PNS_20__bracket_expressionIcS2_EE = comdat any

$_ZNSt3__111basic_regexIcNS_12regex_traitsIcEEE25__parse_equivalence_classINS_11__wrap_iterIPKcEEEET_S9_S9_PNS_20__bracket_expressionIcS2_EE = comdat any

$_ZNSt3__111basic_regexIcNS_12regex_traitsIcEEE23__parse_character_classINS_11__wrap_iterIPKcEEEET_S9_S9_PNS_20__bracket_expressionIcS2_EE = comdat any

$_ZNSt3__111basic_regexIcNS_12regex_traitsIcEEE24__parse_collating_symbolINS_11__wrap_iterIPKcEEEET_S9_S9_RNS_12basic_stringIcNS_11char_traitsIcEENS_9allocatorIcEEEE = comdat any

$_ZNSt3__111basic_regexIcNS_12regex_traitsIcEEE20__parse_class_escapeINS_11__wrap_iterIPKcEEEET_S9_S9_RNS_12basic_stringIcNS_11char_traitsIcEENS_9allocatorIcEEEEPNS_20__bracket_expressionIcS2_EE = comdat any

$_ZNSt3__111basic_regexIcNS_12regex_traitsIcEEE18__parse_awk_escapeINS_11__wrap_iterIPKcEEEET_S9_S9_PNS_12basic_stringIcNS_11char_traitsIcEENS_9allocatorIcEEEE = comdat any

$_ZNSt3__120__bracket_expressionIcNS_12regex_traitsIcEEE11__add_rangeB7v170000ENS_12basic_stringIcNS_11char_traitsIcEENS_9allocatorIcEEEES9_ = comdat any

$_ZNSt3__120__bracket_expressionIcNS_12regex_traitsIcEEE13__add_digraphB7v170000Ecc = comdat any

$_ZNSt3__119__throw_regex_errorB7v170000ILNS_15regex_constants10error_typeE1EEEvv = comdat any

$_ZNKSt3__112regex_traitsIcE20__lookup_collatenameINS_11__wrap_iterIPKcEEEENS_12basic_stringIcNS_11char_traitsIcEENS_9allocatorIcEEEET_SD_c = comdat any

$_ZNKSt3__112regex_traitsIcE19__transform_primaryINS_11__wrap_iterIPcEEEENS_12basic_stringIcNS_11char_traitsIcEENS_9allocatorIcEEEET_SC_c = comdat any

$_ZNSt3__16vectorINS_12basic_stringIcNS_11char_traitsIcEENS_9allocatorIcEEEENS4_IS6_EEE21__push_back_slow_pathIRKS6_EEvOT_ = comdat any

$_ZNSt3__114__split_bufferINS_12basic_stringIcNS_11char_traitsIcEENS_9allocatorIcEEEERNS4_IS6_EEED2Ev = comdat any

$_ZNKSt3__16vectorINS_12basic_stringIcNS_11char_traitsIcEENS_9allocatorIcEEEENS4_IS6_EEE20__throw_length_errorB7v170000Ev = comdat any

$_ZNSt3__119__throw_regex_errorB7v170000ILNS_15regex_constants10error_typeE2EEEvv = comdat any

$_ZNKSt3__112regex_traitsIcE18__lookup_classnameINS_11__wrap_iterIPKcEEEEtT_S7_bc = comdat any

$_ZNSt3__120__bracket_expressionIcNS_12regex_traitsIcEEE14__add_neg_charB7v170000Ec = comdat any

$_ZNKSt3__112regex_traitsIcE9transformINS_11__wrap_iterIPcEEEENS_12basic_stringIcNS_11char_traitsIcEENS_9allocatorIcEEEET_SC_ = comdat any

$_ZNSt3__119__throw_regex_errorB7v170000ILNS_15regex_constants10error_typeE9EEEvv = comdat any

$_ZNSt3__16vectorINS_4pairINS_12basic_stringIcNS_11char_traitsIcEENS_9allocatorIcEEEES7_EENS5_IS8_EEE21__push_back_slow_pathIS8_EEvOT_ = comdat any

$_ZNKSt3__16vectorINS_4pairINS_12basic_stringIcNS_11char_traitsIcEENS_9allocatorIcEEEES7_EENS5_IS8_EEE20__throw_length_errorB7v170000Ev = comdat any

$_ZNKSt3__16vectorINS_4pairIccEENS_9allocatorIS2_EEE20__throw_length_errorB7v170000Ev = comdat any

$_ZNSt3__128__begin_marked_subexpressionIcED0Ev = comdat any

$_ZNKSt3__128__begin_marked_subexpressionIcE6__execERNS_7__stateIcEE = comdat any

$_ZNSt3__126__end_marked_subexpressionIcED0Ev = comdat any

$_ZNKSt3__126__end_marked_subexpressionIcE6__execERNS_7__stateIcEE = comdat any

$_ZNSt3__111basic_regexIcNS_12regex_traitsIcEEE11__push_loopEmmPNS_16__owns_one_stateIcEEmmb = comdat any

$_ZNSt3__119__throw_regex_errorB7v170000ILNS_15regex_constants10error_typeE8EEEvv = comdat any

$_ZNSt3__119__throw_regex_errorB7v170000ILNS_15regex_constants10error_typeE7EEEvv = comdat any

$_ZNSt3__117__owns_two_statesIcED2Ev = comdat any

$_ZNSt3__16__loopIcED0Ev = comdat any

$_ZNKSt3__16__loopIcE6__execERNS_7__stateIcEE = comdat any

$_ZNKSt3__16__loopIcE12__exec_splitEbRNS_7__stateIcEE = comdat any

$_ZNSt3__117__owns_two_statesIcED0Ev = comdat any

$_ZNSt3__117__repeat_one_loopIcED0Ev = comdat any

$_ZNKSt3__117__repeat_one_loopIcE6__execERNS_7__stateIcEE = comdat any

$_ZNSt3__111__alternateIcED0Ev = comdat any

$_ZNKSt3__111__alternateIcE6__execERNS_7__stateIcEE = comdat any

$_ZNKSt3__111__alternateIcE12__exec_splitEbRNS_7__stateIcEE = comdat any

$_ZNSt3__121__empty_non_own_stateIcED0Ev = comdat any

$_ZNKSt3__121__empty_non_own_stateIcE6__execERNS_7__stateIcEE = comdat any

$_ZNSt3__119__throw_regex_errorB7v170000ILNS_15regex_constants10error_typeE15EEEvv = comdat any

$_ZNSt3__111basic_regexIcNS_12regex_traitsIcEEE18__parse_nondupl_REINS_11__wrap_iterIPKcEEEET_S9_S9_ = comdat any

$_ZNSt3__111basic_regexIcNS_12regex_traitsIcEEE22__parse_RE_dupl_symbolINS_11__wrap_iterIPKcEEEET_S9_S9_PNS_16__owns_one_stateIcEEjj = comdat any

$_ZNSt3__111basic_regexIcNS_12regex_traitsIcEEE32__parse_one_char_or_coll_elem_REINS_11__wrap_iterIPKcEEEET_S9_S9_ = comdat any

$_ZNSt3__111__match_anyIcED0Ev = comdat any

$_ZNKSt3__111__match_anyIcE6__execERNS_7__stateIcEE = comdat any

$_ZNSt3__111basic_regexIcNS_12regex_traitsIcEEE15__test_back_refEc = comdat any

$_ZNSt3__111basic_regexIcNS_12regex_traitsIcEEE22__parse_ERE_expressionINS_11__wrap_iterIPKcEEEET_S9_S9_ = comdat any

$_ZNSt3__111basic_regexIcNS_12regex_traitsIcEEE20__parse_ORD_CHAR_EREINS_11__wrap_iterIPKcEEEET_S9_S9_ = comdat any

$_ZNSt3__111basic_regexIcNS_12regex_traitsIcEEE23__parse_QUOTED_CHAR_EREINS_11__wrap_iterIPKcEEEET_S9_S9_ = comdat any

$_ZNKSt3__111basic_regexIcNS_12regex_traitsIcEEE8__searchINS_9allocatorINS_9sub_matchIPKcEEEEEEbS8_S8_RNS_13match_resultsIS8_T_EENS_15regex_constants15match_flag_typeE = comdat any

$_ZNKSt3__111basic_regexIcNS_12regex_traitsIcEEE29__match_at_start_posix_nosubsINS_9allocatorINS_9sub_matchIPKcEEEEEEbS8_S8_RNS_13match_resultsIS8_T_EENS_15regex_constants15match_flag_typeEb = comdat any

$_ZNKSt3__111basic_regexIcNS_12regex_traitsIcEEE27__match_at_start_posix_subsINS_9allocatorINS_9sub_matchIPKcEEEEEEbS8_S8_RNS_13match_resultsIS8_T_EENS_15regex_constants15match_flag_typeEb = comdat any

$_ZNSt3__15dequeINS_7__stateIcEENS_9allocatorIS2_EEE5clearEv = comdat any

$_ZNSt3__15dequeINS_7__stateIcEENS_9allocatorIS2_EEED2B7v170000Ev = comdat any

$_ZNSt3__15dequeINS_7__stateIcEENS_9allocatorIS2_EEE19__add_back_capacityEv = comdat any

$_ZNSt3__114__split_bufferIPNS_7__stateIcEENS_9allocatorIS3_EEE9push_backEOS3_ = comdat any

$_ZNSt3__114__split_bufferIPNS_7__stateIcEENS_9allocatorIS3_EEE10push_frontEOS3_ = comdat any

$_ZNSt3__15dequeINS_7__stateIcEENS_9allocatorIS2_EEE20__add_front_capacityEv = comdat any

$_ZNSt3__114__split_bufferIPNS_7__stateIcEENS_9allocatorIS3_EEE10push_frontERKS3_ = comdat any

$_ZNSt3__16vectorINS_9sub_matchIPKcEENS_9allocatorIS4_EEE6assignIPS4_Li0EEEvT_SA_ = comdat any

$_ZNSt3__16vectorINS_4pairImPKcEENS_9allocatorIS4_EEE6assignIPS4_Li0EEEvT_SA_ = comdat any

$_ZN9benchmark13BenchmarkNameD2Ev = comdat any

$_ZNSt3__16__treeINS_12__value_typeINS_12basic_stringIcNS_11char_traitsIcEENS_9allocatorIcEEEEN9benchmark7CounterEEENS_19__map_value_compareIS7_SA_NS_4lessIS7_EELb1EEENS5_ISA_EEE7destroyEPNS_11__tree_nodeISA_PvEE = comdat any

$_ZNKSt3__16vectorIlNS_9allocatorIlEEE20__throw_length_errorB7v170000Ev = comdat any

$_ZNSt3__16vectorINS_10unique_ptrIN9benchmark8internal9BenchmarkENS_14default_deleteIS4_EEEENS_9allocatorIS7_EEE21__push_back_slow_pathIS7_EEvOT_ = comdat any

$_ZNKSt3__16vectorINS_10unique_ptrIN9benchmark8internal9BenchmarkENS_14default_deleteIS4_EEEENS_9allocatorIS7_EEE20__throw_length_errorB7v170000Ev = comdat any

$_ZNSt3__124__put_character_sequenceB7v170000IcNS_11char_traitsIcEEEERNS_13basic_ostreamIT_T0_EES7_PKS4_m = comdat any

$_ZNSt3__116__pad_and_outputB7v170000IcNS_11char_traitsIcEEEENS_19ostreambuf_iteratorIT_T0_EES6_PKS4_S8_S8_RNS_8ios_baseES4_ = comdat any

$_ZNKSt3__16vectorIiNS_9allocatorIiEEE20__throw_length_errorB7v170000Ev = comdat any

$_ZNKSt3__16vectorIN9benchmark8internal17BenchmarkInstanceENS_9allocatorIS3_EEE20__throw_length_errorB7v170000Ev = comdat any

$_ZNSt3__16vectorIN9benchmark8internal17BenchmarkInstanceENS_9allocatorIS3_EEE21__push_back_slow_pathIS3_EEvOT_ = comdat any

$_ZNSt3__16vectorINS0_IlNS_9allocatorIlEEEENS1_IS3_EEE21__push_back_slow_pathIS3_EEvOT_ = comdat any

$_ZNSt3__114__split_bufferINS_6vectorIlNS_9allocatorIlEEEERNS2_IS4_EEED2Ev = comdat any

$_ZNKSt3__16vectorINS0_IlNS_9allocatorIlEEEENS1_IS3_EEE20__throw_length_errorB7v170000Ev = comdat any

$_ZN9benchmark8internal16AddNegatedPowersIlEEvPNSt3__16vectorIT_NS2_9allocatorIS4_EEEES4_S4_i = comdat any

$_ZN9benchmark8internal9AddPowersIlEENSt3__16vectorIT_NS2_9allocatorIS4_EEE8iteratorEPS7_S4_S4_i = comdat any

$_ZNSt3__128__exception_guard_exceptionsINS_6vectorINS1_IlNS_9allocatorIlEEEENS2_IS4_EEE16__destroy_vectorEED2B7v170000Ev = comdat any

$_ZNKSt3__16vectorImNS_9allocatorImEEE20__throw_length_errorB7v170000Ev = comdat any

$_ZNSt3__16vectorINS0_IlNS_9allocatorIlEEEENS1_IS3_EEE21__push_back_slow_pathIRKS3_EEvOT_ = comdat any

$_ZNSt3__16vectorINS_12basic_stringIcNS_11char_traitsIcEENS_9allocatorIcEEEENS4_IS6_EEE6assignIPKS6_Li0EEEvT_SC_ = comdat any

$_ZNSt3__16vectorINS_12basic_stringIcNS_11char_traitsIcEENS_9allocatorIcEEEENS4_IS6_EEE6assignIPS6_Li0EEEvT_SB_ = comdat any

$_ZNSt3__16vectorIN9benchmark8internal10StatisticsENS_9allocatorIS3_EEE24__emplace_back_slow_pathIJRKNS_12basic_stringIcNS_11char_traitsIcEENS4_IcEEEERPFdRKNS0_IdNS4_IdEEEEERNS1_13StatisticUnitEEEEvDpOT_ = comdat any

$_ZNSt3__114__split_bufferIN9benchmark8internal10StatisticsERNS_9allocatorIS3_EEED2Ev = comdat any

$_ZNKSt3__16vectorIN9benchmark8internal10StatisticsENS_9allocatorIS3_EEE20__throw_length_errorB7v170000Ev = comdat any

$_ZN9benchmark8internal16AddNegatedPowersIiEEvPNSt3__16vectorIT_NS2_9allocatorIS4_EEEES4_S4_i = comdat any

$_ZN9benchmark8internal9AddPowersIiEENSt3__16vectorIT_NS2_9allocatorIS4_EEE8iteratorEPS7_S4_S4_i = comdat any

$_ZZN9benchmark8internal18GetNullLogInstanceEvE3log = comdat any

$_ZGVZN9benchmark8internal18GetNullLogInstanceEvE3log = comdat any

$_ZTVNSt3__111__end_stateIcEE = comdat any

$_ZTSNSt3__111__end_stateIcEE = comdat any

$_ZTSNSt3__16__nodeIcEE = comdat any

$_ZTINSt3__16__nodeIcEE = comdat any

$_ZTINSt3__111__end_stateIcEE = comdat any

$_ZTVNSt3__120__shared_ptr_pointerIPNS_13__empty_stateIcEENS_10shared_ptrIS2_E27__shared_ptr_default_deleteIS2_S2_EENS_9allocatorIS2_EEEE = comdat any

$_ZTSNSt3__120__shared_ptr_pointerIPNS_13__empty_stateIcEENS_10shared_ptrIS2_E27__shared_ptr_default_deleteIS2_S2_EENS_9allocatorIS2_EEEE = comdat any

$_ZTINSt3__120__shared_ptr_pointerIPNS_13__empty_stateIcEENS_10shared_ptrIS2_E27__shared_ptr_default_deleteIS2_S2_EENS_9allocatorIS2_EEEE = comdat any

$_ZTSNSt3__110shared_ptrINS_13__empty_stateIcEEE27__shared_ptr_default_deleteIS2_S2_EE = comdat any

$_ZTVNSt3__113__empty_stateIcEE = comdat any

$_ZTSNSt3__113__empty_stateIcEE = comdat any

$_ZTSNSt3__116__owns_one_stateIcEE = comdat any

$_ZTSNSt3__115__has_one_stateIcEE = comdat any

$_ZTINSt3__115__has_one_stateIcEE = comdat any

$_ZTINSt3__116__owns_one_stateIcEE = comdat any

$_ZTINSt3__113__empty_stateIcEE = comdat any

$_ZTVNSt3__116__owns_one_stateIcEE = comdat any

$_ZTVNSt3__120__l_anchor_multilineIcEE = comdat any

$_ZTSNSt3__120__l_anchor_multilineIcEE = comdat any

$_ZTINSt3__120__l_anchor_multilineIcEE = comdat any

$_ZTVNSt3__120__r_anchor_multilineIcEE = comdat any

$_ZTSNSt3__120__r_anchor_multilineIcEE = comdat any

$_ZTINSt3__120__r_anchor_multilineIcEE = comdat any

$_ZTVNSt3__115__word_boundaryIcNS_12regex_traitsIcEEEE = comdat any

$_ZTSNSt3__115__word_boundaryIcNS_12regex_traitsIcEEEE = comdat any

$_ZTINSt3__115__word_boundaryIcNS_12regex_traitsIcEEEE = comdat any

$_ZTVNSt3__111__lookaheadIcNS_12regex_traitsIcEEEE = comdat any

$_ZTSNSt3__111__lookaheadIcNS_12regex_traitsIcEEEE = comdat any

$_ZTINSt3__111__lookaheadIcNS_12regex_traitsIcEEEE = comdat any

$_ZTVNSt3__123__match_any_but_newlineIcEE = comdat any

$_ZTSNSt3__123__match_any_but_newlineIcEE = comdat any

$_ZTINSt3__123__match_any_but_newlineIcEE = comdat any

$_ZTVNSt3__118__match_char_icaseIcNS_12regex_traitsIcEEEE = comdat any

$_ZTSNSt3__118__match_char_icaseIcNS_12regex_traitsIcEEEE = comdat any

$_ZTINSt3__118__match_char_icaseIcNS_12regex_traitsIcEEEE = comdat any

$_ZTVNSt3__120__match_char_collateIcNS_12regex_traitsIcEEEE = comdat any

$_ZTSNSt3__120__match_char_collateIcNS_12regex_traitsIcEEEE = comdat any

$_ZTINSt3__120__match_char_collateIcNS_12regex_traitsIcEEEE = comdat any

$_ZTVNSt3__112__match_charIcEE = comdat any

$_ZTSNSt3__112__match_charIcEE = comdat any

$_ZTINSt3__112__match_charIcEE = comdat any

$_ZTVNSt3__116__back_ref_icaseIcNS_12regex_traitsIcEEEE = comdat any

$_ZTSNSt3__116__back_ref_icaseIcNS_12regex_traitsIcEEEE = comdat any

$_ZTINSt3__116__back_ref_icaseIcNS_12regex_traitsIcEEEE = comdat any

$_ZTVNSt3__118__back_ref_collateIcNS_12regex_traitsIcEEEE = comdat any

$_ZTSNSt3__118__back_ref_collateIcNS_12regex_traitsIcEEEE = comdat any

$_ZTINSt3__118__back_ref_collateIcNS_12regex_traitsIcEEEE = comdat any

$_ZTVNSt3__110__back_refIcEE = comdat any

$_ZTSNSt3__110__back_refIcEE = comdat any

$_ZTINSt3__110__back_refIcEE = comdat any

$_ZTVNSt3__120__bracket_expressionIcNS_12regex_traitsIcEEEE = comdat any

$_ZTSNSt3__120__bracket_expressionIcNS_12regex_traitsIcEEEE = comdat any

$_ZTINSt3__120__bracket_expressionIcNS_12regex_traitsIcEEEE = comdat any

$_ZTVNSt3__128__begin_marked_subexpressionIcEE = comdat any

$_ZTSNSt3__128__begin_marked_subexpressionIcEE = comdat any

$_ZTINSt3__128__begin_marked_subexpressionIcEE = comdat any

$_ZTVNSt3__126__end_marked_subexpressionIcEE = comdat any

$_ZTSNSt3__126__end_marked_subexpressionIcEE = comdat any

$_ZTINSt3__126__end_marked_subexpressionIcEE = comdat any

$_ZTVNSt3__16__loopIcEE = comdat any

$_ZTSNSt3__16__loopIcEE = comdat any

$_ZTSNSt3__117__owns_two_statesIcEE = comdat any

$_ZTINSt3__117__owns_two_statesIcEE = comdat any

$_ZTINSt3__16__loopIcEE = comdat any

$_ZTVNSt3__117__owns_two_statesIcEE = comdat any

$_ZTVNSt3__117__repeat_one_loopIcEE = comdat any

$_ZTSNSt3__117__repeat_one_loopIcEE = comdat any

$_ZTINSt3__117__repeat_one_loopIcEE = comdat any

$_ZTVNSt3__111__alternateIcEE = comdat any

$_ZTSNSt3__111__alternateIcEE = comdat any

$_ZTINSt3__111__alternateIcEE = comdat any

$_ZTVNSt3__121__empty_non_own_stateIcEE = comdat any

$_ZTSNSt3__121__empty_non_own_stateIcEE = comdat any

$_ZTINSt3__121__empty_non_own_stateIcEE = comdat any

$_ZTVNSt3__111__match_anyIcEE = comdat any

$_ZTSNSt3__111__match_anyIcEE = comdat any

$_ZTINSt3__111__match_anyIcEE = comdat any

@_ZZN9benchmark8internal17BenchmarkFamilies11GetInstanceEvE8instance = internal global %"class.benchmark::internal::BenchmarkFamilies" zeroinitializer, align 8
@_ZGVZN9benchmark8internal17BenchmarkFamilies11GetInstanceEvE8instance = internal global i64 0, align 8
@__dso_handle = external hidden global i8
@.str = private unnamed_addr constant [1 x i8] zeroinitializer, align 1
@.str.1 = private unnamed_addr constant [33 x i8] c"Could not compile benchmark re: \00", align 1
@.str.2 = private unnamed_addr constant [37 x i8] c"The number of inputs is very large. \00", align 1
@.str.3 = private unnamed_addr constant [28 x i8] c" will be repeated at least \00", align 1
@.str.4 = private unnamed_addr constant [9 x i8] c" times.\0A\00", align 1
@_ZTVN9benchmark8internal9BenchmarkE = hidden unnamed_addr constant { [5 x ptr] } { [5 x ptr] [ptr null, ptr @_ZTIN9benchmark8internal9BenchmarkE, ptr @_ZN9benchmark8internal9BenchmarkD2Ev, ptr @_ZN9benchmark8internal9BenchmarkD0Ev, ptr @__cxa_pure_virtual] }, align 8
@.str.6 = private unnamed_addr constant [5 x i8] c"mean\00", align 1
@.str.7 = private unnamed_addr constant [7 x i8] c"median\00", align 1
@.str.8 = private unnamed_addr constant [7 x i8] c"stddev\00", align 1
@.str.9 = private unnamed_addr constant [3 x i8] c"cv\00", align 1
@.str.10 = private unnamed_addr constant [57 x i8] c"Cannot set UseRealTime and UseManualTime simultaneously.\00", align 1
@_ZTVN9benchmark8internal17FunctionBenchmarkE = hidden unnamed_addr constant { [5 x ptr] } { [5 x ptr] [ptr null, ptr @_ZTIN9benchmark8internal17FunctionBenchmarkE, ptr @_ZN9benchmark8internal9BenchmarkD2Ev, ptr @_ZN9benchmark8internal17FunctionBenchmarkD0Ev, ptr @_ZN9benchmark8internal17FunctionBenchmark3RunERNS_5StateE] }, align 8
@_ZTVN10__cxxabiv120__si_class_type_infoE = external global ptr
@_ZTSN9benchmark8internal17FunctionBenchmarkE = hidden constant [41 x i8] c"N9benchmark8internal17FunctionBenchmarkE\00", align 1
@_ZTVN10__cxxabiv117__class_type_infoE = external global ptr
@_ZTSN9benchmark8internal9BenchmarkE = hidden constant [32 x i8] c"N9benchmark8internal9BenchmarkE\00", align 1
@_ZTIN9benchmark8internal9BenchmarkE = hidden constant { ptr, ptr } { ptr getelementptr inbounds (ptr, ptr @_ZTVN10__cxxabiv117__class_type_infoE, i64 2), ptr @_ZTSN9benchmark8internal9BenchmarkE }, align 8
@_ZTIN9benchmark8internal17FunctionBenchmarkE = hidden constant { ptr, ptr, ptr } { ptr getelementptr inbounds (ptr, ptr @_ZTVN10__cxxabiv120__si_class_type_infoE, i64 2), ptr @_ZTSN9benchmark8internal17FunctionBenchmarkE, ptr @_ZTIN9benchmark8internal9BenchmarkE }, align 8
@_ZZN9benchmark8internal18GetNullLogInstanceEvE3log = linkonce_odr hidden local_unnamed_addr global %"class.benchmark::internal::LogType" zeroinitializer, comdat, align 8
@_ZGVZN9benchmark8internal18GetNullLogInstanceEvE3log = linkonce_odr hidden global i64 0, comdat, align 8
@_ZNSt3__15ctypeIcE2idE = external global %"class.std::__1::locale::id", align 8
@_ZNSt3__17collateIcE2idE = external global %"class.std::__1::locale::id", align 8
@_ZTINSt3__111regex_errorE = external constant ptr
@_ZTVNSt3__111__end_stateIcEE = linkonce_odr hidden unnamed_addr constant { [6 x ptr] } { [6 x ptr] [ptr null, ptr @_ZTINSt3__111__end_stateIcEE, ptr @_ZNSt3__16__nodeIcED2Ev, ptr @_ZNSt3__111__end_stateIcED0Ev, ptr @_ZNKSt3__111__end_stateIcE6__execERNS_7__stateIcEE, ptr @_ZNKSt3__16__nodeIcE12__exec_splitEbRNS_7__stateIcEE] }, comdat, align 8
@_ZTSNSt3__111__end_stateIcEE = linkonce_odr hidden constant [25 x i8] c"NSt3__111__end_stateIcEE\00", comdat, align 1
@_ZTSNSt3__16__nodeIcEE = linkonce_odr hidden constant [19 x i8] c"NSt3__16__nodeIcEE\00", comdat, align 1
@_ZTINSt3__16__nodeIcEE = linkonce_odr hidden constant { ptr, ptr } { ptr getelementptr inbounds (ptr, ptr @_ZTVN10__cxxabiv117__class_type_infoE, i64 2), ptr @_ZTSNSt3__16__nodeIcEE }, comdat, align 8
@_ZTINSt3__111__end_stateIcEE = linkonce_odr hidden constant { ptr, ptr, ptr } { ptr getelementptr inbounds (ptr, ptr @_ZTVN10__cxxabiv120__si_class_type_infoE, i64 2), ptr @_ZTSNSt3__111__end_stateIcEE, ptr @_ZTINSt3__16__nodeIcEE }, comdat, align 8
@_ZTVNSt3__120__shared_ptr_pointerIPNS_13__empty_stateIcEENS_10shared_ptrIS2_E27__shared_ptr_default_deleteIS2_S2_EENS_9allocatorIS2_EEEE = linkonce_odr hidden unnamed_addr constant { [7 x ptr] } { [7 x ptr] [ptr null, ptr @_ZTINSt3__120__shared_ptr_pointerIPNS_13__empty_stateIcEENS_10shared_ptrIS2_E27__shared_ptr_default_deleteIS2_S2_EENS_9allocatorIS2_EEEE, ptr @_ZNSt3__119__shared_weak_countD2Ev, ptr @_ZNSt3__120__shared_ptr_pointerIPNS_13__empty_stateIcEENS_10shared_ptrIS2_E27__shared_ptr_default_deleteIS2_S2_EENS_9allocatorIS2_EEED0Ev, ptr @_ZNSt3__120__shared_ptr_pointerIPNS_13__empty_stateIcEENS_10shared_ptrIS2_E27__shared_ptr_default_deleteIS2_S2_EENS_9allocatorIS2_EEE16__on_zero_sharedEv, ptr @_ZNKSt3__120__shared_ptr_pointerIPNS_13__empty_stateIcEENS_10shared_ptrIS2_E27__shared_ptr_default_deleteIS2_S2_EENS_9allocatorIS2_EEE13__get_deleterERKSt9type_info, ptr @_ZNSt3__120__shared_ptr_pointerIPNS_13__empty_stateIcEENS_10shared_ptrIS2_E27__shared_ptr_default_deleteIS2_S2_EENS_9allocatorIS2_EEE21__on_zero_shared_weakEv] }, comdat, align 8
@_ZTSNSt3__120__shared_ptr_pointerIPNS_13__empty_stateIcEENS_10shared_ptrIS2_E27__shared_ptr_default_deleteIS2_S2_EENS_9allocatorIS2_EEEE = linkonce_odr hidden constant [133 x i8] c"NSt3__120__shared_ptr_pointerIPNS_13__empty_stateIcEENS_10shared_ptrIS2_E27__shared_ptr_default_deleteIS2_S2_EENS_9allocatorIS2_EEEE\00", comdat, align 1
@_ZTINSt3__119__shared_weak_countE = external constant ptr
@_ZTINSt3__120__shared_ptr_pointerIPNS_13__empty_stateIcEENS_10shared_ptrIS2_E27__shared_ptr_default_deleteIS2_S2_EENS_9allocatorIS2_EEEE = linkonce_odr hidden constant { ptr, ptr, ptr } { ptr getelementptr inbounds (ptr, ptr @_ZTVN10__cxxabiv120__si_class_type_infoE, i64 2), ptr @_ZTSNSt3__120__shared_ptr_pointerIPNS_13__empty_stateIcEENS_10shared_ptrIS2_E27__shared_ptr_default_deleteIS2_S2_EENS_9allocatorIS2_EEEE, ptr @_ZTINSt3__119__shared_weak_countE }, comdat, align 8
@_ZTSNSt3__110shared_ptrINS_13__empty_stateIcEEE27__shared_ptr_default_deleteIS2_S2_EE = linkonce_odr hidden constant [82 x i8] c"NSt3__110shared_ptrINS_13__empty_stateIcEEE27__shared_ptr_default_deleteIS2_S2_EE\00", comdat, align 1
@_ZTVNSt3__113__empty_stateIcEE = linkonce_odr hidden unnamed_addr constant { [6 x ptr] } { [6 x ptr] [ptr null, ptr @_ZTINSt3__113__empty_stateIcEE, ptr @_ZNSt3__116__owns_one_stateIcED2Ev, ptr @_ZNSt3__113__empty_stateIcED0Ev, ptr @_ZNKSt3__113__empty_stateIcE6__execERNS_7__stateIcEE, ptr @_ZNKSt3__16__nodeIcE12__exec_splitEbRNS_7__stateIcEE] }, comdat, align 8
@_ZTSNSt3__113__empty_stateIcEE = linkonce_odr hidden constant [27 x i8] c"NSt3__113__empty_stateIcEE\00", comdat, align 1
@_ZTSNSt3__116__owns_one_stateIcEE = linkonce_odr hidden constant [30 x i8] c"NSt3__116__owns_one_stateIcEE\00", comdat, align 1
@_ZTSNSt3__115__has_one_stateIcEE = linkonce_odr hidden constant [29 x i8] c"NSt3__115__has_one_stateIcEE\00", comdat, align 1
@_ZTINSt3__115__has_one_stateIcEE = linkonce_odr hidden constant { ptr, ptr, ptr } { ptr getelementptr inbounds (ptr, ptr @_ZTVN10__cxxabiv120__si_class_type_infoE, i64 2), ptr @_ZTSNSt3__115__has_one_stateIcEE, ptr @_ZTINSt3__16__nodeIcEE }, comdat, align 8
@_ZTINSt3__116__owns_one_stateIcEE = linkonce_odr hidden constant { ptr, ptr, ptr } { ptr getelementptr inbounds (ptr, ptr @_ZTVN10__cxxabiv120__si_class_type_infoE, i64 2), ptr @_ZTSNSt3__116__owns_one_stateIcEE, ptr @_ZTINSt3__115__has_one_stateIcEE }, comdat, align 8
@_ZTINSt3__113__empty_stateIcEE = linkonce_odr hidden constant { ptr, ptr, ptr } { ptr getelementptr inbounds (ptr, ptr @_ZTVN10__cxxabiv120__si_class_type_infoE, i64 2), ptr @_ZTSNSt3__113__empty_stateIcEE, ptr @_ZTINSt3__116__owns_one_stateIcEE }, comdat, align 8
@_ZTVNSt3__116__owns_one_stateIcEE = linkonce_odr hidden unnamed_addr constant { [6 x ptr] } { [6 x ptr] [ptr null, ptr @_ZTINSt3__116__owns_one_stateIcEE, ptr @_ZNSt3__116__owns_one_stateIcED2Ev, ptr @_ZNSt3__116__owns_one_stateIcED0Ev, ptr @_ZNKSt3__16__nodeIcE6__execERNS_7__stateIcEE, ptr @_ZNKSt3__16__nodeIcE12__exec_splitEbRNS_7__stateIcEE] }, comdat, align 8
@_ZTVNSt3__120__l_anchor_multilineIcEE = linkonce_odr hidden unnamed_addr constant { [6 x ptr] } { [6 x ptr] [ptr null, ptr @_ZTINSt3__120__l_anchor_multilineIcEE, ptr @_ZNSt3__116__owns_one_stateIcED2Ev, ptr @_ZNSt3__120__l_anchor_multilineIcED0Ev, ptr @_ZNKSt3__120__l_anchor_multilineIcE6__execERNS_7__stateIcEE, ptr @_ZNKSt3__16__nodeIcE12__exec_splitEbRNS_7__stateIcEE] }, comdat, align 8
@_ZTSNSt3__120__l_anchor_multilineIcEE = linkonce_odr hidden constant [34 x i8] c"NSt3__120__l_anchor_multilineIcEE\00", comdat, align 1
@_ZTINSt3__120__l_anchor_multilineIcEE = linkonce_odr hidden constant { ptr, ptr, ptr } { ptr getelementptr inbounds (ptr, ptr @_ZTVN10__cxxabiv120__si_class_type_infoE, i64 2), ptr @_ZTSNSt3__120__l_anchor_multilineIcEE, ptr @_ZTINSt3__116__owns_one_stateIcEE }, comdat, align 8
@_ZTVNSt3__120__r_anchor_multilineIcEE = linkonce_odr hidden unnamed_addr constant { [6 x ptr] } { [6 x ptr] [ptr null, ptr @_ZTINSt3__120__r_anchor_multilineIcEE, ptr @_ZNSt3__116__owns_one_stateIcED2Ev, ptr @_ZNSt3__120__r_anchor_multilineIcED0Ev, ptr @_ZNKSt3__120__r_anchor_multilineIcE6__execERNS_7__stateIcEE, ptr @_ZNKSt3__16__nodeIcE12__exec_splitEbRNS_7__stateIcEE] }, comdat, align 8
@_ZTSNSt3__120__r_anchor_multilineIcEE = linkonce_odr hidden constant [34 x i8] c"NSt3__120__r_anchor_multilineIcEE\00", comdat, align 1
@_ZTINSt3__120__r_anchor_multilineIcEE = linkonce_odr hidden constant { ptr, ptr, ptr } { ptr getelementptr inbounds (ptr, ptr @_ZTVN10__cxxabiv120__si_class_type_infoE, i64 2), ptr @_ZTSNSt3__120__r_anchor_multilineIcEE, ptr @_ZTINSt3__116__owns_one_stateIcEE }, comdat, align 8
@_ZTVNSt3__115__word_boundaryIcNS_12regex_traitsIcEEEE = linkonce_odr hidden unnamed_addr constant { [6 x ptr] } { [6 x ptr] [ptr null, ptr @_ZTINSt3__115__word_boundaryIcNS_12regex_traitsIcEEEE, ptr @_ZNSt3__115__word_boundaryIcNS_12regex_traitsIcEEED2Ev, ptr @_ZNSt3__115__word_boundaryIcNS_12regex_traitsIcEEED0Ev, ptr @_ZNKSt3__115__word_boundaryIcNS_12regex_traitsIcEEE6__execERNS_7__stateIcEE, ptr @_ZNKSt3__16__nodeIcE12__exec_splitEbRNS_7__stateIcEE] }, comdat, align 8
@_ZTSNSt3__115__word_boundaryIcNS_12regex_traitsIcEEEE = linkonce_odr hidden constant [50 x i8] c"NSt3__115__word_boundaryIcNS_12regex_traitsIcEEEE\00", comdat, align 1
@_ZTINSt3__115__word_boundaryIcNS_12regex_traitsIcEEEE = linkonce_odr hidden constant { ptr, ptr, ptr } { ptr getelementptr inbounds (ptr, ptr @_ZTVN10__cxxabiv120__si_class_type_infoE, i64 2), ptr @_ZTSNSt3__115__word_boundaryIcNS_12regex_traitsIcEEEE, ptr @_ZTINSt3__116__owns_one_stateIcEE }, comdat, align 8
@_ZTVNSt3__111__lookaheadIcNS_12regex_traitsIcEEEE = linkonce_odr hidden unnamed_addr constant { [6 x ptr] } { [6 x ptr] [ptr null, ptr @_ZTINSt3__111__lookaheadIcNS_12regex_traitsIcEEEE, ptr @_ZNSt3__111__lookaheadIcNS_12regex_traitsIcEEED2Ev, ptr @_ZNSt3__111__lookaheadIcNS_12regex_traitsIcEEED0Ev, ptr @_ZNKSt3__111__lookaheadIcNS_12regex_traitsIcEEE6__execERNS_7__stateIcEE, ptr @_ZNKSt3__16__nodeIcE12__exec_splitEbRNS_7__stateIcEE] }, comdat, align 8
@_ZTSNSt3__111__lookaheadIcNS_12regex_traitsIcEEEE = linkonce_odr hidden constant [46 x i8] c"NSt3__111__lookaheadIcNS_12regex_traitsIcEEEE\00", comdat, align 1
@_ZTINSt3__111__lookaheadIcNS_12regex_traitsIcEEEE = linkonce_odr hidden constant { ptr, ptr, ptr } { ptr getelementptr inbounds (ptr, ptr @_ZTVN10__cxxabiv120__si_class_type_infoE, i64 2), ptr @_ZTSNSt3__111__lookaheadIcNS_12regex_traitsIcEEEE, ptr @_ZTINSt3__116__owns_one_stateIcEE }, comdat, align 8
@.str.11 = private unnamed_addr constant [7 x i8] c"vector\00", align 1
@_ZTISt12length_error = external constant ptr
@_ZTVSt12length_error = external unnamed_addr constant { [5 x ptr] }, align 8
@_ZTISt20bad_array_new_length = external constant ptr
@_ZTVNSt3__123__match_any_but_newlineIcEE = linkonce_odr hidden unnamed_addr constant { [6 x ptr] } { [6 x ptr] [ptr null, ptr @_ZTINSt3__123__match_any_but_newlineIcEE, ptr @_ZNSt3__116__owns_one_stateIcED2Ev, ptr @_ZNSt3__123__match_any_but_newlineIcED0Ev, ptr @_ZNKSt3__123__match_any_but_newlineIcE6__execERNS_7__stateIcEE, ptr @_ZNKSt3__16__nodeIcE12__exec_splitEbRNS_7__stateIcEE] }, comdat, align 8
@_ZTSNSt3__123__match_any_but_newlineIcEE = linkonce_odr hidden constant [37 x i8] c"NSt3__123__match_any_but_newlineIcEE\00", comdat, align 1
@_ZTINSt3__123__match_any_but_newlineIcEE = linkonce_odr hidden constant { ptr, ptr, ptr } { ptr getelementptr inbounds (ptr, ptr @_ZTVN10__cxxabiv120__si_class_type_infoE, i64 2), ptr @_ZTSNSt3__123__match_any_but_newlineIcEE, ptr @_ZTINSt3__116__owns_one_stateIcEE }, comdat, align 8
@_ZTVNSt3__118__match_char_icaseIcNS_12regex_traitsIcEEEE = linkonce_odr hidden unnamed_addr constant { [6 x ptr] } { [6 x ptr] [ptr null, ptr @_ZTINSt3__118__match_char_icaseIcNS_12regex_traitsIcEEEE, ptr @_ZNSt3__118__match_char_icaseIcNS_12regex_traitsIcEEED2Ev, ptr @_ZNSt3__118__match_char_icaseIcNS_12regex_traitsIcEEED0Ev, ptr @_ZNKSt3__118__match_char_icaseIcNS_12regex_traitsIcEEE6__execERNS_7__stateIcEE, ptr @_ZNKSt3__16__nodeIcE12__exec_splitEbRNS_7__stateIcEE] }, comdat, align 8
@_ZTSNSt3__118__match_char_icaseIcNS_12regex_traitsIcEEEE = linkonce_odr hidden constant [53 x i8] c"NSt3__118__match_char_icaseIcNS_12regex_traitsIcEEEE\00", comdat, align 1
@_ZTINSt3__118__match_char_icaseIcNS_12regex_traitsIcEEEE = linkonce_odr hidden constant { ptr, ptr, ptr } { ptr getelementptr inbounds (ptr, ptr @_ZTVN10__cxxabiv120__si_class_type_infoE, i64 2), ptr @_ZTSNSt3__118__match_char_icaseIcNS_12regex_traitsIcEEEE, ptr @_ZTINSt3__116__owns_one_stateIcEE }, comdat, align 8
@_ZTVNSt3__120__match_char_collateIcNS_12regex_traitsIcEEEE = linkonce_odr hidden unnamed_addr constant { [6 x ptr] } { [6 x ptr] [ptr null, ptr @_ZTINSt3__120__match_char_collateIcNS_12regex_traitsIcEEEE, ptr @_ZNSt3__120__match_char_collateIcNS_12regex_traitsIcEEED2Ev, ptr @_ZNSt3__120__match_char_collateIcNS_12regex_traitsIcEEED0Ev, ptr @_ZNKSt3__120__match_char_collateIcNS_12regex_traitsIcEEE6__execERNS_7__stateIcEE, ptr @_ZNKSt3__16__nodeIcE12__exec_splitEbRNS_7__stateIcEE] }, comdat, align 8
@_ZTSNSt3__120__match_char_collateIcNS_12regex_traitsIcEEEE = linkonce_odr hidden constant [55 x i8] c"NSt3__120__match_char_collateIcNS_12regex_traitsIcEEEE\00", comdat, align 1
@_ZTINSt3__120__match_char_collateIcNS_12regex_traitsIcEEEE = linkonce_odr hidden constant { ptr, ptr, ptr } { ptr getelementptr inbounds (ptr, ptr @_ZTVN10__cxxabiv120__si_class_type_infoE, i64 2), ptr @_ZTSNSt3__120__match_char_collateIcNS_12regex_traitsIcEEEE, ptr @_ZTINSt3__116__owns_one_stateIcEE }, comdat, align 8
@_ZTVNSt3__112__match_charIcEE = linkonce_odr hidden unnamed_addr constant { [6 x ptr] } { [6 x ptr] [ptr null, ptr @_ZTINSt3__112__match_charIcEE, ptr @_ZNSt3__116__owns_one_stateIcED2Ev, ptr @_ZNSt3__112__match_charIcED0Ev, ptr @_ZNKSt3__112__match_charIcE6__execERNS_7__stateIcEE, ptr @_ZNKSt3__16__nodeIcE12__exec_splitEbRNS_7__stateIcEE] }, comdat, align 8
@_ZTSNSt3__112__match_charIcEE = linkonce_odr hidden constant [26 x i8] c"NSt3__112__match_charIcEE\00", comdat, align 1
@_ZTINSt3__112__match_charIcEE = linkonce_odr hidden constant { ptr, ptr, ptr } { ptr getelementptr inbounds (ptr, ptr @_ZTVN10__cxxabiv120__si_class_type_infoE, i64 2), ptr @_ZTSNSt3__112__match_charIcEE, ptr @_ZTINSt3__116__owns_one_stateIcEE }, comdat, align 8
@_ZTVNSt3__116__back_ref_icaseIcNS_12regex_traitsIcEEEE = linkonce_odr hidden unnamed_addr constant { [6 x ptr] } { [6 x ptr] [ptr null, ptr @_ZTINSt3__116__back_ref_icaseIcNS_12regex_traitsIcEEEE, ptr @_ZNSt3__116__back_ref_icaseIcNS_12regex_traitsIcEEED2Ev, ptr @_ZNSt3__116__back_ref_icaseIcNS_12regex_traitsIcEEED0Ev, ptr @_ZNKSt3__116__back_ref_icaseIcNS_12regex_traitsIcEEE6__execERNS_7__stateIcEE, ptr @_ZNKSt3__16__nodeIcE12__exec_splitEbRNS_7__stateIcEE] }, comdat, align 8
@_ZTSNSt3__116__back_ref_icaseIcNS_12regex_traitsIcEEEE = linkonce_odr hidden constant [51 x i8] c"NSt3__116__back_ref_icaseIcNS_12regex_traitsIcEEEE\00", comdat, align 1
@_ZTINSt3__116__back_ref_icaseIcNS_12regex_traitsIcEEEE = linkonce_odr hidden constant { ptr, ptr, ptr } { ptr getelementptr inbounds (ptr, ptr @_ZTVN10__cxxabiv120__si_class_type_infoE, i64 2), ptr @_ZTSNSt3__116__back_ref_icaseIcNS_12regex_traitsIcEEEE, ptr @_ZTINSt3__116__owns_one_stateIcEE }, comdat, align 8
@_ZTVNSt3__118__back_ref_collateIcNS_12regex_traitsIcEEEE = linkonce_odr hidden unnamed_addr constant { [6 x ptr] } { [6 x ptr] [ptr null, ptr @_ZTINSt3__118__back_ref_collateIcNS_12regex_traitsIcEEEE, ptr @_ZNSt3__118__back_ref_collateIcNS_12regex_traitsIcEEED2Ev, ptr @_ZNSt3__118__back_ref_collateIcNS_12regex_traitsIcEEED0Ev, ptr @_ZNKSt3__118__back_ref_collateIcNS_12regex_traitsIcEEE6__execERNS_7__stateIcEE, ptr @_ZNKSt3__16__nodeIcE12__exec_splitEbRNS_7__stateIcEE] }, comdat, align 8
@_ZTSNSt3__118__back_ref_collateIcNS_12regex_traitsIcEEEE = linkonce_odr hidden constant [53 x i8] c"NSt3__118__back_ref_collateIcNS_12regex_traitsIcEEEE\00", comdat, align 1
@_ZTINSt3__118__back_ref_collateIcNS_12regex_traitsIcEEEE = linkonce_odr hidden constant { ptr, ptr, ptr } { ptr getelementptr inbounds (ptr, ptr @_ZTVN10__cxxabiv120__si_class_type_infoE, i64 2), ptr @_ZTSNSt3__118__back_ref_collateIcNS_12regex_traitsIcEEEE, ptr @_ZTINSt3__116__owns_one_stateIcEE }, comdat, align 8
@_ZTVNSt3__110__back_refIcEE = linkonce_odr hidden unnamed_addr constant { [6 x ptr] } { [6 x ptr] [ptr null, ptr @_ZTINSt3__110__back_refIcEE, ptr @_ZNSt3__116__owns_one_stateIcED2Ev, ptr @_ZNSt3__110__back_refIcED0Ev, ptr @_ZNKSt3__110__back_refIcE6__execERNS_7__stateIcEE, ptr @_ZNKSt3__16__nodeIcE12__exec_splitEbRNS_7__stateIcEE] }, comdat, align 8
@_ZTSNSt3__110__back_refIcEE = linkonce_odr hidden constant [24 x i8] c"NSt3__110__back_refIcEE\00", comdat, align 1
@_ZTINSt3__110__back_refIcEE = linkonce_odr hidden constant { ptr, ptr, ptr } { ptr getelementptr inbounds (ptr, ptr @_ZTVN10__cxxabiv120__si_class_type_infoE, i64 2), ptr @_ZTSNSt3__110__back_refIcEE, ptr @_ZTINSt3__116__owns_one_stateIcEE }, comdat, align 8
@_ZTVNSt3__120__bracket_expressionIcNS_12regex_traitsIcEEEE = linkonce_odr hidden unnamed_addr constant { [6 x ptr] } { [6 x ptr] [ptr null, ptr @_ZTINSt3__120__bracket_expressionIcNS_12regex_traitsIcEEEE, ptr @_ZNSt3__120__bracket_expressionIcNS_12regex_traitsIcEEED2Ev, ptr @_ZNSt3__120__bracket_expressionIcNS_12regex_traitsIcEEED0Ev, ptr @_ZNKSt3__120__bracket_expressionIcNS_12regex_traitsIcEEE6__execERNS_7__stateIcEE, ptr @_ZNKSt3__16__nodeIcE12__exec_splitEbRNS_7__stateIcEE] }, comdat, align 8
@_ZTSNSt3__120__bracket_expressionIcNS_12regex_traitsIcEEEE = linkonce_odr hidden constant [55 x i8] c"NSt3__120__bracket_expressionIcNS_12regex_traitsIcEEEE\00", comdat, align 1
@_ZTINSt3__120__bracket_expressionIcNS_12regex_traitsIcEEEE = linkonce_odr hidden constant { ptr, ptr, ptr } { ptr getelementptr inbounds (ptr, ptr @_ZTVN10__cxxabiv120__si_class_type_infoE, i64 2), ptr @_ZTSNSt3__120__bracket_expressionIcNS_12regex_traitsIcEEEE, ptr @_ZTINSt3__116__owns_one_stateIcEE }, comdat, align 8
@.str.13 = private unnamed_addr constant [13 x i8] c"basic_string\00", align 1
@_ZTVNSt3__128__begin_marked_subexpressionIcEE = linkonce_odr hidden unnamed_addr constant { [6 x ptr] } { [6 x ptr] [ptr null, ptr @_ZTINSt3__128__begin_marked_subexpressionIcEE, ptr @_ZNSt3__116__owns_one_stateIcED2Ev, ptr @_ZNSt3__128__begin_marked_subexpressionIcED0Ev, ptr @_ZNKSt3__128__begin_marked_subexpressionIcE6__execERNS_7__stateIcEE, ptr @_ZNKSt3__16__nodeIcE12__exec_splitEbRNS_7__stateIcEE] }, comdat, align 8
@_ZTSNSt3__128__begin_marked_subexpressionIcEE = linkonce_odr hidden constant [42 x i8] c"NSt3__128__begin_marked_subexpressionIcEE\00", comdat, align 1
@_ZTINSt3__128__begin_marked_subexpressionIcEE = linkonce_odr hidden constant { ptr, ptr, ptr } { ptr getelementptr inbounds (ptr, ptr @_ZTVN10__cxxabiv120__si_class_type_infoE, i64 2), ptr @_ZTSNSt3__128__begin_marked_subexpressionIcEE, ptr @_ZTINSt3__116__owns_one_stateIcEE }, comdat, align 8
@_ZTVNSt3__126__end_marked_subexpressionIcEE = linkonce_odr hidden unnamed_addr constant { [6 x ptr] } { [6 x ptr] [ptr null, ptr @_ZTINSt3__126__end_marked_subexpressionIcEE, ptr @_ZNSt3__116__owns_one_stateIcED2Ev, ptr @_ZNSt3__126__end_marked_subexpressionIcED0Ev, ptr @_ZNKSt3__126__end_marked_subexpressionIcE6__execERNS_7__stateIcEE, ptr @_ZNKSt3__16__nodeIcE12__exec_splitEbRNS_7__stateIcEE] }, comdat, align 8
@_ZTSNSt3__126__end_marked_subexpressionIcEE = linkonce_odr hidden constant [40 x i8] c"NSt3__126__end_marked_subexpressionIcEE\00", comdat, align 1
@_ZTINSt3__126__end_marked_subexpressionIcEE = linkonce_odr hidden constant { ptr, ptr, ptr } { ptr getelementptr inbounds (ptr, ptr @_ZTVN10__cxxabiv120__si_class_type_infoE, i64 2), ptr @_ZTSNSt3__126__end_marked_subexpressionIcEE, ptr @_ZTINSt3__116__owns_one_stateIcEE }, comdat, align 8
@_ZTVNSt3__16__loopIcEE = linkonce_odr hidden unnamed_addr constant { [6 x ptr] } { [6 x ptr] [ptr null, ptr @_ZTINSt3__16__loopIcEE, ptr @_ZNSt3__117__owns_two_statesIcED2Ev, ptr @_ZNSt3__16__loopIcED0Ev, ptr @_ZNKSt3__16__loopIcE6__execERNS_7__stateIcEE, ptr @_ZNKSt3__16__loopIcE12__exec_splitEbRNS_7__stateIcEE] }, comdat, align 8
@_ZTSNSt3__16__loopIcEE = linkonce_odr hidden constant [19 x i8] c"NSt3__16__loopIcEE\00", comdat, align 1
@_ZTSNSt3__117__owns_two_statesIcEE = linkonce_odr hidden constant [31 x i8] c"NSt3__117__owns_two_statesIcEE\00", comdat, align 1
@_ZTINSt3__117__owns_two_statesIcEE = linkonce_odr hidden constant { ptr, ptr, ptr } { ptr getelementptr inbounds (ptr, ptr @_ZTVN10__cxxabiv120__si_class_type_infoE, i64 2), ptr @_ZTSNSt3__117__owns_two_statesIcEE, ptr @_ZTINSt3__116__owns_one_stateIcEE }, comdat, align 8
@_ZTINSt3__16__loopIcEE = linkonce_odr hidden constant { ptr, ptr, ptr } { ptr getelementptr inbounds (ptr, ptr @_ZTVN10__cxxabiv120__si_class_type_infoE, i64 2), ptr @_ZTSNSt3__16__loopIcEE, ptr @_ZTINSt3__117__owns_two_statesIcEE }, comdat, align 8
@_ZTVNSt3__117__owns_two_statesIcEE = linkonce_odr hidden unnamed_addr constant { [6 x ptr] } { [6 x ptr] [ptr null, ptr @_ZTINSt3__117__owns_two_statesIcEE, ptr @_ZNSt3__117__owns_two_statesIcED2Ev, ptr @_ZNSt3__117__owns_two_statesIcED0Ev, ptr @_ZNKSt3__16__nodeIcE6__execERNS_7__stateIcEE, ptr @_ZNKSt3__16__nodeIcE12__exec_splitEbRNS_7__stateIcEE] }, comdat, align 8
@_ZTVNSt3__117__repeat_one_loopIcEE = linkonce_odr hidden unnamed_addr constant { [6 x ptr] } { [6 x ptr] [ptr null, ptr @_ZTINSt3__117__repeat_one_loopIcEE, ptr @_ZNSt3__16__nodeIcED2Ev, ptr @_ZNSt3__117__repeat_one_loopIcED0Ev, ptr @_ZNKSt3__117__repeat_one_loopIcE6__execERNS_7__stateIcEE, ptr @_ZNKSt3__16__nodeIcE12__exec_splitEbRNS_7__stateIcEE] }, comdat, align 8
@_ZTSNSt3__117__repeat_one_loopIcEE = linkonce_odr hidden constant [31 x i8] c"NSt3__117__repeat_one_loopIcEE\00", comdat, align 1
@_ZTINSt3__117__repeat_one_loopIcEE = linkonce_odr hidden constant { ptr, ptr, ptr } { ptr getelementptr inbounds (ptr, ptr @_ZTVN10__cxxabiv120__si_class_type_infoE, i64 2), ptr @_ZTSNSt3__117__repeat_one_loopIcEE, ptr @_ZTINSt3__115__has_one_stateIcEE }, comdat, align 8
@_ZTVNSt3__111__alternateIcEE = linkonce_odr hidden unnamed_addr constant { [6 x ptr] } { [6 x ptr] [ptr null, ptr @_ZTINSt3__111__alternateIcEE, ptr @_ZNSt3__117__owns_two_statesIcED2Ev, ptr @_ZNSt3__111__alternateIcED0Ev, ptr @_ZNKSt3__111__alternateIcE6__execERNS_7__stateIcEE, ptr @_ZNKSt3__111__alternateIcE12__exec_splitEbRNS_7__stateIcEE] }, comdat, align 8
@_ZTSNSt3__111__alternateIcEE = linkonce_odr hidden constant [25 x i8] c"NSt3__111__alternateIcEE\00", comdat, align 1
@_ZTINSt3__111__alternateIcEE = linkonce_odr hidden constant { ptr, ptr, ptr } { ptr getelementptr inbounds (ptr, ptr @_ZTVN10__cxxabiv120__si_class_type_infoE, i64 2), ptr @_ZTSNSt3__111__alternateIcEE, ptr @_ZTINSt3__117__owns_two_statesIcEE }, comdat, align 8
@_ZTVNSt3__121__empty_non_own_stateIcEE = linkonce_odr hidden unnamed_addr constant { [6 x ptr] } { [6 x ptr] [ptr null, ptr @_ZTINSt3__121__empty_non_own_stateIcEE, ptr @_ZNSt3__16__nodeIcED2Ev, ptr @_ZNSt3__121__empty_non_own_stateIcED0Ev, ptr @_ZNKSt3__121__empty_non_own_stateIcE6__execERNS_7__stateIcEE, ptr @_ZNKSt3__16__nodeIcE12__exec_splitEbRNS_7__stateIcEE] }, comdat, align 8
@_ZTSNSt3__121__empty_non_own_stateIcEE = linkonce_odr hidden constant [35 x i8] c"NSt3__121__empty_non_own_stateIcEE\00", comdat, align 1
@_ZTINSt3__121__empty_non_own_stateIcEE = linkonce_odr hidden constant { ptr, ptr, ptr } { ptr getelementptr inbounds (ptr, ptr @_ZTVN10__cxxabiv120__si_class_type_infoE, i64 2), ptr @_ZTSNSt3__121__empty_non_own_stateIcEE, ptr @_ZTINSt3__115__has_one_stateIcEE }, comdat, align 8
@_ZTVNSt3__111__match_anyIcEE = linkonce_odr hidden unnamed_addr constant { [6 x ptr] } { [6 x ptr] [ptr null, ptr @_ZTINSt3__111__match_anyIcEE, ptr @_ZNSt3__116__owns_one_stateIcED2Ev, ptr @_ZNSt3__111__match_anyIcED0Ev, ptr @_ZNKSt3__111__match_anyIcE6__execERNS_7__stateIcEE, ptr @_ZNKSt3__16__nodeIcE12__exec_splitEbRNS_7__stateIcEE] }, comdat, align 8
@_ZTSNSt3__111__match_anyIcEE = linkonce_odr hidden constant [25 x i8] c"NSt3__111__match_anyIcEE\00", comdat, align 1
@_ZTINSt3__111__match_anyIcEE = linkonce_odr hidden constant { ptr, ptr, ptr } { ptr getelementptr inbounds (ptr, ptr @_ZTVN10__cxxabiv120__si_class_type_infoE, i64 2), ptr @_ZTSNSt3__111__match_anyIcEE, ptr @_ZTINSt3__116__owns_one_stateIcEE }, comdat, align 8
@llvm.global_ctors = appending global [1 x { i32, ptr, ptr }] [{ i32, ptr, ptr } { i32 65535, ptr @_GLOBAL__sub_I_benchmark_register.cc, ptr null }]

@_ZN9benchmark8internal9BenchmarkD1Ev = hidden unnamed_addr alias void (ptr), ptr @_ZN9benchmark8internal9BenchmarkD2Ev

declare noundef i32 @_ZN9benchmark8internal17InitializeStreamsEv() local_unnamed_addr #0

; Function Attrs: nofree uwtable
define hidden noundef nonnull ptr @_ZN9benchmark8internal17BenchmarkFamilies11GetInstanceEv() local_unnamed_addr #1 align 2 personality ptr @__gxx_personality_v0 {
entry:
  %0 = load atomic i8, ptr @_ZGVZN9benchmark8internal17BenchmarkFamilies11GetInstanceEvE8instance acquire, align 8
  %guard.uninitialized = icmp eq i8 %0, 0
  br i1 %guard.uninitialized, label %init.check, label %init.end, !prof !5

init.check:                                       ; preds = %entry
  %1 = tail call i32 @__cxa_guard_acquire(ptr nonnull @_ZGVZN9benchmark8internal17BenchmarkFamilies11GetInstanceEvE8instance) #29
  %tobool.not = icmp eq i32 %1, 0
  br i1 %tobool.not, label %init.end, label %invoke.cont

invoke.cont:                                      ; preds = %init.check
  tail call void @llvm.memset.p0.i64(ptr noundef nonnull align 8 dereferenceable(64) @_ZZN9benchmark8internal17BenchmarkFamilies11GetInstanceEvE8instance, i8 0, i64 64, i1 false)
  %2 = tail call i32 @__cxa_atexit(ptr nonnull @_ZN9benchmark8internal17BenchmarkFamiliesD2Ev, ptr nonnull @_ZZN9benchmark8internal17BenchmarkFamilies11GetInstanceEvE8instance, ptr nonnull @__dso_handle) #29
  tail call void @__cxa_guard_release(ptr nonnull @_ZGVZN9benchmark8internal17BenchmarkFamilies11GetInstanceEvE8instance) #29
  br label %init.end

init.end:                                         ; preds = %invoke.cont, %init.check, %entry
  ret ptr @_ZZN9benchmark8internal17BenchmarkFamilies11GetInstanceEvE8instance
}

; Function Attrs: nofree nounwind
declare i32 @__cxa_guard_acquire(ptr) local_unnamed_addr #2

declare i32 @__gxx_personality_v0(...)

; Function Attrs: inlinehint nounwind uwtable
define linkonce_odr hidden void @_ZN9benchmark8internal17BenchmarkFamiliesD2Ev(ptr noundef nonnull align 8 dereferenceable(64) %this) unnamed_addr #3 comdat align 2 personality ptr @__gxx_personality_v0 {
entry:
  %0 = load ptr, ptr %this, align 8, !tbaa !6
  %cmp.not.i.i = icmp eq ptr %0, null
  br i1 %cmp.not.i.i, label %_ZNSt3__16vectorINS_10unique_ptrIN9benchmark8internal9BenchmarkENS_14default_deleteIS4_EEEENS_9allocatorIS7_EEED2B7v170000Ev.exit, label %if.then.i.i

if.then.i.i:                                      ; preds = %entry
  %__end_.i.i.i.i = getelementptr inbounds %"class.std::__1::vector", ptr %this, i64 0, i32 1
  %1 = load ptr, ptr %__end_.i.i.i.i, align 8, !tbaa !13
  %cmp.not6.i.i.i.i = icmp eq ptr %1, %0
  br i1 %cmp.not6.i.i.i.i, label %_ZNSt3__16vectorINS_10unique_ptrIN9benchmark8internal9BenchmarkENS_14default_deleteIS4_EEEENS_9allocatorIS7_EEE7__clearB7v170000Ev.exit.i.i, label %while.body.i.i.i.i

while.body.i.i.i.i:                               ; preds = %if.then.i.i, %_ZNSt3__116allocator_traitsINS_9allocatorINS_10unique_ptrIN9benchmark8internal9BenchmarkENS_14default_deleteIS5_EEEEEEE7destroyB7v170000IS8_vEEvRS9_PT_.exit.i.i.i.i
  %__soon_to_be_end.07.i.i.i.i = phi ptr [ %incdec.ptr.i.i.i.i, %_ZNSt3__116allocator_traitsINS_9allocatorINS_10unique_ptrIN9benchmark8internal9BenchmarkENS_14default_deleteIS5_EEEEEEE7destroyB7v170000IS8_vEEvRS9_PT_.exit.i.i.i.i ], [ %1, %if.then.i.i ]
  %incdec.ptr.i.i.i.i = getelementptr inbounds %"class.std::__1::unique_ptr", ptr %__soon_to_be_end.07.i.i.i.i, i64 -1
  %2 = load ptr, ptr %incdec.ptr.i.i.i.i, align 8, !tbaa !14
  store ptr null, ptr %incdec.ptr.i.i.i.i, align 8, !tbaa !14
  %tobool.not.i.i.i.i.i.i.i.i = icmp eq ptr %2, null
  br i1 %tobool.not.i.i.i.i.i.i.i.i, label %_ZNSt3__116allocator_traitsINS_9allocatorINS_10unique_ptrIN9benchmark8internal9BenchmarkENS_14default_deleteIS5_EEEEEEE7destroyB7v170000IS8_vEEvRS9_PT_.exit.i.i.i.i, label %_ZNKSt3__114default_deleteIN9benchmark8internal9BenchmarkEEclB7v170000EPS3_.exit.i.i.i.i.i.i.i.i

_ZNKSt3__114default_deleteIN9benchmark8internal9BenchmarkEEclB7v170000EPS3_.exit.i.i.i.i.i.i.i.i: ; preds = %while.body.i.i.i.i
  %vtable.i.i.i.i.i.i.i.i.i = load ptr, ptr %2, align 8, !tbaa !15
  %vfn.i.i.i.i.i.i.i.i.i = getelementptr inbounds ptr, ptr %vtable.i.i.i.i.i.i.i.i.i, i64 1
  %3 = load ptr, ptr %vfn.i.i.i.i.i.i.i.i.i, align 8
  tail call void %3(ptr noundef nonnull align 8 dereferenceable(208) %2) #29
  br label %_ZNSt3__116allocator_traitsINS_9allocatorINS_10unique_ptrIN9benchmark8internal9BenchmarkENS_14default_deleteIS5_EEEEEEE7destroyB7v170000IS8_vEEvRS9_PT_.exit.i.i.i.i

_ZNSt3__116allocator_traitsINS_9allocatorINS_10unique_ptrIN9benchmark8internal9BenchmarkENS_14default_deleteIS5_EEEEEEE7destroyB7v170000IS8_vEEvRS9_PT_.exit.i.i.i.i: ; preds = %_ZNKSt3__114default_deleteIN9benchmark8internal9BenchmarkEEclB7v170000EPS3_.exit.i.i.i.i.i.i.i.i, %while.body.i.i.i.i
  %cmp.not.i.i.i.i = icmp eq ptr %incdec.ptr.i.i.i.i, %0
  br i1 %cmp.not.i.i.i.i, label %_ZNSt3__16vectorINS_10unique_ptrIN9benchmark8internal9BenchmarkENS_14default_deleteIS4_EEEENS_9allocatorIS7_EEE7__clearB7v170000Ev.exit.loopexit.i.i, label %while.body.i.i.i.i

_ZNSt3__16vectorINS_10unique_ptrIN9benchmark8internal9BenchmarkENS_14default_deleteIS4_EEEENS_9allocatorIS7_EEE7__clearB7v170000Ev.exit.loopexit.i.i: ; preds = %_ZNSt3__116allocator_traitsINS_9allocatorINS_10unique_ptrIN9benchmark8internal9BenchmarkENS_14default_deleteIS5_EEEEEEE7destroyB7v170000IS8_vEEvRS9_PT_.exit.i.i.i.i
  %.pre10.i.i = load ptr, ptr %this, align 8, !tbaa !6
  br label %_ZNSt3__16vectorINS_10unique_ptrIN9benchmark8internal9BenchmarkENS_14default_deleteIS4_EEEENS_9allocatorIS7_EEE7__clearB7v170000Ev.exit.i.i

_ZNSt3__16vectorINS_10unique_ptrIN9benchmark8internal9BenchmarkENS_14default_deleteIS4_EEEENS_9allocatorIS7_EEE7__clearB7v170000Ev.exit.i.i: ; preds = %_ZNSt3__16vectorINS_10unique_ptrIN9benchmark8internal9BenchmarkENS_14default_deleteIS4_EEEENS_9allocatorIS7_EEE7__clearB7v170000Ev.exit.loopexit.i.i, %if.then.i.i
  %4 = phi ptr [ %.pre10.i.i, %_ZNSt3__16vectorINS_10unique_ptrIN9benchmark8internal9BenchmarkENS_14default_deleteIS4_EEEENS_9allocatorIS7_EEE7__clearB7v170000Ev.exit.loopexit.i.i ], [ %0, %if.then.i.i ]
  store ptr %0, ptr %__end_.i.i.i.i, align 8, !tbaa !13
  tail call void @_ZdlPv(ptr noundef %4) #30
  br label %_ZNSt3__16vectorINS_10unique_ptrIN9benchmark8internal9BenchmarkENS_14default_deleteIS4_EEEENS_9allocatorIS7_EEED2B7v170000Ev.exit

_ZNSt3__16vectorINS_10unique_ptrIN9benchmark8internal9BenchmarkENS_14default_deleteIS4_EEEENS_9allocatorIS7_EEED2B7v170000Ev.exit: ; preds = %entry, %_ZNSt3__16vectorINS_10unique_ptrIN9benchmark8internal9BenchmarkENS_14default_deleteIS4_EEEENS_9allocatorIS7_EEE7__clearB7v170000Ev.exit.i.i
  ret void
}

; Function Attrs: nofree nounwind
declare i32 @__cxa_atexit(ptr, ptr, ptr) local_unnamed_addr #2

; Function Attrs: nofree nounwind
declare void @__cxa_guard_release(ptr) local_unnamed_addr #2

; Function Attrs: uwtable
define hidden noundef i64 @_ZN9benchmark8internal17BenchmarkFamilies12AddBenchmarkENSt3__110unique_ptrINS0_9BenchmarkENS2_14default_deleteIS4_EEEE(ptr noundef nonnull align 8 dereferenceable(64) %this, ptr noundef %family) local_unnamed_addr #4 align 2 personality ptr @__gxx_personality_v0 {
entry:
  %mutex_ = getelementptr inbounds %"class.benchmark::internal::BenchmarkFamilies", ptr %this, i64 0, i32 1
  tail call void @_ZNSt3__15mutex4lockEv(ptr noundef nonnull align 8 dereferenceable(40) %mutex_)
  %__end_.i = getelementptr inbounds %"class.std::__1::vector", ptr %this, i64 0, i32 1
  %0 = load ptr, ptr %__end_.i, align 8, !tbaa !13
  %1 = load ptr, ptr %this, align 8, !tbaa !6
  %__end_cap_.i.i = getelementptr inbounds %"class.std::__1::vector", ptr %this, i64 0, i32 2
  %2 = load ptr, ptr %__end_cap_.i.i, align 8, !tbaa !14
  %cmp.i = icmp ult ptr %0, %2
  br i1 %cmp.i, label %if.then.i, label %if.else.i

if.then.i:                                        ; preds = %entry
  %3 = load ptr, ptr %family, align 8, !tbaa !14
  store ptr null, ptr %family, align 8, !tbaa !14
  store ptr %3, ptr %0, align 8, !tbaa !17
  %incdec.ptr.i.i = getelementptr inbounds %"class.std::__1::unique_ptr", ptr %0, i64 1
  store ptr %incdec.ptr.i.i, ptr %__end_.i, align 8, !tbaa !13
  br label %_ZN9benchmark9MutexLockD2Ev.exit

if.else.i:                                        ; preds = %entry
  invoke void @_ZNSt3__16vectorINS_10unique_ptrIN9benchmark8internal9BenchmarkENS_14default_deleteIS4_EEEENS_9allocatorIS7_EEE21__push_back_slow_pathIS7_EEvOT_(ptr noundef nonnull align 8 dereferenceable(24) %this, ptr noundef nonnull align 8 dereferenceable(8) %family)
          to label %_ZN9benchmark9MutexLockD2Ev.exit unwind label %_ZN9benchmark9MutexLockD2Ev.exit9

_ZN9benchmark9MutexLockD2Ev.exit:                 ; preds = %if.then.i, %if.else.i
  %sub.ptr.lhs.cast.i = ptrtoint ptr %0 to i64
  %sub.ptr.rhs.cast.i = ptrtoint ptr %1 to i64
  %sub.ptr.sub.i = sub i64 %sub.ptr.lhs.cast.i, %sub.ptr.rhs.cast.i
  %sub.ptr.div.i = ashr exact i64 %sub.ptr.sub.i, 3
  tail call void @_ZNSt3__15mutex6unlockEv(ptr noundef nonnull align 8 dereferenceable(40) %mutex_) #29
  ret i64 %sub.ptr.div.i

_ZN9benchmark9MutexLockD2Ev.exit9:                ; preds = %if.else.i
  %4 = landingpad { ptr, i32 }
          cleanup
  tail call void @_ZNSt3__15mutex6unlockEv(ptr noundef nonnull align 8 dereferenceable(40) %mutex_) #29
  resume { ptr, i32 } %4
}

; Function Attrs: mustprogress nocallback nofree nosync nounwind willreturn memory(argmem: readwrite)
declare void @llvm.lifetime.start.p0(i64 immarg, ptr nocapture) #5

; Function Attrs: mustprogress nocallback nofree nosync nounwind willreturn memory(argmem: readwrite)
declare void @llvm.lifetime.end.p0(i64 immarg, ptr nocapture) #5

; Function Attrs: uwtable
define hidden void @_ZN9benchmark8internal17BenchmarkFamilies15ClearBenchmarksEv(ptr noundef nonnull align 8 dereferenceable(64) %this) local_unnamed_addr #4 align 2 personality ptr @__gxx_personality_v0 {
entry:
  %mutex_ = getelementptr inbounds %"class.benchmark::internal::BenchmarkFamilies", ptr %this, i64 0, i32 1
  tail call void @_ZNSt3__15mutex4lockEv(ptr noundef nonnull align 8 dereferenceable(40) %mutex_)
  %__end_.i.i = getelementptr inbounds %"class.std::__1::vector", ptr %this, i64 0, i32 1
  %0 = load ptr, ptr %__end_.i.i, align 8, !tbaa !13
  %1 = load ptr, ptr %this, align 8, !tbaa !6
  %cmp.not6.i.i.i = icmp eq ptr %0, %1
  br i1 %cmp.not6.i.i.i, label %_ZN9benchmark9MutexLockD2Ev.exit, label %while.body.i.i.i

while.body.i.i.i:                                 ; preds = %entry, %_ZNSt3__116allocator_traitsINS_9allocatorINS_10unique_ptrIN9benchmark8internal9BenchmarkENS_14default_deleteIS5_EEEEEEE7destroyB7v170000IS8_vEEvRS9_PT_.exit.i.i.i
  %__soon_to_be_end.07.i.i.i = phi ptr [ %incdec.ptr.i.i.i, %_ZNSt3__116allocator_traitsINS_9allocatorINS_10unique_ptrIN9benchmark8internal9BenchmarkENS_14default_deleteIS5_EEEEEEE7destroyB7v170000IS8_vEEvRS9_PT_.exit.i.i.i ], [ %0, %entry ]
  %incdec.ptr.i.i.i = getelementptr inbounds %"class.std::__1::unique_ptr", ptr %__soon_to_be_end.07.i.i.i, i64 -1
  %2 = load ptr, ptr %incdec.ptr.i.i.i, align 8, !tbaa !14
  store ptr null, ptr %incdec.ptr.i.i.i, align 8, !tbaa !14
  %tobool.not.i.i.i.i.i.i.i = icmp eq ptr %2, null
  br i1 %tobool.not.i.i.i.i.i.i.i, label %_ZNSt3__116allocator_traitsINS_9allocatorINS_10unique_ptrIN9benchmark8internal9BenchmarkENS_14default_deleteIS5_EEEEEEE7destroyB7v170000IS8_vEEvRS9_PT_.exit.i.i.i, label %_ZNKSt3__114default_deleteIN9benchmark8internal9BenchmarkEEclB7v170000EPS3_.exit.i.i.i.i.i.i.i

_ZNKSt3__114default_deleteIN9benchmark8internal9BenchmarkEEclB7v170000EPS3_.exit.i.i.i.i.i.i.i: ; preds = %while.body.i.i.i
  %vtable.i.i.i.i.i.i.i.i = load ptr, ptr %2, align 8, !tbaa !15
  %vfn.i.i.i.i.i.i.i.i = getelementptr inbounds ptr, ptr %vtable.i.i.i.i.i.i.i.i, i64 1
  %3 = load ptr, ptr %vfn.i.i.i.i.i.i.i.i, align 8
  tail call void %3(ptr noundef nonnull align 8 dereferenceable(208) %2) #29
  br label %_ZNSt3__116allocator_traitsINS_9allocatorINS_10unique_ptrIN9benchmark8internal9BenchmarkENS_14default_deleteIS5_EEEEEEE7destroyB7v170000IS8_vEEvRS9_PT_.exit.i.i.i

_ZNSt3__116allocator_traitsINS_9allocatorINS_10unique_ptrIN9benchmark8internal9BenchmarkENS_14default_deleteIS5_EEEEEEE7destroyB7v170000IS8_vEEvRS9_PT_.exit.i.i.i: ; preds = %_ZNKSt3__114default_deleteIN9benchmark8internal9BenchmarkEEclB7v170000EPS3_.exit.i.i.i.i.i.i.i, %while.body.i.i.i
  %cmp.not.i.i.i = icmp eq ptr %incdec.ptr.i.i.i, %1
  br i1 %cmp.not.i.i.i, label %_ZN9benchmark9MutexLockD2Ev.exit, label %while.body.i.i.i

_ZN9benchmark9MutexLockD2Ev.exit:                 ; preds = %_ZNSt3__116allocator_traitsINS_9allocatorINS_10unique_ptrIN9benchmark8internal9BenchmarkENS_14default_deleteIS5_EEEEEEE7destroyB7v170000IS8_vEEvRS9_PT_.exit.i.i.i, %entry
  store ptr %1, ptr %__end_.i.i, align 8, !tbaa !13
  tail call void @_ZNSt3__16vectorINS_10unique_ptrIN9benchmark8internal9BenchmarkENS_14default_deleteIS4_EEEENS_9allocatorIS7_EEE13shrink_to_fitEv(ptr noundef nonnull align 8 dereferenceable(24) %this) #29
  tail call void @_ZNSt3__15mutex6unlockEv(ptr noundef nonnull align 8 dereferenceable(40) %mutex_) #29
  ret void
}

; Function Attrs: nounwind uwtable
define linkonce_odr hidden void @_ZNSt3__16vectorINS_10unique_ptrIN9benchmark8internal9BenchmarkENS_14default_deleteIS4_EEEENS_9allocatorIS7_EEE13shrink_to_fitEv(ptr noundef nonnull align 8 dereferenceable(24) %this) local_unnamed_addr #6 comdat align 2 personality ptr @__gxx_personality_v0 {
entry:
  %__end_cap_.i.i = getelementptr inbounds %"class.std::__1::vector", ptr %this, i64 0, i32 2
  %0 = load ptr, ptr %__end_cap_.i.i, align 8, !tbaa !14
  %1 = load ptr, ptr %this, align 8, !tbaa !6
  %sub.ptr.lhs.cast.i = ptrtoint ptr %0 to i64
  %sub.ptr.rhs.cast.i = ptrtoint ptr %1 to i64
  %sub.ptr.sub.i = sub i64 %sub.ptr.lhs.cast.i, %sub.ptr.rhs.cast.i
  %sub.ptr.div.i = ashr exact i64 %sub.ptr.sub.i, 3
  %__end_.i = getelementptr inbounds %"class.std::__1::vector", ptr %this, i64 0, i32 1
  %2 = load ptr, ptr %__end_.i, align 8, !tbaa !13
  %sub.ptr.lhs.cast.i10 = ptrtoint ptr %2 to i64
  %sub.ptr.sub.i12 = sub i64 %sub.ptr.lhs.cast.i10, %sub.ptr.rhs.cast.i
  %sub.ptr.div.i13 = ashr exact i64 %sub.ptr.sub.i12, 3
  %cmp = icmp ugt i64 %sub.ptr.div.i, %sub.ptr.div.i13
  br i1 %cmp, label %if.then, label %if.end

if.then:                                          ; preds = %entry
  %cmp.i = icmp eq ptr %2, %1
  br i1 %cmp.i, label %invoke.cont7.thread, label %if.else.i

invoke.cont7.thread:                              ; preds = %if.then
  %add.ptr.i30 = getelementptr inbounds %"class.std::__1::unique_ptr", ptr null, i64 %sub.ptr.div.i13
  store ptr %add.ptr.i30, ptr %this, align 8, !tbaa !14
  store ptr %add.ptr.i30, ptr %__end_.i, align 8, !tbaa !14
  store ptr %add.ptr.i30, ptr %__end_cap_.i.i, align 8, !tbaa !14
  br label %_ZNSt3__114__split_bufferINS_10unique_ptrIN9benchmark8internal9BenchmarkENS_14default_deleteIS4_EEEERNS_9allocatorIS7_EEE5clearB7v170000Ev.exit.i

if.else.i:                                        ; preds = %if.then
  %cmp.i.i.i = icmp slt i64 %sub.ptr.sub.i12, 0
  br i1 %cmp.i.i.i, label %if.then.i.i.i, label %_ZNSt3__119__allocate_at_leastB7v170000INS_9allocatorINS_10unique_ptrIN9benchmark8internal9BenchmarkENS_14default_deleteIS5_EEEEEEEENS_19__allocation_resultINS_16allocator_traitsIT_E7pointerEEERSC_m.exit.i

if.then.i.i.i:                                    ; preds = %if.else.i
  invoke void @_ZSt28__throw_bad_array_new_lengthB7v170000v() #31
          to label %.noexc unwind label %lpad

.noexc:                                           ; preds = %if.then.i.i.i
  unreachable

_ZNSt3__119__allocate_at_leastB7v170000INS_9allocatorINS_10unique_ptrIN9benchmark8internal9BenchmarkENS_14default_deleteIS5_EEEEEEEENS_19__allocation_resultINS_16allocator_traitsIT_E7pointerEEERSC_m.exit.i: ; preds = %if.else.i
  %call.i.i.i.i.i26 = invoke noalias noundef nonnull ptr @_Znwm(i64 noundef %sub.ptr.sub.i12) #32
          to label %invoke.cont4.i.i.preheader unwind label %lpad

invoke.cont4.i.i.preheader:                       ; preds = %_ZNSt3__119__allocate_at_leastB7v170000INS_9allocatorINS_10unique_ptrIN9benchmark8internal9BenchmarkENS_14default_deleteIS5_EEEEEEEENS_19__allocation_resultINS_16allocator_traitsIT_E7pointerEEERSC_m.exit.i
  %add.ptr.i = getelementptr %"class.std::__1::unique_ptr", ptr %call.i.i.i.i.i26, i64 %sub.ptr.div.i13
  %3 = add i64 %sub.ptr.lhs.cast.i10, -8
  %4 = sub i64 %3, %sub.ptr.rhs.cast.i
  %5 = lshr i64 %4, 3
  %6 = add nuw nsw i64 %5, 1
  %min.iters.check = icmp ult i64 %4, 216
  br i1 %min.iters.check, label %invoke.cont4.i.i.preheader45, label %vector.memcheck

vector.memcheck:                                  ; preds = %invoke.cont4.i.i.preheader
  %7 = add i64 %sub.ptr.lhs.cast.i10, -8
  %8 = sub i64 %7, %sub.ptr.rhs.cast.i
  %9 = and i64 %8, -8
  %10 = sub nuw nsw i64 -8, %9
  %uglygep = getelementptr i8, ptr %2, i64 %10
  %11 = add i64 %sub.ptr.sub.i12, -8
  %12 = sub i64 %11, %9
  %uglygep35 = getelementptr i8, ptr %call.i.i.i.i.i26, i64 %12
  %bound0 = icmp ult ptr %uglygep, %add.ptr.i
  %bound1 = icmp ult ptr %uglygep35, %2
  %found.conflict = and i1 %bound0, %bound1
  br i1 %found.conflict, label %invoke.cont4.i.i.preheader45, label %vector.ph

vector.ph:                                        ; preds = %vector.memcheck
  %n.vec = and i64 %6, -4
  %13 = mul i64 %n.vec, -8
  %ind.end = getelementptr i8, ptr %add.ptr.i, i64 %13
  %14 = mul i64 %n.vec, -8
  %ind.end36 = getelementptr i8, ptr %2, i64 %14
  br label %vector.body

vector.body:                                      ; preds = %vector.body, %vector.ph
  %index = phi i64 [ 0, %vector.ph ], [ %index.next, %vector.body ]
  %15 = mul i64 %index, -8
  %next.gep = getelementptr i8, ptr %add.ptr.i, i64 %15
  %16 = mul i64 %index, -8
  %next.gep39 = getelementptr i8, ptr %2, i64 %16
  %17 = getelementptr inbounds %"class.std::__1::unique_ptr", ptr %next.gep, i64 -1
  %18 = getelementptr inbounds %"class.std::__1::unique_ptr", ptr %next.gep39, i64 -1
  %19 = getelementptr inbounds ptr, ptr %18, i64 -1
  %wide.load = load <2 x ptr>, ptr %19, align 8, !tbaa !14, !alias.scope !19, !noalias !22
  %20 = getelementptr inbounds ptr, ptr %18, i64 -2
  %21 = getelementptr inbounds ptr, ptr %20, i64 -1
  %wide.load41 = load <2 x ptr>, ptr %21, align 8, !tbaa !14, !alias.scope !19, !noalias !22
  store <2 x ptr> zeroinitializer, ptr %19, align 8, !tbaa !14, !alias.scope !19, !noalias !22
  store <2 x ptr> zeroinitializer, ptr %21, align 8, !tbaa !14, !alias.scope !19, !noalias !22
  %22 = getelementptr inbounds ptr, ptr %17, i64 -1
  store <2 x ptr> %wide.load, ptr %22, align 8, !tbaa !17, !alias.scope !22
  %23 = getelementptr inbounds ptr, ptr %17, i64 -2
  %24 = getelementptr inbounds ptr, ptr %23, i64 -1
  store <2 x ptr> %wide.load41, ptr %24, align 8, !tbaa !17, !alias.scope !22
  %index.next = add nuw i64 %index, 4
  %25 = icmp eq i64 %index.next, %n.vec
  br i1 %25, label %middle.block, label %vector.body, !llvm.loop !24

middle.block:                                     ; preds = %vector.body
  %cmp.n = icmp eq i64 %6, %n.vec
  br i1 %cmp.n, label %invoke.cont7, label %invoke.cont4.i.i.preheader45

invoke.cont4.i.i.preheader45:                     ; preds = %vector.memcheck, %invoke.cont4.i.i.preheader, %middle.block
  %incdec.ptr.i.i.i.i21.i.i.ph = phi ptr [ %add.ptr.i, %vector.memcheck ], [ %add.ptr.i, %invoke.cont4.i.i.preheader ], [ %ind.end, %middle.block ]
  %__first1.sroa.1.020.i.i.ph = phi ptr [ %2, %vector.memcheck ], [ %2, %invoke.cont4.i.i.preheader ], [ %ind.end36, %middle.block ]
  br label %invoke.cont4.i.i

invoke.cont4.i.i:                                 ; preds = %invoke.cont4.i.i.preheader45, %invoke.cont4.i.i
  %incdec.ptr.i.i.i.i21.i.i = phi ptr [ %incdec.ptr.i.i.i.i.i.i, %invoke.cont4.i.i ], [ %incdec.ptr.i.i.i.i21.i.i.ph, %invoke.cont4.i.i.preheader45 ]
  %__first1.sroa.1.020.i.i = phi ptr [ %incdec.ptr.i.i.i, %invoke.cont4.i.i ], [ %__first1.sroa.1.020.i.i.ph, %invoke.cont4.i.i.preheader45 ]
  %incdec.ptr.i.i.i.i.i.i = getelementptr inbounds %"class.std::__1::unique_ptr", ptr %incdec.ptr.i.i.i.i21.i.i, i64 -1
  %incdec.ptr.i.i.i = getelementptr inbounds %"class.std::__1::unique_ptr", ptr %__first1.sroa.1.020.i.i, i64 -1
  %26 = load ptr, ptr %incdec.ptr.i.i.i, align 8, !tbaa !14
  store ptr null, ptr %incdec.ptr.i.i.i, align 8, !tbaa !14
  store ptr %26, ptr %incdec.ptr.i.i.i.i.i.i, align 8, !tbaa !17
  %cmp.i.not.i.i = icmp eq ptr %incdec.ptr.i.i.i, %1
  br i1 %cmp.i.not.i.i, label %invoke.cont7, label %invoke.cont4.i.i, !llvm.loop !28

invoke.cont7:                                     ; preds = %invoke.cont4.i.i, %middle.block
  %incdec.ptr.i.i.i.i.i.i.lcssa = phi ptr [ %ind.end, %middle.block ], [ %incdec.ptr.i.i.i.i.i.i, %invoke.cont4.i.i ]
  %.pre = load ptr, ptr %this, align 8, !tbaa !14
  %.pre28 = load ptr, ptr %__end_.i, align 8, !tbaa !14
  store ptr %incdec.ptr.i.i.i.i.i.i.lcssa, ptr %this, align 8, !tbaa !14
  store ptr %add.ptr.i, ptr %__end_.i, align 8, !tbaa !14
  store ptr %add.ptr.i, ptr %__end_cap_.i.i, align 8, !tbaa !14
  %cmp.not4.i.i.i.i = icmp eq ptr %.pre28, %.pre
  br i1 %cmp.not4.i.i.i.i, label %_ZNSt3__114__split_bufferINS_10unique_ptrIN9benchmark8internal9BenchmarkENS_14default_deleteIS4_EEEERNS_9allocatorIS7_EEE5clearB7v170000Ev.exit.i, label %while.body.i.i.i.i

while.body.i.i.i.i:                               ; preds = %invoke.cont7, %_ZNSt3__116allocator_traitsINS_9allocatorINS_10unique_ptrIN9benchmark8internal9BenchmarkENS_14default_deleteIS5_EEEEEEE7destroyB7v170000IS8_vEEvRS9_PT_.exit.i.i.i.i
  %27 = phi ptr [ %incdec.ptr.i.i.i.i, %_ZNSt3__116allocator_traitsINS_9allocatorINS_10unique_ptrIN9benchmark8internal9BenchmarkENS_14default_deleteIS5_EEEEEEE7destroyB7v170000IS8_vEEvRS9_PT_.exit.i.i.i.i ], [ %.pre28, %invoke.cont7 ]
  %incdec.ptr.i.i.i.i = getelementptr inbounds %"class.std::__1::unique_ptr", ptr %27, i64 -1
  %28 = load ptr, ptr %incdec.ptr.i.i.i.i, align 8, !tbaa !14
  store ptr null, ptr %incdec.ptr.i.i.i.i, align 8, !tbaa !14
  %tobool.not.i.i.i.i.i.i.i.i = icmp eq ptr %28, null
  br i1 %tobool.not.i.i.i.i.i.i.i.i, label %_ZNSt3__116allocator_traitsINS_9allocatorINS_10unique_ptrIN9benchmark8internal9BenchmarkENS_14default_deleteIS5_EEEEEEE7destroyB7v170000IS8_vEEvRS9_PT_.exit.i.i.i.i, label %_ZNKSt3__114default_deleteIN9benchmark8internal9BenchmarkEEclB7v170000EPS3_.exit.i.i.i.i.i.i.i.i

_ZNKSt3__114default_deleteIN9benchmark8internal9BenchmarkEEclB7v170000EPS3_.exit.i.i.i.i.i.i.i.i: ; preds = %while.body.i.i.i.i
  %vtable.i.i.i.i.i.i.i.i.i = load ptr, ptr %28, align 8, !tbaa !15
  %vfn.i.i.i.i.i.i.i.i.i = getelementptr inbounds ptr, ptr %vtable.i.i.i.i.i.i.i.i.i, i64 1
  %29 = load ptr, ptr %vfn.i.i.i.i.i.i.i.i.i, align 8
  tail call void %29(ptr noundef nonnull align 8 dereferenceable(208) %28) #29
  br label %_ZNSt3__116allocator_traitsINS_9allocatorINS_10unique_ptrIN9benchmark8internal9BenchmarkENS_14default_deleteIS5_EEEEEEE7destroyB7v170000IS8_vEEvRS9_PT_.exit.i.i.i.i

_ZNSt3__116allocator_traitsINS_9allocatorINS_10unique_ptrIN9benchmark8internal9BenchmarkENS_14default_deleteIS5_EEEEEEE7destroyB7v170000IS8_vEEvRS9_PT_.exit.i.i.i.i: ; preds = %_ZNKSt3__114default_deleteIN9benchmark8internal9BenchmarkEEclB7v170000EPS3_.exit.i.i.i.i.i.i.i.i, %while.body.i.i.i.i
  %cmp.not.i.i.i.i = icmp eq ptr %incdec.ptr.i.i.i.i, %.pre
  br i1 %cmp.not.i.i.i.i, label %_ZNSt3__114__split_bufferINS_10unique_ptrIN9benchmark8internal9BenchmarkENS_14default_deleteIS4_EEEERNS_9allocatorIS7_EEE5clearB7v170000Ev.exit.i, label %while.body.i.i.i.i

_ZNSt3__114__split_bufferINS_10unique_ptrIN9benchmark8internal9BenchmarkENS_14default_deleteIS4_EEEERNS_9allocatorIS7_EEE5clearB7v170000Ev.exit.i: ; preds = %_ZNSt3__116allocator_traitsINS_9allocatorINS_10unique_ptrIN9benchmark8internal9BenchmarkENS_14default_deleteIS5_EEEEEEE7destroyB7v170000IS8_vEEvRS9_PT_.exit.i.i.i.i, %invoke.cont7.thread, %invoke.cont7
  %30 = phi ptr [ %.pre28, %invoke.cont7 ], [ %1, %invoke.cont7.thread ], [ %.pre, %_ZNSt3__116allocator_traitsINS_9allocatorINS_10unique_ptrIN9benchmark8internal9BenchmarkENS_14default_deleteIS5_EEEEEEE7destroyB7v170000IS8_vEEvRS9_PT_.exit.i.i.i.i ]
  %tobool.not.i = icmp eq ptr %30, null
  br i1 %tobool.not.i, label %if.end, label %if.then.i

if.then.i:                                        ; preds = %_ZNSt3__114__split_bufferINS_10unique_ptrIN9benchmark8internal9BenchmarkENS_14default_deleteIS4_EEEERNS_9allocatorIS7_EEE5clearB7v170000Ev.exit.i
  tail call void @_ZdlPv(ptr noundef nonnull %30) #30
  br label %if.end

lpad:                                             ; preds = %_ZNSt3__119__allocate_at_leastB7v170000INS_9allocatorINS_10unique_ptrIN9benchmark8internal9BenchmarkENS_14default_deleteIS5_EEEEEEEENS_19__allocation_resultINS_16allocator_traitsIT_E7pointerEEERSC_m.exit.i, %if.then.i.i.i
  %31 = landingpad { ptr, i32 }
          catch ptr null
  %exn.slot.0 = extractvalue { ptr, i32 } %31, 0
  %32 = tail call ptr @__cxa_begin_catch(ptr %exn.slot.0) #29
  invoke void @__cxa_end_catch()
          to label %if.end unwind label %terminate.lpad

if.end:                                           ; preds = %if.then.i, %_ZNSt3__114__split_bufferINS_10unique_ptrIN9benchmark8internal9BenchmarkENS_14default_deleteIS4_EEEERNS_9allocatorIS7_EEE5clearB7v170000Ev.exit.i, %lpad, %entry
  ret void

terminate.lpad:                                   ; preds = %lpad
  %33 = landingpad { ptr, i32 }
          catch ptr null
  %34 = extractvalue { ptr, i32 } %33, 0
  tail call void @__clang_call_terminate(ptr %34) #33
  unreachable
}

; Function Attrs: uwtable
define hidden noundef zeroext i1 @_ZN9benchmark8internal17BenchmarkFamilies14FindBenchmarksENSt3__112basic_stringIcNS2_11char_traitsIcEENS2_9allocatorIcEEEEPNS2_6vectorINS0_17BenchmarkInstanceENS6_ISA_EEEEPNS2_13basic_ostreamIcS5_EE(ptr noundef nonnull align 8 dereferenceable(64) %this, ptr noundef %spec, ptr noundef %benchmarks, ptr noundef %ErrStream) local_unnamed_addr #4 align 2 personality ptr @__gxx_personality_v0 {
entry:
  %ref.tmp.i.i = alloca %"class.std::__1::locale", align 8
  %__mc.i.i270 = alloca %"class.std::__1::match_results", align 8
  %__mc.i.i = alloca %"class.std::__1::match_results", align 8
  %error_msg = alloca %"class.std::__1::basic_string", align 8
  %re = alloca %"class.benchmark::Regex", align 8
  %ref.tmp35 = alloca %"class.std::__1::vector.12", align 8
  %instance = alloca %"class.benchmark::internal::BenchmarkInstance", align 8
  %full_name = alloca %"class.std::__1::basic_string", align 8
  %0 = load atomic i8, ptr @_ZGVZN9benchmark8internal18GetNullLogInstanceEvE3log acquire, align 8
  %guard.uninitialized.i = icmp eq i8 %0, 0
  br i1 %guard.uninitialized.i, label %init.check.i, label %_ZN9benchmark8internal18GetNullLogInstanceEv.exit, !prof !5

init.check.i:                                     ; preds = %entry
  %1 = tail call i32 @__cxa_guard_acquire(ptr nonnull @_ZGVZN9benchmark8internal18GetNullLogInstanceEvE3log) #29
  %tobool.not.i = icmp eq i32 %1, 0
  br i1 %tobool.not.i, label %_ZN9benchmark8internal18GetNullLogInstanceEv.exit, label %init.i

init.i:                                           ; preds = %init.check.i
  store ptr null, ptr @_ZZN9benchmark8internal18GetNullLogInstanceEvE3log, align 8, !tbaa !29
  tail call void @__cxa_guard_release(ptr nonnull @_ZGVZN9benchmark8internal18GetNullLogInstanceEvE3log) #29
  br label %_ZN9benchmark8internal18GetNullLogInstanceEv.exit

_ZN9benchmark8internal18GetNullLogInstanceEv.exit: ; preds = %entry, %init.check.i, %init.i
  call void @llvm.lifetime.start.p0(i64 24, ptr nonnull %error_msg) #29
  call void @llvm.memset.p0.i64(ptr noundef nonnull align 8 dereferenceable(24) %error_msg, i8 0, i64 24, i1 false)
  call void @llvm.lifetime.start.p0(i64 72, ptr nonnull %re) #29
  store i8 0, ptr %re, align 8, !tbaa !31
  %re_.i = getelementptr inbounds %"class.benchmark::Regex", ptr %re, i64 0, i32 1
  call void @_ZNSt3__16localeC1Ev(ptr noundef nonnull align 8 dereferenceable(8) %re_.i) #29
  %call.i.i3.i.i.i = invoke noundef ptr @_ZNKSt3__16locale9use_facetERNS0_2idE(ptr noundef nonnull align 8 dereferenceable(8) %re_.i, ptr noundef nonnull align 8 dereferenceable(12) @_ZNSt3__15ctypeIcE2idE)
          to label %call.i.i.noexc.i.i.i unwind label %lpad.i.i.i

call.i.i.noexc.i.i.i:                             ; preds = %_ZN9benchmark8internal18GetNullLogInstanceEv.exit
  %__ct_.i.i.i.i = getelementptr inbounds %"class.benchmark::Regex", ptr %re, i64 0, i32 1, i32 0, i32 1
  store ptr %call.i.i3.i.i.i, ptr %__ct_.i.i.i.i, align 8, !tbaa !40
  %call.i4.i4.i.i.i = invoke noundef ptr @_ZNKSt3__16locale9use_facetERNS0_2idE(ptr noundef nonnull align 8 dereferenceable(8) %re_.i, ptr noundef nonnull align 8 dereferenceable(12) @_ZNSt3__17collateIcE2idE)
          to label %invoke.cont unwind label %lpad.i.i.i

lpad.i.i.i:                                       ; preds = %call.i.i.noexc.i.i.i, %_ZN9benchmark8internal18GetNullLogInstanceEv.exit
  %2 = landingpad { ptr, i32 }
          cleanup
  br label %ehcleanup155

invoke.cont:                                      ; preds = %call.i.i.noexc.i.i.i
  %__col_.i.i.i.i = getelementptr inbounds %"class.benchmark::Regex", ptr %re, i64 0, i32 1, i32 0, i32 2
  store ptr %call.i4.i4.i.i.i, ptr %__col_.i.i.i.i, align 8, !tbaa !41
  %__flags_.i.i = getelementptr inbounds %"class.benchmark::Regex", ptr %re, i64 0, i32 1, i32 1
  call void @llvm.memset.p0.i64(ptr noundef nonnull align 8 dereferenceable(40) %__flags_.i.i, i8 0, i64 40, i1 false)
  %bf.load.i.i.i = load i8, ptr %spec, align 8
  %bf.clear.i.i.i = and i8 %bf.load.i.i.i, 1
  %tobool.i.not.i.i = icmp eq i8 %bf.clear.i.i.i, 0
  %__data_.i.i.i = getelementptr inbounds %"struct.std::__1::basic_string<char>::__long", ptr %spec, i64 0, i32 2
  %3 = load ptr, ptr %__data_.i.i.i, align 8
  %__data_.i4.i.i = getelementptr inbounds %"struct.std::__1::basic_string<char>::__short", ptr %spec, i64 0, i32 2
  %cond.i.i = select i1 %tobool.i.not.i.i, ptr %__data_.i4.i.i, ptr %3
  %4 = load i8, ptr %cond.i.i, align 1, !tbaa !42
  %cmp = icmp ne i8 %4, 45
  br i1 %cmp, label %if.end, label %if.then

if.then:                                          ; preds = %invoke.cont
  %call5 = invoke noundef nonnull align 8 dereferenceable(24) ptr @_ZNSt3__112basic_stringIcNS_11char_traitsIcEENS_9allocatorIcEEE7replaceEmmPKc(ptr noundef nonnull align 8 dereferenceable(24) %spec, i64 noundef 0, i64 noundef 1, ptr noundef nonnull @.str)
          to label %if.end unwind label %lpad3

lpad3:                                            ; preds = %call1.i.noexc, %_ZNKSt3__19basic_iosIcNS_11char_traitsIcEEE5widenB7v170000Ec.exit.i, %invoke.cont11, %invoke.cont9, %if.then8, %if.end, %if.then
  %5 = landingpad { ptr, i32 }
          cleanup
  br label %ehcleanup151

if.end:                                           ; preds = %if.then, %invoke.cont
  %call7 = invoke noundef zeroext i1 @_ZN9benchmark5Regex4InitERKNSt3__112basic_stringIcNS1_11char_traitsIcEENS1_9allocatorIcEEEEPS7_(ptr noundef nonnull align 8 dereferenceable(72) %re, ptr noundef nonnull align 8 dereferenceable(24) %spec, ptr noundef nonnull %error_msg)
          to label %invoke.cont6 unwind label %lpad3

invoke.cont6:                                     ; preds = %if.end
  br i1 %call7, label %if.end15, label %if.then8

if.then8:                                         ; preds = %invoke.cont6
  %call1.i195 = invoke noundef nonnull align 8 dereferenceable(8) ptr @_ZNSt3__124__put_character_sequenceB7v170000IcNS_11char_traitsIcEEEERNS_13basic_ostreamIT_T0_EES7_PKS4_m(ptr noundef nonnull align 8 dereferenceable(8) %ErrStream, ptr noundef nonnull @.str.1, i64 noundef 32)
          to label %invoke.cont9 unwind label %lpad3

invoke.cont9:                                     ; preds = %if.then8
  %bf.load.i.i.i.i = load i8, ptr %error_msg, align 8
  %bf.clear.i.i.i.i = and i8 %bf.load.i.i.i.i, 1
  %tobool.i.not.i.i.i = icmp eq i8 %bf.clear.i.i.i.i, 0
  %__data_.i.i.i.i = getelementptr inbounds %"struct.std::__1::basic_string<char>::__long", ptr %error_msg, i64 0, i32 2
  %6 = load ptr, ptr %__data_.i.i.i.i, align 8
  %__data_.i4.i.i.i = getelementptr inbounds %"struct.std::__1::basic_string<char>::__short", ptr %error_msg, i64 0, i32 2
  %cond.i.i.i = select i1 %tobool.i.not.i.i.i, ptr %__data_.i4.i.i.i, ptr %6
  %__size_.i.i.i = getelementptr inbounds %"struct.std::__1::basic_string<char>::__long", ptr %error_msg, i64 0, i32 1
  %7 = load i64, ptr %__size_.i.i.i, align 8
  %bf.lshr.i.i.i = lshr i8 %bf.load.i.i.i.i, 1
  %conv.i.i.i = zext i8 %bf.lshr.i.i.i to i64
  %cond.i.i196 = select i1 %tobool.i.not.i.i.i, i64 %conv.i.i.i, i64 %7
  %call2.i197 = invoke noundef nonnull align 8 dereferenceable(8) ptr @_ZNSt3__124__put_character_sequenceB7v170000IcNS_11char_traitsIcEEEERNS_13basic_ostreamIT_T0_EES7_PKS4_m(ptr noundef nonnull align 8 dereferenceable(8) %call1.i195, ptr noundef %cond.i.i.i, i64 noundef %cond.i.i196)
          to label %invoke.cont11 unwind label %lpad3

invoke.cont11:                                    ; preds = %invoke.cont9
  %vtable.i = load ptr, ptr %call2.i197, align 8, !tbaa !15
  %vbase.offset.ptr.i = getelementptr i8, ptr %vtable.i, i64 -24
  %vbase.offset.i = load i64, ptr %vbase.offset.ptr.i, align 8
  %add.ptr.i = getelementptr inbounds i8, ptr %call2.i197, i64 %vbase.offset.i
  call void @llvm.lifetime.start.p0(i64 8, ptr nonnull %ref.tmp.i.i) #29
  invoke void @_ZNKSt3__18ios_base6getlocEv(ptr nonnull sret(%"class.std::__1::locale") align 8 %ref.tmp.i.i, ptr noundef nonnull align 8 dereferenceable(136) %add.ptr.i)
          to label %.noexc357 unwind label %lpad3

.noexc357:                                        ; preds = %invoke.cont11
  %call.i5.i.i = invoke noundef ptr @_ZNKSt3__16locale9use_facetERNS0_2idE(ptr noundef nonnull align 8 dereferenceable(8) %ref.tmp.i.i, ptr noundef nonnull align 8 dereferenceable(12) @_ZNSt3__15ctypeIcE2idE)
          to label %invoke.cont.i.i355 unwind label %lpad.i.i356

invoke.cont.i.i355:                               ; preds = %.noexc357
  %vtable.i.i.i = load ptr, ptr %call.i5.i.i, align 8, !tbaa !15
  %vfn.i.i.i = getelementptr inbounds ptr, ptr %vtable.i.i.i, i64 7
  %8 = load ptr, ptr %vfn.i.i.i, align 8
  %call.i6.i.i = invoke noundef signext i8 %8(ptr noundef nonnull align 8 dereferenceable(25) %call.i5.i.i, i8 noundef signext 10)
          to label %_ZNKSt3__19basic_iosIcNS_11char_traitsIcEEE5widenB7v170000Ec.exit.i unwind label %lpad.i.i356

lpad.i.i356:                                      ; preds = %invoke.cont.i.i355, %.noexc357
  %9 = landingpad { ptr, i32 }
          cleanup
  call void @_ZNSt3__16localeD1Ev(ptr noundef nonnull align 8 dereferenceable(8) %ref.tmp.i.i) #29
  call void @llvm.lifetime.end.p0(i64 8, ptr nonnull %ref.tmp.i.i) #29
  br label %ehcleanup151

_ZNKSt3__19basic_iosIcNS_11char_traitsIcEEE5widenB7v170000Ec.exit.i: ; preds = %invoke.cont.i.i355
  call void @_ZNSt3__16localeD1Ev(ptr noundef nonnull align 8 dereferenceable(8) %ref.tmp.i.i) #29
  call void @llvm.lifetime.end.p0(i64 8, ptr nonnull %ref.tmp.i.i) #29
  %call1.i359 = invoke noundef nonnull align 8 dereferenceable(8) ptr @_ZNSt3__113basic_ostreamIcNS_11char_traitsIcEEE3putEc(ptr noundef nonnull align 8 dereferenceable(8) %call2.i197, i8 noundef signext %call.i6.i.i)
          to label %call1.i.noexc unwind label %lpad3

call1.i.noexc:                                    ; preds = %_ZNKSt3__19basic_iosIcNS_11char_traitsIcEEE5widenB7v170000Ec.exit.i
  %call2.i360 = invoke noundef nonnull align 8 dereferenceable(8) ptr @_ZNSt3__113basic_ostreamIcNS_11char_traitsIcEEE5flushEv(ptr noundef nonnull align 8 dereferenceable(8) %call2.i197)
          to label %cleanup150 unwind label %lpad3

if.end15:                                         ; preds = %invoke.cont6
  %call.i.i.i.i.i11.i = invoke noalias noundef nonnull dereferenceable(4) ptr @_Znwm(i64 noundef 4) #32
          to label %invoke.cont17 unwind label %if.then.i15.i

if.then.i15.i:                                    ; preds = %if.end15
  %10 = landingpad { ptr, i32 }
          cleanup
  br label %ehcleanup151

invoke.cont17:                                    ; preds = %if.end15
  %add.ptr.i.i = getelementptr inbounds i32, ptr %call.i.i.i.i.i11.i, i64 1
  store i32 1, ptr %call.i.i.i.i.i11.i, align 4
  %mutex_ = getelementptr inbounds %"class.benchmark::internal::BenchmarkFamilies", ptr %this, i64 0, i32 1
  invoke void @_ZNSt3__15mutex4lockEv(ptr noundef nonnull align 8 dereferenceable(40) %mutex_)
          to label %invoke.cont19 unwind label %lpad18

invoke.cont19:                                    ; preds = %invoke.cont17
  %11 = load ptr, ptr %this, align 8, !tbaa !6
  %__end_.i200 = getelementptr inbounds %"class.std::__1::vector", ptr %this, i64 0, i32 1
  %12 = load ptr, ptr %__end_.i200, align 8, !tbaa !13
  %cmp.i.i.not459 = icmp eq ptr %11, %12
  br i1 %cmp.i.i.not459, label %_ZNSt3__16vectorIiNS_9allocatorIiEEED2B7v170000Ev.exit, label %for.body.lr.ph

for.body.lr.ph:                                   ; preds = %invoke.cont19
  %__end_.i.i.i.i205 = getelementptr inbounds %"class.std::__1::vector.12", ptr %ref.tmp35, i64 0, i32 1
  %__size_.i.i.i244 = getelementptr inbounds %"struct.std::__1::basic_string<char>::__long", ptr %spec, i64 0, i32 1
  %__end_.i251 = getelementptr inbounds %"class.std::__1::vector.62", ptr %benchmarks, i64 0, i32 1
  %__prefix_.i.i.i.i = getelementptr inbounds %"class.std::__1::match_results", ptr %__mc.i.i, i64 0, i32 2
  %__suffix_.i.i.i.i = getelementptr inbounds %"class.std::__1::match_results", ptr %__mc.i.i, i64 0, i32 3
  %__ready_.i.i.i.i = getelementptr inbounds %"class.std::__1::match_results", ptr %__mc.i.i, i64 0, i32 4
  %__position_start_.i.i.i.i = getelementptr inbounds %"class.std::__1::match_results", ptr %__mc.i.i, i64 0, i32 5
  %__data_.i.i.i.i.i262 = getelementptr inbounds %"struct.std::__1::basic_string<char>::__long", ptr %full_name, i64 0, i32 2
  %__data_.i4.i.i.i.i263 = getelementptr inbounds %"struct.std::__1::basic_string<char>::__short", ptr %full_name, i64 0, i32 2
  %__size_.i.i.i.i = getelementptr inbounds %"struct.std::__1::basic_string<char>::__long", ptr %full_name, i64 0, i32 1
  %__end_.i.i.i.i.i.i.i = getelementptr inbounds %"class.std::__1::vector.103", ptr %__mc.i.i, i64 0, i32 1
  %__prefix_.i.i.i.i273 = getelementptr inbounds %"class.std::__1::match_results", ptr %__mc.i.i270, i64 0, i32 2
  %__suffix_.i.i.i.i274 = getelementptr inbounds %"class.std::__1::match_results", ptr %__mc.i.i270, i64 0, i32 3
  %__ready_.i.i.i.i275 = getelementptr inbounds %"class.std::__1::match_results", ptr %__mc.i.i270, i64 0, i32 4
  %__position_start_.i.i.i.i276 = getelementptr inbounds %"class.std::__1::match_results", ptr %__mc.i.i270, i64 0, i32 5
  %__end_.i.i.i.i.i.i.i292 = getelementptr inbounds %"class.std::__1::vector.103", ptr %__mc.i.i270, i64 0, i32 1
  %__end_cap_.i.i = getelementptr inbounds %"class.std::__1::vector.62", ptr %benchmarks, i64 0, i32 2
  %args3.i.i.i.i.i.i = getelementptr inbounds %"struct.benchmark::BenchmarkName", ptr %instance, i64 0, i32 1
  %min_time4.i.i.i.i.i.i = getelementptr inbounds %"struct.benchmark::BenchmarkName", ptr %instance, i64 0, i32 2
  %iterations5.i.i.i.i.i.i = getelementptr inbounds %"struct.benchmark::BenchmarkName", ptr %instance, i64 0, i32 3
  %repetitions6.i.i.i.i.i.i = getelementptr inbounds %"struct.benchmark::BenchmarkName", ptr %instance, i64 0, i32 4
  %time_type7.i.i.i.i.i.i = getelementptr inbounds %"struct.benchmark::BenchmarkName", ptr %instance, i64 0, i32 5
  %threads8.i.i.i.i.i.i = getelementptr inbounds %"struct.benchmark::BenchmarkName", ptr %instance, i64 0, i32 6
  %benchmark_3.i.i.i.i.i = getelementptr inbounds %"class.benchmark::internal::BenchmarkInstance", ptr %instance, i64 0, i32 1
  %counters_4.i.i.i.i.i = getelementptr inbounds %"class.benchmark::internal::BenchmarkInstance", ptr %instance, i64 0, i32 12
  %__pair1_3.i.i.i.i.i.i.i = getelementptr inbounds %"class.benchmark::internal::BenchmarkInstance", ptr %instance, i64 0, i32 12, i32 0, i32 1
  %__pair3_4.i.i.i.i.i.i.i = getelementptr inbounds %"class.benchmark::internal::BenchmarkInstance", ptr %instance, i64 0, i32 12, i32 0, i32 2
  %statistics_5.i.i.i.i.i = getelementptr inbounds %"class.benchmark::internal::BenchmarkInstance", ptr %instance, i64 0, i32 13
  %__data_.i.i.i364 = getelementptr inbounds %"struct.benchmark::BenchmarkName", ptr %instance, i64 0, i32 6, i32 0, i32 0, i32 0, i32 0, i32 0, i32 2
  %__data_.i.i5.i = getelementptr inbounds %"struct.benchmark::BenchmarkName", ptr %instance, i64 0, i32 5, i32 0, i32 0, i32 0, i32 0, i32 0, i32 2
  %__data_.i.i11.i = getelementptr inbounds %"struct.benchmark::BenchmarkName", ptr %instance, i64 0, i32 4, i32 0, i32 0, i32 0, i32 0, i32 0, i32 2
  %__data_.i.i17.i = getelementptr inbounds %"struct.benchmark::BenchmarkName", ptr %instance, i64 0, i32 3, i32 0, i32 0, i32 0, i32 0, i32 0, i32 2
  %__data_.i.i23.i = getelementptr inbounds %"struct.benchmark::BenchmarkName", ptr %instance, i64 0, i32 2, i32 0, i32 0, i32 0, i32 0, i32 0, i32 2
  %__data_.i.i29.i = getelementptr inbounds %"struct.benchmark::BenchmarkName", ptr %instance, i64 0, i32 1, i32 0, i32 0, i32 0, i32 0, i32 0, i32 2
  %__data_.i.i35.i = getelementptr inbounds %"struct.std::__1::basic_string<char>::__long", ptr %instance, i64 0, i32 2
  br label %for.body

_ZNSt3__16vectorIiNS_9allocatorIiEEED2B7v170000Ev.exit: ; preds = %cleanup, %invoke.cont19
  call void @_ZNSt3__15mutex6unlockEv(ptr noundef nonnull align 8 dereferenceable(40) %mutex_) #29
  call void @_ZdlPv(ptr noundef nonnull %call.i.i.i.i.i11.i) #30
  br label %cleanup150

lpad18:                                           ; preds = %invoke.cont17
  %13 = landingpad { ptr, i32 }
          cleanup
  br label %if.then.i.i327

for.body:                                         ; preds = %for.body.lr.ph, %cleanup
  %next_family_index.0461 = phi i32 [ 0, %for.body.lr.ph ], [ %next_family_index.4, %cleanup ]
  %__begin2.sroa.0.0460 = phi ptr [ %11, %for.body.lr.ph ], [ %incdec.ptr.i320, %cleanup ]
  %14 = load ptr, ptr %__begin2.sroa.0.0460, align 8, !tbaa !14
  %cmp.i.not = icmp eq ptr %14, null
  br i1 %cmp.i.not, label %cleanup, label %if.end27

if.end27:                                         ; preds = %for.body
  %args_.i = getelementptr inbounds %"class.benchmark::internal::Benchmark", ptr %14, i64 0, i32 4
  %15 = load ptr, ptr %args_.i, align 8, !tbaa !43
  %__end_.i.i = getelementptr inbounds %"class.benchmark::internal::Benchmark", ptr %14, i64 0, i32 4, i32 1
  %16 = load ptr, ptr %__end_.i.i, align 8, !tbaa !47
  %cmp.i.i203 = icmp eq ptr %15, %16
  br i1 %cmp.i.i203, label %if.then.i, label %if.end6.i

if.then.i:                                        ; preds = %if.end27
  %arg_names_.i = getelementptr inbounds %"class.benchmark::internal::Benchmark", ptr %14, i64 0, i32 3
  %17 = load ptr, ptr %arg_names_.i, align 8, !tbaa !48
  %__end_.i11.i = getelementptr inbounds %"class.benchmark::internal::Benchmark", ptr %14, i64 0, i32 3, i32 1
  %18 = load ptr, ptr %__end_.i11.i, align 8, !tbaa !52
  %cmp.i12.i = icmp eq ptr %17, %18
  br i1 %cmp.i12.i, label %if.then33, label %if.end.i

if.end.i:                                         ; preds = %if.then.i
  %sub.ptr.lhs.cast.i.i = ptrtoint ptr %18 to i64
  %sub.ptr.rhs.cast.i.i = ptrtoint ptr %17 to i64
  %sub.ptr.sub.i.i = sub i64 %sub.ptr.lhs.cast.i.i, %sub.ptr.rhs.cast.i.i
  %sub.ptr.div.i.i = sdiv exact i64 %sub.ptr.sub.i.i, 24
  br label %_ZNK9benchmark8internal9Benchmark7ArgsCntEv.exit

if.end6.i:                                        ; preds = %if.end27
  %__end_.i14.i = getelementptr inbounds %"class.std::__1::vector.12", ptr %15, i64 0, i32 1
  %19 = load ptr, ptr %__end_.i14.i, align 8, !tbaa !53
  %20 = load ptr, ptr %15, align 8, !tbaa !57
  %sub.ptr.lhs.cast.i15.i = ptrtoint ptr %19 to i64
  %sub.ptr.rhs.cast.i16.i = ptrtoint ptr %20 to i64
  %sub.ptr.sub.i17.i = sub i64 %sub.ptr.lhs.cast.i15.i, %sub.ptr.rhs.cast.i16.i
  %21 = lshr exact i64 %sub.ptr.sub.i17.i, 3
  br label %_ZNK9benchmark8internal9Benchmark7ArgsCntEv.exit

_ZNK9benchmark8internal9Benchmark7ArgsCntEv.exit: ; preds = %if.end.i, %if.end6.i
  %retval.0.i.in = phi i64 [ %sub.ptr.div.i.i, %if.end.i ], [ %21, %if.end6.i ]
  %22 = and i64 %retval.0.i.in, 4294967295
  %cmp32 = icmp eq i64 %22, 4294967295
  br i1 %cmp32, label %if.then33, label %if.end39

if.then33:                                        ; preds = %if.then.i, %_ZNK9benchmark8internal9Benchmark7ArgsCntEv.exit
  call void @llvm.lifetime.start.p0(i64 24, ptr nonnull %ref.tmp35) #29
  call void @llvm.memset.p0.i64(ptr noundef nonnull align 8 dereferenceable(24) %ref.tmp35, i8 0, i64 24, i1 false)
  %call38 = invoke noundef ptr @_ZN9benchmark8internal9Benchmark4ArgsERKNSt3__16vectorIlNS2_9allocatorIlEEEE(ptr noundef nonnull align 8 dereferenceable(208) %14, ptr noundef nonnull align 8 dereferenceable(24) %ref.tmp35)
          to label %invoke.cont37 unwind label %lpad36

invoke.cont37:                                    ; preds = %if.then33
  %23 = load ptr, ptr %ref.tmp35, align 8, !tbaa !57
  %cmp.not.i.i204 = icmp eq ptr %23, null
  br i1 %cmp.not.i.i204, label %_ZNSt3__16vectorIlNS_9allocatorIlEEED2B7v170000Ev.exit, label %if.then.i.i206

if.then.i.i206:                                   ; preds = %invoke.cont37
  store ptr %23, ptr %__end_.i.i.i.i205, align 8, !tbaa !53
  call void @_ZdlPv(ptr noundef nonnull %23) #30
  br label %_ZNSt3__16vectorIlNS_9allocatorIlEEED2B7v170000Ev.exit

_ZNSt3__16vectorIlNS_9allocatorIlEEED2B7v170000Ev.exit: ; preds = %invoke.cont37, %if.then.i.i206
  call void @llvm.lifetime.end.p0(i64 24, ptr nonnull %ref.tmp35) #29
  %.pre = load ptr, ptr %__begin2.sroa.0.0460, align 8, !tbaa !14
  %__end_.i213.phi.trans.insert = getelementptr inbounds %"class.benchmark::internal::Benchmark", ptr %.pre, i64 0, i32 4, i32 1
  %.pre478 = load ptr, ptr %__end_.i213.phi.trans.insert, align 8, !tbaa !47
  %args_.phi.trans.insert = getelementptr inbounds %"class.benchmark::internal::Benchmark", ptr %.pre, i64 0, i32 4
  %.pre479 = load ptr, ptr %args_.phi.trans.insert, align 8, !tbaa !43
  br label %if.end39

lpad36:                                           ; preds = %if.then33
  %24 = landingpad { ptr, i32 }
          cleanup
  %25 = load ptr, ptr %ref.tmp35, align 8, !tbaa !57
  %cmp.not.i.i207 = icmp eq ptr %25, null
  br i1 %cmp.not.i.i207, label %_ZNSt3__16vectorIlNS_9allocatorIlEEED2B7v170000Ev.exit210, label %if.then.i.i209

if.then.i.i209:                                   ; preds = %lpad36
  store ptr %25, ptr %__end_.i.i.i.i205, align 8, !tbaa !53
  call void @_ZdlPv(ptr noundef nonnull %25) #30
  br label %_ZNSt3__16vectorIlNS_9allocatorIlEEED2B7v170000Ev.exit210

_ZNSt3__16vectorIlNS_9allocatorIlEEED2B7v170000Ev.exit210: ; preds = %lpad36, %if.then.i.i209
  call void @llvm.lifetime.end.p0(i64 24, ptr nonnull %ref.tmp35) #29
  br label %_ZN9benchmark9MutexLockD2Ev.exit324

if.end39:                                         ; preds = %_ZNSt3__16vectorIlNS_9allocatorIlEEED2B7v170000Ev.exit, %_ZNK9benchmark8internal9Benchmark7ArgsCntEv.exit
  %26 = phi ptr [ %.pre479, %_ZNSt3__16vectorIlNS_9allocatorIlEEED2B7v170000Ev.exit ], [ %15, %_ZNK9benchmark8internal9Benchmark7ArgsCntEv.exit ]
  %27 = phi ptr [ %.pre478, %_ZNSt3__16vectorIlNS_9allocatorIlEEED2B7v170000Ev.exit ], [ %16, %_ZNK9benchmark8internal9Benchmark7ArgsCntEv.exit ]
  %28 = phi ptr [ %.pre, %_ZNSt3__16vectorIlNS_9allocatorIlEEED2B7v170000Ev.exit ], [ %14, %_ZNK9benchmark8internal9Benchmark7ArgsCntEv.exit ]
  %thread_counts_ = getelementptr inbounds %"class.benchmark::internal::Benchmark", ptr %28, i64 0, i32 17
  %29 = load ptr, ptr %thread_counts_, align 8, !tbaa !58
  %__end_.i211 = getelementptr inbounds %"class.benchmark::internal::Benchmark", ptr %28, i64 0, i32 17, i32 1
  %30 = load ptr, ptr %__end_.i211, align 8, !tbaa !62
  %cmp.i212 = icmp eq ptr %29, %30
  %sub.ptr.lhs.cast.i = ptrtoint ptr %27 to i64
  %sub.ptr.rhs.cast.i = ptrtoint ptr %26 to i64
  %sub.ptr.sub.i = sub i64 %sub.ptr.lhs.cast.i, %sub.ptr.rhs.cast.i
  %sub.ptr.div.i = sdiv exact i64 %sub.ptr.sub.i, 24
  %thread_counts_.sroa.gep = getelementptr inbounds %"class.benchmark::internal::Benchmark", ptr %28, i64 0, i32 17, i32 1
  %spec.select481 = select i1 %cmp.i212, ptr %add.ptr.i.i, ptr %30
  %spec.select482 = select i1 %cmp.i212, ptr %call.i.i.i.i.i11.i, ptr %29
  %sub.ptr.lhs.cast.i215 = ptrtoint ptr %spec.select481 to i64
  %sub.ptr.rhs.cast.i216 = ptrtoint ptr %spec.select482 to i64
  %sub.ptr.sub.i217 = sub i64 %sub.ptr.lhs.cast.i215, %sub.ptr.rhs.cast.i216
  %sub.ptr.div.i218 = ashr exact i64 %sub.ptr.sub.i217, 2
  %mul = mul i64 %sub.ptr.div.i218, %sub.ptr.div.i
  %cmp47 = icmp ugt i64 %mul, 100
  br i1 %cmp47, label %if.then48, label %if.end61

if.then48:                                        ; preds = %if.end39
  %call1.i220 = invoke noundef nonnull align 8 dereferenceable(8) ptr @_ZNSt3__124__put_character_sequenceB7v170000IcNS_11char_traitsIcEEEERNS_13basic_ostreamIT_T0_EES7_PKS4_m(ptr noundef nonnull align 8 dereferenceable(8) %ErrStream, ptr noundef nonnull @.str.2, i64 noundef 36)
          to label %invoke.cont50 unwind label %lpad49

invoke.cont50:                                    ; preds = %if.then48
  %31 = load ptr, ptr %__begin2.sroa.0.0460, align 8, !tbaa !14
  %name_ = getelementptr inbounds %"class.benchmark::internal::Benchmark", ptr %31, i64 0, i32 1
  %bf.load.i.i.i.i222 = load i8, ptr %name_, align 8
  %bf.clear.i.i.i.i223 = and i8 %bf.load.i.i.i.i222, 1
  %tobool.i.not.i.i.i224 = icmp eq i8 %bf.clear.i.i.i.i223, 0
  %__data_.i.i.i.i225 = getelementptr inbounds %"class.benchmark::internal::Benchmark", ptr %31, i64 0, i32 1, i32 0, i32 0, i32 0, i32 0, i32 0, i32 2
  %32 = load ptr, ptr %__data_.i.i.i.i225, align 8
  %__data_.i4.i.i.i226 = getelementptr inbounds i8, ptr %31, i64 9
  %cond.i.i.i227 = select i1 %tobool.i.not.i.i.i224, ptr %__data_.i4.i.i.i226, ptr %32
  %__size_.i.i.i228 = getelementptr inbounds %"class.benchmark::internal::Benchmark", ptr %31, i64 0, i32 1, i32 0, i32 0, i32 0, i32 0, i32 0, i32 1
  %33 = load i64, ptr %__size_.i.i.i228, align 8
  %bf.lshr.i.i.i229 = lshr i8 %bf.load.i.i.i.i222, 1
  %conv.i.i.i230 = zext i8 %bf.lshr.i.i.i229 to i64
  %cond.i.i231 = select i1 %tobool.i.not.i.i.i224, i64 %conv.i.i.i230, i64 %33
  %call2.i232 = invoke noundef nonnull align 8 dereferenceable(8) ptr @_ZNSt3__124__put_character_sequenceB7v170000IcNS_11char_traitsIcEEEERNS_13basic_ostreamIT_T0_EES7_PKS4_m(ptr noundef nonnull align 8 dereferenceable(8) %call1.i220, ptr noundef %cond.i.i.i227, i64 noundef %cond.i.i231)
          to label %invoke.cont53 unwind label %lpad49

invoke.cont53:                                    ; preds = %invoke.cont50
  %call1.i235 = invoke noundef nonnull align 8 dereferenceable(8) ptr @_ZNSt3__124__put_character_sequenceB7v170000IcNS_11char_traitsIcEEEERNS_13basic_ostreamIT_T0_EES7_PKS4_m(ptr noundef nonnull align 8 dereferenceable(8) %call2.i232, ptr noundef nonnull @.str.3, i64 noundef 27)
          to label %invoke.cont55 unwind label %lpad49

invoke.cont55:                                    ; preds = %invoke.cont53
  %call58 = invoke noundef nonnull align 8 dereferenceable(8) ptr @_ZNSt3__113basic_ostreamIcNS_11char_traitsIcEEElsEm(ptr noundef nonnull align 8 dereferenceable(8) %call1.i235, i64 noundef %mul)
          to label %invoke.cont57 unwind label %lpad49

invoke.cont57:                                    ; preds = %invoke.cont55
  %call1.i238 = invoke noundef nonnull align 8 dereferenceable(8) ptr @_ZNSt3__124__put_character_sequenceB7v170000IcNS_11char_traitsIcEEEERNS_13basic_ostreamIT_T0_EES7_PKS4_m(ptr noundef nonnull align 8 dereferenceable(8) %call58, ptr noundef nonnull @.str.4, i64 noundef 8)
          to label %if.end61 unwind label %lpad49

lpad49:                                           ; preds = %invoke.cont57, %invoke.cont53, %invoke.cont50, %if.then48, %if.then63, %invoke.cont55
  %34 = landingpad { ptr, i32 }
          cleanup
  br label %_ZN9benchmark9MutexLockD2Ev.exit324

if.end61:                                         ; preds = %invoke.cont57, %if.end39
  %bf.load.i.i.i241 = load i8, ptr %spec, align 8
  %bf.clear.i.i.i242 = and i8 %bf.load.i.i.i241, 1
  %tobool.i.not.i.i243 = icmp eq i8 %bf.clear.i.i.i242, 0
  %35 = load i64, ptr %__size_.i.i.i244, align 8
  %bf.lshr.i.i.i245 = lshr i8 %bf.load.i.i.i241, 1
  %conv.i.i.i246 = zext i8 %bf.lshr.i.i.i245 to i64
  %cond.i.i247 = select i1 %tobool.i.not.i.i243, i64 %conv.i.i.i246, i64 %35
  %cmp2.not.i = icmp eq i64 %cond.i.i247, 1
  br i1 %cmp2.not.i, label %_ZNSt3__111char_traitsIcE7compareEPKcS3_m.exit.i.i, label %if.end66

_ZNSt3__111char_traitsIcE7compareEPKcS3_m.exit.i.i: ; preds = %if.end61
  %36 = load ptr, ptr %__data_.i.i.i, align 8
  %cond.i.i.i.i = select i1 %tobool.i.not.i.i243, ptr %__data_.i4.i.i, ptr %36
  %lhsc = load i8, ptr %cond.i.i.i.i, align 1
  %cmp9.i.i = icmp eq i8 %lhsc, 46
  br i1 %cmp9.i.i, label %if.then63, label %if.end66

if.then63:                                        ; preds = %_ZNSt3__111char_traitsIcE7compareEPKcS3_m.exit.i.i
  %37 = load ptr, ptr %__end_.i251, align 8, !tbaa !63
  %38 = load ptr, ptr %benchmarks, align 8, !tbaa !67
  %sub.ptr.lhs.cast.i252 = ptrtoint ptr %37 to i64
  %sub.ptr.rhs.cast.i253 = ptrtoint ptr %38 to i64
  %sub.ptr.sub.i254 = sub i64 %sub.ptr.lhs.cast.i252, %sub.ptr.rhs.cast.i253
  %sub.ptr.div.i255 = sdiv exact i64 %sub.ptr.sub.i254, 304
  %add = add i64 %sub.ptr.div.i255, %mul
  invoke void @_ZNSt3__16vectorIN9benchmark8internal17BenchmarkInstanceENS_9allocatorIS3_EEE7reserveEm(ptr noundef nonnull align 8 dereferenceable(24) %benchmarks, i64 noundef %add)
          to label %if.end66 unwind label %lpad49

if.end66:                                         ; preds = %if.end61, %_ZNSt3__111char_traitsIcE7compareEPKcS3_m.exit.i.i, %if.then63
  %39 = load ptr, ptr %__begin2.sroa.0.0460, align 8, !tbaa !14
  %args_68 = getelementptr inbounds %"class.benchmark::internal::Benchmark", ptr %39, i64 0, i32 4
  %40 = load ptr, ptr %args_68, align 8, !tbaa !43
  %__end_.i256 = getelementptr inbounds %"class.benchmark::internal::Benchmark", ptr %39, i64 0, i32 4, i32 1
  %41 = load ptr, ptr %__end_.i256, align 8, !tbaa !47
  %cmp.i.i257.not454 = icmp eq ptr %40, %41
  br i1 %cmp.i.i257.not454, label %cleanup, label %for.body76.lr.ph

for.body76.lr.ph:                                 ; preds = %if.end66
  br i1 %cmp.i212, label %for.body76.preheader, label %for.body76.lr.ph.cont

for.body76.lr.ph.cont:                            ; preds = %for.body76.lr.ph
  %.else.val471 = load ptr, ptr %thread_counts_, align 8, !tbaa !58
  %.else.val468 = load ptr, ptr %thread_counts_.sroa.gep, align 8, !tbaa !62
  %42 = icmp eq ptr %.else.val471, %.else.val468
  br i1 %42, label %cleanup, label %for.body76.preheader

for.body76.preheader:                             ; preds = %for.body76.lr.ph, %for.body76.lr.ph.cont
  br label %for.body76

for.body76:                                       ; preds = %for.body76.preheader, %for.cond.cleanup84
  %next_family_index.1457 = phi i32 [ %next_family_index.2.lcssa, %for.cond.cleanup84 ], [ %next_family_index.0461, %for.body76.preheader ]
  %per_family_instance_index.0456 = phi i32 [ %per_family_instance_index.1.lcssa, %for.cond.cleanup84 ], [ 0, %for.body76.preheader ]
  %__begin3.sroa.0.0455 = phi ptr [ %incdec.ptr.i, %for.cond.cleanup84 ], [ %40, %for.body76.preheader ]
  br i1 %cmp.i212, label %for.body85.preheader, label %for.body76.cont

for.body76.cont:                                  ; preds = %for.body76
  %.else.val477 = load ptr, ptr %thread_counts_, align 8, !tbaa !58
  %.else.val466 = load ptr, ptr %thread_counts_.sroa.gep, align 8, !tbaa !62
  %cmp.i.i259.not449 = icmp eq ptr %.else.val477, %.else.val466
  br i1 %cmp.i.i259.not449, label %for.cond.cleanup84, label %for.body85.preheader

for.body85.preheader:                             ; preds = %for.body76, %for.body76.cont
  %43 = phi ptr [ %.else.val466, %for.body76.cont ], [ %add.ptr.i.i, %for.body76 ]
  %44 = phi ptr [ %.else.val477, %for.body76.cont ], [ %call.i.i.i.i.i11.i, %for.body76 ]
  br label %for.body85

for.cond.cleanup84:                               ; preds = %_ZN9benchmark13BenchmarkNameD2Ev.exit, %for.body76.cont
  %per_family_instance_index.1.lcssa = phi i32 [ %per_family_instance_index.0456, %for.body76.cont ], [ %per_family_instance_index.2, %_ZN9benchmark13BenchmarkNameD2Ev.exit ]
  %next_family_index.2.lcssa = phi i32 [ %next_family_index.1457, %for.body76.cont ], [ %next_family_index.3, %_ZN9benchmark13BenchmarkNameD2Ev.exit ]
  %incdec.ptr.i = getelementptr inbounds %"class.std::__1::vector.12", ptr %__begin3.sroa.0.0455, i64 1
  %cmp.i.i257.not = icmp eq ptr %incdec.ptr.i, %41
  br i1 %cmp.i.i257.not, label %cleanup, label %for.body76, !llvm.loop !68

for.body85:                                       ; preds = %for.body85.preheader, %_ZN9benchmark13BenchmarkNameD2Ev.exit
  %next_family_index.2452 = phi i32 [ %next_family_index.3, %_ZN9benchmark13BenchmarkNameD2Ev.exit ], [ %next_family_index.1457, %for.body85.preheader ]
  %per_family_instance_index.1451 = phi i32 [ %per_family_instance_index.2, %_ZN9benchmark13BenchmarkNameD2Ev.exit ], [ %per_family_instance_index.0456, %for.body85.preheader ]
  %__begin4.sroa.0.0450 = phi ptr [ %incdec.ptr.i317, %_ZN9benchmark13BenchmarkNameD2Ev.exit ], [ %44, %for.body85.preheader ]
  %45 = load i32, ptr %__begin4.sroa.0.0450, align 4, !tbaa !70
  call void @llvm.lifetime.start.p0(i64 304, ptr nonnull %instance) #29
  %46 = load ptr, ptr %__begin2.sroa.0.0460, align 8, !tbaa !14
  invoke void @_ZN9benchmark8internal17BenchmarkInstanceC1EPNS0_9BenchmarkEiiRKNSt3__16vectorIlNS4_9allocatorIlEEEEi(ptr noundef nonnull align 8 dereferenceable(304) %instance, ptr noundef %46, i32 noundef %next_family_index.0461, i32 noundef %per_family_instance_index.1451, ptr noundef nonnull align 8 dereferenceable(24) %__begin3.sroa.0.0455, i32 noundef %45)
          to label %invoke.cont89 unwind label %lpad88

invoke.cont89:                                    ; preds = %for.body85
  call void @llvm.lifetime.start.p0(i64 24, ptr nonnull %full_name) #29
  invoke void @_ZNK9benchmark13BenchmarkName3strEv(ptr nonnull sret(%"class.std::__1::basic_string") align 8 %full_name, ptr noundef nonnull align 8 dereferenceable(168) %instance)
          to label %invoke.cont93 unwind label %lpad90

invoke.cont93:                                    ; preds = %invoke.cont89
  %47 = load i8, ptr %re, align 8, !tbaa !31, !range !71
  %tobool.not.i260 = icmp eq i8 %47, 0
  br i1 %tobool.not.i260, label %invoke.cont97, label %if.end.i267

if.end.i267:                                      ; preds = %invoke.cont93
  call void @llvm.lifetime.start.p0(i64 112, ptr nonnull %__mc.i.i) #29
  call void @llvm.memset.p0.i64(ptr noundef nonnull align 8 dereferenceable(17) %__prefix_.i.i.i.i, i8 0, i64 17, i1 false)
  call void @llvm.memset.p0.i64(ptr noundef nonnull align 8 dereferenceable(17) %__suffix_.i.i.i.i, i8 0, i64 17, i1 false)
  store i8 0, ptr %__ready_.i.i.i.i, align 8, !tbaa !72
  store ptr null, ptr %__position_start_.i.i.i.i, align 8, !tbaa !79
  call void @llvm.memset.p0.i64(ptr noundef nonnull align 8 dereferenceable(41) %__mc.i.i, i8 0, i64 41, i1 false)
  %bf.load.i.i.i.i.i = load i8, ptr %full_name, align 8
  %bf.clear.i.i.i.i.i = and i8 %bf.load.i.i.i.i.i, 1
  %tobool.i.not.i.i.i.i = icmp eq i8 %bf.clear.i.i.i.i.i, 0
  %48 = load ptr, ptr %__data_.i.i.i.i.i262, align 8
  %cond.i.i.i.i264 = select i1 %tobool.i.not.i.i.i.i, ptr %__data_.i4.i.i.i.i263, ptr %48
  %49 = load i64, ptr %__size_.i.i.i.i, align 8
  %bf.lshr.i.i.i.i = lshr i8 %bf.load.i.i.i.i.i, 1
  %conv.i.i.i.i = zext i8 %bf.lshr.i.i.i.i to i64
  %cond.i.i.i265 = select i1 %tobool.i.not.i.i.i.i, i64 %conv.i.i.i.i, i64 %49
  %add.ptr.i.i266 = getelementptr inbounds i8, ptr %cond.i.i.i.i264, i64 %cond.i.i.i265
  %call3.i.i = invoke noundef zeroext i1 @_ZNKSt3__111basic_regexIcNS_12regex_traitsIcEEE8__searchINS_9allocatorINS_9sub_matchIPKcEEEEEEbS8_S8_RNS_13match_resultsIS8_T_EENS_15regex_constants15match_flag_typeE(ptr noundef nonnull align 8 dereferenceable(64) %re_.i, ptr noundef %cond.i.i.i.i264, ptr noundef %add.ptr.i.i266, ptr noundef nonnull align 8 dereferenceable(112) %__mc.i.i, i32 noundef 0)
          to label %invoke.cont.i.i unwind label %lpad.i.i

invoke.cont.i.i:                                  ; preds = %if.end.i267
  %50 = load ptr, ptr %__mc.i.i, align 8, !tbaa !80
  %cmp.not.i.i.i.i.i = icmp eq ptr %50, null
  br i1 %cmp.not.i.i.i.i.i, label %invoke.cont95, label %if.then.i.i.i.i.i

if.then.i.i.i.i.i:                                ; preds = %invoke.cont.i.i
  store ptr %50, ptr %__end_.i.i.i.i.i.i.i, align 8, !tbaa !81
  call void @_ZdlPv(ptr noundef nonnull %50) #30
  br label %invoke.cont95

lpad.i.i:                                         ; preds = %if.end.i267
  %51 = landingpad { ptr, i32 }
          cleanup
  %52 = load ptr, ptr %__mc.i.i, align 8, !tbaa !80
  %cmp.not.i.i.i13.i.i = icmp eq ptr %52, null
  br i1 %cmp.not.i.i.i13.i.i, label %_ZNSt3__113match_resultsIPKcNS_9allocatorINS_9sub_matchIS2_EEEEED2Ev.exit16.i.i, label %if.then.i.i.i15.i.i

if.then.i.i.i15.i.i:                              ; preds = %lpad.i.i
  store ptr %52, ptr %__end_.i.i.i.i.i.i.i, align 8, !tbaa !81
  call void @_ZdlPv(ptr noundef nonnull %52) #30
  br label %_ZNSt3__113match_resultsIPKcNS_9allocatorINS_9sub_matchIS2_EEEEED2Ev.exit16.i.i

_ZNSt3__113match_resultsIPKcNS_9allocatorINS_9sub_matchIS2_EEEEED2Ev.exit16.i.i: ; preds = %if.then.i.i.i15.i.i, %lpad.i.i
  call void @llvm.lifetime.end.p0(i64 112, ptr nonnull %__mc.i.i) #29
  br label %lpad94.body

invoke.cont95:                                    ; preds = %invoke.cont.i.i, %if.then.i.i.i.i.i
  call void @llvm.lifetime.end.p0(i64 112, ptr nonnull %__mc.i.i) #29
  %brmerge.not = and i1 %cmp, %call3.i.i
  br i1 %brmerge.not, label %if.then101, label %lor.lhs.false

lor.lhs.false:                                    ; preds = %invoke.cont95
  %.pr = load i8, ptr %re, align 8, !tbaa !31
  %tobool.not.i271 = icmp eq i8 %.pr, 0
  br i1 %tobool.not.i271, label %invoke.cont97, label %if.end.i289

if.end.i289:                                      ; preds = %lor.lhs.false
  call void @llvm.lifetime.start.p0(i64 112, ptr nonnull %__mc.i.i270) #29
  call void @llvm.memset.p0.i64(ptr noundef nonnull align 8 dereferenceable(17) %__prefix_.i.i.i.i273, i8 0, i64 17, i1 false)
  call void @llvm.memset.p0.i64(ptr noundef nonnull align 8 dereferenceable(17) %__suffix_.i.i.i.i274, i8 0, i64 17, i1 false)
  store i8 0, ptr %__ready_.i.i.i.i275, align 8, !tbaa !72
  store ptr null, ptr %__position_start_.i.i.i.i276, align 8, !tbaa !79
  call void @llvm.memset.p0.i64(ptr noundef nonnull align 8 dereferenceable(41) %__mc.i.i270, i8 0, i64 41, i1 false)
  %bf.load.i.i.i.i.i277 = load i8, ptr %full_name, align 8
  %bf.clear.i.i.i.i.i278 = and i8 %bf.load.i.i.i.i.i277, 1
  %tobool.i.not.i.i.i.i279 = icmp eq i8 %bf.clear.i.i.i.i.i278, 0
  %53 = load ptr, ptr %__data_.i.i.i.i.i262, align 8
  %cond.i.i.i.i282 = select i1 %tobool.i.not.i.i.i.i279, ptr %__data_.i4.i.i.i.i263, ptr %53
  %54 = load i64, ptr %__size_.i.i.i.i, align 8
  %bf.lshr.i.i.i.i284 = lshr i8 %bf.load.i.i.i.i.i277, 1
  %conv.i.i.i.i285 = zext i8 %bf.lshr.i.i.i.i284 to i64
  %cond.i.i.i286 = select i1 %tobool.i.not.i.i.i.i279, i64 %conv.i.i.i.i285, i64 %54
  %add.ptr.i.i287 = getelementptr inbounds i8, ptr %cond.i.i.i.i282, i64 %cond.i.i.i286
  %call3.i.i288 = invoke noundef zeroext i1 @_ZNKSt3__111basic_regexIcNS_12regex_traitsIcEEE8__searchINS_9allocatorINS_9sub_matchIPKcEEEEEEbS8_S8_RNS_13match_resultsIS8_T_EENS_15regex_constants15match_flag_typeE(ptr noundef nonnull align 8 dereferenceable(64) %re_.i, ptr noundef %cond.i.i.i.i282, ptr noundef %add.ptr.i.i287, ptr noundef nonnull align 8 dereferenceable(112) %__mc.i.i270, i32 noundef 0)
          to label %invoke.cont.i.i291 unwind label %lpad.i.i295

invoke.cont.i.i291:                               ; preds = %if.end.i289
  %55 = load ptr, ptr %__mc.i.i270, align 8, !tbaa !80
  %cmp.not.i.i.i.i.i290 = icmp eq ptr %55, null
  br i1 %cmp.not.i.i.i.i.i290, label %_ZNSt3__112regex_searchB7v170000INS_11char_traitsIcEENS_9allocatorIcEEcNS_12regex_traitsIcEEEEbRKNS_12basic_stringIT1_T_T0_EERKNS_11basic_regexIS8_T2_EENS_15regex_constants15match_flag_typeE.exit.i299, label %if.then.i.i.i.i.i293

if.then.i.i.i.i.i293:                             ; preds = %invoke.cont.i.i291
  store ptr %55, ptr %__end_.i.i.i.i.i.i.i292, align 8, !tbaa !81
  call void @_ZdlPv(ptr noundef nonnull %55) #30
  br label %_ZNSt3__112regex_searchB7v170000INS_11char_traitsIcEENS_9allocatorIcEEcNS_12regex_traitsIcEEEEbRKNS_12basic_stringIT1_T_T0_EERKNS_11basic_regexIS8_T2_EENS_15regex_constants15match_flag_typeE.exit.i299

lpad.i.i295:                                      ; preds = %if.end.i289
  %56 = landingpad { ptr, i32 }
          cleanup
  %57 = load ptr, ptr %__mc.i.i270, align 8, !tbaa !80
  %cmp.not.i.i.i13.i.i294 = icmp eq ptr %57, null
  br i1 %cmp.not.i.i.i13.i.i294, label %_ZNSt3__113match_resultsIPKcNS_9allocatorINS_9sub_matchIS2_EEEEED2Ev.exit16.i.i298, label %if.then.i.i.i15.i.i297

if.then.i.i.i15.i.i297:                           ; preds = %lpad.i.i295
  store ptr %57, ptr %__end_.i.i.i.i.i.i.i292, align 8, !tbaa !81
  call void @_ZdlPv(ptr noundef nonnull %57) #30
  br label %_ZNSt3__113match_resultsIPKcNS_9allocatorINS_9sub_matchIS2_EEEEED2Ev.exit16.i.i298

_ZNSt3__113match_resultsIPKcNS_9allocatorINS_9sub_matchIS2_EEEEED2Ev.exit16.i.i298: ; preds = %if.then.i.i.i15.i.i297, %lpad.i.i295
  call void @llvm.lifetime.end.p0(i64 112, ptr nonnull %__mc.i.i270) #29
  br label %lpad94.body

_ZNSt3__112regex_searchB7v170000INS_11char_traitsIcEENS_9allocatorIcEEcNS_12regex_traitsIcEEEEbRKNS_12basic_stringIT1_T_T0_EERKNS_11basic_regexIS8_T2_EENS_15regex_constants15match_flag_typeE.exit.i299: ; preds = %if.then.i.i.i.i.i293, %invoke.cont.i.i291
  call void @llvm.lifetime.end.p0(i64 112, ptr nonnull %__mc.i.i270) #29
  br label %invoke.cont97

invoke.cont97:                                    ; preds = %invoke.cont93, %_ZNSt3__112regex_searchB7v170000INS_11char_traitsIcEENS_9allocatorIcEEcNS_12regex_traitsIcEEEEbRKNS_12basic_stringIT1_T_T0_EERKNS_11basic_regexIS8_T2_EENS_15regex_constants15match_flag_typeE.exit.i299, %lor.lhs.false
  %retval.0.i300 = phi i1 [ %call3.i.i288, %_ZNSt3__112regex_searchB7v170000INS_11char_traitsIcEENS_9allocatorIcEEcNS_12regex_traitsIcEEEEbRKNS_12basic_stringIT1_T_T0_EERKNS_11basic_regexIS8_T2_EENS_15regex_constants15match_flag_typeE.exit.i299 ], [ false, %lor.lhs.false ], [ false, %invoke.cont93 ]
  %brmerge194 = or i1 %cmp, %retval.0.i300
  br i1 %brmerge194, label %if.end107, label %if.then101

if.then101:                                       ; preds = %invoke.cont97, %invoke.cont95
  %58 = load ptr, ptr %__end_.i251, align 8, !tbaa !63
  %59 = load ptr, ptr %__end_cap_.i.i, align 8, !tbaa !14
  %cmp.i305 = icmp ult ptr %58, %59
  br i1 %cmp.i305, label %if.then.i306, label %if.else.i

if.then.i306:                                     ; preds = %if.then101
  call void @llvm.memcpy.p0.p0.i64(ptr noundef nonnull align 8 dereferenceable(24) %58, ptr noundef nonnull align 8 dereferenceable(24) %instance, i64 24, i1 false)
  call void @llvm.memset.p0.i64(ptr noundef nonnull align 8 dereferenceable(24) %instance, i8 0, i64 24, i1 false)
  %args.i.i.i.i.i.i = getelementptr inbounds %"struct.benchmark::BenchmarkName", ptr %58, i64 0, i32 1
  call void @llvm.memcpy.p0.p0.i64(ptr noundef nonnull align 8 dereferenceable(24) %args.i.i.i.i.i.i, ptr noundef nonnull align 8 dereferenceable(24) %args3.i.i.i.i.i.i, i64 24, i1 false)
  call void @llvm.memset.p0.i64(ptr noundef nonnull align 8 dereferenceable(24) %args3.i.i.i.i.i.i, i8 0, i64 24, i1 false)
  %min_time.i.i.i.i.i.i = getelementptr inbounds %"struct.benchmark::BenchmarkName", ptr %58, i64 0, i32 2
  call void @llvm.memcpy.p0.p0.i64(ptr noundef nonnull align 8 dereferenceable(24) %min_time.i.i.i.i.i.i, ptr noundef nonnull align 8 dereferenceable(24) %min_time4.i.i.i.i.i.i, i64 24, i1 false)
  call void @llvm.memset.p0.i64(ptr noundef nonnull align 8 dereferenceable(24) %min_time4.i.i.i.i.i.i, i8 0, i64 24, i1 false)
  %iterations.i.i.i.i.i.i = getelementptr inbounds %"struct.benchmark::BenchmarkName", ptr %58, i64 0, i32 3
  call void @llvm.memcpy.p0.p0.i64(ptr noundef nonnull align 8 dereferenceable(24) %iterations.i.i.i.i.i.i, ptr noundef nonnull align 8 dereferenceable(24) %iterations5.i.i.i.i.i.i, i64 24, i1 false)
  call void @llvm.memset.p0.i64(ptr noundef nonnull align 8 dereferenceable(24) %iterations5.i.i.i.i.i.i, i8 0, i64 24, i1 false)
  %repetitions.i.i.i.i.i.i = getelementptr inbounds %"struct.benchmark::BenchmarkName", ptr %58, i64 0, i32 4
  call void @llvm.memcpy.p0.p0.i64(ptr noundef nonnull align 8 dereferenceable(24) %repetitions.i.i.i.i.i.i, ptr noundef nonnull align 8 dereferenceable(24) %repetitions6.i.i.i.i.i.i, i64 24, i1 false)
  call void @llvm.memset.p0.i64(ptr noundef nonnull align 8 dereferenceable(24) %repetitions6.i.i.i.i.i.i, i8 0, i64 24, i1 false)
  %time_type.i.i.i.i.i.i = getelementptr inbounds %"struct.benchmark::BenchmarkName", ptr %58, i64 0, i32 5
  call void @llvm.memcpy.p0.p0.i64(ptr noundef nonnull align 8 dereferenceable(24) %time_type.i.i.i.i.i.i, ptr noundef nonnull align 8 dereferenceable(24) %time_type7.i.i.i.i.i.i, i64 24, i1 false)
  call void @llvm.memset.p0.i64(ptr noundef nonnull align 8 dereferenceable(24) %time_type7.i.i.i.i.i.i, i8 0, i64 24, i1 false)
  %threads.i.i.i.i.i.i = getelementptr inbounds %"struct.benchmark::BenchmarkName", ptr %58, i64 0, i32 6
  call void @llvm.memcpy.p0.p0.i64(ptr noundef nonnull align 8 dereferenceable(24) %threads.i.i.i.i.i.i, ptr noundef nonnull align 8 dereferenceable(24) %threads8.i.i.i.i.i.i, i64 24, i1 false)
  call void @llvm.memset.p0.i64(ptr noundef nonnull align 8 dereferenceable(24) %threads8.i.i.i.i.i.i, i8 0, i64 24, i1 false)
  %benchmark_.i.i.i.i.i = getelementptr inbounds %"class.benchmark::internal::BenchmarkInstance", ptr %58, i64 0, i32 1
  call void @llvm.memcpy.p0.p0.i64(ptr noundef nonnull align 8 dereferenceable(56) %benchmark_.i.i.i.i.i, ptr noundef nonnull align 8 dereferenceable(56) %benchmark_3.i.i.i.i.i, i64 56, i1 false)
  %counters_.i.i.i.i.i = getelementptr inbounds %"class.benchmark::internal::BenchmarkInstance", ptr %58, i64 0, i32 12
  %60 = load ptr, ptr %counters_4.i.i.i.i.i, align 8, !tbaa !14
  store ptr %60, ptr %counters_.i.i.i.i.i, align 8, !tbaa !82
  %__pair1_.i.i.i.i.i.i.i = getelementptr inbounds %"class.benchmark::internal::BenchmarkInstance", ptr %58, i64 0, i32 12, i32 0, i32 1
  %61 = load i64, ptr %__pair1_3.i.i.i.i.i.i.i, align 8
  store i64 %61, ptr %__pair1_.i.i.i.i.i.i.i, align 8
  %__pair3_.i.i.i.i.i.i.i = getelementptr inbounds %"class.benchmark::internal::BenchmarkInstance", ptr %58, i64 0, i32 12, i32 0, i32 2
  %62 = load i64, ptr %__pair3_4.i.i.i.i.i.i.i, align 8
  store i64 %62, ptr %__pair3_.i.i.i.i.i.i.i, align 8
  %cmp.i.i.i.i.i.i.i = icmp eq i64 %62, 0
  br i1 %cmp.i.i.i.i.i.i.i, label %if.then.i.i.i.i.i.i.i, label %if.else.i.i.i.i.i.i.i

if.then.i.i.i.i.i.i.i:                            ; preds = %if.then.i306
  store ptr %__pair1_.i.i.i.i.i.i.i, ptr %counters_.i.i.i.i.i, align 8, !tbaa !14
  br label %_ZNSt3__16vectorIN9benchmark8internal17BenchmarkInstanceENS_9allocatorIS3_EEE22__construct_one_at_endB7v170000IJS3_EEEvDpOT_.exit.i

if.else.i.i.i.i.i.i.i:                            ; preds = %if.then.i306
  %63 = inttoptr i64 %61 to ptr
  %__parent_.i.i.i.i.i.i.i = getelementptr inbounds %"class.std::__1::__tree_node_base", ptr %63, i64 0, i32 2
  store ptr %__pair1_.i.i.i.i.i.i.i, ptr %__parent_.i.i.i.i.i.i.i, align 8, !tbaa !90
  store ptr %__pair1_3.i.i.i.i.i.i.i, ptr %counters_4.i.i.i.i.i, align 8, !tbaa !14
  call void @llvm.memset.p0.i64(ptr noundef nonnull align 8 dereferenceable(16) %__pair1_3.i.i.i.i.i.i.i, i8 0, i64 16, i1 false)
  br label %_ZNSt3__16vectorIN9benchmark8internal17BenchmarkInstanceENS_9allocatorIS3_EEE22__construct_one_at_endB7v170000IJS3_EEEvDpOT_.exit.i

_ZNSt3__16vectorIN9benchmark8internal17BenchmarkInstanceENS_9allocatorIS3_EEE22__construct_one_at_endB7v170000IJS3_EEEvDpOT_.exit.i: ; preds = %if.else.i.i.i.i.i.i.i, %if.then.i.i.i.i.i.i.i
  %statistics_.i.i.i.i.i = getelementptr inbounds %"class.benchmark::internal::BenchmarkInstance", ptr %58, i64 0, i32 13
  call void @llvm.memcpy.p0.p0.i64(ptr noundef nonnull align 8 dereferenceable(56) %statistics_.i.i.i.i.i, ptr noundef nonnull align 8 dereferenceable(56) %statistics_5.i.i.i.i.i, i64 56, i1 false)
  %incdec.ptr.i.i = getelementptr inbounds %"class.benchmark::internal::BenchmarkInstance", ptr %58, i64 1
  store ptr %incdec.ptr.i.i, ptr %__end_.i251, align 8, !tbaa !63
  br label %invoke.cont102

if.else.i:                                        ; preds = %if.then101
  invoke void @_ZNSt3__16vectorIN9benchmark8internal17BenchmarkInstanceENS_9allocatorIS3_EEE21__push_back_slow_pathIS3_EEvOT_(ptr noundef nonnull align 8 dereferenceable(24) %benchmarks, ptr noundef nonnull align 8 dereferenceable(304) %instance)
          to label %invoke.cont102 unwind label %lpad94

invoke.cont102:                                   ; preds = %_ZNSt3__16vectorIN9benchmark8internal17BenchmarkInstanceENS_9allocatorIS3_EEE22__construct_one_at_endB7v170000IJS3_EEEvDpOT_.exit.i, %if.else.i
  %inc = add nsw i32 %per_family_instance_index.1451, 1
  %cmp103 = icmp eq i32 %next_family_index.2452, %next_family_index.0461
  %inc105 = zext i1 %cmp103 to i32
  %spec.select = add nsw i32 %next_family_index.2452, %inc105
  br label %if.end107

lpad88:                                           ; preds = %for.body85
  %64 = landingpad { ptr, i32 }
          cleanup
  br label %ehcleanup109

lpad90:                                           ; preds = %invoke.cont89
  %65 = landingpad { ptr, i32 }
          cleanup
  br label %ehcleanup

lpad94:                                           ; preds = %if.else.i
  %66 = landingpad { ptr, i32 }
          cleanup
  br label %lpad94.body

lpad94.body:                                      ; preds = %lpad94, %_ZNSt3__113match_resultsIPKcNS_9allocatorINS_9sub_matchIS2_EEEEED2Ev.exit16.i.i298, %_ZNSt3__113match_resultsIPKcNS_9allocatorINS_9sub_matchIS2_EEEEED2Ev.exit16.i.i
  %eh.lpad-body269 = phi { ptr, i32 } [ %51, %_ZNSt3__113match_resultsIPKcNS_9allocatorINS_9sub_matchIS2_EEEEED2Ev.exit16.i.i ], [ %66, %lpad94 ], [ %56, %_ZNSt3__113match_resultsIPKcNS_9allocatorINS_9sub_matchIS2_EEEEED2Ev.exit16.i.i298 ]
  %bf.load.i.i = load i8, ptr %full_name, align 8
  %bf.clear.i.i = and i8 %bf.load.i.i, 1
  %tobool.i.not.i = icmp eq i8 %bf.clear.i.i, 0
  br i1 %tobool.i.not.i, label %ehcleanup, label %if.then.i308

if.then.i308:                                     ; preds = %lpad94.body
  %67 = load ptr, ptr %__data_.i.i.i.i.i262, align 8, !tbaa !42
  call void @_ZdlPv(ptr noundef %67) #30
  br label %ehcleanup

if.end107:                                        ; preds = %invoke.cont102, %invoke.cont97
  %per_family_instance_index.2 = phi i32 [ %per_family_instance_index.1451, %invoke.cont97 ], [ %inc, %invoke.cont102 ]
  %next_family_index.3 = phi i32 [ %next_family_index.2452, %invoke.cont97 ], [ %spec.select, %invoke.cont102 ]
  %bf.load.i.i310 = load i8, ptr %full_name, align 8
  %bf.clear.i.i311 = and i8 %bf.load.i.i310, 1
  %tobool.i.not.i312 = icmp eq i8 %bf.clear.i.i311, 0
  br i1 %tobool.i.not.i312, label %_ZNSt3__112basic_stringIcNS_11char_traitsIcEENS_9allocatorIcEEED2Ev.exit316, label %if.then.i314

if.then.i314:                                     ; preds = %if.end107
  %68 = load ptr, ptr %__data_.i.i.i.i.i262, align 8, !tbaa !42
  call void @_ZdlPv(ptr noundef %68) #30
  br label %_ZNSt3__112basic_stringIcNS_11char_traitsIcEENS_9allocatorIcEEED2Ev.exit316

_ZNSt3__112basic_stringIcNS_11char_traitsIcEENS_9allocatorIcEEED2Ev.exit316: ; preds = %if.end107, %if.then.i314
  call void @llvm.lifetime.end.p0(i64 24, ptr nonnull %full_name) #29
  %69 = load ptr, ptr %__pair1_3.i.i.i.i.i.i.i, align 8, !tbaa !92
  call void @_ZNSt3__16__treeINS_12__value_typeINS_12basic_stringIcNS_11char_traitsIcEENS_9allocatorIcEEEEN9benchmark7CounterEEENS_19__map_value_compareIS7_SA_NS_4lessIS7_EELb1EEENS5_ISA_EEE7destroyEPNS_11__tree_nodeISA_PvEE(ptr noundef nonnull align 8 dereferenceable(24) %counters_4.i.i.i.i.i, ptr noundef %69) #29
  %bf.load.i.i.i361 = load i8, ptr %threads8.i.i.i.i.i.i, align 8
  %bf.clear.i.i.i362 = and i8 %bf.load.i.i.i361, 1
  %tobool.i.not.i.i363 = icmp eq i8 %bf.clear.i.i.i362, 0
  br i1 %tobool.i.not.i.i363, label %_ZNSt3__112basic_stringIcNS_11char_traitsIcEENS_9allocatorIcEEED2Ev.exit.i, label %if.then.i.i365

if.then.i.i365:                                   ; preds = %_ZNSt3__112basic_stringIcNS_11char_traitsIcEENS_9allocatorIcEEED2Ev.exit316
  %70 = load ptr, ptr %__data_.i.i.i364, align 8, !tbaa !42
  call void @_ZdlPv(ptr noundef %70) #30
  br label %_ZNSt3__112basic_stringIcNS_11char_traitsIcEENS_9allocatorIcEEED2Ev.exit.i

_ZNSt3__112basic_stringIcNS_11char_traitsIcEENS_9allocatorIcEEED2Ev.exit.i: ; preds = %if.then.i.i365, %_ZNSt3__112basic_stringIcNS_11char_traitsIcEENS_9allocatorIcEEED2Ev.exit316
  %bf.load.i.i2.i = load i8, ptr %time_type7.i.i.i.i.i.i, align 8
  %bf.clear.i.i3.i = and i8 %bf.load.i.i2.i, 1
  %tobool.i.not.i4.i = icmp eq i8 %bf.clear.i.i3.i, 0
  br i1 %tobool.i.not.i4.i, label %_ZNSt3__112basic_stringIcNS_11char_traitsIcEENS_9allocatorIcEEED2Ev.exit7.i, label %if.then.i6.i

if.then.i6.i:                                     ; preds = %_ZNSt3__112basic_stringIcNS_11char_traitsIcEENS_9allocatorIcEEED2Ev.exit.i
  %71 = load ptr, ptr %__data_.i.i5.i, align 8, !tbaa !42
  call void @_ZdlPv(ptr noundef %71) #30
  br label %_ZNSt3__112basic_stringIcNS_11char_traitsIcEENS_9allocatorIcEEED2Ev.exit7.i

_ZNSt3__112basic_stringIcNS_11char_traitsIcEENS_9allocatorIcEEED2Ev.exit7.i: ; preds = %if.then.i6.i, %_ZNSt3__112basic_stringIcNS_11char_traitsIcEENS_9allocatorIcEEED2Ev.exit.i
  %bf.load.i.i8.i = load i8, ptr %repetitions6.i.i.i.i.i.i, align 8
  %bf.clear.i.i9.i = and i8 %bf.load.i.i8.i, 1
  %tobool.i.not.i10.i = icmp eq i8 %bf.clear.i.i9.i, 0
  br i1 %tobool.i.not.i10.i, label %_ZNSt3__112basic_stringIcNS_11char_traitsIcEENS_9allocatorIcEEED2Ev.exit13.i, label %if.then.i12.i

if.then.i12.i:                                    ; preds = %_ZNSt3__112basic_stringIcNS_11char_traitsIcEENS_9allocatorIcEEED2Ev.exit7.i
  %72 = load ptr, ptr %__data_.i.i11.i, align 8, !tbaa !42
  call void @_ZdlPv(ptr noundef %72) #30
  br label %_ZNSt3__112basic_stringIcNS_11char_traitsIcEENS_9allocatorIcEEED2Ev.exit13.i

_ZNSt3__112basic_stringIcNS_11char_traitsIcEENS_9allocatorIcEEED2Ev.exit13.i: ; preds = %if.then.i12.i, %_ZNSt3__112basic_stringIcNS_11char_traitsIcEENS_9allocatorIcEEED2Ev.exit7.i
  %bf.load.i.i14.i = load i8, ptr %iterations5.i.i.i.i.i.i, align 8
  %bf.clear.i.i15.i = and i8 %bf.load.i.i14.i, 1
  %tobool.i.not.i16.i = icmp eq i8 %bf.clear.i.i15.i, 0
  br i1 %tobool.i.not.i16.i, label %_ZNSt3__112basic_stringIcNS_11char_traitsIcEENS_9allocatorIcEEED2Ev.exit19.i, label %if.then.i18.i

if.then.i18.i:                                    ; preds = %_ZNSt3__112basic_stringIcNS_11char_traitsIcEENS_9allocatorIcEEED2Ev.exit13.i
  %73 = load ptr, ptr %__data_.i.i17.i, align 8, !tbaa !42
  call void @_ZdlPv(ptr noundef %73) #30
  br label %_ZNSt3__112basic_stringIcNS_11char_traitsIcEENS_9allocatorIcEEED2Ev.exit19.i

_ZNSt3__112basic_stringIcNS_11char_traitsIcEENS_9allocatorIcEEED2Ev.exit19.i: ; preds = %if.then.i18.i, %_ZNSt3__112basic_stringIcNS_11char_traitsIcEENS_9allocatorIcEEED2Ev.exit13.i
  %bf.load.i.i20.i = load i8, ptr %min_time4.i.i.i.i.i.i, align 8
  %bf.clear.i.i21.i = and i8 %bf.load.i.i20.i, 1
  %tobool.i.not.i22.i = icmp eq i8 %bf.clear.i.i21.i, 0
  br i1 %tobool.i.not.i22.i, label %_ZNSt3__112basic_stringIcNS_11char_traitsIcEENS_9allocatorIcEEED2Ev.exit25.i, label %if.then.i24.i

if.then.i24.i:                                    ; preds = %_ZNSt3__112basic_stringIcNS_11char_traitsIcEENS_9allocatorIcEEED2Ev.exit19.i
  %74 = load ptr, ptr %__data_.i.i23.i, align 8, !tbaa !42
  call void @_ZdlPv(ptr noundef %74) #30
  br label %_ZNSt3__112basic_stringIcNS_11char_traitsIcEENS_9allocatorIcEEED2Ev.exit25.i

_ZNSt3__112basic_stringIcNS_11char_traitsIcEENS_9allocatorIcEEED2Ev.exit25.i: ; preds = %if.then.i24.i, %_ZNSt3__112basic_stringIcNS_11char_traitsIcEENS_9allocatorIcEEED2Ev.exit19.i
  %bf.load.i.i26.i = load i8, ptr %args3.i.i.i.i.i.i, align 8
  %bf.clear.i.i27.i = and i8 %bf.load.i.i26.i, 1
  %tobool.i.not.i28.i = icmp eq i8 %bf.clear.i.i27.i, 0
  br i1 %tobool.i.not.i28.i, label %_ZNSt3__112basic_stringIcNS_11char_traitsIcEENS_9allocatorIcEEED2Ev.exit31.i, label %if.then.i30.i

if.then.i30.i:                                    ; preds = %_ZNSt3__112basic_stringIcNS_11char_traitsIcEENS_9allocatorIcEEED2Ev.exit25.i
  %75 = load ptr, ptr %__data_.i.i29.i, align 8, !tbaa !42
  call void @_ZdlPv(ptr noundef %75) #30
  br label %_ZNSt3__112basic_stringIcNS_11char_traitsIcEENS_9allocatorIcEEED2Ev.exit31.i

_ZNSt3__112basic_stringIcNS_11char_traitsIcEENS_9allocatorIcEEED2Ev.exit31.i: ; preds = %if.then.i30.i, %_ZNSt3__112basic_stringIcNS_11char_traitsIcEENS_9allocatorIcEEED2Ev.exit25.i
  %bf.load.i.i32.i = load i8, ptr %instance, align 8
  %bf.clear.i.i33.i = and i8 %bf.load.i.i32.i, 1
  %tobool.i.not.i34.i = icmp eq i8 %bf.clear.i.i33.i, 0
  br i1 %tobool.i.not.i34.i, label %_ZN9benchmark13BenchmarkNameD2Ev.exit, label %if.then.i36.i

if.then.i36.i:                                    ; preds = %_ZNSt3__112basic_stringIcNS_11char_traitsIcEENS_9allocatorIcEEED2Ev.exit31.i
  %76 = load ptr, ptr %__data_.i.i35.i, align 8, !tbaa !42
  call void @_ZdlPv(ptr noundef %76) #30
  br label %_ZN9benchmark13BenchmarkNameD2Ev.exit

_ZN9benchmark13BenchmarkNameD2Ev.exit:            ; preds = %_ZNSt3__112basic_stringIcNS_11char_traitsIcEENS_9allocatorIcEEED2Ev.exit31.i, %if.then.i36.i
  call void @llvm.lifetime.end.p0(i64 304, ptr nonnull %instance) #29
  %incdec.ptr.i317 = getelementptr inbounds i32, ptr %__begin4.sroa.0.0450, i64 1
  %cmp.i.i259.not = icmp eq ptr %incdec.ptr.i317, %43
  br i1 %cmp.i.i259.not, label %for.cond.cleanup84, label %for.body85

ehcleanup:                                        ; preds = %if.then.i308, %lpad94.body, %lpad90
  %.pn = phi { ptr, i32 } [ %65, %lpad90 ], [ %eh.lpad-body269, %lpad94.body ], [ %eh.lpad-body269, %if.then.i308 ]
  call void @llvm.lifetime.end.p0(i64 24, ptr nonnull %full_name) #29
  %77 = load ptr, ptr %__pair1_3.i.i.i.i.i.i.i, align 8, !tbaa !92
  call void @_ZNSt3__16__treeINS_12__value_typeINS_12basic_stringIcNS_11char_traitsIcEENS_9allocatorIcEEEEN9benchmark7CounterEEENS_19__map_value_compareIS7_SA_NS_4lessIS7_EELb1EEENS5_ISA_EEE7destroyEPNS_11__tree_nodeISA_PvEE(ptr noundef nonnull align 8 dereferenceable(24) %counters_4.i.i.i.i.i, ptr noundef %77) #29
  %bf.load.i.i.i367 = load i8, ptr %threads8.i.i.i.i.i.i, align 8
  %bf.clear.i.i.i368 = and i8 %bf.load.i.i.i367, 1
  %tobool.i.not.i.i369 = icmp eq i8 %bf.clear.i.i.i368, 0
  br i1 %tobool.i.not.i.i369, label %_ZNSt3__112basic_stringIcNS_11char_traitsIcEENS_9allocatorIcEEED2Ev.exit.i376, label %if.then.i.i371

if.then.i.i371:                                   ; preds = %ehcleanup
  %78 = load ptr, ptr %__data_.i.i.i364, align 8, !tbaa !42
  call void @_ZdlPv(ptr noundef %78) #30
  br label %_ZNSt3__112basic_stringIcNS_11char_traitsIcEENS_9allocatorIcEEED2Ev.exit.i376

_ZNSt3__112basic_stringIcNS_11char_traitsIcEENS_9allocatorIcEEED2Ev.exit.i376: ; preds = %if.then.i.i371, %ehcleanup
  %bf.load.i.i2.i373 = load i8, ptr %time_type7.i.i.i.i.i.i, align 8
  %bf.clear.i.i3.i374 = and i8 %bf.load.i.i2.i373, 1
  %tobool.i.not.i4.i375 = icmp eq i8 %bf.clear.i.i3.i374, 0
  br i1 %tobool.i.not.i4.i375, label %_ZNSt3__112basic_stringIcNS_11char_traitsIcEENS_9allocatorIcEEED2Ev.exit7.i383, label %if.then.i6.i378

if.then.i6.i378:                                  ; preds = %_ZNSt3__112basic_stringIcNS_11char_traitsIcEENS_9allocatorIcEEED2Ev.exit.i376
  %79 = load ptr, ptr %__data_.i.i5.i, align 8, !tbaa !42
  call void @_ZdlPv(ptr noundef %79) #30
  br label %_ZNSt3__112basic_stringIcNS_11char_traitsIcEENS_9allocatorIcEEED2Ev.exit7.i383

_ZNSt3__112basic_stringIcNS_11char_traitsIcEENS_9allocatorIcEEED2Ev.exit7.i383: ; preds = %if.then.i6.i378, %_ZNSt3__112basic_stringIcNS_11char_traitsIcEENS_9allocatorIcEEED2Ev.exit.i376
  %bf.load.i.i8.i380 = load i8, ptr %repetitions6.i.i.i.i.i.i, align 8
  %bf.clear.i.i9.i381 = and i8 %bf.load.i.i8.i380, 1
  %tobool.i.not.i10.i382 = icmp eq i8 %bf.clear.i.i9.i381, 0
  br i1 %tobool.i.not.i10.i382, label %_ZNSt3__112basic_stringIcNS_11char_traitsIcEENS_9allocatorIcEEED2Ev.exit13.i390, label %if.then.i12.i385

if.then.i12.i385:                                 ; preds = %_ZNSt3__112basic_stringIcNS_11char_traitsIcEENS_9allocatorIcEEED2Ev.exit7.i383
  %80 = load ptr, ptr %__data_.i.i11.i, align 8, !tbaa !42
  call void @_ZdlPv(ptr noundef %80) #30
  br label %_ZNSt3__112basic_stringIcNS_11char_traitsIcEENS_9allocatorIcEEED2Ev.exit13.i390

_ZNSt3__112basic_stringIcNS_11char_traitsIcEENS_9allocatorIcEEED2Ev.exit13.i390: ; preds = %if.then.i12.i385, %_ZNSt3__112basic_stringIcNS_11char_traitsIcEENS_9allocatorIcEEED2Ev.exit7.i383
  %bf.load.i.i14.i387 = load i8, ptr %iterations5.i.i.i.i.i.i, align 8
  %bf.clear.i.i15.i388 = and i8 %bf.load.i.i14.i387, 1
  %tobool.i.not.i16.i389 = icmp eq i8 %bf.clear.i.i15.i388, 0
  br i1 %tobool.i.not.i16.i389, label %_ZNSt3__112basic_stringIcNS_11char_traitsIcEENS_9allocatorIcEEED2Ev.exit19.i397, label %if.then.i18.i392

if.then.i18.i392:                                 ; preds = %_ZNSt3__112basic_stringIcNS_11char_traitsIcEENS_9allocatorIcEEED2Ev.exit13.i390
  %81 = load ptr, ptr %__data_.i.i17.i, align 8, !tbaa !42
  call void @_ZdlPv(ptr noundef %81) #30
  br label %_ZNSt3__112basic_stringIcNS_11char_traitsIcEENS_9allocatorIcEEED2Ev.exit19.i397

_ZNSt3__112basic_stringIcNS_11char_traitsIcEENS_9allocatorIcEEED2Ev.exit19.i397: ; preds = %if.then.i18.i392, %_ZNSt3__112basic_stringIcNS_11char_traitsIcEENS_9allocatorIcEEED2Ev.exit13.i390
  %bf.load.i.i20.i394 = load i8, ptr %min_time4.i.i.i.i.i.i, align 8
  %bf.clear.i.i21.i395 = and i8 %bf.load.i.i20.i394, 1
  %tobool.i.not.i22.i396 = icmp eq i8 %bf.clear.i.i21.i395, 0
  br i1 %tobool.i.not.i22.i396, label %_ZNSt3__112basic_stringIcNS_11char_traitsIcEENS_9allocatorIcEEED2Ev.exit25.i404, label %if.then.i24.i399

if.then.i24.i399:                                 ; preds = %_ZNSt3__112basic_stringIcNS_11char_traitsIcEENS_9allocatorIcEEED2Ev.exit19.i397
  %82 = load ptr, ptr %__data_.i.i23.i, align 8, !tbaa !42
  call void @_ZdlPv(ptr noundef %82) #30
  br label %_ZNSt3__112basic_stringIcNS_11char_traitsIcEENS_9allocatorIcEEED2Ev.exit25.i404

_ZNSt3__112basic_stringIcNS_11char_traitsIcEENS_9allocatorIcEEED2Ev.exit25.i404: ; preds = %if.then.i24.i399, %_ZNSt3__112basic_stringIcNS_11char_traitsIcEENS_9allocatorIcEEED2Ev.exit19.i397
  %bf.load.i.i26.i401 = load i8, ptr %args3.i.i.i.i.i.i, align 8
  %bf.clear.i.i27.i402 = and i8 %bf.load.i.i26.i401, 1
  %tobool.i.not.i28.i403 = icmp eq i8 %bf.clear.i.i27.i402, 0
  br i1 %tobool.i.not.i28.i403, label %_ZNSt3__112basic_stringIcNS_11char_traitsIcEENS_9allocatorIcEEED2Ev.exit31.i410, label %if.then.i30.i406

if.then.i30.i406:                                 ; preds = %_ZNSt3__112basic_stringIcNS_11char_traitsIcEENS_9allocatorIcEEED2Ev.exit25.i404
  %83 = load ptr, ptr %__data_.i.i29.i, align 8, !tbaa !42
  call void @_ZdlPv(ptr noundef %83) #30
  br label %_ZNSt3__112basic_stringIcNS_11char_traitsIcEENS_9allocatorIcEEED2Ev.exit31.i410

_ZNSt3__112basic_stringIcNS_11char_traitsIcEENS_9allocatorIcEEED2Ev.exit31.i410: ; preds = %if.then.i30.i406, %_ZNSt3__112basic_stringIcNS_11char_traitsIcEENS_9allocatorIcEEED2Ev.exit25.i404
  %bf.load.i.i32.i407 = load i8, ptr %instance, align 8
  %bf.clear.i.i33.i408 = and i8 %bf.load.i.i32.i407, 1
  %tobool.i.not.i34.i409 = icmp eq i8 %bf.clear.i.i33.i408, 0
  br i1 %tobool.i.not.i34.i409, label %ehcleanup109, label %if.then.i36.i412

if.then.i36.i412:                                 ; preds = %_ZNSt3__112basic_stringIcNS_11char_traitsIcEENS_9allocatorIcEEED2Ev.exit31.i410
  %84 = load ptr, ptr %__data_.i.i35.i, align 8, !tbaa !42
  call void @_ZdlPv(ptr noundef %84) #30
  br label %ehcleanup109

ehcleanup109:                                     ; preds = %if.then.i36.i412, %_ZNSt3__112basic_stringIcNS_11char_traitsIcEENS_9allocatorIcEEED2Ev.exit31.i410, %lpad88
  %.pn.pn = phi { ptr, i32 } [ %64, %lpad88 ], [ %.pn, %_ZNSt3__112basic_stringIcNS_11char_traitsIcEENS_9allocatorIcEEED2Ev.exit31.i410 ], [ %.pn, %if.then.i36.i412 ]
  call void @llvm.lifetime.end.p0(i64 304, ptr nonnull %instance) #29
  br label %_ZN9benchmark9MutexLockD2Ev.exit324

cleanup:                                          ; preds = %for.cond.cleanup84, %for.body76.lr.ph.cont, %if.end66, %for.body
  %next_family_index.4 = phi i32 [ %next_family_index.0461, %for.body ], [ %next_family_index.0461, %if.end66 ], [ %next_family_index.0461, %for.body76.lr.ph.cont ], [ %next_family_index.2.lcssa, %for.cond.cleanup84 ]
  %incdec.ptr.i320 = getelementptr inbounds %"class.std::__1::unique_ptr", ptr %__begin2.sroa.0.0460, i64 1
  %cmp.i.i.not = icmp eq ptr %incdec.ptr.i320, %12
  br i1 %cmp.i.i.not, label %_ZNSt3__16vectorIiNS_9allocatorIiEEED2B7v170000Ev.exit, label %for.body

_ZN9benchmark9MutexLockD2Ev.exit324:              ; preds = %lpad49, %ehcleanup109, %_ZNSt3__16vectorIlNS_9allocatorIlEEED2B7v170000Ev.exit210
  %.pn.pn.pn.pn = phi { ptr, i32 } [ %24, %_ZNSt3__16vectorIlNS_9allocatorIlEEED2B7v170000Ev.exit210 ], [ %.pn.pn, %ehcleanup109 ], [ %34, %lpad49 ]
  call void @_ZNSt3__15mutex6unlockEv(ptr noundef nonnull align 8 dereferenceable(40) %mutex_) #29
  br label %if.then.i.i327

if.then.i.i327:                                   ; preds = %lpad18, %_ZN9benchmark9MutexLockD2Ev.exit324
  %.pn.pn.pn.pn.pn = phi { ptr, i32 } [ %.pn.pn.pn.pn, %_ZN9benchmark9MutexLockD2Ev.exit324 ], [ %13, %lpad18 ]
  call void @_ZdlPv(ptr noundef nonnull %call.i.i.i.i.i11.i) #30
  br label %ehcleanup151

cleanup150:                                       ; preds = %call1.i.noexc, %_ZNSt3__16vectorIiNS_9allocatorIiEEED2B7v170000Ev.exit
  %__cntrl_.i.i.i = getelementptr inbounds %"class.benchmark::Regex", ptr %re, i64 0, i32 1, i32 5, i32 1
  %85 = load ptr, ptr %__cntrl_.i.i.i, align 8, !tbaa !93
  %tobool.not.i.i.i = icmp eq ptr %85, null
  br i1 %tobool.not.i.i.i, label %_ZN9benchmark5RegexD2Ev.exit, label %if.then.i.i.i329

if.then.i.i.i329:                                 ; preds = %cleanup150
  %__shared_owners_.i.i.i.i.i = getelementptr inbounds %"class.std::__1::__shared_count", ptr %85, i64 0, i32 1
  %86 = atomicrmw add ptr %__shared_owners_.i.i.i.i.i, i64 -1 acq_rel, align 8
  %cmp.i.i.i.i.i = icmp eq i64 %86, 0
  br i1 %cmp.i.i.i.i.i, label %if.then.i.i.i.i, label %_ZN9benchmark5RegexD2Ev.exit

if.then.i.i.i.i:                                  ; preds = %if.then.i.i.i329
  %vtable.i.i.i.i.i = load ptr, ptr %85, align 8, !tbaa !15
  %vfn.i.i.i.i.i = getelementptr inbounds ptr, ptr %vtable.i.i.i.i.i, i64 2
  %87 = load ptr, ptr %vfn.i.i.i.i.i, align 8
  call void %87(ptr noundef nonnull align 8 dereferenceable(16) %85) #29
  call void @_ZNSt3__119__shared_weak_count14__release_weakEv(ptr noundef nonnull align 8 dereferenceable(24) %85) #29
  br label %_ZN9benchmark5RegexD2Ev.exit

_ZN9benchmark5RegexD2Ev.exit:                     ; preds = %cleanup150, %if.then.i.i.i329, %if.then.i.i.i.i
  call void @_ZNSt3__16localeD1Ev(ptr noundef nonnull align 8 dereferenceable(8) %re_.i) #29
  call void @llvm.lifetime.end.p0(i64 72, ptr nonnull %re) #29
  %bf.load.i.i331 = load i8, ptr %error_msg, align 8
  %bf.clear.i.i332 = and i8 %bf.load.i.i331, 1
  %tobool.i.not.i333 = icmp eq i8 %bf.clear.i.i332, 0
  br i1 %tobool.i.not.i333, label %_ZNSt3__112basic_stringIcNS_11char_traitsIcEENS_9allocatorIcEEED2Ev.exit337, label %if.then.i335

if.then.i335:                                     ; preds = %_ZN9benchmark5RegexD2Ev.exit
  %__data_.i.i334 = getelementptr inbounds %"struct.std::__1::basic_string<char>::__long", ptr %error_msg, i64 0, i32 2
  %88 = load ptr, ptr %__data_.i.i334, align 8, !tbaa !42
  call void @_ZdlPv(ptr noundef %88) #30
  br label %_ZNSt3__112basic_stringIcNS_11char_traitsIcEENS_9allocatorIcEEED2Ev.exit337

_ZNSt3__112basic_stringIcNS_11char_traitsIcEENS_9allocatorIcEEED2Ev.exit337: ; preds = %_ZN9benchmark5RegexD2Ev.exit, %if.then.i335
  call void @llvm.lifetime.end.p0(i64 24, ptr nonnull %error_msg) #29
  ret i1 %call7

ehcleanup151:                                     ; preds = %if.then.i.i327, %if.then.i15.i, %lpad3, %lpad.i.i356
  %.pn.pn.pn.pn.pn.pn.pn = phi { ptr, i32 } [ %5, %lpad3 ], [ %9, %lpad.i.i356 ], [ %10, %if.then.i15.i ], [ %.pn.pn.pn.pn.pn, %if.then.i.i327 ]
  %__cntrl_.i.i.i338 = getelementptr inbounds %"class.benchmark::Regex", ptr %re, i64 0, i32 1, i32 5, i32 1
  %89 = load ptr, ptr %__cntrl_.i.i.i338, align 8, !tbaa !93
  %tobool.not.i.i.i339 = icmp eq ptr %89, null
  br i1 %tobool.not.i.i.i339, label %ehcleanup155, label %if.then.i.i.i342

if.then.i.i.i342:                                 ; preds = %ehcleanup151
  %__shared_owners_.i.i.i.i.i340 = getelementptr inbounds %"class.std::__1::__shared_count", ptr %89, i64 0, i32 1
  %90 = atomicrmw add ptr %__shared_owners_.i.i.i.i.i340, i64 -1 acq_rel, align 8
  %cmp.i.i.i.i.i341 = icmp eq i64 %90, 0
  br i1 %cmp.i.i.i.i.i341, label %if.then.i.i.i.i345, label %ehcleanup155

if.then.i.i.i.i345:                               ; preds = %if.then.i.i.i342
  %vtable.i.i.i.i.i343 = load ptr, ptr %89, align 8, !tbaa !15
  %vfn.i.i.i.i.i344 = getelementptr inbounds ptr, ptr %vtable.i.i.i.i.i343, i64 2
  %91 = load ptr, ptr %vfn.i.i.i.i.i344, align 8
  call void %91(ptr noundef nonnull align 8 dereferenceable(16) %89) #29
  call void @_ZNSt3__119__shared_weak_count14__release_weakEv(ptr noundef nonnull align 8 dereferenceable(24) %89) #29
  br label %ehcleanup155

ehcleanup155:                                     ; preds = %if.then.i.i.i.i345, %if.then.i.i.i342, %ehcleanup151, %lpad.i.i.i
  %.pn.pn.pn.pn.pn.pn.pn.pn = phi { ptr, i32 } [ %2, %lpad.i.i.i ], [ %.pn.pn.pn.pn.pn.pn.pn, %ehcleanup151 ], [ %.pn.pn.pn.pn.pn.pn.pn, %if.then.i.i.i342 ], [ %.pn.pn.pn.pn.pn.pn.pn, %if.then.i.i.i.i345 ]
  call void @_ZNSt3__16localeD1Ev(ptr noundef nonnull align 8 dereferenceable(8) %re_.i) #29
  call void @llvm.lifetime.end.p0(i64 72, ptr nonnull %re) #29
  %bf.load.i.i348 = load i8, ptr %error_msg, align 8
  %bf.clear.i.i349 = and i8 %bf.load.i.i348, 1
  %tobool.i.not.i350 = icmp eq i8 %bf.clear.i.i349, 0
  br i1 %tobool.i.not.i350, label %_ZNSt3__112basic_stringIcNS_11char_traitsIcEENS_9allocatorIcEEED2Ev.exit354, label %if.then.i352

if.then.i352:                                     ; preds = %ehcleanup155
  %__data_.i.i351 = getelementptr inbounds %"struct.std::__1::basic_string<char>::__long", ptr %error_msg, i64 0, i32 2
  %92 = load ptr, ptr %__data_.i.i351, align 8, !tbaa !42
  call void @_ZdlPv(ptr noundef %92) #30
  br label %_ZNSt3__112basic_stringIcNS_11char_traitsIcEENS_9allocatorIcEEED2Ev.exit354

_ZNSt3__112basic_stringIcNS_11char_traitsIcEENS_9allocatorIcEEED2Ev.exit354: ; preds = %ehcleanup155, %if.then.i352
  call void @llvm.lifetime.end.p0(i64 24, ptr nonnull %error_msg) #29
  resume { ptr, i32 } %.pn.pn.pn.pn.pn.pn.pn.pn
}

declare noundef nonnull align 8 dereferenceable(24) ptr @_ZNSt3__112basic_stringIcNS_11char_traitsIcEENS_9allocatorIcEEE7replaceEmmPKc(ptr noundef nonnull align 8 dereferenceable(24), i64 noundef, i64 noundef, ptr noundef) local_unnamed_addr #0

; Function Attrs: inlinehint uwtable
define linkonce_odr hidden noundef zeroext i1 @_ZN9benchmark5Regex4InitERKNSt3__112basic_stringIcNS1_11char_traitsIcEENS1_9allocatorIcEEEEPS7_(ptr noundef nonnull align 8 dereferenceable(72) %this, ptr noundef nonnull align 8 dereferenceable(24) %spec, ptr noundef %error) local_unnamed_addr #7 comdat align 2 personality ptr @__gxx_personality_v0 {
entry:
  %ref.tmp = alloca %"class.std::__1::basic_regex", align 8
  call void @llvm.lifetime.start.p0(i64 64, ptr nonnull %ref.tmp) #29
  call void @_ZNSt3__16localeC1Ev(ptr noundef nonnull align 8 dereferenceable(8) %ref.tmp) #29
  %call.i.i3.i.i = invoke noundef ptr @_ZNKSt3__16locale9use_facetERNS0_2idE(ptr noundef nonnull align 8 dereferenceable(8) %ref.tmp, ptr noundef nonnull align 8 dereferenceable(12) @_ZNSt3__15ctypeIcE2idE)
          to label %call.i.i.noexc.i.i unwind label %lpad.i.i

call.i.i.noexc.i.i:                               ; preds = %entry
  %__ct_.i.i.i = getelementptr inbounds %"struct.std::__1::regex_traits", ptr %ref.tmp, i64 0, i32 1
  store ptr %call.i.i3.i.i, ptr %__ct_.i.i.i, align 8, !tbaa !40
  %call.i4.i4.i.i = invoke noundef ptr @_ZNKSt3__16locale9use_facetERNS0_2idE(ptr noundef nonnull align 8 dereferenceable(8) %ref.tmp, ptr noundef nonnull align 8 dereferenceable(12) @_ZNSt3__17collateIcE2idE)
          to label %_ZNSt3__112regex_traitsIcEC2Ev.exit.i unwind label %lpad.i.i

common.resume.i:                                  ; preds = %lpad.i, %lpad.i.i
  %common.resume.op.i = phi { ptr, i32 } [ %2, %lpad.i.i ], [ %5, %lpad.i ]
  call void @_ZNSt3__16localeD1Ev(ptr noundef nonnull align 8 dereferenceable(8) %ref.tmp) #29
  %0 = extractvalue { ptr, i32 } %common.resume.op.i, 1
  call void @llvm.lifetime.end.p0(i64 64, ptr nonnull %ref.tmp) #29
  %1 = call i32 @llvm.eh.typeid.for(ptr nonnull @_ZTINSt3__111regex_errorE) #29
  %matches = icmp eq i32 %0, %1
  br i1 %matches, label %catch, label %eh.resume

lpad.i.i:                                         ; preds = %call.i.i.noexc.i.i, %entry
  %2 = landingpad { ptr, i32 }
          cleanup
          catch ptr @_ZTINSt3__111regex_errorE
  br label %common.resume.i

_ZNSt3__112regex_traitsIcEC2Ev.exit.i:            ; preds = %call.i.i.noexc.i.i
  %__col_.i.i.i = getelementptr inbounds %"struct.std::__1::regex_traits", ptr %ref.tmp, i64 0, i32 2
  store ptr %call.i4.i4.i.i, ptr %__col_.i.i.i, align 8, !tbaa !41
  %__flags_.i = getelementptr inbounds %"class.std::__1::basic_regex", ptr %ref.tmp, i64 0, i32 1
  store i32 32, ptr %__flags_.i, align 8, !tbaa !94
  %__marked_count_.i = getelementptr inbounds %"class.std::__1::basic_regex", ptr %ref.tmp, i64 0, i32 2
  %__start_.i = getelementptr inbounds %"class.std::__1::basic_regex", ptr %ref.tmp, i64 0, i32 5
  call void @llvm.memset.p0.i64(ptr noundef nonnull align 4 dereferenceable(36) %__marked_count_.i, i8 0, i64 36, i1 false)
  %bf.load.i.i.i.i = load i8, ptr %spec, align 8
  %bf.clear.i.i.i.i = and i8 %bf.load.i.i.i.i, 1
  %tobool.i.not.i.i.i = icmp eq i8 %bf.clear.i.i.i.i, 0
  %__data_.i.i.i.i = getelementptr inbounds %"struct.std::__1::basic_string<char>::__long", ptr %spec, i64 0, i32 2
  %3 = load ptr, ptr %__data_.i.i.i.i, align 8
  %__data_.i4.i.i.i = getelementptr inbounds %"struct.std::__1::basic_string<char>::__short", ptr %spec, i64 0, i32 2
  %cond.i.i.i = select i1 %tobool.i.not.i.i.i, ptr %__data_.i4.i.i.i, ptr %3
  %__size_.i.i.i.i = getelementptr inbounds %"struct.std::__1::basic_string<char>::__long", ptr %spec, i64 0, i32 1
  %4 = load i64, ptr %__size_.i.i.i.i, align 8
  %bf.lshr.i.i.i.i = lshr i8 %bf.load.i.i.i.i, 1
  %conv.i.i.i.i = zext i8 %bf.lshr.i.i.i.i to i64
  %cond.i8.i.i = select i1 %tobool.i.not.i.i.i, i64 %conv.i.i.i.i, i64 %4
  %add.ptr.i.i = getelementptr inbounds i8, ptr %cond.i.i.i, i64 %cond.i8.i.i
  %call8.i15.i = invoke ptr @_ZNSt3__111basic_regexIcNS_12regex_traitsIcEEE7__parseINS_11__wrap_iterIPKcEEEET_S9_S9_(ptr noundef nonnull align 8 dereferenceable(64) %ref.tmp, ptr %cond.i.i.i, ptr %add.ptr.i.i)
          to label %call8.i.noexc.i unwind label %lpad.i

call8.i.noexc.i:                                  ; preds = %_ZNSt3__112regex_traitsIcEC2Ev.exit.i
  %cmp.i.i.not.i.i = icmp eq ptr %call8.i15.i, %add.ptr.i.i
  br i1 %cmp.i.i.not.i.i, label %invoke.cont, label %if.then11.i.i

if.then11.i.i:                                    ; preds = %call8.i.noexc.i
  invoke void @_ZNSt3__119__throw_regex_errorB7v170000ILNS_15regex_constants10error_typeE17EEEvv() #31
          to label %.noexc.i unwind label %lpad.i

.noexc.i:                                         ; preds = %if.then11.i.i
  unreachable

lpad.i:                                           ; preds = %if.then11.i.i, %_ZNSt3__112regex_traitsIcEC2Ev.exit.i
  %5 = landingpad { ptr, i32 }
          cleanup
          catch ptr @_ZTINSt3__111regex_errorE
  call void @_ZNSt3__110shared_ptrINS_13__empty_stateIcEEED2B7v170000Ev(ptr noundef nonnull align 8 dereferenceable(16) %__start_.i) #29
  br label %common.resume.i

invoke.cont:                                      ; preds = %call8.i.noexc.i
  %re_ = getelementptr inbounds %"class.benchmark::Regex", ptr %this, i64 0, i32 1
  %call.i.i = call noundef nonnull align 8 dereferenceable(8) ptr @_ZNSt3__16localeaSERKS0_(ptr noundef nonnull align 8 dereferenceable(8) %re_, ptr noundef nonnull align 8 dereferenceable(8) %ref.tmp) #29
  %__ct_.i.i = getelementptr inbounds %"class.benchmark::Regex", ptr %this, i64 0, i32 1, i32 0, i32 1
  call void @llvm.memcpy.p0.p0.i64(ptr noundef nonnull align 8 dereferenceable(16) %__ct_.i.i, ptr noundef nonnull align 8 dereferenceable(16) %__ct_.i.i.i, i64 16, i1 false)
  %__flags_.i14 = getelementptr inbounds %"class.benchmark::Regex", ptr %this, i64 0, i32 1, i32 1
  call void @llvm.memcpy.p0.p0.i64(ptr noundef nonnull align 8 dereferenceable(16) %__flags_.i14, ptr noundef nonnull align 8 dereferenceable(16) %__flags_.i, i64 16, i1 false)
  %__start_.i15 = getelementptr inbounds %"class.benchmark::Regex", ptr %this, i64 0, i32 1, i32 5
  %__cntrl_3.i.i.i = getelementptr inbounds %"class.std::__1::basic_regex", ptr %ref.tmp, i64 0, i32 5, i32 1
  %__cntrl_3.i3.i.i = getelementptr inbounds %"class.benchmark::Regex", ptr %this, i64 0, i32 1, i32 5, i32 1
  %6 = load <2 x ptr>, ptr %__start_.i, align 8, !tbaa !14
  call void @llvm.memset.p0.i64(ptr noundef nonnull align 8 dereferenceable(16) %__start_.i, i8 0, i64 16, i1 false)
  %7 = load ptr, ptr %__cntrl_3.i3.i.i, align 8, !tbaa !14
  store <2 x ptr> %6, ptr %__start_.i15, align 8, !tbaa !14
  %tobool.not.i.i.i = icmp eq ptr %7, null
  br i1 %tobool.not.i.i.i, label %_ZNSt3__111basic_regexIcNS_12regex_traitsIcEEEaSEOS3_.exit, label %if.then.i.i.i

if.then.i.i.i:                                    ; preds = %invoke.cont
  %__shared_owners_.i.i.i.i.i = getelementptr inbounds %"class.std::__1::__shared_count", ptr %7, i64 0, i32 1
  %8 = atomicrmw add ptr %__shared_owners_.i.i.i.i.i, i64 -1 acq_rel, align 8
  %cmp.i.i.i.i.i = icmp eq i64 %8, 0
  br i1 %cmp.i.i.i.i.i, label %if.then.i.i.i.i, label %_ZNSt3__111basic_regexIcNS_12regex_traitsIcEEEaSEOS3_.exit

if.then.i.i.i.i:                                  ; preds = %if.then.i.i.i
  %vtable.i.i.i.i.i = load ptr, ptr %7, align 8, !tbaa !15
  %vfn.i.i.i.i.i = getelementptr inbounds ptr, ptr %vtable.i.i.i.i.i, i64 2
  %9 = load ptr, ptr %vfn.i.i.i.i.i, align 8
  call void %9(ptr noundef nonnull align 8 dereferenceable(16) %7) #29
  call void @_ZNSt3__119__shared_weak_count14__release_weakEv(ptr noundef nonnull align 8 dereferenceable(24) %7) #29
  br label %_ZNSt3__111basic_regexIcNS_12regex_traitsIcEEEaSEOS3_.exit

_ZNSt3__111basic_regexIcNS_12regex_traitsIcEEEaSEOS3_.exit: ; preds = %invoke.cont, %if.then.i.i.i, %if.then.i.i.i.i
  %__end_.i = getelementptr inbounds %"class.std::__1::basic_regex", ptr %ref.tmp, i64 0, i32 6
  %10 = load ptr, ptr %__end_.i, align 8, !tbaa !95
  %__end_6.i = getelementptr inbounds %"class.benchmark::Regex", ptr %this, i64 0, i32 1, i32 6
  store ptr %10, ptr %__end_6.i, align 8, !tbaa !95
  %11 = load ptr, ptr %__cntrl_3.i.i.i, align 8, !tbaa !93
  %tobool.not.i.i = icmp eq ptr %11, null
  br i1 %tobool.not.i.i, label %_ZNSt3__111basic_regexIcNS_12regex_traitsIcEEED2Ev.exit, label %if.then.i.i

if.then.i.i:                                      ; preds = %_ZNSt3__111basic_regexIcNS_12regex_traitsIcEEEaSEOS3_.exit
  %__shared_owners_.i.i.i.i = getelementptr inbounds %"class.std::__1::__shared_count", ptr %11, i64 0, i32 1
  %12 = atomicrmw add ptr %__shared_owners_.i.i.i.i, i64 -1 acq_rel, align 8
  %cmp.i.i.i.i = icmp eq i64 %12, 0
  br i1 %cmp.i.i.i.i, label %if.then.i.i.i16, label %_ZNSt3__111basic_regexIcNS_12regex_traitsIcEEED2Ev.exit

if.then.i.i.i16:                                  ; preds = %if.then.i.i
  %vtable.i.i.i.i = load ptr, ptr %11, align 8, !tbaa !15
  %vfn.i.i.i.i = getelementptr inbounds ptr, ptr %vtable.i.i.i.i, i64 2
  %13 = load ptr, ptr %vfn.i.i.i.i, align 8
  call void %13(ptr noundef nonnull align 8 dereferenceable(16) %11) #29
  call void @_ZNSt3__119__shared_weak_count14__release_weakEv(ptr noundef nonnull align 8 dereferenceable(24) %11) #29
  br label %_ZNSt3__111basic_regexIcNS_12regex_traitsIcEEED2Ev.exit

_ZNSt3__111basic_regexIcNS_12regex_traitsIcEEED2Ev.exit: ; preds = %_ZNSt3__111basic_regexIcNS_12regex_traitsIcEEEaSEOS3_.exit, %if.then.i.i, %if.then.i.i.i16
  call void @_ZNSt3__16localeD1Ev(ptr noundef nonnull align 8 dereferenceable(8) %ref.tmp) #29
  call void @llvm.lifetime.end.p0(i64 64, ptr nonnull %ref.tmp) #29
  store i8 1, ptr %this, align 8, !tbaa !31
  br label %try.cont

catch:                                            ; preds = %common.resume.i
  %14 = extractvalue { ptr, i32 } %common.resume.op.i, 0
  %15 = call ptr @__cxa_begin_catch(ptr %14) #29
  %tobool.not = icmp eq ptr %error, null
  br i1 %tobool.not, label %if.end, label %if.then

if.then:                                          ; preds = %catch
  %vtable = load ptr, ptr %15, align 8, !tbaa !15
  %vfn = getelementptr inbounds ptr, ptr %vtable, i64 2
  %16 = load ptr, ptr %vfn, align 8
  %call2 = call noundef ptr %16(ptr noundef nonnull align 8 dereferenceable(16) %15) #29
  %call.i17 = invoke noundef nonnull align 8 dereferenceable(24) ptr @_ZNSt3__112basic_stringIcNS_11char_traitsIcEENS_9allocatorIcEEE6assignEPKc(ptr noundef nonnull align 8 dereferenceable(24) %error, ptr noundef %call2)
          to label %if.end unwind label %lpad3

lpad3:                                            ; preds = %if.then
  %17 = landingpad { ptr, i32 }
          cleanup
  invoke void @__cxa_end_catch()
          to label %eh.resume unwind label %terminate.lpad

if.end:                                           ; preds = %if.then, %catch
  call void @__cxa_end_catch()
  %.pre = load i8, ptr %this, align 8, !tbaa !31, !range !71
  %18 = icmp ne i8 %.pre, 0
  br label %try.cont

try.cont:                                         ; preds = %if.end, %_ZNSt3__111basic_regexIcNS_12regex_traitsIcEEED2Ev.exit
  %tobool8 = phi i1 [ %18, %if.end ], [ true, %_ZNSt3__111basic_regexIcNS_12regex_traitsIcEEED2Ev.exit ]
  ret i1 %tobool8

eh.resume:                                        ; preds = %lpad3, %common.resume.i
  %lpad.val11.merged = phi { ptr, i32 } [ %common.resume.op.i, %common.resume.i ], [ %17, %lpad3 ]
  resume { ptr, i32 } %lpad.val11.merged

terminate.lpad:                                   ; preds = %lpad3
  %19 = landingpad { ptr, i32 }
          catch ptr null
  %20 = extractvalue { ptr, i32 } %19, 0
  call void @__clang_call_terminate(ptr %20) #33
  unreachable
}

; Function Attrs: mustprogress nofree norecurse nosync nounwind willreturn memory(read, inaccessiblemem: none) uwtable
define hidden noundef i32 @_ZNK9benchmark8internal9Benchmark7ArgsCntEv(ptr nocapture noundef nonnull readonly align 8 dereferenceable(208) %this) local_unnamed_addr #8 align 2 {
entry:
  %args_ = getelementptr inbounds %"class.benchmark::internal::Benchmark", ptr %this, i64 0, i32 4
  %0 = load ptr, ptr %args_, align 8, !tbaa !43
  %__end_.i = getelementptr inbounds %"class.benchmark::internal::Benchmark", ptr %this, i64 0, i32 4, i32 1
  %1 = load ptr, ptr %__end_.i, align 8, !tbaa !47
  %cmp.i = icmp eq ptr %0, %1
  br i1 %cmp.i, label %if.then, label %if.end6

if.then:                                          ; preds = %entry
  %arg_names_ = getelementptr inbounds %"class.benchmark::internal::Benchmark", ptr %this, i64 0, i32 3
  %2 = load ptr, ptr %arg_names_, align 8, !tbaa !48
  %__end_.i11 = getelementptr inbounds %"class.benchmark::internal::Benchmark", ptr %this, i64 0, i32 3, i32 1
  %3 = load ptr, ptr %__end_.i11, align 8, !tbaa !52
  %cmp.i12 = icmp eq ptr %2, %3
  br i1 %cmp.i12, label %return, label %if.end

if.end:                                           ; preds = %if.then
  %sub.ptr.lhs.cast.i = ptrtoint ptr %3 to i64
  %sub.ptr.rhs.cast.i = ptrtoint ptr %2 to i64
  %sub.ptr.sub.i = sub i64 %sub.ptr.lhs.cast.i, %sub.ptr.rhs.cast.i
  %sub.ptr.div.i = sdiv exact i64 %sub.ptr.sub.i, 24
  %conv = trunc i64 %sub.ptr.div.i to i32
  br label %return

if.end6:                                          ; preds = %entry
  %__end_.i14 = getelementptr inbounds %"class.std::__1::vector.12", ptr %0, i64 0, i32 1
  %4 = load ptr, ptr %__end_.i14, align 8, !tbaa !53
  %5 = load ptr, ptr %0, align 8, !tbaa !57
  %sub.ptr.lhs.cast.i15 = ptrtoint ptr %4 to i64
  %sub.ptr.rhs.cast.i16 = ptrtoint ptr %5 to i64
  %sub.ptr.sub.i17 = sub i64 %sub.ptr.lhs.cast.i15, %sub.ptr.rhs.cast.i16
  %6 = lshr exact i64 %sub.ptr.sub.i17, 3
  %conv10 = trunc i64 %6 to i32
  br label %return

return:                                           ; preds = %if.then, %if.end6, %if.end
  %retval.0 = phi i32 [ %conv, %if.end ], [ %conv10, %if.end6 ], [ -1, %if.then ]
  ret i32 %retval.0
}

; Function Attrs: uwtable
define hidden noundef nonnull ptr @_ZN9benchmark8internal9Benchmark4ArgsERKNSt3__16vectorIlNS2_9allocatorIlEEEE(ptr noundef nonnull returned align 8 dereferenceable(208) %this, ptr noundef nonnull align 8 dereferenceable(24) %args) local_unnamed_addr #4 align 2 personality ptr @__gxx_personality_v0 {
entry:
  %0 = load atomic i8, ptr @_ZGVZN9benchmark8internal18GetNullLogInstanceEvE3log acquire, align 8
  %guard.uninitialized.i = icmp eq i8 %0, 0
  br i1 %guard.uninitialized.i, label %init.check.i, label %_ZN9benchmark8internal18GetNullLogInstanceEv.exit, !prof !5

init.check.i:                                     ; preds = %entry
  %1 = tail call i32 @__cxa_guard_acquire(ptr nonnull @_ZGVZN9benchmark8internal18GetNullLogInstanceEvE3log) #29
  %tobool.not.i = icmp eq i32 %1, 0
  br i1 %tobool.not.i, label %_ZN9benchmark8internal18GetNullLogInstanceEv.exit, label %init.i

init.i:                                           ; preds = %init.check.i
  store ptr null, ptr @_ZZN9benchmark8internal18GetNullLogInstanceEvE3log, align 8, !tbaa !29
  tail call void @__cxa_guard_release(ptr nonnull @_ZGVZN9benchmark8internal18GetNullLogInstanceEvE3log) #29
  br label %_ZN9benchmark8internal18GetNullLogInstanceEv.exit

_ZN9benchmark8internal18GetNullLogInstanceEv.exit: ; preds = %entry, %init.check.i, %init.i
  %__end_.i = getelementptr inbounds %"class.benchmark::internal::Benchmark", ptr %this, i64 0, i32 4, i32 1
  %2 = load ptr, ptr %__end_.i, align 8, !tbaa !47
  %__end_cap_.i.i = getelementptr inbounds %"class.benchmark::internal::Benchmark", ptr %this, i64 0, i32 4, i32 2
  %3 = load ptr, ptr %__end_cap_.i.i, align 8, !tbaa !14
  %cmp.not.i = icmp eq ptr %2, %3
  br i1 %cmp.not.i, label %if.else.i, label %if.then.i

if.then.i:                                        ; preds = %_ZN9benchmark8internal18GetNullLogInstanceEv.exit
  %__end_.i.i.i.i.i = getelementptr inbounds %"class.std::__1::vector.12", ptr %2, i64 0, i32 1
  %__end_cap_.i.i.i.i.i = getelementptr inbounds %"class.std::__1::vector.12", ptr %2, i64 0, i32 2
  %__end_.i.i.i.i.i.i = getelementptr inbounds %"class.std::__1::vector.12", ptr %args, i64 0, i32 1
  tail call void @llvm.memset.p0.i64(ptr noundef nonnull align 8 dereferenceable(24) %2, i8 0, i64 24, i1 false)
  %4 = load ptr, ptr %__end_.i.i.i.i.i.i, align 8, !tbaa !53
  %5 = load ptr, ptr %args, align 8, !tbaa !57
  %sub.ptr.lhs.cast.i.i.i.i.i.i = ptrtoint ptr %4 to i64
  %sub.ptr.rhs.cast.i.i.i.i.i.i = ptrtoint ptr %5 to i64
  %sub.ptr.sub.i.i.i.i.i.i = sub i64 %sub.ptr.lhs.cast.i.i.i.i.i.i, %sub.ptr.rhs.cast.i.i.i.i.i.i
  %sub.ptr.div.i.i.i.i.i.i = ashr exact i64 %sub.ptr.sub.i.i.i.i.i.i, 3
  %cmp.not.i.i.i.i.i = icmp eq ptr %4, %5
  br i1 %cmp.not.i.i.i.i.i, label %_ZNSt3__16vectorINS0_IlNS_9allocatorIlEEEENS1_IS3_EEE22__construct_one_at_endB7v170000IJRKS3_EEEvDpOT_.exit.i, label %if.then.i.i.i.i.i

if.then.i.i.i.i.i:                                ; preds = %if.then.i
  %cmp.i.i.i.i.i.i = icmp slt i64 %sub.ptr.sub.i.i.i.i.i.i, 0
  br i1 %cmp.i.i.i.i.i.i, label %if.then.i.i.i.i.i.i, label %_ZNSt3__119__allocate_at_leastB7v170000INS_9allocatorIlEEEENS_19__allocation_resultINS_16allocator_traitsIT_E7pointerEEERS5_m.exit.i.i.i.i.i.i

if.then.i.i.i.i.i.i:                              ; preds = %if.then.i.i.i.i.i
  invoke void @_ZNKSt3__16vectorIlNS_9allocatorIlEEE20__throw_length_errorB7v170000Ev(ptr noundef nonnull align 8 dereferenceable(24) %2) #31
          to label %.noexc.i.i.i.i.i unwind label %if.then.i16.i.i.i.i.i

.noexc.i.i.i.i.i:                                 ; preds = %if.then.i.i.i.i.i.i
  unreachable

_ZNSt3__119__allocate_at_leastB7v170000INS_9allocatorIlEEEENS_19__allocation_resultINS_16allocator_traitsIT_E7pointerEEERS5_m.exit.i.i.i.i.i.i: ; preds = %if.then.i.i.i.i.i
  %call.i.i.i.i.i14.i.i.i.i.i = invoke noalias noundef nonnull ptr @_Znwm(i64 noundef %sub.ptr.sub.i.i.i.i.i.i) #32
          to label %invoke.cont.i.i.i.i.i unwind label %if.then.i16.i.i.i.i.i

invoke.cont.i.i.i.i.i:                            ; preds = %_ZNSt3__119__allocate_at_leastB7v170000INS_9allocatorIlEEEENS_19__allocation_resultINS_16allocator_traitsIT_E7pointerEEERS5_m.exit.i.i.i.i.i.i
  store ptr %call.i.i.i.i.i14.i.i.i.i.i, ptr %2, align 8, !tbaa !57
  store ptr %call.i.i.i.i.i14.i.i.i.i.i, ptr %__end_.i.i.i.i.i, align 8, !tbaa !53
  %add.ptr.i.i.i.i.i.i = getelementptr inbounds i64, ptr %call.i.i.i.i.i14.i.i.i.i.i, i64 %sub.ptr.div.i.i.i.i.i.i
  store ptr %add.ptr.i.i.i.i.i.i, ptr %__end_cap_.i.i.i.i.i, align 8, !tbaa !14
  %6 = load ptr, ptr %args, align 8, !tbaa !57
  %7 = load ptr, ptr %__end_.i.i.i.i.i.i, align 8, !tbaa !53
  %cmp.not9.i.i.i.i.i.i.i = icmp eq ptr %6, %7
  br i1 %cmp.not9.i.i.i.i.i.i.i, label %_ZNSt3__16vectorIlNS_9allocatorIlEEE18__construct_at_endIPlLi0EEEvT_S6_m.exit.i.i.i.i.i, label %invoke.cont.i.i.i.i.i.i.i.preheader

invoke.cont.i.i.i.i.i.i.i.preheader:              ; preds = %invoke.cont.i.i.i.i.i
  %8 = ptrtoint ptr %6 to i64
  %call.i.i.i.i.i14.i.i.i.i.i2 = ptrtoint ptr %call.i.i.i.i.i14.i.i.i.i.i to i64
  %9 = ptrtoint ptr %7 to i64
  %10 = add i64 %9, -8
  %11 = sub i64 %10, %8
  %12 = lshr i64 %11, 3
  %13 = add nuw nsw i64 %12, 1
  %min.iters.check = icmp ult i64 %11, 56
  %14 = sub i64 %call.i.i.i.i.i14.i.i.i.i.i2, %8
  %diff.check = icmp ult i64 %14, 32
  %or.cond = or i1 %min.iters.check, %diff.check
  br i1 %or.cond, label %invoke.cont.i.i.i.i.i.i.i.preheader9, label %vector.ph

vector.ph:                                        ; preds = %invoke.cont.i.i.i.i.i.i.i.preheader
  %n.vec = and i64 %13, -4
  %15 = shl i64 %n.vec, 3
  %ind.end = getelementptr i8, ptr %6, i64 %15
  %16 = shl i64 %n.vec, 3
  %ind.end3 = getelementptr i8, ptr %call.i.i.i.i.i14.i.i.i.i.i, i64 %16
  br label %vector.body

vector.body:                                      ; preds = %vector.body, %vector.ph
  %index = phi i64 [ 0, %vector.ph ], [ %index.next, %vector.body ]
  %17 = shl i64 %index, 3
  %next.gep = getelementptr i8, ptr %6, i64 %17
  %18 = shl i64 %index, 3
  %next.gep6 = getelementptr i8, ptr %call.i.i.i.i.i14.i.i.i.i.i, i64 %18
  %wide.load = load <2 x i64>, ptr %next.gep, align 8, !tbaa !96
  %19 = getelementptr i64, ptr %next.gep, i64 2
  %wide.load8 = load <2 x i64>, ptr %19, align 8, !tbaa !96
  store <2 x i64> %wide.load, ptr %next.gep6, align 8, !tbaa !96
  %20 = getelementptr i64, ptr %next.gep6, i64 2
  store <2 x i64> %wide.load8, ptr %20, align 8, !tbaa !96
  %index.next = add nuw i64 %index, 4
  %21 = icmp eq i64 %index.next, %n.vec
  br i1 %21, label %middle.block, label %vector.body, !llvm.loop !97

middle.block:                                     ; preds = %vector.body
  %cmp.n = icmp eq i64 %13, %n.vec
  br i1 %cmp.n, label %_ZNSt3__16vectorIlNS_9allocatorIlEEE18__construct_at_endIPlLi0EEEvT_S6_m.exit.i.i.i.i.i, label %invoke.cont.i.i.i.i.i.i.i.preheader9

invoke.cont.i.i.i.i.i.i.i.preheader9:             ; preds = %invoke.cont.i.i.i.i.i.i.i.preheader, %middle.block
  %__first1.addr.011.i.i.i.i.i.i.i.ph = phi ptr [ %6, %invoke.cont.i.i.i.i.i.i.i.preheader ], [ %ind.end, %middle.block ]
  %__first2.addr.010.i.i.i.i.i.i.i.ph = phi ptr [ %call.i.i.i.i.i14.i.i.i.i.i, %invoke.cont.i.i.i.i.i.i.i.preheader ], [ %ind.end3, %middle.block ]
  br label %invoke.cont.i.i.i.i.i.i.i

invoke.cont.i.i.i.i.i.i.i:                        ; preds = %invoke.cont.i.i.i.i.i.i.i.preheader9, %invoke.cont.i.i.i.i.i.i.i
  %__first1.addr.011.i.i.i.i.i.i.i = phi ptr [ %incdec.ptr.i.i.i.i.i.i.i, %invoke.cont.i.i.i.i.i.i.i ], [ %__first1.addr.011.i.i.i.i.i.i.i.ph, %invoke.cont.i.i.i.i.i.i.i.preheader9 ]
  %__first2.addr.010.i.i.i.i.i.i.i = phi ptr [ %incdec.ptr1.i.i.i.i.i.i.i, %invoke.cont.i.i.i.i.i.i.i ], [ %__first2.addr.010.i.i.i.i.i.i.i.ph, %invoke.cont.i.i.i.i.i.i.i.preheader9 ]
  %22 = load i64, ptr %__first1.addr.011.i.i.i.i.i.i.i, align 8, !tbaa !96
  store i64 %22, ptr %__first2.addr.010.i.i.i.i.i.i.i, align 8, !tbaa !96
  %incdec.ptr.i.i.i.i.i.i.i = getelementptr inbounds i64, ptr %__first1.addr.011.i.i.i.i.i.i.i, i64 1
  %incdec.ptr1.i.i.i.i.i.i.i = getelementptr inbounds i64, ptr %__first2.addr.010.i.i.i.i.i.i.i, i64 1
  %cmp.not.i.i.i.i.i.i.i = icmp eq ptr %incdec.ptr.i.i.i.i.i.i.i, %7
  br i1 %cmp.not.i.i.i.i.i.i.i, label %_ZNSt3__16vectorIlNS_9allocatorIlEEE18__construct_at_endIPlLi0EEEvT_S6_m.exit.i.i.i.i.i, label %invoke.cont.i.i.i.i.i.i.i, !llvm.loop !98

_ZNSt3__16vectorIlNS_9allocatorIlEEE18__construct_at_endIPlLi0EEEvT_S6_m.exit.i.i.i.i.i: ; preds = %invoke.cont.i.i.i.i.i.i.i, %middle.block, %invoke.cont.i.i.i.i.i
  %__first2.addr.0.lcssa.i.i.i.i.i.i.i = phi ptr [ %call.i.i.i.i.i14.i.i.i.i.i, %invoke.cont.i.i.i.i.i ], [ %ind.end3, %middle.block ], [ %incdec.ptr1.i.i.i.i.i.i.i, %invoke.cont.i.i.i.i.i.i.i ]
  store ptr %__first2.addr.0.lcssa.i.i.i.i.i.i.i, ptr %__end_.i.i.i.i.i, align 8, !tbaa !53
  br label %_ZNSt3__16vectorINS0_IlNS_9allocatorIlEEEENS1_IS3_EEE22__construct_one_at_endB7v170000IJRKS3_EEEvDpOT_.exit.i

if.then.i16.i.i.i.i.i:                            ; preds = %_ZNSt3__119__allocate_at_leastB7v170000INS_9allocatorIlEEEENS_19__allocation_resultINS_16allocator_traitsIT_E7pointerEEERS5_m.exit.i.i.i.i.i.i, %if.then.i.i.i.i.i.i
  %23 = landingpad { ptr, i32 }
          cleanup
  %24 = load ptr, ptr %2, align 8, !tbaa !57
  %cmp.not.i.i15.i.i.i.i.i = icmp eq ptr %24, null
  br i1 %cmp.not.i.i15.i.i.i.i.i, label %lpad.body.i.i, label %if.then.i.i.i.i.i.i.i

if.then.i.i.i.i.i.i.i:                            ; preds = %if.then.i16.i.i.i.i.i
  store ptr %24, ptr %__end_.i.i.i.i.i, align 8, !tbaa !53
  tail call void @_ZdlPv(ptr noundef nonnull %24) #30
  br label %lpad.body.i.i

lpad.body.i.i:                                    ; preds = %if.then.i.i.i.i.i.i.i, %if.then.i16.i.i.i.i.i
  store ptr %2, ptr %__end_.i, align 8, !tbaa !47
  resume { ptr, i32 } %23

_ZNSt3__16vectorINS0_IlNS_9allocatorIlEEEENS1_IS3_EEE22__construct_one_at_endB7v170000IJRKS3_EEEvDpOT_.exit.i: ; preds = %_ZNSt3__16vectorIlNS_9allocatorIlEEE18__construct_at_endIPlLi0EEEvT_S6_m.exit.i.i.i.i.i, %if.then.i
  %incdec.ptr.i.i = getelementptr inbounds %"class.std::__1::vector.12", ptr %2, i64 1
  store ptr %incdec.ptr.i.i, ptr %__end_.i, align 8, !tbaa !47
  br label %_ZNSt3__16vectorINS0_IlNS_9allocatorIlEEEENS1_IS3_EEE9push_backB7v170000ERKS3_.exit

if.else.i:                                        ; preds = %_ZN9benchmark8internal18GetNullLogInstanceEv.exit
  %args_ = getelementptr inbounds %"class.benchmark::internal::Benchmark", ptr %this, i64 0, i32 4
  tail call void @_ZNSt3__16vectorINS0_IlNS_9allocatorIlEEEENS1_IS3_EEE21__push_back_slow_pathIRKS3_EEvOT_(ptr noundef nonnull align 8 dereferenceable(24) %args_, ptr noundef nonnull align 8 dereferenceable(24) %args)
  br label %_ZNSt3__16vectorINS0_IlNS_9allocatorIlEEEENS1_IS3_EEE9push_backB7v170000ERKS3_.exit

_ZNSt3__16vectorINS0_IlNS_9allocatorIlEEEENS1_IS3_EEE9push_backB7v170000ERKS3_.exit: ; preds = %_ZNSt3__16vectorINS0_IlNS_9allocatorIlEEEENS1_IS3_EEE22__construct_one_at_endB7v170000IJRKS3_EEEvDpOT_.exit.i, %if.else.i
  ret ptr %this
}

declare noundef nonnull align 8 dereferenceable(8) ptr @_ZNSt3__113basic_ostreamIcNS_11char_traitsIcEEElsEm(ptr noundef nonnull align 8 dereferenceable(8), i64 noundef) local_unnamed_addr #0

; Function Attrs: uwtable
define linkonce_odr hidden void @_ZNSt3__16vectorIN9benchmark8internal17BenchmarkInstanceENS_9allocatorIS3_EEE7reserveEm(ptr noundef nonnull align 8 dereferenceable(24) %this, i64 noundef %__n) local_unnamed_addr #4 comdat align 2 personality ptr @__gxx_personality_v0 {
entry:
  %__end_cap_.i.i = getelementptr inbounds %"class.std::__1::vector.62", ptr %this, i64 0, i32 2
  %0 = load ptr, ptr %__end_cap_.i.i, align 8, !tbaa !14
  %1 = load ptr, ptr %this, align 8, !tbaa !67
  %sub.ptr.lhs.cast.i = ptrtoint ptr %0 to i64
  %sub.ptr.rhs.cast.i = ptrtoint ptr %1 to i64
  %sub.ptr.sub.i = sub i64 %sub.ptr.lhs.cast.i, %sub.ptr.rhs.cast.i
  %sub.ptr.div.i = sdiv exact i64 %sub.ptr.sub.i, 304
  %cmp = icmp ult i64 %sub.ptr.div.i, %__n
  br i1 %cmp, label %if.then, label %if.end7

if.then:                                          ; preds = %entry
  %cmp3 = icmp ugt i64 %__n, 60680079189834051
  br i1 %cmp3, label %if.then4, label %_ZNSt3__114__split_bufferIN9benchmark8internal17BenchmarkInstanceERNS_9allocatorIS3_EEEC2EmmS6_.exit

if.then4:                                         ; preds = %if.then
  tail call void @_ZNKSt3__16vectorIN9benchmark8internal17BenchmarkInstanceENS_9allocatorIS3_EEE20__throw_length_errorB7v170000Ev(ptr noundef nonnull align 8 dereferenceable(24) %this) #31
  unreachable

_ZNSt3__114__split_bufferIN9benchmark8internal17BenchmarkInstanceERNS_9allocatorIS3_EEEC2EmmS6_.exit: ; preds = %if.then
  %__end_.i = getelementptr inbounds %"class.std::__1::vector.62", ptr %this, i64 0, i32 1
  %2 = load ptr, ptr %__end_.i, align 8, !tbaa !63
  %sub.ptr.lhs.cast.i11 = ptrtoint ptr %2 to i64
  %sub.ptr.sub.i13 = sub i64 %sub.ptr.lhs.cast.i11, %sub.ptr.rhs.cast.i
  %sub.ptr.div.i14 = sdiv exact i64 %sub.ptr.sub.i13, 304
  %mul.i.i.i = mul nuw i64 %__n, 304
  %call.i.i.i.i.i = tail call noalias noundef nonnull ptr @_Znwm(i64 noundef %mul.i.i.i) #32
  %add.ptr.i = getelementptr inbounds %"class.benchmark::internal::BenchmarkInstance", ptr %call.i.i.i.i.i, i64 %sub.ptr.div.i14
  %add.ptr6.i = getelementptr inbounds %"class.benchmark::internal::BenchmarkInstance", ptr %call.i.i.i.i.i, i64 %__n
  %cmp.i.not19.i.i = icmp eq ptr %2, %1
  br i1 %cmp.i.not19.i.i, label %invoke.cont.thread, label %while.body.i.i

invoke.cont.thread:                               ; preds = %_ZNSt3__114__split_bufferIN9benchmark8internal17BenchmarkInstanceERNS_9allocatorIS3_EEEC2EmmS6_.exit
  store ptr %add.ptr.i, ptr %this, align 8, !tbaa !14
  store ptr %add.ptr.i, ptr %__end_.i, align 8, !tbaa !14
  store ptr %add.ptr6.i, ptr %__end_cap_.i.i, align 8, !tbaa !14
  br label %_ZNSt3__114__split_bufferIN9benchmark8internal17BenchmarkInstanceERNS_9allocatorIS3_EEE5clearB7v170000Ev.exit.i

while.body.i.i:                                   ; preds = %_ZNSt3__114__split_bufferIN9benchmark8internal17BenchmarkInstanceERNS_9allocatorIS3_EEEC2EmmS6_.exit, %invoke.cont4.i.i
  %3 = phi ptr [ %incdec.ptr.i.i.i.i.i.i, %invoke.cont4.i.i ], [ %add.ptr.i, %_ZNSt3__114__split_bufferIN9benchmark8internal17BenchmarkInstanceERNS_9allocatorIS3_EEEC2EmmS6_.exit ]
  %__first1.sroa.1.020.i.i = phi ptr [ %incdec.ptr.i.i.i, %invoke.cont4.i.i ], [ %2, %_ZNSt3__114__split_bufferIN9benchmark8internal17BenchmarkInstanceERNS_9allocatorIS3_EEEC2EmmS6_.exit ]
  %incdec.ptr.i.i.i.i.i.i = getelementptr inbounds %"class.benchmark::internal::BenchmarkInstance", ptr %3, i64 -1
  %incdec.ptr.i.i.i = getelementptr inbounds %"class.benchmark::internal::BenchmarkInstance", ptr %__first1.sroa.1.020.i.i, i64 -1
  tail call void @llvm.memcpy.p0.p0.i64(ptr noundef nonnull align 8 dereferenceable(24) %incdec.ptr.i.i.i.i.i.i, ptr noundef nonnull align 8 dereferenceable(24) %incdec.ptr.i.i.i, i64 24, i1 false)
  tail call void @llvm.memset.p0.i64(ptr noundef nonnull align 8 dereferenceable(24) %incdec.ptr.i.i.i, i8 0, i64 24, i1 false)
  %args.i.i.i.i.i.i = getelementptr %"class.benchmark::internal::BenchmarkInstance", ptr %3, i64 -1, i32 0, i32 1
  %args3.i.i.i.i.i.i = getelementptr %"class.benchmark::internal::BenchmarkInstance", ptr %__first1.sroa.1.020.i.i, i64 -1, i32 0, i32 1
  tail call void @llvm.memcpy.p0.p0.i64(ptr noundef nonnull align 8 dereferenceable(24) %args.i.i.i.i.i.i, ptr noundef nonnull align 8 dereferenceable(24) %args3.i.i.i.i.i.i, i64 24, i1 false)
  tail call void @llvm.memset.p0.i64(ptr noundef nonnull align 8 dereferenceable(24) %args3.i.i.i.i.i.i, i8 0, i64 24, i1 false)
  %min_time.i.i.i.i.i.i = getelementptr %"class.benchmark::internal::BenchmarkInstance", ptr %3, i64 -1, i32 0, i32 2
  %min_time4.i.i.i.i.i.i = getelementptr %"class.benchmark::internal::BenchmarkInstance", ptr %__first1.sroa.1.020.i.i, i64 -1, i32 0, i32 2
  tail call void @llvm.memcpy.p0.p0.i64(ptr noundef nonnull align 8 dereferenceable(24) %min_time.i.i.i.i.i.i, ptr noundef nonnull align 8 dereferenceable(24) %min_time4.i.i.i.i.i.i, i64 24, i1 false)
  tail call void @llvm.memset.p0.i64(ptr noundef nonnull align 8 dereferenceable(24) %min_time4.i.i.i.i.i.i, i8 0, i64 24, i1 false)
  %iterations.i.i.i.i.i.i = getelementptr %"class.benchmark::internal::BenchmarkInstance", ptr %3, i64 -1, i32 0, i32 3
  %iterations5.i.i.i.i.i.i = getelementptr %"class.benchmark::internal::BenchmarkInstance", ptr %__first1.sroa.1.020.i.i, i64 -1, i32 0, i32 3
  tail call void @llvm.memcpy.p0.p0.i64(ptr noundef nonnull align 8 dereferenceable(24) %iterations.i.i.i.i.i.i, ptr noundef nonnull align 8 dereferenceable(24) %iterations5.i.i.i.i.i.i, i64 24, i1 false)
  tail call void @llvm.memset.p0.i64(ptr noundef nonnull align 8 dereferenceable(24) %iterations5.i.i.i.i.i.i, i8 0, i64 24, i1 false)
  %repetitions.i.i.i.i.i.i = getelementptr %"class.benchmark::internal::BenchmarkInstance", ptr %3, i64 -1, i32 0, i32 4
  %repetitions6.i.i.i.i.i.i = getelementptr %"class.benchmark::internal::BenchmarkInstance", ptr %__first1.sroa.1.020.i.i, i64 -1, i32 0, i32 4
  tail call void @llvm.memcpy.p0.p0.i64(ptr noundef nonnull align 8 dereferenceable(24) %repetitions.i.i.i.i.i.i, ptr noundef nonnull align 8 dereferenceable(24) %repetitions6.i.i.i.i.i.i, i64 24, i1 false)
  tail call void @llvm.memset.p0.i64(ptr noundef nonnull align 8 dereferenceable(24) %repetitions6.i.i.i.i.i.i, i8 0, i64 24, i1 false)
  %time_type.i.i.i.i.i.i = getelementptr %"class.benchmark::internal::BenchmarkInstance", ptr %3, i64 -1, i32 0, i32 5
  %time_type7.i.i.i.i.i.i = getelementptr %"class.benchmark::internal::BenchmarkInstance", ptr %__first1.sroa.1.020.i.i, i64 -1, i32 0, i32 5
  tail call void @llvm.memcpy.p0.p0.i64(ptr noundef nonnull align 8 dereferenceable(24) %time_type.i.i.i.i.i.i, ptr noundef nonnull align 8 dereferenceable(24) %time_type7.i.i.i.i.i.i, i64 24, i1 false)
  tail call void @llvm.memset.p0.i64(ptr noundef nonnull align 8 dereferenceable(24) %time_type7.i.i.i.i.i.i, i8 0, i64 24, i1 false)
  %threads.i.i.i.i.i.i = getelementptr %"class.benchmark::internal::BenchmarkInstance", ptr %3, i64 -1, i32 0, i32 6
  %threads8.i.i.i.i.i.i = getelementptr %"class.benchmark::internal::BenchmarkInstance", ptr %__first1.sroa.1.020.i.i, i64 -1, i32 0, i32 6
  tail call void @llvm.memcpy.p0.p0.i64(ptr noundef nonnull align 8 dereferenceable(24) %threads.i.i.i.i.i.i, ptr noundef nonnull align 8 dereferenceable(24) %threads8.i.i.i.i.i.i, i64 24, i1 false)
  tail call void @llvm.memset.p0.i64(ptr noundef nonnull align 8 dereferenceable(24) %threads8.i.i.i.i.i.i, i8 0, i64 24, i1 false)
  %benchmark_.i.i.i.i.i = getelementptr %"class.benchmark::internal::BenchmarkInstance", ptr %3, i64 -1, i32 1
  %benchmark_3.i.i.i.i.i = getelementptr %"class.benchmark::internal::BenchmarkInstance", ptr %__first1.sroa.1.020.i.i, i64 -1, i32 1
  tail call void @llvm.memcpy.p0.p0.i64(ptr noundef nonnull align 8 dereferenceable(56) %benchmark_.i.i.i.i.i, ptr noundef nonnull align 8 dereferenceable(56) %benchmark_3.i.i.i.i.i, i64 56, i1 false)
  %counters_.i.i.i.i.i = getelementptr %"class.benchmark::internal::BenchmarkInstance", ptr %3, i64 -1, i32 12
  %counters_4.i.i.i.i.i = getelementptr %"class.benchmark::internal::BenchmarkInstance", ptr %__first1.sroa.1.020.i.i, i64 -1, i32 12
  %4 = load ptr, ptr %counters_4.i.i.i.i.i, align 8, !tbaa !14
  store ptr %4, ptr %counters_.i.i.i.i.i, align 8, !tbaa !82
  %__pair1_.i.i.i.i.i.i.i = getelementptr %"class.benchmark::internal::BenchmarkInstance", ptr %3, i64 -1, i32 12, i32 0, i32 1
  %__pair1_3.i.i.i.i.i.i.i = getelementptr %"class.benchmark::internal::BenchmarkInstance", ptr %__first1.sroa.1.020.i.i, i64 -1, i32 12, i32 0, i32 1
  %5 = load i64, ptr %__pair1_3.i.i.i.i.i.i.i, align 8
  store i64 %5, ptr %__pair1_.i.i.i.i.i.i.i, align 8
  %__pair3_.i.i.i.i.i.i.i = getelementptr %"class.benchmark::internal::BenchmarkInstance", ptr %3, i64 -1, i32 12, i32 0, i32 2
  %__pair3_4.i.i.i.i.i.i.i = getelementptr %"class.benchmark::internal::BenchmarkInstance", ptr %__first1.sroa.1.020.i.i, i64 -1, i32 12, i32 0, i32 2
  %6 = load i64, ptr %__pair3_4.i.i.i.i.i.i.i, align 8
  store i64 %6, ptr %__pair3_.i.i.i.i.i.i.i, align 8
  %cmp.i.i.i.i.i.i.i = icmp eq i64 %6, 0
  br i1 %cmp.i.i.i.i.i.i.i, label %if.then.i.i.i.i.i.i.i, label %if.else.i.i.i.i.i.i.i

if.then.i.i.i.i.i.i.i:                            ; preds = %while.body.i.i
  store ptr %__pair1_.i.i.i.i.i.i.i, ptr %counters_.i.i.i.i.i, align 8, !tbaa !14
  br label %invoke.cont4.i.i

if.else.i.i.i.i.i.i.i:                            ; preds = %while.body.i.i
  %7 = inttoptr i64 %5 to ptr
  %__parent_.i.i.i.i.i.i.i = getelementptr inbounds %"class.std::__1::__tree_node_base", ptr %7, i64 0, i32 2
  store ptr %__pair1_.i.i.i.i.i.i.i, ptr %__parent_.i.i.i.i.i.i.i, align 8, !tbaa !90
  store ptr %__pair1_3.i.i.i.i.i.i.i, ptr %counters_4.i.i.i.i.i, align 8, !tbaa !14
  tail call void @llvm.memset.p0.i64(ptr noundef nonnull align 8 dereferenceable(16) %__pair1_3.i.i.i.i.i.i.i, i8 0, i64 16, i1 false)
  br label %invoke.cont4.i.i

invoke.cont4.i.i:                                 ; preds = %if.else.i.i.i.i.i.i.i, %if.then.i.i.i.i.i.i.i
  %statistics_.i.i.i.i.i = getelementptr %"class.benchmark::internal::BenchmarkInstance", ptr %3, i64 -1, i32 13
  %statistics_5.i.i.i.i.i = getelementptr %"class.benchmark::internal::BenchmarkInstance", ptr %__first1.sroa.1.020.i.i, i64 -1, i32 13
  tail call void @llvm.memcpy.p0.p0.i64(ptr noundef nonnull align 8 dereferenceable(56) %statistics_.i.i.i.i.i, ptr noundef nonnull align 8 dereferenceable(56) %statistics_5.i.i.i.i.i, i64 56, i1 false)
  %cmp.i.not.i.i = icmp eq ptr %incdec.ptr.i.i.i, %1
  br i1 %cmp.i.not.i.i, label %invoke.cont, label %while.body.i.i, !llvm.loop !99

invoke.cont:                                      ; preds = %invoke.cont4.i.i
  %.pre = load ptr, ptr %this, align 8, !tbaa !14
  %.pre18 = load ptr, ptr %__end_.i, align 8, !tbaa !14
  store ptr %incdec.ptr.i.i.i.i.i.i, ptr %this, align 8, !tbaa !14
  store ptr %add.ptr.i, ptr %__end_.i, align 8, !tbaa !14
  store ptr %add.ptr6.i, ptr %__end_cap_.i.i, align 8, !tbaa !14
  %cmp.not4.i.i.i.i = icmp eq ptr %.pre18, %.pre
  br i1 %cmp.not4.i.i.i.i, label %_ZNSt3__114__split_bufferIN9benchmark8internal17BenchmarkInstanceERNS_9allocatorIS3_EEE5clearB7v170000Ev.exit.i, label %while.body.i.i.i.i

while.body.i.i.i.i:                               ; preds = %invoke.cont, %while.body.i.i.i.i
  %8 = phi ptr [ %incdec.ptr.i.i.i.i, %while.body.i.i.i.i ], [ %.pre18, %invoke.cont ]
  %incdec.ptr.i.i.i.i = getelementptr inbounds %"class.benchmark::internal::BenchmarkInstance", ptr %8, i64 -1
  %counters_.i.i.i.i.i.i.i = getelementptr %"class.benchmark::internal::BenchmarkInstance", ptr %8, i64 -1, i32 12
  %__pair1_.i.i.i.i.i.i.i.i.i.i.i = getelementptr %"class.benchmark::internal::BenchmarkInstance", ptr %8, i64 -1, i32 12, i32 0, i32 1
  %9 = load ptr, ptr %__pair1_.i.i.i.i.i.i.i.i.i.i.i, align 8, !tbaa !92
  tail call void @_ZNSt3__16__treeINS_12__value_typeINS_12basic_stringIcNS_11char_traitsIcEENS_9allocatorIcEEEEN9benchmark7CounterEEENS_19__map_value_compareIS7_SA_NS_4lessIS7_EELb1EEENS5_ISA_EEE7destroyEPNS_11__tree_nodeISA_PvEE(ptr noundef nonnull align 8 dereferenceable(24) %counters_.i.i.i.i.i.i.i, ptr noundef %9) #29
  tail call void @_ZN9benchmark13BenchmarkNameD2Ev(ptr noundef nonnull align 8 dereferenceable(168) %incdec.ptr.i.i.i.i) #29
  %cmp.not.i.i.i.i = icmp eq ptr %incdec.ptr.i.i.i.i, %.pre
  br i1 %cmp.not.i.i.i.i, label %_ZNSt3__114__split_bufferIN9benchmark8internal17BenchmarkInstanceERNS_9allocatorIS3_EEE5clearB7v170000Ev.exit.i, label %while.body.i.i.i.i

_ZNSt3__114__split_bufferIN9benchmark8internal17BenchmarkInstanceERNS_9allocatorIS3_EEE5clearB7v170000Ev.exit.i: ; preds = %while.body.i.i.i.i, %invoke.cont.thread, %invoke.cont
  %10 = phi ptr [ %.pre18, %invoke.cont ], [ %1, %invoke.cont.thread ], [ %.pre, %while.body.i.i.i.i ]
  %tobool.not.i = icmp eq ptr %10, null
  br i1 %tobool.not.i, label %if.end7, label %if.then.i

if.then.i:                                        ; preds = %_ZNSt3__114__split_bufferIN9benchmark8internal17BenchmarkInstanceERNS_9allocatorIS3_EEE5clearB7v170000Ev.exit.i
  tail call void @_ZdlPv(ptr noundef nonnull %10) #30
  br label %if.end7

if.end7:                                          ; preds = %if.then.i, %_ZNSt3__114__split_bufferIN9benchmark8internal17BenchmarkInstanceERNS_9allocatorIS3_EEE5clearB7v170000Ev.exit.i, %entry
  ret void
}

declare void @_ZN9benchmark8internal17BenchmarkInstanceC1EPNS0_9BenchmarkEiiRKNSt3__16vectorIlNS4_9allocatorIlEEEEi(ptr noundef nonnull align 8 dereferenceable(304), ptr noundef, i32 noundef, i32 noundef, ptr noundef nonnull align 8 dereferenceable(24), i32 noundef) unnamed_addr #0

declare void @_ZNK9benchmark13BenchmarkName3strEv(ptr sret(%"class.std::__1::basic_string") align 8, ptr noundef nonnull align 8 dereferenceable(168)) local_unnamed_addr #0

; Function Attrs: uwtable
define hidden noundef ptr @_ZN9benchmark8internal25RegisterBenchmarkInternalEPNS0_9BenchmarkE(ptr noundef returned %bench) local_unnamed_addr #4 personality ptr @__gxx_personality_v0 {
entry:
  %agg.tmp = alloca %"class.std::__1::unique_ptr", align 8
  %0 = load atomic i8, ptr @_ZGVZN9benchmark8internal17BenchmarkFamilies11GetInstanceEvE8instance acquire, align 8
  %guard.uninitialized.i = icmp eq i8 %0, 0
  br i1 %guard.uninitialized.i, label %init.check.i, label %invoke.cont, !prof !5

init.check.i:                                     ; preds = %entry
  %1 = tail call i32 @__cxa_guard_acquire(ptr nonnull @_ZGVZN9benchmark8internal17BenchmarkFamilies11GetInstanceEvE8instance) #29
  %tobool.not.i = icmp eq i32 %1, 0
  br i1 %tobool.not.i, label %invoke.cont, label %invoke.cont.i

invoke.cont.i:                                    ; preds = %init.check.i
  tail call void @llvm.memset.p0.i64(ptr noundef nonnull align 8 dereferenceable(64) @_ZZN9benchmark8internal17BenchmarkFamilies11GetInstanceEvE8instance, i8 0, i64 64, i1 false)
  %2 = tail call i32 @__cxa_atexit(ptr nonnull @_ZN9benchmark8internal17BenchmarkFamiliesD2Ev, ptr nonnull @_ZZN9benchmark8internal17BenchmarkFamilies11GetInstanceEvE8instance, ptr nonnull @__dso_handle) #29
  tail call void @__cxa_guard_release(ptr nonnull @_ZGVZN9benchmark8internal17BenchmarkFamilies11GetInstanceEvE8instance) #29
  br label %invoke.cont

invoke.cont:                                      ; preds = %invoke.cont.i, %init.check.i, %entry
  store ptr %bench, ptr %agg.tmp, align 8, !tbaa !17
  invoke void @_ZNSt3__15mutex4lockEv(ptr noundef nonnull align 8 dereferenceable(40) getelementptr inbounds (%"class.benchmark::internal::BenchmarkFamilies", ptr @_ZZN9benchmark8internal17BenchmarkFamilies11GetInstanceEvE8instance, i64 0, i32 1))
          to label %.noexc unwind label %lpad1

.noexc:                                           ; preds = %invoke.cont
  %3 = load ptr, ptr getelementptr inbounds (%"class.benchmark::internal::BenchmarkFamilies", ptr @_ZZN9benchmark8internal17BenchmarkFamilies11GetInstanceEvE8instance, i64 0, i32 0, i32 1), align 8, !tbaa !13
  %4 = load ptr, ptr getelementptr inbounds (%"class.benchmark::internal::BenchmarkFamilies", ptr @_ZZN9benchmark8internal17BenchmarkFamilies11GetInstanceEvE8instance, i64 0, i32 0, i32 2), align 8, !tbaa !14
  %cmp.i.i = icmp ult ptr %3, %4
  br i1 %cmp.i.i, label %if.then.i.i, label %if.else.i.i

if.then.i.i:                                      ; preds = %.noexc
  store ptr null, ptr %agg.tmp, align 8, !tbaa !14
  store ptr %bench, ptr %3, align 8, !tbaa !17
  %incdec.ptr.i.i.i = getelementptr inbounds %"class.std::__1::unique_ptr", ptr %3, i64 1
  store ptr %incdec.ptr.i.i.i, ptr getelementptr inbounds (%"class.benchmark::internal::BenchmarkFamilies", ptr @_ZZN9benchmark8internal17BenchmarkFamilies11GetInstanceEvE8instance, i64 0, i32 0, i32 1), align 8, !tbaa !13
  br label %invoke.cont2

if.else.i.i:                                      ; preds = %.noexc
  invoke void @_ZNSt3__16vectorINS_10unique_ptrIN9benchmark8internal9BenchmarkENS_14default_deleteIS4_EEEENS_9allocatorIS7_EEE21__push_back_slow_pathIS7_EEvOT_(ptr noundef nonnull align 8 dereferenceable(24) @_ZZN9benchmark8internal17BenchmarkFamilies11GetInstanceEvE8instance, ptr noundef nonnull align 8 dereferenceable(8) %agg.tmp)
          to label %invoke.cont2 unwind label %_ZN9benchmark9MutexLockD2Ev.exit9.i

_ZN9benchmark9MutexLockD2Ev.exit9.i:              ; preds = %if.else.i.i
  %5 = landingpad { ptr, i32 }
          cleanup
  call void @_ZNSt3__15mutex6unlockEv(ptr noundef nonnull align 8 dereferenceable(40) getelementptr inbounds (%"class.benchmark::internal::BenchmarkFamilies", ptr @_ZZN9benchmark8internal17BenchmarkFamilies11GetInstanceEvE8instance, i64 0, i32 1)) #29
  %.pre = load ptr, ptr %agg.tmp, align 8, !tbaa !14
  br label %lpad1.body

invoke.cont2:                                     ; preds = %if.else.i.i, %if.then.i.i
  call void @_ZNSt3__15mutex6unlockEv(ptr noundef nonnull align 8 dereferenceable(40) getelementptr inbounds (%"class.benchmark::internal::BenchmarkFamilies", ptr @_ZZN9benchmark8internal17BenchmarkFamilies11GetInstanceEvE8instance, i64 0, i32 1)) #29
  %6 = load ptr, ptr %agg.tmp, align 8, !tbaa !14
  store ptr null, ptr %agg.tmp, align 8, !tbaa !14
  %tobool.not.i.i = icmp eq ptr %6, null
  br i1 %tobool.not.i.i, label %_ZNSt3__110unique_ptrIN9benchmark8internal9BenchmarkENS_14default_deleteIS3_EEED2B7v170000Ev.exit14, label %_ZNKSt3__114default_deleteIN9benchmark8internal9BenchmarkEEclB7v170000EPS3_.exit.i.i

_ZNKSt3__114default_deleteIN9benchmark8internal9BenchmarkEEclB7v170000EPS3_.exit.i.i: ; preds = %invoke.cont2
  %vtable.i.i.i = load ptr, ptr %6, align 8, !tbaa !15
  %vfn.i.i.i = getelementptr inbounds ptr, ptr %vtable.i.i.i, i64 1
  %7 = load ptr, ptr %vfn.i.i.i, align 8
  call void %7(ptr noundef nonnull align 8 dereferenceable(208) %6) #29
  br label %_ZNSt3__110unique_ptrIN9benchmark8internal9BenchmarkENS_14default_deleteIS3_EEED2B7v170000Ev.exit14

_ZNSt3__110unique_ptrIN9benchmark8internal9BenchmarkENS_14default_deleteIS3_EEED2B7v170000Ev.exit14: ; preds = %_ZNKSt3__114default_deleteIN9benchmark8internal9BenchmarkEEclB7v170000EPS3_.exit.i.i, %invoke.cont2
  ret ptr %bench

lpad1:                                            ; preds = %invoke.cont
  %8 = landingpad { ptr, i32 }
          cleanup
  br label %lpad1.body

lpad1.body:                                       ; preds = %_ZN9benchmark9MutexLockD2Ev.exit9.i, %lpad1
  %9 = phi ptr [ %bench, %lpad1 ], [ %.pre, %_ZN9benchmark9MutexLockD2Ev.exit9.i ]
  %eh.lpad-body = phi { ptr, i32 } [ %8, %lpad1 ], [ %5, %_ZN9benchmark9MutexLockD2Ev.exit9.i ]
  store ptr null, ptr %agg.tmp, align 8, !tbaa !14
  %tobool.not.i.i15 = icmp eq ptr %9, null
  br i1 %tobool.not.i.i15, label %_ZNSt3__110unique_ptrIN9benchmark8internal9BenchmarkENS_14default_deleteIS3_EEED2B7v170000Ev.exit24, label %_ZNKSt3__114default_deleteIN9benchmark8internal9BenchmarkEEclB7v170000EPS3_.exit.i.i18

_ZNKSt3__114default_deleteIN9benchmark8internal9BenchmarkEEclB7v170000EPS3_.exit.i.i18: ; preds = %lpad1.body
  %vtable.i.i.i16 = load ptr, ptr %9, align 8, !tbaa !15
  %vfn.i.i.i17 = getelementptr inbounds ptr, ptr %vtable.i.i.i16, i64 1
  %10 = load ptr, ptr %vfn.i.i.i17, align 8
  call void %10(ptr noundef nonnull align 8 dereferenceable(208) %9) #29
  br label %_ZNSt3__110unique_ptrIN9benchmark8internal9BenchmarkENS_14default_deleteIS3_EEED2B7v170000Ev.exit24

_ZNSt3__110unique_ptrIN9benchmark8internal9BenchmarkENS_14default_deleteIS3_EEED2B7v170000Ev.exit24: ; preds = %lpad1.body, %_ZNKSt3__114default_deleteIN9benchmark8internal9BenchmarkEEclB7v170000EPS3_.exit.i.i18
  resume { ptr, i32 } %eh.lpad-body
}

; Function Attrs: uwtable
define hidden noundef zeroext i1 @_ZN9benchmark8internal22FindBenchmarksInternalERKNSt3__112basic_stringIcNS1_11char_traitsIcEENS1_9allocatorIcEEEEPNS1_6vectorINS0_17BenchmarkInstanceENS5_ISB_EEEEPNS1_13basic_ostreamIcS4_EE(ptr noundef nonnull align 8 dereferenceable(24) %re, ptr noundef %benchmarks, ptr noundef %Err) local_unnamed_addr #4 personality ptr @__gxx_personality_v0 {
entry:
  %agg.tmp = alloca %"class.std::__1::basic_string", align 8
  %0 = load atomic i8, ptr @_ZGVZN9benchmark8internal17BenchmarkFamilies11GetInstanceEvE8instance acquire, align 8
  %guard.uninitialized.i = icmp eq i8 %0, 0
  br i1 %guard.uninitialized.i, label %init.check.i, label %_ZN9benchmark8internal17BenchmarkFamilies11GetInstanceEv.exit, !prof !5

init.check.i:                                     ; preds = %entry
  %1 = tail call i32 @__cxa_guard_acquire(ptr nonnull @_ZGVZN9benchmark8internal17BenchmarkFamilies11GetInstanceEvE8instance) #29
  %tobool.not.i = icmp eq i32 %1, 0
  br i1 %tobool.not.i, label %_ZN9benchmark8internal17BenchmarkFamilies11GetInstanceEv.exit, label %invoke.cont.i

invoke.cont.i:                                    ; preds = %init.check.i
  tail call void @llvm.memset.p0.i64(ptr noundef nonnull align 8 dereferenceable(64) @_ZZN9benchmark8internal17BenchmarkFamilies11GetInstanceEvE8instance, i8 0, i64 64, i1 false)
  %2 = tail call i32 @__cxa_atexit(ptr nonnull @_ZN9benchmark8internal17BenchmarkFamiliesD2Ev, ptr nonnull @_ZZN9benchmark8internal17BenchmarkFamilies11GetInstanceEvE8instance, ptr nonnull @__dso_handle) #29
  tail call void @__cxa_guard_release(ptr nonnull @_ZGVZN9benchmark8internal17BenchmarkFamilies11GetInstanceEvE8instance) #29
  br label %_ZN9benchmark8internal17BenchmarkFamilies11GetInstanceEv.exit

_ZN9benchmark8internal17BenchmarkFamilies11GetInstanceEv.exit: ; preds = %entry, %init.check.i, %invoke.cont.i
  call void @_ZNSt3__112basic_stringIcNS_11char_traitsIcEENS_9allocatorIcEEEC1ERKS5_(ptr noundef nonnull align 8 dereferenceable(24) %agg.tmp, ptr noundef nonnull align 8 dereferenceable(24) %re)
  %call1 = invoke noundef zeroext i1 @_ZN9benchmark8internal17BenchmarkFamilies14FindBenchmarksENSt3__112basic_stringIcNS2_11char_traitsIcEENS2_9allocatorIcEEEEPNS2_6vectorINS0_17BenchmarkInstanceENS6_ISA_EEEEPNS2_13basic_ostreamIcS5_EE(ptr noundef nonnull align 8 dereferenceable(64) @_ZZN9benchmark8internal17BenchmarkFamilies11GetInstanceEvE8instance, ptr noundef nonnull %agg.tmp, ptr noundef %benchmarks, ptr noundef %Err)
          to label %invoke.cont unwind label %lpad

invoke.cont:                                      ; preds = %_ZN9benchmark8internal17BenchmarkFamilies11GetInstanceEv.exit
  %bf.load.i.i = load i8, ptr %agg.tmp, align 8
  %bf.clear.i.i = and i8 %bf.load.i.i, 1
  %tobool.i.not.i = icmp eq i8 %bf.clear.i.i, 0
  br i1 %tobool.i.not.i, label %_ZNSt3__112basic_stringIcNS_11char_traitsIcEENS_9allocatorIcEEED2Ev.exit, label %if.then.i

if.then.i:                                        ; preds = %invoke.cont
  %__data_.i.i = getelementptr inbounds %"struct.std::__1::basic_string<char>::__long", ptr %agg.tmp, i64 0, i32 2
  %3 = load ptr, ptr %__data_.i.i, align 8, !tbaa !42
  call void @_ZdlPv(ptr noundef %3) #30
  br label %_ZNSt3__112basic_stringIcNS_11char_traitsIcEENS_9allocatorIcEEED2Ev.exit

_ZNSt3__112basic_stringIcNS_11char_traitsIcEENS_9allocatorIcEEED2Ev.exit: ; preds = %invoke.cont, %if.then.i
  ret i1 %call1

lpad:                                             ; preds = %_ZN9benchmark8internal17BenchmarkFamilies11GetInstanceEv.exit
  %4 = landingpad { ptr, i32 }
          cleanup
  %bf.load.i.i3 = load i8, ptr %agg.tmp, align 8
  %bf.clear.i.i4 = and i8 %bf.load.i.i3, 1
  %tobool.i.not.i5 = icmp eq i8 %bf.clear.i.i4, 0
  br i1 %tobool.i.not.i5, label %_ZNSt3__112basic_stringIcNS_11char_traitsIcEENS_9allocatorIcEEED2Ev.exit8, label %if.then.i7

if.then.i7:                                       ; preds = %lpad
  %__data_.i.i6 = getelementptr inbounds %"struct.std::__1::basic_string<char>::__long", ptr %agg.tmp, i64 0, i32 2
  %5 = load ptr, ptr %__data_.i.i6, align 8, !tbaa !42
  call void @_ZdlPv(ptr noundef %5) #30
  br label %_ZNSt3__112basic_stringIcNS_11char_traitsIcEENS_9allocatorIcEEED2Ev.exit8

_ZNSt3__112basic_stringIcNS_11char_traitsIcEENS_9allocatorIcEEED2Ev.exit8: ; preds = %lpad, %if.then.i7
  resume { ptr, i32 } %4
}

declare void @_ZNSt3__112basic_stringIcNS_11char_traitsIcEENS_9allocatorIcEEEC1ERKS5_(ptr noundef nonnull align 8 dereferenceable(24), ptr noundef nonnull align 8 dereferenceable(24)) unnamed_addr #0

; Function Attrs: uwtable
define hidden void @_ZN9benchmark8internal9BenchmarkC2EPKc(ptr noundef nonnull align 8 dereferenceable(208) %this, ptr noundef readonly %name) unnamed_addr #4 align 2 personality ptr @__gxx_personality_v0 {
entry:
  %statistics.addr.i185 = alloca ptr, align 8
  %unit.addr.i186 = alloca i32, align 4
  %statistics.addr.i140 = alloca ptr, align 8
  %unit.addr.i141 = alloca i32, align 4
  %statistics.addr.i95 = alloca ptr, align 8
  %unit.addr.i96 = alloca i32, align 4
  %statistics.addr.i = alloca ptr, align 8
  %unit.addr.i = alloca i32, align 4
  %ref.tmp = alloca %"class.std::__1::basic_string", align 8
  %ref.tmp7 = alloca %"class.std::__1::basic_string", align 8
  %ref.tmp15 = alloca %"class.std::__1::basic_string", align 8
  %ref.tmp23 = alloca %"class.std::__1::basic_string", align 8
  store ptr getelementptr inbounds ({ [5 x ptr] }, ptr @_ZTVN9benchmark8internal9BenchmarkE, i64 0, inrange i32 0, i64 2), ptr %this, align 8, !tbaa !15
  %name_ = getelementptr inbounds %"class.benchmark::internal::Benchmark", ptr %this, i64 0, i32 1
  %cmp.i = icmp ne ptr %name, null
  tail call void @llvm.assume(i1 %cmp.i)
  %call.i.i.i = tail call i64 @strlen(ptr noundef nonnull dereferenceable(1) %name) #29
  %cmp.i.i = icmp ugt i64 %call.i.i.i, -17
  br i1 %cmp.i.i, label %if.then.i.i, label %if.end.i.i

if.then.i.i:                                      ; preds = %entry
  tail call void @_ZNKSt3__112basic_stringIcNS_11char_traitsIcEENS_9allocatorIcEEE20__throw_length_errorB7v170000Ev(ptr noundef nonnull align 8 dereferenceable(24) %name_) #31
  unreachable

if.end.i.i:                                       ; preds = %entry
  %cmp.i.i.i = icmp ult i64 %call.i.i.i, 23
  br i1 %cmp.i.i.i, label %if.then3.i.i, label %if.else.i.i

if.then3.i.i:                                     ; preds = %if.end.i.i
  %conv.i.i.i = trunc i64 %call.i.i.i to i8
  %bf.shl.i.i.i = shl nuw nsw i8 %conv.i.i.i, 1
  store i8 %bf.shl.i.i.i, ptr %name_, align 8
  %__data_.i.i.i = getelementptr inbounds i8, ptr %this, i64 9
  br label %_ZNSt3__112basic_stringIcNS_11char_traitsIcEENS_9allocatorIcEEEC2B7v170000IDnEEPKc.exit

if.else.i.i:                                      ; preds = %if.end.i.i
  %sub.i.i.i = or i64 %call.i.i.i, 15
  %add.i.i = add i64 %sub.i.i.i, 1
  %call.i.i.i.i.i.i = tail call noalias noundef nonnull ptr @_Znwm(i64 noundef %add.i.i) #32
  %__data_.i23.i.i = getelementptr inbounds %"class.benchmark::internal::Benchmark", ptr %this, i64 0, i32 1, i32 0, i32 0, i32 0, i32 0, i32 0, i32 2
  store ptr %call.i.i.i.i.i.i, ptr %__data_.i23.i.i, align 8, !tbaa !42
  %bf.set6.i.i.i = or i64 %add.i.i, 1
  store i64 %bf.set6.i.i.i, ptr %name_, align 8
  %__size_.i.i.i = getelementptr inbounds %"class.benchmark::internal::Benchmark", ptr %this, i64 0, i32 1, i32 0, i32 0, i32 0, i32 0, i32 0, i32 1
  store i64 %call.i.i.i, ptr %__size_.i.i.i, align 8, !tbaa !42
  br label %_ZNSt3__112basic_stringIcNS_11char_traitsIcEENS_9allocatorIcEEEC2B7v170000IDnEEPKc.exit

_ZNSt3__112basic_stringIcNS_11char_traitsIcEENS_9allocatorIcEEEC2B7v170000IDnEEPKc.exit: ; preds = %if.then3.i.i, %if.else.i.i
  %__p.0.i.i = phi ptr [ %__data_.i.i.i, %if.then3.i.i ], [ %call.i.i.i.i.i.i, %if.else.i.i ]
  %cmp.i24.i.i = icmp ugt ptr %__p.0.i.i, %name
  %add.ptr.i.i.i = getelementptr inbounds i8, ptr %__p.0.i.i, i64 %call.i.i.i
  %cmp1.i.i.i = icmp ule ptr %add.ptr.i.i.i, %name
  %0 = or i1 %cmp.i24.i.i, %cmp1.i.i.i
  tail call void @llvm.assume(i1 %0)
  tail call void @llvm.memmove.p0.p0.i64(ptr nonnull align 1 %__p.0.i.i, ptr nonnull align 1 %name, i64 %call.i.i.i, i1 false)
  store i8 0, ptr %add.ptr.i.i.i, align 1, !tbaa !42
  %aggregation_report_mode_ = getelementptr inbounds %"class.benchmark::internal::Benchmark", ptr %this, i64 0, i32 2
  store i32 0, ptr %aggregation_report_mode_, align 8, !tbaa !100
  %arg_names_ = getelementptr inbounds %"class.benchmark::internal::Benchmark", ptr %this, i64 0, i32 3
  %args_ = getelementptr inbounds %"class.benchmark::internal::Benchmark", ptr %this, i64 0, i32 4
  tail call void @llvm.memset.p0.i64(ptr noundef nonnull align 8 dereferenceable(48) %arg_names_, i8 0, i64 48, i1 false)
  %call = invoke noundef i32 @_ZN9benchmark18GetDefaultTimeUnitEv()
          to label %if.else.i.i70 unwind label %lpad

if.else.i.i70:                                    ; preds = %_ZNSt3__112basic_stringIcNS_11char_traitsIcEENS_9allocatorIcEEEC2B7v170000IDnEEPKc.exit
  %time_unit_ = getelementptr inbounds %"class.benchmark::internal::Benchmark", ptr %this, i64 0, i32 5
  store i32 %call, ptr %time_unit_, align 8, !tbaa !113
  %use_default_time_unit_ = getelementptr inbounds %"class.benchmark::internal::Benchmark", ptr %this, i64 0, i32 6
  store i8 1, ptr %use_default_time_unit_, align 4, !tbaa !114
  %range_multiplier_ = getelementptr inbounds %"class.benchmark::internal::Benchmark", ptr %this, i64 0, i32 7
  store i32 8, ptr %range_multiplier_, align 8, !tbaa !115
  %min_time_ = getelementptr inbounds %"class.benchmark::internal::Benchmark", ptr %this, i64 0, i32 8
  %complexity_ = getelementptr inbounds %"class.benchmark::internal::Benchmark", ptr %this, i64 0, i32 14
  store i32 0, ptr %complexity_, align 8, !tbaa !116
  %complexity_lambda_ = getelementptr inbounds %"class.benchmark::internal::Benchmark", ptr %this, i64 0, i32 15
  %statistics_ = getelementptr inbounds %"class.benchmark::internal::Benchmark", ptr %this, i64 0, i32 16
  %thread_counts_ = getelementptr inbounds %"class.benchmark::internal::Benchmark", ptr %this, i64 0, i32 17
  tail call void @llvm.memset.p0.i64(ptr noundef nonnull align 8 dereferenceable(23) %min_time_, i8 0, i64 23, i1 false)
  tail call void @llvm.memset.p0.i64(ptr noundef nonnull align 8 dereferenceable(72) %complexity_lambda_, i8 0, i64 72, i1 false)
  call void @llvm.lifetime.start.p0(i64 24, ptr nonnull %ref.tmp) #29
  store i8 8, ptr %ref.tmp, align 8
  %__data_.i.i.i53 = getelementptr inbounds %"struct.std::__1::basic_string<char>::__short", ptr %ref.tmp, i64 0, i32 2
  %cmp.i24.i.i63 = icmp ugt ptr %__data_.i.i.i53, @.str.6
  %add.ptr.i.i.i64 = getelementptr inbounds %"struct.std::__1::basic_string<char>::__short", ptr %ref.tmp, i64 0, i32 2, i64 4
  %cmp1.i.i.i65 = icmp ule ptr %add.ptr.i.i.i64, @.str.6
  %1 = or i1 %cmp.i24.i.i63, %cmp1.i.i.i65
  call void @llvm.assume(i1 %1)
  store i32 1851876717, ptr %__data_.i.i.i53, align 1
  store i8 0, ptr %add.ptr.i.i.i64, align 1, !tbaa !42
  call void @llvm.lifetime.start.p0(i64 8, ptr nonnull %statistics.addr.i)
  call void @llvm.lifetime.start.p0(i64 4, ptr nonnull %unit.addr.i)
  store ptr @_ZN9benchmark14StatisticsMeanERKNSt3__16vectorIdNS0_9allocatorIdEEEE, ptr %statistics.addr.i, align 8, !tbaa !14
  store i32 0, ptr %unit.addr.i, align 4, !tbaa !117
  %__end_.i.i = getelementptr inbounds %"class.benchmark::internal::Benchmark", ptr %this, i64 0, i32 16, i32 1
  %__end_cap_.i.i.i = getelementptr inbounds %"class.benchmark::internal::Benchmark", ptr %this, i64 0, i32 16, i32 2
  invoke void @_ZNSt3__16vectorIN9benchmark8internal10StatisticsENS_9allocatorIS3_EEE24__emplace_back_slow_pathIJRKNS_12basic_stringIcNS_11char_traitsIcEENS4_IcEEEERPFdRKNS0_IdNS4_IdEEEEERNS1_13StatisticUnitEEEEvDpOT_(ptr noundef nonnull align 8 dereferenceable(24) %statistics_, ptr noundef nonnull align 8 dereferenceable(24) %ref.tmp, ptr noundef nonnull align 8 dereferenceable(8) %statistics.addr.i, ptr noundef nonnull align 4 dereferenceable(4) %unit.addr.i)
          to label %invoke.cont5 unwind label %lpad4.body

invoke.cont5:                                     ; preds = %if.else.i.i70
  %bf.load.i.i.pre = load i8, ptr %ref.tmp, align 8
  call void @llvm.lifetime.end.p0(i64 8, ptr nonnull %statistics.addr.i)
  call void @llvm.lifetime.end.p0(i64 4, ptr nonnull %unit.addr.i)
  %bf.clear.i.i = and i8 %bf.load.i.i.pre, 1
  %tobool.i.not.i = icmp eq i8 %bf.clear.i.i, 0
  br i1 %tobool.i.not.i, label %_ZNSt3__112basic_stringIcNS_11char_traitsIcEENS_9allocatorIcEEED2Ev.exit, label %if.then.i

if.then.i:                                        ; preds = %invoke.cont5
  %__data_.i.i = getelementptr inbounds %"struct.std::__1::basic_string<char>::__long", ptr %ref.tmp, i64 0, i32 2
  %2 = load ptr, ptr %__data_.i.i, align 8, !tbaa !42
  call void @_ZdlPv(ptr noundef %2) #30
  br label %_ZNSt3__112basic_stringIcNS_11char_traitsIcEENS_9allocatorIcEEED2Ev.exit

_ZNSt3__112basic_stringIcNS_11char_traitsIcEENS_9allocatorIcEEED2Ev.exit: ; preds = %invoke.cont5, %if.then.i
  call void @llvm.lifetime.end.p0(i64 24, ptr nonnull %ref.tmp) #29
  call void @llvm.lifetime.start.p0(i64 24, ptr nonnull %ref.tmp7) #29
  store i8 12, ptr %ref.tmp7, align 8
  %__data_.i.i.i79 = getelementptr inbounds %"struct.std::__1::basic_string<char>::__short", ptr %ref.tmp7, i64 0, i32 2
  %cmp.i24.i.i89 = icmp ugt ptr %__data_.i.i.i79, @.str.7
  %add.ptr.i.i.i90 = getelementptr inbounds %"struct.std::__1::basic_string<char>::__short", ptr %ref.tmp7, i64 0, i32 2, i64 6
  %cmp1.i.i.i91 = icmp ule ptr %add.ptr.i.i.i90, @.str.7
  %3 = or i1 %cmp.i24.i.i89, %cmp1.i.i.i91
  call void @llvm.assume(i1 %3)
  call void @llvm.memcpy.p0.p0.i64(ptr noundef nonnull align 1 dereferenceable(6) %__data_.i.i.i79, ptr noundef nonnull align 1 dereferenceable(6) @.str.7, i64 6, i1 false)
  store i8 0, ptr %add.ptr.i.i.i90, align 1, !tbaa !42
  call void @llvm.lifetime.start.p0(i64 8, ptr nonnull %statistics.addr.i95)
  call void @llvm.lifetime.start.p0(i64 4, ptr nonnull %unit.addr.i96)
  store ptr @_ZN9benchmark16StatisticsMedianERKNSt3__16vectorIdNS0_9allocatorIdEEEE, ptr %statistics.addr.i95, align 8, !tbaa !14
  store i32 0, ptr %unit.addr.i96, align 4, !tbaa !117
  %4 = load ptr, ptr %__end_.i.i, align 8, !tbaa !119
  %5 = load ptr, ptr %__end_cap_.i.i.i, align 8, !tbaa !14
  %cmp.i.i99 = icmp ult ptr %4, %5
  br i1 %cmp.i.i99, label %if.then.i.i100, label %if.else.i.i107

if.then.i.i100:                                   ; preds = %_ZNSt3__112basic_stringIcNS_11char_traitsIcEENS_9allocatorIcEEED2Ev.exit
  invoke void @_ZNSt3__112basic_stringIcNS_11char_traitsIcEENS_9allocatorIcEEEC1ERKS5_(ptr noundef nonnull align 8 dereferenceable(24) %4, ptr noundef nonnull align 8 dereferenceable(24) %ref.tmp7)
          to label %_ZNSt3__16vectorIN9benchmark8internal10StatisticsENS_9allocatorIS3_EEE22__construct_one_at_endB7v170000IJRKNS_12basic_stringIcNS_11char_traitsIcEENS4_IcEEEERPFdRKNS0_IdNS4_IdEEEEERNS1_13StatisticUnitEEEEvDpOT_.exit.i.i105 unwind label %lpad.i.i.i101

lpad.i.i.i101:                                    ; preds = %if.then.i.i100
  %6 = landingpad { ptr, i32 }
          cleanup
  store ptr %4, ptr %__end_.i.i, align 8, !tbaa !119
  br label %lpad10.body

_ZNSt3__16vectorIN9benchmark8internal10StatisticsENS_9allocatorIS3_EEE22__construct_one_at_endB7v170000IJRKNS_12basic_stringIcNS_11char_traitsIcEENS4_IcEEEERPFdRKNS0_IdNS4_IdEEEEERNS1_13StatisticUnitEEEEvDpOT_.exit.i.i105: ; preds = %if.then.i.i100
  %compute_.i.i.i.i.i.i102 = getelementptr inbounds %"struct.benchmark::internal::Statistics", ptr %4, i64 0, i32 1
  store ptr @_ZN9benchmark16StatisticsMedianERKNSt3__16vectorIdNS0_9allocatorIdEEEE, ptr %compute_.i.i.i.i.i.i102, align 8, !tbaa !120
  %unit_.i.i.i.i.i.i103 = getelementptr inbounds %"struct.benchmark::internal::Statistics", ptr %4, i64 0, i32 2
  store i32 0, ptr %unit_.i.i.i.i.i.i103, align 8, !tbaa !122
  %incdec.ptr.i.i.i104 = getelementptr inbounds %"struct.benchmark::internal::Statistics", ptr %4, i64 1
  store ptr %incdec.ptr.i.i.i104, ptr %__end_.i.i, align 8, !tbaa !119
  br label %invoke.cont11

if.else.i.i107:                                   ; preds = %_ZNSt3__112basic_stringIcNS_11char_traitsIcEENS_9allocatorIcEEED2Ev.exit
  invoke void @_ZNSt3__16vectorIN9benchmark8internal10StatisticsENS_9allocatorIS3_EEE24__emplace_back_slow_pathIJRKNS_12basic_stringIcNS_11char_traitsIcEENS4_IcEEEERPFdRKNS0_IdNS4_IdEEEEERNS1_13StatisticUnitEEEEvDpOT_(ptr noundef nonnull align 8 dereferenceable(24) %statistics_, ptr noundef nonnull align 8 dereferenceable(24) %ref.tmp7, ptr noundef nonnull align 8 dereferenceable(8) %statistics.addr.i95, ptr noundef nonnull align 4 dereferenceable(4) %unit.addr.i96)
          to label %invoke.cont11 unwind label %lpad10

invoke.cont11:                                    ; preds = %_ZNSt3__16vectorIN9benchmark8internal10StatisticsENS_9allocatorIS3_EEE22__construct_one_at_endB7v170000IJRKNS_12basic_stringIcNS_11char_traitsIcEENS4_IcEEEERPFdRKNS0_IdNS4_IdEEEEERNS1_13StatisticUnitEEEEvDpOT_.exit.i.i105, %if.else.i.i107
  call void @llvm.lifetime.end.p0(i64 8, ptr nonnull %statistics.addr.i95)
  call void @llvm.lifetime.end.p0(i64 4, ptr nonnull %unit.addr.i96)
  %bf.load.i.i111 = load i8, ptr %ref.tmp7, align 8
  %bf.clear.i.i112 = and i8 %bf.load.i.i111, 1
  %tobool.i.not.i113 = icmp eq i8 %bf.clear.i.i112, 0
  br i1 %tobool.i.not.i113, label %_ZNSt3__112basic_stringIcNS_11char_traitsIcEENS_9allocatorIcEEED2Ev.exit116, label %if.then.i115

if.then.i115:                                     ; preds = %invoke.cont11
  %__data_.i.i114 = getelementptr inbounds %"struct.std::__1::basic_string<char>::__long", ptr %ref.tmp7, i64 0, i32 2
  %7 = load ptr, ptr %__data_.i.i114, align 8, !tbaa !42
  call void @_ZdlPv(ptr noundef %7) #30
  br label %_ZNSt3__112basic_stringIcNS_11char_traitsIcEENS_9allocatorIcEEED2Ev.exit116

_ZNSt3__112basic_stringIcNS_11char_traitsIcEENS_9allocatorIcEEED2Ev.exit116: ; preds = %invoke.cont11, %if.then.i115
  call void @llvm.lifetime.end.p0(i64 24, ptr nonnull %ref.tmp7) #29
  call void @llvm.lifetime.start.p0(i64 24, ptr nonnull %ref.tmp15) #29
  store i8 12, ptr %ref.tmp15, align 8
  %__data_.i.i.i124 = getelementptr inbounds %"struct.std::__1::basic_string<char>::__short", ptr %ref.tmp15, i64 0, i32 2
  %cmp.i24.i.i134 = icmp ugt ptr %__data_.i.i.i124, @.str.8
  %add.ptr.i.i.i135 = getelementptr inbounds %"struct.std::__1::basic_string<char>::__short", ptr %ref.tmp15, i64 0, i32 2, i64 6
  %cmp1.i.i.i136 = icmp ule ptr %add.ptr.i.i.i135, @.str.8
  %8 = or i1 %cmp.i24.i.i134, %cmp1.i.i.i136
  call void @llvm.assume(i1 %8)
  call void @llvm.memcpy.p0.p0.i64(ptr noundef nonnull align 1 dereferenceable(6) %__data_.i.i.i124, ptr noundef nonnull align 1 dereferenceable(6) @.str.8, i64 6, i1 false)
  store i8 0, ptr %add.ptr.i.i.i135, align 1, !tbaa !42
  call void @llvm.lifetime.start.p0(i64 8, ptr nonnull %statistics.addr.i140)
  call void @llvm.lifetime.start.p0(i64 4, ptr nonnull %unit.addr.i141)
  store ptr @_ZN9benchmark16StatisticsStdDevERKNSt3__16vectorIdNS0_9allocatorIdEEEE, ptr %statistics.addr.i140, align 8, !tbaa !14
  store i32 0, ptr %unit.addr.i141, align 4, !tbaa !117
  %9 = load ptr, ptr %__end_.i.i, align 8, !tbaa !119
  %10 = load ptr, ptr %__end_cap_.i.i.i, align 8, !tbaa !14
  %cmp.i.i144 = icmp ult ptr %9, %10
  br i1 %cmp.i.i144, label %if.then.i.i145, label %if.else.i.i152

if.then.i.i145:                                   ; preds = %_ZNSt3__112basic_stringIcNS_11char_traitsIcEENS_9allocatorIcEEED2Ev.exit116
  invoke void @_ZNSt3__112basic_stringIcNS_11char_traitsIcEENS_9allocatorIcEEEC1ERKS5_(ptr noundef nonnull align 8 dereferenceable(24) %9, ptr noundef nonnull align 8 dereferenceable(24) %ref.tmp15)
          to label %_ZNSt3__16vectorIN9benchmark8internal10StatisticsENS_9allocatorIS3_EEE22__construct_one_at_endB7v170000IJRKNS_12basic_stringIcNS_11char_traitsIcEENS4_IcEEEERPFdRKNS0_IdNS4_IdEEEEERNS1_13StatisticUnitEEEEvDpOT_.exit.i.i150 unwind label %lpad.i.i.i146

lpad.i.i.i146:                                    ; preds = %if.then.i.i145
  %11 = landingpad { ptr, i32 }
          cleanup
  store ptr %9, ptr %__end_.i.i, align 8, !tbaa !119
  br label %lpad18.body

_ZNSt3__16vectorIN9benchmark8internal10StatisticsENS_9allocatorIS3_EEE22__construct_one_at_endB7v170000IJRKNS_12basic_stringIcNS_11char_traitsIcEENS4_IcEEEERPFdRKNS0_IdNS4_IdEEEEERNS1_13StatisticUnitEEEEvDpOT_.exit.i.i150: ; preds = %if.then.i.i145
  %compute_.i.i.i.i.i.i147 = getelementptr inbounds %"struct.benchmark::internal::Statistics", ptr %9, i64 0, i32 1
  store ptr @_ZN9benchmark16StatisticsStdDevERKNSt3__16vectorIdNS0_9allocatorIdEEEE, ptr %compute_.i.i.i.i.i.i147, align 8, !tbaa !120
  %unit_.i.i.i.i.i.i148 = getelementptr inbounds %"struct.benchmark::internal::Statistics", ptr %9, i64 0, i32 2
  store i32 0, ptr %unit_.i.i.i.i.i.i148, align 8, !tbaa !122
  %incdec.ptr.i.i.i149 = getelementptr inbounds %"struct.benchmark::internal::Statistics", ptr %9, i64 1
  store ptr %incdec.ptr.i.i.i149, ptr %__end_.i.i, align 8, !tbaa !119
  br label %invoke.cont19

if.else.i.i152:                                   ; preds = %_ZNSt3__112basic_stringIcNS_11char_traitsIcEENS_9allocatorIcEEED2Ev.exit116
  invoke void @_ZNSt3__16vectorIN9benchmark8internal10StatisticsENS_9allocatorIS3_EEE24__emplace_back_slow_pathIJRKNS_12basic_stringIcNS_11char_traitsIcEENS4_IcEEEERPFdRKNS0_IdNS4_IdEEEEERNS1_13StatisticUnitEEEEvDpOT_(ptr noundef nonnull align 8 dereferenceable(24) %statistics_, ptr noundef nonnull align 8 dereferenceable(24) %ref.tmp15, ptr noundef nonnull align 8 dereferenceable(8) %statistics.addr.i140, ptr noundef nonnull align 4 dereferenceable(4) %unit.addr.i141)
          to label %invoke.cont19 unwind label %lpad18

invoke.cont19:                                    ; preds = %_ZNSt3__16vectorIN9benchmark8internal10StatisticsENS_9allocatorIS3_EEE22__construct_one_at_endB7v170000IJRKNS_12basic_stringIcNS_11char_traitsIcEENS4_IcEEEERPFdRKNS0_IdNS4_IdEEEEERNS1_13StatisticUnitEEEEvDpOT_.exit.i.i150, %if.else.i.i152
  call void @llvm.lifetime.end.p0(i64 8, ptr nonnull %statistics.addr.i140)
  call void @llvm.lifetime.end.p0(i64 4, ptr nonnull %unit.addr.i141)
  %bf.load.i.i156 = load i8, ptr %ref.tmp15, align 8
  %bf.clear.i.i157 = and i8 %bf.load.i.i156, 1
  %tobool.i.not.i158 = icmp eq i8 %bf.clear.i.i157, 0
  br i1 %tobool.i.not.i158, label %_ZNSt3__112basic_stringIcNS_11char_traitsIcEENS_9allocatorIcEEED2Ev.exit161, label %if.then.i160

if.then.i160:                                     ; preds = %invoke.cont19
  %__data_.i.i159 = getelementptr inbounds %"struct.std::__1::basic_string<char>::__long", ptr %ref.tmp15, i64 0, i32 2
  %12 = load ptr, ptr %__data_.i.i159, align 8, !tbaa !42
  call void @_ZdlPv(ptr noundef %12) #30
  br label %_ZNSt3__112basic_stringIcNS_11char_traitsIcEENS_9allocatorIcEEED2Ev.exit161

_ZNSt3__112basic_stringIcNS_11char_traitsIcEENS_9allocatorIcEEED2Ev.exit161: ; preds = %invoke.cont19, %if.then.i160
  call void @llvm.lifetime.end.p0(i64 24, ptr nonnull %ref.tmp15) #29
  call void @llvm.lifetime.start.p0(i64 24, ptr nonnull %ref.tmp23) #29
  store i8 4, ptr %ref.tmp23, align 8
  %__data_.i.i.i169 = getelementptr inbounds %"struct.std::__1::basic_string<char>::__short", ptr %ref.tmp23, i64 0, i32 2
  %cmp.i24.i.i179 = icmp ugt ptr %__data_.i.i.i169, @.str.9
  %add.ptr.i.i.i180 = getelementptr inbounds %"struct.std::__1::basic_string<char>::__short", ptr %ref.tmp23, i64 0, i32 2, i64 2
  %cmp1.i.i.i181 = icmp ule ptr %add.ptr.i.i.i180, @.str.9
  %13 = or i1 %cmp.i24.i.i179, %cmp1.i.i.i181
  call void @llvm.assume(i1 %13)
  store i16 30307, ptr %__data_.i.i.i169, align 1
  store i8 0, ptr %add.ptr.i.i.i180, align 1, !tbaa !42
  call void @llvm.lifetime.start.p0(i64 8, ptr nonnull %statistics.addr.i185)
  call void @llvm.lifetime.start.p0(i64 4, ptr nonnull %unit.addr.i186)
  store ptr @_ZN9benchmark12StatisticsCVERKNSt3__16vectorIdNS0_9allocatorIdEEEE, ptr %statistics.addr.i185, align 8, !tbaa !14
  store i32 1, ptr %unit.addr.i186, align 4, !tbaa !117
  %14 = load ptr, ptr %__end_.i.i, align 8, !tbaa !119
  %15 = load ptr, ptr %__end_cap_.i.i.i, align 8, !tbaa !14
  %cmp.i.i189 = icmp ult ptr %14, %15
  br i1 %cmp.i.i189, label %if.then.i.i190, label %if.else.i.i197

if.then.i.i190:                                   ; preds = %_ZNSt3__112basic_stringIcNS_11char_traitsIcEENS_9allocatorIcEEED2Ev.exit161
  invoke void @_ZNSt3__112basic_stringIcNS_11char_traitsIcEENS_9allocatorIcEEEC1ERKS5_(ptr noundef nonnull align 8 dereferenceable(24) %14, ptr noundef nonnull align 8 dereferenceable(24) %ref.tmp23)
          to label %_ZNSt3__16vectorIN9benchmark8internal10StatisticsENS_9allocatorIS3_EEE22__construct_one_at_endB7v170000IJRKNS_12basic_stringIcNS_11char_traitsIcEENS4_IcEEEERPFdRKNS0_IdNS4_IdEEEEERNS1_13StatisticUnitEEEEvDpOT_.exit.i.i195 unwind label %lpad.i.i.i191

lpad.i.i.i191:                                    ; preds = %if.then.i.i190
  %16 = landingpad { ptr, i32 }
          cleanup
  store ptr %14, ptr %__end_.i.i, align 8, !tbaa !119
  br label %lpad26.body

_ZNSt3__16vectorIN9benchmark8internal10StatisticsENS_9allocatorIS3_EEE22__construct_one_at_endB7v170000IJRKNS_12basic_stringIcNS_11char_traitsIcEENS4_IcEEEERPFdRKNS0_IdNS4_IdEEEEERNS1_13StatisticUnitEEEEvDpOT_.exit.i.i195: ; preds = %if.then.i.i190
  %compute_.i.i.i.i.i.i192 = getelementptr inbounds %"struct.benchmark::internal::Statistics", ptr %14, i64 0, i32 1
  store ptr @_ZN9benchmark12StatisticsCVERKNSt3__16vectorIdNS0_9allocatorIdEEEE, ptr %compute_.i.i.i.i.i.i192, align 8, !tbaa !120
  %unit_.i.i.i.i.i.i193 = getelementptr inbounds %"struct.benchmark::internal::Statistics", ptr %14, i64 0, i32 2
  store i32 1, ptr %unit_.i.i.i.i.i.i193, align 8, !tbaa !122
  %incdec.ptr.i.i.i194 = getelementptr inbounds %"struct.benchmark::internal::Statistics", ptr %14, i64 1
  store ptr %incdec.ptr.i.i.i194, ptr %__end_.i.i, align 8, !tbaa !119
  br label %invoke.cont27

if.else.i.i197:                                   ; preds = %_ZNSt3__112basic_stringIcNS_11char_traitsIcEENS_9allocatorIcEEED2Ev.exit161
  invoke void @_ZNSt3__16vectorIN9benchmark8internal10StatisticsENS_9allocatorIS3_EEE24__emplace_back_slow_pathIJRKNS_12basic_stringIcNS_11char_traitsIcEENS4_IcEEEERPFdRKNS0_IdNS4_IdEEEEERNS1_13StatisticUnitEEEEvDpOT_(ptr noundef nonnull align 8 dereferenceable(24) %statistics_, ptr noundef nonnull align 8 dereferenceable(24) %ref.tmp23, ptr noundef nonnull align 8 dereferenceable(8) %statistics.addr.i185, ptr noundef nonnull align 4 dereferenceable(4) %unit.addr.i186)
          to label %invoke.cont27 unwind label %lpad26

invoke.cont27:                                    ; preds = %_ZNSt3__16vectorIN9benchmark8internal10StatisticsENS_9allocatorIS3_EEE22__construct_one_at_endB7v170000IJRKNS_12basic_stringIcNS_11char_traitsIcEENS4_IcEEEERPFdRKNS0_IdNS4_IdEEEEERNS1_13StatisticUnitEEEEvDpOT_.exit.i.i195, %if.else.i.i197
  call void @llvm.lifetime.end.p0(i64 8, ptr nonnull %statistics.addr.i185)
  call void @llvm.lifetime.end.p0(i64 4, ptr nonnull %unit.addr.i186)
  %bf.load.i.i201 = load i8, ptr %ref.tmp23, align 8
  %bf.clear.i.i202 = and i8 %bf.load.i.i201, 1
  %tobool.i.not.i203 = icmp eq i8 %bf.clear.i.i202, 0
  br i1 %tobool.i.not.i203, label %_ZNSt3__112basic_stringIcNS_11char_traitsIcEENS_9allocatorIcEEED2Ev.exit206, label %if.then.i205

if.then.i205:                                     ; preds = %invoke.cont27
  %__data_.i.i204 = getelementptr inbounds %"struct.std::__1::basic_string<char>::__long", ptr %ref.tmp23, i64 0, i32 2
  %17 = load ptr, ptr %__data_.i.i204, align 8, !tbaa !42
  call void @_ZdlPv(ptr noundef %17) #30
  br label %_ZNSt3__112basic_stringIcNS_11char_traitsIcEENS_9allocatorIcEEED2Ev.exit206

_ZNSt3__112basic_stringIcNS_11char_traitsIcEENS_9allocatorIcEEED2Ev.exit206: ; preds = %invoke.cont27, %if.then.i205
  call void @llvm.lifetime.end.p0(i64 24, ptr nonnull %ref.tmp23) #29
  ret void

lpad:                                             ; preds = %_ZNSt3__112basic_stringIcNS_11char_traitsIcEENS_9allocatorIcEEEC2B7v170000IDnEEPKc.exit
  %18 = landingpad { ptr, i32 }
          cleanup
  br label %ehcleanup33

lpad4.body:                                       ; preds = %if.else.i.i70
  %19 = landingpad { ptr, i32 }
          cleanup
  %bf.load.i.i207.pre = load i8, ptr %ref.tmp, align 8
  %bf.clear.i.i208 = and i8 %bf.load.i.i207.pre, 1
  %tobool.i.not.i209 = icmp eq i8 %bf.clear.i.i208, 0
  br i1 %tobool.i.not.i209, label %ehcleanup, label %if.then.i211

if.then.i211:                                     ; preds = %lpad4.body
  %__data_.i.i210 = getelementptr inbounds %"struct.std::__1::basic_string<char>::__long", ptr %ref.tmp, i64 0, i32 2
  %20 = load ptr, ptr %__data_.i.i210, align 8, !tbaa !42
  call void @_ZdlPv(ptr noundef %20) #30
  br label %ehcleanup

ehcleanup:                                        ; preds = %if.then.i211, %lpad4.body
  call void @llvm.lifetime.end.p0(i64 24, ptr nonnull %ref.tmp) #29
  br label %ehcleanup31

lpad10:                                           ; preds = %if.else.i.i107
  %21 = landingpad { ptr, i32 }
          cleanup
  br label %lpad10.body

lpad10.body:                                      ; preds = %lpad.i.i.i101, %lpad10
  %eh.lpad-body108 = phi { ptr, i32 } [ %21, %lpad10 ], [ %6, %lpad.i.i.i101 ]
  %bf.load.i.i213 = load i8, ptr %ref.tmp7, align 8
  %bf.clear.i.i214 = and i8 %bf.load.i.i213, 1
  %tobool.i.not.i215 = icmp eq i8 %bf.clear.i.i214, 0
  br i1 %tobool.i.not.i215, label %ehcleanup14, label %if.then.i217

if.then.i217:                                     ; preds = %lpad10.body
  %__data_.i.i216 = getelementptr inbounds %"struct.std::__1::basic_string<char>::__long", ptr %ref.tmp7, i64 0, i32 2
  %22 = load ptr, ptr %__data_.i.i216, align 8, !tbaa !42
  call void @_ZdlPv(ptr noundef %22) #30
  br label %ehcleanup14

ehcleanup14:                                      ; preds = %if.then.i217, %lpad10.body
  call void @llvm.lifetime.end.p0(i64 24, ptr nonnull %ref.tmp7) #29
  br label %ehcleanup31

lpad18:                                           ; preds = %if.else.i.i152
  %23 = landingpad { ptr, i32 }
          cleanup
  br label %lpad18.body

lpad18.body:                                      ; preds = %lpad.i.i.i146, %lpad18
  %eh.lpad-body153 = phi { ptr, i32 } [ %23, %lpad18 ], [ %11, %lpad.i.i.i146 ]
  %bf.load.i.i219 = load i8, ptr %ref.tmp15, align 8
  %bf.clear.i.i220 = and i8 %bf.load.i.i219, 1
  %tobool.i.not.i221 = icmp eq i8 %bf.clear.i.i220, 0
  br i1 %tobool.i.not.i221, label %ehcleanup22, label %if.then.i223

if.then.i223:                                     ; preds = %lpad18.body
  %__data_.i.i222 = getelementptr inbounds %"struct.std::__1::basic_string<char>::__long", ptr %ref.tmp15, i64 0, i32 2
  %24 = load ptr, ptr %__data_.i.i222, align 8, !tbaa !42
  call void @_ZdlPv(ptr noundef %24) #30
  br label %ehcleanup22

ehcleanup22:                                      ; preds = %if.then.i223, %lpad18.body
  call void @llvm.lifetime.end.p0(i64 24, ptr nonnull %ref.tmp15) #29
  br label %ehcleanup31

lpad26:                                           ; preds = %if.else.i.i197
  %25 = landingpad { ptr, i32 }
          cleanup
  br label %lpad26.body

lpad26.body:                                      ; preds = %lpad.i.i.i191, %lpad26
  %eh.lpad-body198 = phi { ptr, i32 } [ %25, %lpad26 ], [ %16, %lpad.i.i.i191 ]
  %bf.load.i.i225 = load i8, ptr %ref.tmp23, align 8
  %bf.clear.i.i226 = and i8 %bf.load.i.i225, 1
  %tobool.i.not.i227 = icmp eq i8 %bf.clear.i.i226, 0
  br i1 %tobool.i.not.i227, label %ehcleanup30, label %if.then.i229

if.then.i229:                                     ; preds = %lpad26.body
  %__data_.i.i228 = getelementptr inbounds %"struct.std::__1::basic_string<char>::__long", ptr %ref.tmp23, i64 0, i32 2
  %26 = load ptr, ptr %__data_.i.i228, align 8, !tbaa !42
  call void @_ZdlPv(ptr noundef %26) #30
  br label %ehcleanup30

ehcleanup30:                                      ; preds = %if.then.i229, %lpad26.body
  call void @llvm.lifetime.end.p0(i64 24, ptr nonnull %ref.tmp23) #29
  br label %ehcleanup31

ehcleanup31:                                      ; preds = %ehcleanup30, %ehcleanup22, %ehcleanup14, %ehcleanup
  %.pn42.pn = phi { ptr, i32 } [ %eh.lpad-body198, %ehcleanup30 ], [ %eh.lpad-body153, %ehcleanup22 ], [ %eh.lpad-body108, %ehcleanup14 ], [ %19, %ehcleanup ]
  %27 = load ptr, ptr %thread_counts_, align 8, !tbaa !58
  %cmp.not.i.i = icmp eq ptr %27, null
  br i1 %cmp.not.i.i, label %_ZNSt3__16vectorIiNS_9allocatorIiEEED2B7v170000Ev.exit, label %if.then.i.i231

if.then.i.i231:                                   ; preds = %ehcleanup31
  %__end_.i.i.i.i = getelementptr inbounds %"class.benchmark::internal::Benchmark", ptr %this, i64 0, i32 17, i32 1
  store ptr %27, ptr %__end_.i.i.i.i, align 8, !tbaa !62
  call void @_ZdlPv(ptr noundef nonnull %27) #30
  br label %_ZNSt3__16vectorIiNS_9allocatorIiEEED2B7v170000Ev.exit

_ZNSt3__16vectorIiNS_9allocatorIiEEED2B7v170000Ev.exit: ; preds = %ehcleanup31, %if.then.i.i231
  call void @_ZNSt3__16vectorIN9benchmark8internal10StatisticsENS_9allocatorIS3_EEED2B7v170000Ev(ptr noundef nonnull align 8 dereferenceable(24) %statistics_) #29
  br label %ehcleanup33

ehcleanup33:                                      ; preds = %_ZNSt3__16vectorIiNS_9allocatorIiEEED2B7v170000Ev.exit, %lpad
  %.pn42.pn.pn = phi { ptr, i32 } [ %.pn42.pn, %_ZNSt3__16vectorIiNS_9allocatorIiEEED2B7v170000Ev.exit ], [ %18, %lpad ]
  call void @_ZNSt3__16vectorINS0_IlNS_9allocatorIlEEEENS1_IS3_EEED2B7v170000Ev(ptr noundef nonnull align 8 dereferenceable(24) %args_) #29
  call void @_ZNSt3__16vectorINS_12basic_stringIcNS_11char_traitsIcEENS_9allocatorIcEEEENS4_IS6_EEED2B7v170000Ev(ptr noundef nonnull align 8 dereferenceable(24) %arg_names_) #29
  %bf.load.i.i232 = load i8, ptr %name_, align 8
  %bf.clear.i.i233 = and i8 %bf.load.i.i232, 1
  %tobool.i.not.i234 = icmp eq i8 %bf.clear.i.i233, 0
  br i1 %tobool.i.not.i234, label %_ZNSt3__112basic_stringIcNS_11char_traitsIcEENS_9allocatorIcEEED2Ev.exit237, label %if.then.i236

if.then.i236:                                     ; preds = %ehcleanup33
  %__data_.i.i235 = getelementptr inbounds %"class.benchmark::internal::Benchmark", ptr %this, i64 0, i32 1, i32 0, i32 0, i32 0, i32 0, i32 0, i32 2
  %28 = load ptr, ptr %__data_.i.i235, align 8, !tbaa !42
  call void @_ZdlPv(ptr noundef %28) #30
  br label %_ZNSt3__112basic_stringIcNS_11char_traitsIcEENS_9allocatorIcEEED2Ev.exit237

_ZNSt3__112basic_stringIcNS_11char_traitsIcEENS_9allocatorIcEEED2Ev.exit237: ; preds = %ehcleanup33, %if.then.i236
  resume { ptr, i32 } %.pn42.pn.pn
}

declare noundef i32 @_ZN9benchmark18GetDefaultTimeUnitEv() local_unnamed_addr #0

; Function Attrs: uwtable
define hidden noundef nonnull ptr @_ZN9benchmark8internal9Benchmark17ComputeStatisticsERKNSt3__112basic_stringIcNS2_11char_traitsIcEENS2_9allocatorIcEEEEPFdRKNS2_6vectorIdNS6_IdEEEEENS_13StatisticUnitE(ptr noundef nonnull returned align 8 dereferenceable(208) %this, ptr noundef nonnull align 8 dereferenceable(24) %name, ptr noundef %statistics, i32 noundef %unit) local_unnamed_addr #4 align 2 personality ptr @__gxx_personality_v0 {
entry:
  %statistics.addr = alloca ptr, align 8
  %unit.addr = alloca i32, align 4
  store ptr %statistics, ptr %statistics.addr, align 8, !tbaa !14
  store i32 %unit, ptr %unit.addr, align 4, !tbaa !117
  %__end_.i = getelementptr inbounds %"class.benchmark::internal::Benchmark", ptr %this, i64 0, i32 16, i32 1
  %0 = load ptr, ptr %__end_.i, align 8, !tbaa !119
  %__end_cap_.i.i = getelementptr inbounds %"class.benchmark::internal::Benchmark", ptr %this, i64 0, i32 16, i32 2
  %1 = load ptr, ptr %__end_cap_.i.i, align 8, !tbaa !14
  %cmp.i = icmp ult ptr %0, %1
  br i1 %cmp.i, label %if.then.i, label %if.else.i

if.then.i:                                        ; preds = %entry
  invoke void @_ZNSt3__112basic_stringIcNS_11char_traitsIcEENS_9allocatorIcEEEC1ERKS5_(ptr noundef nonnull align 8 dereferenceable(24) %0, ptr noundef nonnull align 8 dereferenceable(24) %name)
          to label %_ZNSt3__16vectorIN9benchmark8internal10StatisticsENS_9allocatorIS3_EEE22__construct_one_at_endB7v170000IJRKNS_12basic_stringIcNS_11char_traitsIcEENS4_IcEEEERPFdRKNS0_IdNS4_IdEEEEERNS1_13StatisticUnitEEEEvDpOT_.exit.i unwind label %lpad.i.i

lpad.i.i:                                         ; preds = %if.then.i
  %2 = landingpad { ptr, i32 }
          cleanup
  store ptr %0, ptr %__end_.i, align 8, !tbaa !119
  resume { ptr, i32 } %2

_ZNSt3__16vectorIN9benchmark8internal10StatisticsENS_9allocatorIS3_EEE22__construct_one_at_endB7v170000IJRKNS_12basic_stringIcNS_11char_traitsIcEENS4_IcEEEERPFdRKNS0_IdNS4_IdEEEEERNS1_13StatisticUnitEEEEvDpOT_.exit.i: ; preds = %if.then.i
  %compute_.i.i.i.i.i = getelementptr inbounds %"struct.benchmark::internal::Statistics", ptr %0, i64 0, i32 1
  store ptr %statistics, ptr %compute_.i.i.i.i.i, align 8, !tbaa !120
  %unit_.i.i.i.i.i = getelementptr inbounds %"struct.benchmark::internal::Statistics", ptr %0, i64 0, i32 2
  store i32 %unit, ptr %unit_.i.i.i.i.i, align 8, !tbaa !122
  %incdec.ptr.i.i = getelementptr inbounds %"struct.benchmark::internal::Statistics", ptr %0, i64 1
  store ptr %incdec.ptr.i.i, ptr %__end_.i, align 8, !tbaa !119
  br label %_ZNSt3__16vectorIN9benchmark8internal10StatisticsENS_9allocatorIS3_EEE12emplace_backIJRKNS_12basic_stringIcNS_11char_traitsIcEENS4_IcEEEERPFdRKNS0_IdNS4_IdEEEEERNS1_13StatisticUnitEEEEvDpOT_.exit

if.else.i:                                        ; preds = %entry
  %statistics_ = getelementptr inbounds %"class.benchmark::internal::Benchmark", ptr %this, i64 0, i32 16
  call void @_ZNSt3__16vectorIN9benchmark8internal10StatisticsENS_9allocatorIS3_EEE24__emplace_back_slow_pathIJRKNS_12basic_stringIcNS_11char_traitsIcEENS4_IcEEEERPFdRKNS0_IdNS4_IdEEEEERNS1_13StatisticUnitEEEEvDpOT_(ptr noundef nonnull align 8 dereferenceable(24) %statistics_, ptr noundef nonnull align 8 dereferenceable(24) %name, ptr noundef nonnull align 8 dereferenceable(8) %statistics.addr, ptr noundef nonnull align 4 dereferenceable(4) %unit.addr)
  br label %_ZNSt3__16vectorIN9benchmark8internal10StatisticsENS_9allocatorIS3_EEE12emplace_backIJRKNS_12basic_stringIcNS_11char_traitsIcEENS4_IcEEEERPFdRKNS0_IdNS4_IdEEEEERNS1_13StatisticUnitEEEEvDpOT_.exit

_ZNSt3__16vectorIN9benchmark8internal10StatisticsENS_9allocatorIS3_EEE12emplace_backIJRKNS_12basic_stringIcNS_11char_traitsIcEENS4_IcEEEERPFdRKNS0_IdNS4_IdEEEEERNS1_13StatisticUnitEEEEvDpOT_.exit: ; preds = %_ZNSt3__16vectorIN9benchmark8internal10StatisticsENS_9allocatorIS3_EEE22__construct_one_at_endB7v170000IJRKNS_12basic_stringIcNS_11char_traitsIcEENS4_IcEEEERPFdRKNS0_IdNS4_IdEEEEERNS1_13StatisticUnitEEEEvDpOT_.exit.i, %if.else.i
  ret ptr %this
}

declare noundef double @_ZN9benchmark14StatisticsMeanERKNSt3__16vectorIdNS0_9allocatorIdEEEE(ptr noundef nonnull align 8 dereferenceable(24)) #0

declare noundef double @_ZN9benchmark16StatisticsMedianERKNSt3__16vectorIdNS0_9allocatorIdEEEE(ptr noundef nonnull align 8 dereferenceable(24)) #0

declare noundef double @_ZN9benchmark16StatisticsStdDevERKNSt3__16vectorIdNS0_9allocatorIdEEEE(ptr noundef nonnull align 8 dereferenceable(24)) #0

declare noundef double @_ZN9benchmark12StatisticsCVERKNSt3__16vectorIdNS0_9allocatorIdEEEE(ptr noundef nonnull align 8 dereferenceable(24)) #0

; Function Attrs: nounwind uwtable
define linkonce_odr hidden void @_ZNSt3__16vectorIN9benchmark8internal10StatisticsENS_9allocatorIS3_EEED2B7v170000Ev(ptr noundef nonnull align 8 dereferenceable(24) %this) unnamed_addr #6 comdat align 2 personality ptr @__gxx_personality_v0 {
entry:
  %0 = load ptr, ptr %this, align 8, !tbaa !123
  %cmp.not.i = icmp eq ptr %0, null
  br i1 %cmp.not.i, label %invoke.cont2, label %if.then.i

if.then.i:                                        ; preds = %entry
  %__end_.i.i.i = getelementptr inbounds %"class.std::__1::vector.25", ptr %this, i64 0, i32 1
  %1 = load ptr, ptr %__end_.i.i.i, align 8, !tbaa !119
  %cmp.not6.i.i.i = icmp eq ptr %1, %0
  br i1 %cmp.not6.i.i.i, label %_ZNSt3__16vectorIN9benchmark8internal10StatisticsENS_9allocatorIS3_EEE7__clearB7v170000Ev.exit.i, label %while.body.i.i.i

while.body.i.i.i:                                 ; preds = %if.then.i, %_ZNSt3__116allocator_traitsINS_9allocatorIN9benchmark8internal10StatisticsEEEE7destroyB7v170000IS4_vEEvRS5_PT_.exit.i.i.i
  %__soon_to_be_end.07.i.i.i = phi ptr [ %incdec.ptr.i.i.i, %_ZNSt3__116allocator_traitsINS_9allocatorIN9benchmark8internal10StatisticsEEEE7destroyB7v170000IS4_vEEvRS5_PT_.exit.i.i.i ], [ %1, %if.then.i ]
  %incdec.ptr.i.i.i = getelementptr inbounds %"struct.benchmark::internal::Statistics", ptr %__soon_to_be_end.07.i.i.i, i64 -1
  %bf.load.i.i.i.i.i.i.i.i = load i8, ptr %incdec.ptr.i.i.i, align 8
  %bf.clear.i.i.i.i.i.i.i.i = and i8 %bf.load.i.i.i.i.i.i.i.i, 1
  %tobool.i.not.i.i.i.i.i.i.i = icmp eq i8 %bf.clear.i.i.i.i.i.i.i.i, 0
  br i1 %tobool.i.not.i.i.i.i.i.i.i, label %_ZNSt3__116allocator_traitsINS_9allocatorIN9benchmark8internal10StatisticsEEEE7destroyB7v170000IS4_vEEvRS5_PT_.exit.i.i.i, label %if.then.i.i.i.i.i.i.i

if.then.i.i.i.i.i.i.i:                            ; preds = %while.body.i.i.i
  %__data_.i.i.i.i.i.i.i.i = getelementptr %"struct.benchmark::internal::Statistics", ptr %__soon_to_be_end.07.i.i.i, i64 -1, i32 0, i32 0, i32 0, i32 0, i32 0, i32 0, i32 2
  %2 = load ptr, ptr %__data_.i.i.i.i.i.i.i.i, align 8, !tbaa !42
  tail call void @_ZdlPv(ptr noundef %2) #30
  br label %_ZNSt3__116allocator_traitsINS_9allocatorIN9benchmark8internal10StatisticsEEEE7destroyB7v170000IS4_vEEvRS5_PT_.exit.i.i.i

_ZNSt3__116allocator_traitsINS_9allocatorIN9benchmark8internal10StatisticsEEEE7destroyB7v170000IS4_vEEvRS5_PT_.exit.i.i.i: ; preds = %if.then.i.i.i.i.i.i.i, %while.body.i.i.i
  %cmp.not.i.i.i = icmp eq ptr %incdec.ptr.i.i.i, %0
  br i1 %cmp.not.i.i.i, label %_ZNSt3__16vectorIN9benchmark8internal10StatisticsENS_9allocatorIS3_EEE7__clearB7v170000Ev.exit.loopexit.i, label %while.body.i.i.i

_ZNSt3__16vectorIN9benchmark8internal10StatisticsENS_9allocatorIS3_EEE7__clearB7v170000Ev.exit.loopexit.i: ; preds = %_ZNSt3__116allocator_traitsINS_9allocatorIN9benchmark8internal10StatisticsEEEE7destroyB7v170000IS4_vEEvRS5_PT_.exit.i.i.i
  %.pre10.i = load ptr, ptr %this, align 8, !tbaa !123
  br label %_ZNSt3__16vectorIN9benchmark8internal10StatisticsENS_9allocatorIS3_EEE7__clearB7v170000Ev.exit.i

_ZNSt3__16vectorIN9benchmark8internal10StatisticsENS_9allocatorIS3_EEE7__clearB7v170000Ev.exit.i: ; preds = %_ZNSt3__16vectorIN9benchmark8internal10StatisticsENS_9allocatorIS3_EEE7__clearB7v170000Ev.exit.loopexit.i, %if.then.i
  %3 = phi ptr [ %.pre10.i, %_ZNSt3__16vectorIN9benchmark8internal10StatisticsENS_9allocatorIS3_EEE7__clearB7v170000Ev.exit.loopexit.i ], [ %0, %if.then.i ]
  store ptr %0, ptr %__end_.i.i.i, align 8, !tbaa !119
  tail call void @_ZdlPv(ptr noundef %3) #30
  br label %invoke.cont2

invoke.cont2:                                     ; preds = %_ZNSt3__16vectorIN9benchmark8internal10StatisticsENS_9allocatorIS3_EEE7__clearB7v170000Ev.exit.i, %entry
  ret void
}

; Function Attrs: nounwind uwtable
define linkonce_odr hidden void @_ZNSt3__16vectorINS0_IlNS_9allocatorIlEEEENS1_IS3_EEED2B7v170000Ev(ptr noundef nonnull align 8 dereferenceable(24) %this) unnamed_addr #6 comdat align 2 personality ptr @__gxx_personality_v0 {
entry:
  %0 = load ptr, ptr %this, align 8, !tbaa !43
  %cmp.not.i = icmp eq ptr %0, null
  br i1 %cmp.not.i, label %invoke.cont2, label %if.then.i

if.then.i:                                        ; preds = %entry
  %__end_.i.i.i = getelementptr inbounds %"class.std::__1::vector.11", ptr %this, i64 0, i32 1
  %1 = load ptr, ptr %__end_.i.i.i, align 8, !tbaa !47
  %cmp.not6.i.i.i = icmp eq ptr %1, %0
  br i1 %cmp.not6.i.i.i, label %_ZNSt3__16vectorINS0_IlNS_9allocatorIlEEEENS1_IS3_EEE7__clearB7v170000Ev.exit.i, label %while.body.i.i.i

while.body.i.i.i:                                 ; preds = %if.then.i, %_ZNSt3__116allocator_traitsINS_9allocatorINS_6vectorIlNS1_IlEEEEEEE7destroyB7v170000IS4_vEEvRS5_PT_.exit.i.i.i
  %__soon_to_be_end.07.i.i.i = phi ptr [ %incdec.ptr.i.i.i, %_ZNSt3__116allocator_traitsINS_9allocatorINS_6vectorIlNS1_IlEEEEEEE7destroyB7v170000IS4_vEEvRS5_PT_.exit.i.i.i ], [ %1, %if.then.i ]
  %incdec.ptr.i.i.i = getelementptr inbounds %"class.std::__1::vector.12", ptr %__soon_to_be_end.07.i.i.i, i64 -1
  %2 = load ptr, ptr %incdec.ptr.i.i.i, align 8, !tbaa !57
  %cmp.not.i.i.i.i.i.i.i = icmp eq ptr %2, null
  br i1 %cmp.not.i.i.i.i.i.i.i, label %_ZNSt3__116allocator_traitsINS_9allocatorINS_6vectorIlNS1_IlEEEEEEE7destroyB7v170000IS4_vEEvRS5_PT_.exit.i.i.i, label %if.then.i.i.i.i.i.i.i

if.then.i.i.i.i.i.i.i:                            ; preds = %while.body.i.i.i
