; ModuleID = '/local/mnt2/workspace2/mnadeem/llvm/llvm-test-suite/MicroBenchmarks/libs/benchmark/src/json_reporter.cc'
source_filename = "/local/mnt2/workspace2/mnadeem/llvm/llvm-test-suite/MicroBenchmarks/libs/benchmark/src/json_reporter.cc"
target datalayout = "e-m:e-p270:32:32-p271:32:32-p272:64:64-i64:64-f80:128-n8:16:32:64-S128"
target triple = "x86_64-unknown-linux-gnu"

%"class.std::__1::locale::id" = type <{ %"struct.std::__1::once_flag", i32, [4 x i8] }>
%"struct.std::__1::once_flag" = type { i64 }
%"class.std::__1::basic_string" = type { %"class.std::__1::__compressed_pair" }
%"class.std::__1::__compressed_pair" = type { %"struct.std::__1::__compressed_pair_elem" }
%"struct.std::__1::__compressed_pair_elem" = type { %"struct.std::__1::basic_string<char>::__rep" }
%"struct.std::__1::basic_string<char>::__rep" = type { %union.anon }
%union.anon = type { %"struct.std::__1::basic_string<char>::__long" }
%"struct.std::__1::basic_string<char>::__long" = type { %struct.anon, i64, ptr }
%struct.anon = type { i64 }
%"class.benchmark::BenchmarkReporter" = type { ptr, ptr, ptr }
%"struct.std::__1::basic_string<char>::__short" = type { %struct.anon.0, [0 x i8], [23 x i8] }
%struct.anon.0 = type { i8 }
%"struct.benchmark::BenchmarkReporter::Context" = type { ptr, ptr, i64 }
%"struct.benchmark::CPUInfo" = type { i32, i32, double, %"class.std::__1::vector", %"class.std::__1::vector.8" }
%"class.std::__1::vector" = type { ptr, ptr, %"class.std::__1::__compressed_pair.2" }
%"class.std::__1::__compressed_pair.2" = type { %"struct.std::__1::__compressed_pair_elem.3" }
%"struct.std::__1::__compressed_pair_elem.3" = type { ptr }
%"class.std::__1::vector.8" = type { ptr, ptr, %"class.std::__1::__compressed_pair.9" }
%"class.std::__1::__compressed_pair.9" = type { %"struct.std::__1::__compressed_pair_elem.10" }
%"struct.std::__1::__compressed_pair_elem.10" = type { ptr }
%"struct.benchmark::CPUInfo::CacheInfo" = type <{ %"class.std::__1::basic_string", i32, i32, i32, [4 x i8] }>
%"class.std::__1::__tree" = type { ptr, %"class.std::__1::__compressed_pair.15", %"class.std::__1::__compressed_pair.21" }
%"class.std::__1::__compressed_pair.15" = type { %"struct.std::__1::__compressed_pair_elem.16" }
%"struct.std::__1::__compressed_pair_elem.16" = type { %"class.std::__1::__tree_end_node" }
%"class.std::__1::__tree_end_node" = type { ptr }
%"class.std::__1::__compressed_pair.21" = type { %"struct.std::__1::__compressed_pair_elem.22" }
%"struct.std::__1::__compressed_pair_elem.22" = type { i64 }
%"class.std::__1::__tree_node" = type { %"class.std::__1::__tree_node_base.base", %"struct.std::__1::__value_type" }
%"class.std::__1::__tree_node_base.base" = type <{ %"class.std::__1::__tree_end_node", ptr, ptr, i8 }>
%"struct.std::__1::__value_type" = type { %"struct.std::__1::pair" }
%"struct.std::__1::pair" = type { %"class.std::__1::basic_string", %"class.std::__1::basic_string" }
%"class.std::__1::__tree_node_base" = type <{ %"class.std::__1::__tree_end_node", ptr, ptr, i8, [7 x i8] }>
%"class.std::__1::basic_stringstream" = type { %"class.std::__1::basic_iostream.base", %"class.std::__1::basic_stringbuf", %"class.std::__1::basic_ios.base" }
%"class.std::__1::basic_iostream.base" = type { %"class.std::__1::basic_istream.base", %"class.std::__1::basic_ostream.base" }
%"class.std::__1::basic_istream.base" = type { ptr, i64 }
%"class.std::__1::basic_ostream.base" = type { ptr }
%"class.std::__1::basic_stringbuf" = type <{ %"class.std::__1::basic_streambuf", %"class.std::__1::basic_string", ptr, i32, [4 x i8] }>
%"class.std::__1::basic_streambuf" = type { ptr, %"class.std::__1::locale", ptr, ptr, ptr, ptr, ptr, ptr }
%"class.std::__1::locale" = type { ptr }
%"class.std::__1::basic_ios.base" = type <{ %"class.std::__1::ios_base", ptr, i32 }>
%"class.std::__1::ios_base" = type { ptr, i32, i64, i64, i32, i32, ptr, ptr, ptr, ptr, i64, i64, ptr, i64, i64, ptr, i64, i64 }
%"class.std::__1::basic_istream" = type { ptr, i64, %"class.std::__1::basic_ios.base" }
%"class.std::__1::vector.24" = type { ptr, ptr, %"class.std::__1::__compressed_pair.42" }
%"class.std::__1::__compressed_pair.42" = type { %"struct.std::__1::__compressed_pair_elem.43" }
%"struct.std::__1::__compressed_pair_elem.43" = type { ptr }
%"class.benchmark::JSONReporter" = type <{ %"class.benchmark::BenchmarkReporter", i8, [7 x i8] }>
%"struct.benchmark::BenchmarkReporter::Run" = type { %"struct.benchmark::BenchmarkName", i64, i64, i32, %"class.std::__1::basic_string", i32, %"class.std::__1::basic_string", i8, %"class.std::__1::basic_string", i64, i64, i64, i64, i32, double, double, double, i32, ptr, i64, ptr, i8, i8, %"class.std::__1::map.32", ptr, double }
%"struct.benchmark::BenchmarkName" = type { %"class.std::__1::basic_string", %"class.std::__1::basic_string", %"class.std::__1::basic_string", %"class.std::__1::basic_string", %"class.std::__1::basic_string", %"class.std::__1::basic_string", %"class.std::__1::basic_string" }
%"class.std::__1::map.32" = type { %"class.std::__1::__tree.33" }
%"class.std::__1::__tree.33" = type { ptr, %"class.std::__1::__compressed_pair.34", %"class.std::__1::__compressed_pair.39" }
%"class.std::__1::__compressed_pair.34" = type { %"struct.std::__1::__compressed_pair_elem.16" }
%"class.std::__1::__compressed_pair.39" = type { %"struct.std::__1::__compressed_pair_elem.22" }
%class.anon.51 = type { ptr, ptr }
%"class.std::__1::__tree_node.57" = type { %"class.std::__1::__tree_node_base.base", %"struct.std::__1::__value_type.56" }
%"struct.std::__1::__value_type.56" = type { %"struct.std::__1::pair.50" }
%"struct.std::__1::pair.50" = type { %"class.std::__1::basic_string", %"class.benchmark::Counter" }
%"class.benchmark::Counter" = type { double, i32, i32 }
%"class.std::__1::basic_ostream<char>::sentry" = type { i8, ptr }
%"class.std::__1::basic_ios" = type <{ %"class.std::__1::ios_base", ptr, i32, [4 x i8] }>

$_ZN9benchmark12JSONReporterD0Ev = comdat any

$__clang_call_terminate = comdat any

$_ZNSt3__118basic_stringstreamIcNS_11char_traitsIcEENS_9allocatorIcEEED1Ev = comdat any

$_ZNSt3__118basic_stringstreamIcNS_11char_traitsIcEENS_9allocatorIcEEED0Ev = comdat any

$_ZThn16_NSt3__118basic_stringstreamIcNS_11char_traitsIcEENS_9allocatorIcEEED1Ev = comdat any

$_ZThn16_NSt3__118basic_stringstreamIcNS_11char_traitsIcEENS_9allocatorIcEEED0Ev = comdat any

$_ZTv0_n24_NSt3__118basic_stringstreamIcNS_11char_traitsIcEENS_9allocatorIcEEED1Ev = comdat any

$_ZTv0_n24_NSt3__118basic_stringstreamIcNS_11char_traitsIcEENS_9allocatorIcEEED0Ev = comdat any

$_ZNSt3__115basic_stringbufIcNS_11char_traitsIcEENS_9allocatorIcEEED2Ev = comdat any

$_ZNSt3__115basic_stringbufIcNS_11char_traitsIcEENS_9allocatorIcEEED0Ev = comdat any

$_ZNSt3__115basic_stringbufIcNS_11char_traitsIcEENS_9allocatorIcEEE7seekoffExNS_8ios_base7seekdirEj = comdat any

$_ZNSt3__115basic_stringbufIcNS_11char_traitsIcEENS_9allocatorIcEEE7seekposENS_4fposI11__mbstate_tEEj = comdat any

$_ZNSt3__115basic_stringbufIcNS_11char_traitsIcEENS_9allocatorIcEEE9underflowEv = comdat any

$_ZNSt3__115basic_stringbufIcNS_11char_traitsIcEENS_9allocatorIcEEE9pbackfailEi = comdat any

$_ZNSt3__115basic_stringbufIcNS_11char_traitsIcEENS_9allocatorIcEEE8overflowEi = comdat any

$_ZNKSt3__115basic_stringbufIcNS_11char_traitsIcEENS_9allocatorIcEEE3strEv = comdat any

$_ZNKSt3__112basic_stringIcNS_11char_traitsIcEENS_9allocatorIcEEE20__throw_length_errorB7v170000Ev = comdat any

$_ZNSt3__120__throw_length_errorB7v170000EPKc = comdat any

$_ZNSt12length_errorC2B7v170000EPKc = comdat any

$_ZNSt3__124__put_character_sequenceB7v170000IcNS_11char_traitsIcEEEERNS_13basic_ostreamIT_T0_EES7_PKS4_m = comdat any

$_ZNSt3__116__pad_and_outputB7v170000IcNS_11char_traitsIcEEEENS_19ostreambuf_iteratorIT_T0_EES6_PKS4_S8_S8_RNS_8ios_baseES4_ = comdat any

$_ZTVNSt3__118basic_stringstreamIcNS_11char_traitsIcEENS_9allocatorIcEEEE = comdat any

$_ZTTNSt3__118basic_stringstreamIcNS_11char_traitsIcEENS_9allocatorIcEEEE = comdat any

$_ZTCNSt3__118basic_stringstreamIcNS_11char_traitsIcEENS_9allocatorIcEEEE0_NS_14basic_iostreamIcS2_EE = comdat any

$_ZTCNSt3__118basic_stringstreamIcNS_11char_traitsIcEENS_9allocatorIcEEEE0_NS_13basic_istreamIcS2_EE = comdat any

$_ZTCNSt3__118basic_stringstreamIcNS_11char_traitsIcEENS_9allocatorIcEEEE16_NS_13basic_ostreamIcS2_EE = comdat any

$_ZTSNSt3__118basic_stringstreamIcNS_11char_traitsIcEENS_9allocatorIcEEEE = comdat any

$_ZTINSt3__118basic_stringstreamIcNS_11char_traitsIcEENS_9allocatorIcEEEE = comdat any

$_ZTVNSt3__115basic_stringbufIcNS_11char_traitsIcEENS_9allocatorIcEEEE = comdat any

$_ZTSNSt3__115basic_stringbufIcNS_11char_traitsIcEENS_9allocatorIcEEEE = comdat any

$_ZTINSt3__115basic_stringbufIcNS_11char_traitsIcEENS_9allocatorIcEEEE = comdat any

@.str = private unnamed_addr constant [3 x i8] c"{\0A\00", align 1
@.str.1 = private unnamed_addr constant [14 x i8] c"\22context\22: {\0A\00", align 1
@.str.2 = private unnamed_addr constant [5 x i8] c"date\00", align 1
@.str.3 = private unnamed_addr constant [3 x i8] c",\0A\00", align 1
@.str.4 = private unnamed_addr constant [10 x i8] c"host_name\00", align 1
@_ZN9benchmark17BenchmarkReporter7Context15executable_nameE = external local_unnamed_addr global ptr, align 8
@.str.5 = private unnamed_addr constant [11 x i8] c"executable\00", align 1
@.str.6 = private unnamed_addr constant [9 x i8] c"num_cpus\00", align 1
@.str.7 = private unnamed_addr constant [12 x i8] c"mhz_per_cpu\00", align 1
@.str.8 = private unnamed_addr constant [20 x i8] c"cpu_scaling_enabled\00", align 1
@.str.9 = private unnamed_addr constant [13 x i8] c"\22caches\22: [\0A\00", align 1
@.str.10 = private unnamed_addr constant [5 x i8] c"type\00", align 1
@.str.11 = private unnamed_addr constant [6 x i8] c"level\00", align 1
@.str.12 = private unnamed_addr constant [5 x i8] c"size\00", align 1
@.str.13 = private unnamed_addr constant [12 x i8] c"num_sharing\00", align 1
@.str.14 = private unnamed_addr constant [2 x i8] c"\0A\00", align 1
@.str.15 = private unnamed_addr constant [2 x i8] c"}\00", align 1
@.str.16 = private unnamed_addr constant [2 x i8] c",\00", align 1
@.str.17 = private unnamed_addr constant [4 x i8] c"],\0A\00", align 1
@.str.18 = private unnamed_addr constant [14 x i8] c"\22load_avg\22: [\00", align 1
@.str.19 = private unnamed_addr constant [19 x i8] c"library_build_type\00", align 1
@_ZN9benchmark8internal14global_contextE = external local_unnamed_addr global ptr, align 8
@.str.20 = private unnamed_addr constant [4 x i8] c"},\0A\00", align 1
@.str.21 = private unnamed_addr constant [17 x i8] c"\22benchmarks\22: [\0A\00", align 1
@.str.22 = private unnamed_addr constant [8 x i8] c"\0A  ]\0A}\0A\00", align 1
@.str.23 = private unnamed_addr constant [5 x i8] c"name\00", align 1
@.str.24 = private unnamed_addr constant [13 x i8] c"family_index\00", align 1
@.str.25 = private unnamed_addr constant [26 x i8] c"per_family_instance_index\00", align 1
@.str.26 = private unnamed_addr constant [9 x i8] c"run_name\00", align 1
@.str.27 = private unnamed_addr constant [9 x i8] c"run_type\00", align 1
@.str.28 = private unnamed_addr constant [12 x i8] c"repetitions\00", align 1
@.str.29 = private unnamed_addr constant [17 x i8] c"repetition_index\00", align 1
@.str.30 = private unnamed_addr constant [8 x i8] c"threads\00", align 1
@.str.31 = private unnamed_addr constant [15 x i8] c"aggregate_name\00", align 1
@.str.32 = private unnamed_addr constant [15 x i8] c"aggregate_unit\00", align 1
@.str.33 = private unnamed_addr constant [15 x i8] c"error_occurred\00", align 1
@.str.34 = private unnamed_addr constant [14 x i8] c"error_message\00", align 1
@.str.35 = private unnamed_addr constant [11 x i8] c"iterations\00", align 1
@.str.36 = private unnamed_addr constant [10 x i8] c"real_time\00", align 1
@.str.37 = private unnamed_addr constant [9 x i8] c"cpu_time\00", align 1
@.str.38 = private unnamed_addr constant [10 x i8] c"time_unit\00", align 1
@.str.39 = private unnamed_addr constant [16 x i8] c"cpu_coefficient\00", align 1
@.str.40 = private unnamed_addr constant [17 x i8] c"real_coefficient\00", align 1
@.str.41 = private unnamed_addr constant [6 x i8] c"big_o\00", align 1
@.str.42 = private unnamed_addr constant [4 x i8] c"rms\00", align 1
@.str.43 = private unnamed_addr constant [16 x i8] c"allocs_per_iter\00", align 1
@.str.44 = private unnamed_addr constant [15 x i8] c"max_bytes_used\00", align 1
@.str.45 = private unnamed_addr constant [22 x i8] c"total_allocated_bytes\00", align 1
@.str.46 = private unnamed_addr constant [16 x i8] c"net_heap_growth\00", align 1
@.str.47 = private unnamed_addr constant [6 x i8] c"label\00", align 1
@_ZN9benchmark13MemoryManager14TombstoneValueE = hidden local_unnamed_addr constant i64 9223372036854775807, align 8
@_ZTVN9benchmark12JSONReporterE = hidden unnamed_addr constant { [7 x ptr] } { [7 x ptr] [ptr null, ptr @_ZTIN9benchmark12JSONReporterE, ptr @_ZN9benchmark12JSONReporter13ReportContextERKNS_17BenchmarkReporter7ContextE, ptr @_ZN9benchmark12JSONReporter10ReportRunsERKNSt3__16vectorINS_17BenchmarkReporter3RunENS1_9allocatorIS4_EEEE, ptr @_ZN9benchmark12JSONReporter8FinalizeEv, ptr @_ZN9benchmark17BenchmarkReporterD2Ev, ptr @_ZN9benchmark12JSONReporterD0Ev] }, align 8
@_ZTVN10__cxxabiv120__si_class_type_infoE = external global ptr
@_ZTSN9benchmark12JSONReporterE = hidden constant [27 x i8] c"N9benchmark12JSONReporterE\00", align 1
@_ZTIN9benchmark17BenchmarkReporterE = external constant ptr
@_ZTIN9benchmark12JSONReporterE = hidden constant { ptr, ptr, ptr } { ptr getelementptr inbounds (ptr, ptr @_ZTVN10__cxxabiv120__si_class_type_infoE, i64 2), ptr @_ZTSN9benchmark12JSONReporterE, ptr @_ZTIN9benchmark17BenchmarkReporterE }, align 8
@.str.48 = private unnamed_addr constant [11 x i8] c"\22%s\22: \22%s\22\00", align 1
@.str.49 = private unnamed_addr constant [3 x i8] c"\\b\00", align 1
@.str.50 = private unnamed_addr constant [3 x i8] c"\\f\00", align 1
@.str.51 = private unnamed_addr constant [3 x i8] c"\\n\00", align 1
@.str.52 = private unnamed_addr constant [3 x i8] c"\\r\00", align 1
@.str.53 = private unnamed_addr constant [3 x i8] c"\\t\00", align 1
@.str.54 = private unnamed_addr constant [3 x i8] c"\\\\\00", align 1
@.str.55 = private unnamed_addr constant [3 x i8] c"\\\22\00", align 1
@.str.56 = private unnamed_addr constant [4 x i8] c"\22: \00", align 1
@_ZTVNSt3__118basic_stringstreamIcNS_11char_traitsIcEENS_9allocatorIcEEEE = linkonce_odr dso_local unnamed_addr constant { [5 x ptr], [5 x ptr], [5 x ptr] } { [5 x ptr] [ptr inttoptr (i64 128 to ptr), ptr null, ptr @_ZTINSt3__118basic_stringstreamIcNS_11char_traitsIcEENS_9allocatorIcEEEE, ptr @_ZNSt3__118basic_stringstreamIcNS_11char_traitsIcEENS_9allocatorIcEEED1Ev, ptr @_ZNSt3__118basic_stringstreamIcNS_11char_traitsIcEENS_9allocatorIcEEED0Ev], [5 x ptr] [ptr inttoptr (i64 112 to ptr), ptr inttoptr (i64 -16 to ptr), ptr @_ZTINSt3__118basic_stringstreamIcNS_11char_traitsIcEENS_9allocatorIcEEEE, ptr @_ZThn16_NSt3__118basic_stringstreamIcNS_11char_traitsIcEENS_9allocatorIcEEED1Ev, ptr @_ZThn16_NSt3__118basic_stringstreamIcNS_11char_traitsIcEENS_9allocatorIcEEED0Ev], [5 x ptr] [ptr inttoptr (i64 -128 to ptr), ptr inttoptr (i64 -128 to ptr), ptr @_ZTINSt3__118basic_stringstreamIcNS_11char_traitsIcEENS_9allocatorIcEEEE, ptr @_ZTv0_n24_NSt3__118basic_stringstreamIcNS_11char_traitsIcEENS_9allocatorIcEEED1Ev, ptr @_ZTv0_n24_NSt3__118basic_stringstreamIcNS_11char_traitsIcEENS_9allocatorIcEEED0Ev] }, comdat, align 8
@_ZTTNSt3__118basic_stringstreamIcNS_11char_traitsIcEENS_9allocatorIcEEEE = linkonce_odr dso_local unnamed_addr constant [10 x ptr] [ptr getelementptr inbounds ({ [5 x ptr], [5 x ptr], [5 x ptr] }, ptr @_ZTVNSt3__118basic_stringstreamIcNS_11char_traitsIcEENS_9allocatorIcEEEE, i32 0, inrange i32 0, i32 3), ptr getelementptr inbounds ({ [5 x ptr], [5 x ptr], [5 x ptr] }, ptr @_ZTCNSt3__118basic_stringstreamIcNS_11char_traitsIcEENS_9allocatorIcEEEE0_NS_14basic_iostreamIcS2_EE, i32 0, inrange i32 0, i32 3), ptr getelementptr inbounds ({ [5 x ptr], [5 x ptr] }, ptr @_ZTCNSt3__118basic_stringstreamIcNS_11char_traitsIcEENS_9allocatorIcEEEE0_NS_13basic_istreamIcS2_EE, i32 0, inrange i32 0, i32 3), ptr getelementptr inbounds ({ [5 x ptr], [5 x ptr] }, ptr @_ZTCNSt3__118basic_stringstreamIcNS_11char_traitsIcEENS_9allocatorIcEEEE0_NS_13basic_istreamIcS2_EE, i32 0, inrange i32 1, i32 3), ptr getelementptr inbounds ({ [5 x ptr], [5 x ptr] }, ptr @_ZTCNSt3__118basic_stringstreamIcNS_11char_traitsIcEENS_9allocatorIcEEEE16_NS_13basic_ostreamIcS2_EE, i32 0, inrange i32 0, i32 3), ptr getelementptr inbounds ({ [5 x ptr], [5 x ptr] }, ptr @_ZTCNSt3__118basic_stringstreamIcNS_11char_traitsIcEENS_9allocatorIcEEEE16_NS_13basic_ostreamIcS2_EE, i32 0, inrange i32 1, i32 3), ptr getelementptr inbounds ({ [5 x ptr], [5 x ptr], [5 x ptr] }, ptr @_ZTCNSt3__118basic_stringstreamIcNS_11char_traitsIcEENS_9allocatorIcEEEE0_NS_14basic_iostreamIcS2_EE, i32 0, inrange i32 2, i32 3), ptr getelementptr inbounds ({ [5 x ptr], [5 x ptr], [5 x ptr] }, ptr @_ZTCNSt3__118basic_stringstreamIcNS_11char_traitsIcEENS_9allocatorIcEEEE0_NS_14basic_iostreamIcS2_EE, i32 0, inrange i32 1, i32 3), ptr getelementptr inbounds ({ [5 x ptr], [5 x ptr], [5 x ptr] }, ptr @_ZTVNSt3__118basic_stringstreamIcNS_11char_traitsIcEENS_9allocatorIcEEEE, i32 0, inrange i32 2, i32 3), ptr getelementptr inbounds ({ [5 x ptr], [5 x ptr], [5 x ptr] }, ptr @_ZTVNSt3__118basic_stringstreamIcNS_11char_traitsIcEENS_9allocatorIcEEEE, i32 0, inrange i32 1, i32 3)], comdat, align 8
@_ZTCNSt3__118basic_stringstreamIcNS_11char_traitsIcEENS_9allocatorIcEEEE0_NS_14basic_iostreamIcS2_EE = linkonce_odr dso_local unnamed_addr constant { [5 x ptr], [5 x ptr], [5 x ptr] } { [5 x ptr] [ptr inttoptr (i64 128 to ptr), ptr null, ptr @_ZTINSt3__114basic_iostreamIcNS_11char_traitsIcEEEE, ptr @_ZNSt3__114basic_iostreamIcNS_11char_traitsIcEEED1Ev, ptr @_ZNSt3__114basic_iostreamIcNS_11char_traitsIcEEED0Ev], [5 x ptr] [ptr inttoptr (i64 112 to ptr), ptr inttoptr (i64 -16 to ptr), ptr @_ZTINSt3__114basic_iostreamIcNS_11char_traitsIcEEEE, ptr @_ZThn16_NSt3__114basic_iostreamIcNS_11char_traitsIcEEED1Ev, ptr @_ZThn16_NSt3__114basic_iostreamIcNS_11char_traitsIcEEED0Ev], [5 x ptr] [ptr inttoptr (i64 -128 to ptr), ptr inttoptr (i64 -128 to ptr), ptr @_ZTINSt3__114basic_iostreamIcNS_11char_traitsIcEEEE, ptr @_ZTv0_n24_NSt3__114basic_iostreamIcNS_11char_traitsIcEEED1Ev, ptr @_ZTv0_n24_NSt3__114basic_iostreamIcNS_11char_traitsIcEEED0Ev] }, comdat, align 8
@_ZTINSt3__114basic_iostreamIcNS_11char_traitsIcEEEE = external constant ptr
@_ZTCNSt3__118basic_stringstreamIcNS_11char_traitsIcEENS_9allocatorIcEEEE0_NS_13basic_istreamIcS2_EE = linkonce_odr dso_local unnamed_addr constant { [5 x ptr], [5 x ptr] } { [5 x ptr] [ptr inttoptr (i64 128 to ptr), ptr null, ptr @_ZTINSt3__113basic_istreamIcNS_11char_traitsIcEEEE, ptr @_ZNSt3__113basic_istreamIcNS_11char_traitsIcEEED1Ev, ptr @_ZNSt3__113basic_istreamIcNS_11char_traitsIcEEED0Ev], [5 x ptr] [ptr inttoptr (i64 -128 to ptr), ptr inttoptr (i64 -128 to ptr), ptr @_ZTINSt3__113basic_istreamIcNS_11char_traitsIcEEEE, ptr @_ZTv0_n24_NSt3__113basic_istreamIcNS_11char_traitsIcEEED1Ev, ptr @_ZTv0_n24_NSt3__113basic_istreamIcNS_11char_traitsIcEEED0Ev] }, comdat, align 8
@_ZTINSt3__113basic_istreamIcNS_11char_traitsIcEEEE = external constant ptr
@_ZTCNSt3__118basic_stringstreamIcNS_11char_traitsIcEENS_9allocatorIcEEEE16_NS_13basic_ostreamIcS2_EE = linkonce_odr dso_local unnamed_addr constant { [5 x ptr], [5 x ptr] } { [5 x ptr] [ptr inttoptr (i64 112 to ptr), ptr null, ptr @_ZTINSt3__113basic_ostreamIcNS_11char_traitsIcEEEE, ptr @_ZNSt3__113basic_ostreamIcNS_11char_traitsIcEEED1Ev, ptr @_ZNSt3__113basic_ostreamIcNS_11char_traitsIcEEED0Ev], [5 x ptr] [ptr inttoptr (i64 -112 to ptr), ptr inttoptr (i64 -112 to ptr), ptr @_ZTINSt3__113basic_ostreamIcNS_11char_traitsIcEEEE, ptr @_ZTv0_n24_NSt3__113basic_ostreamIcNS_11char_traitsIcEEED1Ev, ptr @_ZTv0_n24_NSt3__113basic_ostreamIcNS_11char_traitsIcEEED0Ev] }, comdat, align 8
@_ZTINSt3__113basic_ostreamIcNS_11char_traitsIcEEEE = external constant ptr
@_ZTSNSt3__118basic_stringstreamIcNS_11char_traitsIcEENS_9allocatorIcEEEE = linkonce_odr dso_local constant [69 x i8] c"NSt3__118basic_stringstreamIcNS_11char_traitsIcEENS_9allocatorIcEEEE\00", comdat, align 1
@_ZTINSt3__118basic_stringstreamIcNS_11char_traitsIcEENS_9allocatorIcEEEE = linkonce_odr dso_local constant { ptr, ptr, ptr } { ptr getelementptr inbounds (ptr, ptr @_ZTVN10__cxxabiv120__si_class_type_infoE, i64 2), ptr @_ZTSNSt3__118basic_stringstreamIcNS_11char_traitsIcEENS_9allocatorIcEEEE, ptr @_ZTINSt3__114basic_iostreamIcNS_11char_traitsIcEEEE }, comdat, align 8
@_ZTVNSt3__115basic_stringbufIcNS_11char_traitsIcEENS_9allocatorIcEEEE = linkonce_odr dso_local unnamed_addr constant { [16 x ptr] } { [16 x ptr] [ptr null, ptr @_ZTINSt3__115basic_stringbufIcNS_11char_traitsIcEENS_9allocatorIcEEEE, ptr @_ZNSt3__115basic_stringbufIcNS_11char_traitsIcEENS_9allocatorIcEEED2Ev, ptr @_ZNSt3__115basic_stringbufIcNS_11char_traitsIcEENS_9allocatorIcEEED0Ev, ptr @_ZNSt3__115basic_streambufIcNS_11char_traitsIcEEE5imbueERKNS_6localeE, ptr @_ZNSt3__115basic_streambufIcNS_11char_traitsIcEEE6setbufEPcl, ptr @_ZNSt3__115basic_stringbufIcNS_11char_traitsIcEENS_9allocatorIcEEE7seekoffExNS_8ios_base7seekdirEj, ptr @_ZNSt3__115basic_stringbufIcNS_11char_traitsIcEENS_9allocatorIcEEE7seekposENS_4fposI11__mbstate_tEEj, ptr @_ZNSt3__115basic_streambufIcNS_11char_traitsIcEEE4syncEv, ptr @_ZNSt3__115basic_streambufIcNS_11char_traitsIcEEE9showmanycEv, ptr @_ZNSt3__115basic_streambufIcNS_11char_traitsIcEEE6xsgetnEPcl, ptr @_ZNSt3__115basic_stringbufIcNS_11char_traitsIcEENS_9allocatorIcEEE9underflowEv, ptr @_ZNSt3__115basic_streambufIcNS_11char_traitsIcEEE5uflowEv, ptr @_ZNSt3__115basic_stringbufIcNS_11char_traitsIcEENS_9allocatorIcEEE9pbackfailEi, ptr @_ZNSt3__115basic_streambufIcNS_11char_traitsIcEEE6xsputnEPKcl, ptr @_ZNSt3__115basic_stringbufIcNS_11char_traitsIcEENS_9allocatorIcEEE8overflowEi] }, comdat, align 8
@_ZTSNSt3__115basic_stringbufIcNS_11char_traitsIcEENS_9allocatorIcEEEE = linkonce_odr dso_local constant [66 x i8] c"NSt3__115basic_stringbufIcNS_11char_traitsIcEENS_9allocatorIcEEEE\00", comdat, align 1
@_ZTINSt3__115basic_streambufIcNS_11char_traitsIcEEEE = external constant ptr
@_ZTINSt3__115basic_stringbufIcNS_11char_traitsIcEENS_9allocatorIcEEEE = linkonce_odr dso_local constant { ptr, ptr, ptr } { ptr getelementptr inbounds (ptr, ptr @_ZTVN10__cxxabiv120__si_class_type_infoE, i64 2), ptr @_ZTSNSt3__115basic_stringbufIcNS_11char_traitsIcEENS_9allocatorIcEEEE, ptr @_ZTINSt3__115basic_streambufIcNS_11char_traitsIcEEEE }, comdat, align 8
@.str.57 = private unnamed_addr constant [13 x i8] c"basic_string\00", align 1
@_ZTISt12length_error = external constant ptr
@_ZTVSt12length_error = external unnamed_addr constant { [5 x ptr] }, align 8
@.str.58 = private unnamed_addr constant [9 x i8] c"\22%s\22: %s\00", align 1
@.str.59 = private unnamed_addr constant [5 x i8] c"true\00", align 1
@.str.60 = private unnamed_addr constant [6 x i8] c"false\00", align 1
@.str.61 = private unnamed_addr constant [10 x i8] c"iteration\00", align 1
@.str.62 = private unnamed_addr constant [10 x i8] c"aggregate\00", align 1
@.str.63 = private unnamed_addr constant [5 x i8] c"time\00", align 1
@.str.64 = private unnamed_addr constant [11 x i8] c"percentage\00", align 1
@.str.65 = private unnamed_addr constant [2 x i8] c"-\00", align 1
@.str.66 = private unnamed_addr constant [1 x i8] zeroinitializer, align 1
@.str.67 = private unnamed_addr constant [4 x i8] c"NaN\00", align 1
@.str.68 = private unnamed_addr constant [9 x i8] c"Infinity\00", align 1
@.str.69 = private unnamed_addr constant [2 x i8] c"s\00", align 1
@.str.70 = private unnamed_addr constant [3 x i8] c"ms\00", align 1
@.str.71 = private unnamed_addr constant [3 x i8] c"us\00", align 1
@.str.72 = private unnamed_addr constant [3 x i8] c"ns\00", align 1
@_ZNSt3__15ctypeIcE2idE = external global %"class.std::__1::locale::id", align 8
@llvm.global_ctors = appending global [1 x { i32, ptr, ptr }] [{ i32, ptr, ptr } { i32 65535, ptr @_GLOBAL__sub_I_json_reporter.cc, ptr null }]
@switch.table._ZN9benchmark12JSONReporter12PrintRunDataERKNS_17BenchmarkReporter3RunE.77 = private unnamed_addr constant [4 x ptr] [ptr @.str.72, ptr @.str.71, ptr @.str.70, ptr @.str.69], align 8

declare noundef i32 @_ZN9benchmark8internal17InitializeStreamsEv() local_unnamed_addr #0

; Function Attrs: uwtable
define hidden noundef zeroext i1 @_ZN9benchmark12JSONReporter13ReportContextERKNS_17BenchmarkReporter7ContextE(ptr nocapture noundef nonnull readonly align 8 dereferenceable(25) %this, ptr nocapture noundef nonnull readonly align 8 dereferenceable(24) %context) unnamed_addr #1 align 2 personality ptr @__gxx_personality_v0 {
entry:
  %ref.tmp.i = alloca %"class.std::__1::basic_string", align 8
  %inner_indent = alloca %"class.std::__1::basic_string", align 8
  %indent = alloca %"class.std::__1::basic_string", align 8
  %walltime_value = alloca %"class.std::__1::basic_string", align 8
  %ref.tmp = alloca %"class.std::__1::basic_string", align 8
  %ref.tmp13 = alloca %"class.std::__1::basic_string", align 8
  %ref.tmp27 = alloca %"class.std::__1::basic_string", align 8
  %ref.tmp28 = alloca %"class.std::__1::basic_string", align 8
  %ref.tmp44 = alloca %"class.std::__1::basic_string", align 8
  %ref.tmp45 = alloca %"class.std::__1::basic_string", align 8
  %ref.tmp62 = alloca %"class.std::__1::basic_string", align 8
  %ref.tmp63 = alloca %"class.std::__1::basic_string", align 8
  %ref.tmp79 = alloca %"class.std::__1::basic_string", align 8
  %ref.tmp80 = alloca %"class.std::__1::basic_string", align 8
  %ref.tmp99 = alloca %"class.std::__1::basic_string", align 8
  %ref.tmp100 = alloca %"class.std::__1::basic_string", align 8
  %cache_indent = alloca %"class.std::__1::basic_string", align 8
  %ref.tmp139 = alloca %"class.std::__1::basic_string", align 8
  %ref.tmp140 = alloca %"class.std::__1::basic_string", align 8
  %ref.tmp156 = alloca %"class.std::__1::basic_string", align 8
  %ref.tmp157 = alloca %"class.std::__1::basic_string", align 8
  %ref.tmp174 = alloca %"class.std::__1::basic_string", align 8
  %ref.tmp175 = alloca %"class.std::__1::basic_string", align 8
  %ref.tmp192 = alloca %"class.std::__1::basic_string", align 8
  %ref.tmp193 = alloca %"class.std::__1::basic_string", align 8
  %ref.tmp223.sroa.9 = alloca [3 x i8], align 2
  %ref.tmp223.sroa.10 = alloca [10 x i8], align 2
  %build_type = alloca [8 x i8], align 8
  %ref.tmp271 = alloca %"class.std::__1::basic_string", align 8
  %ref.tmp272 = alloca %"class.std::__1::basic_string", align 8
  %ref.tmp305 = alloca %"class.std::__1::basic_string", align 8
  %output_stream_.i = getelementptr inbounds %"class.benchmark::BenchmarkReporter", ptr %this, i64 0, i32 1
  %0 = load ptr, ptr %output_stream_.i, align 8, !tbaa !5
  %call1.i = tail call noundef nonnull align 8 dereferenceable(8) ptr @_ZNSt3__124__put_character_sequenceB7v170000IcNS_11char_traitsIcEEEERNS_13basic_ostreamIT_T0_EES7_PKS4_m(ptr noundef nonnull align 8 dereferenceable(8) %0, ptr noundef nonnull @.str, i64 noundef 2)
  call void @llvm.lifetime.start.p0(i64 24, ptr nonnull %inner_indent) #20
  store i8 4, ptr %inner_indent, align 8
  %__data_.i.i.i = getelementptr inbounds %"struct.std::__1::basic_string<char>::__short", ptr %inner_indent, i64 0, i32 2
  store i16 8224, ptr %__data_.i.i.i, align 1
  %arrayidx.i.i = getelementptr inbounds %"struct.std::__1::basic_string<char>::__short", ptr %inner_indent, i64 0, i32 2, i64 2
  store i8 0, ptr %arrayidx.i.i, align 1, !tbaa !10
  %__data_.i.i.i.i = getelementptr inbounds %"struct.std::__1::basic_string<char>::__long", ptr %inner_indent, i64 0, i32 2
  %__size_.i.i.i = getelementptr inbounds %"struct.std::__1::basic_string<char>::__long", ptr %inner_indent, i64 0, i32 1
  %call2.i438 = invoke noundef nonnull align 8 dereferenceable(8) ptr @_ZNSt3__124__put_character_sequenceB7v170000IcNS_11char_traitsIcEEEERNS_13basic_ostreamIT_T0_EES7_PKS4_m(ptr noundef nonnull align 8 dereferenceable(8) %0, ptr noundef nonnull %__data_.i.i.i, i64 noundef 2)
          to label %invoke.cont unwind label %lpad

invoke.cont:                                      ; preds = %entry
  %call1.i440441 = invoke noundef nonnull align 8 dereferenceable(8) ptr @_ZNSt3__124__put_character_sequenceB7v170000IcNS_11char_traitsIcEEEERNS_13basic_ostreamIT_T0_EES7_PKS4_m(ptr noundef nonnull align 8 dereferenceable(8) %call2.i438, ptr noundef nonnull @.str.1, i64 noundef 13)
          to label %invoke.cont7 unwind label %lpad

invoke.cont7:                                     ; preds = %invoke.cont
  call void @llvm.lifetime.start.p0(i64 24, ptr nonnull %indent) #20
  store i8 8, ptr %indent, align 8
  %__data_.i.i.i442 = getelementptr inbounds %"struct.std::__1::basic_string<char>::__short", ptr %indent, i64 0, i32 2
  store i32 538976288, ptr %__data_.i.i.i442, align 1
  %arrayidx.i.i443 = getelementptr inbounds %"struct.std::__1::basic_string<char>::__short", ptr %indent, i64 0, i32 2, i64 4
  store i8 0, ptr %arrayidx.i.i443, align 1, !tbaa !10
  call void @llvm.lifetime.start.p0(i64 24, ptr nonnull %walltime_value) #20
  invoke void @_ZN9benchmark19LocalDateTimeStringEv(ptr nonnull sret(%"class.std::__1::basic_string") align 8 %walltime_value)
          to label %invoke.cont9 unwind label %lpad8

invoke.cont9:                                     ; preds = %invoke.cont7
  %bf.load.i.i.i.i444 = load i8, ptr %indent, align 8
  %bf.clear.i.i.i.i445 = and i8 %bf.load.i.i.i.i444, 1
  %tobool.i.not.i.i.i446 = icmp eq i8 %bf.clear.i.i.i.i445, 0
  %__data_.i.i.i.i447 = getelementptr inbounds %"struct.std::__1::basic_string<char>::__long", ptr %indent, i64 0, i32 2
  %1 = load ptr, ptr %__data_.i.i.i.i447, align 8
  %cond.i.i.i449 = select i1 %tobool.i.not.i.i.i446, ptr %__data_.i.i.i442, ptr %1
  %__size_.i.i.i450 = getelementptr inbounds %"struct.std::__1::basic_string<char>::__long", ptr %indent, i64 0, i32 1
  %2 = load i64, ptr %__size_.i.i.i450, align 8
  %bf.lshr.i.i.i451 = lshr i8 %bf.load.i.i.i.i444, 1
  %conv.i.i.i452 = zext i8 %bf.lshr.i.i.i451 to i64
  %cond.i.i453 = select i1 %tobool.i.not.i.i.i446, i64 %conv.i.i.i452, i64 %2
  %call2.i454 = invoke noundef nonnull align 8 dereferenceable(8) ptr @_ZNSt3__124__put_character_sequenceB7v170000IcNS_11char_traitsIcEEEERNS_13basic_ostreamIT_T0_EES7_PKS4_m(ptr noundef nonnull align 8 dereferenceable(8) %0, ptr noundef %cond.i.i.i449, i64 noundef %cond.i.i453)
          to label %invoke.cont11 unwind label %lpad10

invoke.cont11:                                    ; preds = %invoke.cont9
  call void @llvm.lifetime.start.p0(i64 24, ptr nonnull %ref.tmp) #20
  call void @llvm.lifetime.start.p0(i64 24, ptr nonnull %ref.tmp13) #20
  store i8 8, ptr %ref.tmp13, align 8
  %__data_.i.i.i458 = getelementptr inbounds %"struct.std::__1::basic_string<char>::__short", ptr %ref.tmp13, i64 0, i32 2
  %cmp.i24.i.i = icmp ugt ptr %__data_.i.i.i458, @.str.2
  %add.ptr.i.i.i = getelementptr inbounds %"struct.std::__1::basic_string<char>::__short", ptr %ref.tmp13, i64 0, i32 2, i64 4
  %cmp1.i.i.i = icmp ule ptr %add.ptr.i.i.i, @.str.2
  %3 = or i1 %cmp.i24.i.i, %cmp1.i.i.i
  call void @llvm.assume(i1 %3)
  store i32 1702125924, ptr %__data_.i.i.i458, align 1
  store i8 0, ptr %add.ptr.i.i.i, align 1, !tbaa !10
  invoke fastcc void @_ZN9benchmark12_GLOBAL__N_18FormatKVERKNSt3__112basic_stringIcNS1_11char_traitsIcEENS1_9allocatorIcEEEES9_(ptr noalias nonnull align 8 %ref.tmp, ptr noundef nonnull align 8 dereferenceable(24) %ref.tmp13, ptr noundef nonnull align 8 dereferenceable(24) %walltime_value)
          to label %invoke.cont17 unwind label %lpad16

invoke.cont17:                                    ; preds = %invoke.cont11
  %bf.load.i.i.i.i461 = load i8, ptr %ref.tmp, align 8
  %bf.clear.i.i.i.i462 = and i8 %bf.load.i.i.i.i461, 1
  %tobool.i.not.i.i.i463 = icmp eq i8 %bf.clear.i.i.i.i462, 0
  %__data_.i.i.i.i464 = getelementptr inbounds %"struct.std::__1::basic_string<char>::__long", ptr %ref.tmp, i64 0, i32 2
  %4 = load ptr, ptr %__data_.i.i.i.i464, align 8
  %__data_.i4.i.i.i465 = getelementptr inbounds %"struct.std::__1::basic_string<char>::__short", ptr %ref.tmp, i64 0, i32 2
  %cond.i.i.i466 = select i1 %tobool.i.not.i.i.i463, ptr %__data_.i4.i.i.i465, ptr %4
  %__size_.i.i.i467 = getelementptr inbounds %"struct.std::__1::basic_string<char>::__long", ptr %ref.tmp, i64 0, i32 1
  %5 = load i64, ptr %__size_.i.i.i467, align 8
  %bf.lshr.i.i.i468 = lshr i8 %bf.load.i.i.i.i461, 1
  %conv.i.i.i469 = zext i8 %bf.lshr.i.i.i468 to i64
  %cond.i.i470 = select i1 %tobool.i.not.i.i.i463, i64 %conv.i.i.i469, i64 %5
  %call2.i471 = invoke noundef nonnull align 8 dereferenceable(8) ptr @_ZNSt3__124__put_character_sequenceB7v170000IcNS_11char_traitsIcEEEERNS_13basic_ostreamIT_T0_EES7_PKS4_m(ptr noundef nonnull align 8 dereferenceable(8) %call2.i454, ptr noundef %cond.i.i.i466, i64 noundef %cond.i.i470)
          to label %invoke.cont19 unwind label %lpad18

invoke.cont19:                                    ; preds = %invoke.cont17
  %call1.i474475 = invoke noundef nonnull align 8 dereferenceable(8) ptr @_ZNSt3__124__put_character_sequenceB7v170000IcNS_11char_traitsIcEEEERNS_13basic_ostreamIT_T0_EES7_PKS4_m(ptr noundef nonnull align 8 dereferenceable(8) %call2.i471, ptr noundef nonnull @.str.3, i64 noundef 2)
          to label %invoke.cont21 unwind label %lpad18

invoke.cont21:                                    ; preds = %invoke.cont19
  %bf.load.i.i = load i8, ptr %ref.tmp, align 8
  %bf.clear.i.i = and i8 %bf.load.i.i, 1
  %tobool.i.not.i = icmp eq i8 %bf.clear.i.i, 0
  br i1 %tobool.i.not.i, label %_ZNSt3__112basic_stringIcNS_11char_traitsIcEENS_9allocatorIcEEED2Ev.exit, label %if.then.i

if.then.i:                                        ; preds = %invoke.cont21
  %6 = load ptr, ptr %__data_.i.i.i.i464, align 8, !tbaa !10
  call void @_ZdlPv(ptr noundef %6) #21
  br label %_ZNSt3__112basic_stringIcNS_11char_traitsIcEENS_9allocatorIcEEED2Ev.exit

_ZNSt3__112basic_stringIcNS_11char_traitsIcEENS_9allocatorIcEEED2Ev.exit: ; preds = %invoke.cont21, %if.then.i
  %bf.load.i.i477 = load i8, ptr %ref.tmp13, align 8
  %bf.clear.i.i478 = and i8 %bf.load.i.i477, 1
  %tobool.i.not.i479 = icmp eq i8 %bf.clear.i.i478, 0
  br i1 %tobool.i.not.i479, label %_ZNSt3__112basic_stringIcNS_11char_traitsIcEENS_9allocatorIcEEED2Ev.exit482, label %if.then.i481

if.then.i481:                                     ; preds = %_ZNSt3__112basic_stringIcNS_11char_traitsIcEENS_9allocatorIcEEED2Ev.exit
  %__data_.i.i480 = getelementptr inbounds %"struct.std::__1::basic_string<char>::__long", ptr %ref.tmp13, i64 0, i32 2
  %7 = load ptr, ptr %__data_.i.i480, align 8, !tbaa !10
  call void @_ZdlPv(ptr noundef %7) #21
  br label %_ZNSt3__112basic_stringIcNS_11char_traitsIcEENS_9allocatorIcEEED2Ev.exit482

_ZNSt3__112basic_stringIcNS_11char_traitsIcEENS_9allocatorIcEEED2Ev.exit482: ; preds = %_ZNSt3__112basic_stringIcNS_11char_traitsIcEENS_9allocatorIcEEED2Ev.exit, %if.then.i481
  call void @llvm.lifetime.end.p0(i64 24, ptr nonnull %ref.tmp13) #20
  call void @llvm.lifetime.end.p0(i64 24, ptr nonnull %ref.tmp) #20
  %bf.load.i.i.i.i483 = load i8, ptr %indent, align 8
  %bf.clear.i.i.i.i484 = and i8 %bf.load.i.i.i.i483, 1
  %tobool.i.not.i.i.i485 = icmp eq i8 %bf.clear.i.i.i.i484, 0
  %8 = load ptr, ptr %__data_.i.i.i.i447, align 8
  %cond.i.i.i488 = select i1 %tobool.i.not.i.i.i485, ptr %__data_.i.i.i442, ptr %8
  %9 = load i64, ptr %__size_.i.i.i450, align 8
  %bf.lshr.i.i.i490 = lshr i8 %bf.load.i.i.i.i483, 1
  %conv.i.i.i491 = zext i8 %bf.lshr.i.i.i490 to i64
  %cond.i.i492 = select i1 %tobool.i.not.i.i.i485, i64 %conv.i.i.i491, i64 %9
  %call2.i493 = invoke noundef nonnull align 8 dereferenceable(8) ptr @_ZNSt3__124__put_character_sequenceB7v170000IcNS_11char_traitsIcEEEERNS_13basic_ostreamIT_T0_EES7_PKS4_m(ptr noundef nonnull align 8 dereferenceable(8) %0, ptr noundef %cond.i.i.i488, i64 noundef %cond.i.i492)
          to label %invoke.cont25 unwind label %lpad10

invoke.cont25:                                    ; preds = %_ZNSt3__112basic_stringIcNS_11char_traitsIcEENS_9allocatorIcEEED2Ev.exit482
  call void @llvm.lifetime.start.p0(i64 24, ptr nonnull %ref.tmp27) #20
  call void @llvm.lifetime.start.p0(i64 24, ptr nonnull %ref.tmp28) #20
  store i8 18, ptr %ref.tmp28, align 8
  %__data_.i.i.i502 = getelementptr inbounds %"struct.std::__1::basic_string<char>::__short", ptr %ref.tmp28, i64 0, i32 2
  %cmp.i24.i.i511 = icmp ugt ptr %__data_.i.i.i502, @.str.4
  %add.ptr.i.i.i512 = getelementptr inbounds %"struct.std::__1::basic_string<char>::__short", ptr %ref.tmp28, i64 0, i32 2, i64 9
  %cmp1.i.i.i513 = icmp ule ptr %add.ptr.i.i.i512, @.str.4
  %10 = or i1 %cmp.i24.i.i511, %cmp1.i.i.i513
  call void @llvm.assume(i1 %10)
  call void @llvm.memcpy.p0.p0.i64(ptr noundef nonnull align 1 dereferenceable(9) %__data_.i.i.i502, ptr noundef nonnull align 1 dereferenceable(9) @.str.4, i64 9, i1 false)
  store i8 0, ptr %add.ptr.i.i.i512, align 2, !tbaa !10
  %sys_info = getelementptr inbounds %"struct.benchmark::BenchmarkReporter::Context", ptr %context, i64 0, i32 1
  %11 = load ptr, ptr %sys_info, align 8, !tbaa !11
  invoke fastcc void @_ZN9benchmark12_GLOBAL__N_18FormatKVERKNSt3__112basic_stringIcNS1_11char_traitsIcEENS1_9allocatorIcEEEES9_(ptr noalias nonnull align 8 %ref.tmp27, ptr noundef nonnull align 8 dereferenceable(24) %ref.tmp28, ptr noundef nonnull align 8 dereferenceable(24) %11)
          to label %invoke.cont32 unwind label %lpad31

invoke.cont32:                                    ; preds = %invoke.cont25
  %bf.load.i.i.i.i518 = load i8, ptr %ref.tmp27, align 8
  %bf.clear.i.i.i.i519 = and i8 %bf.load.i.i.i.i518, 1
  %tobool.i.not.i.i.i520 = icmp eq i8 %bf.clear.i.i.i.i519, 0
  %__data_.i.i.i.i521 = getelementptr inbounds %"struct.std::__1::basic_string<char>::__long", ptr %ref.tmp27, i64 0, i32 2
  %12 = load ptr, ptr %__data_.i.i.i.i521, align 8
  %__data_.i4.i.i.i522 = getelementptr inbounds %"struct.std::__1::basic_string<char>::__short", ptr %ref.tmp27, i64 0, i32 2
  %cond.i.i.i523 = select i1 %tobool.i.not.i.i.i520, ptr %__data_.i4.i.i.i522, ptr %12
  %__size_.i.i.i524 = getelementptr inbounds %"struct.std::__1::basic_string<char>::__long", ptr %ref.tmp27, i64 0, i32 1
  %13 = load i64, ptr %__size_.i.i.i524, align 8
  %bf.lshr.i.i.i525 = lshr i8 %bf.load.i.i.i.i518, 1
  %conv.i.i.i526 = zext i8 %bf.lshr.i.i.i525 to i64
  %cond.i.i527 = select i1 %tobool.i.not.i.i.i520, i64 %conv.i.i.i526, i64 %13
  %call2.i528 = invoke noundef nonnull align 8 dereferenceable(8) ptr @_ZNSt3__124__put_character_sequenceB7v170000IcNS_11char_traitsIcEEEERNS_13basic_ostreamIT_T0_EES7_PKS4_m(ptr noundef nonnull align 8 dereferenceable(8) %call2.i493, ptr noundef %cond.i.i.i523, i64 noundef %cond.i.i527)
          to label %invoke.cont34 unwind label %lpad33

invoke.cont34:                                    ; preds = %invoke.cont32
  %call1.i531532 = invoke noundef nonnull align 8 dereferenceable(8) ptr @_ZNSt3__124__put_character_sequenceB7v170000IcNS_11char_traitsIcEEEERNS_13basic_ostreamIT_T0_EES7_PKS4_m(ptr noundef nonnull align 8 dereferenceable(8) %call2.i528, ptr noundef nonnull @.str.3, i64 noundef 2)
          to label %invoke.cont36 unwind label %lpad33

invoke.cont36:                                    ; preds = %invoke.cont34
  %bf.load.i.i534 = load i8, ptr %ref.tmp27, align 8
  %bf.clear.i.i535 = and i8 %bf.load.i.i534, 1
  %tobool.i.not.i536 = icmp eq i8 %bf.clear.i.i535, 0
  br i1 %tobool.i.not.i536, label %_ZNSt3__112basic_stringIcNS_11char_traitsIcEENS_9allocatorIcEEED2Ev.exit539, label %if.then.i538

if.then.i538:                                     ; preds = %invoke.cont36
  %14 = load ptr, ptr %__data_.i.i.i.i521, align 8, !tbaa !10
  call void @_ZdlPv(ptr noundef %14) #21
  br label %_ZNSt3__112basic_stringIcNS_11char_traitsIcEENS_9allocatorIcEEED2Ev.exit539

_ZNSt3__112basic_stringIcNS_11char_traitsIcEENS_9allocatorIcEEED2Ev.exit539: ; preds = %invoke.cont36, %if.then.i538
  %bf.load.i.i540 = load i8, ptr %ref.tmp28, align 8
  %bf.clear.i.i541 = and i8 %bf.load.i.i540, 1
  %tobool.i.not.i542 = icmp eq i8 %bf.clear.i.i541, 0
  br i1 %tobool.i.not.i542, label %_ZNSt3__112basic_stringIcNS_11char_traitsIcEENS_9allocatorIcEEED2Ev.exit545, label %if.then.i544

if.then.i544:                                     ; preds = %_ZNSt3__112basic_stringIcNS_11char_traitsIcEENS_9allocatorIcEEED2Ev.exit539
  %__data_.i.i543 = getelementptr inbounds %"struct.std::__1::basic_string<char>::__long", ptr %ref.tmp28, i64 0, i32 2
  %15 = load ptr, ptr %__data_.i.i543, align 8, !tbaa !10
  call void @_ZdlPv(ptr noundef %15) #21
  br label %_ZNSt3__112basic_stringIcNS_11char_traitsIcEENS_9allocatorIcEEED2Ev.exit545

_ZNSt3__112basic_stringIcNS_11char_traitsIcEENS_9allocatorIcEEED2Ev.exit545: ; preds = %_ZNSt3__112basic_stringIcNS_11char_traitsIcEENS_9allocatorIcEEED2Ev.exit539, %if.then.i544
  call void @llvm.lifetime.end.p0(i64 24, ptr nonnull %ref.tmp28) #20
  call void @llvm.lifetime.end.p0(i64 24, ptr nonnull %ref.tmp27) #20
  %16 = load ptr, ptr @_ZN9benchmark17BenchmarkReporter7Context15executable_nameE, align 8, !tbaa !14
  %tobool.not = icmp eq ptr %16, null
  br i1 %tobool.not, label %if.end, label %if.then

if.then:                                          ; preds = %_ZNSt3__112basic_stringIcNS_11char_traitsIcEENS_9allocatorIcEEED2Ev.exit545
  %bf.load.i.i.i.i546 = load i8, ptr %indent, align 8
  %bf.clear.i.i.i.i547 = and i8 %bf.load.i.i.i.i546, 1
  %tobool.i.not.i.i.i548 = icmp eq i8 %bf.clear.i.i.i.i547, 0
  %17 = load ptr, ptr %__data_.i.i.i.i447, align 8
  %cond.i.i.i551 = select i1 %tobool.i.not.i.i.i548, ptr %__data_.i.i.i442, ptr %17
  %18 = load i64, ptr %__size_.i.i.i450, align 8
  %bf.lshr.i.i.i553 = lshr i8 %bf.load.i.i.i.i546, 1
  %conv.i.i.i554 = zext i8 %bf.lshr.i.i.i553 to i64
  %cond.i.i555 = select i1 %tobool.i.not.i.i.i548, i64 %conv.i.i.i554, i64 %18
  %call2.i556 = invoke noundef nonnull align 8 dereferenceable(8) ptr @_ZNSt3__124__put_character_sequenceB7v170000IcNS_11char_traitsIcEEEERNS_13basic_ostreamIT_T0_EES7_PKS4_m(ptr noundef nonnull align 8 dereferenceable(8) %0, ptr noundef %cond.i.i.i551, i64 noundef %cond.i.i555)
          to label %invoke.cont42 unwind label %lpad10

invoke.cont42:                                    ; preds = %if.then
  call void @llvm.lifetime.start.p0(i64 24, ptr nonnull %ref.tmp44) #20
  call void @llvm.lifetime.start.p0(i64 24, ptr nonnull %ref.tmp45) #20
  store i8 20, ptr %ref.tmp45, align 8
  %__data_.i.i.i565 = getelementptr inbounds %"struct.std::__1::basic_string<char>::__short", ptr %ref.tmp45, i64 0, i32 2
  %cmp.i24.i.i574 = icmp ugt ptr %__data_.i.i.i565, @.str.5
  %add.ptr.i.i.i575 = getelementptr inbounds %"struct.std::__1::basic_string<char>::__short", ptr %ref.tmp45, i64 0, i32 2, i64 10
  %cmp1.i.i.i576 = icmp ule ptr %add.ptr.i.i.i575, @.str.5
  %19 = or i1 %cmp.i24.i.i574, %cmp1.i.i.i576
  call void @llvm.assume(i1 %19)
  call void @llvm.memcpy.p0.p0.i64(ptr noundef nonnull align 1 dereferenceable(10) %__data_.i.i.i565, ptr noundef nonnull align 1 dereferenceable(10) @.str.5, i64 10, i1 false)
  store i8 0, ptr %add.ptr.i.i.i575, align 1, !tbaa !10
  %20 = load ptr, ptr @_ZN9benchmark17BenchmarkReporter7Context15executable_nameE, align 8, !tbaa !14
  invoke fastcc void @_ZN9benchmark12_GLOBAL__N_18FormatKVERKNSt3__112basic_stringIcNS1_11char_traitsIcEENS1_9allocatorIcEEEEPKc(ptr noalias nonnull align 8 %ref.tmp44, ptr noundef nonnull align 8 dereferenceable(24) %ref.tmp45, ptr noundef %20)
          to label %invoke.cont49 unwind label %lpad48

invoke.cont49:                                    ; preds = %invoke.cont42
  %bf.load.i.i.i.i581 = load i8, ptr %ref.tmp44, align 8
  %bf.clear.i.i.i.i582 = and i8 %bf.load.i.i.i.i581, 1
  %tobool.i.not.i.i.i583 = icmp eq i8 %bf.clear.i.i.i.i582, 0
  %__data_.i.i.i.i584 = getelementptr inbounds %"struct.std::__1::basic_string<char>::__long", ptr %ref.tmp44, i64 0, i32 2
  %21 = load ptr, ptr %__data_.i.i.i.i584, align 8
  %__data_.i4.i.i.i585 = getelementptr inbounds %"struct.std::__1::basic_string<char>::__short", ptr %ref.tmp44, i64 0, i32 2
  %cond.i.i.i586 = select i1 %tobool.i.not.i.i.i583, ptr %__data_.i4.i.i.i585, ptr %21
  %__size_.i.i.i587 = getelementptr inbounds %"struct.std::__1::basic_string<char>::__long", ptr %ref.tmp44, i64 0, i32 1
  %22 = load i64, ptr %__size_.i.i.i587, align 8
  %bf.lshr.i.i.i588 = lshr i8 %bf.load.i.i.i.i581, 1
  %conv.i.i.i589 = zext i8 %bf.lshr.i.i.i588 to i64
  %cond.i.i590 = select i1 %tobool.i.not.i.i.i583, i64 %conv.i.i.i589, i64 %22
  %call2.i591 = invoke noundef nonnull align 8 dereferenceable(8) ptr @_ZNSt3__124__put_character_sequenceB7v170000IcNS_11char_traitsIcEEEERNS_13basic_ostreamIT_T0_EES7_PKS4_m(ptr noundef nonnull align 8 dereferenceable(8) %call2.i556, ptr noundef %cond.i.i.i586, i64 noundef %cond.i.i590)
          to label %invoke.cont51 unwind label %lpad50

invoke.cont51:                                    ; preds = %invoke.cont49
  %call1.i594595 = invoke noundef nonnull align 8 dereferenceable(8) ptr @_ZNSt3__124__put_character_sequenceB7v170000IcNS_11char_traitsIcEEEERNS_13basic_ostreamIT_T0_EES7_PKS4_m(ptr noundef nonnull align 8 dereferenceable(8) %call2.i591, ptr noundef nonnull @.str.3, i64 noundef 2)
          to label %invoke.cont53 unwind label %lpad50

invoke.cont53:                                    ; preds = %invoke.cont51
  %bf.load.i.i597 = load i8, ptr %ref.tmp44, align 8
  %bf.clear.i.i598 = and i8 %bf.load.i.i597, 1
  %tobool.i.not.i599 = icmp eq i8 %bf.clear.i.i598, 0
  br i1 %tobool.i.not.i599, label %_ZNSt3__112basic_stringIcNS_11char_traitsIcEENS_9allocatorIcEEED2Ev.exit602, label %if.then.i601

if.then.i601:                                     ; preds = %invoke.cont53
  %23 = load ptr, ptr %__data_.i.i.i.i584, align 8, !tbaa !10
  call void @_ZdlPv(ptr noundef %23) #21
  br label %_ZNSt3__112basic_stringIcNS_11char_traitsIcEENS_9allocatorIcEEED2Ev.exit602

_ZNSt3__112basic_stringIcNS_11char_traitsIcEENS_9allocatorIcEEED2Ev.exit602: ; preds = %invoke.cont53, %if.then.i601
  %bf.load.i.i603 = load i8, ptr %ref.tmp45, align 8
  %bf.clear.i.i604 = and i8 %bf.load.i.i603, 1
  %tobool.i.not.i605 = icmp eq i8 %bf.clear.i.i604, 0
  br i1 %tobool.i.not.i605, label %_ZNSt3__112basic_stringIcNS_11char_traitsIcEENS_9allocatorIcEEED2Ev.exit608, label %if.then.i607

if.then.i607:                                     ; preds = %_ZNSt3__112basic_stringIcNS_11char_traitsIcEENS_9allocatorIcEEED2Ev.exit602
  %__data_.i.i606 = getelementptr inbounds %"struct.std::__1::basic_string<char>::__long", ptr %ref.tmp45, i64 0, i32 2
  %24 = load ptr, ptr %__data_.i.i606, align 8, !tbaa !10
  call void @_ZdlPv(ptr noundef %24) #21
  br label %_ZNSt3__112basic_stringIcNS_11char_traitsIcEENS_9allocatorIcEEED2Ev.exit608

_ZNSt3__112basic_stringIcNS_11char_traitsIcEENS_9allocatorIcEEED2Ev.exit608: ; preds = %_ZNSt3__112basic_stringIcNS_11char_traitsIcEENS_9allocatorIcEEED2Ev.exit602, %if.then.i607
  call void @llvm.lifetime.end.p0(i64 24, ptr nonnull %ref.tmp45) #20
  call void @llvm.lifetime.end.p0(i64 24, ptr nonnull %ref.tmp44) #20
  br label %if.end

lpad:                                             ; preds = %invoke.cont, %entry
  %25 = landingpad { ptr, i32 }
          cleanup
  br label %ehcleanup340

lpad8:                                            ; preds = %invoke.cont7
  %26 = landingpad { ptr, i32 }
          cleanup
  br label %ehcleanup337

lpad10:                                           ; preds = %if.then, %_ZNSt3__112basic_stringIcNS_11char_traitsIcEENS_9allocatorIcEEED2Ev.exit482, %invoke.cont9
  %27 = landingpad { ptr, i32 }
          cleanup
  br label %ehcleanup336

lpad16:                                           ; preds = %invoke.cont11
  %28 = landingpad { ptr, i32 }
          cleanup
  br label %ehcleanup

lpad18:                                           ; preds = %invoke.cont19, %invoke.cont17
  %29 = landingpad { ptr, i32 }
          cleanup
  %bf.load.i.i609 = load i8, ptr %ref.tmp, align 8
  %bf.clear.i.i610 = and i8 %bf.load.i.i609, 1
  %tobool.i.not.i611 = icmp eq i8 %bf.clear.i.i610, 0
  br i1 %tobool.i.not.i611, label %ehcleanup, label %if.then.i613

if.then.i613:                                     ; preds = %lpad18
  %30 = load ptr, ptr %__data_.i.i.i.i464, align 8, !tbaa !10
  call void @_ZdlPv(ptr noundef %30) #21
  br label %ehcleanup

ehcleanup:                                        ; preds = %if.then.i613, %lpad18, %lpad16
  %.pn = phi { ptr, i32 } [ %28, %lpad16 ], [ %29, %lpad18 ], [ %29, %if.then.i613 ]
  %bf.load.i.i615 = load i8, ptr %ref.tmp13, align 8
  %bf.clear.i.i616 = and i8 %bf.load.i.i615, 1
  %tobool.i.not.i617 = icmp eq i8 %bf.clear.i.i616, 0
  br i1 %tobool.i.not.i617, label %ehcleanup23, label %if.then.i619

if.then.i619:                                     ; preds = %ehcleanup
  %__data_.i.i618 = getelementptr inbounds %"struct.std::__1::basic_string<char>::__long", ptr %ref.tmp13, i64 0, i32 2
  %31 = load ptr, ptr %__data_.i.i618, align 8, !tbaa !10
  call void @_ZdlPv(ptr noundef %31) #21
  br label %ehcleanup23

ehcleanup23:                                      ; preds = %if.then.i619, %ehcleanup
  call void @llvm.lifetime.end.p0(i64 24, ptr nonnull %ref.tmp13) #20
  call void @llvm.lifetime.end.p0(i64 24, ptr nonnull %ref.tmp) #20
  br label %ehcleanup336

lpad31:                                           ; preds = %invoke.cont25
  %32 = landingpad { ptr, i32 }
          cleanup
  br label %ehcleanup39

lpad33:                                           ; preds = %invoke.cont34, %invoke.cont32
  %33 = landingpad { ptr, i32 }
          cleanup
  %bf.load.i.i621 = load i8, ptr %ref.tmp27, align 8
  %bf.clear.i.i622 = and i8 %bf.load.i.i621, 1
  %tobool.i.not.i623 = icmp eq i8 %bf.clear.i.i622, 0
  br i1 %tobool.i.not.i623, label %ehcleanup39, label %if.then.i625

if.then.i625:                                     ; preds = %lpad33
  %34 = load ptr, ptr %__data_.i.i.i.i521, align 8, !tbaa !10
  call void @_ZdlPv(ptr noundef %34) #21
  br label %ehcleanup39

ehcleanup39:                                      ; preds = %if.then.i625, %lpad33, %lpad31
  %.pn391 = phi { ptr, i32 } [ %32, %lpad31 ], [ %33, %lpad33 ], [ %33, %if.then.i625 ]
  %bf.load.i.i627 = load i8, ptr %ref.tmp28, align 8
  %bf.clear.i.i628 = and i8 %bf.load.i.i627, 1
  %tobool.i.not.i629 = icmp eq i8 %bf.clear.i.i628, 0
  br i1 %tobool.i.not.i629, label %ehcleanup40, label %if.then.i631

if.then.i631:                                     ; preds = %ehcleanup39
  %__data_.i.i630 = getelementptr inbounds %"struct.std::__1::basic_string<char>::__long", ptr %ref.tmp28, i64 0, i32 2
  %35 = load ptr, ptr %__data_.i.i630, align 8, !tbaa !10
  call void @_ZdlPv(ptr noundef %35) #21
  br label %ehcleanup40

ehcleanup40:                                      ; preds = %if.then.i631, %ehcleanup39
  call void @llvm.lifetime.end.p0(i64 24, ptr nonnull %ref.tmp28) #20
  call void @llvm.lifetime.end.p0(i64 24, ptr nonnull %ref.tmp27) #20
  br label %ehcleanup336

lpad48:                                           ; preds = %invoke.cont42
  %36 = landingpad { ptr, i32 }
          cleanup
  br label %ehcleanup56

lpad50:                                           ; preds = %invoke.cont51, %invoke.cont49
  %37 = landingpad { ptr, i32 }
          cleanup
  %bf.load.i.i633 = load i8, ptr %ref.tmp44, align 8
  %bf.clear.i.i634 = and i8 %bf.load.i.i633, 1
  %tobool.i.not.i635 = icmp eq i8 %bf.clear.i.i634, 0
  br i1 %tobool.i.not.i635, label %ehcleanup56, label %if.then.i637

if.then.i637:                                     ; preds = %lpad50
  %38 = load ptr, ptr %__data_.i.i.i.i584, align 8, !tbaa !10
  call void @_ZdlPv(ptr noundef %38) #21
  br label %ehcleanup56

ehcleanup56:                                      ; preds = %if.then.i637, %lpad50, %lpad48
  %.pn431 = phi { ptr, i32 } [ %36, %lpad48 ], [ %37, %lpad50 ], [ %37, %if.then.i637 ]
  %bf.load.i.i639 = load i8, ptr %ref.tmp45, align 8
  %bf.clear.i.i640 = and i8 %bf.load.i.i639, 1
  %tobool.i.not.i641 = icmp eq i8 %bf.clear.i.i640, 0
  br i1 %tobool.i.not.i641, label %ehcleanup57, label %if.then.i643

if.then.i643:                                     ; preds = %ehcleanup56
  %__data_.i.i642 = getelementptr inbounds %"struct.std::__1::basic_string<char>::__long", ptr %ref.tmp45, i64 0, i32 2
  %39 = load ptr, ptr %__data_.i.i642, align 8, !tbaa !10
  call void @_ZdlPv(ptr noundef %39) #21
  br label %ehcleanup57

ehcleanup57:                                      ; preds = %if.then.i643, %ehcleanup56
  call void @llvm.lifetime.end.p0(i64 24, ptr nonnull %ref.tmp45) #20
  call void @llvm.lifetime.end.p0(i64 24, ptr nonnull %ref.tmp44) #20
  br label %ehcleanup336

if.end:                                           ; preds = %_ZNSt3__112basic_stringIcNS_11char_traitsIcEENS_9allocatorIcEEED2Ev.exit608, %_ZNSt3__112basic_stringIcNS_11char_traitsIcEENS_9allocatorIcEEED2Ev.exit545
  %40 = load ptr, ptr %context, align 8, !tbaa !15
  %bf.load.i.i.i.i645 = load i8, ptr %indent, align 8
  %bf.clear.i.i.i.i646 = and i8 %bf.load.i.i.i.i645, 1
  %tobool.i.not.i.i.i647 = icmp eq i8 %bf.clear.i.i.i.i646, 0
  %41 = load ptr, ptr %__data_.i.i.i.i447, align 8
  %cond.i.i.i650 = select i1 %tobool.i.not.i.i.i647, ptr %__data_.i.i.i442, ptr %41
  %42 = load i64, ptr %__size_.i.i.i450, align 8
  %bf.lshr.i.i.i652 = lshr i8 %bf.load.i.i.i.i645, 1
  %conv.i.i.i653 = zext i8 %bf.lshr.i.i.i652 to i64
  %cond.i.i654 = select i1 %tobool.i.not.i.i.i647, i64 %conv.i.i.i653, i64 %42
  %call2.i655 = invoke noundef nonnull align 8 dereferenceable(8) ptr @_ZNSt3__124__put_character_sequenceB7v170000IcNS_11char_traitsIcEEEERNS_13basic_ostreamIT_T0_EES7_PKS4_m(ptr noundef nonnull align 8 dereferenceable(8) %0, ptr noundef %cond.i.i.i650, i64 noundef %cond.i.i654)
          to label %invoke.cont60 unwind label %lpad59

invoke.cont60:                                    ; preds = %if.end
  call void @llvm.lifetime.start.p0(i64 24, ptr nonnull %ref.tmp62) #20
  call void @llvm.lifetime.start.p0(i64 24, ptr nonnull %ref.tmp63) #20
  store i8 16, ptr %ref.tmp63, align 8
  %__data_.i.i.i664 = getelementptr inbounds %"struct.std::__1::basic_string<char>::__short", ptr %ref.tmp63, i64 0, i32 2
  %cmp.i24.i.i673 = icmp ugt ptr %__data_.i.i.i664, @.str.6
  %add.ptr.i.i.i674 = getelementptr inbounds %"struct.std::__1::basic_string<char>::__short", ptr %ref.tmp63, i64 0, i32 2, i64 8
  %cmp1.i.i.i675 = icmp ule ptr %add.ptr.i.i.i674, @.str.6
  %43 = or i1 %cmp.i24.i.i673, %cmp1.i.i.i675
  call void @llvm.assume(i1 %43)
  store i64 8319679458741941614, ptr %__data_.i.i.i664, align 1
  store i8 0, ptr %add.ptr.i.i.i674, align 1, !tbaa !10
  %44 = load i32, ptr %40, align 8, !tbaa !16
  %conv = sext i32 %44 to i64
  invoke fastcc void @_ZN9benchmark12_GLOBAL__N_18FormatKVERKNSt3__112basic_stringIcNS1_11char_traitsIcEENS1_9allocatorIcEEEEl(ptr noalias nonnull align 8 %ref.tmp62, ptr noundef nonnull align 8 dereferenceable(24) %ref.tmp63, i64 noundef %conv)
          to label %invoke.cont67 unwind label %lpad66

invoke.cont67:                                    ; preds = %invoke.cont60
  %bf.load.i.i.i.i680 = load i8, ptr %ref.tmp62, align 8
  %bf.clear.i.i.i.i681 = and i8 %bf.load.i.i.i.i680, 1
  %tobool.i.not.i.i.i682 = icmp eq i8 %bf.clear.i.i.i.i681, 0
  %__data_.i.i.i.i683 = getelementptr inbounds %"struct.std::__1::basic_string<char>::__long", ptr %ref.tmp62, i64 0, i32 2
  %45 = load ptr, ptr %__data_.i.i.i.i683, align 8
  %__data_.i4.i.i.i684 = getelementptr inbounds %"struct.std::__1::basic_string<char>::__short", ptr %ref.tmp62, i64 0, i32 2
  %cond.i.i.i685 = select i1 %tobool.i.not.i.i.i682, ptr %__data_.i4.i.i.i684, ptr %45
  %__size_.i.i.i686 = getelementptr inbounds %"struct.std::__1::basic_string<char>::__long", ptr %ref.tmp62, i64 0, i32 1
  %46 = load i64, ptr %__size_.i.i.i686, align 8
  %bf.lshr.i.i.i687 = lshr i8 %bf.load.i.i.i.i680, 1
  %conv.i.i.i688 = zext i8 %bf.lshr.i.i.i687 to i64
  %cond.i.i689 = select i1 %tobool.i.not.i.i.i682, i64 %conv.i.i.i688, i64 %46
  %call2.i690 = invoke noundef nonnull align 8 dereferenceable(8) ptr @_ZNSt3__124__put_character_sequenceB7v170000IcNS_11char_traitsIcEEEERNS_13basic_ostreamIT_T0_EES7_PKS4_m(ptr noundef nonnull align 8 dereferenceable(8) %call2.i655, ptr noundef %cond.i.i.i685, i64 noundef %cond.i.i689)
          to label %invoke.cont69 unwind label %lpad68

invoke.cont69:                                    ; preds = %invoke.cont67
  %call1.i693694 = invoke noundef nonnull align 8 dereferenceable(8) ptr @_ZNSt3__124__put_character_sequenceB7v170000IcNS_11char_traitsIcEEEERNS_13basic_ostreamIT_T0_EES7_PKS4_m(ptr noundef nonnull align 8 dereferenceable(8) %call2.i690, ptr noundef nonnull @.str.3, i64 noundef 2)
          to label %invoke.cont71 unwind label %lpad68

invoke.cont71:                                    ; preds = %invoke.cont69
  %bf.load.i.i696 = load i8, ptr %ref.tmp62, align 8
  %bf.clear.i.i697 = and i8 %bf.load.i.i696, 1
  %tobool.i.not.i698 = icmp eq i8 %bf.clear.i.i697, 0
  br i1 %tobool.i.not.i698, label %_ZNSt3__112basic_stringIcNS_11char_traitsIcEENS_9allocatorIcEEED2Ev.exit701, label %if.then.i700

if.then.i700:                                     ; preds = %invoke.cont71
  %47 = load ptr, ptr %__data_.i.i.i.i683, align 8, !tbaa !10
  call void @_ZdlPv(ptr noundef %47) #21
  br label %_ZNSt3__112basic_stringIcNS_11char_traitsIcEENS_9allocatorIcEEED2Ev.exit701

_ZNSt3__112basic_stringIcNS_11char_traitsIcEENS_9allocatorIcEEED2Ev.exit701: ; preds = %invoke.cont71, %if.then.i700
  %bf.load.i.i702 = load i8, ptr %ref.tmp63, align 8
  %bf.clear.i.i703 = and i8 %bf.load.i.i702, 1
  %tobool.i.not.i704 = icmp eq i8 %bf.clear.i.i703, 0
  br i1 %tobool.i.not.i704, label %_ZNSt3__112basic_stringIcNS_11char_traitsIcEENS_9allocatorIcEEED2Ev.exit707, label %if.then.i706

if.then.i706:                                     ; preds = %_ZNSt3__112basic_stringIcNS_11char_traitsIcEENS_9allocatorIcEEED2Ev.exit701
  %__data_.i.i705 = getelementptr inbounds %"struct.std::__1::basic_string<char>::__long", ptr %ref.tmp63, i64 0, i32 2
  %48 = load ptr, ptr %__data_.i.i705, align 8, !tbaa !10
  call void @_ZdlPv(ptr noundef %48) #21
  br label %_ZNSt3__112basic_stringIcNS_11char_traitsIcEENS_9allocatorIcEEED2Ev.exit707

_ZNSt3__112basic_stringIcNS_11char_traitsIcEENS_9allocatorIcEEED2Ev.exit707: ; preds = %_ZNSt3__112basic_stringIcNS_11char_traitsIcEENS_9allocatorIcEEED2Ev.exit701, %if.then.i706
  call void @llvm.lifetime.end.p0(i64 24, ptr nonnull %ref.tmp63) #20
  call void @llvm.lifetime.end.p0(i64 24, ptr nonnull %ref.tmp62) #20
  %bf.load.i.i.i.i708 = load i8, ptr %indent, align 8
  %bf.clear.i.i.i.i709 = and i8 %bf.load.i.i.i.i708, 1
  %tobool.i.not.i.i.i710 = icmp eq i8 %bf.clear.i.i.i.i709, 0
  %49 = load ptr, ptr %__data_.i.i.i.i447, align 8
  %cond.i.i.i713 = select i1 %tobool.i.not.i.i.i710, ptr %__data_.i.i.i442, ptr %49
  %50 = load i64, ptr %__size_.i.i.i450, align 8
  %bf.lshr.i.i.i715 = lshr i8 %bf.load.i.i.i.i708, 1
  %conv.i.i.i716 = zext i8 %bf.lshr.i.i.i715 to i64
  %cond.i.i717 = select i1 %tobool.i.not.i.i.i710, i64 %conv.i.i.i716, i64 %50
  %call2.i718 = invoke noundef nonnull align 8 dereferenceable(8) ptr @_ZNSt3__124__put_character_sequenceB7v170000IcNS_11char_traitsIcEEEERNS_13basic_ostreamIT_T0_EES7_PKS4_m(ptr noundef nonnull align 8 dereferenceable(8) %0, ptr noundef %cond.i.i.i713, i64 noundef %cond.i.i717)
          to label %invoke.cont77 unwind label %lpad59

invoke.cont77:                                    ; preds = %_ZNSt3__112basic_stringIcNS_11char_traitsIcEENS_9allocatorIcEEED2Ev.exit707
  call void @llvm.lifetime.start.p0(i64 24, ptr nonnull %ref.tmp79) #20
  call void @llvm.lifetime.start.p0(i64 24, ptr nonnull %ref.tmp80) #20
  store i8 22, ptr %ref.tmp80, align 8
  %__data_.i.i.i727 = getelementptr inbounds %"struct.std::__1::basic_string<char>::__short", ptr %ref.tmp80, i64 0, i32 2
  %cmp.i24.i.i736 = icmp ugt ptr %__data_.i.i.i727, @.str.7
  %add.ptr.i.i.i737 = getelementptr inbounds %"struct.std::__1::basic_string<char>::__short", ptr %ref.tmp80, i64 0, i32 2, i64 11
  %cmp1.i.i.i738 = icmp ule ptr %add.ptr.i.i.i737, @.str.7
  %51 = or i1 %cmp.i24.i.i736, %cmp1.i.i.i738
  call void @llvm.assume(i1 %51)
  call void @llvm.memcpy.p0.p0.i64(ptr noundef nonnull align 1 dereferenceable(11) %__data_.i.i.i727, ptr noundef nonnull align 1 dereferenceable(11) @.str.7, i64 11, i1 false)
  store i8 0, ptr %add.ptr.i.i.i737, align 4, !tbaa !10
  %cycles_per_second = getelementptr inbounds %"struct.benchmark::CPUInfo", ptr %40, i64 0, i32 2
  %52 = load double, ptr %cycles_per_second, align 8, !tbaa !27
  %div = fdiv double %52, 1.000000e+06
  %call.i = call i64 @lround(double noundef %div) #20
  invoke fastcc void @_ZN9benchmark12_GLOBAL__N_18FormatKVERKNSt3__112basic_stringIcNS1_11char_traitsIcEENS1_9allocatorIcEEEEl(ptr noalias nonnull align 8 %ref.tmp79, ptr noundef nonnull align 8 dereferenceable(24) %ref.tmp80, i64 noundef %call.i)
          to label %invoke.cont86 unwind label %lpad83

invoke.cont86:                                    ; preds = %invoke.cont77
  %bf.load.i.i.i.i743 = load i8, ptr %ref.tmp79, align 8
  %bf.clear.i.i.i.i744 = and i8 %bf.load.i.i.i.i743, 1
  %tobool.i.not.i.i.i745 = icmp eq i8 %bf.clear.i.i.i.i744, 0
  %__data_.i.i.i.i746 = getelementptr inbounds %"struct.std::__1::basic_string<char>::__long", ptr %ref.tmp79, i64 0, i32 2
  %53 = load ptr, ptr %__data_.i.i.i.i746, align 8
  %__data_.i4.i.i.i747 = getelementptr inbounds %"struct.std::__1::basic_string<char>::__short", ptr %ref.tmp79, i64 0, i32 2
  %cond.i.i.i748 = select i1 %tobool.i.not.i.i.i745, ptr %__data_.i4.i.i.i747, ptr %53
  %__size_.i.i.i749 = getelementptr inbounds %"struct.std::__1::basic_string<char>::__long", ptr %ref.tmp79, i64 0, i32 1
  %54 = load i64, ptr %__size_.i.i.i749, align 8
  %bf.lshr.i.i.i750 = lshr i8 %bf.load.i.i.i.i743, 1
  %conv.i.i.i751 = zext i8 %bf.lshr.i.i.i750 to i64
  %cond.i.i752 = select i1 %tobool.i.not.i.i.i745, i64 %conv.i.i.i751, i64 %54
  %call2.i753 = invoke noundef nonnull align 8 dereferenceable(8) ptr @_ZNSt3__124__put_character_sequenceB7v170000IcNS_11char_traitsIcEEEERNS_13basic_ostreamIT_T0_EES7_PKS4_m(ptr noundef nonnull align 8 dereferenceable(8) %call2.i718, ptr noundef %cond.i.i.i748, i64 noundef %cond.i.i752)
          to label %invoke.cont88 unwind label %lpad87

invoke.cont88:                                    ; preds = %invoke.cont86
  %call1.i756757 = invoke noundef nonnull align 8 dereferenceable(8) ptr @_ZNSt3__124__put_character_sequenceB7v170000IcNS_11char_traitsIcEEEERNS_13basic_ostreamIT_T0_EES7_PKS4_m(ptr noundef nonnull align 8 dereferenceable(8) %call2.i753, ptr noundef nonnull @.str.3, i64 noundef 2)
          to label %invoke.cont90 unwind label %lpad87

invoke.cont90:                                    ; preds = %invoke.cont88
  %bf.load.i.i759 = load i8, ptr %ref.tmp79, align 8
  %bf.clear.i.i760 = and i8 %bf.load.i.i759, 1
  %tobool.i.not.i761 = icmp eq i8 %bf.clear.i.i760, 0
  br i1 %tobool.i.not.i761, label %_ZNSt3__112basic_stringIcNS_11char_traitsIcEENS_9allocatorIcEEED2Ev.exit764, label %if.then.i763

if.then.i763:                                     ; preds = %invoke.cont90
  %55 = load ptr, ptr %__data_.i.i.i.i746, align 8, !tbaa !10
  call void @_ZdlPv(ptr noundef %55) #21
  br label %_ZNSt3__112basic_stringIcNS_11char_traitsIcEENS_9allocatorIcEEED2Ev.exit764

_ZNSt3__112basic_stringIcNS_11char_traitsIcEENS_9allocatorIcEEED2Ev.exit764: ; preds = %invoke.cont90, %if.then.i763
  %bf.load.i.i765 = load i8, ptr %ref.tmp80, align 8
  %bf.clear.i.i766 = and i8 %bf.load.i.i765, 1
  %tobool.i.not.i767 = icmp eq i8 %bf.clear.i.i766, 0
  br i1 %tobool.i.not.i767, label %_ZNSt3__112basic_stringIcNS_11char_traitsIcEENS_9allocatorIcEEED2Ev.exit770, label %if.then.i769

if.then.i769:                                     ; preds = %_ZNSt3__112basic_stringIcNS_11char_traitsIcEENS_9allocatorIcEEED2Ev.exit764
  %__data_.i.i768 = getelementptr inbounds %"struct.std::__1::basic_string<char>::__long", ptr %ref.tmp80, i64 0, i32 2
  %56 = load ptr, ptr %__data_.i.i768, align 8, !tbaa !10
  call void @_ZdlPv(ptr noundef %56) #21
  br label %_ZNSt3__112basic_stringIcNS_11char_traitsIcEENS_9allocatorIcEEED2Ev.exit770

_ZNSt3__112basic_stringIcNS_11char_traitsIcEENS_9allocatorIcEEED2Ev.exit770: ; preds = %_ZNSt3__112basic_stringIcNS_11char_traitsIcEENS_9allocatorIcEEED2Ev.exit764, %if.then.i769
  call void @llvm.lifetime.end.p0(i64 24, ptr nonnull %ref.tmp80) #20
  call void @llvm.lifetime.end.p0(i64 24, ptr nonnull %ref.tmp79) #20
  %scaling = getelementptr inbounds %"struct.benchmark::CPUInfo", ptr %40, i64 0, i32 1
  %57 = load i32, ptr %scaling, align 4, !tbaa !28
  %cmp.not = icmp eq i32 %57, 0
  br i1 %cmp.not, label %if.end116, label %if.then96

if.then96:                                        ; preds = %_ZNSt3__112basic_stringIcNS_11char_traitsIcEENS_9allocatorIcEEED2Ev.exit770
  %bf.load.i.i.i.i771 = load i8, ptr %indent, align 8
  %bf.clear.i.i.i.i772 = and i8 %bf.load.i.i.i.i771, 1
  %tobool.i.not.i.i.i773 = icmp eq i8 %bf.clear.i.i.i.i772, 0
  %58 = load ptr, ptr %__data_.i.i.i.i447, align 8
  %cond.i.i.i776 = select i1 %tobool.i.not.i.i.i773, ptr %__data_.i.i.i442, ptr %58
  %59 = load i64, ptr %__size_.i.i.i450, align 8
  %bf.lshr.i.i.i778 = lshr i8 %bf.load.i.i.i.i771, 1
  %conv.i.i.i779 = zext i8 %bf.lshr.i.i.i778 to i64
  %cond.i.i780 = select i1 %tobool.i.not.i.i.i773, i64 %conv.i.i.i779, i64 %59
  %call2.i781 = invoke noundef nonnull align 8 dereferenceable(8) ptr @_ZNSt3__124__put_character_sequenceB7v170000IcNS_11char_traitsIcEEEERNS_13basic_ostreamIT_T0_EES7_PKS4_m(ptr noundef nonnull align 8 dereferenceable(8) %0, ptr noundef %cond.i.i.i776, i64 noundef %cond.i.i780)
          to label %invoke.cont97 unwind label %lpad59

invoke.cont97:                                    ; preds = %if.then96
  call void @llvm.lifetime.start.p0(i64 24, ptr nonnull %ref.tmp99) #20
  call void @llvm.lifetime.start.p0(i64 24, ptr nonnull %ref.tmp100) #20
  store i8 38, ptr %ref.tmp100, align 8
  %__data_.i.i.i790 = getelementptr inbounds %"struct.std::__1::basic_string<char>::__short", ptr %ref.tmp100, i64 0, i32 2
  %cmp.i24.i.i799 = icmp ugt ptr %__data_.i.i.i790, @.str.8
  %add.ptr.i.i.i800 = getelementptr inbounds %"struct.std::__1::basic_string<char>::__short", ptr %ref.tmp100, i64 0, i32 2, i64 19
  %cmp1.i.i.i801 = icmp ule ptr %add.ptr.i.i.i800, @.str.8
  %60 = or i1 %cmp.i24.i.i799, %cmp1.i.i.i801
  call void @llvm.assume(i1 %60)
  call void @llvm.memcpy.p0.p0.i64(ptr noundef nonnull align 1 dereferenceable(19) %__data_.i.i.i790, ptr noundef nonnull align 1 dereferenceable(19) @.str.8, i64 19, i1 false)
  store i8 0, ptr %add.ptr.i.i.i800, align 4, !tbaa !10
  %61 = load i32, ptr %scaling, align 4, !tbaa !28
  call void @llvm.lifetime.start.p0(i64 24, ptr nonnull %ref.tmp.i) #20, !noalias !29
  invoke fastcc void @_ZN9benchmark12_GLOBAL__N_19StrEscapeERKNSt3__112basic_stringIcNS1_11char_traitsIcEENS1_9allocatorIcEEEE(ptr noalias nonnull align 8 %ref.tmp.i, ptr noundef nonnull align 8 dereferenceable(24) %ref.tmp100)
          to label %.noexc807 unwind label %lpad105

.noexc807:                                        ; preds = %invoke.cont97
  %cmp104 = icmp eq i32 %61, 1
  %bf.load.i.i.i.i.i = load i8, ptr %ref.tmp.i, align 8, !noalias !29
  %bf.clear.i.i.i.i.i = and i8 %bf.load.i.i.i.i.i, 1
  %tobool.i.not.i.i.i.i = icmp eq i8 %bf.clear.i.i.i.i.i, 0
  %__data_.i.i.i.i.i = getelementptr inbounds %"struct.std::__1::basic_string<char>::__long", ptr %ref.tmp.i, i64 0, i32 2
  %62 = load ptr, ptr %__data_.i.i.i.i.i, align 8, !noalias !29
  %__data_.i4.i.i.i.i = getelementptr inbounds %"struct.std::__1::basic_string<char>::__short", ptr %ref.tmp.i, i64 0, i32 2
  %cond.i.i.i.i = select i1 %tobool.i.not.i.i.i.i, ptr %__data_.i4.i.i.i.i, ptr %62
  %cond.i = select i1 %cmp104, ptr @.str.59, ptr @.str.60
  invoke void (ptr, ptr, ...) @_ZN9benchmark9StrFormatEPKcz(ptr nonnull sret(%"class.std::__1::basic_string") align 8 %ref.tmp99, ptr noundef nonnull @.str.58, ptr noundef %cond.i.i.i.i, ptr noundef nonnull %cond.i)
          to label %invoke.cont.i unwind label %lpad.i

invoke.cont.i:                                    ; preds = %.noexc807
  %bf.load.i.i.i = load i8, ptr %ref.tmp.i, align 8, !noalias !29
  %bf.clear.i.i.i = and i8 %bf.load.i.i.i, 1
  %tobool.i.not.i.i = icmp eq i8 %bf.clear.i.i.i, 0
  br i1 %tobool.i.not.i.i, label %invoke.cont106, label %if.then.i.i806

if.then.i.i806:                                   ; preds = %invoke.cont.i
  %63 = load ptr, ptr %__data_.i.i.i.i.i, align 8, !tbaa !10, !noalias !29
  call void @_ZdlPv(ptr noundef %63) #21
  br label %invoke.cont106

lpad.i:                                           ; preds = %.noexc807
  %64 = landingpad { ptr, i32 }
          cleanup
  %bf.load.i.i2.i = load i8, ptr %ref.tmp.i, align 8, !noalias !29
  %bf.clear.i.i3.i = and i8 %bf.load.i.i2.i, 1
  %tobool.i.not.i4.i = icmp eq i8 %bf.clear.i.i3.i, 0
  br i1 %tobool.i.not.i4.i, label %_ZNSt3__112basic_stringIcNS_11char_traitsIcEENS_9allocatorIcEEED2Ev.exit7.i, label %if.then.i6.i

if.then.i6.i:                                     ; preds = %lpad.i
  %65 = load ptr, ptr %__data_.i.i.i.i.i, align 8, !tbaa !10, !noalias !29
  call void @_ZdlPv(ptr noundef %65) #21
  br label %_ZNSt3__112basic_stringIcNS_11char_traitsIcEENS_9allocatorIcEEED2Ev.exit7.i

_ZNSt3__112basic_stringIcNS_11char_traitsIcEENS_9allocatorIcEEED2Ev.exit7.i: ; preds = %if.then.i6.i, %lpad.i
  call void @llvm.lifetime.end.p0(i64 24, ptr nonnull %ref.tmp.i) #20, !noalias !29
  br label %ehcleanup113

invoke.cont106:                                   ; preds = %if.then.i.i806, %invoke.cont.i
  call void @llvm.lifetime.end.p0(i64 24, ptr nonnull %ref.tmp.i) #20, !noalias !29
  %bf.load.i.i.i.i808 = load i8, ptr %ref.tmp99, align 8
  %bf.clear.i.i.i.i809 = and i8 %bf.load.i.i.i.i808, 1
  %tobool.i.not.i.i.i810 = icmp eq i8 %bf.clear.i.i.i.i809, 0
  %__data_.i.i.i.i811 = getelementptr inbounds %"struct.std::__1::basic_string<char>::__long", ptr %ref.tmp99, i64 0, i32 2
  %66 = load ptr, ptr %__data_.i.i.i.i811, align 8
  %__data_.i4.i.i.i812 = getelementptr inbounds %"struct.std::__1::basic_string<char>::__short", ptr %ref.tmp99, i64 0, i32 2
  %cond.i.i.i813 = select i1 %tobool.i.not.i.i.i810, ptr %__data_.i4.i.i.i812, ptr %66
  %__size_.i.i.i814 = getelementptr inbounds %"struct.std::__1::basic_string<char>::__long", ptr %ref.tmp99, i64 0, i32 1
  %67 = load i64, ptr %__size_.i.i.i814, align 8
  %bf.lshr.i.i.i815 = lshr i8 %bf.load.i.i.i.i808, 1
  %conv.i.i.i816 = zext i8 %bf.lshr.i.i.i815 to i64
  %cond.i.i817 = select i1 %tobool.i.not.i.i.i810, i64 %conv.i.i.i816, i64 %67
  %call2.i818 = invoke noundef nonnull align 8 dereferenceable(8) ptr @_ZNSt3__124__put_character_sequenceB7v170000IcNS_11char_traitsIcEEEERNS_13basic_ostreamIT_T0_EES7_PKS4_m(ptr noundef nonnull align 8 dereferenceable(8) %call2.i781, ptr noundef %cond.i.i.i813, i64 noundef %cond.i.i817)
          to label %invoke.cont108 unwind label %lpad107

invoke.cont108:                                   ; preds = %invoke.cont106
  %call1.i821822 = invoke noundef nonnull align 8 dereferenceable(8) ptr @_ZNSt3__124__put_character_sequenceB7v170000IcNS_11char_traitsIcEEEERNS_13basic_ostreamIT_T0_EES7_PKS4_m(ptr noundef nonnull align 8 dereferenceable(8) %call2.i818, ptr noundef nonnull @.str.3, i64 noundef 2)
          to label %invoke.cont110 unwind label %lpad107

invoke.cont110:                                   ; preds = %invoke.cont108
  %bf.load.i.i824 = load i8, ptr %ref.tmp99, align 8
  %bf.clear.i.i825 = and i8 %bf.load.i.i824, 1
  %tobool.i.not.i826 = icmp eq i8 %bf.clear.i.i825, 0
  br i1 %tobool.i.not.i826, label %_ZNSt3__112basic_stringIcNS_11char_traitsIcEENS_9allocatorIcEEED2Ev.exit829, label %if.then.i828

if.then.i828:                                     ; preds = %invoke.cont110
  %68 = load ptr, ptr %__data_.i.i.i.i811, align 8, !tbaa !10
  call void @_ZdlPv(ptr noundef %68) #21
  br label %_ZNSt3__112basic_stringIcNS_11char_traitsIcEENS_9allocatorIcEEED2Ev.exit829

_ZNSt3__112basic_stringIcNS_11char_traitsIcEENS_9allocatorIcEEED2Ev.exit829: ; preds = %invoke.cont110, %if.then.i828
  %bf.load.i.i830 = load i8, ptr %ref.tmp100, align 8
  %bf.clear.i.i831 = and i8 %bf.load.i.i830, 1
  %tobool.i.not.i832 = icmp eq i8 %bf.clear.i.i831, 0
  br i1 %tobool.i.not.i832, label %_ZNSt3__112basic_stringIcNS_11char_traitsIcEENS_9allocatorIcEEED2Ev.exit835, label %if.then.i834

if.then.i834:                                     ; preds = %_ZNSt3__112basic_stringIcNS_11char_traitsIcEENS_9allocatorIcEEED2Ev.exit829
  %__data_.i.i833 = getelementptr inbounds %"struct.std::__1::basic_string<char>::__long", ptr %ref.tmp100, i64 0, i32 2
  %69 = load ptr, ptr %__data_.i.i833, align 8, !tbaa !10
  call void @_ZdlPv(ptr noundef %69) #21
  br label %_ZNSt3__112basic_stringIcNS_11char_traitsIcEENS_9allocatorIcEEED2Ev.exit835

_ZNSt3__112basic_stringIcNS_11char_traitsIcEENS_9allocatorIcEEED2Ev.exit835: ; preds = %_ZNSt3__112basic_stringIcNS_11char_traitsIcEENS_9allocatorIcEEED2Ev.exit829, %if.then.i834
  call void @llvm.lifetime.end.p0(i64 24, ptr nonnull %ref.tmp100) #20
  call void @llvm.lifetime.end.p0(i64 24, ptr nonnull %ref.tmp99) #20
  br label %if.end116

lpad59:                                           ; preds = %invoke.cont117, %if.end116, %if.then96, %_ZNSt3__112basic_stringIcNS_11char_traitsIcEENS_9allocatorIcEEED2Ev.exit707, %if.end
  %70 = landingpad { ptr, i32 }
          cleanup
  br label %ehcleanup336

lpad66:                                           ; preds = %invoke.cont60
  %71 = landingpad { ptr, i32 }
          cleanup
  br label %ehcleanup74

lpad68:                                           ; preds = %invoke.cont69, %invoke.cont67
  %72 = landingpad { ptr, i32 }
          cleanup
  %bf.load.i.i836 = load i8, ptr %ref.tmp62, align 8
  %bf.clear.i.i837 = and i8 %bf.load.i.i836, 1
  %tobool.i.not.i838 = icmp eq i8 %bf.clear.i.i837, 0
  br i1 %tobool.i.not.i838, label %ehcleanup74, label %if.then.i840

if.then.i840:                                     ; preds = %lpad68
  %73 = load ptr, ptr %__data_.i.i.i.i683, align 8, !tbaa !10
  call void @_ZdlPv(ptr noundef %73) #21
  br label %ehcleanup74

ehcleanup74:                                      ; preds = %if.then.i840, %lpad68, %lpad66
  %.pn394 = phi { ptr, i32 } [ %71, %lpad66 ], [ %72, %lpad68 ], [ %72, %if.then.i840 ]
  %bf.load.i.i842 = load i8, ptr %ref.tmp63, align 8
  %bf.clear.i.i843 = and i8 %bf.load.i.i842, 1
  %tobool.i.not.i844 = icmp eq i8 %bf.clear.i.i843, 0
  br i1 %tobool.i.not.i844, label %ehcleanup75, label %if.then.i846

if.then.i846:                                     ; preds = %ehcleanup74
  %__data_.i.i845 = getelementptr inbounds %"struct.std::__1::basic_string<char>::__long", ptr %ref.tmp63, i64 0, i32 2
  %74 = load ptr, ptr %__data_.i.i845, align 8, !tbaa !10
  call void @_ZdlPv(ptr noundef %74) #21
  br label %ehcleanup75

ehcleanup75:                                      ; preds = %if.then.i846, %ehcleanup74
  call void @llvm.lifetime.end.p0(i64 24, ptr nonnull %ref.tmp63) #20
  call void @llvm.lifetime.end.p0(i64 24, ptr nonnull %ref.tmp62) #20
  br label %ehcleanup336

lpad83:                                           ; preds = %invoke.cont77
  %75 = landingpad { ptr, i32 }
          cleanup
  br label %ehcleanup93

lpad87:                                           ; preds = %invoke.cont88, %invoke.cont86
  %76 = landingpad { ptr, i32 }
          cleanup
  %bf.load.i.i848 = load i8, ptr %ref.tmp79, align 8
  %bf.clear.i.i849 = and i8 %bf.load.i.i848, 1
  %tobool.i.not.i850 = icmp eq i8 %bf.clear.i.i849, 0
  br i1 %tobool.i.not.i850, label %ehcleanup93, label %if.then.i852

if.then.i852:                                     ; preds = %lpad87
  %77 = load ptr, ptr %__data_.i.i.i.i746, align 8, !tbaa !10
  call void @_ZdlPv(ptr noundef %77) #21
  br label %ehcleanup93

ehcleanup93:                                      ; preds = %if.then.i852, %lpad87, %lpad83
  %.pn397 = phi { ptr, i32 } [ %75, %lpad83 ], [ %76, %lpad87 ], [ %76, %if.then.i852 ]
  %bf.load.i.i854 = load i8, ptr %ref.tmp80, align 8
  %bf.clear.i.i855 = and i8 %bf.load.i.i854, 1
  %tobool.i.not.i856 = icmp eq i8 %bf.clear.i.i855, 0
  br i1 %tobool.i.not.i856, label %ehcleanup94, label %if.then.i858

if.then.i858:                                     ; preds = %ehcleanup93
  %__data_.i.i857 = getelementptr inbounds %"struct.std::__1::basic_string<char>::__long", ptr %ref.tmp80, i64 0, i32 2
  %78 = load ptr, ptr %__data_.i.i857, align 8, !tbaa !10
  call void @_ZdlPv(ptr noundef %78) #21
  br label %ehcleanup94

ehcleanup94:                                      ; preds = %if.then.i858, %ehcleanup93
  call void @llvm.lifetime.end.p0(i64 24, ptr nonnull %ref.tmp80) #20
  call void @llvm.lifetime.end.p0(i64 24, ptr nonnull %ref.tmp79) #20
  br label %ehcleanup336

lpad105:                                          ; preds = %invoke.cont97
  %79 = landingpad { ptr, i32 }
          cleanup
  br label %ehcleanup113

lpad107:                                          ; preds = %invoke.cont108, %invoke.cont106
  %80 = landingpad { ptr, i32 }
          cleanup
  %bf.load.i.i860 = load i8, ptr %ref.tmp99, align 8
  %bf.clear.i.i861 = and i8 %bf.load.i.i860, 1
  %tobool.i.not.i862 = icmp eq i8 %bf.clear.i.i861, 0
  br i1 %tobool.i.not.i862, label %ehcleanup113, label %if.then.i864

if.then.i864:                                     ; preds = %lpad107
  %81 = load ptr, ptr %__data_.i.i.i.i811, align 8, !tbaa !10
  call void @_ZdlPv(ptr noundef %81) #21
  br label %ehcleanup113

ehcleanup113:                                     ; preds = %if.then.i864, %lpad107, %lpad105, %_ZNSt3__112basic_stringIcNS_11char_traitsIcEENS_9allocatorIcEEED2Ev.exit7.i
  %.pn427 = phi { ptr, i32 } [ %79, %lpad105 ], [ %64, %_ZNSt3__112basic_stringIcNS_11char_traitsIcEENS_9allocatorIcEEED2Ev.exit7.i ], [ %80, %lpad107 ], [ %80, %if.then.i864 ]
  %bf.load.i.i866 = load i8, ptr %ref.tmp100, align 8
  %bf.clear.i.i867 = and i8 %bf.load.i.i866, 1
  %tobool.i.not.i868 = icmp eq i8 %bf.clear.i.i867, 0
  br i1 %tobool.i.not.i868, label %ehcleanup114, label %if.then.i870

if.then.i870:                                     ; preds = %ehcleanup113
  %__data_.i.i869 = getelementptr inbounds %"struct.std::__1::basic_string<char>::__long", ptr %ref.tmp100, i64 0, i32 2
  %82 = load ptr, ptr %__data_.i.i869, align 8, !tbaa !10
  call void @_ZdlPv(ptr noundef %82) #21
  br label %ehcleanup114

ehcleanup114:                                     ; preds = %if.then.i870, %ehcleanup113
  call void @llvm.lifetime.end.p0(i64 24, ptr nonnull %ref.tmp100) #20
  call void @llvm.lifetime.end.p0(i64 24, ptr nonnull %ref.tmp99) #20
  br label %ehcleanup336

if.end116:                                        ; preds = %_ZNSt3__112basic_stringIcNS_11char_traitsIcEENS_9allocatorIcEEED2Ev.exit835, %_ZNSt3__112basic_stringIcNS_11char_traitsIcEENS_9allocatorIcEEED2Ev.exit770
  %bf.load.i.i.i.i872 = load i8, ptr %indent, align 8
  %bf.clear.i.i.i.i873 = and i8 %bf.load.i.i.i.i872, 1
  %tobool.i.not.i.i.i874 = icmp eq i8 %bf.clear.i.i.i.i873, 0
  %83 = load ptr, ptr %__data_.i.i.i.i447, align 8
  %cond.i.i.i877 = select i1 %tobool.i.not.i.i.i874, ptr %__data_.i.i.i442, ptr %83
  %84 = load i64, ptr %__size_.i.i.i450, align 8
  %bf.lshr.i.i.i879 = lshr i8 %bf.load.i.i.i.i872, 1
  %conv.i.i.i880 = zext i8 %bf.lshr.i.i.i879 to i64
  %cond.i.i881 = select i1 %tobool.i.not.i.i.i874, i64 %conv.i.i.i880, i64 %84
  %call2.i882 = invoke noundef nonnull align 8 dereferenceable(8) ptr @_ZNSt3__124__put_character_sequenceB7v170000IcNS_11char_traitsIcEEEERNS_13basic_ostreamIT_T0_EES7_PKS4_m(ptr noundef nonnull align 8 dereferenceable(8) %0, ptr noundef %cond.i.i.i877, i64 noundef %cond.i.i881)
          to label %invoke.cont117 unwind label %lpad59

invoke.cont117:                                   ; preds = %if.end116
  %call1.i885886 = invoke noundef nonnull align 8 dereferenceable(8) ptr @_ZNSt3__124__put_character_sequenceB7v170000IcNS_11char_traitsIcEEEERNS_13basic_ostreamIT_T0_EES7_PKS4_m(ptr noundef nonnull align 8 dereferenceable(8) %call2.i882, ptr noundef nonnull @.str.9, i64 noundef 12)
          to label %invoke.cont123 unwind label %lpad59

invoke.cont123:                                   ; preds = %invoke.cont117
  %bf.load.i.i.i891 = load i8, ptr %indent, align 8
  %bf.clear.i.i.i892 = and i8 %bf.load.i.i.i891, 1
  %tobool.i.not.i.i893 = icmp eq i8 %bf.clear.i.i.i892, 0
  br i1 %tobool.i.not.i.i893, label %_ZNSt3__112basic_stringIcNS_11char_traitsIcEENS_9allocatorIcEEED2Ev.exit901, label %if.then.i.i895

if.then.i.i895:                                   ; preds = %invoke.cont123
  %85 = load ptr, ptr %__data_.i.i.i.i447, align 8, !tbaa !10
  call void @_ZdlPv(ptr noundef %85) #21
  br label %_ZNSt3__112basic_stringIcNS_11char_traitsIcEENS_9allocatorIcEEED2Ev.exit901

_ZNSt3__112basic_stringIcNS_11char_traitsIcEENS_9allocatorIcEEED2Ev.exit901: ; preds = %if.then.i.i895, %invoke.cont123
  store i8 12, ptr %indent, align 8, !tbaa.struct !32
  %ref.tmp121.sroa.9.0.indent.sroa_idx = getelementptr inbounds i8, ptr %indent, i64 2
  %ref.tmp121.sroa.91511.0.indent.sroa_idx = getelementptr inbounds i8, ptr %indent, i64 7
  call void @llvm.memset.p0.i64(ptr noundef nonnull align 1 dereferenceable(6) %__data_.i.i.i442, i8 32, i64 6, i1 false)
  store i8 0, ptr %ref.tmp121.sroa.91511.0.indent.sroa_idx, align 1, !tbaa.struct !34
  call void @llvm.lifetime.start.p0(i64 24, ptr nonnull %cache_indent) #20
  store i8 16, ptr %cache_indent, align 8
  %__data_.i.i.i903 = getelementptr inbounds %"struct.std::__1::basic_string<char>::__short", ptr %cache_indent, i64 0, i32 2
  store i64 2314885530818453536, ptr %__data_.i.i.i903, align 1
  %arrayidx.i.i904 = getelementptr inbounds %"struct.std::__1::basic_string<char>::__short", ptr %cache_indent, i64 0, i32 2, i64 8
  store i8 0, ptr %arrayidx.i.i904, align 1, !tbaa !10
  %caches = getelementptr inbounds %"struct.benchmark::CPUInfo", ptr %40, i64 0, i32 3
  %__end_.i = getelementptr inbounds %"struct.benchmark::CPUInfo", ptr %40, i64 0, i32 3, i32 1
  %86 = load ptr, ptr %__end_.i, align 8, !tbaa !35
  %87 = load ptr, ptr %caches, align 8, !tbaa !36
  %cmp1291530.not = icmp eq ptr %86, %87
  br i1 %cmp1291530.not, label %invoke.cont225.thread, label %for.body.lr.ph

invoke.cont225.thread:                            ; preds = %_ZNSt3__112basic_stringIcNS_11char_traitsIcEENS_9allocatorIcEEED2Ev.exit901
  call void @llvm.lifetime.start.p0(i64 3, ptr nonnull %ref.tmp223.sroa.9)
  call void @llvm.lifetime.start.p0(i64 10, ptr nonnull %ref.tmp223.sroa.10)
  call void @llvm.memset.p0.i64(ptr noundef nonnull align 2 dereferenceable(3) %ref.tmp223.sroa.9, i8 32, i64 3, i1 false), !tbaa !10
  br label %_ZNSt3__112basic_stringIcNS_11char_traitsIcEENS_9allocatorIcEEED2Ev.exit1265

for.body.lr.ph:                                   ; preds = %_ZNSt3__112basic_stringIcNS_11char_traitsIcEENS_9allocatorIcEEED2Ev.exit901
  %__data_.i.i.i.i927 = getelementptr inbounds %"struct.std::__1::basic_string<char>::__long", ptr %cache_indent, i64 0, i32 2
  %__size_.i.i.i930 = getelementptr inbounds %"struct.std::__1::basic_string<char>::__long", ptr %cache_indent, i64 0, i32 1
  %__data_.i.i.i943 = getelementptr inbounds %"struct.std::__1::basic_string<char>::__short", ptr %ref.tmp140, i64 0, i32 2
  %cmp.i24.i.i952 = icmp ugt ptr %__data_.i.i.i943, @.str.10
  %add.ptr.i.i.i953 = getelementptr inbounds %"struct.std::__1::basic_string<char>::__short", ptr %ref.tmp140, i64 0, i32 2, i64 4
  %cmp1.i.i.i954 = icmp ule ptr %add.ptr.i.i.i953, @.str.10
  %88 = or i1 %cmp.i24.i.i952, %cmp1.i.i.i954
  %__data_.i.i.i.i962 = getelementptr inbounds %"struct.std::__1::basic_string<char>::__long", ptr %ref.tmp139, i64 0, i32 2
  %__data_.i4.i.i.i963 = getelementptr inbounds %"struct.std::__1::basic_string<char>::__short", ptr %ref.tmp139, i64 0, i32 2
  %__size_.i.i.i965 = getelementptr inbounds %"struct.std::__1::basic_string<char>::__long", ptr %ref.tmp139, i64 0, i32 1
  %__data_.i.i984 = getelementptr inbounds %"struct.std::__1::basic_string<char>::__long", ptr %ref.tmp140, i64 0, i32 2
  %__data_.i.i.i1006 = getelementptr inbounds %"struct.std::__1::basic_string<char>::__short", ptr %ref.tmp157, i64 0, i32 2
  %cmp.i24.i.i1015 = icmp ugt ptr %__data_.i.i.i1006, @.str.11
  %add.ptr.i.i.i1016 = getelementptr inbounds %"struct.std::__1::basic_string<char>::__short", ptr %ref.tmp157, i64 0, i32 2, i64 5
  %cmp1.i.i.i1017 = icmp ule ptr %add.ptr.i.i.i1016, @.str.11
  %89 = or i1 %cmp.i24.i.i1015, %cmp1.i.i.i1017
  %__data_.i.i.i.i1025 = getelementptr inbounds %"struct.std::__1::basic_string<char>::__long", ptr %ref.tmp156, i64 0, i32 2
  %__data_.i4.i.i.i1026 = getelementptr inbounds %"struct.std::__1::basic_string<char>::__short", ptr %ref.tmp156, i64 0, i32 2
  %__size_.i.i.i1028 = getelementptr inbounds %"struct.std::__1::basic_string<char>::__long", ptr %ref.tmp156, i64 0, i32 1
  %__data_.i.i1047 = getelementptr inbounds %"struct.std::__1::basic_string<char>::__long", ptr %ref.tmp157, i64 0, i32 2
  %__data_.i.i.i1069 = getelementptr inbounds %"struct.std::__1::basic_string<char>::__short", ptr %ref.tmp175, i64 0, i32 2
  %cmp.i24.i.i1078 = icmp ugt ptr %__data_.i.i.i1069, @.str.12
  %add.ptr.i.i.i1079 = getelementptr inbounds %"struct.std::__1::basic_string<char>::__short", ptr %ref.tmp175, i64 0, i32 2, i64 4
  %cmp1.i.i.i1080 = icmp ule ptr %add.ptr.i.i.i1079, @.str.12
  %90 = or i1 %cmp.i24.i.i1078, %cmp1.i.i.i1080
  %__data_.i.i.i.i1088 = getelementptr inbounds %"struct.std::__1::basic_string<char>::__long", ptr %ref.tmp174, i64 0, i32 2
  %__data_.i4.i.i.i1089 = getelementptr inbounds %"struct.std::__1::basic_string<char>::__short", ptr %ref.tmp174, i64 0, i32 2
  %__size_.i.i.i1091 = getelementptr inbounds %"struct.std::__1::basic_string<char>::__long", ptr %ref.tmp174, i64 0, i32 1
  %__data_.i.i1110 = getelementptr inbounds %"struct.std::__1::basic_string<char>::__long", ptr %ref.tmp175, i64 0, i32 2
  %__data_.i.i.i1132 = getelementptr inbounds %"struct.std::__1::basic_string<char>::__short", ptr %ref.tmp193, i64 0, i32 2
  %cmp.i24.i.i1141 = icmp ugt ptr %__data_.i.i.i1132, @.str.13
  %add.ptr.i.i.i1142 = getelementptr inbounds %"struct.std::__1::basic_string<char>::__short", ptr %ref.tmp193, i64 0, i32 2, i64 11
  %cmp1.i.i.i1143 = icmp ule ptr %add.ptr.i.i.i1142, @.str.13
  %91 = or i1 %cmp.i24.i.i1141, %cmp1.i.i.i1143
  %__data_.i.i.i.i1151 = getelementptr inbounds %"struct.std::__1::basic_string<char>::__long", ptr %ref.tmp192, i64 0, i32 2
  %__data_.i4.i.i.i1152 = getelementptr inbounds %"struct.std::__1::basic_string<char>::__short", ptr %ref.tmp192, i64 0, i32 2
  %__size_.i.i.i1154 = getelementptr inbounds %"struct.std::__1::basic_string<char>::__long", ptr %ref.tmp192, i64 0, i32 1
  %__data_.i.i1173 = getelementptr inbounds %"struct.std::__1::basic_string<char>::__long", ptr %ref.tmp193, i64 0, i32 2
  br label %for.body

for.body:                                         ; preds = %for.body.lr.ph, %invoke.cont219
  %92 = phi ptr [ %87, %for.body.lr.ph ], [ %144, %invoke.cont219 ]
  %i.01531 = phi i64 [ 0, %for.body.lr.ph ], [ %inc, %invoke.cont219 ]
  %arrayidx.i = getelementptr inbounds %"struct.benchmark::CPUInfo::CacheInfo", ptr %92, i64 %i.01531
  %bf.load.i.i.i.i908 = load i8, ptr %indent, align 8
  %bf.clear.i.i.i.i909 = and i8 %bf.load.i.i.i.i908, 1
  %tobool.i.not.i.i.i910 = icmp eq i8 %bf.clear.i.i.i.i909, 0
  %93 = load ptr, ptr %__data_.i.i.i.i447, align 8
  %cond.i.i.i913 = select i1 %tobool.i.not.i.i.i910, ptr %__data_.i.i.i442, ptr %93
  %94 = load i64, ptr %__size_.i.i.i450, align 8
  %bf.lshr.i.i.i915 = lshr i8 %bf.load.i.i.i.i908, 1
  %conv.i.i.i916 = zext i8 %bf.lshr.i.i.i915 to i64
  %cond.i.i917 = select i1 %tobool.i.not.i.i.i910, i64 %conv.i.i.i916, i64 %94
  %call2.i918 = invoke noundef nonnull align 8 dereferenceable(8) ptr @_ZNSt3__124__put_character_sequenceB7v170000IcNS_11char_traitsIcEEEERNS_13basic_ostreamIT_T0_EES7_PKS4_m(ptr noundef nonnull align 8 dereferenceable(8) %0, ptr noundef %cond.i.i.i913, i64 noundef %cond.i.i917)
          to label %invoke.cont133 unwind label %lpad132

invoke.cont133:                                   ; preds = %for.body
  %call1.i921922 = invoke noundef nonnull align 8 dereferenceable(8) ptr @_ZNSt3__124__put_character_sequenceB7v170000IcNS_11char_traitsIcEEEERNS_13basic_ostreamIT_T0_EES7_PKS4_m(ptr noundef nonnull align 8 dereferenceable(8) %call2.i918, ptr noundef nonnull @.str, i64 noundef 2)
          to label %invoke.cont135 unwind label %lpad132

invoke.cont135:                                   ; preds = %invoke.cont133
  %bf.load.i.i.i.i924 = load i8, ptr %cache_indent, align 8
  %bf.clear.i.i.i.i925 = and i8 %bf.load.i.i.i.i924, 1
  %tobool.i.not.i.i.i926 = icmp eq i8 %bf.clear.i.i.i.i925, 0
  %95 = load ptr, ptr %__data_.i.i.i.i927, align 8
  %cond.i.i.i929 = select i1 %tobool.i.not.i.i.i926, ptr %__data_.i.i.i903, ptr %95
  %96 = load i64, ptr %__size_.i.i.i930, align 8
  %bf.lshr.i.i.i931 = lshr i8 %bf.load.i.i.i.i924, 1
  %conv.i.i.i932 = zext i8 %bf.lshr.i.i.i931 to i64
  %cond.i.i933 = select i1 %tobool.i.not.i.i.i926, i64 %conv.i.i.i932, i64 %96
  %call2.i934 = invoke noundef nonnull align 8 dereferenceable(8) ptr @_ZNSt3__124__put_character_sequenceB7v170000IcNS_11char_traitsIcEEEERNS_13basic_ostreamIT_T0_EES7_PKS4_m(ptr noundef nonnull align 8 dereferenceable(8) %0, ptr noundef %cond.i.i.i929, i64 noundef %cond.i.i933)
          to label %invoke.cont137 unwind label %lpad132

invoke.cont137:                                   ; preds = %invoke.cont135
  call void @llvm.lifetime.start.p0(i64 24, ptr nonnull %ref.tmp139) #20
  call void @llvm.lifetime.start.p0(i64 24, ptr nonnull %ref.tmp140) #20
  store i8 8, ptr %ref.tmp140, align 8
  call void @llvm.assume(i1 %88)
  store i32 1701869940, ptr %__data_.i.i.i943, align 1
  store i8 0, ptr %add.ptr.i.i.i953, align 1, !tbaa !10
  invoke fastcc void @_ZN9benchmark12_GLOBAL__N_18FormatKVERKNSt3__112basic_stringIcNS1_11char_traitsIcEENS1_9allocatorIcEEEES9_(ptr noalias nonnull align 8 %ref.tmp139, ptr noundef nonnull align 8 dereferenceable(24) %ref.tmp140, ptr noundef nonnull align 8 dereferenceable(24) %arrayidx.i)
          to label %invoke.cont144 unwind label %lpad143

invoke.cont144:                                   ; preds = %invoke.cont137
  %bf.load.i.i.i.i959 = load i8, ptr %ref.tmp139, align 8
  %bf.clear.i.i.i.i960 = and i8 %bf.load.i.i.i.i959, 1
  %tobool.i.not.i.i.i961 = icmp eq i8 %bf.clear.i.i.i.i960, 0
  %97 = load ptr, ptr %__data_.i.i.i.i962, align 8
  %cond.i.i.i964 = select i1 %tobool.i.not.i.i.i961, ptr %__data_.i4.i.i.i963, ptr %97
  %98 = load i64, ptr %__size_.i.i.i965, align 8
  %bf.lshr.i.i.i966 = lshr i8 %bf.load.i.i.i.i959, 1
  %conv.i.i.i967 = zext i8 %bf.lshr.i.i.i966 to i64
  %cond.i.i968 = select i1 %tobool.i.not.i.i.i961, i64 %conv.i.i.i967, i64 %98
  %call2.i969 = invoke noundef nonnull align 8 dereferenceable(8) ptr @_ZNSt3__124__put_character_sequenceB7v170000IcNS_11char_traitsIcEEEERNS_13basic_ostreamIT_T0_EES7_PKS4_m(ptr noundef nonnull align 8 dereferenceable(8) %call2.i934, ptr noundef %cond.i.i.i964, i64 noundef %cond.i.i968)
          to label %invoke.cont146 unwind label %lpad145

invoke.cont146:                                   ; preds = %invoke.cont144
  %call1.i972973 = invoke noundef nonnull align 8 dereferenceable(8) ptr @_ZNSt3__124__put_character_sequenceB7v170000IcNS_11char_traitsIcEEEERNS_13basic_ostreamIT_T0_EES7_PKS4_m(ptr noundef nonnull align 8 dereferenceable(8) %call2.i969, ptr noundef nonnull @.str.3, i64 noundef 2)
          to label %invoke.cont148 unwind label %lpad145

invoke.cont148:                                   ; preds = %invoke.cont146
  %bf.load.i.i975 = load i8, ptr %ref.tmp139, align 8
  %bf.clear.i.i976 = and i8 %bf.load.i.i975, 1
  %tobool.i.not.i977 = icmp eq i8 %bf.clear.i.i976, 0
  br i1 %tobool.i.not.i977, label %_ZNSt3__112basic_stringIcNS_11char_traitsIcEENS_9allocatorIcEEED2Ev.exit980, label %if.then.i979

if.then.i979:                                     ; preds = %invoke.cont148
  %99 = load ptr, ptr %__data_.i.i.i.i962, align 8, !tbaa !10
  call void @_ZdlPv(ptr noundef %99) #21
  br label %_ZNSt3__112basic_stringIcNS_11char_traitsIcEENS_9allocatorIcEEED2Ev.exit980

_ZNSt3__112basic_stringIcNS_11char_traitsIcEENS_9allocatorIcEEED2Ev.exit980: ; preds = %invoke.cont148, %if.then.i979
  %bf.load.i.i981 = load i8, ptr %ref.tmp140, align 8
  %bf.clear.i.i982 = and i8 %bf.load.i.i981, 1
  %tobool.i.not.i983 = icmp eq i8 %bf.clear.i.i982, 0
  br i1 %tobool.i.not.i983, label %_ZNSt3__112basic_stringIcNS_11char_traitsIcEENS_9allocatorIcEEED2Ev.exit986, label %if.then.i985

if.then.i985:                                     ; preds = %_ZNSt3__112basic_stringIcNS_11char_traitsIcEENS_9allocatorIcEEED2Ev.exit980
  %100 = load ptr, ptr %__data_.i.i984, align 8, !tbaa !10
  call void @_ZdlPv(ptr noundef %100) #21
  br label %_ZNSt3__112basic_stringIcNS_11char_traitsIcEENS_9allocatorIcEEED2Ev.exit986

_ZNSt3__112basic_stringIcNS_11char_traitsIcEENS_9allocatorIcEEED2Ev.exit986: ; preds = %_ZNSt3__112basic_stringIcNS_11char_traitsIcEENS_9allocatorIcEEED2Ev.exit980, %if.then.i985
  call void @llvm.lifetime.end.p0(i64 24, ptr nonnull %ref.tmp140) #20
  call void @llvm.lifetime.end.p0(i64 24, ptr nonnull %ref.tmp139) #20
  %bf.load.i.i.i.i987 = load i8, ptr %cache_indent, align 8
  %bf.clear.i.i.i.i988 = and i8 %bf.load.i.i.i.i987, 1
  %tobool.i.not.i.i.i989 = icmp eq i8 %bf.clear.i.i.i.i988, 0
  %101 = load ptr, ptr %__data_.i.i.i.i927, align 8
  %cond.i.i.i992 = select i1 %tobool.i.not.i.i.i989, ptr %__data_.i.i.i903, ptr %101
  %102 = load i64, ptr %__size_.i.i.i930, align 8
  %bf.lshr.i.i.i994 = lshr i8 %bf.load.i.i.i.i987, 1
  %conv.i.i.i995 = zext i8 %bf.lshr.i.i.i994 to i64
  %cond.i.i996 = select i1 %tobool.i.not.i.i.i989, i64 %conv.i.i.i995, i64 %102
  %call2.i997 = invoke noundef nonnull align 8 dereferenceable(8) ptr @_ZNSt3__124__put_character_sequenceB7v170000IcNS_11char_traitsIcEEEERNS_13basic_ostreamIT_T0_EES7_PKS4_m(ptr noundef nonnull align 8 dereferenceable(8) %0, ptr noundef %cond.i.i.i992, i64 noundef %cond.i.i996)
          to label %invoke.cont154 unwind label %lpad132

invoke.cont154:                                   ; preds = %_ZNSt3__112basic_stringIcNS_11char_traitsIcEENS_9allocatorIcEEED2Ev.exit986
  call void @llvm.lifetime.start.p0(i64 24, ptr nonnull %ref.tmp156) #20
  call void @llvm.lifetime.start.p0(i64 24, ptr nonnull %ref.tmp157) #20
  store i8 10, ptr %ref.tmp157, align 8
  call void @llvm.assume(i1 %89)
  call void @llvm.memcpy.p0.p0.i64(ptr noundef nonnull align 1 dereferenceable(5) %__data_.i.i.i1006, ptr noundef nonnull align 1 dereferenceable(5) @.str.11, i64 5, i1 false)
  store i8 0, ptr %add.ptr.i.i.i1016, align 2, !tbaa !10
  %level = getelementptr inbounds %"struct.benchmark::CPUInfo::CacheInfo", ptr %92, i64 %i.01531, i32 1
  %103 = load i32, ptr %level, align 8, !tbaa !37
  %conv160 = sext i32 %103 to i64
  invoke fastcc void @_ZN9benchmark12_GLOBAL__N_18FormatKVERKNSt3__112basic_stringIcNS1_11char_traitsIcEENS1_9allocatorIcEEEEl(ptr noalias nonnull align 8 %ref.tmp156, ptr noundef nonnull align 8 dereferenceable(24) %ref.tmp157, i64 noundef %conv160)
          to label %invoke.cont162 unwind label %lpad161

invoke.cont162:                                   ; preds = %invoke.cont154
  %bf.load.i.i.i.i1022 = load i8, ptr %ref.tmp156, align 8
  %bf.clear.i.i.i.i1023 = and i8 %bf.load.i.i.i.i1022, 1
  %tobool.i.not.i.i.i1024 = icmp eq i8 %bf.clear.i.i.i.i1023, 0
  %104 = load ptr, ptr %__data_.i.i.i.i1025, align 8
  %cond.i.i.i1027 = select i1 %tobool.i.not.i.i.i1024, ptr %__data_.i4.i.i.i1026, ptr %104
  %105 = load i64, ptr %__size_.i.i.i1028, align 8
  %bf.lshr.i.i.i1029 = lshr i8 %bf.load.i.i.i.i1022, 1
  %conv.i.i.i1030 = zext i8 %bf.lshr.i.i.i1029 to i64
  %cond.i.i1031 = select i1 %tobool.i.not.i.i.i1024, i64 %conv.i.i.i1030, i64 %105
  %call2.i1032 = invoke noundef nonnull align 8 dereferenceable(8) ptr @_ZNSt3__124__put_character_sequenceB7v170000IcNS_11char_traitsIcEEEERNS_13basic_ostreamIT_T0_EES7_PKS4_m(ptr noundef nonnull align 8 dereferenceable(8) %call2.i997, ptr noundef %cond.i.i.i1027, i64 noundef %cond.i.i1031)
          to label %invoke.cont164 unwind label %lpad163

invoke.cont164:                                   ; preds = %invoke.cont162
  %call1.i10351036 = invoke noundef nonnull align 8 dereferenceable(8) ptr @_ZNSt3__124__put_character_sequenceB7v170000IcNS_11char_traitsIcEEEERNS_13basic_ostreamIT_T0_EES7_PKS4_m(ptr noundef nonnull align 8 dereferenceable(8) %call2.i1032, ptr noundef nonnull @.str.3, i64 noundef 2)
          to label %invoke.cont166 unwind label %lpad163

invoke.cont166:                                   ; preds = %invoke.cont164
  %bf.load.i.i1038 = load i8, ptr %ref.tmp156, align 8
  %bf.clear.i.i1039 = and i8 %bf.load.i.i1038, 1
  %tobool.i.not.i1040 = icmp eq i8 %bf.clear.i.i1039, 0
  br i1 %tobool.i.not.i1040, label %_ZNSt3__112basic_stringIcNS_11char_traitsIcEENS_9allocatorIcEEED2Ev.exit1043, label %if.then.i1042

if.then.i1042:                                    ; preds = %invoke.cont166
  %106 = load ptr, ptr %__data_.i.i.i.i1025, align 8, !tbaa !10
  call void @_ZdlPv(ptr noundef %106) #21
  br label %_ZNSt3__112basic_stringIcNS_11char_traitsIcEENS_9allocatorIcEEED2Ev.exit1043

_ZNSt3__112basic_stringIcNS_11char_traitsIcEENS_9allocatorIcEEED2Ev.exit1043: ; preds = %invoke.cont166, %if.then.i1042
  %bf.load.i.i1044 = load i8, ptr %ref.tmp157, align 8
  %bf.clear.i.i1045 = and i8 %bf.load.i.i1044, 1
  %tobool.i.not.i1046 = icmp eq i8 %bf.clear.i.i1045, 0
  br i1 %tobool.i.not.i1046, label %_ZNSt3__112basic_stringIcNS_11char_traitsIcEENS_9allocatorIcEEED2Ev.exit1049, label %if.then.i1048

if.then.i1048:                                    ; preds = %_ZNSt3__112basic_stringIcNS_11char_traitsIcEENS_9allocatorIcEEED2Ev.exit1043
  %107 = load ptr, ptr %__data_.i.i1047, align 8, !tbaa !10
  call void @_ZdlPv(ptr noundef %107) #21
  br label %_ZNSt3__112basic_stringIcNS_11char_traitsIcEENS_9allocatorIcEEED2Ev.exit1049

_ZNSt3__112basic_stringIcNS_11char_traitsIcEENS_9allocatorIcEEED2Ev.exit1049: ; preds = %_ZNSt3__112basic_stringIcNS_11char_traitsIcEENS_9allocatorIcEEED2Ev.exit1043, %if.then.i1048
  call void @llvm.lifetime.end.p0(i64 24, ptr nonnull %ref.tmp157) #20
  call void @llvm.lifetime.end.p0(i64 24, ptr nonnull %ref.tmp156) #20
  %bf.load.i.i.i.i1050 = load i8, ptr %cache_indent, align 8
  %bf.clear.i.i.i.i1051 = and i8 %bf.load.i.i.i.i1050, 1
  %tobool.i.not.i.i.i1052 = icmp eq i8 %bf.clear.i.i.i.i1051, 0
  %108 = load ptr, ptr %__data_.i.i.i.i927, align 8
  %cond.i.i.i1055 = select i1 %tobool.i.not.i.i.i1052, ptr %__data_.i.i.i903, ptr %108
  %109 = load i64, ptr %__size_.i.i.i930, align 8
  %bf.lshr.i.i.i1057 = lshr i8 %bf.load.i.i.i.i1050, 1
  %conv.i.i.i1058 = zext i8 %bf.lshr.i.i.i1057 to i64
  %cond.i.i1059 = select i1 %tobool.i.not.i.i.i1052, i64 %conv.i.i.i1058, i64 %109
  %call2.i1060 = invoke noundef nonnull align 8 dereferenceable(8) ptr @_ZNSt3__124__put_character_sequenceB7v170000IcNS_11char_traitsIcEEEERNS_13basic_ostreamIT_T0_EES7_PKS4_m(ptr noundef nonnull align 8 dereferenceable(8) %0, ptr noundef %cond.i.i.i1055, i64 noundef %cond.i.i1059)
          to label %invoke.cont172 unwind label %lpad132

invoke.cont172:                                   ; preds = %_ZNSt3__112basic_stringIcNS_11char_traitsIcEENS_9allocatorIcEEED2Ev.exit1049
  call void @llvm.lifetime.start.p0(i64 24, ptr nonnull %ref.tmp174) #20
  call void @llvm.lifetime.start.p0(i64 24, ptr nonnull %ref.tmp175) #20
  store i8 8, ptr %ref.tmp175, align 8
  call void @llvm.assume(i1 %90)
  store i32 1702521203, ptr %__data_.i.i.i1069, align 1
  store i8 0, ptr %add.ptr.i.i.i1079, align 1, !tbaa !10
  %size = getelementptr inbounds %"struct.benchmark::CPUInfo::CacheInfo", ptr %92, i64 %i.01531, i32 2
  %110 = load i32, ptr %size, align 4, !tbaa !43
  %conv178 = sext i32 %110 to i64
  invoke fastcc void @_ZN9benchmark12_GLOBAL__N_18FormatKVERKNSt3__112basic_stringIcNS1_11char_traitsIcEENS1_9allocatorIcEEEEl(ptr noalias nonnull align 8 %ref.tmp174, ptr noundef nonnull align 8 dereferenceable(24) %ref.tmp175, i64 noundef %conv178)
          to label %invoke.cont180 unwind label %lpad179

invoke.cont180:                                   ; preds = %invoke.cont172
  %bf.load.i.i.i.i1085 = load i8, ptr %ref.tmp174, align 8
  %bf.clear.i.i.i.i1086 = and i8 %bf.load.i.i.i.i1085, 1
  %tobool.i.not.i.i.i1087 = icmp eq i8 %bf.clear.i.i.i.i1086, 0
  %111 = load ptr, ptr %__data_.i.i.i.i1088, align 8
  %cond.i.i.i1090 = select i1 %tobool.i.not.i.i.i1087, ptr %__data_.i4.i.i.i1089, ptr %111
  %112 = load i64, ptr %__size_.i.i.i1091, align 8
  %bf.lshr.i.i.i1092 = lshr i8 %bf.load.i.i.i.i1085, 1
  %conv.i.i.i1093 = zext i8 %bf.lshr.i.i.i1092 to i64
  %cond.i.i1094 = select i1 %tobool.i.not.i.i.i1087, i64 %conv.i.i.i1093, i64 %112
  %call2.i1095 = invoke noundef nonnull align 8 dereferenceable(8) ptr @_ZNSt3__124__put_character_sequenceB7v170000IcNS_11char_traitsIcEEEERNS_13basic_ostreamIT_T0_EES7_PKS4_m(ptr noundef nonnull align 8 dereferenceable(8) %call2.i1060, ptr noundef %cond.i.i.i1090, i64 noundef %cond.i.i1094)
          to label %invoke.cont182 unwind label %lpad181

invoke.cont182:                                   ; preds = %invoke.cont180
  %call1.i10981099 = invoke noundef nonnull align 8 dereferenceable(8) ptr @_ZNSt3__124__put_character_sequenceB7v170000IcNS_11char_traitsIcEEEERNS_13basic_ostreamIT_T0_EES7_PKS4_m(ptr noundef nonnull align 8 dereferenceable(8) %call2.i1095, ptr noundef nonnull @.str.3, i64 noundef 2)
          to label %invoke.cont184 unwind label %lpad181

invoke.cont184:                                   ; preds = %invoke.cont182
  %bf.load.i.i1101 = load i8, ptr %ref.tmp174, align 8
  %bf.clear.i.i1102 = and i8 %bf.load.i.i1101, 1
  %tobool.i.not.i1103 = icmp eq i8 %bf.clear.i.i1102, 0
  br i1 %tobool.i.not.i1103, label %_ZNSt3__112basic_stringIcNS_11char_traitsIcEENS_9allocatorIcEEED2Ev.exit1106, label %if.then.i1105

if.then.i1105:                                    ; preds = %invoke.cont184
  %113 = load ptr, ptr %__data_.i.i.i.i1088, align 8, !tbaa !10
  call void @_ZdlPv(ptr noundef %113) #21
  br label %_ZNSt3__112basic_stringIcNS_11char_traitsIcEENS_9allocatorIcEEED2Ev.exit1106

_ZNSt3__112basic_stringIcNS_11char_traitsIcEENS_9allocatorIcEEED2Ev.exit1106: ; preds = %invoke.cont184, %if.then.i1105
  %bf.load.i.i1107 = load i8, ptr %ref.tmp175, align 8
  %bf.clear.i.i1108 = and i8 %bf.load.i.i1107, 1
  %tobool.i.not.i1109 = icmp eq i8 %bf.clear.i.i1108, 0
  br i1 %tobool.i.not.i1109, label %_ZNSt3__112basic_stringIcNS_11char_traitsIcEENS_9allocatorIcEEED2Ev.exit1112, label %if.then.i1111

if.then.i1111:                                    ; preds = %_ZNSt3__112basic_stringIcNS_11char_traitsIcEENS_9allocatorIcEEED2Ev.exit1106
  %114 = load ptr, ptr %__data_.i.i1110, align 8, !tbaa !10
  call void @_ZdlPv(ptr noundef %114) #21
  br label %_ZNSt3__112basic_stringIcNS_11char_traitsIcEENS_9allocatorIcEEED2Ev.exit1112

_ZNSt3__112basic_stringIcNS_11char_traitsIcEENS_9allocatorIcEEED2Ev.exit1112: ; preds = %_ZNSt3__112basic_stringIcNS_11char_traitsIcEENS_9allocatorIcEEED2Ev.exit1106, %if.then.i1111
  call void @llvm.lifetime.end.p0(i64 24, ptr nonnull %ref.tmp175) #20
  call void @llvm.lifetime.end.p0(i64 24, ptr nonnull %ref.tmp174) #20
  %bf.load.i.i.i.i1113 = load i8, ptr %cache_indent, align 8
  %bf.clear.i.i.i.i1114 = and i8 %bf.load.i.i.i.i1113, 1
  %tobool.i.not.i.i.i1115 = icmp eq i8 %bf.clear.i.i.i.i1114, 0
  %115 = load ptr, ptr %__data_.i.i.i.i927, align 8
  %cond.i.i.i1118 = select i1 %tobool.i.not.i.i.i1115, ptr %__data_.i.i.i903, ptr %115
  %116 = load i64, ptr %__size_.i.i.i930, align 8
  %bf.lshr.i.i.i1120 = lshr i8 %bf.load.i.i.i.i1113, 1
  %conv.i.i.i1121 = zext i8 %bf.lshr.i.i.i1120 to i64
  %cond.i.i1122 = select i1 %tobool.i.not.i.i.i1115, i64 %conv.i.i.i1121, i64 %116
  %call2.i1123 = invoke noundef nonnull align 8 dereferenceable(8) ptr @_ZNSt3__124__put_character_sequenceB7v170000IcNS_11char_traitsIcEEEERNS_13basic_ostreamIT_T0_EES7_PKS4_m(ptr noundef nonnull align 8 dereferenceable(8) %0, ptr noundef %cond.i.i.i1118, i64 noundef %cond.i.i1122)
          to label %invoke.cont190 unwind label %lpad132

invoke.cont190:                                   ; preds = %_ZNSt3__112basic_stringIcNS_11char_traitsIcEENS_9allocatorIcEEED2Ev.exit1112
  call void @llvm.lifetime.start.p0(i64 24, ptr nonnull %ref.tmp192) #20
  call void @llvm.lifetime.start.p0(i64 24, ptr nonnull %ref.tmp193) #20
  store i8 22, ptr %ref.tmp193, align 8
  call void @llvm.assume(i1 %91)
  call void @llvm.memcpy.p0.p0.i64(ptr noundef nonnull align 1 dereferenceable(11) %__data_.i.i.i1132, ptr noundef nonnull align 1 dereferenceable(11) @.str.13, i64 11, i1 false)
  store i8 0, ptr %add.ptr.i.i.i1142, align 4, !tbaa !10
  %num_sharing = getelementptr inbounds %"struct.benchmark::CPUInfo::CacheInfo", ptr %92, i64 %i.01531, i32 3
  %117 = load i32, ptr %num_sharing, align 8, !tbaa !44
  %conv196 = sext i32 %117 to i64
  invoke fastcc void @_ZN9benchmark12_GLOBAL__N_18FormatKVERKNSt3__112basic_stringIcNS1_11char_traitsIcEENS1_9allocatorIcEEEEl(ptr noalias nonnull align 8 %ref.tmp192, ptr noundef nonnull align 8 dereferenceable(24) %ref.tmp193, i64 noundef %conv196)
          to label %invoke.cont198 unwind label %lpad197

invoke.cont198:                                   ; preds = %invoke.cont190
  %bf.load.i.i.i.i1148 = load i8, ptr %ref.tmp192, align 8
  %bf.clear.i.i.i.i1149 = and i8 %bf.load.i.i.i.i1148, 1
  %tobool.i.not.i.i.i1150 = icmp eq i8 %bf.clear.i.i.i.i1149, 0
  %118 = load ptr, ptr %__data_.i.i.i.i1151, align 8
  %cond.i.i.i1153 = select i1 %tobool.i.not.i.i.i1150, ptr %__data_.i4.i.i.i1152, ptr %118
  %119 = load i64, ptr %__size_.i.i.i1154, align 8
  %bf.lshr.i.i.i1155 = lshr i8 %bf.load.i.i.i.i1148, 1
  %conv.i.i.i1156 = zext i8 %bf.lshr.i.i.i1155 to i64
  %cond.i.i1157 = select i1 %tobool.i.not.i.i.i1150, i64 %conv.i.i.i1156, i64 %119
  %call2.i1158 = invoke noundef nonnull align 8 dereferenceable(8) ptr @_ZNSt3__124__put_character_sequenceB7v170000IcNS_11char_traitsIcEEEERNS_13basic_ostreamIT_T0_EES7_PKS4_m(ptr noundef nonnull align 8 dereferenceable(8) %call2.i1123, ptr noundef %cond.i.i.i1153, i64 noundef %cond.i.i1157)
          to label %invoke.cont200 unwind label %lpad199

invoke.cont200:                                   ; preds = %invoke.cont198
  %call1.i11611162 = invoke noundef nonnull align 8 dereferenceable(8) ptr @_ZNSt3__124__put_character_sequenceB7v170000IcNS_11char_traitsIcEEEERNS_13basic_ostreamIT_T0_EES7_PKS4_m(ptr noundef nonnull align 8 dereferenceable(8) %call2.i1158, ptr noundef nonnull @.str.14, i64 noundef 1)
          to label %invoke.cont202 unwind label %lpad199

invoke.cont202:                                   ; preds = %invoke.cont200
  %bf.load.i.i1164 = load i8, ptr %ref.tmp192, align 8
  %bf.clear.i.i1165 = and i8 %bf.load.i.i1164, 1
  %tobool.i.not.i1166 = icmp eq i8 %bf.clear.i.i1165, 0
  br i1 %tobool.i.not.i1166, label %_ZNSt3__112basic_stringIcNS_11char_traitsIcEENS_9allocatorIcEEED2Ev.exit1169, label %if.then.i1168

if.then.i1168:                                    ; preds = %invoke.cont202
  %120 = load ptr, ptr %__data_.i.i.i.i1151, align 8, !tbaa !10
  call void @_ZdlPv(ptr noundef %120) #21
  br label %_ZNSt3__112basic_stringIcNS_11char_traitsIcEENS_9allocatorIcEEED2Ev.exit1169

_ZNSt3__112basic_stringIcNS_11char_traitsIcEENS_9allocatorIcEEED2Ev.exit1169: ; preds = %invoke.cont202, %if.then.i1168
  %bf.load.i.i1170 = load i8, ptr %ref.tmp193, align 8
  %bf.clear.i.i1171 = and i8 %bf.load.i.i1170, 1
  %tobool.i.not.i1172 = icmp eq i8 %bf.clear.i.i1171, 0
  br i1 %tobool.i.not.i1172, label %_ZNSt3__112basic_stringIcNS_11char_traitsIcEENS_9allocatorIcEEED2Ev.exit1175, label %if.then.i1174

if.then.i1174:                                    ; preds = %_ZNSt3__112basic_stringIcNS_11char_traitsIcEENS_9allocatorIcEEED2Ev.exit1169
  %121 = load ptr, ptr %__data_.i.i1173, align 8, !tbaa !10
  call void @_ZdlPv(ptr noundef %121) #21
  br label %_ZNSt3__112basic_stringIcNS_11char_traitsIcEENS_9allocatorIcEEED2Ev.exit1175

_ZNSt3__112basic_stringIcNS_11char_traitsIcEENS_9allocatorIcEEED2Ev.exit1175: ; preds = %_ZNSt3__112basic_stringIcNS_11char_traitsIcEENS_9allocatorIcEEED2Ev.exit1169, %if.then.i1174
  call void @llvm.lifetime.end.p0(i64 24, ptr nonnull %ref.tmp193) #20
  call void @llvm.lifetime.end.p0(i64 24, ptr nonnull %ref.tmp192) #20
  %bf.load.i.i.i.i1176 = load i8, ptr %indent, align 8
  %bf.clear.i.i.i.i1177 = and i8 %bf.load.i.i.i.i1176, 1
  %tobool.i.not.i.i.i1178 = icmp eq i8 %bf.clear.i.i.i.i1177, 0
  %122 = load ptr, ptr %__data_.i.i.i.i447, align 8
  %cond.i.i.i1181 = select i1 %tobool.i.not.i.i.i1178, ptr %__data_.i.i.i442, ptr %122
  %123 = load i64, ptr %__size_.i.i.i450, align 8
  %bf.lshr.i.i.i1183 = lshr i8 %bf.load.i.i.i.i1176, 1
  %conv.i.i.i1184 = zext i8 %bf.lshr.i.i.i1183 to i64
  %cond.i.i1185 = select i1 %tobool.i.not.i.i.i1178, i64 %conv.i.i.i1184, i64 %123
  %call2.i1186 = invoke noundef nonnull align 8 dereferenceable(8) ptr @_ZNSt3__124__put_character_sequenceB7v170000IcNS_11char_traitsIcEEEERNS_13basic_ostreamIT_T0_EES7_PKS4_m(ptr noundef nonnull align 8 dereferenceable(8) %0, ptr noundef %cond.i.i.i1181, i64 noundef %cond.i.i1185)
          to label %invoke.cont208 unwind label %lpad132

invoke.cont208:                                   ; preds = %_ZNSt3__112basic_stringIcNS_11char_traitsIcEENS_9allocatorIcEEED2Ev.exit1175
  %call1.i11891190 = invoke noundef nonnull align 8 dereferenceable(8) ptr @_ZNSt3__124__put_character_sequenceB7v170000IcNS_11char_traitsIcEEEERNS_13basic_ostreamIT_T0_EES7_PKS4_m(ptr noundef nonnull align 8 dereferenceable(8) %call2.i1186, ptr noundef nonnull @.str.15, i64 noundef 1)
          to label %invoke.cont210 unwind label %lpad132

invoke.cont210:                                   ; preds = %invoke.cont208
  %124 = load ptr, ptr %__end_.i, align 8, !tbaa !35
  %125 = load ptr, ptr %caches, align 8, !tbaa !36
  %sub.ptr.lhs.cast.i1193 = ptrtoint ptr %124 to i64
  %sub.ptr.rhs.cast.i1194 = ptrtoint ptr %125 to i64
  %sub.ptr.sub.i1195 = sub i64 %sub.ptr.lhs.cast.i1193, %sub.ptr.rhs.cast.i1194
  %sub.ptr.div.i1196 = sdiv exact i64 %sub.ptr.sub.i1195, 40
  %sub = add nsw i64 %sub.ptr.div.i1196, -1
  %cmp214.not = icmp eq i64 %i.01531, %sub
  br i1 %cmp214.not, label %if.end218, label %if.then215

if.then215:                                       ; preds = %invoke.cont210
  %call1.i11981199 = invoke noundef nonnull align 8 dereferenceable(8) ptr @_ZNSt3__124__put_character_sequenceB7v170000IcNS_11char_traitsIcEEEERNS_13basic_ostreamIT_T0_EES7_PKS4_m(ptr noundef nonnull align 8 dereferenceable(8) %0, ptr noundef nonnull @.str.16, i64 noundef 1)
          to label %if.end218 unwind label %lpad132

lpad132:                                          ; preds = %if.end218, %if.then215, %invoke.cont208, %_ZNSt3__112basic_stringIcNS_11char_traitsIcEENS_9allocatorIcEEED2Ev.exit1175, %_ZNSt3__112basic_stringIcNS_11char_traitsIcEENS_9allocatorIcEEED2Ev.exit1112, %_ZNSt3__112basic_stringIcNS_11char_traitsIcEENS_9allocatorIcEEED2Ev.exit1049, %_ZNSt3__112basic_stringIcNS_11char_traitsIcEENS_9allocatorIcEEED2Ev.exit986, %invoke.cont135, %invoke.cont133, %for.body
  %126 = landingpad { ptr, i32 }
          cleanup
  br label %ehcleanup333

lpad143:                                          ; preds = %invoke.cont137
  %127 = landingpad { ptr, i32 }
          cleanup
  br label %ehcleanup151

lpad145:                                          ; preds = %invoke.cont146, %invoke.cont144
  %128 = landingpad { ptr, i32 }
          cleanup
  %bf.load.i.i1201 = load i8, ptr %ref.tmp139, align 8
  %bf.clear.i.i1202 = and i8 %bf.load.i.i1201, 1
  %tobool.i.not.i1203 = icmp eq i8 %bf.clear.i.i1202, 0
  br i1 %tobool.i.not.i1203, label %ehcleanup151, label %if.then.i1205

if.then.i1205:                                    ; preds = %lpad145
  %129 = load ptr, ptr %__data_.i.i.i.i962, align 8, !tbaa !10
  call void @_ZdlPv(ptr noundef %129) #21
  br label %ehcleanup151

ehcleanup151:                                     ; preds = %if.then.i1205, %lpad145, %lpad143
  %.pn411 = phi { ptr, i32 } [ %127, %lpad143 ], [ %128, %lpad145 ], [ %128, %if.then.i1205 ]
  %bf.load.i.i1207 = load i8, ptr %ref.tmp140, align 8
  %bf.clear.i.i1208 = and i8 %bf.load.i.i1207, 1
  %tobool.i.not.i1209 = icmp eq i8 %bf.clear.i.i1208, 0
  br i1 %tobool.i.not.i1209, label %ehcleanup152, label %if.then.i1211

if.then.i1211:                                    ; preds = %ehcleanup151
  %130 = load ptr, ptr %__data_.i.i984, align 8, !tbaa !10
  call void @_ZdlPv(ptr noundef %130) #21
  br label %ehcleanup152

ehcleanup152:                                     ; preds = %if.then.i1211, %ehcleanup151
  call void @llvm.lifetime.end.p0(i64 24, ptr nonnull %ref.tmp140) #20
  call void @llvm.lifetime.end.p0(i64 24, ptr nonnull %ref.tmp139) #20
  br label %ehcleanup333

lpad161:                                          ; preds = %invoke.cont154
  %131 = landingpad { ptr, i32 }
          cleanup
  br label %ehcleanup169

lpad163:                                          ; preds = %invoke.cont164, %invoke.cont162
  %132 = landingpad { ptr, i32 }
          cleanup
  %bf.load.i.i1213 = load i8, ptr %ref.tmp156, align 8
  %bf.clear.i.i1214 = and i8 %bf.load.i.i1213, 1
  %tobool.i.not.i1215 = icmp eq i8 %bf.clear.i.i1214, 0
  br i1 %tobool.i.not.i1215, label %ehcleanup169, label %if.then.i1217

if.then.i1217:                                    ; preds = %lpad163
  %133 = load ptr, ptr %__data_.i.i.i.i1025, align 8, !tbaa !10
  call void @_ZdlPv(ptr noundef %133) #21
  br label %ehcleanup169

ehcleanup169:                                     ; preds = %if.then.i1217, %lpad163, %lpad161
  %.pn414 = phi { ptr, i32 } [ %131, %lpad161 ], [ %132, %lpad163 ], [ %132, %if.then.i1217 ]
  %bf.load.i.i1219 = load i8, ptr %ref.tmp157, align 8
  %bf.clear.i.i1220 = and i8 %bf.load.i.i1219, 1
  %tobool.i.not.i1221 = icmp eq i8 %bf.clear.i.i1220, 0
  br i1 %tobool.i.not.i1221, label %ehcleanup170, label %if.then.i1223

if.then.i1223:                                    ; preds = %ehcleanup169
  %134 = load ptr, ptr %__data_.i.i1047, align 8, !tbaa !10
  call void @_ZdlPv(ptr noundef %134) #21
  br label %ehcleanup170

ehcleanup170:                                     ; preds = %if.then.i1223, %ehcleanup169
  call void @llvm.lifetime.end.p0(i64 24, ptr nonnull %ref.tmp157) #20
  call void @llvm.lifetime.end.p0(i64 24, ptr nonnull %ref.tmp156) #20
  br label %ehcleanup333

lpad179:                                          ; preds = %invoke.cont172
  %135 = landingpad { ptr, i32 }
          cleanup
  br label %ehcleanup187

lpad181:                                          ; preds = %invoke.cont182, %invoke.cont180
  %136 = landingpad { ptr, i32 }
          cleanup
  %bf.load.i.i1225 = load i8, ptr %ref.tmp174, align 8
  %bf.clear.i.i1226 = and i8 %bf.load.i.i1225, 1
  %tobool.i.not.i1227 = icmp eq i8 %bf.clear.i.i1226, 0
  br i1 %tobool.i.not.i1227, label %ehcleanup187, label %if.then.i1229

if.then.i1229:                                    ; preds = %lpad181
  %137 = load ptr, ptr %__data_.i.i.i.i1088, align 8, !tbaa !10
  call void @_ZdlPv(ptr noundef %137) #21
  br label %ehcleanup187

ehcleanup187:                                     ; preds = %if.then.i1229, %lpad181, %lpad179
  %.pn417 = phi { ptr, i32 } [ %135, %lpad179 ], [ %136, %lpad181 ], [ %136, %if.then.i1229 ]
  %bf.load.i.i1231 = load i8, ptr %ref.tmp175, align 8
  %bf.clear.i.i1232 = and i8 %bf.load.i.i1231, 1
  %tobool.i.not.i1233 = icmp eq i8 %bf.clear.i.i1232, 0
  br i1 %tobool.i.not.i1233, label %ehcleanup188, label %if.then.i1235

if.then.i1235:                                    ; preds = %ehcleanup187
  %138 = load ptr, ptr %__data_.i.i1110, align 8, !tbaa !10
  call void @_ZdlPv(ptr noundef %138) #21
  br label %ehcleanup188

ehcleanup188:                                     ; preds = %if.then.i1235, %ehcleanup187
  call void @llvm.lifetime.end.p0(i64 24, ptr nonnull %ref.tmp175) #20
  call void @llvm.lifetime.end.p0(i64 24, ptr nonnull %ref.tmp174) #20
  br label %ehcleanup333

lpad197:                                          ; preds = %invoke.cont190
  %139 = landingpad { ptr, i32 }
          cleanup
  br label %ehcleanup205

lpad199:                                          ; preds = %invoke.cont200, %invoke.cont198
  %140 = landingpad { ptr, i32 }
          cleanup
  %bf.load.i.i1237 = load i8, ptr %ref.tmp192, align 8
  %bf.clear.i.i1238 = and i8 %bf.load.i.i1237, 1
  %tobool.i.not.i1239 = icmp eq i8 %bf.clear.i.i1238, 0
  br i1 %tobool.i.not.i1239, label %ehcleanup205, label %if.then.i1241

if.then.i1241:                                    ; preds = %lpad199
  %141 = load ptr, ptr %__data_.i.i.i.i1151, align 8, !tbaa !10
  call void @_ZdlPv(ptr noundef %141) #21
  br label %ehcleanup205

ehcleanup205:                                     ; preds = %if.then.i1241, %lpad199, %lpad197
  %.pn420 = phi { ptr, i32 } [ %139, %lpad197 ], [ %140, %lpad199 ], [ %140, %if.then.i1241 ]
  %bf.load.i.i1243 = load i8, ptr %ref.tmp193, align 8
  %bf.clear.i.i1244 = and i8 %bf.load.i.i1243, 1
  %tobool.i.not.i1245 = icmp eq i8 %bf.clear.i.i1244, 0
  br i1 %tobool.i.not.i1245, label %ehcleanup206, label %if.then.i1247

if.then.i1247:                                    ; preds = %ehcleanup205
  %142 = load ptr, ptr %__data_.i.i1173, align 8, !tbaa !10
  call void @_ZdlPv(ptr noundef %142) #21
  br label %ehcleanup206

ehcleanup206:                                     ; preds = %if.then.i1247, %ehcleanup205
  call void @llvm.lifetime.end.p0(i64 24, ptr nonnull %ref.tmp193) #20
  call void @llvm.lifetime.end.p0(i64 24, ptr nonnull %ref.tmp192) #20
  br label %ehcleanup333

if.end218:                                        ; preds = %if.then215, %invoke.cont210
  %call1.i12501251 = invoke noundef nonnull align 8 dereferenceable(8) ptr @_ZNSt3__124__put_character_sequenceB7v170000IcNS_11char_traitsIcEEEERNS_13basic_ostreamIT_T0_EES7_PKS4_m(ptr noundef nonnull align 8 dereferenceable(8) %0, ptr noundef nonnull @.str.14, i64 noundef 1)
          to label %invoke.cont219 unwind label %lpad132

invoke.cont219:                                   ; preds = %if.end218
  %inc = add nuw i64 %i.01531, 1
  %143 = load ptr, ptr %__end_.i, align 8, !tbaa !35
  %144 = load ptr, ptr %caches, align 8, !tbaa !36
  %sub.ptr.lhs.cast.i = ptrtoint ptr %143 to i64
  %sub.ptr.rhs.cast.i = ptrtoint ptr %144 to i64
  %sub.ptr.sub.i = sub i64 %sub.ptr.lhs.cast.i, %sub.ptr.rhs.cast.i
  %sub.ptr.div.i = sdiv exact i64 %sub.ptr.sub.i, 40
  %cmp129 = icmp ult i64 %inc, %sub.ptr.div.i
  br i1 %cmp129, label %for.body, label %invoke.cont225, !llvm.loop !45

invoke.cont225:                                   ; preds = %invoke.cont219
  %bf.load.i.i.i1253.pre = load i8, ptr %indent, align 8
  call void @llvm.lifetime.start.p0(i64 3, ptr nonnull %ref.tmp223.sroa.9)
  call void @llvm.lifetime.start.p0(i64 10, ptr nonnull %ref.tmp223.sroa.10)
  call void @llvm.memset.p0.i64(ptr noundef nonnull align 2 dereferenceable(3) %ref.tmp223.sroa.9, i8 32, i64 3, i1 false), !tbaa !10
  %bf.clear.i.i.i1254 = and i8 %bf.load.i.i.i1253.pre, 1
  %tobool.i.not.i.i1255 = icmp eq i8 %bf.clear.i.i.i1254, 0
  br i1 %tobool.i.not.i.i1255, label %_ZNSt3__112basic_stringIcNS_11char_traitsIcEENS_9allocatorIcEEED2Ev.exit1265, label %if.then.i.i1257

if.then.i.i1257:                                  ; preds = %invoke.cont225
  %145 = load ptr, ptr %__data_.i.i.i.i447, align 8, !tbaa !10
  call void @_ZdlPv(ptr noundef %145) #21
  br label %_ZNSt3__112basic_stringIcNS_11char_traitsIcEENS_9allocatorIcEEED2Ev.exit1265

_ZNSt3__112basic_stringIcNS_11char_traitsIcEENS_9allocatorIcEEED2Ev.exit1265: ; preds = %invoke.cont225.thread, %if.then.i.i1257, %invoke.cont225
  store i8 8, ptr %indent, align 8, !tbaa.struct !32
  store i8 32, ptr %__data_.i.i.i442, align 1, !tbaa.struct !47
  call void @llvm.memcpy.p0.p0.i64(ptr noundef nonnull align 2 dereferenceable(3) %ref.tmp121.sroa.9.0.indent.sroa_idx, ptr noundef nonnull align 2 dereferenceable(3) %ref.tmp223.sroa.9, i64 3, i1 false), !tbaa.struct !48
  store i8 0, ptr %arrayidx.i.i443, align 1, !tbaa.struct !49
  %ref.tmp223.sroa.10.0.indent.sroa_idx = getelementptr inbounds i8, ptr %indent, i64 6
  call void @llvm.memcpy.p0.p0.i64(ptr noundef nonnull align 2 dereferenceable(10) %ref.tmp223.sroa.10.0.indent.sroa_idx, ptr noundef nonnull align 2 dereferenceable(10) %ref.tmp223.sroa.10, i64 10, i1 false), !tbaa.struct !50
  call void @llvm.lifetime.end.p0(i64 3, ptr nonnull %ref.tmp223.sroa.9)
  call void @llvm.lifetime.end.p0(i64 10, ptr nonnull %ref.tmp223.sroa.10)
  %call2.i1276 = invoke noundef nonnull align 8 dereferenceable(8) ptr @_ZNSt3__124__put_character_sequenceB7v170000IcNS_11char_traitsIcEEEERNS_13basic_ostreamIT_T0_EES7_PKS4_m(ptr noundef nonnull align 8 dereferenceable(8) %0, ptr noundef nonnull %__data_.i.i.i442, i64 noundef 4)
          to label %invoke.cont229 unwind label %lpad228

invoke.cont229:                                   ; preds = %_ZNSt3__112basic_stringIcNS_11char_traitsIcEENS_9allocatorIcEEED2Ev.exit1265
  %call1.i12791280 = invoke noundef nonnull align 8 dereferenceable(8) ptr @_ZNSt3__124__put_character_sequenceB7v170000IcNS_11char_traitsIcEEEERNS_13basic_ostreamIT_T0_EES7_PKS4_m(ptr noundef nonnull align 8 dereferenceable(8) %call2.i1276, ptr noundef nonnull @.str.17, i64 noundef 3)
          to label %invoke.cont231 unwind label %lpad228

invoke.cont231:                                   ; preds = %invoke.cont229
  %bf.load.i.i.i.i1282 = load i8, ptr %indent, align 8
  %bf.clear.i.i.i.i1283 = and i8 %bf.load.i.i.i.i1282, 1
  %tobool.i.not.i.i.i1284 = icmp eq i8 %bf.clear.i.i.i.i1283, 0
  %146 = load ptr, ptr %__data_.i.i.i.i447, align 8
  %cond.i.i.i1287 = select i1 %tobool.i.not.i.i.i1284, ptr %__data_.i.i.i442, ptr %146
  %147 = load i64, ptr %__size_.i.i.i450, align 8
  %bf.lshr.i.i.i1289 = lshr i8 %bf.load.i.i.i.i1282, 1
  %conv.i.i.i1290 = zext i8 %bf.lshr.i.i.i1289 to i64
  %cond.i.i1291 = select i1 %tobool.i.not.i.i.i1284, i64 %conv.i.i.i1290, i64 %147
  %call2.i1292 = invoke noundef nonnull align 8 dereferenceable(8) ptr @_ZNSt3__124__put_character_sequenceB7v170000IcNS_11char_traitsIcEEEERNS_13basic_ostreamIT_T0_EES7_PKS4_m(ptr noundef nonnull align 8 dereferenceable(8) %0, ptr noundef %cond.i.i.i1287, i64 noundef %cond.i.i1291)
          to label %invoke.cont233 unwind label %lpad228

invoke.cont233:                                   ; preds = %invoke.cont231
  %call1.i12951296 = invoke noundef nonnull align 8 dereferenceable(8) ptr @_ZNSt3__124__put_character_sequenceB7v170000IcNS_11char_traitsIcEEEERNS_13basic_ostreamIT_T0_EES7_PKS4_m(ptr noundef nonnull align 8 dereferenceable(8) %call2.i1292, ptr noundef nonnull @.str.18, i64 noundef 13)
          to label %invoke.cont235 unwind label %lpad228

invoke.cont235:                                   ; preds = %invoke.cont233
  %load_avg = getelementptr inbounds %"struct.benchmark::CPUInfo", ptr %40, i64 0, i32 4
  %148 = load ptr, ptr %load_avg, align 8, !tbaa !51
  %__end_.i1298 = getelementptr inbounds %"struct.benchmark::CPUInfo", ptr %40, i64 0, i32 4, i32 1
  %149 = load ptr, ptr %__end_.i1298, align 8, !tbaa !52
  %cmp.i.i1299.not1532 = icmp eq ptr %148, %149
  br i1 %cmp.i.i1299.not1532, label %for.cond.cleanup244, label %for.body245

for.cond.cleanup244:                              ; preds = %if.end263, %invoke.cont235
  %call1.i13011302 = invoke noundef nonnull align 8 dereferenceable(8) ptr @_ZNSt3__124__put_character_sequenceB7v170000IcNS_11char_traitsIcEEEERNS_13basic_ostreamIT_T0_EES7_PKS4_m(ptr noundef nonnull align 8 dereferenceable(8) %0, ptr noundef nonnull @.str.17, i64 noundef 3)
          to label %invoke.cont266 unwind label %lpad228

lpad228:                                          ; preds = %for.cond.cleanup244, %invoke.cont233, %invoke.cont231, %invoke.cont229, %_ZNSt3__112basic_stringIcNS_11char_traitsIcEENS_9allocatorIcEEED2Ev.exit1265
  %150 = landingpad { ptr, i32 }
          cleanup
  br label %ehcleanup333

for.body245:                                      ; preds = %invoke.cont235, %if.end263
  %it.sroa.0.01533 = phi ptr [ %incdec.ptr.i.i, %if.end263 ], [ %148, %invoke.cont235 ]
  %incdec.ptr.i.i = getelementptr inbounds double, ptr %it.sroa.0.01533, i64 1
  %151 = load double, ptr %it.sroa.0.01533, align 8, !tbaa !53
  %call252 = invoke noundef nonnull align 8 dereferenceable(8) ptr @_ZNSt3__113basic_ostreamIcNS_11char_traitsIcEEElsEd(ptr noundef nonnull align 8 dereferenceable(8) %0, double noundef %151)
          to label %invoke.cont251 unwind label %lpad250

invoke.cont251:                                   ; preds = %for.body245
  %152 = load ptr, ptr %__end_.i1298, align 8, !tbaa !52
  %cmp.i.i1305.not = icmp eq ptr %incdec.ptr.i.i, %152
  br i1 %cmp.i.i1305.not, label %if.end263, label %if.then259

if.then259:                                       ; preds = %invoke.cont251
  %call1.i13071308 = invoke noundef nonnull align 8 dereferenceable(8) ptr @_ZNSt3__124__put_character_sequenceB7v170000IcNS_11char_traitsIcEEEERNS_13basic_ostreamIT_T0_EES7_PKS4_m(ptr noundef nonnull align 8 dereferenceable(8) %0, ptr noundef nonnull @.str.16, i64 noundef 1)
          to label %if.then259.if.end263_crit_edge unwind label %lpad260

if.then259.if.end263_crit_edge:                   ; preds = %if.then259
  %.pre = load ptr, ptr %__end_.i1298, align 8, !tbaa !52
  br label %if.end263

lpad250:                                          ; preds = %for.body245
  %153 = landingpad { ptr, i32 }
          cleanup
  br label %ehcleanup333

lpad260:                                          ; preds = %if.then259
  %154 = landingpad { ptr, i32 }
          cleanup
  br label %ehcleanup333

if.end263:                                        ; preds = %if.then259.if.end263_crit_edge, %invoke.cont251
  %155 = phi ptr [ %.pre, %if.then259.if.end263_crit_edge ], [ %152, %invoke.cont251 ]
  %cmp.i.i1299.not = icmp eq ptr %incdec.ptr.i.i, %155
  br i1 %cmp.i.i1299.not, label %for.cond.cleanup244, label %for.body245, !llvm.loop !54

invoke.cont266:                                   ; preds = %for.cond.cleanup244
  call void @llvm.lifetime.start.p0(i64 8, ptr nonnull %build_type) #20
  store i64 28555834798400882, ptr %build_type, align 8
  %bf.load.i.i.i.i1310 = load i8, ptr %indent, align 8
  %bf.clear.i.i.i.i1311 = and i8 %bf.load.i.i.i.i1310, 1
  %tobool.i.not.i.i.i1312 = icmp eq i8 %bf.clear.i.i.i.i1311, 0
  %156 = load ptr, ptr %__data_.i.i.i.i447, align 8
  %cond.i.i.i1315 = select i1 %tobool.i.not.i.i.i1312, ptr %__data_.i.i.i442, ptr %156
  %157 = load i64, ptr %__size_.i.i.i450, align 8
  %bf.lshr.i.i.i1317 = lshr i8 %bf.load.i.i.i.i1310, 1
  %conv.i.i.i1318 = zext i8 %bf.lshr.i.i.i1317 to i64
  %cond.i.i1319 = select i1 %tobool.i.not.i.i.i1312, i64 %conv.i.i.i1318, i64 %157
  %call2.i1320 = invoke noundef nonnull align 8 dereferenceable(8) ptr @_ZNSt3__124__put_character_sequenceB7v170000IcNS_11char_traitsIcEEEERNS_13basic_ostreamIT_T0_EES7_PKS4_m(ptr noundef nonnull align 8 dereferenceable(8) %0, ptr noundef %cond.i.i.i1315, i64 noundef %cond.i.i1319)
          to label %invoke.cont269 unwind label %lpad268

invoke.cont269:                                   ; preds = %invoke.cont266
  call void @llvm.lifetime.start.p0(i64 24, ptr nonnull %ref.tmp271) #20
  call void @llvm.lifetime.start.p0(i64 24, ptr nonnull %ref.tmp272) #20
  store i8 36, ptr %ref.tmp272, align 8
  %__data_.i.i.i1329 = getelementptr inbounds %"struct.std::__1::basic_string<char>::__short", ptr %ref.tmp272, i64 0, i32 2
  %cmp.i24.i.i1338 = icmp ugt ptr %__data_.i.i.i1329, @.str.19
  %add.ptr.i.i.i1339 = getelementptr inbounds %"struct.std::__1::basic_string<char>::__short", ptr %ref.tmp272, i64 0, i32 2, i64 18
  %cmp1.i.i.i1340 = icmp ule ptr %add.ptr.i.i.i1339, @.str.19
  %158 = or i1 %cmp.i24.i.i1338, %cmp1.i.i.i1340
  call void @llvm.assume(i1 %158)
  call void @llvm.memcpy.p0.p0.i64(ptr noundef nonnull align 1 dereferenceable(18) %__data_.i.i.i1329, ptr noundef nonnull align 1 dereferenceable(18) @.str.19, i64 18, i1 false)
  store i8 0, ptr %add.ptr.i.i.i1339, align 1, !tbaa !10
  invoke fastcc void @_ZN9benchmark12_GLOBAL__N_18FormatKVERKNSt3__112basic_stringIcNS1_11char_traitsIcEENS1_9allocatorIcEEEEPKc(ptr noalias nonnull align 8 %ref.tmp271, ptr noundef nonnull align 8 dereferenceable(24) %ref.tmp272, ptr noundef nonnull %build_type)
          to label %invoke.cont276 unwind label %lpad275

invoke.cont276:                                   ; preds = %invoke.cont269
  %bf.load.i.i.i.i1345 = load i8, ptr %ref.tmp271, align 8
  %bf.clear.i.i.i.i1346 = and i8 %bf.load.i.i.i.i1345, 1
  %tobool.i.not.i.i.i1347 = icmp eq i8 %bf.clear.i.i.i.i1346, 0
  %__data_.i.i.i.i1348 = getelementptr inbounds %"struct.std::__1::basic_string<char>::__long", ptr %ref.tmp271, i64 0, i32 2
  %159 = load ptr, ptr %__data_.i.i.i.i1348, align 8
  %__data_.i4.i.i.i1349 = getelementptr inbounds %"struct.std::__1::basic_string<char>::__short", ptr %ref.tmp271, i64 0, i32 2
  %cond.i.i.i1350 = select i1 %tobool.i.not.i.i.i1347, ptr %__data_.i4.i.i.i1349, ptr %159
  %__size_.i.i.i1351 = getelementptr inbounds %"struct.std::__1::basic_string<char>::__long", ptr %ref.tmp271, i64 0, i32 1
  %160 = load i64, ptr %__size_.i.i.i1351, align 8
  %bf.lshr.i.i.i1352 = lshr i8 %bf.load.i.i.i.i1345, 1
  %conv.i.i.i1353 = zext i8 %bf.lshr.i.i.i1352 to i64
  %cond.i.i1354 = select i1 %tobool.i.not.i.i.i1347, i64 %conv.i.i.i1353, i64 %160
  %call2.i1355 = invoke noundef nonnull align 8 dereferenceable(8) ptr @_ZNSt3__124__put_character_sequenceB7v170000IcNS_11char_traitsIcEEEERNS_13basic_ostreamIT_T0_EES7_PKS4_m(ptr noundef nonnull align 8 dereferenceable(8) %call2.i1320, ptr noundef %cond.i.i.i1350, i64 noundef %cond.i.i1354)
          to label %invoke.cont278 unwind label %lpad277

invoke.cont278:                                   ; preds = %invoke.cont276
  %bf.load.i.i1357 = load i8, ptr %ref.tmp271, align 8
  %bf.clear.i.i1358 = and i8 %bf.load.i.i1357, 1
  %tobool.i.not.i1359 = icmp eq i8 %bf.clear.i.i1358, 0
  br i1 %tobool.i.not.i1359, label %_ZNSt3__112basic_stringIcNS_11char_traitsIcEENS_9allocatorIcEEED2Ev.exit1362, label %if.then.i1361

if.then.i1361:                                    ; preds = %invoke.cont278
  %161 = load ptr, ptr %__data_.i.i.i.i1348, align 8, !tbaa !10
  call void @_ZdlPv(ptr noundef %161) #21
  br label %_ZNSt3__112basic_stringIcNS_11char_traitsIcEENS_9allocatorIcEEED2Ev.exit1362

_ZNSt3__112basic_stringIcNS_11char_traitsIcEENS_9allocatorIcEEED2Ev.exit1362: ; preds = %invoke.cont278, %if.then.i1361
  %bf.load.i.i1363 = load i8, ptr %ref.tmp272, align 8
  %bf.clear.i.i1364 = and i8 %bf.load.i.i1363, 1
  %tobool.i.not.i1365 = icmp eq i8 %bf.clear.i.i1364, 0
  br i1 %tobool.i.not.i1365, label %_ZNSt3__112basic_stringIcNS_11char_traitsIcEENS_9allocatorIcEEED2Ev.exit1368, label %if.then.i1367

if.then.i1367:                                    ; preds = %_ZNSt3__112basic_stringIcNS_11char_traitsIcEENS_9allocatorIcEEED2Ev.exit1362
  %__data_.i.i1366 = getelementptr inbounds %"struct.std::__1::basic_string<char>::__long", ptr %ref.tmp272, i64 0, i32 2
  %162 = load ptr, ptr %__data_.i.i1366, align 8, !tbaa !10
  call void @_ZdlPv(ptr noundef %162) #21
  br label %_ZNSt3__112basic_stringIcNS_11char_traitsIcEENS_9allocatorIcEEED2Ev.exit1368

_ZNSt3__112basic_stringIcNS_11char_traitsIcEENS_9allocatorIcEEED2Ev.exit1368: ; preds = %_ZNSt3__112basic_stringIcNS_11char_traitsIcEENS_9allocatorIcEEED2Ev.exit1362, %if.then.i1367
  call void @llvm.lifetime.end.p0(i64 24, ptr nonnull %ref.tmp272) #20
  call void @llvm.lifetime.end.p0(i64 24, ptr nonnull %ref.tmp271) #20
  %163 = load ptr, ptr @_ZN9benchmark8internal14global_contextE, align 8, !tbaa !14
  %cmp284.not = icmp eq ptr %163, null
  br i1 %cmp284.not, label %if.end321, label %if.then285

if.then285:                                       ; preds = %_ZNSt3__112basic_stringIcNS_11char_traitsIcEENS_9allocatorIcEEED2Ev.exit1368
  %164 = load ptr, ptr %163, align 8, !tbaa !14
  %__pair1_.i.i.i = getelementptr inbounds %"class.std::__1::__tree", ptr %163, i64 0, i32 1
  %cmp.i.i.i1369.not1534 = icmp eq ptr %164, %__pair1_.i.i.i
  br i1 %cmp.i.i.i1369.not1534, label %if.end321, label %invoke.cont299.lr.ph

invoke.cont299.lr.ph:                             ; preds = %if.then285
  %__data_.i.i.i.i1401 = getelementptr inbounds %"struct.std::__1::basic_string<char>::__long", ptr %ref.tmp305, i64 0, i32 2
  %__data_.i4.i.i.i1402 = getelementptr inbounds %"struct.std::__1::basic_string<char>::__short", ptr %ref.tmp305, i64 0, i32 2
  %__size_.i.i.i1404 = getelementptr inbounds %"struct.std::__1::basic_string<char>::__long", ptr %ref.tmp305, i64 0, i32 1
  br label %invoke.cont299

lpad268:                                          ; preds = %invoke.cont328, %invoke.cont326, %invoke.cont324, %invoke.cont322, %if.end321, %invoke.cont266
  %165 = landingpad { ptr, i32 }
          cleanup
  br label %ehcleanup332

lpad275:                                          ; preds = %invoke.cont269
  %166 = landingpad { ptr, i32 }
          cleanup
  br label %ehcleanup281

lpad277:                                          ; preds = %invoke.cont276
  %167 = landingpad { ptr, i32 }
          cleanup
  %bf.load.i.i1370 = load i8, ptr %ref.tmp271, align 8
  %bf.clear.i.i1371 = and i8 %bf.load.i.i1370, 1
  %tobool.i.not.i1372 = icmp eq i8 %bf.clear.i.i1371, 0
  br i1 %tobool.i.not.i1372, label %ehcleanup281, label %if.then.i1374

if.then.i1374:                                    ; preds = %lpad277
  %168 = load ptr, ptr %__data_.i.i.i.i1348, align 8, !tbaa !10
  call void @_ZdlPv(ptr noundef %168) #21
  br label %ehcleanup281

ehcleanup281:                                     ; preds = %if.then.i1374, %lpad277, %lpad275
  %.pn400 = phi { ptr, i32 } [ %166, %lpad275 ], [ %167, %lpad277 ], [ %167, %if.then.i1374 ]
  %bf.load.i.i1376 = load i8, ptr %ref.tmp272, align 8
  %bf.clear.i.i1377 = and i8 %bf.load.i.i1376, 1
  %tobool.i.not.i1378 = icmp eq i8 %bf.clear.i.i1377, 0
  br i1 %tobool.i.not.i1378, label %ehcleanup282, label %if.then.i1380

if.then.i1380:                                    ; preds = %ehcleanup281
  %__data_.i.i1379 = getelementptr inbounds %"struct.std::__1::basic_string<char>::__long", ptr %ref.tmp272, i64 0, i32 2
  %169 = load ptr, ptr %__data_.i.i1379, align 8, !tbaa !10
  call void @_ZdlPv(ptr noundef %169) #21
  br label %ehcleanup282

ehcleanup282:                                     ; preds = %if.then.i1380, %ehcleanup281
  call void @llvm.lifetime.end.p0(i64 24, ptr nonnull %ref.tmp272) #20
  call void @llvm.lifetime.end.p0(i64 24, ptr nonnull %ref.tmp271) #20
  br label %ehcleanup332

invoke.cont299:                                   ; preds = %invoke.cont299.lr.ph, %_ZNSt3__114__map_iteratorINS_15__tree_iteratorINS_12__value_typeINS_12basic_stringIcNS_11char_traitsIcEENS_9allocatorIcEEEES8_EEPNS_11__tree_nodeIS9_PvEElEEEppB7v170000Ev.exit
  %__begin2.sroa.0.01535 = phi ptr [ %164, %invoke.cont299.lr.ph ], [ %retval.0.i.i.i, %_ZNSt3__114__map_iteratorINS_15__tree_iteratorINS_12__value_typeINS_12basic_stringIcNS_11char_traitsIcEENS_9allocatorIcEEEES8_EEPNS_11__tree_nodeIS9_PvEElEEEppB7v170000Ev.exit ]
  %__value_.i.i = getelementptr inbounds %"class.std::__1::__tree_node", ptr %__begin2.sroa.0.01535, i64 0, i32 1
  %call1.i13831384 = invoke noundef nonnull align 8 dereferenceable(8) ptr @_ZNSt3__124__put_character_sequenceB7v170000IcNS_11char_traitsIcEEEERNS_13basic_ostreamIT_T0_EES7_PKS4_m(ptr noundef nonnull align 8 dereferenceable(8) %0, ptr noundef nonnull @.str.3, i64 noundef 2)
          to label %invoke.cont301 unwind label %lpad298

invoke.cont301:                                   ; preds = %invoke.cont299
  %bf.load.i.i.i.i1386 = load i8, ptr %indent, align 8
  %bf.clear.i.i.i.i1387 = and i8 %bf.load.i.i.i.i1386, 1
  %tobool.i.not.i.i.i1388 = icmp eq i8 %bf.clear.i.i.i.i1387, 0
  %170 = load ptr, ptr %__data_.i.i.i.i447, align 8
  %cond.i.i.i1391 = select i1 %tobool.i.not.i.i.i1388, ptr %__data_.i.i.i442, ptr %170
  %171 = load i64, ptr %__size_.i.i.i450, align 8
  %bf.lshr.i.i.i1393 = lshr i8 %bf.load.i.i.i.i1386, 1
  %conv.i.i.i1394 = zext i8 %bf.lshr.i.i.i1393 to i64
  %cond.i.i1395 = select i1 %tobool.i.not.i.i.i1388, i64 %conv.i.i.i1394, i64 %171
  %call2.i1396 = invoke noundef nonnull align 8 dereferenceable(8) ptr @_ZNSt3__124__put_character_sequenceB7v170000IcNS_11char_traitsIcEEEERNS_13basic_ostreamIT_T0_EES7_PKS4_m(ptr noundef nonnull align 8 dereferenceable(8) %0, ptr noundef %cond.i.i.i1391, i64 noundef %cond.i.i1395)
          to label %invoke.cont303 unwind label %lpad298

invoke.cont303:                                   ; preds = %invoke.cont301
  call void @llvm.lifetime.start.p0(i64 24, ptr nonnull %ref.tmp305) #20
  %second = getelementptr inbounds %"class.std::__1::__tree_node", ptr %__begin2.sroa.0.01535, i64 0, i32 1, i32 0, i32 1
  invoke fastcc void @_ZN9benchmark12_GLOBAL__N_18FormatKVERKNSt3__112basic_stringIcNS1_11char_traitsIcEENS1_9allocatorIcEEEES9_(ptr noalias nonnull align 8 %ref.tmp305, ptr noundef nonnull align 8 dereferenceable(24) %__value_.i.i, ptr noundef nonnull align 8 dereferenceable(24) %second)
          to label %invoke.cont307 unwind label %lpad306

invoke.cont307:                                   ; preds = %invoke.cont303
  %bf.load.i.i.i.i1398 = load i8, ptr %ref.tmp305, align 8
  %bf.clear.i.i.i.i1399 = and i8 %bf.load.i.i.i.i1398, 1
  %tobool.i.not.i.i.i1400 = icmp eq i8 %bf.clear.i.i.i.i1399, 0
  %172 = load ptr, ptr %__data_.i.i.i.i1401, align 8
  %cond.i.i.i1403 = select i1 %tobool.i.not.i.i.i1400, ptr %__data_.i4.i.i.i1402, ptr %172
  %173 = load i64, ptr %__size_.i.i.i1404, align 8
  %bf.lshr.i.i.i1405 = lshr i8 %bf.load.i.i.i.i1398, 1
  %conv.i.i.i1406 = zext i8 %bf.lshr.i.i.i1405 to i64
  %cond.i.i1407 = select i1 %tobool.i.not.i.i.i1400, i64 %conv.i.i.i1406, i64 %173
  %call2.i1408 = invoke noundef nonnull align 8 dereferenceable(8) ptr @_ZNSt3__124__put_character_sequenceB7v170000IcNS_11char_traitsIcEEEERNS_13basic_ostreamIT_T0_EES7_PKS4_m(ptr noundef nonnull align 8 dereferenceable(8) %call2.i1396, ptr noundef %cond.i.i.i1403, i64 noundef %cond.i.i1407)
          to label %invoke.cont309 unwind label %lpad308

invoke.cont309:                                   ; preds = %invoke.cont307
  %bf.load.i.i1410 = load i8, ptr %ref.tmp305, align 8
  %bf.clear.i.i1411 = and i8 %bf.load.i.i1410, 1
  %tobool.i.not.i1412 = icmp eq i8 %bf.clear.i.i1411, 0
  br i1 %tobool.i.not.i1412, label %_ZNSt3__112basic_stringIcNS_11char_traitsIcEENS_9allocatorIcEEED2Ev.exit1415, label %if.then.i1414

if.then.i1414:                                    ; preds = %invoke.cont309
  %174 = load ptr, ptr %__data_.i.i.i.i1401, align 8, !tbaa !10
  call void @_ZdlPv(ptr noundef %174) #21
  br label %_ZNSt3__112basic_stringIcNS_11char_traitsIcEENS_9allocatorIcEEED2Ev.exit1415

_ZNSt3__112basic_stringIcNS_11char_traitsIcEENS_9allocatorIcEEED2Ev.exit1415: ; preds = %invoke.cont309, %if.then.i1414
  call void @llvm.lifetime.end.p0(i64 24, ptr nonnull %ref.tmp305) #20
  %__right_.i.i.i = getelementptr inbounds %"class.std::__1::__tree_node_base", ptr %__begin2.sroa.0.01535, i64 0, i32 1
  %175 = load ptr, ptr %__right_.i.i.i, align 8, !tbaa !55
  %cmp1.not.i.i.i = icmp eq ptr %175, null
  br i1 %cmp1.not.i.i.i, label %while.cond.i.i.i, label %while.cond.i.i.i.i

while.cond.i.i.i.i:                               ; preds = %_ZNSt3__112basic_stringIcNS_11char_traitsIcEENS_9allocatorIcEEED2Ev.exit1415, %while.cond.i.i.i.i
  %__x.addr.0.i.i.i.i = phi ptr [ %176, %while.cond.i.i.i.i ], [ %175, %_ZNSt3__112basic_stringIcNS_11char_traitsIcEENS_9allocatorIcEEED2Ev.exit1415 ]
  %176 = load ptr, ptr %__x.addr.0.i.i.i.i, align 8, !tbaa !59
  %cmp1.not.i.i.i.i = icmp eq ptr %176, null
  br i1 %cmp1.not.i.i.i.i, label %_ZNSt3__114__map_iteratorINS_15__tree_iteratorINS_12__value_typeINS_12basic_stringIcNS_11char_traitsIcEENS_9allocatorIcEEEES8_EEPNS_11__tree_nodeIS9_PvEElEEEppB7v170000Ev.exit, label %while.cond.i.i.i.i, !llvm.loop !60

while.cond.i.i.i:                                 ; preds = %_ZNSt3__112basic_stringIcNS_11char_traitsIcEENS_9allocatorIcEEED2Ev.exit1415, %while.cond.i.i.i
  %__x.addr.0.i.i.i = phi ptr [ %177, %while.cond.i.i.i ], [ %__begin2.sroa.0.01535, %_ZNSt3__112basic_stringIcNS_11char_traitsIcEENS_9allocatorIcEEED2Ev.exit1415 ]
  %__parent_.i.i.i.i = getelementptr inbounds %"class.std::__1::__tree_node_base", ptr %__x.addr.0.i.i.i, i64 0, i32 2
  %177 = load ptr, ptr %__parent_.i.i.i.i, align 8, !tbaa !61
  %178 = load ptr, ptr %177, align 8, !tbaa !59
  %cmp.i10.i.i.i = icmp eq ptr %178, %__x.addr.0.i.i.i
  br i1 %cmp.i10.i.i.i, label %_ZNSt3__114__map_iteratorINS_15__tree_iteratorINS_12__value_typeINS_12basic_stringIcNS_11char_traitsIcEENS_9allocatorIcEEEES8_EEPNS_11__tree_nodeIS9_PvEElEEEppB7v170000Ev.exit, label %while.cond.i.i.i, !llvm.loop !62

_ZNSt3__114__map_iteratorINS_15__tree_iteratorINS_12__value_typeINS_12basic_stringIcNS_11char_traitsIcEENS_9allocatorIcEEEES8_EEPNS_11__tree_nodeIS9_PvEElEEEppB7v170000Ev.exit: ; preds = %while.cond.i.i.i.i, %while.cond.i.i.i
  %retval.0.i.i.i = phi ptr [ %177, %while.cond.i.i.i ], [ %__x.addr.0.i.i.i.i, %while.cond.i.i.i.i ]
  %cmp.i.i.i1369.not = icmp eq ptr %retval.0.i.i.i, %__pair1_.i.i.i
  br i1 %cmp.i.i.i1369.not, label %if.end321, label %invoke.cont299

lpad298:                                          ; preds = %invoke.cont301, %invoke.cont299
  %179 = landingpad { ptr, i32 }
          cleanup
  br label %ehcleanup332

lpad306:                                          ; preds = %invoke.cont303
  %180 = landingpad { ptr, i32 }
          cleanup
  br label %ehcleanup312

lpad308:                                          ; preds = %invoke.cont307
  %181 = landingpad { ptr, i32 }
          cleanup
  %bf.load.i.i1416 = load i8, ptr %ref.tmp305, align 8
  %bf.clear.i.i1417 = and i8 %bf.load.i.i1416, 1
  %tobool.i.not.i1418 = icmp eq i8 %bf.clear.i.i1417, 0
  br i1 %tobool.i.not.i1418, label %ehcleanup312, label %if.then.i1420

if.then.i1420:                                    ; preds = %lpad308
  %182 = load ptr, ptr %__data_.i.i.i.i1401, align 8, !tbaa !10
  call void @_ZdlPv(ptr noundef %182) #21
  br label %ehcleanup312

ehcleanup312:                                     ; preds = %if.then.i1420, %lpad308, %lpad306
  %.pn403 = phi { ptr, i32 } [ %180, %lpad306 ], [ %181, %lpad308 ], [ %181, %if.then.i1420 ]
  call void @llvm.lifetime.end.p0(i64 24, ptr nonnull %ref.tmp305) #20
  br label %ehcleanup332

if.end321:                                        ; preds = %_ZNSt3__114__map_iteratorINS_15__tree_iteratorINS_12__value_typeINS_12basic_stringIcNS_11char_traitsIcEENS_9allocatorIcEEEES8_EEPNS_11__tree_nodeIS9_PvEElEEEppB7v170000Ev.exit, %if.then285, %_ZNSt3__112basic_stringIcNS_11char_traitsIcEENS_9allocatorIcEEED2Ev.exit1368
  %call1.i14231424 = invoke noundef nonnull align 8 dereferenceable(8) ptr @_ZNSt3__124__put_character_sequenceB7v170000IcNS_11char_traitsIcEEEERNS_13basic_ostreamIT_T0_EES7_PKS4_m(ptr noundef nonnull align 8 dereferenceable(8) %0, ptr noundef nonnull @.str.14, i64 noundef 1)
          to label %invoke.cont322 unwind label %lpad268

invoke.cont322:                                   ; preds = %if.end321
  %bf.load.i.i.i.i1426 = load i8, ptr %inner_indent, align 8
  %bf.clear.i.i.i.i1427 = and i8 %bf.load.i.i.i.i1426, 1
  %tobool.i.not.i.i.i1428 = icmp eq i8 %bf.clear.i.i.i.i1427, 0
  %183 = load ptr, ptr %__data_.i.i.i.i, align 8
  %cond.i.i.i1431 = select i1 %tobool.i.not.i.i.i1428, ptr %__data_.i.i.i, ptr %183
  %184 = load i64, ptr %__size_.i.i.i, align 8
  %bf.lshr.i.i.i1433 = lshr i8 %bf.load.i.i.i.i1426, 1
  %conv.i.i.i1434 = zext i8 %bf.lshr.i.i.i1433 to i64
  %cond.i.i1435 = select i1 %tobool.i.not.i.i.i1428, i64 %conv.i.i.i1434, i64 %184
  %call2.i1436 = invoke noundef nonnull align 8 dereferenceable(8) ptr @_ZNSt3__124__put_character_sequenceB7v170000IcNS_11char_traitsIcEEEERNS_13basic_ostreamIT_T0_EES7_PKS4_m(ptr noundef nonnull align 8 dereferenceable(8) %0, ptr noundef %cond.i.i.i1431, i64 noundef %cond.i.i1435)
          to label %invoke.cont324 unwind label %lpad268

invoke.cont324:                                   ; preds = %invoke.cont322
  %call1.i14391440 = invoke noundef nonnull align 8 dereferenceable(8) ptr @_ZNSt3__124__put_character_sequenceB7v170000IcNS_11char_traitsIcEEEERNS_13basic_ostreamIT_T0_EES7_PKS4_m(ptr noundef nonnull align 8 dereferenceable(8) %call2.i1436, ptr noundef nonnull @.str.20, i64 noundef 3)
          to label %invoke.cont326 unwind label %lpad268

invoke.cont326:                                   ; preds = %invoke.cont324
  %bf.load.i.i.i.i1442 = load i8, ptr %inner_indent, align 8
  %bf.clear.i.i.i.i1443 = and i8 %bf.load.i.i.i.i1442, 1
  %tobool.i.not.i.i.i1444 = icmp eq i8 %bf.clear.i.i.i.i1443, 0
  %185 = load ptr, ptr %__data_.i.i.i.i, align 8
  %cond.i.i.i1447 = select i1 %tobool.i.not.i.i.i1444, ptr %__data_.i.i.i, ptr %185
  %186 = load i64, ptr %__size_.i.i.i, align 8
  %bf.lshr.i.i.i1449 = lshr i8 %bf.load.i.i.i.i1442, 1
  %conv.i.i.i1450 = zext i8 %bf.lshr.i.i.i1449 to i64
  %cond.i.i1451 = select i1 %tobool.i.not.i.i.i1444, i64 %conv.i.i.i1450, i64 %186
  %call2.i1452 = invoke noundef nonnull align 8 dereferenceable(8) ptr @_ZNSt3__124__put_character_sequenceB7v170000IcNS_11char_traitsIcEEEERNS_13basic_ostreamIT_T0_EES7_PKS4_m(ptr noundef nonnull align 8 dereferenceable(8) %0, ptr noundef %cond.i.i.i1447, i64 noundef %cond.i.i1451)
          to label %invoke.cont328 unwind label %lpad268

invoke.cont328:                                   ; preds = %invoke.cont326
  %call1.i14551456 = invoke noundef nonnull align 8 dereferenceable(8) ptr @_ZNSt3__124__put_character_sequenceB7v170000IcNS_11char_traitsIcEEEERNS_13basic_ostreamIT_T0_EES7_PKS4_m(ptr noundef nonnull align 8 dereferenceable(8) %call2.i1452, ptr noundef nonnull @.str.21, i64 noundef 16)
          to label %invoke.cont330 unwind label %lpad268

invoke.cont330:                                   ; preds = %invoke.cont328
  call void @llvm.lifetime.end.p0(i64 8, ptr nonnull %build_type) #20
  %bf.load.i.i1458 = load i8, ptr %cache_indent, align 8
  %bf.clear.i.i1459 = and i8 %bf.load.i.i1458, 1
  %tobool.i.not.i1460 = icmp eq i8 %bf.clear.i.i1459, 0
  br i1 %tobool.i.not.i1460, label %_ZNSt3__112basic_stringIcNS_11char_traitsIcEENS_9allocatorIcEEED2Ev.exit1463, label %if.then.i1462

if.then.i1462:                                    ; preds = %invoke.cont330
  %__data_.i.i1461 = getelementptr inbounds %"struct.std::__1::basic_string<char>::__long", ptr %cache_indent, i64 0, i32 2
  %187 = load ptr, ptr %__data_.i.i1461, align 8, !tbaa !10
  call void @_ZdlPv(ptr noundef %187) #21
  br label %_ZNSt3__112basic_stringIcNS_11char_traitsIcEENS_9allocatorIcEEED2Ev.exit1463

_ZNSt3__112basic_stringIcNS_11char_traitsIcEENS_9allocatorIcEEED2Ev.exit1463: ; preds = %invoke.cont330, %if.then.i1462
  call void @llvm.lifetime.end.p0(i64 24, ptr nonnull %cache_indent) #20
  %bf.load.i.i1464 = load i8, ptr %walltime_value, align 8
  %bf.clear.i.i1465 = and i8 %bf.load.i.i1464, 1
  %tobool.i.not.i1466 = icmp eq i8 %bf.clear.i.i1465, 0
  br i1 %tobool.i.not.i1466, label %_ZNSt3__112basic_stringIcNS_11char_traitsIcEENS_9allocatorIcEEED2Ev.exit1469, label %if.then.i1468

if.then.i1468:                                    ; preds = %_ZNSt3__112basic_stringIcNS_11char_traitsIcEENS_9allocatorIcEEED2Ev.exit1463
  %__data_.i.i1467 = getelementptr inbounds %"struct.std::__1::basic_string<char>::__long", ptr %walltime_value, i64 0, i32 2
  %188 = load ptr, ptr %__data_.i.i1467, align 8, !tbaa !10
  call void @_ZdlPv(ptr noundef %188) #21
  br label %_ZNSt3__112basic_stringIcNS_11char_traitsIcEENS_9allocatorIcEEED2Ev.exit1469

_ZNSt3__112basic_stringIcNS_11char_traitsIcEENS_9allocatorIcEEED2Ev.exit1469: ; preds = %_ZNSt3__112basic_stringIcNS_11char_traitsIcEENS_9allocatorIcEEED2Ev.exit1463, %if.then.i1468
  call void @llvm.lifetime.end.p0(i64 24, ptr nonnull %walltime_value) #20
  %bf.load.i.i1470 = load i8, ptr %indent, align 8
  %bf.clear.i.i1471 = and i8 %bf.load.i.i1470, 1
  %tobool.i.not.i1472 = icmp eq i8 %bf.clear.i.i1471, 0
  br i1 %tobool.i.not.i1472, label %_ZNSt3__112basic_stringIcNS_11char_traitsIcEENS_9allocatorIcEEED2Ev.exit1475, label %if.then.i1474

if.then.i1474:                                    ; preds = %_ZNSt3__112basic_stringIcNS_11char_traitsIcEENS_9allocatorIcEEED2Ev.exit1469
  %189 = load ptr, ptr %__data_.i.i.i.i447, align 8, !tbaa !10
  call void @_ZdlPv(ptr noundef %189) #21
  br label %_ZNSt3__112basic_stringIcNS_11char_traitsIcEENS_9allocatorIcEEED2Ev.exit1475

_ZNSt3__112basic_stringIcNS_11char_traitsIcEENS_9allocatorIcEEED2Ev.exit1475: ; preds = %_ZNSt3__112basic_stringIcNS_11char_traitsIcEENS_9allocatorIcEEED2Ev.exit1469, %if.then.i1474
  call void @llvm.lifetime.end.p0(i64 24, ptr nonnull %indent) #20
  %bf.load.i.i1476 = load i8, ptr %inner_indent, align 8
  %bf.clear.i.i1477 = and i8 %bf.load.i.i1476, 1
  %tobool.i.not.i1478 = icmp eq i8 %bf.clear.i.i1477, 0
  br i1 %tobool.i.not.i1478, label %_ZNSt3__112basic_stringIcNS_11char_traitsIcEENS_9allocatorIcEEED2Ev.exit1481, label %if.then.i1480

if.then.i1480:                                    ; preds = %_ZNSt3__112basic_stringIcNS_11char_traitsIcEENS_9allocatorIcEEED2Ev.exit1475
  %190 = load ptr, ptr %__data_.i.i.i.i, align 8, !tbaa !10
  call void @_ZdlPv(ptr noundef %190) #21
  br label %_ZNSt3__112basic_stringIcNS_11char_traitsIcEENS_9allocatorIcEEED2Ev.exit1481

_ZNSt3__112basic_stringIcNS_11char_traitsIcEENS_9allocatorIcEEED2Ev.exit1481: ; preds = %_ZNSt3__112basic_stringIcNS_11char_traitsIcEENS_9allocatorIcEEED2Ev.exit1475, %if.then.i1480
  call void @llvm.lifetime.end.p0(i64 24, ptr nonnull %inner_indent) #20
  ret i1 true

ehcleanup332:                                     ; preds = %ehcleanup312, %lpad298, %ehcleanup282, %lpad268
  %.pn404.pn = phi { ptr, i32 } [ %165, %lpad268 ], [ %.pn400, %ehcleanup282 ], [ %.pn403, %ehcleanup312 ], [ %179, %lpad298 ]
  call void @llvm.lifetime.end.p0(i64 8, ptr nonnull %build_type) #20
  br label %ehcleanup333

ehcleanup333:                                     ; preds = %lpad250, %lpad260, %lpad132, %ehcleanup152, %ehcleanup170, %ehcleanup188, %ehcleanup206, %ehcleanup332, %lpad228
  %.pn421.pn = phi { ptr, i32 } [ %.pn404.pn, %ehcleanup332 ], [ %150, %lpad228 ], [ %126, %lpad132 ], [ %.pn420, %ehcleanup206 ], [ %.pn417, %ehcleanup188 ], [ %.pn414, %ehcleanup170 ], [ %.pn411, %ehcleanup152 ], [ %154, %lpad260 ], [ %153, %lpad250 ]
  %bf.load.i.i1482 = load i8, ptr %cache_indent, align 8
  %bf.clear.i.i1483 = and i8 %bf.load.i.i1482, 1
  %tobool.i.not.i1484 = icmp eq i8 %bf.clear.i.i1483, 0
  br i1 %tobool.i.not.i1484, label %ehcleanup334, label %if.then.i1486

if.then.i1486:                                    ; preds = %ehcleanup333
  %__data_.i.i1485 = getelementptr inbounds %"struct.std::__1::basic_string<char>::__long", ptr %cache_indent, i64 0, i32 2
  %191 = load ptr, ptr %__data_.i.i1485, align 8, !tbaa !10
  call void @_ZdlPv(ptr noundef %191) #21
  br label %ehcleanup334

ehcleanup334:                                     ; preds = %if.then.i1486, %ehcleanup333
  call void @llvm.lifetime.end.p0(i64 24, ptr nonnull %cache_indent) #20
  br label %ehcleanup336

ehcleanup336:                                     ; preds = %lpad59, %ehcleanup75, %ehcleanup94, %ehcleanup114, %ehcleanup334, %ehcleanup57, %ehcleanup40, %ehcleanup23, %lpad10
  %.pn421.pn.pn.pn.pn = phi { ptr, i32 } [ %.pn431, %ehcleanup57 ], [ %27, %lpad10 ], [ %.pn391, %ehcleanup40 ], [ %.pn, %ehcleanup23 ], [ %.pn421.pn, %ehcleanup334 ], [ %70, %lpad59 ], [ %.pn427, %ehcleanup114 ], [ %.pn397, %ehcleanup94 ], [ %.pn394, %ehcleanup75 ]
  %bf.load.i.i1488 = load i8, ptr %walltime_value, align 8
  %bf.clear.i.i1489 = and i8 %bf.load.i.i1488, 1
  %tobool.i.not.i1490 = icmp eq i8 %bf.clear.i.i1489, 0
  br i1 %tobool.i.not.i1490, label %ehcleanup337, label %if.then.i1492

if.then.i1492:                                    ; preds = %ehcleanup336
  %__data_.i.i1491 = getelementptr inbounds %"struct.std::__1::basic_string<char>::__long", ptr %walltime_value, i64 0, i32 2
  %192 = load ptr, ptr %__data_.i.i1491, align 8, !tbaa !10
  call void @_ZdlPv(ptr noundef %192) #21
  br label %ehcleanup337

ehcleanup337:                                     ; preds = %if.then.i1492, %ehcleanup336, %lpad8
  %.pn421.pn.pn.pn.pn.pn = phi { ptr, i32 } [ %26, %lpad8 ], [ %.pn421.pn.pn.pn.pn, %ehcleanup336 ], [ %.pn421.pn.pn.pn.pn, %if.then.i1492 ]
  call void @llvm.lifetime.end.p0(i64 24, ptr nonnull %walltime_value) #20
  %bf.load.i.i1494 = load i8, ptr %indent, align 8
  %bf.clear.i.i1495 = and i8 %bf.load.i.i1494, 1
  %tobool.i.not.i1496 = icmp eq i8 %bf.clear.i.i1495, 0
  br i1 %tobool.i.not.i1496, label %ehcleanup339, label %if.then.i1498

if.then.i1498:                                    ; preds = %ehcleanup337
  %__data_.i.i1497 = getelementptr inbounds %"struct.std::__1::basic_string<char>::__long", ptr %indent, i64 0, i32 2
  %193 = load ptr, ptr %__data_.i.i1497, align 8, !tbaa !10
  call void @_ZdlPv(ptr noundef %193) #21
  br label %ehcleanup339

ehcleanup339:                                     ; preds = %if.then.i1498, %ehcleanup337
  call void @llvm.lifetime.end.p0(i64 24, ptr nonnull %indent) #20
  br label %ehcleanup340

ehcleanup340:                                     ; preds = %ehcleanup339, %lpad
  %.pn421.pn.pn.pn.pn.pn.pn.pn = phi { ptr, i32 } [ %.pn421.pn.pn.pn.pn.pn, %ehcleanup339 ], [ %25, %lpad ]
  %bf.load.i.i1500 = load i8, ptr %inner_indent, align 8
  %bf.clear.i.i1501 = and i8 %bf.load.i.i1500, 1
  %tobool.i.not.i1502 = icmp eq i8 %bf.clear.i.i1501, 0
  br i1 %tobool.i.not.i1502, label %_ZNSt3__112basic_stringIcNS_11char_traitsIcEENS_9allocatorIcEEED2Ev.exit1505, label %if.then.i1504

if.then.i1504:                                    ; preds = %ehcleanup340
  %194 = load ptr, ptr %__data_.i.i.i.i, align 8, !tbaa !10
  call void @_ZdlPv(ptr noundef %194) #21
  br label %_ZNSt3__112basic_stringIcNS_11char_traitsIcEENS_9allocatorIcEEED2Ev.exit1505

_ZNSt3__112basic_stringIcNS_11char_traitsIcEENS_9allocatorIcEEED2Ev.exit1505: ; preds = %ehcleanup340, %if.then.i1504
  call void @llvm.lifetime.end.p0(i64 24, ptr nonnull %inner_indent) #20
  resume { ptr, i32 } %.pn421.pn.pn.pn.pn.pn.pn.pn
}

; Function Attrs: mustprogress nocallback nofree nosync nounwind willreturn memory(argmem: readwrite)
declare void @llvm.lifetime.start.p0(i64 immarg, ptr nocapture) #2

declare i32 @__gxx_personality_v0(...)

declare void @_ZN9benchmark19LocalDateTimeStringEv(ptr sret(%"class.std::__1::basic_string") align 8) local_unnamed_addr #0

; Function Attrs: uwtable
define internal fastcc void @_ZN9benchmark12_GLOBAL__N_18FormatKVERKNSt3__112basic_stringIcNS1_11char_traitsIcEENS1_9allocatorIcEEEES9_(ptr noalias align 8 %agg.result, ptr noundef nonnull align 8 dereferenceable(24) %key, ptr noundef nonnull align 8 dereferenceable(24) %value) unnamed_addr #1 personality ptr @__gxx_personality_v0 {
entry:
  %ref.tmp = alloca %"class.std::__1::basic_string", align 8
  %ref.tmp1 = alloca %"class.std::__1::basic_string", align 8
  call void @llvm.lifetime.start.p0(i64 24, ptr nonnull %ref.tmp) #20
  call fastcc void @_ZN9benchmark12_GLOBAL__N_19StrEscapeERKNSt3__112basic_stringIcNS1_11char_traitsIcEENS1_9allocatorIcEEEE(ptr noalias nonnull align 8 %ref.tmp, ptr noundef nonnull align 8 dereferenceable(24) %key)
  %bf.load.i.i.i.i = load i8, ptr %ref.tmp, align 8
  %__data_.i.i.i.i = getelementptr inbounds %"struct.std::__1::basic_string<char>::__long", ptr %ref.tmp, i64 0, i32 2
  %0 = load ptr, ptr %__data_.i.i.i.i, align 8
  call void @llvm.lifetime.start.p0(i64 24, ptr nonnull %ref.tmp1) #20
  invoke fastcc void @_ZN9benchmark12_GLOBAL__N_19StrEscapeERKNSt3__112basic_stringIcNS1_11char_traitsIcEENS1_9allocatorIcEEEE(ptr noalias nonnull align 8 %ref.tmp1, ptr noundef nonnull align 8 dereferenceable(24) %value)
          to label %invoke.cont unwind label %lpad

invoke.cont:                                      ; preds = %entry
  %bf.clear.i.i.i.i = and i8 %bf.load.i.i.i.i, 1
  %tobool.i.not.i.i.i = icmp eq i8 %bf.clear.i.i.i.i, 0
  %__data_.i4.i.i.i = getelementptr inbounds %"struct.std::__1::basic_string<char>::__short", ptr %ref.tmp, i64 0, i32 2
  %cond.i.i.i = select i1 %tobool.i.not.i.i.i, ptr %__data_.i4.i.i.i, ptr %0
  %bf.load.i.i.i.i9 = load i8, ptr %ref.tmp1, align 8
  %bf.clear.i.i.i.i10 = and i8 %bf.load.i.i.i.i9, 1
  %tobool.i.not.i.i.i11 = icmp eq i8 %bf.clear.i.i.i.i10, 0
  %__data_.i.i.i.i12 = getelementptr inbounds %"struct.std::__1::basic_string<char>::__long", ptr %ref.tmp1, i64 0, i32 2
  %1 = load ptr, ptr %__data_.i.i.i.i12, align 8
  %__data_.i4.i.i.i13 = getelementptr inbounds %"struct.std::__1::basic_string<char>::__short", ptr %ref.tmp1, i64 0, i32 2
  %cond.i.i.i14 = select i1 %tobool.i.not.i.i.i11, ptr %__data_.i4.i.i.i13, ptr %1
  invoke void (ptr, ptr, ...) @_ZN9benchmark9StrFormatEPKcz(ptr sret(%"class.std::__1::basic_string") align 8 %agg.result, ptr noundef nonnull @.str.48, ptr noundef %cond.i.i.i, ptr noundef %cond.i.i.i14)
          to label %invoke.cont4 unwind label %lpad3

invoke.cont4:                                     ; preds = %invoke.cont
  %bf.load.i.i = load i8, ptr %ref.tmp1, align 8
  %bf.clear.i.i = and i8 %bf.load.i.i, 1
  %tobool.i.not.i = icmp eq i8 %bf.clear.i.i, 0
  br i1 %tobool.i.not.i, label %_ZNSt3__112basic_stringIcNS_11char_traitsIcEENS_9allocatorIcEEED2Ev.exit, label %if.then.i

if.then.i:                                        ; preds = %invoke.cont4
  %2 = load ptr, ptr %__data_.i.i.i.i12, align 8, !tbaa !10
  call void @_ZdlPv(ptr noundef %2) #21
  br label %_ZNSt3__112basic_stringIcNS_11char_traitsIcEENS_9allocatorIcEEED2Ev.exit

_ZNSt3__112basic_stringIcNS_11char_traitsIcEENS_9allocatorIcEEED2Ev.exit: ; preds = %invoke.cont4, %if.then.i
  call void @llvm.lifetime.end.p0(i64 24, ptr nonnull %ref.tmp1) #20
  %bf.load.i.i15 = load i8, ptr %ref.tmp, align 8
  %bf.clear.i.i16 = and i8 %bf.load.i.i15, 1
  %tobool.i.not.i17 = icmp eq i8 %bf.clear.i.i16, 0
  br i1 %tobool.i.not.i17, label %_ZNSt3__112basic_stringIcNS_11char_traitsIcEENS_9allocatorIcEEED2Ev.exit20, label %if.then.i19

if.then.i19:                                      ; preds = %_ZNSt3__112basic_stringIcNS_11char_traitsIcEENS_9allocatorIcEEED2Ev.exit
  %3 = load ptr, ptr %__data_.i.i.i.i, align 8, !tbaa !10
  call void @_ZdlPv(ptr noundef %3) #21
  br label %_ZNSt3__112basic_stringIcNS_11char_traitsIcEENS_9allocatorIcEEED2Ev.exit20

_ZNSt3__112basic_stringIcNS_11char_traitsIcEENS_9allocatorIcEEED2Ev.exit20: ; preds = %_ZNSt3__112basic_stringIcNS_11char_traitsIcEENS_9allocatorIcEEED2Ev.exit, %if.then.i19
  call void @llvm.lifetime.end.p0(i64 24, ptr nonnull %ref.tmp) #20
  ret void

lpad:                                             ; preds = %entry
  %4 = landingpad { ptr, i32 }
          cleanup
  br label %ehcleanup

lpad3:                                            ; preds = %invoke.cont
  %5 = landingpad { ptr, i32 }
          cleanup
  %bf.load.i.i21 = load i8, ptr %ref.tmp1, align 8
  %bf.clear.i.i22 = and i8 %bf.load.i.i21, 1
  %tobool.i.not.i23 = icmp eq i8 %bf.clear.i.i22, 0
  br i1 %tobool.i.not.i23, label %ehcleanup, label %if.then.i25

if.then.i25:                                      ; preds = %lpad3
  %6 = load ptr, ptr %__data_.i.i.i.i12, align 8, !tbaa !10
  call void @_ZdlPv(ptr noundef %6) #21
  br label %ehcleanup

ehcleanup:                                        ; preds = %if.then.i25, %lpad3, %lpad
  %.pn = phi { ptr, i32 } [ %4, %lpad ], [ %5, %lpad3 ], [ %5, %if.then.i25 ]
  call void @llvm.lifetime.end.p0(i64 24, ptr nonnull %ref.tmp1) #20
  %bf.load.i.i27 = load i8, ptr %ref.tmp, align 8
  %bf.clear.i.i28 = and i8 %bf.load.i.i27, 1
  %tobool.i.not.i29 = icmp eq i8 %bf.clear.i.i28, 0
  br i1 %tobool.i.not.i29, label %_ZNSt3__112basic_stringIcNS_11char_traitsIcEENS_9allocatorIcEEED2Ev.exit32, label %if.then.i31

if.then.i31:                                      ; preds = %ehcleanup
  %7 = load ptr, ptr %__data_.i.i.i.i, align 8, !tbaa !10
  call void @_ZdlPv(ptr noundef %7) #21
  br label %_ZNSt3__112basic_stringIcNS_11char_traitsIcEENS_9allocatorIcEEED2Ev.exit32

_ZNSt3__112basic_stringIcNS_11char_traitsIcEENS_9allocatorIcEEED2Ev.exit32: ; preds = %ehcleanup, %if.then.i31
  call void @llvm.lifetime.end.p0(i64 24, ptr nonnull %ref.tmp) #20
  resume { ptr, i32 } %.pn
}

; Function Attrs: mustprogress nocallback nofree nosync nounwind willreturn memory(argmem: readwrite)
declare void @llvm.lifetime.end.p0(i64 immarg, ptr nocapture) #2

; Function Attrs: uwtable
define internal fastcc void @_ZN9benchmark12_GLOBAL__N_18FormatKVERKNSt3__112basic_stringIcNS1_11char_traitsIcEENS1_9allocatorIcEEEEPKc(ptr noalias align 8 %agg.result, ptr noundef nonnull align 8 dereferenceable(24) %key, ptr noundef readonly %value) unnamed_addr #1 personality ptr @__gxx_personality_v0 {
entry:
  %ref.tmp = alloca %"class.std::__1::basic_string", align 8
  %ref.tmp1 = alloca %"class.std::__1::basic_string", align 8
  %ref.tmp2 = alloca %"class.std::__1::basic_string", align 8
  call void @llvm.lifetime.start.p0(i64 24, ptr nonnull %ref.tmp) #20
  call fastcc void @_ZN9benchmark12_GLOBAL__N_19StrEscapeERKNSt3__112basic_stringIcNS1_11char_traitsIcEENS1_9allocatorIcEEEE(ptr noalias nonnull align 8 %ref.tmp, ptr noundef nonnull align 8 dereferenceable(24) %key)
  %bf.load.i.i.i.i = load i8, ptr %ref.tmp, align 8
  %bf.clear.i.i.i.i = and i8 %bf.load.i.i.i.i, 1
  %tobool.i.not.i.i.i = icmp eq i8 %bf.clear.i.i.i.i, 0
  %__data_.i.i.i.i = getelementptr inbounds %"struct.std::__1::basic_string<char>::__long", ptr %ref.tmp, i64 0, i32 2
  %0 = load ptr, ptr %__data_.i.i.i.i, align 8
  %__data_.i4.i.i.i = getelementptr inbounds %"struct.std::__1::basic_string<char>::__short", ptr %ref.tmp, i64 0, i32 2
  %cond.i.i.i = select i1 %tobool.i.not.i.i.i, ptr %__data_.i4.i.i.i, ptr %0
  call void @llvm.lifetime.start.p0(i64 24, ptr nonnull %ref.tmp1) #20
  call void @llvm.lifetime.start.p0(i64 24, ptr nonnull %ref.tmp2) #20
  %cmp.i = icmp ne ptr %value, null
  call void @llvm.assume(i1 %cmp.i)
  %call.i.i.i = call i64 @strlen(ptr noundef nonnull dereferenceable(1) %value) #20
  %cmp.i.i = icmp ugt i64 %call.i.i.i, -17
  br i1 %cmp.i.i, label %if.then.i.i, label %if.end.i.i

if.then.i.i:                                      ; preds = %entry
  invoke void @_ZNKSt3__112basic_stringIcNS_11char_traitsIcEENS_9allocatorIcEEE20__throw_length_errorB7v170000Ev(ptr noundef nonnull align 8 dereferenceable(24) %ref.tmp2) #22
          to label %.noexc unwind label %lpad

.noexc:                                           ; preds = %if.then.i.i
  unreachable

if.end.i.i:                                       ; preds = %entry
  %cmp.i.i.i = icmp ult i64 %call.i.i.i, 23
  br i1 %cmp.i.i.i, label %if.then3.i.i, label %if.else.i.i

if.then3.i.i:                                     ; preds = %if.end.i.i
  %conv.i.i.i = trunc i64 %call.i.i.i to i8
  %bf.shl.i.i.i = shl nuw nsw i8 %conv.i.i.i, 1
  store i8 %bf.shl.i.i.i, ptr %ref.tmp2, align 8
  %__data_.i.i.i = getelementptr inbounds %"struct.std::__1::basic_string<char>::__short", ptr %ref.tmp2, i64 0, i32 2
  br label %invoke.cont

if.else.i.i:                                      ; preds = %if.end.i.i
  %sub.i.i.i = or i64 %call.i.i.i, 15
  %add.i.i = add i64 %sub.i.i.i, 1
  %call.i.i.i.i.i.i15 = invoke noalias noundef nonnull ptr @_Znwm(i64 noundef %add.i.i) #23
          to label %call.i.i.i.i.i.i.noexc unwind label %lpad

call.i.i.i.i.i.i.noexc:                           ; preds = %if.else.i.i
  %__data_.i23.i.i = getelementptr inbounds %"struct.std::__1::basic_string<char>::__long", ptr %ref.tmp2, i64 0, i32 2
  store ptr %call.i.i.i.i.i.i15, ptr %__data_.i23.i.i, align 8, !tbaa !10
  %bf.set6.i.i.i = or i64 %add.i.i, 1
  store i64 %bf.set6.i.i.i, ptr %ref.tmp2, align 8
  %__size_.i.i.i = getelementptr inbounds %"struct.std::__1::basic_string<char>::__long", ptr %ref.tmp2, i64 0, i32 1
  store i64 %call.i.i.i, ptr %__size_.i.i.i, align 8, !tbaa !10
  br label %invoke.cont

invoke.cont:                                      ; preds = %call.i.i.i.i.i.i.noexc, %if.then3.i.i
  %__p.0.i.i = phi ptr [ %__data_.i.i.i, %if.then3.i.i ], [ %call.i.i.i.i.i.i15, %call.i.i.i.i.i.i.noexc ]
  %cmp.i24.i.i = icmp ugt ptr %__p.0.i.i, %value
  %add.ptr.i.i.i = getelementptr inbounds i8, ptr %__p.0.i.i, i64 %call.i.i.i
  %cmp1.i.i.i = icmp ule ptr %add.ptr.i.i.i, %value
  %1 = or i1 %cmp.i24.i.i, %cmp1.i.i.i
  call void @llvm.assume(i1 %1)
  call void @llvm.memcpy.p0.p0.i64(ptr nonnull align 1 %__p.0.i.i, ptr nonnull align 1 %value, i64 %call.i.i.i, i1 false)
  store i8 0, ptr %add.ptr.i.i.i, align 1, !tbaa !10
  invoke fastcc void @_ZN9benchmark12_GLOBAL__N_19StrEscapeERKNSt3__112basic_stringIcNS1_11char_traitsIcEENS1_9allocatorIcEEEE(ptr noalias nonnull align 8 %ref.tmp1, ptr noundef nonnull align 8 dereferenceable(24) %ref.tmp2)
          to label %invoke.cont4 unwind label %lpad3

invoke.cont4:                                     ; preds = %invoke.cont
  %bf.load.i.i.i.i16 = load i8, ptr %ref.tmp1, align 8
  %bf.clear.i.i.i.i17 = and i8 %bf.load.i.i.i.i16, 1
  %tobool.i.not.i.i.i18 = icmp eq i8 %bf.clear.i.i.i.i17, 0
  %__data_.i.i.i.i19 = getelementptr inbounds %"struct.std::__1::basic_string<char>::__long", ptr %ref.tmp1, i64 0, i32 2
  %2 = load ptr, ptr %__data_.i.i.i.i19, align 8
  %__data_.i4.i.i.i20 = getelementptr inbounds %"struct.std::__1::basic_string<char>::__short", ptr %ref.tmp1, i64 0, i32 2
  %cond.i.i.i21 = select i1 %tobool.i.not.i.i.i18, ptr %__data_.i4.i.i.i20, ptr %2
  invoke void (ptr, ptr, ...) @_ZN9benchmark9StrFormatEPKcz(ptr sret(%"class.std::__1::basic_string") align 8 %agg.result, ptr noundef nonnull @.str.48, ptr noundef %cond.i.i.i, ptr noundef %cond.i.i.i21)
          to label %invoke.cont7 unwind label %lpad6

invoke.cont7:                                     ; preds = %invoke.cont4
  %bf.load.i.i = load i8, ptr %ref.tmp1, align 8
  %bf.clear.i.i = and i8 %bf.load.i.i, 1
  %tobool.i.not.i = icmp eq i8 %bf.clear.i.i, 0
  br i1 %tobool.i.not.i, label %_ZNSt3__112basic_stringIcNS_11char_traitsIcEENS_9allocatorIcEEED2Ev.exit, label %if.then.i

if.then.i:                                        ; preds = %invoke.cont7
  %3 = load ptr, ptr %__data_.i.i.i.i19, align 8, !tbaa !10
  call void @_ZdlPv(ptr noundef %3) #21
  br label %_ZNSt3__112basic_stringIcNS_11char_traitsIcEENS_9allocatorIcEEED2Ev.exit

_ZNSt3__112basic_stringIcNS_11char_traitsIcEENS_9allocatorIcEEED2Ev.exit: ; preds = %invoke.cont7, %if.then.i
  %bf.load.i.i22 = load i8, ptr %ref.tmp2, align 8
  %bf.clear.i.i23 = and i8 %bf.load.i.i22, 1
  %tobool.i.not.i24 = icmp eq i8 %bf.clear.i.i23, 0
  br i1 %tobool.i.not.i24, label %_ZNSt3__112basic_stringIcNS_11char_traitsIcEENS_9allocatorIcEEED2Ev.exit27, label %if.then.i26

if.then.i26:                                      ; preds = %_ZNSt3__112basic_stringIcNS_11char_traitsIcEENS_9allocatorIcEEED2Ev.exit
  %__data_.i.i25 = getelementptr inbounds %"struct.std::__1::basic_string<char>::__long", ptr %ref.tmp2, i64 0, i32 2
  %4 = load ptr, ptr %__data_.i.i25, align 8, !tbaa !10
  call void @_ZdlPv(ptr noundef %4) #21
  br label %_ZNSt3__112basic_stringIcNS_11char_traitsIcEENS_9allocatorIcEEED2Ev.exit27

_ZNSt3__112basic_stringIcNS_11char_traitsIcEENS_9allocatorIcEEED2Ev.exit27: ; preds = %_ZNSt3__112basic_stringIcNS_11char_traitsIcEENS_9allocatorIcEEED2Ev.exit, %if.then.i26
  call void @llvm.lifetime.end.p0(i64 24, ptr nonnull %ref.tmp2) #20
  call void @llvm.lifetime.end.p0(i64 24, ptr nonnull %ref.tmp1) #20
  %bf.load.i.i28 = load i8, ptr %ref.tmp, align 8
  %bf.clear.i.i29 = and i8 %bf.load.i.i28, 1
  %tobool.i.not.i30 = icmp eq i8 %bf.clear.i.i29, 0
  br i1 %tobool.i.not.i30, label %_ZNSt3__112basic_stringIcNS_11char_traitsIcEENS_9allocatorIcEEED2Ev.exit33, label %if.then.i32

if.then.i32:                                      ; preds = %_ZNSt3__112basic_stringIcNS_11char_traitsIcEENS_9allocatorIcEEED2Ev.exit27
  %5 = load ptr, ptr %__data_.i.i.i.i, align 8, !tbaa !10
  call void @_ZdlPv(ptr noundef %5) #21
  br label %_ZNSt3__112basic_stringIcNS_11char_traitsIcEENS_9allocatorIcEEED2Ev.exit33

_ZNSt3__112basic_stringIcNS_11char_traitsIcEENS_9allocatorIcEEED2Ev.exit33: ; preds = %_ZNSt3__112basic_stringIcNS_11char_traitsIcEENS_9allocatorIcEEED2Ev.exit27, %if.then.i32
  call void @llvm.lifetime.end.p0(i64 24, ptr nonnull %ref.tmp) #20
  ret void

lpad:                                             ; preds = %if.else.i.i, %if.then.i.i
  %6 = landingpad { ptr, i32 }
          cleanup
  br label %ehcleanup8

lpad3:                                            ; preds = %invoke.cont
  %7 = landingpad { ptr, i32 }
          cleanup
  br label %ehcleanup

lpad6:                                            ; preds = %invoke.cont4
  %8 = landingpad { ptr, i32 }
          cleanup
  %bf.load.i.i34 = load i8, ptr %ref.tmp1, align 8
  %bf.clear.i.i35 = and i8 %bf.load.i.i34, 1
  %tobool.i.not.i36 = icmp eq i8 %bf.clear.i.i35, 0
  br i1 %tobool.i.not.i36, label %ehcleanup, label %if.then.i38

if.then.i38:                                      ; preds = %lpad6
  %9 = load ptr, ptr %__data_.i.i.i.i19, align 8, !tbaa !10
  call void @_ZdlPv(ptr noundef %9) #21
  br label %ehcleanup

ehcleanup:                                        ; preds = %if.then.i38, %lpad6, %lpad3
  %.pn = phi { ptr, i32 } [ %7, %lpad3 ], [ %8, %lpad6 ], [ %8, %if.then.i38 ]
  %bf.load.i.i40 = load i8, ptr %ref.tmp2, align 8
  %bf.clear.i.i41 = and i8 %bf.load.i.i40, 1
  %tobool.i.not.i42 = icmp eq i8 %bf.clear.i.i41, 0
  br i1 %tobool.i.not.i42, label %ehcleanup8, label %if.then.i44

if.then.i44:                                      ; preds = %ehcleanup
  %__data_.i.i43 = getelementptr inbounds %"struct.std::__1::basic_string<char>::__long", ptr %ref.tmp2, i64 0, i32 2
  %10 = load ptr, ptr %__data_.i.i43, align 8, !tbaa !10
  call void @_ZdlPv(ptr noundef %10) #21
  br label %ehcleanup8

ehcleanup8:                                       ; preds = %if.then.i44, %ehcleanup, %lpad
  %.pn.pn = phi { ptr, i32 } [ %6, %lpad ], [ %.pn, %ehcleanup ], [ %.pn, %if.then.i44 ]
  call void @llvm.lifetime.end.p0(i64 24, ptr nonnull %ref.tmp2) #20
  call void @llvm.lifetime.end.p0(i64 24, ptr nonnull %ref.tmp1) #20
  %bf.load.i.i46 = load i8, ptr %ref.tmp, align 8
  %bf.clear.i.i47 = and i8 %bf.load.i.i46, 1
  %tobool.i.not.i48 = icmp eq i8 %bf.clear.i.i47, 0
  br i1 %tobool.i.not.i48, label %_ZNSt3__112basic_stringIcNS_11char_traitsIcEENS_9allocatorIcEEED2Ev.exit51, label %if.then.i50

if.then.i50:                                      ; preds = %ehcleanup8
  %11 = load ptr, ptr %__data_.i.i.i.i, align 8, !tbaa !10
  call void @_ZdlPv(ptr noundef %11) #21
  br label %_ZNSt3__112basic_stringIcNS_11char_traitsIcEENS_9allocatorIcEEED2Ev.exit51

_ZNSt3__112basic_stringIcNS_11char_traitsIcEENS_9allocatorIcEEED2Ev.exit51: ; preds = %ehcleanup8, %if.then.i50
  call void @llvm.lifetime.end.p0(i64 24, ptr nonnull %ref.tmp) #20
  resume { ptr, i32 } %.pn.pn
}

; Function Attrs: uwtable
define internal fastcc void @_ZN9benchmark12_GLOBAL__N_18FormatKVERKNSt3__112basic_stringIcNS1_11char_traitsIcEENS1_9allocatorIcEEEEl(ptr noalias align 8 %agg.result, ptr noundef nonnull align 8 dereferenceable(24) %key, i64 noundef %value) unnamed_addr #1 personality ptr @__gxx_personality_v0 {
entry:
  %__c.addr.i = alloca i8, align 1
  %ss = alloca %"class.std::__1::basic_stringstream", align 8
  %ref.tmp = alloca %"class.std::__1::basic_string", align 8
  call void @llvm.lifetime.start.p0(i64 280, ptr nonnull %ss) #20
  %0 = getelementptr inbounds i8, ptr %ss, i64 128
  %add.ptr2.i = getelementptr inbounds i8, ptr %ss, i64 16
  store ptr getelementptr inbounds ({ [5 x ptr], [5 x ptr], [5 x ptr] }, ptr @_ZTVNSt3__118basic_stringstreamIcNS_11char_traitsIcEENS_9allocatorIcEEEE, i64 0, inrange i32 1, i64 3), ptr %add.ptr2.i, align 8, !tbaa !63
  %__sb_.i = getelementptr inbounds %"class.std::__1::basic_stringstream", ptr %ss, i64 0, i32 1
  store ptr getelementptr inbounds ({ [5 x ptr], [5 x ptr] }, ptr @_ZTCNSt3__118basic_stringstreamIcNS_11char_traitsIcEENS_9allocatorIcEEEE0_NS_13basic_istreamIcS2_EE, i64 0, inrange i32 0, i64 3), ptr %ss, align 8, !tbaa !63
  store ptr getelementptr inbounds ({ [5 x ptr], [5 x ptr] }, ptr @_ZTCNSt3__118basic_stringstreamIcNS_11char_traitsIcEENS_9allocatorIcEEEE0_NS_13basic_istreamIcS2_EE, i64 0, inrange i32 1, i64 3), ptr %0, align 8, !tbaa !63
  %__gc_.i.i.i = getelementptr inbounds %"class.std::__1::basic_istream", ptr %ss, i64 0, i32 1
  store i64 0, ptr %__gc_.i.i.i, align 8, !tbaa !65
  invoke void @_ZNSt3__18ios_base4initEPv(ptr noundef nonnull align 8 dereferenceable(136) %0, ptr noundef nonnull %__sb_.i)
          to label %invoke.cont.i unwind label %lpad.i

invoke.cont.i:                                    ; preds = %entry
  %__tie_.i.i.i.i = getelementptr inbounds i8, ptr %ss, i64 264
  store ptr null, ptr %__tie_.i.i.i.i, align 8, !tbaa !67
  %__fill_.i.i.i.i = getelementptr inbounds i8, ptr %ss, i64 272
  store i32 -1, ptr %__fill_.i.i.i.i, align 8, !tbaa !70
  store ptr getelementptr inbounds ({ [5 x ptr], [5 x ptr], [5 x ptr] }, ptr @_ZTVNSt3__118basic_stringstreamIcNS_11char_traitsIcEENS_9allocatorIcEEEE, i64 0, inrange i32 0, i64 3), ptr %ss, align 8, !tbaa !63
  store ptr getelementptr inbounds ({ [5 x ptr], [5 x ptr], [5 x ptr] }, ptr @_ZTVNSt3__118basic_stringstreamIcNS_11char_traitsIcEENS_9allocatorIcEEEE, i64 0, inrange i32 2, i64 3), ptr %0, align 8, !tbaa !63
  store ptr getelementptr inbounds ({ [5 x ptr], [5 x ptr], [5 x ptr] }, ptr @_ZTVNSt3__118basic_stringstreamIcNS_11char_traitsIcEENS_9allocatorIcEEEE, i64 0, inrange i32 1, i64 3), ptr %add.ptr2.i, align 8, !tbaa !63
  invoke void @_ZNSt3__115basic_streambufIcNS_11char_traitsIcEEEC2Ev(ptr noundef nonnull align 8 dereferenceable(64) %__sb_.i)
          to label %_ZNSt3__118basic_stringstreamIcNS_11char_traitsIcEENS_9allocatorIcEEEC1B7v170000Ev.exit unwind label %lpad6.i

lpad.i:                                           ; preds = %entry
  %1 = landingpad { ptr, i32 }
          cleanup
  br label %ehcleanup.i

lpad6.i:                                          ; preds = %invoke.cont.i
  %2 = landingpad { ptr, i32 }
          cleanup
  call void @_ZNSt3__114basic_iostreamIcNS_11char_traitsIcEEED2Ev(ptr noundef nonnull align 8 dereferenceable(24) %ss, ptr noundef nonnull getelementptr inbounds ([10 x ptr], ptr @_ZTTNSt3__118basic_stringstreamIcNS_11char_traitsIcEENS_9allocatorIcEEEE, i64 0, i64 1)) #20
  br label %ehcleanup.i

common.resume:                                    ; preds = %ehcleanup11, %ehcleanup.i
  %common.resume.op = phi { ptr, i32 } [ %.pn.i, %ehcleanup.i ], [ %.pn14, %ehcleanup11 ]
  resume { ptr, i32 } %common.resume.op

ehcleanup.i:                                      ; preds = %lpad6.i, %lpad.i
  %.pn.i = phi { ptr, i32 } [ %2, %lpad6.i ], [ %1, %lpad.i ]
  call void @_ZNSt3__19basic_iosIcNS_11char_traitsIcEEED2Ev(ptr noundef nonnull align 8 dereferenceable(148) %0) #20
  br label %common.resume

_ZNSt3__118basic_stringstreamIcNS_11char_traitsIcEENS_9allocatorIcEEEC1B7v170000Ev.exit: ; preds = %invoke.cont.i
  store ptr getelementptr inbounds ({ [16 x ptr] }, ptr @_ZTVNSt3__115basic_stringbufIcNS_11char_traitsIcEENS_9allocatorIcEEEE, i64 0, inrange i32 0, i64 2), ptr %__sb_.i, align 8, !tbaa !63
  %__str_.i.i = getelementptr inbounds %"class.std::__1::basic_stringstream", ptr %ss, i64 0, i32 1, i32 1
  %__mode_.i.i = getelementptr inbounds %"class.std::__1::basic_stringstream", ptr %ss, i64 0, i32 1, i32 3
  call void @llvm.memset.p0.i64(ptr noundef nonnull align 8 dereferenceable(32) %__str_.i.i, i8 0, i64 32, i1 false)
  store i32 24, ptr %__mode_.i.i, align 8, !tbaa !71
  call void @llvm.lifetime.start.p0(i64 1, ptr nonnull %__c.addr.i)
  store i8 34, ptr %__c.addr.i, align 1, !tbaa !10
  %call.i17 = invoke noundef nonnull align 8 dereferenceable(8) ptr @_ZNSt3__124__put_character_sequenceB7v170000IcNS_11char_traitsIcEEEERNS_13basic_ostreamIT_T0_EES7_PKS4_m(ptr noundef nonnull align 8 dereferenceable(8) %add.ptr2.i, ptr noundef nonnull %__c.addr.i, i64 noundef 1)
          to label %invoke.cont unwind label %lpad

invoke.cont:                                      ; preds = %_ZNSt3__118basic_stringstreamIcNS_11char_traitsIcEENS_9allocatorIcEEEC1B7v170000Ev.exit
  call void @llvm.lifetime.end.p0(i64 1, ptr nonnull %__c.addr.i)
  call void @llvm.lifetime.start.p0(i64 24, ptr nonnull %ref.tmp) #20
  invoke fastcc void @_ZN9benchmark12_GLOBAL__N_19StrEscapeERKNSt3__112basic_stringIcNS1_11char_traitsIcEENS1_9allocatorIcEEEE(ptr noalias nonnull align 8 %ref.tmp, ptr noundef nonnull align 8 dereferenceable(24) %key)
          to label %invoke.cont2 unwind label %lpad1

invoke.cont2:                                     ; preds = %invoke.cont
  %bf.load.i.i.i.i = load i8, ptr %ref.tmp, align 8
  %bf.clear.i.i.i.i = and i8 %bf.load.i.i.i.i, 1
  %tobool.i.not.i.i.i = icmp eq i8 %bf.clear.i.i.i.i, 0
  %__data_.i.i.i.i = getelementptr inbounds %"struct.std::__1::basic_string<char>::__long", ptr %ref.tmp, i64 0, i32 2
  %3 = load ptr, ptr %__data_.i.i.i.i, align 8
  %__data_.i4.i.i.i = getelementptr inbounds %"struct.std::__1::basic_string<char>::__short", ptr %ref.tmp, i64 0, i32 2
  %cond.i.i.i = select i1 %tobool.i.not.i.i.i, ptr %__data_.i4.i.i.i, ptr %3
  %__size_.i.i.i = getelementptr inbounds %"struct.std::__1::basic_string<char>::__long", ptr %ref.tmp, i64 0, i32 1
  %4 = load i64, ptr %__size_.i.i.i, align 8
  %bf.lshr.i.i.i = lshr i8 %bf.load.i.i.i.i, 1
  %conv.i.i.i = zext i8 %bf.lshr.i.i.i to i64
  %cond.i.i = select i1 %tobool.i.not.i.i.i, i64 %conv.i.i.i, i64 %4
  %call2.i18 = invoke noundef nonnull align 8 dereferenceable(8) ptr @_ZNSt3__124__put_character_sequenceB7v170000IcNS_11char_traitsIcEEEERNS_13basic_ostreamIT_T0_EES7_PKS4_m(ptr noundef nonnull align 8 dereferenceable(8) %call.i17, ptr noundef %cond.i.i.i, i64 noundef %cond.i.i)
          to label %invoke.cont4 unwind label %lpad3

invoke.cont4:                                     ; preds = %invoke.cont2
  %call1.i19 = invoke noundef nonnull align 8 dereferenceable(8) ptr @_ZNSt3__124__put_character_sequenceB7v170000IcNS_11char_traitsIcEEEERNS_13basic_ostreamIT_T0_EES7_PKS4_m(ptr noundef nonnull align 8 dereferenceable(8) %call2.i18, ptr noundef nonnull @.str.56, i64 noundef 3)
          to label %invoke.cont6 unwind label %lpad3

invoke.cont6:                                     ; preds = %invoke.cont4
  %call9 = invoke noundef nonnull align 8 dereferenceable(8) ptr @_ZNSt3__113basic_ostreamIcNS_11char_traitsIcEEElsEl(ptr noundef nonnull align 8 dereferenceable(8) %call1.i19, i64 noundef %value)
          to label %invoke.cont8 unwind label %lpad3

invoke.cont8:                                     ; preds = %invoke.cont6
  %bf.load.i.i = load i8, ptr %ref.tmp, align 8
  %bf.clear.i.i = and i8 %bf.load.i.i, 1
  %tobool.i.not.i = icmp eq i8 %bf.clear.i.i, 0
  br i1 %tobool.i.not.i, label %_ZNSt3__112basic_stringIcNS_11char_traitsIcEENS_9allocatorIcEEED2Ev.exit, label %if.then.i

if.then.i:                                        ; preds = %invoke.cont8
  %5 = load ptr, ptr %__data_.i.i.i.i, align 8, !tbaa !10
  call void @_ZdlPv(ptr noundef %5) #21
  br label %_ZNSt3__112basic_stringIcNS_11char_traitsIcEENS_9allocatorIcEEED2Ev.exit

_ZNSt3__112basic_stringIcNS_11char_traitsIcEENS_9allocatorIcEEED2Ev.exit: ; preds = %invoke.cont8, %if.then.i
  call void @llvm.lifetime.end.p0(i64 24, ptr nonnull %ref.tmp) #20
  invoke void @_ZNKSt3__115basic_stringbufIcNS_11char_traitsIcEENS_9allocatorIcEEE3strEv(ptr sret(%"class.std::__1::basic_string") align 8 %agg.result, ptr noundef nonnull align 8 dereferenceable(100) %__sb_.i)
          to label %invoke.cont10 unwind label %lpad

invoke.cont10:                                    ; preds = %_ZNSt3__112basic_stringIcNS_11char_traitsIcEENS_9allocatorIcEEED2Ev.exit
  store ptr getelementptr inbounds ({ [5 x ptr], [5 x ptr], [5 x ptr] }, ptr @_ZTVNSt3__118basic_stringstreamIcNS_11char_traitsIcEENS_9allocatorIcEEEE, i64 0, inrange i32 0, i64 3), ptr %ss, align 8, !tbaa !63
  store ptr getelementptr inbounds ({ [5 x ptr], [5 x ptr], [5 x ptr] }, ptr @_ZTVNSt3__118basic_stringstreamIcNS_11char_traitsIcEENS_9allocatorIcEEEE, i64 0, inrange i32 2, i64 3), ptr %0, align 8, !tbaa !63
  store ptr getelementptr inbounds ({ [5 x ptr], [5 x ptr], [5 x ptr] }, ptr @_ZTVNSt3__118basic_stringstreamIcNS_11char_traitsIcEENS_9allocatorIcEEEE, i64 0, inrange i32 1, i64 3), ptr %add.ptr2.i, align 8, !tbaa !63
  store ptr getelementptr inbounds ({ [16 x ptr] }, ptr @_ZTVNSt3__115basic_stringbufIcNS_11char_traitsIcEENS_9allocatorIcEEEE, i64 0, inrange i32 0, i64 2), ptr %__sb_.i, align 8, !tbaa !63
  %bf.load.i.i.i.i.i = load i8, ptr %__str_.i.i, align 8
  %bf.clear.i.i.i.i.i = and i8 %bf.load.i.i.i.i.i, 1
  %tobool.i.not.i.i.i.i = icmp eq i8 %bf.clear.i.i.i.i.i, 0
  br i1 %tobool.i.not.i.i.i.i, label %_ZNSt3__118basic_stringstreamIcNS_11char_traitsIcEENS_9allocatorIcEEED1Ev.exit, label %if.then.i.i.i.i

if.then.i.i.i.i:                                  ; preds = %invoke.cont10
  %__data_.i.i.i.i.i = getelementptr inbounds %"class.std::__1::basic_stringstream", ptr %ss, i64 0, i32 1, i32 1, i32 0, i32 0, i32 0, i32 0, i32 0, i32 2
  %6 = load ptr, ptr %__data_.i.i.i.i.i, align 8, !tbaa !10
  call void @_ZdlPv(ptr noundef %6) #21
  br label %_ZNSt3__118basic_stringstreamIcNS_11char_traitsIcEENS_9allocatorIcEEED1Ev.exit

_ZNSt3__118basic_stringstreamIcNS_11char_traitsIcEENS_9allocatorIcEEED1Ev.exit: ; preds = %invoke.cont10, %if.then.i.i.i.i
  call void @_ZNSt3__115basic_streambufIcNS_11char_traitsIcEEED2Ev(ptr noundef nonnull align 8 dereferenceable(64) %__sb_.i) #20
  call void @_ZNSt3__114basic_iostreamIcNS_11char_traitsIcEEED2Ev(ptr noundef nonnull align 8 dereferenceable(24) %ss, ptr noundef nonnull getelementptr inbounds ([10 x ptr], ptr @_ZTTNSt3__118basic_stringstreamIcNS_11char_traitsIcEENS_9allocatorIcEEEE, i64 0, i64 1)) #20
  call void @_ZNSt3__19basic_iosIcNS_11char_traitsIcEEED2Ev(ptr noundef nonnull align 8 dereferenceable(148) %0) #20
  call void @llvm.lifetime.end.p0(i64 280, ptr nonnull %ss) #20
  ret void

lpad:                                             ; preds = %_ZNSt3__112basic_stringIcNS_11char_traitsIcEENS_9allocatorIcEEED2Ev.exit, %_ZNSt3__118basic_stringstreamIcNS_11char_traitsIcEENS_9allocatorIcEEEC1B7v170000Ev.exit
  %7 = landingpad { ptr, i32 }
          cleanup
  br label %ehcleanup11

lpad1:                                            ; preds = %invoke.cont
  %8 = landingpad { ptr, i32 }
          cleanup
  br label %ehcleanup

lpad3:                                            ; preds = %invoke.cont4, %invoke.cont2, %invoke.cont6
  %9 = landingpad { ptr, i32 }
          cleanup
  %bf.load.i.i21 = load i8, ptr %ref.tmp, align 8
  %bf.clear.i.i22 = and i8 %bf.load.i.i21, 1
  %tobool.i.not.i23 = icmp eq i8 %bf.clear.i.i22, 0
  br i1 %tobool.i.not.i23, label %ehcleanup, label %if.then.i25

if.then.i25:                                      ; preds = %lpad3
  %10 = load ptr, ptr %__data_.i.i.i.i, align 8, !tbaa !10
  call void @_ZdlPv(ptr noundef %10) #21
  br label %ehcleanup

ehcleanup:                                        ; preds = %if.then.i25, %lpad3, %lpad1
  %.pn = phi { ptr, i32 } [ %8, %lpad1 ], [ %9, %lpad3 ], [ %9, %if.then.i25 ]
  call void @llvm.lifetime.end.p0(i64 24, ptr nonnull %ref.tmp) #20
  br label %ehcleanup11

ehcleanup11:                                      ; preds = %ehcleanup, %lpad
  %.pn14 = phi { ptr, i32 } [ %7, %lpad ], [ %.pn, %ehcleanup ]
  call void @_ZNSt3__118basic_stringstreamIcNS_11char_traitsIcEENS_9allocatorIcEEED1Ev(ptr noundef nonnull align 8 dereferenceable(128) %ss) #20
  call void @llvm.lifetime.end.p0(i64 280, ptr nonnull %ss) #20
  br label %common.resume
}

declare noundef nonnull align 8 dereferenceable(8) ptr @_ZNSt3__113basic_ostreamIcNS_11char_traitsIcEEElsEd(ptr noundef nonnull align 8 dereferenceable(8), double noundef) local_unnamed_addr #0

; Function Attrs: mustprogress nocallback nofree nounwind willreturn memory(argmem: readwrite)
declare void @llvm.memcpy.p0.p0.i64(ptr noalias nocapture writeonly, ptr noalias nocapture readonly, i64, i1 immarg) #3

; Function Attrs: uwtable
define hidden void @_ZN9benchmark12JSONReporter10ReportRunsERKNSt3__16vectorINS_17BenchmarkReporter3RunENS1_9allocatorIS4_EEEE(ptr nocapture noundef nonnull align 8 dereferenceable(25) %this, ptr nocapture noundef nonnull readonly align 8 dereferenceable(24) %reports) unnamed_addr #1 align 2 personality ptr @__gxx_personality_v0 {
entry:
  %__c.addr.i = alloca i8, align 1
  %indent = alloca %"class.std::__1::basic_string", align 8
  %0 = load ptr, ptr %reports, align 8, !tbaa !75
  %__end_.i = getelementptr inbounds %"class.std::__1::vector.24", ptr %reports, i64 0, i32 1
  %1 = load ptr, ptr %__end_.i, align 8, !tbaa !79
  %cmp.i = icmp eq ptr %0, %1
  br i1 %cmp.i, label %return, label %if.end

if.end:                                           ; preds = %entry
  call void @llvm.lifetime.start.p0(i64 24, ptr nonnull %indent) #20
  store i8 8, ptr %indent, align 8
  %__data_.i.i.i = getelementptr inbounds %"struct.std::__1::basic_string<char>::__short", ptr %indent, i64 0, i32 2
  store i32 538976288, ptr %__data_.i.i.i, align 1
  %arrayidx.i.i = getelementptr inbounds %"struct.std::__1::basic_string<char>::__short", ptr %indent, i64 0, i32 2, i64 4
  store i8 0, ptr %arrayidx.i.i, align 1, !tbaa !10
  %output_stream_.i = getelementptr inbounds %"class.benchmark::BenchmarkReporter", ptr %this, i64 0, i32 1
  %2 = load ptr, ptr %output_stream_.i, align 8, !tbaa !5
  %first_report_ = getelementptr inbounds %"class.benchmark::JSONReporter", ptr %this, i64 0, i32 1
  %3 = load i8, ptr %first_report_, align 8, !tbaa !80, !range !82, !noundef !83
  %tobool.not = icmp eq i8 %3, 0
  br i1 %tobool.not, label %if.then3, label %if.end6

if.then3:                                         ; preds = %if.end
  %call1.i46 = invoke noundef nonnull align 8 dereferenceable(8) ptr @_ZNSt3__124__put_character_sequenceB7v170000IcNS_11char_traitsIcEEEERNS_13basic_ostreamIT_T0_EES7_PKS4_m(ptr noundef nonnull align 8 dereferenceable(8) %2, ptr noundef nonnull @.str.3, i64 noundef 2)
          to label %if.then3.if.end6_crit_edge unwind label %lpad

if.then3.if.end6_crit_edge:                       ; preds = %if.then3
  %.pre = load ptr, ptr %reports, align 8, !tbaa !75
  %.pre82 = load ptr, ptr %__end_.i, align 8, !tbaa !79
  br label %if.end6

lpad:                                             ; preds = %if.then3
  %4 = landingpad { ptr, i32 }
          cleanup
  br label %ehcleanup34

if.end6:                                          ; preds = %if.then3.if.end6_crit_edge, %if.end
  %5 = phi ptr [ %.pre82, %if.then3.if.end6_crit_edge ], [ %1, %if.end ]
  %6 = phi ptr [ %.pre, %if.then3.if.end6_crit_edge ], [ %0, %if.end ]
  store i8 0, ptr %first_report_, align 8, !tbaa !80
  %cmp.i.i.not80 = icmp eq ptr %6, %5
  br i1 %cmp.i.i.not80, label %_ZNSt3__112basic_stringIcNS_11char_traitsIcEENS_9allocatorIcEEED2Ev.exit, label %for.body.lr.ph

for.body.lr.ph:                                   ; preds = %if.end6
  %__data_.i.i.i.i = getelementptr inbounds %"struct.std::__1::basic_string<char>::__long", ptr %indent, i64 0, i32 2
  %__size_.i.i.i = getelementptr inbounds %"struct.std::__1::basic_string<char>::__long", ptr %indent, i64 0, i32 1
  br label %for.body

for.cond.cleanup:                                 ; preds = %if.end32
  %bf.load.i.i.pre = load i8, ptr %indent, align 8
  %7 = and i8 %bf.load.i.i.pre, 1
  %8 = icmp eq i8 %7, 0
  br i1 %8, label %_ZNSt3__112basic_stringIcNS_11char_traitsIcEENS_9allocatorIcEEED2Ev.exit, label %if.then.i

if.then.i:                                        ; preds = %for.cond.cleanup
  %__data_.i.i = getelementptr inbounds %"struct.std::__1::basic_string<char>::__long", ptr %indent, i64 0, i32 2
  %9 = load ptr, ptr %__data_.i.i, align 8, !tbaa !10
  call void @_ZdlPv(ptr noundef %9) #21
  br label %_ZNSt3__112basic_stringIcNS_11char_traitsIcEENS_9allocatorIcEEED2Ev.exit

_ZNSt3__112basic_stringIcNS_11char_traitsIcEENS_9allocatorIcEEED2Ev.exit: ; preds = %if.end6, %for.cond.cleanup, %if.then.i
  call void @llvm.lifetime.end.p0(i64 24, ptr nonnull %indent) #20
  br label %return

for.body:                                         ; preds = %for.body.lr.ph, %if.end32
  %it.sroa.0.081 = phi ptr [ %6, %for.body.lr.ph ], [ %incdec.ptr.i, %if.end32 ]
  %bf.load.i.i.i.i = load i8, ptr %indent, align 8
  %bf.clear.i.i.i.i = and i8 %bf.load.i.i.i.i, 1
  %tobool.i.not.i.i.i = icmp eq i8 %bf.clear.i.i.i.i, 0
  %10 = load ptr, ptr %__data_.i.i.i.i, align 8
  %cond.i.i.i = select i1 %tobool.i.not.i.i.i, ptr %__data_.i.i.i, ptr %10
  %11 = load i64, ptr %__size_.i.i.i, align 8
  %bf.lshr.i.i.i = lshr i8 %bf.load.i.i.i.i, 1
  %conv.i.i.i = zext i8 %bf.lshr.i.i.i to i64
  %cond.i.i = select i1 %tobool.i.not.i.i.i, i64 %conv.i.i.i, i64 %11
  %call2.i48 = invoke noundef nonnull align 8 dereferenceable(8) ptr @_ZNSt3__124__put_character_sequenceB7v170000IcNS_11char_traitsIcEEEERNS_13basic_ostreamIT_T0_EES7_PKS4_m(ptr noundef nonnull align 8 dereferenceable(8) %2, ptr noundef %cond.i.i.i, i64 noundef %cond.i.i)
          to label %invoke.cont13 unwind label %lpad12

invoke.cont13:                                    ; preds = %for.body
  %call1.i50 = invoke noundef nonnull align 8 dereferenceable(8) ptr @_ZNSt3__124__put_character_sequenceB7v170000IcNS_11char_traitsIcEEEERNS_13basic_ostreamIT_T0_EES7_PKS4_m(ptr noundef nonnull align 8 dereferenceable(8) %call2.i48, ptr noundef nonnull @.str, i64 noundef 2)
          to label %invoke.cont15 unwind label %lpad12

invoke.cont15:                                    ; preds = %invoke.cont13
  invoke void @_ZN9benchmark12JSONReporter12PrintRunDataERKNS_17BenchmarkReporter3RunE(ptr noundef nonnull align 8 dereferenceable(25) %this, ptr noundef nonnull align 8 dereferenceable(424) %it.sroa.0.081)
          to label %invoke.cont18 unwind label %lpad12

invoke.cont18:                                    ; preds = %invoke.cont15
  %bf.load.i.i.i.i52 = load i8, ptr %indent, align 8
  %bf.clear.i.i.i.i53 = and i8 %bf.load.i.i.i.i52, 1
  %tobool.i.not.i.i.i54 = icmp eq i8 %bf.clear.i.i.i.i53, 0
  %12 = load ptr, ptr %__data_.i.i.i.i, align 8
  %cond.i.i.i57 = select i1 %tobool.i.not.i.i.i54, ptr %__data_.i.i.i, ptr %12
  %13 = load i64, ptr %__size_.i.i.i, align 8
  %bf.lshr.i.i.i59 = lshr i8 %bf.load.i.i.i.i52, 1
  %conv.i.i.i60 = zext i8 %bf.lshr.i.i.i59 to i64
  %cond.i.i61 = select i1 %tobool.i.not.i.i.i54, i64 %conv.i.i.i60, i64 %13
  %call2.i62 = invoke noundef nonnull align 8 dereferenceable(8) ptr @_ZNSt3__124__put_character_sequenceB7v170000IcNS_11char_traitsIcEEEERNS_13basic_ostreamIT_T0_EES7_PKS4_m(ptr noundef nonnull align 8 dereferenceable(8) %2, ptr noundef %cond.i.i.i57, i64 noundef %cond.i.i61)
          to label %invoke.cont19 unwind label %lpad12

invoke.cont19:                                    ; preds = %invoke.cont18
  call void @llvm.lifetime.start.p0(i64 1, ptr nonnull %__c.addr.i)
  store i8 125, ptr %__c.addr.i, align 1, !tbaa !10
  %call.i64 = invoke noundef nonnull align 8 dereferenceable(8) ptr @_ZNSt3__124__put_character_sequenceB7v170000IcNS_11char_traitsIcEEEERNS_13basic_ostreamIT_T0_EES7_PKS4_m(ptr noundef nonnull align 8 dereferenceable(8) %call2.i62, ptr noundef nonnull %__c.addr.i, i64 noundef 1)
          to label %invoke.cont21 unwind label %lpad12

invoke.cont21:                                    ; preds = %invoke.cont19
  call void @llvm.lifetime.end.p0(i64 1, ptr nonnull %__c.addr.i)
  %incdec.ptr.i = getelementptr inbounds %"struct.benchmark::BenchmarkReporter::Run", ptr %it.sroa.0.081, i64 1
  %14 = load ptr, ptr %__end_.i, align 8, !tbaa !79
  %cmp.i.i66.not = icmp eq ptr %incdec.ptr.i, %14
  br i1 %cmp.i.i66.not, label %if.end32, label %if.then28

if.then28:                                        ; preds = %invoke.cont21
  %call1.i68 = invoke noundef nonnull align 8 dereferenceable(8) ptr @_ZNSt3__124__put_character_sequenceB7v170000IcNS_11char_traitsIcEEEERNS_13basic_ostreamIT_T0_EES7_PKS4_m(ptr noundef nonnull align 8 dereferenceable(8) %2, ptr noundef nonnull @.str.3, i64 noundef 2)
          to label %if.then28.if.end32_crit_edge unwind label %lpad29

if.then28.if.end32_crit_edge:                     ; preds = %if.then28
  %.pre83 = load ptr, ptr %__end_.i, align 8, !tbaa !79
  br label %if.end32

lpad12:                                           ; preds = %invoke.cont19, %invoke.cont18, %invoke.cont13, %for.body, %invoke.cont15
  %15 = landingpad { ptr, i32 }
          cleanup
  br label %ehcleanup34

lpad29:                                           ; preds = %if.then28
  %16 = landingpad { ptr, i32 }
          cleanup
  br label %ehcleanup34

if.end32:                                         ; preds = %if.then28.if.end32_crit_edge, %invoke.cont21
  %17 = phi ptr [ %.pre83, %if.then28.if.end32_crit_edge ], [ %14, %invoke.cont21 ]
  %cmp.i.i.not = icmp eq ptr %incdec.ptr.i, %17
  br i1 %cmp.i.i.not, label %for.cond.cleanup, label %for.body, !llvm.loop !84

return:                                           ; preds = %entry, %_ZNSt3__112basic_stringIcNS_11char_traitsIcEENS_9allocatorIcEEED2Ev.exit
  ret void

ehcleanup34:                                      ; preds = %lpad12, %lpad29, %lpad
  %.pn.pn = phi { ptr, i32 } [ %4, %lpad ], [ %16, %lpad29 ], [ %15, %lpad12 ]
  %bf.load.i.i71 = load i8, ptr %indent, align 8
  %bf.clear.i.i72 = and i8 %bf.load.i.i71, 1
  %tobool.i.not.i73 = icmp eq i8 %bf.clear.i.i72, 0
  br i1 %tobool.i.not.i73, label %_ZNSt3__112basic_stringIcNS_11char_traitsIcEENS_9allocatorIcEEED2Ev.exit76, label %if.then.i75

if.then.i75:                                      ; preds = %ehcleanup34
  %__data_.i.i74 = getelementptr inbounds %"struct.std::__1::basic_string<char>::__long", ptr %indent, i64 0, i32 2
  %18 = load ptr, ptr %__data_.i.i74, align 8, !tbaa !10
  call void @_ZdlPv(ptr noundef %18) #21
  br label %_ZNSt3__112basic_stringIcNS_11char_traitsIcEENS_9allocatorIcEEED2Ev.exit76

_ZNSt3__112basic_stringIcNS_11char_traitsIcEENS_9allocatorIcEEED2Ev.exit76: ; preds = %ehcleanup34, %if.then.i75
  call void @llvm.lifetime.end.p0(i64 24, ptr nonnull %indent) #20
  resume { ptr, i32 } %.pn.pn
}

; Function Attrs: uwtable
define hidden void @_ZN9benchmark12JSONReporter12PrintRunDataERKNS_17BenchmarkReporter3RunE(ptr nocapture noundef nonnull readonly align 8 dereferenceable(25) %this, ptr noundef nonnull align 8 dereferenceable(424) %run) local_unnamed_addr #1 align 2 personality ptr @__gxx_personality_v0 {
entry:
  %__c.addr.i = alloca i8, align 1
  %__c.addr.i.i = alloca i8, align 1
  %ss.i = alloca %"class.std::__1::basic_stringstream", align 8
  %ref.tmp.i1619 = alloca %"class.std::__1::basic_string", align 8
  %ref.tmp.i = alloca %"class.std::__1::basic_string", align 8
  %indent = alloca %"class.std::__1::basic_string", align 8
  %ref.tmp = alloca %"class.std::__1::basic_string", align 8
  %ref.tmp4 = alloca %"class.std::__1::basic_string", align 8
  %ref.tmp7 = alloca %"class.std::__1::basic_string", align 8
  %ref.tmp23 = alloca %"class.std::__1::basic_string", align 8
  %ref.tmp24 = alloca %"class.std::__1::basic_string", align 8
  %ref.tmp40 = alloca %"class.std::__1::basic_string", align 8
  %ref.tmp41 = alloca %"class.std::__1::basic_string", align 8
  %ref.tmp57 = alloca %"class.std::__1::basic_string", align 8
  %ref.tmp58 = alloca %"class.std::__1::basic_string", align 8
  %ref.tmp61 = alloca %"class.std::__1::basic_string", align 8
  %ref.tmp79 = alloca %"class.std::__1::basic_string", align 8
  %ref.tmp80 = alloca %"class.std::__1::basic_string", align 8
  %ref.tmp100 = alloca %"class.std::__1::basic_string", align 8
  %ref.tmp101 = alloca %"class.std::__1::basic_string", align 8
  %ref.tmp117 = alloca %"class.std::__1::basic_string", align 8
  %ref.tmp118 = alloca %"class.std::__1::basic_string", align 8
  %ref.tmp134 = alloca %"class.std::__1::basic_string", align 8
  %ref.tmp135 = alloca %"class.std::__1::basic_string", align 8
  %ref.tmp154 = alloca %"class.std::__1::basic_string", align 8
  %ref.tmp155 = alloca %"class.std::__1::basic_string", align 8
  %ref.tmp171 = alloca %"class.std::__1::basic_string", align 8
  %ref.tmp172 = alloca %"class.std::__1::basic_string", align 8
  %ref.tmp194 = alloca %"class.std::__1::basic_string", align 8
  %ref.tmp195 = alloca %"class.std::__1::basic_string", align 8
  %ref.tmp213 = alloca %"class.std::__1::basic_string", align 8
  %ref.tmp214 = alloca %"class.std::__1::basic_string", align 8
  %ref.tmp234 = alloca %"class.std::__1::basic_string", align 8
  %ref.tmp235 = alloca %"class.std::__1::basic_string", align 8
  %ref.tmp255 = alloca %"class.std::__1::basic_string", align 8
  %ref.tmp256 = alloca %"class.std::__1::basic_string", align 8
  %ref.tmp274 = alloca %"class.std::__1::basic_string", align 8
  %ref.tmp275 = alloca %"class.std::__1::basic_string", align 8
  %ref.tmp291 = alloca %"class.std::__1::basic_string", align 8
  %ref.tmp292 = alloca %"class.std::__1::basic_string", align 8
  %ref.tmp308 = alloca %"class.std::__1::basic_string", align 8
  %ref.tmp309 = alloca %"class.std::__1::basic_string", align 8
  %ref.tmp326 = alloca %"class.std::__1::basic_string", align 8
  %ref.tmp327 = alloca %"class.std::__1::basic_string", align 8
  %ref.tmp347 = alloca %"class.std::__1::basic_string", align 8
  %ref.tmp348 = alloca %"class.std::__1::basic_string", align 8
  %ref.tmp366 = alloca %"class.std::__1::basic_string", align 8
  %ref.tmp367 = alloca %"class.std::__1::basic_string", align 8
  %ref.tmp385 = alloca %"class.std::__1::basic_string", align 8
  %ref.tmp386 = alloca %"class.std::__1::basic_string", align 8
  %ref.tmp389 = alloca %"class.std::__1::basic_string", align 8
  %ref.tmp407 = alloca %"class.std::__1::basic_string", align 8
  %ref.tmp408 = alloca %"class.std::__1::basic_string", align 8
  %ref.tmp429 = alloca %"class.std::__1::basic_string", align 8
  %ref.tmp430 = alloca %"class.std::__1::basic_string", align 8
  %ref.tmp462 = alloca %"class.std::__1::basic_string", align 8
  %ref.tmp487 = alloca %"class.std::__1::basic_string", align 8
  %ref.tmp488 = alloca %"class.std::__1::basic_string", align 8
  %ref.tmp504 = alloca %"class.std::__1::basic_string", align 8
  %ref.tmp505 = alloca %"class.std::__1::basic_string", align 8
  %report_if_present = alloca %class.anon.51, align 8
  %ref.tmp529 = alloca %"class.std::__1::basic_string", align 8
  %ref.tmp530 = alloca %"class.std::__1::basic_string", align 8
  call void @llvm.lifetime.start.p0(i64 24, ptr nonnull %indent) #20
  store i8 12, ptr %indent, align 8
  %__data_.i.i.i = getelementptr inbounds %"struct.std::__1::basic_string<char>::__short", ptr %indent, i64 0, i32 2
  call void @llvm.memset.p0.i64(ptr noundef nonnull align 1 dereferenceable(6) %__data_.i.i.i, i8 32, i64 6, i1 false), !tbaa !10
  %arrayidx.i.i = getelementptr inbounds %"struct.std::__1::basic_string<char>::__short", ptr %indent, i64 0, i32 2, i64 6
  store i8 0, ptr %arrayidx.i.i, align 1, !tbaa !10
  %output_stream_.i = getelementptr inbounds %"class.benchmark::BenchmarkReporter", ptr %this, i64 0, i32 1
  %0 = load ptr, ptr %output_stream_.i, align 8, !tbaa !5
  %__data_.i.i.i.i = getelementptr inbounds %"struct.std::__1::basic_string<char>::__long", ptr %indent, i64 0, i32 2
  %__size_.i.i.i = getelementptr inbounds %"struct.std::__1::basic_string<char>::__long", ptr %indent, i64 0, i32 1
  %call2.i706 = invoke noundef nonnull align 8 dereferenceable(8) ptr @_ZNSt3__124__put_character_sequenceB7v170000IcNS_11char_traitsIcEEEERNS_13basic_ostreamIT_T0_EES7_PKS4_m(ptr noundef nonnull align 8 dereferenceable(8) %0, ptr noundef nonnull %__data_.i.i.i, i64 noundef 6)
          to label %invoke.cont2 unwind label %lpad

invoke.cont2:                                     ; preds = %entry
  call void @llvm.lifetime.start.p0(i64 24, ptr nonnull %ref.tmp) #20
  call void @llvm.lifetime.start.p0(i64 24, ptr nonnull %ref.tmp4) #20
  store i8 8, ptr %ref.tmp4, align 8
  %__data_.i.i.i708 = getelementptr inbounds %"struct.std::__1::basic_string<char>::__short", ptr %ref.tmp4, i64 0, i32 2
  %cmp.i24.i.i = icmp ugt ptr %__data_.i.i.i708, @.str.23
  %add.ptr.i.i.i = getelementptr inbounds %"struct.std::__1::basic_string<char>::__short", ptr %ref.tmp4, i64 0, i32 2, i64 4
  %cmp1.i.i.i = icmp ule ptr %add.ptr.i.i.i, @.str.23
  %1 = or i1 %cmp.i24.i.i, %cmp1.i.i.i
  call void @llvm.assume(i1 %1)
  store i32 1701667182, ptr %__data_.i.i.i708, align 1
  store i8 0, ptr %add.ptr.i.i.i, align 1, !tbaa !10
  call void @llvm.lifetime.start.p0(i64 24, ptr nonnull %ref.tmp7) #20
  invoke void @_ZNK9benchmark17BenchmarkReporter3Run14benchmark_nameEv(ptr nonnull sret(%"class.std::__1::basic_string") align 8 %ref.tmp7, ptr noundef nonnull align 8 dereferenceable(424) %run)
          to label %invoke.cont9 unwind label %lpad8

invoke.cont9:                                     ; preds = %invoke.cont2
  invoke fastcc void @_ZN9benchmark12_GLOBAL__N_18FormatKVERKNSt3__112basic_stringIcNS1_11char_traitsIcEENS1_9allocatorIcEEEES9_(ptr noalias nonnull align 8 %ref.tmp, ptr noundef nonnull align 8 dereferenceable(24) %ref.tmp4, ptr noundef nonnull align 8 dereferenceable(24) %ref.tmp7)
          to label %invoke.cont11 unwind label %lpad10

invoke.cont11:                                    ; preds = %invoke.cont9
  %bf.load.i.i.i.i711 = load i8, ptr %ref.tmp, align 8
  %bf.clear.i.i.i.i712 = and i8 %bf.load.i.i.i.i711, 1
  %tobool.i.not.i.i.i713 = icmp eq i8 %bf.clear.i.i.i.i712, 0
  %__data_.i.i.i.i714 = getelementptr inbounds %"struct.std::__1::basic_string<char>::__long", ptr %ref.tmp, i64 0, i32 2
  %2 = load ptr, ptr %__data_.i.i.i.i714, align 8
  %__data_.i4.i.i.i715 = getelementptr inbounds %"struct.std::__1::basic_string<char>::__short", ptr %ref.tmp, i64 0, i32 2
  %cond.i.i.i716 = select i1 %tobool.i.not.i.i.i713, ptr %__data_.i4.i.i.i715, ptr %2
  %__size_.i.i.i717 = getelementptr inbounds %"struct.std::__1::basic_string<char>::__long", ptr %ref.tmp, i64 0, i32 1
  %3 = load i64, ptr %__size_.i.i.i717, align 8
  %bf.lshr.i.i.i718 = lshr i8 %bf.load.i.i.i.i711, 1
  %conv.i.i.i719 = zext i8 %bf.lshr.i.i.i718 to i64
  %cond.i.i720 = select i1 %tobool.i.not.i.i.i713, i64 %conv.i.i.i719, i64 %3
  %call2.i721 = invoke noundef nonnull align 8 dereferenceable(8) ptr @_ZNSt3__124__put_character_sequenceB7v170000IcNS_11char_traitsIcEEEERNS_13basic_ostreamIT_T0_EES7_PKS4_m(ptr noundef nonnull align 8 dereferenceable(8) %call2.i706, ptr noundef %cond.i.i.i716, i64 noundef %cond.i.i720)
          to label %invoke.cont13 unwind label %lpad12

invoke.cont13:                                    ; preds = %invoke.cont11
  %call1.i724 = invoke noundef nonnull align 8 dereferenceable(8) ptr @_ZNSt3__124__put_character_sequenceB7v170000IcNS_11char_traitsIcEEEERNS_13basic_ostreamIT_T0_EES7_PKS4_m(ptr noundef nonnull align 8 dereferenceable(8) %call2.i721, ptr noundef nonnull @.str.3, i64 noundef 2)
          to label %invoke.cont15 unwind label %lpad12

invoke.cont15:                                    ; preds = %invoke.cont13
  %bf.load.i.i = load i8, ptr %ref.tmp, align 8
  %bf.clear.i.i = and i8 %bf.load.i.i, 1
  %tobool.i.not.i = icmp eq i8 %bf.clear.i.i, 0
  br i1 %tobool.i.not.i, label %_ZNSt3__112basic_stringIcNS_11char_traitsIcEENS_9allocatorIcEEED2Ev.exit, label %if.then.i

if.then.i:                                        ; preds = %invoke.cont15
  %4 = load ptr, ptr %__data_.i.i.i.i714, align 8, !tbaa !10
  call void @_ZdlPv(ptr noundef %4) #21
  br label %_ZNSt3__112basic_stringIcNS_11char_traitsIcEENS_9allocatorIcEEED2Ev.exit

_ZNSt3__112basic_stringIcNS_11char_traitsIcEENS_9allocatorIcEEED2Ev.exit: ; preds = %invoke.cont15, %if.then.i
  %bf.load.i.i725 = load i8, ptr %ref.tmp7, align 8
  %bf.clear.i.i726 = and i8 %bf.load.i.i725, 1
  %tobool.i.not.i727 = icmp eq i8 %bf.clear.i.i726, 0
  br i1 %tobool.i.not.i727, label %_ZNSt3__112basic_stringIcNS_11char_traitsIcEENS_9allocatorIcEEED2Ev.exit730, label %if.then.i729

if.then.i729:                                     ; preds = %_ZNSt3__112basic_stringIcNS_11char_traitsIcEENS_9allocatorIcEEED2Ev.exit
  %__data_.i.i728 = getelementptr inbounds %"struct.std::__1::basic_string<char>::__long", ptr %ref.tmp7, i64 0, i32 2
  %5 = load ptr, ptr %__data_.i.i728, align 8, !tbaa !10
  call void @_ZdlPv(ptr noundef %5) #21
  br label %_ZNSt3__112basic_stringIcNS_11char_traitsIcEENS_9allocatorIcEEED2Ev.exit730

_ZNSt3__112basic_stringIcNS_11char_traitsIcEENS_9allocatorIcEEED2Ev.exit730: ; preds = %_ZNSt3__112basic_stringIcNS_11char_traitsIcEENS_9allocatorIcEEED2Ev.exit, %if.then.i729
  call void @llvm.lifetime.end.p0(i64 24, ptr nonnull %ref.tmp7) #20
  %bf.load.i.i731 = load i8, ptr %ref.tmp4, align 8
  %bf.clear.i.i732 = and i8 %bf.load.i.i731, 1
  %tobool.i.not.i733 = icmp eq i8 %bf.clear.i.i732, 0
  br i1 %tobool.i.not.i733, label %_ZNSt3__112basic_stringIcNS_11char_traitsIcEENS_9allocatorIcEEED2Ev.exit736, label %if.then.i735

if.then.i735:                                     ; preds = %_ZNSt3__112basic_stringIcNS_11char_traitsIcEENS_9allocatorIcEEED2Ev.exit730
  %__data_.i.i734 = getelementptr inbounds %"struct.std::__1::basic_string<char>::__long", ptr %ref.tmp4, i64 0, i32 2
  %6 = load ptr, ptr %__data_.i.i734, align 8, !tbaa !10
  call void @_ZdlPv(ptr noundef %6) #21
  br label %_ZNSt3__112basic_stringIcNS_11char_traitsIcEENS_9allocatorIcEEED2Ev.exit736

_ZNSt3__112basic_stringIcNS_11char_traitsIcEENS_9allocatorIcEEED2Ev.exit736: ; preds = %_ZNSt3__112basic_stringIcNS_11char_traitsIcEENS_9allocatorIcEEED2Ev.exit730, %if.then.i735
  call void @llvm.lifetime.end.p0(i64 24, ptr nonnull %ref.tmp4) #20
  call void @llvm.lifetime.end.p0(i64 24, ptr nonnull %ref.tmp) #20
  %bf.load.i.i.i.i737 = load i8, ptr %indent, align 8
  %bf.clear.i.i.i.i738 = and i8 %bf.load.i.i.i.i737, 1
  %tobool.i.not.i.i.i739 = icmp eq i8 %bf.clear.i.i.i.i738, 0
  %7 = load ptr, ptr %__data_.i.i.i.i, align 8
  %cond.i.i.i742 = select i1 %tobool.i.not.i.i.i739, ptr %__data_.i.i.i, ptr %7
  %8 = load i64, ptr %__size_.i.i.i, align 8
  %bf.lshr.i.i.i744 = lshr i8 %bf.load.i.i.i.i737, 1
  %conv.i.i.i745 = zext i8 %bf.lshr.i.i.i744 to i64
  %cond.i.i746 = select i1 %tobool.i.not.i.i.i739, i64 %conv.i.i.i745, i64 %8
  %call2.i747 = invoke noundef nonnull align 8 dereferenceable(8) ptr @_ZNSt3__124__put_character_sequenceB7v170000IcNS_11char_traitsIcEEEERNS_13basic_ostreamIT_T0_EES7_PKS4_m(ptr noundef nonnull align 8 dereferenceable(8) %0, ptr noundef %cond.i.i.i742, i64 noundef %cond.i.i746)
          to label %invoke.cont21 unwind label %lpad

invoke.cont21:                                    ; preds = %_ZNSt3__112basic_stringIcNS_11char_traitsIcEENS_9allocatorIcEEED2Ev.exit736
  call void @llvm.lifetime.start.p0(i64 24, ptr nonnull %ref.tmp23) #20
  call void @llvm.lifetime.start.p0(i64 24, ptr nonnull %ref.tmp24) #20
  store i8 24, ptr %ref.tmp24, align 8
  %__data_.i.i.i756 = getelementptr inbounds %"struct.std::__1::basic_string<char>::__short", ptr %ref.tmp24, i64 0, i32 2
  %cmp.i24.i.i765 = icmp ugt ptr %__data_.i.i.i756, @.str.24
  %add.ptr.i.i.i766 = getelementptr inbounds %"struct.std::__1::basic_string<char>::__short", ptr %ref.tmp24, i64 0, i32 2, i64 12
  %cmp1.i.i.i767 = icmp ule ptr %add.ptr.i.i.i766, @.str.24
  %9 = or i1 %cmp.i24.i.i765, %cmp1.i.i.i767
  call void @llvm.assume(i1 %9)
  call void @llvm.memcpy.p0.p0.i64(ptr noundef nonnull align 1 dereferenceable(12) %__data_.i.i.i756, ptr noundef nonnull align 1 dereferenceable(12) @.str.24, i64 12, i1 false)
  store i8 0, ptr %add.ptr.i.i.i766, align 1, !tbaa !10
  %family_index = getelementptr inbounds %"struct.benchmark::BenchmarkReporter::Run", ptr %run, i64 0, i32 1
  %10 = load i64, ptr %family_index, align 8, !tbaa !85
  invoke fastcc void @_ZN9benchmark12_GLOBAL__N_18FormatKVERKNSt3__112basic_stringIcNS1_11char_traitsIcEENS1_9allocatorIcEEEEl(ptr noalias nonnull align 8 %ref.tmp23, ptr noundef nonnull align 8 dereferenceable(24) %ref.tmp24, i64 noundef %10)
          to label %invoke.cont28 unwind label %lpad27

invoke.cont28:                                    ; preds = %invoke.cont21
  %bf.load.i.i.i.i772 = load i8, ptr %ref.tmp23, align 8
  %bf.clear.i.i.i.i773 = and i8 %bf.load.i.i.i.i772, 1
  %tobool.i.not.i.i.i774 = icmp eq i8 %bf.clear.i.i.i.i773, 0
  %__data_.i.i.i.i775 = getelementptr inbounds %"struct.std::__1::basic_string<char>::__long", ptr %ref.tmp23, i64 0, i32 2
  %11 = load ptr, ptr %__data_.i.i.i.i775, align 8
  %__data_.i4.i.i.i776 = getelementptr inbounds %"struct.std::__1::basic_string<char>::__short", ptr %ref.tmp23, i64 0, i32 2
  %cond.i.i.i777 = select i1 %tobool.i.not.i.i.i774, ptr %__data_.i4.i.i.i776, ptr %11
  %__size_.i.i.i778 = getelementptr inbounds %"struct.std::__1::basic_string<char>::__long", ptr %ref.tmp23, i64 0, i32 1
  %12 = load i64, ptr %__size_.i.i.i778, align 8
  %bf.lshr.i.i.i779 = lshr i8 %bf.load.i.i.i.i772, 1
  %conv.i.i.i780 = zext i8 %bf.lshr.i.i.i779 to i64
  %cond.i.i781 = select i1 %tobool.i.not.i.i.i774, i64 %conv.i.i.i780, i64 %12
  %call2.i782 = invoke noundef nonnull align 8 dereferenceable(8) ptr @_ZNSt3__124__put_character_sequenceB7v170000IcNS_11char_traitsIcEEEERNS_13basic_ostreamIT_T0_EES7_PKS4_m(ptr noundef nonnull align 8 dereferenceable(8) %call2.i747, ptr noundef %cond.i.i.i777, i64 noundef %cond.i.i781)
          to label %invoke.cont30 unwind label %lpad29

invoke.cont30:                                    ; preds = %invoke.cont28
  %call1.i785 = invoke noundef nonnull align 8 dereferenceable(8) ptr @_ZNSt3__124__put_character_sequenceB7v170000IcNS_11char_traitsIcEEEERNS_13basic_ostreamIT_T0_EES7_PKS4_m(ptr noundef nonnull align 8 dereferenceable(8) %call2.i782, ptr noundef nonnull @.str.3, i64 noundef 2)
          to label %invoke.cont32 unwind label %lpad29

invoke.cont32:                                    ; preds = %invoke.cont30
  %bf.load.i.i787 = load i8, ptr %ref.tmp23, align 8
  %bf.clear.i.i788 = and i8 %bf.load.i.i787, 1
  %tobool.i.not.i789 = icmp eq i8 %bf.clear.i.i788, 0
  br i1 %tobool.i.not.i789, label %_ZNSt3__112basic_stringIcNS_11char_traitsIcEENS_9allocatorIcEEED2Ev.exit792, label %if.then.i791

if.then.i791:                                     ; preds = %invoke.cont32
  %13 = load ptr, ptr %__data_.i.i.i.i775, align 8, !tbaa !10
  call void @_ZdlPv(ptr noundef %13) #21
  br label %_ZNSt3__112basic_stringIcNS_11char_traitsIcEENS_9allocatorIcEEED2Ev.exit792

_ZNSt3__112basic_stringIcNS_11char_traitsIcEENS_9allocatorIcEEED2Ev.exit792: ; preds = %invoke.cont32, %if.then.i791
  %bf.load.i.i793 = load i8, ptr %ref.tmp24, align 8
  %bf.clear.i.i794 = and i8 %bf.load.i.i793, 1
  %tobool.i.not.i795 = icmp eq i8 %bf.clear.i.i794, 0
  br i1 %tobool.i.not.i795, label %_ZNSt3__112basic_stringIcNS_11char_traitsIcEENS_9allocatorIcEEED2Ev.exit798, label %if.then.i797

if.then.i797:                                     ; preds = %_ZNSt3__112basic_stringIcNS_11char_traitsIcEENS_9allocatorIcEEED2Ev.exit792
  %__data_.i.i796 = getelementptr inbounds %"struct.std::__1::basic_string<char>::__long", ptr %ref.tmp24, i64 0, i32 2
  %14 = load ptr, ptr %__data_.i.i796, align 8, !tbaa !10
  call void @_ZdlPv(ptr noundef %14) #21
  br label %_ZNSt3__112basic_stringIcNS_11char_traitsIcEENS_9allocatorIcEEED2Ev.exit798

_ZNSt3__112basic_stringIcNS_11char_traitsIcEENS_9allocatorIcEEED2Ev.exit798: ; preds = %_ZNSt3__112basic_stringIcNS_11char_traitsIcEENS_9allocatorIcEEED2Ev.exit792, %if.then.i797
  call void @llvm.lifetime.end.p0(i64 24, ptr nonnull %ref.tmp24) #20
  call void @llvm.lifetime.end.p0(i64 24, ptr nonnull %ref.tmp23) #20
  %bf.load.i.i.i.i799 = load i8, ptr %indent, align 8
  %bf.clear.i.i.i.i800 = and i8 %bf.load.i.i.i.i799, 1
  %tobool.i.not.i.i.i801 = icmp eq i8 %bf.clear.i.i.i.i800, 0
  %15 = load ptr, ptr %__data_.i.i.i.i, align 8
  %cond.i.i.i804 = select i1 %tobool.i.not.i.i.i801, ptr %__data_.i.i.i, ptr %15
  %16 = load i64, ptr %__size_.i.i.i, align 8
  %bf.lshr.i.i.i806 = lshr i8 %bf.load.i.i.i.i799, 1
  %conv.i.i.i807 = zext i8 %bf.lshr.i.i.i806 to i64
  %cond.i.i808 = select i1 %tobool.i.not.i.i.i801, i64 %conv.i.i.i807, i64 %16
  %call2.i809 = invoke noundef nonnull align 8 dereferenceable(8) ptr @_ZNSt3__124__put_character_sequenceB7v170000IcNS_11char_traitsIcEEEERNS_13basic_ostreamIT_T0_EES7_PKS4_m(ptr noundef nonnull align 8 dereferenceable(8) %0, ptr noundef %cond.i.i.i804, i64 noundef %cond.i.i808)
          to label %invoke.cont38 unwind label %lpad

invoke.cont38:                                    ; preds = %_ZNSt3__112basic_stringIcNS_11char_traitsIcEENS_9allocatorIcEEED2Ev.exit798
  call void @llvm.lifetime.start.p0(i64 24, ptr nonnull %ref.tmp40) #20
  call void @llvm.lifetime.start.p0(i64 24, ptr nonnull %ref.tmp41) #20
  %call.i.i.i.i.i.i832 = invoke noalias noundef nonnull dereferenceable(32) ptr @_Znwm(i64 noundef 32) #23
          to label %call.i.i.i.i.i.i.noexc831 unwind label %lpad42

call.i.i.i.i.i.i.noexc831:                        ; preds = %invoke.cont38
  %__data_.i23.i.i822 = getelementptr inbounds %"struct.std::__1::basic_string<char>::__long", ptr %ref.tmp41, i64 0, i32 2
  store ptr %call.i.i.i.i.i.i832, ptr %__data_.i23.i.i822, align 8, !tbaa !10
  store i64 33, ptr %ref.tmp41, align 8
  %__size_.i.i.i824 = getelementptr inbounds %"struct.std::__1::basic_string<char>::__long", ptr %ref.tmp41, i64 0, i32 1
  store i64 25, ptr %__size_.i.i.i824, align 8, !tbaa !10
  %cmp.i24.i.i827 = icmp ugt ptr %call.i.i.i.i.i.i832, @.str.25
  %add.ptr.i.i.i828 = getelementptr inbounds i8, ptr %call.i.i.i.i.i.i832, i64 25
  %cmp1.i.i.i829 = icmp ule ptr %add.ptr.i.i.i828, @.str.25
  %17 = or i1 %cmp.i24.i.i827, %cmp1.i.i.i829
  call void @llvm.assume(i1 %17)
  call void @llvm.memcpy.p0.p0.i64(ptr noundef nonnull align 1 dereferenceable(25) %call.i.i.i.i.i.i832, ptr noundef nonnull align 1 dereferenceable(25) @.str.25, i64 25, i1 false)
  store i8 0, ptr %add.ptr.i.i.i828, align 1, !tbaa !10
  %per_family_instance_index = getelementptr inbounds %"struct.benchmark::BenchmarkReporter::Run", ptr %run, i64 0, i32 2
  %18 = load i64, ptr %per_family_instance_index, align 8, !tbaa !98
  invoke fastcc void @_ZN9benchmark12_GLOBAL__N_18FormatKVERKNSt3__112basic_stringIcNS1_11char_traitsIcEENS1_9allocatorIcEEEEl(ptr noalias nonnull align 8 %ref.tmp40, ptr noundef nonnull align 8 dereferenceable(24) %ref.tmp41, i64 noundef %18)
          to label %invoke.cont45 unwind label %lpad44

invoke.cont45:                                    ; preds = %call.i.i.i.i.i.i.noexc831
  %bf.load.i.i.i.i834 = load i8, ptr %ref.tmp40, align 8
  %bf.clear.i.i.i.i835 = and i8 %bf.load.i.i.i.i834, 1
  %tobool.i.not.i.i.i836 = icmp eq i8 %bf.clear.i.i.i.i835, 0
  %__data_.i.i.i.i837 = getelementptr inbounds %"struct.std::__1::basic_string<char>::__long", ptr %ref.tmp40, i64 0, i32 2
  %19 = load ptr, ptr %__data_.i.i.i.i837, align 8
  %__data_.i4.i.i.i838 = getelementptr inbounds %"struct.std::__1::basic_string<char>::__short", ptr %ref.tmp40, i64 0, i32 2
  %cond.i.i.i839 = select i1 %tobool.i.not.i.i.i836, ptr %__data_.i4.i.i.i838, ptr %19
  %__size_.i.i.i840 = getelementptr inbounds %"struct.std::__1::basic_string<char>::__long", ptr %ref.tmp40, i64 0, i32 1
  %20 = load i64, ptr %__size_.i.i.i840, align 8
  %bf.lshr.i.i.i841 = lshr i8 %bf.load.i.i.i.i834, 1
  %conv.i.i.i842 = zext i8 %bf.lshr.i.i.i841 to i64
  %cond.i.i843 = select i1 %tobool.i.not.i.i.i836, i64 %conv.i.i.i842, i64 %20
  %call2.i844 = invoke noundef nonnull align 8 dereferenceable(8) ptr @_ZNSt3__124__put_character_sequenceB7v170000IcNS_11char_traitsIcEEEERNS_13basic_ostreamIT_T0_EES7_PKS4_m(ptr noundef nonnull align 8 dereferenceable(8) %call2.i809, ptr noundef %cond.i.i.i839, i64 noundef %cond.i.i843)
          to label %invoke.cont47 unwind label %lpad46

invoke.cont47:                                    ; preds = %invoke.cont45
  %call1.i847 = invoke noundef nonnull align 8 dereferenceable(8) ptr @_ZNSt3__124__put_character_sequenceB7v170000IcNS_11char_traitsIcEEEERNS_13basic_ostreamIT_T0_EES7_PKS4_m(ptr noundef nonnull align 8 dereferenceable(8) %call2.i844, ptr noundef nonnull @.str.3, i64 noundef 2)
          to label %invoke.cont49 unwind label %lpad46

invoke.cont49:                                    ; preds = %invoke.cont47
  %bf.load.i.i849 = load i8, ptr %ref.tmp40, align 8
  %bf.clear.i.i850 = and i8 %bf.load.i.i849, 1
  %tobool.i.not.i851 = icmp eq i8 %bf.clear.i.i850, 0
  br i1 %tobool.i.not.i851, label %_ZNSt3__112basic_stringIcNS_11char_traitsIcEENS_9allocatorIcEEED2Ev.exit854, label %if.then.i853

if.then.i853:                                     ; preds = %invoke.cont49
  %21 = load ptr, ptr %__data_.i.i.i.i837, align 8, !tbaa !10
  call void @_ZdlPv(ptr noundef %21) #21
  br label %_ZNSt3__112basic_stringIcNS_11char_traitsIcEENS_9allocatorIcEEED2Ev.exit854

_ZNSt3__112basic_stringIcNS_11char_traitsIcEENS_9allocatorIcEEED2Ev.exit854: ; preds = %invoke.cont49, %if.then.i853
  %bf.load.i.i855 = load i8, ptr %ref.tmp41, align 8
  %bf.clear.i.i856 = and i8 %bf.load.i.i855, 1
  %tobool.i.not.i857 = icmp eq i8 %bf.clear.i.i856, 0
  br i1 %tobool.i.not.i857, label %_ZNSt3__112basic_stringIcNS_11char_traitsIcEENS_9allocatorIcEEED2Ev.exit860, label %if.then.i859

if.then.i859:                                     ; preds = %_ZNSt3__112basic_stringIcNS_11char_traitsIcEENS_9allocatorIcEEED2Ev.exit854
  %22 = load ptr, ptr %__data_.i23.i.i822, align 8, !tbaa !10
  call void @_ZdlPv(ptr noundef %22) #21
  br label %_ZNSt3__112basic_stringIcNS_11char_traitsIcEENS_9allocatorIcEEED2Ev.exit860

_ZNSt3__112basic_stringIcNS_11char_traitsIcEENS_9allocatorIcEEED2Ev.exit860: ; preds = %_ZNSt3__112basic_stringIcNS_11char_traitsIcEENS_9allocatorIcEEED2Ev.exit854, %if.then.i859
  call void @llvm.lifetime.end.p0(i64 24, ptr nonnull %ref.tmp41) #20
  call void @llvm.lifetime.end.p0(i64 24, ptr nonnull %ref.tmp40) #20
  %bf.load.i.i.i.i861 = load i8, ptr %indent, align 8
  %bf.clear.i.i.i.i862 = and i8 %bf.load.i.i.i.i861, 1
  %tobool.i.not.i.i.i863 = icmp eq i8 %bf.clear.i.i.i.i862, 0
  %23 = load ptr, ptr %__data_.i.i.i.i, align 8
  %cond.i.i.i866 = select i1 %tobool.i.not.i.i.i863, ptr %__data_.i.i.i, ptr %23
  %24 = load i64, ptr %__size_.i.i.i, align 8
  %bf.lshr.i.i.i868 = lshr i8 %bf.load.i.i.i.i861, 1
  %conv.i.i.i869 = zext i8 %bf.lshr.i.i.i868 to i64
  %cond.i.i870 = select i1 %tobool.i.not.i.i.i863, i64 %conv.i.i.i869, i64 %24
  %call2.i871 = invoke noundef nonnull align 8 dereferenceable(8) ptr @_ZNSt3__124__put_character_sequenceB7v170000IcNS_11char_traitsIcEEEERNS_13basic_ostreamIT_T0_EES7_PKS4_m(ptr noundef nonnull align 8 dereferenceable(8) %0, ptr noundef %cond.i.i.i866, i64 noundef %cond.i.i870)
          to label %invoke.cont55 unwind label %lpad

invoke.cont55:                                    ; preds = %_ZNSt3__112basic_stringIcNS_11char_traitsIcEENS_9allocatorIcEEED2Ev.exit860
  call void @llvm.lifetime.start.p0(i64 24, ptr nonnull %ref.tmp57) #20
  call void @llvm.lifetime.start.p0(i64 24, ptr nonnull %ref.tmp58) #20
  store i8 16, ptr %ref.tmp58, align 8
  %__data_.i.i.i880 = getelementptr inbounds %"struct.std::__1::basic_string<char>::__short", ptr %ref.tmp58, i64 0, i32 2
  %cmp.i24.i.i889 = icmp ugt ptr %__data_.i.i.i880, @.str.26
  %add.ptr.i.i.i890 = getelementptr inbounds %"struct.std::__1::basic_string<char>::__short", ptr %ref.tmp58, i64 0, i32 2, i64 8
  %cmp1.i.i.i891 = icmp ule ptr %add.ptr.i.i.i890, @.str.26
  %25 = or i1 %cmp.i24.i.i889, %cmp1.i.i.i891
  call void @llvm.assume(i1 %25)
  store i64 7308604896967554418, ptr %__data_.i.i.i880, align 1
  store i8 0, ptr %add.ptr.i.i.i890, align 1, !tbaa !10
  call void @llvm.lifetime.start.p0(i64 24, ptr nonnull %ref.tmp61) #20
  invoke void @_ZNK9benchmark13BenchmarkName3strEv(ptr nonnull sret(%"class.std::__1::basic_string") align 8 %ref.tmp61, ptr noundef nonnull align 8 dereferenceable(168) %run)
          to label %invoke.cont63 unwind label %lpad62

invoke.cont63:                                    ; preds = %invoke.cont55
  invoke fastcc void @_ZN9benchmark12_GLOBAL__N_18FormatKVERKNSt3__112basic_stringIcNS1_11char_traitsIcEENS1_9allocatorIcEEEES9_(ptr noalias nonnull align 8 %ref.tmp57, ptr noundef nonnull align 8 dereferenceable(24) %ref.tmp58, ptr noundef nonnull align 8 dereferenceable(24) %ref.tmp61)
          to label %invoke.cont65 unwind label %lpad64

invoke.cont65:                                    ; preds = %invoke.cont63
  %bf.load.i.i.i.i896 = load i8, ptr %ref.tmp57, align 8
  %bf.clear.i.i.i.i897 = and i8 %bf.load.i.i.i.i896, 1
  %tobool.i.not.i.i.i898 = icmp eq i8 %bf.clear.i.i.i.i897, 0
  %__data_.i.i.i.i899 = getelementptr inbounds %"struct.std::__1::basic_string<char>::__long", ptr %ref.tmp57, i64 0, i32 2
  %26 = load ptr, ptr %__data_.i.i.i.i899, align 8
  %__data_.i4.i.i.i900 = getelementptr inbounds %"struct.std::__1::basic_string<char>::__short", ptr %ref.tmp57, i64 0, i32 2
  %cond.i.i.i901 = select i1 %tobool.i.not.i.i.i898, ptr %__data_.i4.i.i.i900, ptr %26
  %__size_.i.i.i902 = getelementptr inbounds %"struct.std::__1::basic_string<char>::__long", ptr %ref.tmp57, i64 0, i32 1
  %27 = load i64, ptr %__size_.i.i.i902, align 8
  %bf.lshr.i.i.i903 = lshr i8 %bf.load.i.i.i.i896, 1
  %conv.i.i.i904 = zext i8 %bf.lshr.i.i.i903 to i64
  %cond.i.i905 = select i1 %tobool.i.not.i.i.i898, i64 %conv.i.i.i904, i64 %27
  %call2.i906 = invoke noundef nonnull align 8 dereferenceable(8) ptr @_ZNSt3__124__put_character_sequenceB7v170000IcNS_11char_traitsIcEEEERNS_13basic_ostreamIT_T0_EES7_PKS4_m(ptr noundef nonnull align 8 dereferenceable(8) %call2.i871, ptr noundef %cond.i.i.i901, i64 noundef %cond.i.i905)
          to label %invoke.cont67 unwind label %lpad66

invoke.cont67:                                    ; preds = %invoke.cont65
  %call1.i909 = invoke noundef nonnull align 8 dereferenceable(8) ptr @_ZNSt3__124__put_character_sequenceB7v170000IcNS_11char_traitsIcEEEERNS_13basic_ostreamIT_T0_EES7_PKS4_m(ptr noundef nonnull align 8 dereferenceable(8) %call2.i906, ptr noundef nonnull @.str.3, i64 noundef 2)
          to label %invoke.cont69 unwind label %lpad66

invoke.cont69:                                    ; preds = %invoke.cont67
  %bf.load.i.i911 = load i8, ptr %ref.tmp57, align 8
  %bf.clear.i.i912 = and i8 %bf.load.i.i911, 1
  %tobool.i.not.i913 = icmp eq i8 %bf.clear.i.i912, 0
  br i1 %tobool.i.not.i913, label %_ZNSt3__112basic_stringIcNS_11char_traitsIcEENS_9allocatorIcEEED2Ev.exit916, label %if.then.i915

if.then.i915:                                     ; preds = %invoke.cont69
  %28 = load ptr, ptr %__data_.i.i.i.i899, align 8, !tbaa !10
  call void @_ZdlPv(ptr noundef %28) #21
  br label %_ZNSt3__112basic_stringIcNS_11char_traitsIcEENS_9allocatorIcEEED2Ev.exit916

_ZNSt3__112basic_stringIcNS_11char_traitsIcEENS_9allocatorIcEEED2Ev.exit916: ; preds = %invoke.cont69, %if.then.i915
  %bf.load.i.i917 = load i8, ptr %ref.tmp61, align 8
  %bf.clear.i.i918 = and i8 %bf.load.i.i917, 1
  %tobool.i.not.i919 = icmp eq i8 %bf.clear.i.i918, 0
  br i1 %tobool.i.not.i919, label %_ZNSt3__112basic_stringIcNS_11char_traitsIcEENS_9allocatorIcEEED2Ev.exit922, label %if.then.i921

if.then.i921:                                     ; preds = %_ZNSt3__112basic_stringIcNS_11char_traitsIcEENS_9allocatorIcEEED2Ev.exit916
  %__data_.i.i920 = getelementptr inbounds %"struct.std::__1::basic_string<char>::__long", ptr %ref.tmp61, i64 0, i32 2
  %29 = load ptr, ptr %__data_.i.i920, align 8, !tbaa !10
  call void @_ZdlPv(ptr noundef %29) #21
  br label %_ZNSt3__112basic_stringIcNS_11char_traitsIcEENS_9allocatorIcEEED2Ev.exit922

_ZNSt3__112basic_stringIcNS_11char_traitsIcEENS_9allocatorIcEEED2Ev.exit922: ; preds = %_ZNSt3__112basic_stringIcNS_11char_traitsIcEENS_9allocatorIcEEED2Ev.exit916, %if.then.i921
  call void @llvm.lifetime.end.p0(i64 24, ptr nonnull %ref.tmp61) #20
  %bf.load.i.i923 = load i8, ptr %ref.tmp58, align 8
  %bf.clear.i.i924 = and i8 %bf.load.i.i923, 1
  %tobool.i.not.i925 = icmp eq i8 %bf.clear.i.i924, 0
  br i1 %tobool.i.not.i925, label %_ZNSt3__112basic_stringIcNS_11char_traitsIcEENS_9allocatorIcEEED2Ev.exit928, label %if.then.i927

if.then.i927:                                     ; preds = %_ZNSt3__112basic_stringIcNS_11char_traitsIcEENS_9allocatorIcEEED2Ev.exit922
  %__data_.i.i926 = getelementptr inbounds %"struct.std::__1::basic_string<char>::__long", ptr %ref.tmp58, i64 0, i32 2
  %30 = load ptr, ptr %__data_.i.i926, align 8, !tbaa !10
  call void @_ZdlPv(ptr noundef %30) #21
  br label %_ZNSt3__112basic_stringIcNS_11char_traitsIcEENS_9allocatorIcEEED2Ev.exit928

_ZNSt3__112basic_stringIcNS_11char_traitsIcEENS_9allocatorIcEEED2Ev.exit928: ; preds = %_ZNSt3__112basic_stringIcNS_11char_traitsIcEENS_9allocatorIcEEED2Ev.exit922, %if.then.i927
  call void @llvm.lifetime.end.p0(i64 24, ptr nonnull %ref.tmp58) #20
  call void @llvm.lifetime.end.p0(i64 24, ptr nonnull %ref.tmp57) #20
  %bf.load.i.i.i.i929 = load i8, ptr %indent, align 8
  %bf.clear.i.i.i.i930 = and i8 %bf.load.i.i.i.i929, 1
  %tobool.i.not.i.i.i931 = icmp eq i8 %bf.clear.i.i.i.i930, 0
  %31 = load ptr, ptr %__data_.i.i.i.i, align 8
  %cond.i.i.i934 = select i1 %tobool.i.not.i.i.i931, ptr %__data_.i.i.i, ptr %31
  %32 = load i64, ptr %__size_.i.i.i, align 8
  %bf.lshr.i.i.i936 = lshr i8 %bf.load.i.i.i.i929, 1
  %conv.i.i.i937 = zext i8 %bf.lshr.i.i.i936 to i64
  %cond.i.i938 = select i1 %tobool.i.not.i.i.i931, i64 %conv.i.i.i937, i64 %32
  %call2.i939 = invoke noundef nonnull align 8 dereferenceable(8) ptr @_ZNSt3__124__put_character_sequenceB7v170000IcNS_11char_traitsIcEEEERNS_13basic_ostreamIT_T0_EES7_PKS4_m(ptr noundef nonnull align 8 dereferenceable(8) %0, ptr noundef %cond.i.i.i934, i64 noundef %cond.i.i938)
          to label %invoke.cont77 unwind label %lpad

invoke.cont77:                                    ; preds = %_ZNSt3__112basic_stringIcNS_11char_traitsIcEENS_9allocatorIcEEED2Ev.exit928
  call void @llvm.lifetime.start.p0(i64 24, ptr nonnull %ref.tmp79) #20
  call void @llvm.lifetime.start.p0(i64 24, ptr nonnull %ref.tmp80) #20
  store i8 16, ptr %ref.tmp80, align 8
  %__data_.i.i.i948 = getelementptr inbounds %"struct.std::__1::basic_string<char>::__short", ptr %ref.tmp80, i64 0, i32 2
  %cmp.i24.i.i957 = icmp ugt ptr %__data_.i.i.i948, @.str.27
  %add.ptr.i.i.i958 = getelementptr inbounds %"struct.std::__1::basic_string<char>::__short", ptr %ref.tmp80, i64 0, i32 2, i64 8
  %cmp1.i.i.i959 = icmp ule ptr %add.ptr.i.i.i958, @.str.27
  %33 = or i1 %cmp.i24.i.i957, %cmp1.i.i.i959
  call void @llvm.assume(i1 %33)
  store i64 7309475735946556786, ptr %__data_.i.i.i948, align 1
  store i8 0, ptr %add.ptr.i.i.i958, align 1, !tbaa !10
  %34 = getelementptr i8, ptr %run, i64 184
  %ref.tmp83.val.val = load i32, ptr %34, align 8, !tbaa !99
  %switch.i = icmp eq i32 %ref.tmp83.val.val, 0
  %.str.61..str.62.i = select i1 %switch.i, ptr @.str.61, ptr @.str.62
  invoke fastcc void @_ZN9benchmark12_GLOBAL__N_18FormatKVERKNSt3__112basic_stringIcNS1_11char_traitsIcEENS1_9allocatorIcEEEEPKc(ptr noalias nonnull align 8 %ref.tmp79, ptr noundef nonnull align 8 dereferenceable(24) %ref.tmp80, ptr noundef nonnull %.str.61..str.62.i)
          to label %invoke.cont87 unwind label %lpad84

invoke.cont87:                                    ; preds = %invoke.cont77
  %bf.load.i.i.i.i964 = load i8, ptr %ref.tmp79, align 8
  %bf.clear.i.i.i.i965 = and i8 %bf.load.i.i.i.i964, 1
  %tobool.i.not.i.i.i966 = icmp eq i8 %bf.clear.i.i.i.i965, 0
  %__data_.i.i.i.i967 = getelementptr inbounds %"struct.std::__1::basic_string<char>::__long", ptr %ref.tmp79, i64 0, i32 2
  %35 = load ptr, ptr %__data_.i.i.i.i967, align 8
  %__data_.i4.i.i.i968 = getelementptr inbounds %"struct.std::__1::basic_string<char>::__short", ptr %ref.tmp79, i64 0, i32 2
  %cond.i.i.i969 = select i1 %tobool.i.not.i.i.i966, ptr %__data_.i4.i.i.i968, ptr %35
  %__size_.i.i.i970 = getelementptr inbounds %"struct.std::__1::basic_string<char>::__long", ptr %ref.tmp79, i64 0, i32 1
  %36 = load i64, ptr %__size_.i.i.i970, align 8
  %bf.lshr.i.i.i971 = lshr i8 %bf.load.i.i.i.i964, 1
  %conv.i.i.i972 = zext i8 %bf.lshr.i.i.i971 to i64
  %cond.i.i973 = select i1 %tobool.i.not.i.i.i966, i64 %conv.i.i.i972, i64 %36
  %call2.i974 = invoke noundef nonnull align 8 dereferenceable(8) ptr @_ZNSt3__124__put_character_sequenceB7v170000IcNS_11char_traitsIcEEEERNS_13basic_ostreamIT_T0_EES7_PKS4_m(ptr noundef nonnull align 8 dereferenceable(8) %call2.i939, ptr noundef %cond.i.i.i969, i64 noundef %cond.i.i973)
          to label %invoke.cont89 unwind label %lpad88

invoke.cont89:                                    ; preds = %invoke.cont87
  %call1.i977 = invoke noundef nonnull align 8 dereferenceable(8) ptr @_ZNSt3__124__put_character_sequenceB7v170000IcNS_11char_traitsIcEEEERNS_13basic_ostreamIT_T0_EES7_PKS4_m(ptr noundef nonnull align 8 dereferenceable(8) %call2.i974, ptr noundef nonnull @.str.3, i64 noundef 2)
          to label %invoke.cont91 unwind label %lpad88

invoke.cont91:                                    ; preds = %invoke.cont89
  %bf.load.i.i979 = load i8, ptr %ref.tmp79, align 8
  %bf.clear.i.i980 = and i8 %bf.load.i.i979, 1
  %tobool.i.not.i981 = icmp eq i8 %bf.clear.i.i980, 0
  br i1 %tobool.i.not.i981, label %_ZNSt3__112basic_stringIcNS_11char_traitsIcEENS_9allocatorIcEEED2Ev.exit984, label %if.then.i983

if.then.i983:                                     ; preds = %invoke.cont91
  %37 = load ptr, ptr %__data_.i.i.i.i967, align 8, !tbaa !10
  call void @_ZdlPv(ptr noundef %37) #21
  br label %_ZNSt3__112basic_stringIcNS_11char_traitsIcEENS_9allocatorIcEEED2Ev.exit984

_ZNSt3__112basic_stringIcNS_11char_traitsIcEENS_9allocatorIcEEED2Ev.exit984: ; preds = %invoke.cont91, %if.then.i983
  %bf.load.i.i985 = load i8, ptr %ref.tmp80, align 8
  %bf.clear.i.i986 = and i8 %bf.load.i.i985, 1
  %tobool.i.not.i987 = icmp eq i8 %bf.clear.i.i986, 0
  br i1 %tobool.i.not.i987, label %_ZNSt3__112basic_stringIcNS_11char_traitsIcEENS_9allocatorIcEEED2Ev.exit990, label %if.then.i989

if.then.i989:                                     ; preds = %_ZNSt3__112basic_stringIcNS_11char_traitsIcEENS_9allocatorIcEEED2Ev.exit984
  %__data_.i.i988 = getelementptr inbounds %"struct.std::__1::basic_string<char>::__long", ptr %ref.tmp80, i64 0, i32 2
  %38 = load ptr, ptr %__data_.i.i988, align 8, !tbaa !10
  call void @_ZdlPv(ptr noundef %38) #21
  br label %_ZNSt3__112basic_stringIcNS_11char_traitsIcEENS_9allocatorIcEEED2Ev.exit990

_ZNSt3__112basic_stringIcNS_11char_traitsIcEENS_9allocatorIcEEED2Ev.exit990: ; preds = %_ZNSt3__112basic_stringIcNS_11char_traitsIcEENS_9allocatorIcEEED2Ev.exit984, %if.then.i989
  call void @llvm.lifetime.end.p0(i64 24, ptr nonnull %ref.tmp80) #20
  call void @llvm.lifetime.end.p0(i64 24, ptr nonnull %ref.tmp79) #20
  %bf.load.i.i.i.i991 = load i8, ptr %indent, align 8
  %bf.clear.i.i.i.i992 = and i8 %bf.load.i.i.i.i991, 1
  %tobool.i.not.i.i.i993 = icmp eq i8 %bf.clear.i.i.i.i992, 0
  %39 = load ptr, ptr %__data_.i.i.i.i, align 8
  %cond.i.i.i996 = select i1 %tobool.i.not.i.i.i993, ptr %__data_.i.i.i, ptr %39
  %40 = load i64, ptr %__size_.i.i.i, align 8
  %bf.lshr.i.i.i998 = lshr i8 %bf.load.i.i.i.i991, 1
  %conv.i.i.i999 = zext i8 %bf.lshr.i.i.i998 to i64
  %cond.i.i1000 = select i1 %tobool.i.not.i.i.i993, i64 %conv.i.i.i999, i64 %40
  %call2.i1001 = invoke noundef nonnull align 8 dereferenceable(8) ptr @_ZNSt3__124__put_character_sequenceB7v170000IcNS_11char_traitsIcEEEERNS_13basic_ostreamIT_T0_EES7_PKS4_m(ptr noundef nonnull align 8 dereferenceable(8) %0, ptr noundef %cond.i.i.i996, i64 noundef %cond.i.i1000)
          to label %invoke.cont98 unwind label %lpad

invoke.cont98:                                    ; preds = %_ZNSt3__112basic_stringIcNS_11char_traitsIcEENS_9allocatorIcEEED2Ev.exit990
  call void @llvm.lifetime.start.p0(i64 24, ptr nonnull %ref.tmp100) #20
  call void @llvm.lifetime.start.p0(i64 24, ptr nonnull %ref.tmp101) #20
  store i8 22, ptr %ref.tmp101, align 8
  %__data_.i.i.i1010 = getelementptr inbounds %"struct.std::__1::basic_string<char>::__short", ptr %ref.tmp101, i64 0, i32 2
  %cmp.i24.i.i1019 = icmp ugt ptr %__data_.i.i.i1010, @.str.28
  %add.ptr.i.i.i1020 = getelementptr inbounds %"struct.std::__1::basic_string<char>::__short", ptr %ref.tmp101, i64 0, i32 2, i64 11
  %cmp1.i.i.i1021 = icmp ule ptr %add.ptr.i.i.i1020, @.str.28
  %41 = or i1 %cmp.i24.i.i1019, %cmp1.i.i.i1021
  call void @llvm.assume(i1 %41)
  call void @llvm.memcpy.p0.p0.i64(ptr noundef nonnull align 1 dereferenceable(11) %__data_.i.i.i1010, ptr noundef nonnull align 1 dereferenceable(11) @.str.28, i64 11, i1 false)
  store i8 0, ptr %add.ptr.i.i.i1020, align 4, !tbaa !10
  %repetitions = getelementptr inbounds %"struct.benchmark::BenchmarkReporter::Run", ptr %run, i64 0, i32 12
  %42 = load i64, ptr %repetitions, align 8, !tbaa !100
  invoke fastcc void @_ZN9benchmark12_GLOBAL__N_18FormatKVERKNSt3__112basic_stringIcNS1_11char_traitsIcEENS1_9allocatorIcEEEEl(ptr noalias nonnull align 8 %ref.tmp100, ptr noundef nonnull align 8 dereferenceable(24) %ref.tmp101, i64 noundef %42)
          to label %invoke.cont105 unwind label %lpad104

invoke.cont105:                                   ; preds = %invoke.cont98
  %bf.load.i.i.i.i1026 = load i8, ptr %ref.tmp100, align 8
  %bf.clear.i.i.i.i1027 = and i8 %bf.load.i.i.i.i1026, 1
  %tobool.i.not.i.i.i1028 = icmp eq i8 %bf.clear.i.i.i.i1027, 0
  %__data_.i.i.i.i1029 = getelementptr inbounds %"struct.std::__1::basic_string<char>::__long", ptr %ref.tmp100, i64 0, i32 2
  %43 = load ptr, ptr %__data_.i.i.i.i1029, align 8
  %__data_.i4.i.i.i1030 = getelementptr inbounds %"struct.std::__1::basic_string<char>::__short", ptr %ref.tmp100, i64 0, i32 2
  %cond.i.i.i1031 = select i1 %tobool.i.not.i.i.i1028, ptr %__data_.i4.i.i.i1030, ptr %43
  %__size_.i.i.i1032 = getelementptr inbounds %"struct.std::__1::basic_string<char>::__long", ptr %ref.tmp100, i64 0, i32 1
  %44 = load i64, ptr %__size_.i.i.i1032, align 8
  %bf.lshr.i.i.i1033 = lshr i8 %bf.load.i.i.i.i1026, 1
  %conv.i.i.i1034 = zext i8 %bf.lshr.i.i.i1033 to i64
  %cond.i.i1035 = select i1 %tobool.i.not.i.i.i1028, i64 %conv.i.i.i1034, i64 %44
  %call2.i1036 = invoke noundef nonnull align 8 dereferenceable(8) ptr @_ZNSt3__124__put_character_sequenceB7v170000IcNS_11char_traitsIcEEEERNS_13basic_ostreamIT_T0_EES7_PKS4_m(ptr noundef nonnull align 8 dereferenceable(8) %call2.i1001, ptr noundef %cond.i.i.i1031, i64 noundef %cond.i.i1035)
          to label %invoke.cont107 unwind label %lpad106

invoke.cont107:                                   ; preds = %invoke.cont105
  %call1.i1039 = invoke noundef nonnull align 8 dereferenceable(8) ptr @_ZNSt3__124__put_character_sequenceB7v170000IcNS_11char_traitsIcEEEERNS_13basic_ostreamIT_T0_EES7_PKS4_m(ptr noundef nonnull align 8 dereferenceable(8) %call2.i1036, ptr noundef nonnull @.str.3, i64 noundef 2)
          to label %invoke.cont109 unwind label %lpad106

invoke.cont109:                                   ; preds = %invoke.cont107
  %bf.load.i.i1041 = load i8, ptr %ref.tmp100, align 8
  %bf.clear.i.i1042 = and i8 %bf.load.i.i1041, 1
  %tobool.i.not.i1043 = icmp eq i8 %bf.clear.i.i1042, 0
  br i1 %tobool.i.not.i1043, label %_ZNSt3__112basic_stringIcNS_11char_traitsIcEENS_9allocatorIcEEED2Ev.exit1046, label %if.then.i1045

if.then.i1045:                                    ; preds = %invoke.cont109
  %45 = load ptr, ptr %__data_.i.i.i.i1029, align 8, !tbaa !10
  call void @_ZdlPv(ptr noundef %45) #21
  br label %_ZNSt3__112basic_stringIcNS_11char_traitsIcEENS_9allocatorIcEEED2Ev.exit1046

_ZNSt3__112basic_stringIcNS_11char_traitsIcEENS_9allocatorIcEEED2Ev.exit1046: ; preds = %invoke.cont109, %if.then.i1045
  %bf.load.i.i1047 = load i8, ptr %ref.tmp101, align 8
  %bf.clear.i.i1048 = and i8 %bf.load.i.i1047, 1
  %tobool.i.not.i1049 = icmp eq i8 %bf.clear.i.i1048, 0
  br i1 %tobool.i.not.i1049, label %_ZNSt3__112basic_stringIcNS_11char_traitsIcEENS_9allocatorIcEEED2Ev.exit1052, label %if.then.i1051

if.then.i1051:                                    ; preds = %_ZNSt3__112basic_stringIcNS_11char_traitsIcEENS_9allocatorIcEEED2Ev.exit1046
  %__data_.i.i1050 = getelementptr inbounds %"struct.std::__1::basic_string<char>::__long", ptr %ref.tmp101, i64 0, i32 2
  %46 = load ptr, ptr %__data_.i.i1050, align 8, !tbaa !10
  call void @_ZdlPv(ptr noundef %46) #21
  br label %_ZNSt3__112basic_stringIcNS_11char_traitsIcEENS_9allocatorIcEEED2Ev.exit1052

_ZNSt3__112basic_stringIcNS_11char_traitsIcEENS_9allocatorIcEEED2Ev.exit1052: ; preds = %_ZNSt3__112basic_stringIcNS_11char_traitsIcEENS_9allocatorIcEEED2Ev.exit1046, %if.then.i1051
  call void @llvm.lifetime.end.p0(i64 24, ptr nonnull %ref.tmp101) #20
  call void @llvm.lifetime.end.p0(i64 24, ptr nonnull %ref.tmp100) #20
  %47 = load i32, ptr %34, align 8, !tbaa !99
  %cmp.not = icmp eq i32 %47, 1
  br i1 %cmp.not, label %if.end, label %if.then

if.then:                                          ; preds = %_ZNSt3__112basic_stringIcNS_11char_traitsIcEENS_9allocatorIcEEED2Ev.exit1052
  %bf.load.i.i.i.i1053 = load i8, ptr %indent, align 8
  %bf.clear.i.i.i.i1054 = and i8 %bf.load.i.i.i.i1053, 1
  %tobool.i.not.i.i.i1055 = icmp eq i8 %bf.clear.i.i.i.i1054, 0
  %48 = load ptr, ptr %__data_.i.i.i.i, align 8
  %cond.i.i.i1058 = select i1 %tobool.i.not.i.i.i1055, ptr %__data_.i.i.i, ptr %48
  %49 = load i64, ptr %__size_.i.i.i, align 8
  %bf.lshr.i.i.i1060 = lshr i8 %bf.load.i.i.i.i1053, 1
  %conv.i.i.i1061 = zext i8 %bf.lshr.i.i.i1060 to i64
  %cond.i.i1062 = select i1 %tobool.i.not.i.i.i1055, i64 %conv.i.i.i1061, i64 %49
  %call2.i1063 = invoke noundef nonnull align 8 dereferenceable(8) ptr @_ZNSt3__124__put_character_sequenceB7v170000IcNS_11char_traitsIcEEEERNS_13basic_ostreamIT_T0_EES7_PKS4_m(ptr noundef nonnull align 8 dereferenceable(8) %0, ptr noundef %cond.i.i.i1058, i64 noundef %cond.i.i1062)
          to label %invoke.cont115 unwind label %lpad

invoke.cont115:                                   ; preds = %if.then
  call void @llvm.lifetime.start.p0(i64 24, ptr nonnull %ref.tmp117) #20
  call void @llvm.lifetime.start.p0(i64 24, ptr nonnull %ref.tmp118) #20
  store i8 32, ptr %ref.tmp118, align 8
  %__data_.i.i.i1072 = getelementptr inbounds %"struct.std::__1::basic_string<char>::__short", ptr %ref.tmp118, i64 0, i32 2
  %cmp.i24.i.i1081 = icmp ugt ptr %__data_.i.i.i1072, @.str.29
  %add.ptr.i.i.i1082 = getelementptr inbounds %"struct.std::__1::basic_string<char>::__short", ptr %ref.tmp118, i64 0, i32 2, i64 16
  %cmp1.i.i.i1083 = icmp ule ptr %add.ptr.i.i.i1082, @.str.29
  %50 = or i1 %cmp.i24.i.i1081, %cmp1.i.i.i1083
  call void @llvm.assume(i1 %50)
  call void @llvm.memcpy.p0.p0.i64(ptr noundef nonnull align 1 dereferenceable(16) %__data_.i.i.i1072, ptr noundef nonnull align 1 dereferenceable(16) @.str.29, i64 16, i1 false)
  store i8 0, ptr %add.ptr.i.i.i1082, align 1, !tbaa !10
  %repetition_index = getelementptr inbounds %"struct.benchmark::BenchmarkReporter::Run", ptr %run, i64 0, i32 11
  %51 = load i64, ptr %repetition_index, align 8, !tbaa !101
  invoke fastcc void @_ZN9benchmark12_GLOBAL__N_18FormatKVERKNSt3__112basic_stringIcNS1_11char_traitsIcEENS1_9allocatorIcEEEEl(ptr noalias nonnull align 8 %ref.tmp117, ptr noundef nonnull align 8 dereferenceable(24) %ref.tmp118, i64 noundef %51)
          to label %invoke.cont122 unwind label %lpad121

invoke.cont122:                                   ; preds = %invoke.cont115
  %bf.load.i.i.i.i1088 = load i8, ptr %ref.tmp117, align 8
  %bf.clear.i.i.i.i1089 = and i8 %bf.load.i.i.i.i1088, 1
  %tobool.i.not.i.i.i1090 = icmp eq i8 %bf.clear.i.i.i.i1089, 0
  %__data_.i.i.i.i1091 = getelementptr inbounds %"struct.std::__1::basic_string<char>::__long", ptr %ref.tmp117, i64 0, i32 2
  %52 = load ptr, ptr %__data_.i.i.i.i1091, align 8
  %__data_.i4.i.i.i1092 = getelementptr inbounds %"struct.std::__1::basic_string<char>::__short", ptr %ref.tmp117, i64 0, i32 2
  %cond.i.i.i1093 = select i1 %tobool.i.not.i.i.i1090, ptr %__data_.i4.i.i.i1092, ptr %52
  %__size_.i.i.i1094 = getelementptr inbounds %"struct.std::__1::basic_string<char>::__long", ptr %ref.tmp117, i64 0, i32 1
  %53 = load i64, ptr %__size_.i.i.i1094, align 8
  %bf.lshr.i.i.i1095 = lshr i8 %bf.load.i.i.i.i1088, 1
  %conv.i.i.i1096 = zext i8 %bf.lshr.i.i.i1095 to i64
  %cond.i.i1097 = select i1 %tobool.i.not.i.i.i1090, i64 %conv.i.i.i1096, i64 %53
  %call2.i1098 = invoke noundef nonnull align 8 dereferenceable(8) ptr @_ZNSt3__124__put_character_sequenceB7v170000IcNS_11char_traitsIcEEEERNS_13basic_ostreamIT_T0_EES7_PKS4_m(ptr noundef nonnull align 8 dereferenceable(8) %call2.i1063, ptr noundef %cond.i.i.i1093, i64 noundef %cond.i.i1097)
          to label %invoke.cont124 unwind label %lpad123

invoke.cont124:                                   ; preds = %invoke.cont122
  %call1.i1101 = invoke noundef nonnull align 8 dereferenceable(8) ptr @_ZNSt3__124__put_character_sequenceB7v170000IcNS_11char_traitsIcEEEERNS_13basic_ostreamIT_T0_EES7_PKS4_m(ptr noundef nonnull align 8 dereferenceable(8) %call2.i1098, ptr noundef nonnull @.str.3, i64 noundef 2)
          to label %invoke.cont126 unwind label %lpad123

invoke.cont126:                                   ; preds = %invoke.cont124
  %bf.load.i.i1103 = load i8, ptr %ref.tmp117, align 8
  %bf.clear.i.i1104 = and i8 %bf.load.i.i1103, 1
  %tobool.i.not.i1105 = icmp eq i8 %bf.clear.i.i1104, 0
  br i1 %tobool.i.not.i1105, label %_ZNSt3__112basic_stringIcNS_11char_traitsIcEENS_9allocatorIcEEED2Ev.exit1108, label %if.then.i1107

if.then.i1107:                                    ; preds = %invoke.cont126
  %54 = load ptr, ptr %__data_.i.i.i.i1091, align 8, !tbaa !10
  call void @_ZdlPv(ptr noundef %54) #21
  br label %_ZNSt3__112basic_stringIcNS_11char_traitsIcEENS_9allocatorIcEEED2Ev.exit1108

_ZNSt3__112basic_stringIcNS_11char_traitsIcEENS_9allocatorIcEEED2Ev.exit1108: ; preds = %invoke.cont126, %if.then.i1107
  %bf.load.i.i1109 = load i8, ptr %ref.tmp118, align 8
  %bf.clear.i.i1110 = and i8 %bf.load.i.i1109, 1
  %tobool.i.not.i1111 = icmp eq i8 %bf.clear.i.i1110, 0
  br i1 %tobool.i.not.i1111, label %_ZNSt3__112basic_stringIcNS_11char_traitsIcEENS_9allocatorIcEEED2Ev.exit1114, label %if.then.i1113

if.then.i1113:                                    ; preds = %_ZNSt3__112basic_stringIcNS_11char_traitsIcEENS_9allocatorIcEEED2Ev.exit1108
  %__data_.i.i1112 = getelementptr inbounds %"struct.std::__1::basic_string<char>::__long", ptr %ref.tmp118, i64 0, i32 2
  %55 = load ptr, ptr %__data_.i.i1112, align 8, !tbaa !10
  call void @_ZdlPv(ptr noundef %55) #21
  br label %_ZNSt3__112basic_stringIcNS_11char_traitsIcEENS_9allocatorIcEEED2Ev.exit1114

_ZNSt3__112basic_stringIcNS_11char_traitsIcEENS_9allocatorIcEEED2Ev.exit1114: ; preds = %_ZNSt3__112basic_stringIcNS_11char_traitsIcEENS_9allocatorIcEEED2Ev.exit1108, %if.then.i1113
  call void @llvm.lifetime.end.p0(i64 24, ptr nonnull %ref.tmp118) #20
  call void @llvm.lifetime.end.p0(i64 24, ptr nonnull %ref.tmp117) #20
  br label %if.end

lpad:                                             ; preds = %if.end543, %invoke.cont525, %if.then524, %if.then426, %_ZNSt3__112basic_stringIcNS_11char_traitsIcEENS_9allocatorIcEEED2Ev.exit2228, %_ZNSt3__112basic_stringIcNS_11char_traitsIcEENS_9allocatorIcEEED2Ev.exit2160, %_ZNSt3__112basic_stringIcNS_11char_traitsIcEENS_9allocatorIcEEED2Ev.exit2098, %if.then344, %invoke.cont322, %if.end321, %_ZNSt3__112basic_stringIcNS_11char_traitsIcEENS_9allocatorIcEEED2Ev.exit1879, %if.else, %_ZNSt3__112basic_stringIcNS_11char_traitsIcEENS_9allocatorIcEEED2Ev.exit1722, %if.then252, %if.then231, %_ZNSt3__112basic_stringIcNS_11char_traitsIcEENS_9allocatorIcEEED2Ev.exit1497, %if.then191, %_ZNSt3__112basic_stringIcNS_11char_traitsIcEENS_9allocatorIcEEED2Ev.exit1334, %if.then151, %if.end, %if.then, %_ZNSt3__112basic_stringIcNS_11char_traitsIcEENS_9allocatorIcEEED2Ev.exit990, %_ZNSt3__112basic_stringIcNS_11char_traitsIcEENS_9allocatorIcEEED2Ev.exit928, %_ZNSt3__112basic_stringIcNS_11char_traitsIcEENS_9allocatorIcEEED2Ev.exit860, %_ZNSt3__112basic_stringIcNS_11char_traitsIcEENS_9allocatorIcEEED2Ev.exit798, %_ZNSt3__112basic_stringIcNS_11char_traitsIcEENS_9allocatorIcEEED2Ev.exit736, %entry
  %56 = landingpad { ptr, i32 }
          cleanup
  br label %ehcleanup546

lpad8:                                            ; preds = %invoke.cont2
  %57 = landingpad { ptr, i32 }
          cleanup
  br label %ehcleanup17

lpad10:                                           ; preds = %invoke.cont9
  %58 = landingpad { ptr, i32 }
          cleanup
  br label %ehcleanup

lpad12:                                           ; preds = %invoke.cont13, %invoke.cont11
  %59 = landingpad { ptr, i32 }
          cleanup
  %bf.load.i.i1115 = load i8, ptr %ref.tmp, align 8
  %bf.clear.i.i1116 = and i8 %bf.load.i.i1115, 1
  %tobool.i.not.i1117 = icmp eq i8 %bf.clear.i.i1116, 0
  br i1 %tobool.i.not.i1117, label %ehcleanup, label %if.then.i1119

if.then.i1119:                                    ; preds = %lpad12
  %60 = load ptr, ptr %__data_.i.i.i.i714, align 8, !tbaa !10
  call void @_ZdlPv(ptr noundef %60) #21
  br label %ehcleanup

ehcleanup:                                        ; preds = %if.then.i1119, %lpad12, %lpad10
  %.pn = phi { ptr, i32 } [ %58, %lpad10 ], [ %59, %lpad12 ], [ %59, %if.then.i1119 ]
  %bf.load.i.i1121 = load i8, ptr %ref.tmp7, align 8
  %bf.clear.i.i1122 = and i8 %bf.load.i.i1121, 1
  %tobool.i.not.i1123 = icmp eq i8 %bf.clear.i.i1122, 0
  br i1 %tobool.i.not.i1123, label %ehcleanup17, label %if.then.i1125

if.then.i1125:                                    ; preds = %ehcleanup
  %__data_.i.i1124 = getelementptr inbounds %"struct.std::__1::basic_string<char>::__long", ptr %ref.tmp7, i64 0, i32 2
  %61 = load ptr, ptr %__data_.i.i1124, align 8, !tbaa !10
  call void @_ZdlPv(ptr noundef %61) #21
  br label %ehcleanup17

ehcleanup17:                                      ; preds = %if.then.i1125, %ehcleanup, %lpad8
  %.pn.pn = phi { ptr, i32 } [ %57, %lpad8 ], [ %.pn, %ehcleanup ], [ %.pn, %if.then.i1125 ]
  call void @llvm.lifetime.end.p0(i64 24, ptr nonnull %ref.tmp7) #20
  %bf.load.i.i1127 = load i8, ptr %ref.tmp4, align 8
  %bf.clear.i.i1128 = and i8 %bf.load.i.i1127, 1
  %tobool.i.not.i1129 = icmp eq i8 %bf.clear.i.i1128, 0
  br i1 %tobool.i.not.i1129, label %ehcleanup19, label %if.then.i1131

if.then.i1131:                                    ; preds = %ehcleanup17
  %__data_.i.i1130 = getelementptr inbounds %"struct.std::__1::basic_string<char>::__long", ptr %ref.tmp4, i64 0, i32 2
  %62 = load ptr, ptr %__data_.i.i1130, align 8, !tbaa !10
  call void @_ZdlPv(ptr noundef %62) #21
  br label %ehcleanup19

ehcleanup19:                                      ; preds = %if.then.i1131, %ehcleanup17
  call void @llvm.lifetime.end.p0(i64 24, ptr nonnull %ref.tmp4) #20
  call void @llvm.lifetime.end.p0(i64 24, ptr nonnull %ref.tmp) #20
  br label %ehcleanup546

lpad27:                                           ; preds = %invoke.cont21
  %63 = landingpad { ptr, i32 }
          cleanup
  br label %ehcleanup35

lpad29:                                           ; preds = %invoke.cont30, %invoke.cont28
  %64 = landingpad { ptr, i32 }
          cleanup
  %bf.load.i.i1133 = load i8, ptr %ref.tmp23, align 8
  %bf.clear.i.i1134 = and i8 %bf.load.i.i1133, 1
  %tobool.i.not.i1135 = icmp eq i8 %bf.clear.i.i1134, 0
  br i1 %tobool.i.not.i1135, label %ehcleanup35, label %if.then.i1137

if.then.i1137:                                    ; preds = %lpad29
  %65 = load ptr, ptr %__data_.i.i.i.i775, align 8, !tbaa !10
  call void @_ZdlPv(ptr noundef %65) #21
  br label %ehcleanup35

ehcleanup35:                                      ; preds = %if.then.i1137, %lpad29, %lpad27
  %.pn620 = phi { ptr, i32 } [ %63, %lpad27 ], [ %64, %lpad29 ], [ %64, %if.then.i1137 ]
  %bf.load.i.i1139 = load i8, ptr %ref.tmp24, align 8
  %bf.clear.i.i1140 = and i8 %bf.load.i.i1139, 1
  %tobool.i.not.i1141 = icmp eq i8 %bf.clear.i.i1140, 0
  br i1 %tobool.i.not.i1141, label %ehcleanup36, label %if.then.i1143

if.then.i1143:                                    ; preds = %ehcleanup35
  %__data_.i.i1142 = getelementptr inbounds %"struct.std::__1::basic_string<char>::__long", ptr %ref.tmp24, i64 0, i32 2
  %66 = load ptr, ptr %__data_.i.i1142, align 8, !tbaa !10
  call void @_ZdlPv(ptr noundef %66) #21
  br label %ehcleanup36

ehcleanup36:                                      ; preds = %if.then.i1143, %ehcleanup35
  call void @llvm.lifetime.end.p0(i64 24, ptr nonnull %ref.tmp24) #20
  call void @llvm.lifetime.end.p0(i64 24, ptr nonnull %ref.tmp23) #20
  br label %ehcleanup546

lpad42:                                           ; preds = %invoke.cont38
  %67 = landingpad { ptr, i32 }
          cleanup
  br label %ehcleanup53

lpad44:                                           ; preds = %call.i.i.i.i.i.i.noexc831
  %68 = landingpad { ptr, i32 }
          cleanup
  br label %ehcleanup52

lpad46:                                           ; preds = %invoke.cont47, %invoke.cont45
  %69 = landingpad { ptr, i32 }
          cleanup
  %bf.load.i.i1145 = load i8, ptr %ref.tmp40, align 8
  %bf.clear.i.i1146 = and i8 %bf.load.i.i1145, 1
  %tobool.i.not.i1147 = icmp eq i8 %bf.clear.i.i1146, 0
  br i1 %tobool.i.not.i1147, label %ehcleanup52, label %if.then.i1149

if.then.i1149:                                    ; preds = %lpad46
