; ModuleID = '/local/mnt2/workspace2/mnadeem/llvm/llvm-test-suite/MicroBenchmarks/libs/benchmark/test/commandlineflags_gtest.cc'
source_filename = "/local/mnt2/workspace2/mnadeem/llvm/llvm-test-suite/MicroBenchmarks/libs/benchmark/test/commandlineflags_gtest.cc"
target datalayout = "e-m:e-p270:32:32-p271:32:32-p272:64:64-i64:64-f80:128-n8:16:32:64-S128"
target triple = "x86_64-unknown-linux-gnu"

%"class.std::__1::locale::id" = type <{ %"struct.std::__1::once_flag", i32, [4 x i8] }>
%"struct.std::__1::once_flag" = type { i64 }
%"class.std::__1::basic_ostream" = type { ptr, %"class.std::__1::basic_ios.base" }
%"class.std::__1::basic_ios.base" = type <{ %"class.std::__1::ios_base", ptr, i32 }>
%"class.std::__1::ios_base" = type { ptr, i32, i64, i64, i32, i32, ptr, ptr, ptr, ptr, i64, i64, ptr, i64, i64, ptr, i64, i64 }
%"struct.testing::internal::MatcherBase<const std::__1::pair<const std::__1::string, std::__1::string> &>::VTable" = type { ptr, ptr, ptr, ptr }
%"struct.testing::internal::MatcherBase<const std::__1::map<std::__1::string, std::__1::string> &>::VTable" = type { ptr, ptr, ptr, ptr }
%"class.testing::internal::GTestLog" = type { i32 }
%"class.testing::AssertionResult" = type { i8, %"class.std::__1::unique_ptr.38" }
%"class.std::__1::unique_ptr.38" = type { %"class.std::__1::__compressed_pair.39" }
%"class.std::__1::__compressed_pair.39" = type { %"struct.std::__1::__compressed_pair_elem.40" }
%"struct.std::__1::__compressed_pair_elem.40" = type { ptr }
%"class.testing::Message" = type { %"class.std::__1::unique_ptr.44" }
%"class.std::__1::unique_ptr.44" = type { %"class.std::__1::__compressed_pair.45" }
%"class.std::__1::__compressed_pair.45" = type { %"struct.std::__1::__compressed_pair_elem.46" }
%"struct.std::__1::__compressed_pair_elem.46" = type { ptr }
%"class.testing::internal::AssertHelper" = type { ptr }
%"struct.std::__1::basic_string<char>::__long" = type { %struct.anon, i64, ptr }
%struct.anon = type { i64 }
%"struct.std::__1::basic_string<char>::__short" = type { %struct.anon.0, [0 x i8], [23 x i8] }
%struct.anon.0 = type { i8 }
%"class.std::__1::basic_string" = type { %"class.std::__1::__compressed_pair" }
%"class.std::__1::__compressed_pair" = type { %"struct.std::__1::__compressed_pair_elem" }
%"struct.std::__1::__compressed_pair_elem" = type { %"struct.std::__1::basic_string<char>::__rep" }
%"struct.std::__1::basic_string<char>::__rep" = type { %union.anon }
%union.anon = type { %"struct.std::__1::basic_string<char>::__long" }
%"class.std::__1::basic_stringstream" = type { %"class.std::__1::basic_iostream.base", %"class.std::__1::basic_stringbuf", %"class.std::__1::basic_ios.base" }
%"class.std::__1::basic_iostream.base" = type { %"class.std::__1::basic_istream.base", %"class.std::__1::basic_ostream.base" }
%"class.std::__1::basic_istream.base" = type { ptr, i64 }
%"class.std::__1::basic_ostream.base" = type { ptr }
%"class.std::__1::basic_stringbuf" = type <{ %"class.std::__1::basic_streambuf", %"class.std::__1::basic_string", ptr, i32, [4 x i8] }>
%"class.std::__1::basic_streambuf" = type { ptr, %"class.std::__1::locale", ptr, ptr, ptr, ptr, ptr, ptr }
%"class.std::__1::locale" = type { ptr }
%"class.std::__1::basic_istream" = type { ptr, i64, %"class.std::__1::basic_ios.base" }
%"class.std::__1::basic_ostream<char>::sentry" = type { i8, ptr }
%"class.std::__1::basic_ios" = type <{ %"class.std::__1::ios_base", ptr, i32, [4 x i8] }>
%"class.testing::internal::PredicateFormatterFromMatcher" = type { %"class.testing::internal::ElementsAreMatcher" }
%"class.testing::internal::ElementsAreMatcher" = type { %"class.std::__1::tuple" }
%"class.std::__1::tuple" = type { %"struct.std::__1::__tuple_impl" }
%"struct.std::__1::__tuple_impl" = type { %"class.std::__1::__tuple_leaf" }
%"class.std::__1::__tuple_leaf" = type { %"class.testing::internal::PairMatcher" }
%"class.testing::internal::PairMatcher" = type { ptr, ptr }
%"class.std::__1::map" = type { %"class.std::__1::__tree" }
%"class.std::__1::__tree" = type { ptr, %"class.std::__1::__compressed_pair.51", %"class.std::__1::__compressed_pair.57" }
%"class.std::__1::__compressed_pair.51" = type { %"struct.std::__1::__compressed_pair_elem.52" }
%"struct.std::__1::__compressed_pair_elem.52" = type { %"class.std::__1::__tree_end_node" }
%"class.std::__1::__tree_end_node" = type { ptr }
%"class.std::__1::__compressed_pair.57" = type { %"struct.std::__1::__compressed_pair_elem.58" }
%"struct.std::__1::__compressed_pair_elem.58" = type { i64 }
%"struct.std::__1::pair" = type { %"class.std::__1::basic_string", %"class.std::__1::basic_string" }
%"class.testing::internal::DummyMatchResultListener" = type { %"class.testing::MatchResultListener" }
%"class.testing::MatchResultListener" = type { ptr, ptr }
%"class.testing::Matcher" = type { %"class.testing::internal::MatcherBase" }
%"class.testing::internal::MatcherBase" = type { %"class.testing::MatcherDescriberInterface", ptr, %"union.testing::internal::MatcherBase<const std::__1::map<std::__1::string, std::__1::string> &>::Buffer" }
%"class.testing::MatcherDescriberInterface" = type { ptr }
%"union.testing::internal::MatcherBase<const std::__1::map<std::__1::string, std::__1::string> &>::Buffer" = type { ptr }
%"class.testing::StringMatchResultListener" = type { %"class.testing::MatchResultListener", %"class.std::__1::basic_stringstream" }
%"struct.testing::internal::TransformTupleValuesHelper<std::__1::tuple<testing::internal::PairMatcher<const char *, const char *>>, testing::internal::CastAndAppendTransform<const std::__1::pair<const std::__1::string, std::__1::string> &>, std::__1::back_insert_iterator<std::__1::vector<testing::Matcher<const std::__1::pair<const std::__1::string, std::__1::string> &>>>>::IterateOverTuple" = type { i8 }
%"class.std::__1::vector.65" = type { ptr, ptr, %"class.std::__1::__compressed_pair.68" }
%"class.std::__1::__compressed_pair.68" = type { %"struct.std::__1::__compressed_pair_elem.69" }
%"struct.std::__1::__compressed_pair_elem.69" = type { ptr }
%"class.testing::Matcher.66" = type { %"class.testing::internal::MatcherBase.67" }
%"class.testing::internal::MatcherBase.67" = type { %"class.testing::MatcherDescriberInterface", ptr, %"union.testing::internal::MatcherBase<const std::__1::pair<const std::__1::string, std::__1::string> &>::Buffer" }
%"union.testing::internal::MatcherBase<const std::__1::pair<const std::__1::string, std::__1::string> &>::Buffer" = type { ptr }
%"struct.testing::internal::SharedPayload.109" = type { %"struct.testing::internal::SharedPayloadBase", %"class.std::__1::unique_ptr.110" }
%"struct.testing::internal::SharedPayloadBase" = type { %"struct.std::__1::atomic" }
%"struct.std::__1::atomic" = type { %"struct.std::__1::__atomic_base" }
%"struct.std::__1::__atomic_base" = type { %"struct.std::__1::__atomic_base.62" }
%"struct.std::__1::__atomic_base.62" = type { %"struct.std::__1::__cxx_atomic_impl" }
%"struct.std::__1::__cxx_atomic_impl" = type { %"struct.std::__1::__cxx_atomic_base_impl" }
%"struct.std::__1::__cxx_atomic_base_impl" = type { i32 }
%"class.std::__1::unique_ptr.110" = type { %"class.std::__1::__compressed_pair.111" }
%"class.std::__1::__compressed_pair.111" = type { %"struct.std::__1::__compressed_pair_elem.112" }
%"struct.std::__1::__compressed_pair_elem.112" = type { ptr }
%"class.testing::internal::ElementsAreMatcherImpl" = type { %"class.testing::MatcherInterface", %"class.std::__1::vector.65" }
%"class.testing::MatcherInterface" = type { %"class.testing::MatcherDescriberInterface" }
%"class.testing::internal::PairMatcherImpl" = type { %"class.testing::MatcherInterface.83", %"class.testing::Matcher.84", %"class.testing::Matcher.84" }
%"class.testing::MatcherInterface.83" = type { %"class.testing::MatcherDescriberInterface" }
%"class.testing::Matcher.84" = type { %"class.testing::internal::MatcherBase.85" }
%"class.testing::internal::MatcherBase.85" = type { %"class.testing::MatcherDescriberInterface", ptr, %"union.testing::internal::MatcherBase<const std::__1::string &>::Buffer" }
%"union.testing::internal::MatcherBase<const std::__1::string &>::Buffer" = type { ptr }
%"struct.testing::internal::MatcherBase<const std::__1::string &>::VTable" = type { ptr, ptr, ptr, ptr }
%"struct.testing::internal::SharedPayload" = type { %"struct.testing::internal::SharedPayloadBase", %"class.std::__1::unique_ptr.88" }
%"class.std::__1::unique_ptr.88" = type { %"class.std::__1::__compressed_pair.89" }
%"class.std::__1::__compressed_pair.89" = type { %"struct.std::__1::__compressed_pair_elem.90" }
%"struct.std::__1::__compressed_pair_elem.90" = type { ptr }
%"struct.std::__1::__exception_guard_exceptions.106" = type <{ %"class.std::__1::vector<std::__1::string>::__destroy_vector", i8, [7 x i8] }>
%"class.std::__1::vector<std::__1::string>::__destroy_vector" = type { ptr }
%"class.std::__1::vector.100" = type { ptr, ptr, %"class.std::__1::__compressed_pair.101" }
%"class.std::__1::__compressed_pair.101" = type { %"struct.std::__1::__compressed_pair_elem.40" }
%"class.std::__1::__tree_node" = type { %"class.std::__1::__tree_node_base.base", %"struct.std::__1::__value_type" }
%"class.std::__1::__tree_node_base.base" = type <{ %"class.std::__1::__tree_end_node", ptr, ptr, i8 }>
%"struct.std::__1::__value_type" = type { %"struct.std::__1::pair" }
%"class.std::__1::__tree_node_base" = type <{ %"class.std::__1::__tree_end_node", ptr, ptr, i8, [7 x i8] }>
%"class.std::type_info" = type { ptr, ptr }
%"class.testing::internal::PredicateFormatterFromMatcher.126" = type { %"class.testing::internal::UnorderedElementsAreMatcher" }
%"class.testing::internal::UnorderedElementsAreMatcher" = type { %"class.std::__1::tuple.127" }
%"class.std::__1::tuple.127" = type { %"struct.std::__1::__tuple_impl.128" }
%"struct.std::__1::__tuple_impl.128" = type { %"class.std::__1::__tuple_leaf", %"class.std::__1::__tuple_leaf.129" }
%"class.std::__1::__tuple_leaf.129" = type { %"class.testing::internal::PairMatcher" }
%"struct.testing::internal::TransformTupleValuesHelper<std::__1::tuple<testing::internal::PairMatcher<const char *, const char *>, testing::internal::PairMatcher<const char *, const char *>>, testing::internal::CastAndAppendTransform<const std::__1::pair<const std::__1::string, std::__1::string> &>, std::__1::back_insert_iterator<std::__1::vector<testing::Matcher<const std::__1::pair<const std::__1::string, std::__1::string> &>>>>::IterateOverTuple" = type { i8 }
%"class.testing::internal::UnorderedElementsAreMatcherImpl" = type { %"class.testing::MatcherInterface", %"class.testing::internal::UnorderedElementsAreMatcherImplBase", %"class.std::__1::vector.65" }
%"class.testing::internal::UnorderedElementsAreMatcherImplBase" = type { i32, %"class.std::__1::vector.133" }
%"class.std::__1::vector.133" = type { ptr, ptr, %"class.std::__1::__compressed_pair.134" }
%"class.std::__1::__compressed_pair.134" = type { %"struct.std::__1::__compressed_pair_elem.135" }
%"struct.std::__1::__compressed_pair_elem.135" = type { ptr }
%"struct.testing::internal::TransformTupleValuesHelper<std::__1::tuple<testing::internal::PairMatcher<const char *, const char *>, testing::internal::PairMatcher<const char *, const char *>>, testing::internal::CastAndAppendTransform<const std::__1::pair<const std::__1::string, std::__1::string> &>, std::__1::back_insert_iterator<std::__1::vector<testing::Matcher<const std::__1::pair<const std::__1::string, std::__1::string> &>>>>::IterateOverTuple.140" = type { i8 }
%"class.testing::internal::MatchMatrix" = type { i64, i64, %"class.std::__1::vector.149" }
%"class.std::__1::vector.149" = type { ptr, ptr, %"class.std::__1::__compressed_pair.150" }
%"class.std::__1::__compressed_pair.150" = type { %"struct.std::__1::__compressed_pair_elem.151" }
%"struct.std::__1::__compressed_pair_elem.151" = type { ptr }
%"struct.testing::internal::CodeLocation" = type <{ %"class.std::__1::basic_string", i32, [4 x i8] }>

$_ZN7testing8internal16SuiteApiResolverINS_4TestEE19GetSetUpCaseOrSuiteEPKci = comdat any

$_ZN7testing8internal16SuiteApiResolverINS_4TestEE22GetTearDownCaseOrSuiteEPKci = comdat any

$_ZN7testing4Test5SetupEv = comdat any

$_ZN7testing8internal8EqHelper7CompareIiiLPv0EEENS_15AssertionResultEPKcS6_RKT_RKT0_ = comdat any

$_ZN7testing15AssertionResultD2Ev = comdat any

$_ZN7testing8internal8EqHelper7CompareIbbLPv0EEENS_15AssertionResultEPKcS6_RKT_RKT0_ = comdat any

$_ZN7testing8internal18CmpHelperEQFailureIiiEENS_15AssertionResultEPKcS4_RKT_RKT0_ = comdat any

$_ZN7testing13PrintToStringIiEENSt3__112basic_stringIcNS1_11char_traitsIcEENS1_9allocatorIcEEEERKT_ = comdat any

$_ZNSt3__118basic_stringstreamIcNS_11char_traitsIcEENS_9allocatorIcEEED1Ev = comdat any

$_ZNSt3__118basic_stringstreamIcNS_11char_traitsIcEENS_9allocatorIcEEED0Ev = comdat any

$_ZThn16_NSt3__118basic_stringstreamIcNS_11char_traitsIcEENS_9allocatorIcEEED1Ev = comdat any

$_ZThn16_NSt3__118basic_stringstreamIcNS_11char_traitsIcEENS_9allocatorIcEEED0Ev = comdat any

$_ZTv0_n24_NSt3__118basic_stringstreamIcNS_11char_traitsIcEENS_9allocatorIcEEED1Ev = comdat any

$_ZTv0_n24_NSt3__118basic_stringstreamIcNS_11char_traitsIcEENS_9allocatorIcEEED0Ev = comdat any

$_ZNSt3__115basic_stringbufIcNS_11char_traitsIcEENS_9allocatorIcEEED2Ev = comdat any

$_ZNSt3__115basic_stringbufIcNS_11char_traitsIcEENS_9allocatorIcEEED0Ev = comdat any

$_ZNSt3__115basic_stringbufIcNS_11char_traitsIcEENS_9allocatorIcEEE7seekoffExNS_8ios_base7seekdirEj = comdat any

$_ZNSt3__115basic_stringbufIcNS_11char_traitsIcEENS_9allocatorIcEEE7seekposENS_4fposI11__mbstate_tEEj = comdat any

$_ZNSt3__115basic_stringbufIcNS_11char_traitsIcEENS_9allocatorIcEEE9underflowEv = comdat any

$_ZNSt3__115basic_stringbufIcNS_11char_traitsIcEENS_9allocatorIcEEE9pbackfailEi = comdat any

$_ZNSt3__115basic_stringbufIcNS_11char_traitsIcEENS_9allocatorIcEEE8overflowEi = comdat any

$__clang_call_terminate = comdat any

$_ZNKSt3__115basic_stringbufIcNS_11char_traitsIcEENS_9allocatorIcEEE3strEv = comdat any

$_ZNKSt3__112basic_stringIcNS_11char_traitsIcEENS_9allocatorIcEEE20__throw_length_errorB7v170000Ev = comdat any

$_ZNSt3__120__throw_length_errorB7v170000EPKc = comdat any

$_ZNSt12length_errorC2B7v170000EPKc = comdat any

$_ZSt28__throw_bad_array_new_lengthB7v170000v = comdat any

$_ZN7testing8internal18CmpHelperEQFailureIbbEENS_15AssertionResultEPKcS4_RKT_RKT0_ = comdat any

$_ZN7testing13PrintToStringIbEENSt3__112basic_stringIcNS1_11char_traitsIcEENS1_9allocatorIcEEEERKT_ = comdat any

$_ZNSt3__124__put_character_sequenceB7v170000IcNS_11char_traitsIcEEEERNS_13basic_ostreamIT_T0_EES7_PKS4_m = comdat any

$_ZNSt3__116__pad_and_outputB7v170000IcNS_11char_traitsIcEEEENS_19ostreambuf_iteratorIT_T0_EES6_PKS4_S8_S8_RNS_8ios_baseES4_ = comdat any

$_ZN7testing8internal18CmpHelperEQFailureIddEENS_15AssertionResultEPKcS4_RKT_RKT0_ = comdat any

$_ZN7testing13PrintToStringIdEENSt3__112basic_stringIcNS1_11char_traitsIcEENS1_9allocatorIcEEEERKT_ = comdat any

$_ZN7testing8internal15TestFactoryBaseD2Ev = comdat any

$_ZNK7testing8internal29PredicateFormatterFromMatcherINS0_18ElementsAreMatcherINSt3__15tupleIJNS0_11PairMatcherIPKcS7_EEEEEEEEclINS3_3mapINS3_12basic_stringIcNS3_11char_traitsIcEENS3_9allocatorIcEEEESJ_NS3_4lessISJ_EENSH_INS3_4pairIKSJ_SJ_EEEEEEEENS_15AssertionResultES7_RKT_ = comdat any

$_ZNSt3__14pairIKNS_12basic_stringIcNS_11char_traitsIcEENS_9allocatorIcEEEES6_EC2B7v170000IRA4_KcSC_LPv0EEEOT_OT0_ = comdat any

$_ZNSt3__14pairIKNS_12basic_stringIcNS_11char_traitsIcEENS_9allocatorIcEEEES6_ED2Ev = comdat any

$_ZNK7testing8internal11MatcherBaseIRKNSt3__13mapINS2_12basic_stringIcNS2_11char_traitsIcEENS2_9allocatorIcEEEES9_NS2_4lessIS9_EENS7_INS2_4pairIKS9_S9_EEEEEEE10DescribeToEPNS2_13basic_ostreamIcS6_EE = comdat any

$_ZN7testing8internal20MatchPrintAndExplainIKNSt3__13mapINS2_12basic_stringIcNS2_11char_traitsIcEENS2_9allocatorIcEEEES9_NS2_4lessIS9_EENS7_INS2_4pairIKS9_S9_EEEEEERSH_EEbRT_RKNS_7MatcherIT0_EEPNS_19MatchResultListenerE = comdat any

$_ZN7testing25StringMatchResultListenerD2Ev = comdat any

$_ZNK7testing8internal18ElementsAreMatcherINSt3__15tupleIJNS0_11PairMatcherIPKcS6_EEEEEEcvNS_7MatcherIT_EEIRKNS2_3mapINS2_12basic_stringIcNS2_11char_traitsIcEENS2_9allocatorIcEEEESK_NS2_4lessISK_EENSI_INS2_4pairIKSK_SK_EEEEEEEEv = comdat any

$_ZN7testing8internal22ElementsAreMatcherImplIRKNSt3__13mapINS2_12basic_stringIcNS2_11char_traitsIcEENS2_9allocatorIcEEEES9_NS2_4lessIS9_EENS7_INS2_4pairIKS9_S9_EEEEEEEC2INS2_11__wrap_iterIPNS_7MatcherIRKSE_EEEEEET_SS_ = comdat any

$_ZNSt3__16vectorIN7testing7MatcherIRKNS_4pairIKNS_12basic_stringIcNS_11char_traitsIcEENS_9allocatorIcEEEES9_EEEENS7_ISE_EEED2B7v170000Ev = comdat any

$_ZNKSt3__16vectorIN7testing7MatcherIRKNS_4pairIKNS_12basic_stringIcNS_11char_traitsIcEENS_9allocatorIcEEEES9_EEEENS7_ISE_EEE20__throw_length_errorB7v170000Ev = comdat any

$_ZN7testing8internal11MatcherBaseIRKNSt3__14pairIKNS2_12basic_stringIcNS2_11char_traitsIcEENS2_9allocatorIcEEEES9_EEED2Ev = comdat any

$_ZN7testing7MatcherIRKNSt3__14pairIKNS1_12basic_stringIcNS1_11char_traitsIcEENS1_9allocatorIcEEEES8_EEED0Ev = comdat any

$_ZNK7testing8internal11MatcherBaseIRKNSt3__14pairIKNS2_12basic_stringIcNS2_11char_traitsIcEENS2_9allocatorIcEEEES9_EEE10DescribeToEPNS2_13basic_ostreamIcS6_EE = comdat any

$_ZNK7testing8internal11MatcherBaseIRKNSt3__14pairIKNS2_12basic_stringIcNS2_11char_traitsIcEENS2_9allocatorIcEEEES9_EEE18DescribeNegationToEPNS2_13basic_ostreamIcS6_EE = comdat any

$_ZN7testing8internal11MatcherBaseIRKNSt3__14pairIKNS2_12basic_stringIcNS2_11char_traitsIcEENS2_9allocatorIcEEEES9_EEED0Ev = comdat any

$_ZNK7testing8internal26TransformTupleValuesHelperINSt3__15tupleIJNS0_11PairMatcherIPKcS6_EEEEENS0_22CastAndAppendTransformIRKNS2_4pairIKNS2_12basic_stringIcNS2_11char_traitsIcEENS2_9allocatorIcEEEESG_EEEENS2_20back_insert_iteratorINS2_6vectorINS_7MatcherISK_EENSE_ISP_EEEEEEE16IterateOverTupleIS8_Lm1EEclESL_RKS8_SS_ = comdat any

$_ZN7testing8internal15MatcherCastImplIRKNSt3__14pairIKNS2_12basic_stringIcNS2_11char_traitsIcEENS2_9allocatorIcEEEES9_EENS0_11PairMatcherIPKcSG_EEE8CastImplILb0EEENS_7MatcherISD_EERKSH_NS2_17integral_constantIbLb1EEENSO_IbXT_EEE = comdat any

$_ZN7testing8internal11MatcherBaseIRKNSt3__112basic_stringIcNS2_11char_traitsIcEENS2_9allocatorIcEEEEED2Ev = comdat any

$_ZN7testing8internal15PairMatcherImplIRKNSt3__14pairIKNS2_12basic_stringIcNS2_11char_traitsIcEENS2_9allocatorIcEEEES9_EEED2Ev = comdat any

$_ZN7testing8internal15PairMatcherImplIRKNSt3__14pairIKNS2_12basic_stringIcNS2_11char_traitsIcEENS2_9allocatorIcEEEES9_EEED0Ev = comdat any

$_ZNK7testing8internal15PairMatcherImplIRKNSt3__14pairIKNS2_12basic_stringIcNS2_11char_traitsIcEENS2_9allocatorIcEEEES9_EEE10DescribeToEPNS2_13basic_ostreamIcS6_EE = comdat any

$_ZNK7testing8internal15PairMatcherImplIRKNSt3__14pairIKNS2_12basic_stringIcNS2_11char_traitsIcEENS2_9allocatorIcEEEES9_EEE18DescribeNegationToEPNS2_13basic_ostreamIcS6_EE = comdat any

$_ZNK7testing8internal15PairMatcherImplIRKNSt3__14pairIKNS2_12basic_stringIcNS2_11char_traitsIcEENS2_9allocatorIcEEEES9_EEE15MatchAndExplainESD_PNS_19MatchResultListenerE = comdat any

$_ZN7testing8internal11MatcherBaseIRKNSt3__112basic_stringIcNS2_11char_traitsIcEENS2_9allocatorIcEEEEED0Ev = comdat any

$_ZNK7testing8internal11MatcherBaseIRKNSt3__112basic_stringIcNS2_11char_traitsIcEENS2_9allocatorIcEEEEE10DescribeToEPNS2_13basic_ostreamIcS5_EE = comdat any

$_ZNK7testing8internal11MatcherBaseIRKNSt3__112basic_stringIcNS2_11char_traitsIcEENS2_9allocatorIcEEEEE18DescribeNegationToEPNS2_13basic_ostreamIcS5_EE = comdat any

$_ZNK7testing8internal15PairMatcherImplIRKNSt3__14pairIKNS2_12basic_stringIcNS2_11char_traitsIcEENS2_9allocatorIcEEEES9_EEE14ExplainSuccessERSA_SF_PNS_19MatchResultListenerE = comdat any

$_ZN7testing19MatchResultListenerD2Ev = comdat any

$_ZN7testing8internal24DummyMatchResultListenerD0Ev = comdat any

$_ZN7testing8internal11MatcherBaseIRKNSt3__14pairIKNS2_12basic_stringIcNS2_11char_traitsIcEENS2_9allocatorIcEEEES9_EEE19MatchAndExplainImplINSE_11ValuePolicyIPKNS_16MatcherInterfaceISD_EELb1EEEEEDTcldtclsrT_3Getfp_E15MatchAndExplainfp0_fp1_EERKSE_SD_PNS_19MatchResultListenerE = comdat any

$_ZN7testing8internal11MatcherBaseIRKNSt3__14pairIKNS2_12basic_stringIcNS2_11char_traitsIcEENS2_9allocatorIcEEEES9_EEE12DescribeImplINSE_11ValuePolicyIPKNS_16MatcherInterfaceISD_EELb1EEEEEvRKSE_PNS2_13basic_ostreamIcS6_EEb = comdat any

$_ZN7testing8internal11MatcherBaseIRKNSt3__14pairIKNS2_12basic_stringIcNS2_11char_traitsIcEENS2_9allocatorIcEEEES9_EEE16GetDescriberImplINSE_11ValuePolicyIPKNS_16MatcherInterfaceISD_EELb1EEEEEPKNS_25MatcherDescriberInterfaceERKSE_ = comdat any

$_ZN7testing8internal13SharedPayloadINSt3__110unique_ptrIKNS_16MatcherInterfaceIRKNS2_4pairIKNS2_12basic_stringIcNS2_11char_traitsIcEENS2_9allocatorIcEEEESB_EEEENS2_14default_deleteISH_EEEEE7DestroyEPNS0_17SharedPayloadBaseE = comdat any

$_ZNSt3__16vectorIN7testing7MatcherIRKNS_4pairIKNS_12basic_stringIcNS_11char_traitsIcEENS_9allocatorIcEEEES9_EEEENS7_ISE_EEE21__push_back_slow_pathISE_EEvOT_ = comdat any

$_ZN7testing8internal22ElementsAreMatcherImplIRKNSt3__13mapINS2_12basic_stringIcNS2_11char_traitsIcEENS2_9allocatorIcEEEES9_NS2_4lessIS9_EENS7_INS2_4pairIKS9_S9_EEEEEEED2Ev = comdat any

$_ZN7testing8internal22ElementsAreMatcherImplIRKNSt3__13mapINS2_12basic_stringIcNS2_11char_traitsIcEENS2_9allocatorIcEEEES9_NS2_4lessIS9_EENS7_INS2_4pairIKS9_S9_EEEEEEED0Ev = comdat any

$_ZNK7testing8internal22ElementsAreMatcherImplIRKNSt3__13mapINS2_12basic_stringIcNS2_11char_traitsIcEENS2_9allocatorIcEEEES9_NS2_4lessIS9_EENS7_INS2_4pairIKS9_S9_EEEEEEE10DescribeToEPNS2_13basic_ostreamIcS6_EE = comdat any

$_ZNK7testing8internal22ElementsAreMatcherImplIRKNSt3__13mapINS2_12basic_stringIcNS2_11char_traitsIcEENS2_9allocatorIcEEEES9_NS2_4lessIS9_EENS7_INS2_4pairIKS9_S9_EEEEEEE18DescribeNegationToEPNS2_13basic_ostreamIcS6_EE = comdat any

$_ZNK7testing8internal22ElementsAreMatcherImplIRKNSt3__13mapINS2_12basic_stringIcNS2_11char_traitsIcEENS2_9allocatorIcEEEES9_NS2_4lessIS9_EENS7_INS2_4pairIKS9_S9_EEEEEEE15MatchAndExplainESI_PNS_19MatchResultListenerE = comdat any

$_ZN7testing7MessageC2ERKS0_ = comdat any

$_ZNSt3__16vectorINS_12basic_stringIcNS_11char_traitsIcEENS_9allocatorIcEEEENS4_IS6_EEED2B7v170000Ev = comdat any

$_ZNSt3__128__exception_guard_exceptionsINS_6vectorINS_12basic_stringIcNS_11char_traitsIcEENS_9allocatorIcEEEENS5_IS7_EEE16__destroy_vectorEED2B7v170000Ev = comdat any

$_ZNKSt3__16vectorINS_12basic_stringIcNS_11char_traitsIcEENS_9allocatorIcEEEENS4_IS6_EEE20__throw_length_errorB7v170000Ev = comdat any

$_ZN7testing7MatcherIRKNSt3__13mapINS1_12basic_stringIcNS1_11char_traitsIcEENS1_9allocatorIcEEEES8_NS1_4lessIS8_EENS6_INS1_4pairIKS8_S8_EEEEEEED0Ev = comdat any

$_ZNK7testing8internal11MatcherBaseIRKNSt3__13mapINS2_12basic_stringIcNS2_11char_traitsIcEENS2_9allocatorIcEEEES9_NS2_4lessIS9_EENS7_INS2_4pairIKS9_S9_EEEEEEE18DescribeNegationToEPNS2_13basic_ostreamIcS6_EE = comdat any

$_ZN7testing8internal11MatcherBaseIRKNSt3__13mapINS2_12basic_stringIcNS2_11char_traitsIcEENS2_9allocatorIcEEEES9_NS2_4lessIS9_EENS7_INS2_4pairIKS9_S9_EEEEEEED2Ev = comdat any

$_ZN7testing8internal11MatcherBaseIRKNSt3__13mapINS2_12basic_stringIcNS2_11char_traitsIcEENS2_9allocatorIcEEEES9_NS2_4lessIS9_EENS7_INS2_4pairIKS9_S9_EEEEEEED0Ev = comdat any

$_ZN7testing8internal11MatcherBaseIRKNSt3__13mapINS2_12basic_stringIcNS2_11char_traitsIcEENS2_9allocatorIcEEEES9_NS2_4lessIS9_EENS7_INS2_4pairIKS9_S9_EEEEEEE19MatchAndExplainImplINSJ_11ValuePolicyIPKNS_16MatcherInterfaceISI_EELb1EEEEEDTcldtclsrT_3Getfp_E15MatchAndExplainfp0_fp1_EERKSJ_SI_PNS_19MatchResultListenerE = comdat any

$_ZN7testing8internal11MatcherBaseIRKNSt3__13mapINS2_12basic_stringIcNS2_11char_traitsIcEENS2_9allocatorIcEEEES9_NS2_4lessIS9_EENS7_INS2_4pairIKS9_S9_EEEEEEE12DescribeImplINSJ_11ValuePolicyIPKNS_16MatcherInterfaceISI_EELb1EEEEEvRKSJ_PNS2_13basic_ostreamIcS6_EEb = comdat any

$_ZN7testing8internal11MatcherBaseIRKNSt3__13mapINS2_12basic_stringIcNS2_11char_traitsIcEENS2_9allocatorIcEEEES9_NS2_4lessIS9_EENS7_INS2_4pairIKS9_S9_EEEEEEE16GetDescriberImplINSJ_11ValuePolicyIPKNS_16MatcherInterfaceISI_EELb1EEEEEPKNS_25MatcherDescriberInterfaceERKSJ_ = comdat any

$_ZN7testing8internal13SharedPayloadINSt3__110unique_ptrIKNS_16MatcherInterfaceIRKNS2_3mapINS2_12basic_stringIcNS2_11char_traitsIcEENS2_9allocatorIcEEEESB_NS2_4lessISB_EENS9_INS2_4pairIKSB_SB_EEEEEEEENS2_14default_deleteISM_EEEEE7DestroyEPNS0_17SharedPayloadBaseE = comdat any

$_ZN7testing25StringMatchResultListenerD0Ev = comdat any

$_ZN7testing8internal16ContainerPrinter10PrintValueINSt3__13mapINS3_12basic_stringIcNS3_11char_traitsIcEENS3_9allocatorIcEEEESA_NS3_4lessISA_EENS8_INS3_4pairIKSA_SA_EEEEEEvEEvRKT_PNS3_13basic_ostreamIcS7_EE = comdat any

$_ZN7testing8internal11GetTypeNameERKSt9type_info = comdat any

$_ZN7testing15AssertionResult13AppendMessageERKNS_7MessageE = comdat any

$_ZNSt3__16__treeINS_12__value_typeINS_12basic_stringIcNS_11char_traitsIcEENS_9allocatorIcEEEES7_EENS_19__map_value_compareIS7_S8_NS_4lessIS7_EELb1EEENS5_IS8_EEE30__emplace_hint_unique_key_argsIS7_JRKNS_4pairIKS7_S7_EEEEENSG_INS_15__tree_iteratorIS8_PNS_11__tree_nodeIS8_PvEElEEbEENS_21__tree_const_iteratorIS8_SP_lEERKT_DpOT0_ = comdat any

$_ZNSt3__16__treeINS_12__value_typeINS_12basic_stringIcNS_11char_traitsIcEENS_9allocatorIcEEEES7_EENS_19__map_value_compareIS7_S8_NS_4lessIS7_EELb1EEENS5_IS8_EEE12__find_equalIS7_EERPNS_16__tree_node_baseIPvEENS_21__tree_const_iteratorIS8_PNS_11__tree_nodeIS8_SH_EElEERPNS_15__tree_end_nodeISJ_EESK_RKT_ = comdat any

$_ZNSt3__16__treeINS_12__value_typeINS_12basic_stringIcNS_11char_traitsIcEENS_9allocatorIcEEEES7_EENS_19__map_value_compareIS7_S8_NS_4lessIS7_EELb1EEENS5_IS8_EEE12__find_equalIS7_EERPNS_16__tree_node_baseIPvEERPNS_15__tree_end_nodeISJ_EERKT_ = comdat any

$_ZNSt3__127__tree_balance_after_insertB7v170000IPNS_16__tree_node_baseIPvEEEEvT_S5_ = comdat any

$_ZNSt3__16__treeINS_12__value_typeINS_12basic_stringIcNS_11char_traitsIcEENS_9allocatorIcEEEES7_EENS_19__map_value_compareIS7_S8_NS_4lessIS7_EELb1EEENS5_IS8_EEE7destroyEPNS_11__tree_nodeIS8_PvEE = comdat any

$_ZNK7testing8internal29PredicateFormatterFromMatcherINS0_27UnorderedElementsAreMatcherINSt3__15tupleIJNS0_11PairMatcherIPKcS7_EES8_EEEEEEclINS3_3mapINS3_12basic_stringIcNS3_11char_traitsIcEENS3_9allocatorIcEEEESJ_NS3_4lessISJ_EENSH_INS3_4pairIKSJ_SJ_EEEEEEEENS_15AssertionResultES7_RKT_ = comdat any

$_ZNK7testing8internal27UnorderedElementsAreMatcherINSt3__15tupleIJNS0_11PairMatcherIPKcS6_EES7_EEEEcvNS_7MatcherIT_EEIRKNS2_3mapINS2_12basic_stringIcNS2_11char_traitsIcEENS2_9allocatorIcEEEESK_NS2_4lessISK_EENSI_INS2_4pairIKSK_SK_EEEEEEEEv = comdat any

$_ZN7testing8internal31UnorderedElementsAreMatcherImplIRKNSt3__13mapINS2_12basic_stringIcNS2_11char_traitsIcEENS2_9allocatorIcEEEES9_NS2_4lessIS9_EENS7_INS2_4pairIKS9_S9_EEEEEEEC2INS2_11__wrap_iterIPNS_7MatcherIRKSE_EEEEEENS0_23UnorderedMatcherRequire5FlagsET_SU_ = comdat any

$_ZNK7testing8internal26TransformTupleValuesHelperINSt3__15tupleIJNS0_11PairMatcherIPKcS6_EES7_EEENS0_22CastAndAppendTransformIRKNS2_4pairIKNS2_12basic_stringIcNS2_11char_traitsIcEENS2_9allocatorIcEEEESG_EEEENS2_20back_insert_iteratorINS2_6vectorINS_7MatcherISK_EENSE_ISP_EEEEEEE16IterateOverTupleIS8_Lm2EEclESL_RKS8_SS_ = comdat any

$_ZNK7testing8internal26TransformTupleValuesHelperINSt3__15tupleIJNS0_11PairMatcherIPKcS6_EES7_EEENS0_22CastAndAppendTransformIRKNS2_4pairIKNS2_12basic_stringIcNS2_11char_traitsIcEENS2_9allocatorIcEEEESG_EEEENS2_20back_insert_iteratorINS2_6vectorINS_7MatcherISK_EENSE_ISP_EEEEEEE16IterateOverTupleIS8_Lm1EEclESL_RKS8_SS_ = comdat any

$_ZN7testing8internal31UnorderedElementsAreMatcherImplIRKNSt3__13mapINS2_12basic_stringIcNS2_11char_traitsIcEENS2_9allocatorIcEEEES9_NS2_4lessIS9_EENS7_INS2_4pairIKS9_S9_EEEEEEED2Ev = comdat any

$_ZN7testing8internal31UnorderedElementsAreMatcherImplIRKNSt3__13mapINS2_12basic_stringIcNS2_11char_traitsIcEENS2_9allocatorIcEEEES9_NS2_4lessIS9_EENS7_INS2_4pairIKS9_S9_EEEEEEED0Ev = comdat any

$_ZNK7testing8internal31UnorderedElementsAreMatcherImplIRKNSt3__13mapINS2_12basic_stringIcNS2_11char_traitsIcEENS2_9allocatorIcEEEES9_NS2_4lessIS9_EENS7_INS2_4pairIKS9_S9_EEEEEEE10DescribeToEPNS2_13basic_ostreamIcS6_EE = comdat any

$_ZNK7testing8internal31UnorderedElementsAreMatcherImplIRKNSt3__13mapINS2_12basic_stringIcNS2_11char_traitsIcEENS2_9allocatorIcEEEES9_NS2_4lessIS9_EENS7_INS2_4pairIKS9_S9_EEEEEEE18DescribeNegationToEPNS2_13basic_ostreamIcS6_EE = comdat any

$_ZNK7testing8internal31UnorderedElementsAreMatcherImplIRKNSt3__13mapINS2_12basic_stringIcNS2_11char_traitsIcEENS2_9allocatorIcEEEES9_NS2_4lessIS9_EENS7_INS2_4pairIKS9_S9_EEEEEEE15MatchAndExplainESI_PNS_19MatchResultListenerE = comdat any

$_ZNKSt3__16vectorIPKN7testing25MatcherDescriberInterfaceENS_9allocatorIS4_EEE20__throw_length_errorB7v170000Ev = comdat any

$_ZNK7testing8internal31UnorderedElementsAreMatcherImplIRKNSt3__13mapINS2_12basic_stringIcNS2_11char_traitsIcEENS2_9allocatorIcEEEES9_NS2_4lessIS9_EENS7_INS2_4pairIKS9_S9_EEEEEEE15AnalyzeElementsINS2_20__map_const_iteratorINS2_21__tree_const_iteratorINS2_12__value_typeIS9_S9_EEPNS2_11__tree_nodeISO_PvEElEEEEEENS0_11MatchMatrixET_SW_PNS2_6vectorIS9_NS7_IS9_EEEEPNS_19MatchResultListenerE = comdat any

$_ZN7testing8internal35UnorderedElementsAreMatcherImplBase8ElementsEm = comdat any

$_ZN7testing13PrintToStringINSt3__14pairIKNS1_12basic_stringIcNS1_11char_traitsIcEENS1_9allocatorIcEEEES8_EEEES8_RKT_ = comdat any

$_ZNSt3__16vectorINS_12basic_stringIcNS_11char_traitsIcEENS_9allocatorIcEEEENS4_IS6_EEE21__push_back_slow_pathIS6_EEvOT_ = comdat any

$_ZNKSt3__16vectorIcNS_9allocatorIcEEE20__throw_length_errorB7v170000Ev = comdat any

$_ZTSN7testing8internal15TestFactoryBaseE = comdat any

$_ZTIN7testing8internal15TestFactoryBaseE = comdat any

$_ZTVNSt3__118basic_stringstreamIcNS_11char_traitsIcEENS_9allocatorIcEEEE = comdat any

$_ZTTNSt3__118basic_stringstreamIcNS_11char_traitsIcEENS_9allocatorIcEEEE = comdat any

$_ZTCNSt3__118basic_stringstreamIcNS_11char_traitsIcEENS_9allocatorIcEEEE0_NS_14basic_iostreamIcS2_EE = comdat any

$_ZTCNSt3__118basic_stringstreamIcNS_11char_traitsIcEENS_9allocatorIcEEEE0_NS_13basic_istreamIcS2_EE = comdat any

$_ZTCNSt3__118basic_stringstreamIcNS_11char_traitsIcEENS_9allocatorIcEEEE16_NS_13basic_ostreamIcS2_EE = comdat any

$_ZTSNSt3__118basic_stringstreamIcNS_11char_traitsIcEENS_9allocatorIcEEEE = comdat any

$_ZTINSt3__118basic_stringstreamIcNS_11char_traitsIcEENS_9allocatorIcEEEE = comdat any

$_ZTVNSt3__115basic_stringbufIcNS_11char_traitsIcEENS_9allocatorIcEEEE = comdat any

$_ZTSNSt3__115basic_stringbufIcNS_11char_traitsIcEENS_9allocatorIcEEEE = comdat any

$_ZTINSt3__115basic_stringbufIcNS_11char_traitsIcEENS_9allocatorIcEEEE = comdat any

$_ZTVN7testing7MatcherIRKNSt3__14pairIKNS1_12basic_stringIcNS1_11char_traitsIcEENS1_9allocatorIcEEEES8_EEEE = comdat any

$_ZTSN7testing7MatcherIRKNSt3__14pairIKNS1_12basic_stringIcNS1_11char_traitsIcEENS1_9allocatorIcEEEES8_EEEE = comdat any

$_ZTSN7testing8internal11MatcherBaseIRKNSt3__14pairIKNS2_12basic_stringIcNS2_11char_traitsIcEENS2_9allocatorIcEEEES9_EEEE = comdat any

$_ZTSN7testing25MatcherDescriberInterfaceE = comdat any

$_ZTIN7testing25MatcherDescriberInterfaceE = comdat any

$_ZTIN7testing8internal11MatcherBaseIRKNSt3__14pairIKNS2_12basic_stringIcNS2_11char_traitsIcEENS2_9allocatorIcEEEES9_EEEE = comdat any

$_ZTIN7testing7MatcherIRKNSt3__14pairIKNS1_12basic_stringIcNS1_11char_traitsIcEENS1_9allocatorIcEEEES8_EEEE = comdat any

$_ZTVN7testing8internal11MatcherBaseIRKNSt3__14pairIKNS2_12basic_stringIcNS2_11char_traitsIcEENS2_9allocatorIcEEEES9_EEEE = comdat any

$_ZTVN7testing8internal15PairMatcherImplIRKNSt3__14pairIKNS2_12basic_stringIcNS2_11char_traitsIcEENS2_9allocatorIcEEEES9_EEEE = comdat any

$_ZTSN7testing8internal15PairMatcherImplIRKNSt3__14pairIKNS2_12basic_stringIcNS2_11char_traitsIcEENS2_9allocatorIcEEEES9_EEEE = comdat any

$_ZTSN7testing16MatcherInterfaceIRKNSt3__14pairIKNS1_12basic_stringIcNS1_11char_traitsIcEENS1_9allocatorIcEEEES8_EEEE = comdat any

$_ZTIN7testing16MatcherInterfaceIRKNSt3__14pairIKNS1_12basic_stringIcNS1_11char_traitsIcEENS1_9allocatorIcEEEES8_EEEE = comdat any

$_ZTIN7testing8internal15PairMatcherImplIRKNSt3__14pairIKNS2_12basic_stringIcNS2_11char_traitsIcEENS2_9allocatorIcEEEES9_EEEE = comdat any

$_ZTVN7testing8internal11MatcherBaseIRKNSt3__112basic_stringIcNS2_11char_traitsIcEENS2_9allocatorIcEEEEEE = comdat any

$_ZTSN7testing8internal11MatcherBaseIRKNSt3__112basic_stringIcNS2_11char_traitsIcEENS2_9allocatorIcEEEEEE = comdat any

$_ZTIN7testing8internal11MatcherBaseIRKNSt3__112basic_stringIcNS2_11char_traitsIcEENS2_9allocatorIcEEEEEE = comdat any

$_ZTVN7testing8internal24DummyMatchResultListenerE = comdat any

$_ZTSN7testing8internal24DummyMatchResultListenerE = comdat any

$_ZTSN7testing19MatchResultListenerE = comdat any

$_ZTIN7testing19MatchResultListenerE = comdat any

$_ZTIN7testing8internal24DummyMatchResultListenerE = comdat any

$_ZZN7testing8internal11MatcherBaseIRKNSt3__14pairIKNS2_12basic_stringIcNS2_11char_traitsIcEENS2_9allocatorIcEEEES9_EEE9GetVTableINSE_11ValuePolicyIPKNS_16MatcherInterfaceISD_EELb1EEEEEPKNSE_6VTableEvE7kVTable = comdat any

$_ZTVN7testing8internal22ElementsAreMatcherImplIRKNSt3__13mapINS2_12basic_stringIcNS2_11char_traitsIcEENS2_9allocatorIcEEEES9_NS2_4lessIS9_EENS7_INS2_4pairIKS9_S9_EEEEEEEE = comdat any

$_ZTSN7testing8internal22ElementsAreMatcherImplIRKNSt3__13mapINS2_12basic_stringIcNS2_11char_traitsIcEENS2_9allocatorIcEEEES9_NS2_4lessIS9_EENS7_INS2_4pairIKS9_S9_EEEEEEEE = comdat any

$_ZTSN7testing16MatcherInterfaceIRKNSt3__13mapINS1_12basic_stringIcNS1_11char_traitsIcEENS1_9allocatorIcEEEES8_NS1_4lessIS8_EENS6_INS1_4pairIKS8_S8_EEEEEEEE = comdat any

$_ZTIN7testing16MatcherInterfaceIRKNSt3__13mapINS1_12basic_stringIcNS1_11char_traitsIcEENS1_9allocatorIcEEEES8_NS1_4lessIS8_EENS6_INS1_4pairIKS8_S8_EEEEEEEE = comdat any

$_ZTIN7testing8internal22ElementsAreMatcherImplIRKNSt3__13mapINS2_12basic_stringIcNS2_11char_traitsIcEENS2_9allocatorIcEEEES9_NS2_4lessIS9_EENS7_INS2_4pairIKS9_S9_EEEEEEEE = comdat any

$_ZTVN7testing7MatcherIRKNSt3__13mapINS1_12basic_stringIcNS1_11char_traitsIcEENS1_9allocatorIcEEEES8_NS1_4lessIS8_EENS6_INS1_4pairIKS8_S8_EEEEEEEE = comdat any

$_ZTSN7testing7MatcherIRKNSt3__13mapINS1_12basic_stringIcNS1_11char_traitsIcEENS1_9allocatorIcEEEES8_NS1_4lessIS8_EENS6_INS1_4pairIKS8_S8_EEEEEEEE = comdat any

$_ZTSN7testing8internal11MatcherBaseIRKNSt3__13mapINS2_12basic_stringIcNS2_11char_traitsIcEENS2_9allocatorIcEEEES9_NS2_4lessIS9_EENS7_INS2_4pairIKS9_S9_EEEEEEEE = comdat any

$_ZTIN7testing8internal11MatcherBaseIRKNSt3__13mapINS2_12basic_stringIcNS2_11char_traitsIcEENS2_9allocatorIcEEEES9_NS2_4lessIS9_EENS7_INS2_4pairIKS9_S9_EEEEEEEE = comdat any

$_ZTIN7testing7MatcherIRKNSt3__13mapINS1_12basic_stringIcNS1_11char_traitsIcEENS1_9allocatorIcEEEES8_NS1_4lessIS8_EENS6_INS1_4pairIKS8_S8_EEEEEEEE = comdat any

$_ZTVN7testing8internal11MatcherBaseIRKNSt3__13mapINS2_12basic_stringIcNS2_11char_traitsIcEENS2_9allocatorIcEEEES9_NS2_4lessIS9_EENS7_INS2_4pairIKS9_S9_EEEEEEEE = comdat any

$_ZZN7testing8internal11MatcherBaseIRKNSt3__13mapINS2_12basic_stringIcNS2_11char_traitsIcEENS2_9allocatorIcEEEES9_NS2_4lessIS9_EENS7_INS2_4pairIKS9_S9_EEEEEEE9GetVTableINSJ_11ValuePolicyIPKNS_16MatcherInterfaceISI_EELb1EEEEEPKNSJ_6VTableEvE7kVTable = comdat any

$_ZTVN7testing25StringMatchResultListenerE = comdat any

$_ZTSN7testing25StringMatchResultListenerE = comdat any

$_ZTIN7testing25StringMatchResultListenerE = comdat any

$_ZTSNSt3__13mapINS_12basic_stringIcNS_11char_traitsIcEENS_9allocatorIcEEEES6_NS_4lessIS6_EENS4_INS_4pairIKS6_S6_EEEEEE = comdat any

$_ZTINSt3__13mapINS_12basic_stringIcNS_11char_traitsIcEENS_9allocatorIcEEEES6_NS_4lessIS6_EENS4_INS_4pairIKS6_S6_EEEEEE = comdat any

$_ZZN7testing8internal31CanonicalizeForStdLibVersioningENSt3__112basic_stringIcNS1_11char_traitsIcEENS1_9allocatorIcEEEEE6prefix = comdat any

$_ZTVN7testing8internal31UnorderedElementsAreMatcherImplIRKNSt3__13mapINS2_12basic_stringIcNS2_11char_traitsIcEENS2_9allocatorIcEEEES9_NS2_4lessIS9_EENS7_INS2_4pairIKS9_S9_EEEEEEEE = comdat any

$_ZTSN7testing8internal31UnorderedElementsAreMatcherImplIRKNSt3__13mapINS2_12basic_stringIcNS2_11char_traitsIcEENS2_9allocatorIcEEEES9_NS2_4lessIS9_EENS7_INS2_4pairIKS9_S9_EEEEEEEE = comdat any

$_ZTSN7testing8internal35UnorderedElementsAreMatcherImplBaseE = comdat any

$_ZTIN7testing8internal35UnorderedElementsAreMatcherImplBaseE = comdat any

$_ZTIN7testing8internal31UnorderedElementsAreMatcherImplIRKNSt3__13mapINS2_12basic_stringIcNS2_11char_traitsIcEENS2_9allocatorIcEEEES9_NS2_4lessIS9_EENS7_INS2_4pairIKS9_S9_EEEEEEEE = comdat any

@_ZN9benchmark12_GLOBAL__N_124BoolFromEnv_Default_Test10test_info_E = internal global ptr null, align 8
@.str = private unnamed_addr constant [12 x i8] c"BoolFromEnv\00", align 1
@.str.2 = private unnamed_addr constant [8 x i8] c"Default\00", align 1
@.str.3 = private unnamed_addr constant [114 x i8] c"/local/mnt2/workspace2/mnadeem/llvm/llvm-test-suite/MicroBenchmarks/libs/benchmark/test/commandlineflags_gtest.cc\00", align 1
@_ZN9benchmark12_GLOBAL__N_122BoolFromEnv_False_Test10test_info_E = internal global ptr null, align 8
@.str.5 = private unnamed_addr constant [6 x i8] c"False\00", align 1
@_ZN9benchmark12_GLOBAL__N_121BoolFromEnv_True_Test10test_info_E = internal global ptr null, align 8
@.str.7 = private unnamed_addr constant [5 x i8] c"True\00", align 1
@_ZN9benchmark12_GLOBAL__N_126Int32FromEnv_NotInEnv_Test10test_info_E = internal global ptr null, align 8
@.str.9 = private unnamed_addr constant [13 x i8] c"Int32FromEnv\00", align 1
@.str.10 = private unnamed_addr constant [9 x i8] c"NotInEnv\00", align 1
@_ZN9benchmark12_GLOBAL__N_132Int32FromEnv_InvalidInteger_Test10test_info_E = internal global ptr null, align 8
@.str.12 = private unnamed_addr constant [15 x i8] c"InvalidInteger\00", align 1
@_ZN9benchmark12_GLOBAL__N_130Int32FromEnv_ValidInteger_Test10test_info_E = internal global ptr null, align 8
@.str.14 = private unnamed_addr constant [13 x i8] c"ValidInteger\00", align 1
@_ZN9benchmark12_GLOBAL__N_127DoubleFromEnv_NotInEnv_Test10test_info_E = internal global ptr null, align 8
@.str.16 = private unnamed_addr constant [14 x i8] c"DoubleFromEnv\00", align 1
@_ZN9benchmark12_GLOBAL__N_130DoubleFromEnv_InvalidReal_Test10test_info_E = internal global ptr null, align 8
@.str.18 = private unnamed_addr constant [12 x i8] c"InvalidReal\00", align 1
@_ZN9benchmark12_GLOBAL__N_128DoubleFromEnv_ValidReal_Test10test_info_E = internal global ptr null, align 8
@.str.20 = private unnamed_addr constant [10 x i8] c"ValidReal\00", align 1
@_ZN9benchmark12_GLOBAL__N_126StringFromEnv_Default_Test10test_info_E = internal global ptr null, align 8
@.str.22 = private unnamed_addr constant [14 x i8] c"StringFromEnv\00", align 1
@_ZN9benchmark12_GLOBAL__N_124StringFromEnv_Valid_Test10test_info_E = internal global ptr null, align 8
@.str.24 = private unnamed_addr constant [6 x i8] c"Valid\00", align 1
@_ZN9benchmark12_GLOBAL__N_127KvPairsFromEnv_Default_Test10test_info_E = internal global ptr null, align 8
@.str.26 = private unnamed_addr constant [15 x i8] c"KvPairsFromEnv\00", align 1
@_ZN9benchmark12_GLOBAL__N_143KvPairsFromEnv_MalformedReturnsDefault_Test10test_info_E = internal global ptr null, align 8
@.str.28 = private unnamed_addr constant [24 x i8] c"MalformedReturnsDefault\00", align 1
@_ZN9benchmark12_GLOBAL__N_126KvPairsFromEnv_Single_Test10test_info_E = internal global ptr null, align 8
@.str.30 = private unnamed_addr constant [7 x i8] c"Single\00", align 1
@_ZN9benchmark12_GLOBAL__N_128KvPairsFromEnv_Multiple_Test10test_info_E = internal global ptr null, align 8
@.str.32 = private unnamed_addr constant [9 x i8] c"Multiple\00", align 1
@_ZTVN7testing8internal15TestFactoryImplIN9benchmark12_GLOBAL__N_124BoolFromEnv_Default_TestEEE = internal unnamed_addr constant { [5 x ptr] } { [5 x ptr] [ptr null, ptr @_ZTIN7testing8internal15TestFactoryImplIN9benchmark12_GLOBAL__N_124BoolFromEnv_Default_TestEEE, ptr @_ZN7testing8internal15TestFactoryBaseD2Ev, ptr @_ZN7testing8internal15TestFactoryImplIN9benchmark12_GLOBAL__N_124BoolFromEnv_Default_TestEED0Ev, ptr @_ZN7testing8internal15TestFactoryImplIN9benchmark12_GLOBAL__N_124BoolFromEnv_Default_TestEE10CreateTestEv] }, align 8
@_ZTVN10__cxxabiv120__si_class_type_infoE = external global ptr
@_ZTSN7testing8internal15TestFactoryImplIN9benchmark12_GLOBAL__N_124BoolFromEnv_Default_TestEEE = internal constant [91 x i8] c"N7testing8internal15TestFactoryImplIN9benchmark12_GLOBAL__N_124BoolFromEnv_Default_TestEEE\00", align 1
@_ZTVN10__cxxabiv117__class_type_infoE = external global ptr
@_ZTSN7testing8internal15TestFactoryBaseE = linkonce_odr hidden constant [37 x i8] c"N7testing8internal15TestFactoryBaseE\00", comdat, align 1
@_ZTIN7testing8internal15TestFactoryBaseE = linkonce_odr hidden constant { ptr, ptr } { ptr getelementptr inbounds (ptr, ptr @_ZTVN10__cxxabiv117__class_type_infoE, i64 2), ptr @_ZTSN7testing8internal15TestFactoryBaseE }, comdat, align 8
@_ZTIN7testing8internal15TestFactoryImplIN9benchmark12_GLOBAL__N_124BoolFromEnv_Default_TestEEE = internal constant { ptr, ptr, ptr } { ptr getelementptr inbounds (ptr, ptr @_ZTVN10__cxxabiv120__si_class_type_infoE, i64 2), ptr @_ZTSN7testing8internal15TestFactoryImplIN9benchmark12_GLOBAL__N_124BoolFromEnv_Default_TestEEE, ptr @_ZTIN7testing8internal15TestFactoryBaseE }, align 8
@_ZTVN9benchmark12_GLOBAL__N_124BoolFromEnv_Default_TestE = internal unnamed_addr constant { [8 x ptr] } { [8 x ptr] [ptr null, ptr @_ZTIN9benchmark12_GLOBAL__N_124BoolFromEnv_Default_TestE, ptr @_ZN7testing4TestD2Ev, ptr @_ZN9benchmark12_GLOBAL__N_124BoolFromEnv_Default_TestD0Ev, ptr @_ZN7testing4Test5SetUpEv, ptr @_ZN7testing4Test8TearDownEv, ptr @_ZN9benchmark12_GLOBAL__N_124BoolFromEnv_Default_Test8TestBodyEv, ptr @_ZN7testing4Test5SetupEv] }, align 8
@_ZTSN9benchmark12_GLOBAL__N_124BoolFromEnv_Default_TestE = internal constant [53 x i8] c"N9benchmark12_GLOBAL__N_124BoolFromEnv_Default_TestE\00", align 1
@_ZTIN7testing4TestE = external constant ptr
@_ZTIN9benchmark12_GLOBAL__N_124BoolFromEnv_Default_TestE = internal constant { ptr, ptr, ptr } { ptr getelementptr inbounds (ptr, ptr @_ZTVN10__cxxabiv120__si_class_type_infoE, i64 2), ptr @_ZTSN9benchmark12_GLOBAL__N_124BoolFromEnv_Default_TestE, ptr @_ZTIN7testing4TestE }, align 8
@.str.33 = private unnamed_addr constant [23 x i8] c"unsetenv(\22NOT_IN_ENV\22)\00", align 1
@.str.34 = private unnamed_addr constant [2 x i8] c"0\00", align 1
@.str.35 = private unnamed_addr constant [11 x i8] c"NOT_IN_ENV\00", align 1
@.str.36 = private unnamed_addr constant [32 x i8] c"BoolFromEnv(\22not_in_env\22, true)\00", align 1
@.str.37 = private unnamed_addr constant [5 x i8] c"true\00", align 1
@.str.38 = private unnamed_addr constant [11 x i8] c"not_in_env\00", align 1
@_ZTVNSt3__118basic_stringstreamIcNS_11char_traitsIcEENS_9allocatorIcEEEE = linkonce_odr dso_local unnamed_addr constant { [5 x ptr], [5 x ptr], [5 x ptr] } { [5 x ptr] [ptr inttoptr (i64 128 to ptr), ptr null, ptr @_ZTINSt3__118basic_stringstreamIcNS_11char_traitsIcEENS_9allocatorIcEEEE, ptr @_ZNSt3__118basic_stringstreamIcNS_11char_traitsIcEENS_9allocatorIcEEED1Ev, ptr @_ZNSt3__118basic_stringstreamIcNS_11char_traitsIcEENS_9allocatorIcEEED0Ev], [5 x ptr] [ptr inttoptr (i64 112 to ptr), ptr inttoptr (i64 -16 to ptr), ptr @_ZTINSt3__118basic_stringstreamIcNS_11char_traitsIcEENS_9allocatorIcEEEE, ptr @_ZThn16_NSt3__118basic_stringstreamIcNS_11char_traitsIcEENS_9allocatorIcEEED1Ev, ptr @_ZThn16_NSt3__118basic_stringstreamIcNS_11char_traitsIcEENS_9allocatorIcEEED0Ev], [5 x ptr] [ptr inttoptr (i64 -128 to ptr), ptr inttoptr (i64 -128 to ptr), ptr @_ZTINSt3__118basic_stringstreamIcNS_11char_traitsIcEENS_9allocatorIcEEEE, ptr @_ZTv0_n24_NSt3__118basic_stringstreamIcNS_11char_traitsIcEENS_9allocatorIcEEED1Ev, ptr @_ZTv0_n24_NSt3__118basic_stringstreamIcNS_11char_traitsIcEENS_9allocatorIcEEED0Ev] }, comdat, align 8
@_ZTTNSt3__118basic_stringstreamIcNS_11char_traitsIcEENS_9allocatorIcEEEE = linkonce_odr dso_local unnamed_addr constant [10 x ptr] [ptr getelementptr inbounds ({ [5 x ptr], [5 x ptr], [5 x ptr] }, ptr @_ZTVNSt3__118basic_stringstreamIcNS_11char_traitsIcEENS_9allocatorIcEEEE, i32 0, inrange i32 0, i32 3), ptr getelementptr inbounds ({ [5 x ptr], [5 x ptr], [5 x ptr] }, ptr @_ZTCNSt3__118basic_stringstreamIcNS_11char_traitsIcEENS_9allocatorIcEEEE0_NS_14basic_iostreamIcS2_EE, i32 0, inrange i32 0, i32 3), ptr getelementptr inbounds ({ [5 x ptr], [5 x ptr] }, ptr @_ZTCNSt3__118basic_stringstreamIcNS_11char_traitsIcEENS_9allocatorIcEEEE0_NS_13basic_istreamIcS2_EE, i32 0, inrange i32 0, i32 3), ptr getelementptr inbounds ({ [5 x ptr], [5 x ptr] }, ptr @_ZTCNSt3__118basic_stringstreamIcNS_11char_traitsIcEENS_9allocatorIcEEEE0_NS_13basic_istreamIcS2_EE, i32 0, inrange i32 1, i32 3), ptr getelementptr inbounds ({ [5 x ptr], [5 x ptr] }, ptr @_ZTCNSt3__118basic_stringstreamIcNS_11char_traitsIcEENS_9allocatorIcEEEE16_NS_13basic_ostreamIcS2_EE, i32 0, inrange i32 0, i32 3), ptr getelementptr inbounds ({ [5 x ptr], [5 x ptr] }, ptr @_ZTCNSt3__118basic_stringstreamIcNS_11char_traitsIcEENS_9allocatorIcEEEE16_NS_13basic_ostreamIcS2_EE, i32 0, inrange i32 1, i32 3), ptr getelementptr inbounds ({ [5 x ptr], [5 x ptr], [5 x ptr] }, ptr @_ZTCNSt3__118basic_stringstreamIcNS_11char_traitsIcEENS_9allocatorIcEEEE0_NS_14basic_iostreamIcS2_EE, i32 0, inrange i32 2, i32 3), ptr getelementptr inbounds ({ [5 x ptr], [5 x ptr], [5 x ptr] }, ptr @_ZTCNSt3__118basic_stringstreamIcNS_11char_traitsIcEENS_9allocatorIcEEEE0_NS_14basic_iostreamIcS2_EE, i32 0, inrange i32 1, i32 3), ptr getelementptr inbounds ({ [5 x ptr], [5 x ptr], [5 x ptr] }, ptr @_ZTVNSt3__118basic_stringstreamIcNS_11char_traitsIcEENS_9allocatorIcEEEE, i32 0, inrange i32 2, i32 3), ptr getelementptr inbounds ({ [5 x ptr], [5 x ptr], [5 x ptr] }, ptr @_ZTVNSt3__118basic_stringstreamIcNS_11char_traitsIcEENS_9allocatorIcEEEE, i32 0, inrange i32 1, i32 3)], comdat, align 8
@_ZTCNSt3__118basic_stringstreamIcNS_11char_traitsIcEENS_9allocatorIcEEEE0_NS_14basic_iostreamIcS2_EE = linkonce_odr dso_local unnamed_addr constant { [5 x ptr], [5 x ptr], [5 x ptr] } { [5 x ptr] [ptr inttoptr (i64 128 to ptr), ptr null, ptr @_ZTINSt3__114basic_iostreamIcNS_11char_traitsIcEEEE, ptr @_ZNSt3__114basic_iostreamIcNS_11char_traitsIcEEED1Ev, ptr @_ZNSt3__114basic_iostreamIcNS_11char_traitsIcEEED0Ev], [5 x ptr] [ptr inttoptr (i64 112 to ptr), ptr inttoptr (i64 -16 to ptr), ptr @_ZTINSt3__114basic_iostreamIcNS_11char_traitsIcEEEE, ptr @_ZThn16_NSt3__114basic_iostreamIcNS_11char_traitsIcEEED1Ev, ptr @_ZThn16_NSt3__114basic_iostreamIcNS_11char_traitsIcEEED0Ev], [5 x ptr] [ptr inttoptr (i64 -128 to ptr), ptr inttoptr (i64 -128 to ptr), ptr @_ZTINSt3__114basic_iostreamIcNS_11char_traitsIcEEEE, ptr @_ZTv0_n24_NSt3__114basic_iostreamIcNS_11char_traitsIcEEED1Ev, ptr @_ZTv0_n24_NSt3__114basic_iostreamIcNS_11char_traitsIcEEED0Ev] }, comdat, align 8
@_ZTINSt3__114basic_iostreamIcNS_11char_traitsIcEEEE = external constant ptr
@_ZTCNSt3__118basic_stringstreamIcNS_11char_traitsIcEENS_9allocatorIcEEEE0_NS_13basic_istreamIcS2_EE = linkonce_odr dso_local unnamed_addr constant { [5 x ptr], [5 x ptr] } { [5 x ptr] [ptr inttoptr (i64 128 to ptr), ptr null, ptr @_ZTINSt3__113basic_istreamIcNS_11char_traitsIcEEEE, ptr @_ZNSt3__113basic_istreamIcNS_11char_traitsIcEEED1Ev, ptr @_ZNSt3__113basic_istreamIcNS_11char_traitsIcEEED0Ev], [5 x ptr] [ptr inttoptr (i64 -128 to ptr), ptr inttoptr (i64 -128 to ptr), ptr @_ZTINSt3__113basic_istreamIcNS_11char_traitsIcEEEE, ptr @_ZTv0_n24_NSt3__113basic_istreamIcNS_11char_traitsIcEEED1Ev, ptr @_ZTv0_n24_NSt3__113basic_istreamIcNS_11char_traitsIcEEED0Ev] }, comdat, align 8
@_ZTINSt3__113basic_istreamIcNS_11char_traitsIcEEEE = external constant ptr
@_ZTCNSt3__118basic_stringstreamIcNS_11char_traitsIcEENS_9allocatorIcEEEE16_NS_13basic_ostreamIcS2_EE = linkonce_odr dso_local unnamed_addr constant { [5 x ptr], [5 x ptr] } { [5 x ptr] [ptr inttoptr (i64 112 to ptr), ptr null, ptr @_ZTINSt3__113basic_ostreamIcNS_11char_traitsIcEEEE, ptr @_ZNSt3__113basic_ostreamIcNS_11char_traitsIcEEED1Ev, ptr @_ZNSt3__113basic_ostreamIcNS_11char_traitsIcEEED0Ev], [5 x ptr] [ptr inttoptr (i64 -112 to ptr), ptr inttoptr (i64 -112 to ptr), ptr @_ZTINSt3__113basic_ostreamIcNS_11char_traitsIcEEEE, ptr @_ZTv0_n24_NSt3__113basic_ostreamIcNS_11char_traitsIcEEED1Ev, ptr @_ZTv0_n24_NSt3__113basic_ostreamIcNS_11char_traitsIcEEED0Ev] }, comdat, align 8
@_ZTINSt3__113basic_ostreamIcNS_11char_traitsIcEEEE = external constant ptr
@_ZTSNSt3__118basic_stringstreamIcNS_11char_traitsIcEENS_9allocatorIcEEEE = linkonce_odr dso_local constant [69 x i8] c"NSt3__118basic_stringstreamIcNS_11char_traitsIcEENS_9allocatorIcEEEE\00", comdat, align 1
@_ZTINSt3__118basic_stringstreamIcNS_11char_traitsIcEENS_9allocatorIcEEEE = linkonce_odr dso_local constant { ptr, ptr, ptr } { ptr getelementptr inbounds (ptr, ptr @_ZTVN10__cxxabiv120__si_class_type_infoE, i64 2), ptr @_ZTSNSt3__118basic_stringstreamIcNS_11char_traitsIcEENS_9allocatorIcEEEE, ptr @_ZTINSt3__114basic_iostreamIcNS_11char_traitsIcEEEE }, comdat, align 8
@_ZTVNSt3__115basic_stringbufIcNS_11char_traitsIcEENS_9allocatorIcEEEE = linkonce_odr dso_local unnamed_addr constant { [16 x ptr] } { [16 x ptr] [ptr null, ptr @_ZTINSt3__115basic_stringbufIcNS_11char_traitsIcEENS_9allocatorIcEEEE, ptr @_ZNSt3__115basic_stringbufIcNS_11char_traitsIcEENS_9allocatorIcEEED2Ev, ptr @_ZNSt3__115basic_stringbufIcNS_11char_traitsIcEENS_9allocatorIcEEED0Ev, ptr @_ZNSt3__115basic_streambufIcNS_11char_traitsIcEEE5imbueERKNS_6localeE, ptr @_ZNSt3__115basic_streambufIcNS_11char_traitsIcEEE6setbufEPcl, ptr @_ZNSt3__115basic_stringbufIcNS_11char_traitsIcEENS_9allocatorIcEEE7seekoffExNS_8ios_base7seekdirEj, ptr @_ZNSt3__115basic_stringbufIcNS_11char_traitsIcEENS_9allocatorIcEEE7seekposENS_4fposI11__mbstate_tEEj, ptr @_ZNSt3__115basic_streambufIcNS_11char_traitsIcEEE4syncEv, ptr @_ZNSt3__115basic_streambufIcNS_11char_traitsIcEEE9showmanycEv, ptr @_ZNSt3__115basic_streambufIcNS_11char_traitsIcEEE6xsgetnEPcl, ptr @_ZNSt3__115basic_stringbufIcNS_11char_traitsIcEENS_9allocatorIcEEE9underflowEv, ptr @_ZNSt3__115basic_streambufIcNS_11char_traitsIcEEE5uflowEv, ptr @_ZNSt3__115basic_stringbufIcNS_11char_traitsIcEENS_9allocatorIcEEE9pbackfailEi, ptr @_ZNSt3__115basic_streambufIcNS_11char_traitsIcEEE6xsputnEPKcl, ptr @_ZNSt3__115basic_stringbufIcNS_11char_traitsIcEENS_9allocatorIcEEE8overflowEi] }, comdat, align 8
@_ZTSNSt3__115basic_stringbufIcNS_11char_traitsIcEENS_9allocatorIcEEEE = linkonce_odr dso_local constant [66 x i8] c"NSt3__115basic_stringbufIcNS_11char_traitsIcEENS_9allocatorIcEEEE\00", comdat, align 1
@_ZTINSt3__115basic_streambufIcNS_11char_traitsIcEEEE = external constant ptr
@_ZTINSt3__115basic_stringbufIcNS_11char_traitsIcEENS_9allocatorIcEEEE = linkonce_odr dso_local constant { ptr, ptr, ptr } { ptr getelementptr inbounds (ptr, ptr @_ZTVN10__cxxabiv120__si_class_type_infoE, i64 2), ptr @_ZTSNSt3__115basic_stringbufIcNS_11char_traitsIcEENS_9allocatorIcEEEE, ptr @_ZTINSt3__115basic_streambufIcNS_11char_traitsIcEEEE }, comdat, align 8
@.str.39 = private unnamed_addr constant [13 x i8] c"basic_string\00", align 1
@_ZTISt12length_error = external constant ptr
@_ZTVSt12length_error = external unnamed_addr constant { [5 x ptr] }, align 8
@_ZTISt20bad_array_new_length = external constant ptr
@.str.40 = private unnamed_addr constant [1 x i8] zeroinitializer, align 1
@.str.41 = private unnamed_addr constant [6 x i8] c"false\00", align 1
@_ZNSt3__15ctypeIcE2idE = external global %"class.std::__1::locale::id", align 8
@_ZTVN7testing8internal15TestFactoryImplIN9benchmark12_GLOBAL__N_122BoolFromEnv_False_TestEEE = internal unnamed_addr constant { [5 x ptr] } { [5 x ptr] [ptr null, ptr @_ZTIN7testing8internal15TestFactoryImplIN9benchmark12_GLOBAL__N_122BoolFromEnv_False_TestEEE, ptr @_ZN7testing8internal15TestFactoryBaseD2Ev, ptr @_ZN7testing8internal15TestFactoryImplIN9benchmark12_GLOBAL__N_122BoolFromEnv_False_TestEED0Ev, ptr @_ZN7testing8internal15TestFactoryImplIN9benchmark12_GLOBAL__N_122BoolFromEnv_False_TestEE10CreateTestEv] }, align 8
@_ZTSN7testing8internal15TestFactoryImplIN9benchmark12_GLOBAL__N_122BoolFromEnv_False_TestEEE = internal constant [89 x i8] c"N7testing8internal15TestFactoryImplIN9benchmark12_GLOBAL__N_122BoolFromEnv_False_TestEEE\00", align 1
@_ZTIN7testing8internal15TestFactoryImplIN9benchmark12_GLOBAL__N_122BoolFromEnv_False_TestEEE = internal constant { ptr, ptr, ptr } { ptr getelementptr inbounds (ptr, ptr @_ZTVN10__cxxabiv120__si_class_type_infoE, i64 2), ptr @_ZTSN7testing8internal15TestFactoryImplIN9benchmark12_GLOBAL__N_122BoolFromEnv_False_TestEEE, ptr @_ZTIN7testing8internal15TestFactoryBaseE }, align 8
@_ZTVN9benchmark12_GLOBAL__N_122BoolFromEnv_False_TestE = internal unnamed_addr constant { [8 x ptr] } { [8 x ptr] [ptr null, ptr @_ZTIN9benchmark12_GLOBAL__N_122BoolFromEnv_False_TestE, ptr @_ZN7testing4TestD2Ev, ptr @_ZN9benchmark12_GLOBAL__N_122BoolFromEnv_False_TestD0Ev, ptr @_ZN7testing4Test5SetUpEv, ptr @_ZN7testing4Test8TearDownEv, ptr @_ZN9benchmark12_GLOBAL__N_122BoolFromEnv_False_Test8TestBodyEv, ptr @_ZN7testing4Test5SetupEv] }, align 8
@_ZTSN9benchmark12_GLOBAL__N_122BoolFromEnv_False_TestE = internal constant [51 x i8] c"N9benchmark12_GLOBAL__N_122BoolFromEnv_False_TestE\00", align 1
@_ZTIN9benchmark12_GLOBAL__N_122BoolFromEnv_False_TestE = internal constant { ptr, ptr, ptr } { ptr getelementptr inbounds (ptr, ptr @_ZTVN10__cxxabiv120__si_class_type_infoE, i64 2), ptr @_ZTSN9benchmark12_GLOBAL__N_122BoolFromEnv_False_TestE, ptr @_ZTIN7testing4TestE }, align 8
@.str.42 = private unnamed_addr constant [25 x i8] c"setenv(\22IN_ENV\22, \220\22, 1)\00", align 1
@.str.43 = private unnamed_addr constant [7 x i8] c"IN_ENV\00", align 1
@.str.44 = private unnamed_addr constant [28 x i8] c"BoolFromEnv(\22in_env\22, true)\00", align 1
@.str.45 = private unnamed_addr constant [7 x i8] c"in_env\00", align 1
@.str.46 = private unnamed_addr constant [25 x i8] c"setenv(\22IN_ENV\22, \22N\22, 1)\00", align 1
@.str.47 = private unnamed_addr constant [2 x i8] c"N\00", align 1
@.str.48 = private unnamed_addr constant [25 x i8] c"setenv(\22IN_ENV\22, \22n\22, 1)\00", align 1
@.str.49 = private unnamed_addr constant [2 x i8] c"n\00", align 1
@.str.50 = private unnamed_addr constant [26 x i8] c"setenv(\22IN_ENV\22, \22NO\22, 1)\00", align 1
@.str.51 = private unnamed_addr constant [3 x i8] c"NO\00", align 1
@.str.52 = private unnamed_addr constant [26 x i8] c"setenv(\22IN_ENV\22, \22No\22, 1)\00", align 1
@.str.53 = private unnamed_addr constant [3 x i8] c"No\00", align 1
@.str.54 = private unnamed_addr constant [26 x i8] c"setenv(\22IN_ENV\22, \22no\22, 1)\00", align 1
@.str.55 = private unnamed_addr constant [3 x i8] c"no\00", align 1
@.str.56 = private unnamed_addr constant [25 x i8] c"setenv(\22IN_ENV\22, \22F\22, 1)\00", align 1
@.str.57 = private unnamed_addr constant [2 x i8] c"F\00", align 1
@.str.58 = private unnamed_addr constant [25 x i8] c"setenv(\22IN_ENV\22, \22f\22, 1)\00", align 1
@.str.59 = private unnamed_addr constant [2 x i8] c"f\00", align 1
@.str.60 = private unnamed_addr constant [29 x i8] c"setenv(\22IN_ENV\22, \22FALSE\22, 1)\00", align 1
@.str.61 = private unnamed_addr constant [6 x i8] c"FALSE\00", align 1
@.str.62 = private unnamed_addr constant [29 x i8] c"setenv(\22IN_ENV\22, \22False\22, 1)\00", align 1
@.str.63 = private unnamed_addr constant [29 x i8] c"setenv(\22IN_ENV\22, \22false\22, 1)\00", align 1
@.str.64 = private unnamed_addr constant [27 x i8] c"setenv(\22IN_ENV\22, \22OFF\22, 1)\00", align 1
@.str.65 = private unnamed_addr constant [4 x i8] c"OFF\00", align 1
@.str.66 = private unnamed_addr constant [27 x i8] c"setenv(\22IN_ENV\22, \22Off\22, 1)\00", align 1
@.str.67 = private unnamed_addr constant [4 x i8] c"Off\00", align 1
@.str.68 = private unnamed_addr constant [27 x i8] c"setenv(\22IN_ENV\22, \22off\22, 1)\00", align 1
@.str.69 = private unnamed_addr constant [4 x i8] c"off\00", align 1
@_ZTVN7testing8internal15TestFactoryImplIN9benchmark12_GLOBAL__N_121BoolFromEnv_True_TestEEE = internal unnamed_addr constant { [5 x ptr] } { [5 x ptr] [ptr null, ptr @_ZTIN7testing8internal15TestFactoryImplIN9benchmark12_GLOBAL__N_121BoolFromEnv_True_TestEEE, ptr @_ZN7testing8internal15TestFactoryBaseD2Ev, ptr @_ZN7testing8internal15TestFactoryImplIN9benchmark12_GLOBAL__N_121BoolFromEnv_True_TestEED0Ev, ptr @_ZN7testing8internal15TestFactoryImplIN9benchmark12_GLOBAL__N_121BoolFromEnv_True_TestEE10CreateTestEv] }, align 8
@_ZTSN7testing8internal15TestFactoryImplIN9benchmark12_GLOBAL__N_121BoolFromEnv_True_TestEEE = internal constant [88 x i8] c"N7testing8internal15TestFactoryImplIN9benchmark12_GLOBAL__N_121BoolFromEnv_True_TestEEE\00", align 1
@_ZTIN7testing8internal15TestFactoryImplIN9benchmark12_GLOBAL__N_121BoolFromEnv_True_TestEEE = internal constant { ptr, ptr, ptr } { ptr getelementptr inbounds (ptr, ptr @_ZTVN10__cxxabiv120__si_class_type_infoE, i64 2), ptr @_ZTSN7testing8internal15TestFactoryImplIN9benchmark12_GLOBAL__N_121BoolFromEnv_True_TestEEE, ptr @_ZTIN7testing8internal15TestFactoryBaseE }, align 8
@_ZTVN9benchmark12_GLOBAL__N_121BoolFromEnv_True_TestE = internal unnamed_addr constant { [8 x ptr] } { [8 x ptr] [ptr null, ptr @_ZTIN9benchmark12_GLOBAL__N_121BoolFromEnv_True_TestE, ptr @_ZN7testing4TestD2Ev, ptr @_ZN9benchmark12_GLOBAL__N_121BoolFromEnv_True_TestD0Ev, ptr @_ZN7testing4Test5SetUpEv, ptr @_ZN7testing4Test8TearDownEv, ptr @_ZN9benchmark12_GLOBAL__N_121BoolFromEnv_True_Test8TestBodyEv, ptr @_ZN7testing4Test5SetupEv] }, align 8
@_ZTSN9benchmark12_GLOBAL__N_121BoolFromEnv_True_TestE = internal constant [50 x i8] c"N9benchmark12_GLOBAL__N_121BoolFromEnv_True_TestE\00", align 1
@_ZTIN9benchmark12_GLOBAL__N_121BoolFromEnv_True_TestE = internal constant { ptr, ptr, ptr } { ptr getelementptr inbounds (ptr, ptr @_ZTVN10__cxxabiv120__si_class_type_infoE, i64 2), ptr @_ZTSN9benchmark12_GLOBAL__N_121BoolFromEnv_True_TestE, ptr @_ZTIN7testing4TestE }, align 8
@.str.70 = private unnamed_addr constant [25 x i8] c"setenv(\22IN_ENV\22, \221\22, 1)\00", align 1
@.str.71 = private unnamed_addr constant [2 x i8] c"1\00", align 1
@.str.72 = private unnamed_addr constant [29 x i8] c"BoolFromEnv(\22in_env\22, false)\00", align 1
@.str.73 = private unnamed_addr constant [25 x i8] c"setenv(\22IN_ENV\22, \22Y\22, 1)\00", align 1
@.str.74 = private unnamed_addr constant [2 x i8] c"Y\00", align 1
@.str.75 = private unnamed_addr constant [25 x i8] c"setenv(\22IN_ENV\22, \22y\22, 1)\00", align 1
@.str.76 = private unnamed_addr constant [2 x i8] c"y\00", align 1
@.str.77 = private unnamed_addr constant [27 x i8] c"setenv(\22IN_ENV\22, \22YES\22, 1)\00", align 1
@.str.78 = private unnamed_addr constant [4 x i8] c"YES\00", align 1
@.str.79 = private unnamed_addr constant [27 x i8] c"setenv(\22IN_ENV\22, \22Yes\22, 1)\00", align 1
@.str.80 = private unnamed_addr constant [4 x i8] c"Yes\00", align 1
@.str.81 = private unnamed_addr constant [27 x i8] c"setenv(\22IN_ENV\22, \22yes\22, 1)\00", align 1
@.str.82 = private unnamed_addr constant [4 x i8] c"yes\00", align 1
@.str.83 = private unnamed_addr constant [25 x i8] c"setenv(\22IN_ENV\22, \22T\22, 1)\00", align 1
@.str.84 = private unnamed_addr constant [2 x i8] c"T\00", align 1
@.str.85 = private unnamed_addr constant [25 x i8] c"setenv(\22IN_ENV\22, \22t\22, 1)\00", align 1
@.str.86 = private unnamed_addr constant [2 x i8] c"t\00", align 1
@.str.87 = private unnamed_addr constant [28 x i8] c"setenv(\22IN_ENV\22, \22TRUE\22, 1)\00", align 1
@.str.88 = private unnamed_addr constant [5 x i8] c"TRUE\00", align 1
@.str.89 = private unnamed_addr constant [28 x i8] c"setenv(\22IN_ENV\22, \22True\22, 1)\00", align 1
@.str.90 = private unnamed_addr constant [28 x i8] c"setenv(\22IN_ENV\22, \22true\22, 1)\00", align 1
@.str.91 = private unnamed_addr constant [26 x i8] c"setenv(\22IN_ENV\22, \22ON\22, 1)\00", align 1
@.str.92 = private unnamed_addr constant [3 x i8] c"ON\00", align 1
@.str.93 = private unnamed_addr constant [26 x i8] c"setenv(\22IN_ENV\22, \22On\22, 1)\00", align 1
@.str.94 = private unnamed_addr constant [3 x i8] c"On\00", align 1
@.str.95 = private unnamed_addr constant [26 x i8] c"setenv(\22IN_ENV\22, \22on\22, 1)\00", align 1
@.str.96 = private unnamed_addr constant [3 x i8] c"on\00", align 1
@.str.97 = private unnamed_addr constant [24 x i8] c"setenv(\22IN_ENV\22, \22\22, 1)\00", align 1
@_ZTVN7testing8internal15TestFactoryImplIN9benchmark12_GLOBAL__N_126Int32FromEnv_NotInEnv_TestEEE = internal unnamed_addr constant { [5 x ptr] } { [5 x ptr] [ptr null, ptr @_ZTIN7testing8internal15TestFactoryImplIN9benchmark12_GLOBAL__N_126Int32FromEnv_NotInEnv_TestEEE, ptr @_ZN7testing8internal15TestFactoryBaseD2Ev, ptr @_ZN7testing8internal15TestFactoryImplIN9benchmark12_GLOBAL__N_126Int32FromEnv_NotInEnv_TestEED0Ev, ptr @_ZN7testing8internal15TestFactoryImplIN9benchmark12_GLOBAL__N_126Int32FromEnv_NotInEnv_TestEE10CreateTestEv] }, align 8
@_ZTSN7testing8internal15TestFactoryImplIN9benchmark12_GLOBAL__N_126Int32FromEnv_NotInEnv_TestEEE = internal constant [93 x i8] c"N7testing8internal15TestFactoryImplIN9benchmark12_GLOBAL__N_126Int32FromEnv_NotInEnv_TestEEE\00", align 1
@_ZTIN7testing8internal15TestFactoryImplIN9benchmark12_GLOBAL__N_126Int32FromEnv_NotInEnv_TestEEE = internal constant { ptr, ptr, ptr } { ptr getelementptr inbounds (ptr, ptr @_ZTVN10__cxxabiv120__si_class_type_infoE, i64 2), ptr @_ZTSN7testing8internal15TestFactoryImplIN9benchmark12_GLOBAL__N_126Int32FromEnv_NotInEnv_TestEEE, ptr @_ZTIN7testing8internal15TestFactoryBaseE }, align 8
@_ZTVN9benchmark12_GLOBAL__N_126Int32FromEnv_NotInEnv_TestE = internal unnamed_addr constant { [8 x ptr] } { [8 x ptr] [ptr null, ptr @_ZTIN9benchmark12_GLOBAL__N_126Int32FromEnv_NotInEnv_TestE, ptr @_ZN7testing4TestD2Ev, ptr @_ZN9benchmark12_GLOBAL__N_126Int32FromEnv_NotInEnv_TestD0Ev, ptr @_ZN7testing4Test5SetUpEv, ptr @_ZN7testing4Test8TearDownEv, ptr @_ZN9benchmark12_GLOBAL__N_126Int32FromEnv_NotInEnv_Test8TestBodyEv, ptr @_ZN7testing4Test5SetupEv] }, align 8
@_ZTSN9benchmark12_GLOBAL__N_126Int32FromEnv_NotInEnv_TestE = internal constant [55 x i8] c"N9benchmark12_GLOBAL__N_126Int32FromEnv_NotInEnv_TestE\00", align 1
@_ZTIN9benchmark12_GLOBAL__N_126Int32FromEnv_NotInEnv_TestE = internal constant { ptr, ptr, ptr } { ptr getelementptr inbounds (ptr, ptr @_ZTVN10__cxxabiv120__si_class_type_infoE, i64 2), ptr @_ZTSN9benchmark12_GLOBAL__N_126Int32FromEnv_NotInEnv_TestE, ptr @_ZTIN7testing4TestE }, align 8
@.str.98 = private unnamed_addr constant [31 x i8] c"Int32FromEnv(\22not_in_env\22, 42)\00", align 1
@.str.99 = private unnamed_addr constant [3 x i8] c"42\00", align 1
@_ZTVN7testing8internal15TestFactoryImplIN9benchmark12_GLOBAL__N_132Int32FromEnv_InvalidInteger_TestEEE = internal unnamed_addr constant { [5 x ptr] } { [5 x ptr] [ptr null, ptr @_ZTIN7testing8internal15TestFactoryImplIN9benchmark12_GLOBAL__N_132Int32FromEnv_InvalidInteger_TestEEE, ptr @_ZN7testing8internal15TestFactoryBaseD2Ev, ptr @_ZN7testing8internal15TestFactoryImplIN9benchmark12_GLOBAL__N_132Int32FromEnv_InvalidInteger_TestEED0Ev, ptr @_ZN7testing8internal15TestFactoryImplIN9benchmark12_GLOBAL__N_132Int32FromEnv_InvalidInteger_TestEE10CreateTestEv] }, align 8
@_ZTSN7testing8internal15TestFactoryImplIN9benchmark12_GLOBAL__N_132Int32FromEnv_InvalidInteger_TestEEE = internal constant [99 x i8] c"N7testing8internal15TestFactoryImplIN9benchmark12_GLOBAL__N_132Int32FromEnv_InvalidInteger_TestEEE\00", align 1
@_ZTIN7testing8internal15TestFactoryImplIN9benchmark12_GLOBAL__N_132Int32FromEnv_InvalidInteger_TestEEE = internal constant { ptr, ptr, ptr } { ptr getelementptr inbounds (ptr, ptr @_ZTVN10__cxxabiv120__si_class_type_infoE, i64 2), ptr @_ZTSN7testing8internal15TestFactoryImplIN9benchmark12_GLOBAL__N_132Int32FromEnv_InvalidInteger_TestEEE, ptr @_ZTIN7testing8internal15TestFactoryBaseE }, align 8
@_ZTVN9benchmark12_GLOBAL__N_132Int32FromEnv_InvalidInteger_TestE = internal unnamed_addr constant { [8 x ptr] } { [8 x ptr] [ptr null, ptr @_ZTIN9benchmark12_GLOBAL__N_132Int32FromEnv_InvalidInteger_TestE, ptr @_ZN7testing4TestD2Ev, ptr @_ZN9benchmark12_GLOBAL__N_132Int32FromEnv_InvalidInteger_TestD0Ev, ptr @_ZN7testing4Test5SetUpEv, ptr @_ZN7testing4Test8TearDownEv, ptr @_ZN9benchmark12_GLOBAL__N_132Int32FromEnv_InvalidInteger_Test8TestBodyEv, ptr @_ZN7testing4Test5SetupEv] }, align 8
@_ZTSN9benchmark12_GLOBAL__N_132Int32FromEnv_InvalidInteger_TestE = internal constant [61 x i8] c"N9benchmark12_GLOBAL__N_132Int32FromEnv_InvalidInteger_TestE\00", align 1
@_ZTIN9benchmark12_GLOBAL__N_132Int32FromEnv_InvalidInteger_TestE = internal constant { ptr, ptr, ptr } { ptr getelementptr inbounds (ptr, ptr @_ZTVN10__cxxabiv120__si_class_type_infoE, i64 2), ptr @_ZTSN9benchmark12_GLOBAL__N_132Int32FromEnv_InvalidInteger_TestE, ptr @_ZTIN7testing4TestE }, align 8
@.str.100 = private unnamed_addr constant [27 x i8] c"setenv(\22IN_ENV\22, \22foo\22, 1)\00", align 1
@.str.101 = private unnamed_addr constant [4 x i8] c"foo\00", align 1
@.str.102 = private unnamed_addr constant [27 x i8] c"Int32FromEnv(\22in_env\22, 42)\00", align 1
@_ZTVN7testing8internal15TestFactoryImplIN9benchmark12_GLOBAL__N_130Int32FromEnv_ValidInteger_TestEEE = internal unnamed_addr constant { [5 x ptr] } { [5 x ptr] [ptr null, ptr @_ZTIN7testing8internal15TestFactoryImplIN9benchmark12_GLOBAL__N_130Int32FromEnv_ValidInteger_TestEEE, ptr @_ZN7testing8internal15TestFactoryBaseD2Ev, ptr @_ZN7testing8internal15TestFactoryImplIN9benchmark12_GLOBAL__N_130Int32FromEnv_ValidInteger_TestEED0Ev, ptr @_ZN7testing8internal15TestFactoryImplIN9benchmark12_GLOBAL__N_130Int32FromEnv_ValidInteger_TestEE10CreateTestEv] }, align 8
@_ZTSN7testing8internal15TestFactoryImplIN9benchmark12_GLOBAL__N_130Int32FromEnv_ValidInteger_TestEEE = internal constant [97 x i8] c"N7testing8internal15TestFactoryImplIN9benchmark12_GLOBAL__N_130Int32FromEnv_ValidInteger_TestEEE\00", align 1
@_ZTIN7testing8internal15TestFactoryImplIN9benchmark12_GLOBAL__N_130Int32FromEnv_ValidInteger_TestEEE = internal constant { ptr, ptr, ptr } { ptr getelementptr inbounds (ptr, ptr @_ZTVN10__cxxabiv120__si_class_type_infoE, i64 2), ptr @_ZTSN7testing8internal15TestFactoryImplIN9benchmark12_GLOBAL__N_130Int32FromEnv_ValidInteger_TestEEE, ptr @_ZTIN7testing8internal15TestFactoryBaseE }, align 8
@_ZTVN9benchmark12_GLOBAL__N_130Int32FromEnv_ValidInteger_TestE = internal unnamed_addr constant { [8 x ptr] } { [8 x ptr] [ptr null, ptr @_ZTIN9benchmark12_GLOBAL__N_130Int32FromEnv_ValidInteger_TestE, ptr @_ZN7testing4TestD2Ev, ptr @_ZN9benchmark12_GLOBAL__N_130Int32FromEnv_ValidInteger_TestD0Ev, ptr @_ZN7testing4Test5SetUpEv, ptr @_ZN7testing4Test8TearDownEv, ptr @_ZN9benchmark12_GLOBAL__N_130Int32FromEnv_ValidInteger_Test8TestBodyEv, ptr @_ZN7testing4Test5SetupEv] }, align 8
@_ZTSN9benchmark12_GLOBAL__N_130Int32FromEnv_ValidInteger_TestE = internal constant [59 x i8] c"N9benchmark12_GLOBAL__N_130Int32FromEnv_ValidInteger_TestE\00", align 1
@_ZTIN9benchmark12_GLOBAL__N_130Int32FromEnv_ValidInteger_TestE = internal constant { ptr, ptr, ptr } { ptr getelementptr inbounds (ptr, ptr @_ZTVN10__cxxabiv120__si_class_type_infoE, i64 2), ptr @_ZTSN9benchmark12_GLOBAL__N_130Int32FromEnv_ValidInteger_TestE, ptr @_ZTIN7testing4TestE }, align 8
@.str.103 = private unnamed_addr constant [26 x i8] c"setenv(\22IN_ENV\22, \2242\22, 1)\00", align 1
@.str.104 = private unnamed_addr constant [27 x i8] c"Int32FromEnv(\22in_env\22, 64)\00", align 1
@_ZTVN7testing8internal15TestFactoryImplIN9benchmark12_GLOBAL__N_127DoubleFromEnv_NotInEnv_TestEEE = internal unnamed_addr constant { [5 x ptr] } { [5 x ptr] [ptr null, ptr @_ZTIN7testing8internal15TestFactoryImplIN9benchmark12_GLOBAL__N_127DoubleFromEnv_NotInEnv_TestEEE, ptr @_ZN7testing8internal15TestFactoryBaseD2Ev, ptr @_ZN7testing8internal15TestFactoryImplIN9benchmark12_GLOBAL__N_127DoubleFromEnv_NotInEnv_TestEED0Ev, ptr @_ZN7testing8internal15TestFactoryImplIN9benchmark12_GLOBAL__N_127DoubleFromEnv_NotInEnv_TestEE10CreateTestEv] }, align 8
@_ZTSN7testing8internal15TestFactoryImplIN9benchmark12_GLOBAL__N_127DoubleFromEnv_NotInEnv_TestEEE = internal constant [94 x i8] c"N7testing8internal15TestFactoryImplIN9benchmark12_GLOBAL__N_127DoubleFromEnv_NotInEnv_TestEEE\00", align 1
@_ZTIN7testing8internal15TestFactoryImplIN9benchmark12_GLOBAL__N_127DoubleFromEnv_NotInEnv_TestEEE = internal constant { ptr, ptr, ptr } { ptr getelementptr inbounds (ptr, ptr @_ZTVN10__cxxabiv120__si_class_type_infoE, i64 2), ptr @_ZTSN7testing8internal15TestFactoryImplIN9benchmark12_GLOBAL__N_127DoubleFromEnv_NotInEnv_TestEEE, ptr @_ZTIN7testing8internal15TestFactoryBaseE }, align 8
@_ZTVN9benchmark12_GLOBAL__N_127DoubleFromEnv_NotInEnv_TestE = internal unnamed_addr constant { [8 x ptr] } { [8 x ptr] [ptr null, ptr @_ZTIN9benchmark12_GLOBAL__N_127DoubleFromEnv_NotInEnv_TestE, ptr @_ZN7testing4TestD2Ev, ptr @_ZN9benchmark12_GLOBAL__N_127DoubleFromEnv_NotInEnv_TestD0Ev, ptr @_ZN7testing4Test5SetUpEv, ptr @_ZN7testing4Test8TearDownEv, ptr @_ZN9benchmark12_GLOBAL__N_127DoubleFromEnv_NotInEnv_Test8TestBodyEv, ptr @_ZN7testing4Test5SetupEv] }, align 8
@_ZTSN9benchmark12_GLOBAL__N_127DoubleFromEnv_NotInEnv_TestE = internal constant [56 x i8] c"N9benchmark12_GLOBAL__N_127DoubleFromEnv_NotInEnv_TestE\00", align 1
@_ZTIN9benchmark12_GLOBAL__N_127DoubleFromEnv_NotInEnv_TestE = internal constant { ptr, ptr, ptr } { ptr getelementptr inbounds (ptr, ptr @_ZTVN10__cxxabiv120__si_class_type_infoE, i64 2), ptr @_ZTSN9benchmark12_GLOBAL__N_127DoubleFromEnv_NotInEnv_TestE, ptr @_ZTIN7testing4TestE }, align 8
@.str.105 = private unnamed_addr constant [34 x i8] c"DoubleFromEnv(\22not_in_env\22, 0.51)\00", align 1
@.str.106 = private unnamed_addr constant [5 x i8] c"0.51\00", align 1
@_ZTVN7testing8internal15TestFactoryImplIN9benchmark12_GLOBAL__N_130DoubleFromEnv_InvalidReal_TestEEE = internal unnamed_addr constant { [5 x ptr] } { [5 x ptr] [ptr null, ptr @_ZTIN7testing8internal15TestFactoryImplIN9benchmark12_GLOBAL__N_130DoubleFromEnv_InvalidReal_TestEEE, ptr @_ZN7testing8internal15TestFactoryBaseD2Ev, ptr @_ZN7testing8internal15TestFactoryImplIN9benchmark12_GLOBAL__N_130DoubleFromEnv_InvalidReal_TestEED0Ev, ptr @_ZN7testing8internal15TestFactoryImplIN9benchmark12_GLOBAL__N_130DoubleFromEnv_InvalidReal_TestEE10CreateTestEv] }, align 8
@_ZTSN7testing8internal15TestFactoryImplIN9benchmark12_GLOBAL__N_130DoubleFromEnv_InvalidReal_TestEEE = internal constant [97 x i8] c"N7testing8internal15TestFactoryImplIN9benchmark12_GLOBAL__N_130DoubleFromEnv_InvalidReal_TestEEE\00", align 1
@_ZTIN7testing8internal15TestFactoryImplIN9benchmark12_GLOBAL__N_130DoubleFromEnv_InvalidReal_TestEEE = internal constant { ptr, ptr, ptr } { ptr getelementptr inbounds (ptr, ptr @_ZTVN10__cxxabiv120__si_class_type_infoE, i64 2), ptr @_ZTSN7testing8internal15TestFactoryImplIN9benchmark12_GLOBAL__N_130DoubleFromEnv_InvalidReal_TestEEE, ptr @_ZTIN7testing8internal15TestFactoryBaseE }, align 8
@_ZTVN9benchmark12_GLOBAL__N_130DoubleFromEnv_InvalidReal_TestE = internal unnamed_addr constant { [8 x ptr] } { [8 x ptr] [ptr null, ptr @_ZTIN9benchmark12_GLOBAL__N_130DoubleFromEnv_InvalidReal_TestE, ptr @_ZN7testing4TestD2Ev, ptr @_ZN9benchmark12_GLOBAL__N_130DoubleFromEnv_InvalidReal_TestD0Ev, ptr @_ZN7testing4Test5SetUpEv, ptr @_ZN7testing4Test8TearDownEv, ptr @_ZN9benchmark12_GLOBAL__N_130DoubleFromEnv_InvalidReal_Test8TestBodyEv, ptr @_ZN7testing4Test5SetupEv] }, align 8
@_ZTSN9benchmark12_GLOBAL__N_130DoubleFromEnv_InvalidReal_TestE = internal constant [59 x i8] c"N9benchmark12_GLOBAL__N_130DoubleFromEnv_InvalidReal_TestE\00", align 1
@_ZTIN9benchmark12_GLOBAL__N_130DoubleFromEnv_InvalidReal_TestE = internal constant { ptr, ptr, ptr } { ptr getelementptr inbounds (ptr, ptr @_ZTVN10__cxxabiv120__si_class_type_infoE, i64 2), ptr @_ZTSN9benchmark12_GLOBAL__N_130DoubleFromEnv_InvalidReal_TestE, ptr @_ZTIN7testing4TestE }, align 8
@.str.107 = private unnamed_addr constant [30 x i8] c"DoubleFromEnv(\22in_env\22, 0.51)\00", align 1
@_ZTVN7testing8internal15TestFactoryImplIN9benchmark12_GLOBAL__N_128DoubleFromEnv_ValidReal_TestEEE = internal unnamed_addr constant { [5 x ptr] } { [5 x ptr] [ptr null, ptr @_ZTIN7testing8internal15TestFactoryImplIN9benchmark12_GLOBAL__N_128DoubleFromEnv_ValidReal_TestEEE, ptr @_ZN7testing8internal15TestFactoryBaseD2Ev, ptr @_ZN7testing8internal15TestFactoryImplIN9benchmark12_GLOBAL__N_128DoubleFromEnv_ValidReal_TestEED0Ev, ptr @_ZN7testing8internal15TestFactoryImplIN9benchmark12_GLOBAL__N_128DoubleFromEnv_ValidReal_TestEE10CreateTestEv] }, align 8
@_ZTSN7testing8internal15TestFactoryImplIN9benchmark12_GLOBAL__N_128DoubleFromEnv_ValidReal_TestEEE = internal constant [95 x i8] c"N7testing8internal15TestFactoryImplIN9benchmark12_GLOBAL__N_128DoubleFromEnv_ValidReal_TestEEE\00", align 1
@_ZTIN7testing8internal15TestFactoryImplIN9benchmark12_GLOBAL__N_128DoubleFromEnv_ValidReal_TestEEE = internal constant { ptr, ptr, ptr } { ptr getelementptr inbounds (ptr, ptr @_ZTVN10__cxxabiv120__si_class_type_infoE, i64 2), ptr @_ZTSN7testing8internal15TestFactoryImplIN9benchmark12_GLOBAL__N_128DoubleFromEnv_ValidReal_TestEEE, ptr @_ZTIN7testing8internal15TestFactoryBaseE }, align 8
@_ZTVN9benchmark12_GLOBAL__N_128DoubleFromEnv_ValidReal_TestE = internal unnamed_addr constant { [8 x ptr] } { [8 x ptr] [ptr null, ptr @_ZTIN9benchmark12_GLOBAL__N_128DoubleFromEnv_ValidReal_TestE, ptr @_ZN7testing4TestD2Ev, ptr @_ZN9benchmark12_GLOBAL__N_128DoubleFromEnv_ValidReal_TestD0Ev, ptr @_ZN7testing4Test5SetUpEv, ptr @_ZN7testing4Test8TearDownEv, ptr @_ZN9benchmark12_GLOBAL__N_128DoubleFromEnv_ValidReal_Test8TestBodyEv, ptr @_ZN7testing4Test5SetupEv] }, align 8
@_ZTSN9benchmark12_GLOBAL__N_128DoubleFromEnv_ValidReal_TestE = internal constant [57 x i8] c"N9benchmark12_GLOBAL__N_128DoubleFromEnv_ValidReal_TestE\00", align 1
@_ZTIN9benchmark12_GLOBAL__N_128DoubleFromEnv_ValidReal_TestE = internal constant { ptr, ptr, ptr } { ptr getelementptr inbounds (ptr, ptr @_ZTVN10__cxxabiv120__si_class_type_infoE, i64 2), ptr @_ZTSN9benchmark12_GLOBAL__N_128DoubleFromEnv_ValidReal_TestE, ptr @_ZTIN7testing4TestE }, align 8
@.str.108 = private unnamed_addr constant [28 x i8] c"setenv(\22IN_ENV\22, \220.51\22, 1)\00", align 1
@.str.109 = private unnamed_addr constant [30 x i8] c"DoubleFromEnv(\22in_env\22, 0.71)\00", align 1
@_ZTVN7testing8internal15TestFactoryImplIN9benchmark12_GLOBAL__N_126StringFromEnv_Default_TestEEE = internal unnamed_addr constant { [5 x ptr] } { [5 x ptr] [ptr null, ptr @_ZTIN7testing8internal15TestFactoryImplIN9benchmark12_GLOBAL__N_126StringFromEnv_Default_TestEEE, ptr @_ZN7testing8internal15TestFactoryBaseD2Ev, ptr @_ZN7testing8internal15TestFactoryImplIN9benchmark12_GLOBAL__N_126StringFromEnv_Default_TestEED0Ev, ptr @_ZN7testing8internal15TestFactoryImplIN9benchmark12_GLOBAL__N_126StringFromEnv_Default_TestEE10CreateTestEv] }, align 8
@_ZTSN7testing8internal15TestFactoryImplIN9benchmark12_GLOBAL__N_126StringFromEnv_Default_TestEEE = internal constant [93 x i8] c"N7testing8internal15TestFactoryImplIN9benchmark12_GLOBAL__N_126StringFromEnv_Default_TestEEE\00", align 1
@_ZTIN7testing8internal15TestFactoryImplIN9benchmark12_GLOBAL__N_126StringFromEnv_Default_TestEEE = internal constant { ptr, ptr, ptr } { ptr getelementptr inbounds (ptr, ptr @_ZTVN10__cxxabiv120__si_class_type_infoE, i64 2), ptr @_ZTSN7testing8internal15TestFactoryImplIN9benchmark12_GLOBAL__N_126StringFromEnv_Default_TestEEE, ptr @_ZTIN7testing8internal15TestFactoryBaseE }, align 8
@_ZTVN9benchmark12_GLOBAL__N_126StringFromEnv_Default_TestE = internal unnamed_addr constant { [8 x ptr] } { [8 x ptr] [ptr null, ptr @_ZTIN9benchmark12_GLOBAL__N_126StringFromEnv_Default_TestE, ptr @_ZN7testing4TestD2Ev, ptr @_ZN9benchmark12_GLOBAL__N_126StringFromEnv_Default_TestD0Ev, ptr @_ZN7testing4Test5SetUpEv, ptr @_ZN7testing4Test8TearDownEv, ptr @_ZN9benchmark12_GLOBAL__N_126StringFromEnv_Default_Test8TestBodyEv, ptr @_ZN7testing4Test5SetupEv] }, align 8
@_ZTSN9benchmark12_GLOBAL__N_126StringFromEnv_Default_TestE = internal constant [55 x i8] c"N9benchmark12_GLOBAL__N_126StringFromEnv_Default_TestE\00", align 1
@_ZTIN9benchmark12_GLOBAL__N_126StringFromEnv_Default_TestE = internal constant { ptr, ptr, ptr } { ptr getelementptr inbounds (ptr, ptr @_ZTVN10__cxxabiv120__si_class_type_infoE, i64 2), ptr @_ZTSN9benchmark12_GLOBAL__N_126StringFromEnv_Default_TestE, ptr @_ZTIN7testing4TestE }, align 8
@.str.110 = private unnamed_addr constant [35 x i8] c"StringFromEnv(\22not_in_env\22, \22foo\22)\00", align 1
@.str.111 = private unnamed_addr constant [6 x i8] c"\22foo\22\00", align 1
@_ZTVN7testing8internal15TestFactoryImplIN9benchmark12_GLOBAL__N_124StringFromEnv_Valid_TestEEE = internal unnamed_addr constant { [5 x ptr] } { [5 x ptr] [ptr null, ptr @_ZTIN7testing8internal15TestFactoryImplIN9benchmark12_GLOBAL__N_124StringFromEnv_Valid_TestEEE, ptr @_ZN7testing8internal15TestFactoryBaseD2Ev, ptr @_ZN7testing8internal15TestFactoryImplIN9benchmark12_GLOBAL__N_124StringFromEnv_Valid_TestEED0Ev, ptr @_ZN7testing8internal15TestFactoryImplIN9benchmark12_GLOBAL__N_124StringFromEnv_Valid_TestEE10CreateTestEv] }, align 8
@_ZTSN7testing8internal15TestFactoryImplIN9benchmark12_GLOBAL__N_124StringFromEnv_Valid_TestEEE = internal constant [91 x i8] c"N7testing8internal15TestFactoryImplIN9benchmark12_GLOBAL__N_124StringFromEnv_Valid_TestEEE\00", align 1
@_ZTIN7testing8internal15TestFactoryImplIN9benchmark12_GLOBAL__N_124StringFromEnv_Valid_TestEEE = internal constant { ptr, ptr, ptr } { ptr getelementptr inbounds (ptr, ptr @_ZTVN10__cxxabiv120__si_class_type_infoE, i64 2), ptr @_ZTSN7testing8internal15TestFactoryImplIN9benchmark12_GLOBAL__N_124StringFromEnv_Valid_TestEEE, ptr @_ZTIN7testing8internal15TestFactoryBaseE }, align 8
@_ZTVN9benchmark12_GLOBAL__N_124StringFromEnv_Valid_TestE = internal unnamed_addr constant { [8 x ptr] } { [8 x ptr] [ptr null, ptr @_ZTIN9benchmark12_GLOBAL__N_124StringFromEnv_Valid_TestE, ptr @_ZN7testing4TestD2Ev, ptr @_ZN9benchmark12_GLOBAL__N_124StringFromEnv_Valid_TestD0Ev, ptr @_ZN7testing4Test5SetUpEv, ptr @_ZN7testing4Test8TearDownEv, ptr @_ZN9benchmark12_GLOBAL__N_124StringFromEnv_Valid_Test8TestBodyEv, ptr @_ZN7testing4Test5SetupEv] }, align 8
@_ZTSN9benchmark12_GLOBAL__N_124StringFromEnv_Valid_TestE = internal constant [53 x i8] c"N9benchmark12_GLOBAL__N_124StringFromEnv_Valid_TestE\00", align 1
@_ZTIN9benchmark12_GLOBAL__N_124StringFromEnv_Valid_TestE = internal constant { ptr, ptr, ptr } { ptr getelementptr inbounds (ptr, ptr @_ZTVN10__cxxabiv120__si_class_type_infoE, i64 2), ptr @_ZTSN9benchmark12_GLOBAL__N_124StringFromEnv_Valid_TestE, ptr @_ZTIN7testing4TestE }, align 8
@.str.112 = private unnamed_addr constant [31 x i8] c"StringFromEnv(\22in_env\22, \22bar\22)\00", align 1
@.str.113 = private unnamed_addr constant [4 x i8] c"bar\00", align 1
@_ZTVN7testing8internal15TestFactoryImplIN9benchmark12_GLOBAL__N_127KvPairsFromEnv_Default_TestEEE = internal unnamed_addr constant { [5 x ptr] } { [5 x ptr] [ptr null, ptr @_ZTIN7testing8internal15TestFactoryImplIN9benchmark12_GLOBAL__N_127KvPairsFromEnv_Default_TestEEE, ptr @_ZN7testing8internal15TestFactoryBaseD2Ev, ptr @_ZN7testing8internal15TestFactoryImplIN9benchmark12_GLOBAL__N_127KvPairsFromEnv_Default_TestEED0Ev, ptr @_ZN7testing8internal15TestFactoryImplIN9benchmark12_GLOBAL__N_127KvPairsFromEnv_Default_TestEE10CreateTestEv] }, align 8
@_ZTSN7testing8internal15TestFactoryImplIN9benchmark12_GLOBAL__N_127KvPairsFromEnv_Default_TestEEE = internal constant [94 x i8] c"N7testing8internal15TestFactoryImplIN9benchmark12_GLOBAL__N_127KvPairsFromEnv_Default_TestEEE\00", align 1
@_ZTIN7testing8internal15TestFactoryImplIN9benchmark12_GLOBAL__N_127KvPairsFromEnv_Default_TestEEE = internal constant { ptr, ptr, ptr } { ptr getelementptr inbounds (ptr, ptr @_ZTVN10__cxxabiv120__si_class_type_infoE, i64 2), ptr @_ZTSN7testing8internal15TestFactoryImplIN9benchmark12_GLOBAL__N_127KvPairsFromEnv_Default_TestEEE, ptr @_ZTIN7testing8internal15TestFactoryBaseE }, align 8
@_ZTVN9benchmark12_GLOBAL__N_127KvPairsFromEnv_Default_TestE = internal unnamed_addr constant { [8 x ptr] } { [8 x ptr] [ptr null, ptr @_ZTIN9benchmark12_GLOBAL__N_127KvPairsFromEnv_Default_TestE, ptr @_ZN7testing4TestD2Ev, ptr @_ZN9benchmark12_GLOBAL__N_127KvPairsFromEnv_Default_TestD0Ev, ptr @_ZN7testing4Test5SetUpEv, ptr @_ZN7testing4Test8TearDownEv, ptr @_ZN9benchmark12_GLOBAL__N_127KvPairsFromEnv_Default_Test8TestBodyEv, ptr @_ZN7testing4Test5SetupEv] }, align 8
@_ZTSN9benchmark12_GLOBAL__N_127KvPairsFromEnv_Default_TestE = internal constant [56 x i8] c"N9benchmark12_GLOBAL__N_127KvPairsFromEnv_Default_TestE\00", align 1
@_ZTIN9benchmark12_GLOBAL__N_127KvPairsFromEnv_Default_TestE = internal constant { ptr, ptr, ptr } { ptr getelementptr inbounds (ptr, ptr @_ZTVN10__cxxabiv120__si_class_type_infoE, i64 2), ptr @_ZTSN9benchmark12_GLOBAL__N_127KvPairsFromEnv_Default_TestE, ptr @_ZTIN7testing4TestE }, align 8
@.str.114 = private unnamed_addr constant [47 x i8] c"KvPairsFromEnv(\22not_in_env\22, {{\22foo\22, \22bar\22}})\00", align 1
@.str.115 = private unnamed_addr constant [11 x i8] c"Value of: \00", align 1
@.str.116 = private unnamed_addr constant [2 x i8] c"\0A\00", align 1
@.str.117 = private unnamed_addr constant [11 x i8] c"Expected: \00", align 1
@.str.118 = private unnamed_addr constant [97 x i8] c"\0A  The matcher failed on the initial attempt; but passed when rerun to generate the explanation.\00", align 1
@.str.119 = private unnamed_addr constant [12 x i8] c"\0A  Actual: \00", align 1
@.str.120 = private unnamed_addr constant [7 x i8] c"vector\00", align 1
@_ZTVN7testing7MatcherIRKNSt3__14pairIKNS1_12basic_stringIcNS1_11char_traitsIcEENS1_9allocatorIcEEEES8_EEEE = linkonce_odr hidden unnamed_addr constant { [6 x ptr] } { [6 x ptr] [ptr null, ptr @_ZTIN7testing7MatcherIRKNSt3__14pairIKNS1_12basic_stringIcNS1_11char_traitsIcEENS1_9allocatorIcEEEES8_EEEE, ptr @_ZN7testing8internal11MatcherBaseIRKNSt3__14pairIKNS2_12basic_stringIcNS2_11char_traitsIcEENS2_9allocatorIcEEEES9_EEED2Ev, ptr @_ZN7testing7MatcherIRKNSt3__14pairIKNS1_12basic_stringIcNS1_11char_traitsIcEENS1_9allocatorIcEEEES8_EEED0Ev, ptr @_ZNK7testing8internal11MatcherBaseIRKNSt3__14pairIKNS2_12basic_stringIcNS2_11char_traitsIcEENS2_9allocatorIcEEEES9_EEE10DescribeToEPNS2_13basic_ostreamIcS6_EE, ptr @_ZNK7testing8internal11MatcherBaseIRKNSt3__14pairIKNS2_12basic_stringIcNS2_11char_traitsIcEENS2_9allocatorIcEEEES9_EEE18DescribeNegationToEPNS2_13basic_ostreamIcS6_EE] }, comdat, align 8
@_ZTSN7testing7MatcherIRKNSt3__14pairIKNS1_12basic_stringIcNS1_11char_traitsIcEENS1_9allocatorIcEEEES8_EEEE = linkonce_odr hidden constant [103 x i8] c"N7testing7MatcherIRKNSt3__14pairIKNS1_12basic_stringIcNS1_11char_traitsIcEENS1_9allocatorIcEEEES8_EEEE\00", comdat, align 1
@_ZTVN10__cxxabiv121__vmi_class_type_infoE = external global ptr
@_ZTSN7testing8internal11MatcherBaseIRKNSt3__14pairIKNS2_12basic_stringIcNS2_11char_traitsIcEENS2_9allocatorIcEEEES9_EEEE = linkonce_odr hidden constant [117 x i8] c"N7testing8internal11MatcherBaseIRKNSt3__14pairIKNS2_12basic_stringIcNS2_11char_traitsIcEENS2_9allocatorIcEEEES9_EEEE\00", comdat, align 1
@_ZTSN7testing25MatcherDescriberInterfaceE = linkonce_odr dso_local constant [38 x i8] c"N7testing25MatcherDescriberInterfaceE\00", comdat, align 1
@_ZTIN7testing25MatcherDescriberInterfaceE = linkonce_odr dso_local constant { ptr, ptr } { ptr getelementptr inbounds (ptr, ptr @_ZTVN10__cxxabiv117__class_type_infoE, i64 2), ptr @_ZTSN7testing25MatcherDescriberInterfaceE }, comdat, align 8
@_ZTIN7testing8internal11MatcherBaseIRKNSt3__14pairIKNS2_12basic_stringIcNS2_11char_traitsIcEENS2_9allocatorIcEEEES9_EEEE = linkonce_odr hidden constant { ptr, ptr, i32, i32, ptr, i64 } { ptr getelementptr inbounds (ptr, ptr @_ZTVN10__cxxabiv121__vmi_class_type_infoE, i64 2), ptr @_ZTSN7testing8internal11MatcherBaseIRKNSt3__14pairIKNS2_12basic_stringIcNS2_11char_traitsIcEENS2_9allocatorIcEEEES9_EEEE, i32 0, i32 1, ptr @_ZTIN7testing25MatcherDescriberInterfaceE, i64 0 }, comdat, align 8
@_ZTIN7testing7MatcherIRKNSt3__14pairIKNS1_12basic_stringIcNS1_11char_traitsIcEENS1_9allocatorIcEEEES8_EEEE = linkonce_odr hidden constant { ptr, ptr, ptr } { ptr getelementptr inbounds (ptr, ptr @_ZTVN10__cxxabiv120__si_class_type_infoE, i64 2), ptr @_ZTSN7testing7MatcherIRKNSt3__14pairIKNS1_12basic_stringIcNS1_11char_traitsIcEENS1_9allocatorIcEEEES8_EEEE, ptr @_ZTIN7testing8internal11MatcherBaseIRKNSt3__14pairIKNS2_12basic_stringIcNS2_11char_traitsIcEENS2_9allocatorIcEEEES9_EEEE }, comdat, align 8
@_ZTVN7testing8internal11MatcherBaseIRKNSt3__14pairIKNS2_12basic_stringIcNS2_11char_traitsIcEENS2_9allocatorIcEEEES9_EEEE = linkonce_odr hidden unnamed_addr constant { [6 x ptr] } { [6 x ptr] [ptr null, ptr @_ZTIN7testing8internal11MatcherBaseIRKNSt3__14pairIKNS2_12basic_stringIcNS2_11char_traitsIcEENS2_9allocatorIcEEEES9_EEEE, ptr @_ZN7testing8internal11MatcherBaseIRKNSt3__14pairIKNS2_12basic_stringIcNS2_11char_traitsIcEENS2_9allocatorIcEEEES9_EEED2Ev, ptr @_ZN7testing8internal11MatcherBaseIRKNSt3__14pairIKNS2_12basic_stringIcNS2_11char_traitsIcEENS2_9allocatorIcEEEES9_EEED0Ev, ptr @_ZNK7testing8internal11MatcherBaseIRKNSt3__14pairIKNS2_12basic_stringIcNS2_11char_traitsIcEENS2_9allocatorIcEEEES9_EEE10DescribeToEPNS2_13basic_ostreamIcS6_EE, ptr @_ZNK7testing8internal11MatcherBaseIRKNSt3__14pairIKNS2_12basic_stringIcNS2_11char_traitsIcEENS2_9allocatorIcEEEES9_EEE18DescribeNegationToEPNS2_13basic_ostreamIcS6_EE] }, comdat, align 8
@.str.122 = private unnamed_addr constant [2 x i8] c")\00", align 1
@.str.123 = private unnamed_addr constant [136 x i8] c"/local/mnt2/workspace2/mnadeem/llvm/llvm-test-suite/MicroBenchmarks/libs/benchmark/googletest/googletest/include/gtest/gtest-matchers.h\00", align 1
@.str.124 = private unnamed_addr constant [38 x i8] c"Condition vtable_ != nullptr failed. \00", align 1
@_ZNSt3__14cerrE = external global %"class.std::__1::basic_ostream", align 8
@_ZTVN7testing8internal15PairMatcherImplIRKNSt3__14pairIKNS2_12basic_stringIcNS2_11char_traitsIcEENS2_9allocatorIcEEEES9_EEEE = linkonce_odr hidden unnamed_addr constant { [7 x ptr] } { [7 x ptr] [ptr null, ptr @_ZTIN7testing8internal15PairMatcherImplIRKNSt3__14pairIKNS2_12basic_stringIcNS2_11char_traitsIcEENS2_9allocatorIcEEEES9_EEEE, ptr @_ZN7testing8internal15PairMatcherImplIRKNSt3__14pairIKNS2_12basic_stringIcNS2_11char_traitsIcEENS2_9allocatorIcEEEES9_EEED2Ev, ptr @_ZN7testing8internal15PairMatcherImplIRKNSt3__14pairIKNS2_12basic_stringIcNS2_11char_traitsIcEENS2_9allocatorIcEEEES9_EEED0Ev, ptr @_ZNK7testing8internal15PairMatcherImplIRKNSt3__14pairIKNS2_12basic_stringIcNS2_11char_traitsIcEENS2_9allocatorIcEEEES9_EEE10DescribeToEPNS2_13basic_ostreamIcS6_EE, ptr @_ZNK7testing8internal15PairMatcherImplIRKNSt3__14pairIKNS2_12basic_stringIcNS2_11char_traitsIcEENS2_9allocatorIcEEEES9_EEE18DescribeNegationToEPNS2_13basic_ostreamIcS6_EE, ptr @_ZNK7testing8internal15PairMatcherImplIRKNSt3__14pairIKNS2_12basic_stringIcNS2_11char_traitsIcEENS2_9allocatorIcEEEES9_EEE15MatchAndExplainESD_PNS_19MatchResultListenerE] }, comdat, align 8
@_ZTSN7testing8internal15PairMatcherImplIRKNSt3__14pairIKNS2_12basic_stringIcNS2_11char_traitsIcEENS2_9allocatorIcEEEES9_EEEE = linkonce_odr hidden constant [121 x i8] c"N7testing8internal15PairMatcherImplIRKNSt3__14pairIKNS2_12basic_stringIcNS2_11char_traitsIcEENS2_9allocatorIcEEEES9_EEEE\00", comdat, align 1
@_ZTSN7testing16MatcherInterfaceIRKNSt3__14pairIKNS1_12basic_stringIcNS1_11char_traitsIcEENS1_9allocatorIcEEEES8_EEEE = linkonce_odr hidden constant [113 x i8] c"N7testing16MatcherInterfaceIRKNSt3__14pairIKNS1_12basic_stringIcNS1_11char_traitsIcEENS1_9allocatorIcEEEES8_EEEE\00", comdat, align 1
@_ZTIN7testing16MatcherInterfaceIRKNSt3__14pairIKNS1_12basic_stringIcNS1_11char_traitsIcEENS1_9allocatorIcEEEES8_EEEE = linkonce_odr hidden constant { ptr, ptr, ptr } { ptr getelementptr inbounds (ptr, ptr @_ZTVN10__cxxabiv120__si_class_type_infoE, i64 2), ptr @_ZTSN7testing16MatcherInterfaceIRKNSt3__14pairIKNS1_12basic_stringIcNS1_11char_traitsIcEENS1_9allocatorIcEEEES8_EEEE, ptr @_ZTIN7testing25MatcherDescriberInterfaceE }, comdat, align 8
@_ZTIN7testing8internal15PairMatcherImplIRKNSt3__14pairIKNS2_12basic_stringIcNS2_11char_traitsIcEENS2_9allocatorIcEEEES9_EEEE = linkonce_odr hidden constant { ptr, ptr, ptr } { ptr getelementptr inbounds (ptr, ptr @_ZTVN10__cxxabiv120__si_class_type_infoE, i64 2), ptr @_ZTSN7testing8internal15PairMatcherImplIRKNSt3__14pairIKNS2_12basic_stringIcNS2_11char_traitsIcEENS2_9allocatorIcEEEES9_EEEE, ptr @_ZTIN7testing16MatcherInterfaceIRKNSt3__14pairIKNS1_12basic_stringIcNS1_11char_traitsIcEENS1_9allocatorIcEEEES8_EEEE }, comdat, align 8
@_ZTVN7testing8internal11MatcherBaseIRKNSt3__112basic_stringIcNS2_11char_traitsIcEENS2_9allocatorIcEEEEEE = linkonce_odr hidden unnamed_addr constant { [6 x ptr] } { [6 x ptr] [ptr null, ptr @_ZTIN7testing8internal11MatcherBaseIRKNSt3__112basic_stringIcNS2_11char_traitsIcEENS2_9allocatorIcEEEEEE, ptr @_ZN7testing8internal11MatcherBaseIRKNSt3__112basic_stringIcNS2_11char_traitsIcEENS2_9allocatorIcEEEEED2Ev, ptr @_ZN7testing8internal11MatcherBaseIRKNSt3__112basic_stringIcNS2_11char_traitsIcEENS2_9allocatorIcEEEEED0Ev, ptr @_ZNK7testing8internal11MatcherBaseIRKNSt3__112basic_stringIcNS2_11char_traitsIcEENS2_9allocatorIcEEEEE10DescribeToEPNS2_13basic_ostreamIcS5_EE, ptr @_ZNK7testing8internal11MatcherBaseIRKNSt3__112basic_stringIcNS2_11char_traitsIcEENS2_9allocatorIcEEEEE18DescribeNegationToEPNS2_13basic_ostreamIcS5_EE] }, comdat, align 8
@_ZTSN7testing8internal11MatcherBaseIRKNSt3__112basic_stringIcNS2_11char_traitsIcEENS2_9allocatorIcEEEEEE = linkonce_odr hidden constant [101 x i8] c"N7testing8internal11MatcherBaseIRKNSt3__112basic_stringIcNS2_11char_traitsIcEENS2_9allocatorIcEEEEEE\00", comdat, align 1
@_ZTIN7testing8internal11MatcherBaseIRKNSt3__112basic_stringIcNS2_11char_traitsIcEENS2_9allocatorIcEEEEEE = linkonce_odr hidden constant { ptr, ptr, i32, i32, ptr, i64 } { ptr getelementptr inbounds (ptr, ptr @_ZTVN10__cxxabiv121__vmi_class_type_infoE, i64 2), ptr @_ZTSN7testing8internal11MatcherBaseIRKNSt3__112basic_stringIcNS2_11char_traitsIcEENS2_9allocatorIcEEEEEE, i32 0, i32 1, ptr @_ZTIN7testing25MatcherDescriberInterfaceE, i64 0 }, comdat, align 8
@.str.125 = private unnamed_addr constant [24 x i8] c"has a first field that \00", align 1
@.str.126 = private unnamed_addr constant [31 x i8] c", and has a second field that \00", align 1
@.str.127 = private unnamed_addr constant [30 x i8] c", or has a second field that \00", align 1
@.str.128 = private unnamed_addr constant [33 x i8] c"whose first field does not match\00", align 1
@.str.129 = private unnamed_addr constant [34 x i8] c"whose second field does not match\00", align 1
@_ZTVN7testing8internal24DummyMatchResultListenerE = linkonce_odr hidden unnamed_addr constant { [4 x ptr] } { [4 x ptr] [ptr null, ptr @_ZTIN7testing8internal24DummyMatchResultListenerE, ptr @_ZN7testing19MatchResultListenerD2Ev, ptr @_ZN7testing8internal24DummyMatchResultListenerD0Ev] }, comdat, align 8
@_ZTSN7testing8internal24DummyMatchResultListenerE = linkonce_odr hidden constant [46 x i8] c"N7testing8internal24DummyMatchResultListenerE\00", comdat, align 1
@_ZTSN7testing19MatchResultListenerE = linkonce_odr hidden constant [32 x i8] c"N7testing19MatchResultListenerE\00", comdat, align 1
@_ZTIN7testing19MatchResultListenerE = linkonce_odr hidden constant { ptr, ptr } { ptr getelementptr inbounds (ptr, ptr @_ZTVN10__cxxabiv117__class_type_infoE, i64 2), ptr @_ZTSN7testing19MatchResultListenerE }, comdat, align 8
@_ZTIN7testing8internal24DummyMatchResultListenerE = linkonce_odr hidden constant { ptr, ptr, ptr } { ptr getelementptr inbounds (ptr, ptr @_ZTVN10__cxxabiv120__si_class_type_infoE, i64 2), ptr @_ZTSN7testing8internal24DummyMatchResultListenerE, ptr @_ZTIN7testing19MatchResultListenerE }, comdat, align 8
@.str.130 = private unnamed_addr constant [3 x i8] c", \00", align 1
@.str.131 = private unnamed_addr constant [24 x i8] c"whose both fields match\00", align 1
@.str.132 = private unnamed_addr constant [36 x i8] c", where the first field is a value \00", align 1
@.str.133 = private unnamed_addr constant [5 x i8] c"and \00", align 1
@.str.134 = private unnamed_addr constant [7 x i8] c"where \00", align 1
@.str.135 = private unnamed_addr constant [29 x i8] c"the second field is a value \00", align 1
@_ZZN7testing8internal11MatcherBaseIRKNSt3__14pairIKNS2_12basic_stringIcNS2_11char_traitsIcEENS2_9allocatorIcEEEES9_EEE9GetVTableINSE_11ValuePolicyIPKNS_16MatcherInterfaceISD_EELb1EEEEEPKNSE_6VTableEvE7kVTable = linkonce_odr hidden constant %"struct.testing::internal::MatcherBase<const std::__1::pair<const std::__1::string, std::__1::string> &>::VTable" { ptr @_ZN7testing8internal11MatcherBaseIRKNSt3__14pairIKNS2_12basic_stringIcNS2_11char_traitsIcEENS2_9allocatorIcEEEES9_EEE19MatchAndExplainImplINSE_11ValuePolicyIPKNS_16MatcherInterfaceISD_EELb1EEEEEDTcldtclsrT_3Getfp_E15MatchAndExplainfp0_fp1_EERKSE_SD_PNS_19MatchResultListenerE, ptr @_ZN7testing8internal11MatcherBaseIRKNSt3__14pairIKNS2_12basic_stringIcNS2_11char_traitsIcEENS2_9allocatorIcEEEES9_EEE12DescribeImplINSE_11ValuePolicyIPKNS_16MatcherInterfaceISD_EELb1EEEEEvRKSE_PNS2_13basic_ostreamIcS6_EEb, ptr @_ZN7testing8internal11MatcherBaseIRKNSt3__14pairIKNS2_12basic_stringIcNS2_11char_traitsIcEENS2_9allocatorIcEEEES9_EEE16GetDescriberImplINSE_11ValuePolicyIPKNS_16MatcherInterfaceISD_EELb1EEEEEPKNS_25MatcherDescriberInterfaceERKSE_, ptr @_ZN7testing8internal13SharedPayloadINSt3__110unique_ptrIKNS_16MatcherInterfaceIRKNS2_4pairIKNS2_12basic_stringIcNS2_11char_traitsIcEENS2_9allocatorIcEEEESB_EEEENS2_14default_deleteISH_EEEEE7DestroyEPNS0_17SharedPayloadBaseE }, comdat, align 8
@_ZTVN7testing8internal22ElementsAreMatcherImplIRKNSt3__13mapINS2_12basic_stringIcNS2_11char_traitsIcEENS2_9allocatorIcEEEES9_NS2_4lessIS9_EENS7_INS2_4pairIKS9_S9_EEEEEEEE = linkonce_odr hidden unnamed_addr constant { [7 x ptr] } { [7 x ptr] [ptr null, ptr @_ZTIN7testing8internal22ElementsAreMatcherImplIRKNSt3__13mapINS2_12basic_stringIcNS2_11char_traitsIcEENS2_9allocatorIcEEEES9_NS2_4lessIS9_EENS7_INS2_4pairIKS9_S9_EEEEEEEE, ptr @_ZN7testing8internal22ElementsAreMatcherImplIRKNSt3__13mapINS2_12basic_stringIcNS2_11char_traitsIcEENS2_9allocatorIcEEEES9_NS2_4lessIS9_EENS7_INS2_4pairIKS9_S9_EEEEEEED2Ev, ptr @_ZN7testing8internal22ElementsAreMatcherImplIRKNSt3__13mapINS2_12basic_stringIcNS2_11char_traitsIcEENS2_9allocatorIcEEEES9_NS2_4lessIS9_EENS7_INS2_4pairIKS9_S9_EEEEEEED0Ev, ptr @_ZNK7testing8internal22ElementsAreMatcherImplIRKNSt3__13mapINS2_12basic_stringIcNS2_11char_traitsIcEENS2_9allocatorIcEEEES9_NS2_4lessIS9_EENS7_INS2_4pairIKS9_S9_EEEEEEE10DescribeToEPNS2_13basic_ostreamIcS6_EE, ptr @_ZNK7testing8internal22ElementsAreMatcherImplIRKNSt3__13mapINS2_12basic_stringIcNS2_11char_traitsIcEENS2_9allocatorIcEEEES9_NS2_4lessIS9_EENS7_INS2_4pairIKS9_S9_EEEEEEE18DescribeNegationToEPNS2_13basic_ostreamIcS6_EE, ptr @_ZNK7testing8internal22ElementsAreMatcherImplIRKNSt3__13mapINS2_12basic_stringIcNS2_11char_traitsIcEENS2_9allocatorIcEEEES9_NS2_4lessIS9_EENS7_INS2_4pairIKS9_S9_EEEEEEE15MatchAndExplainESI_PNS_19MatchResultListenerE] }, comdat, align 8
@_ZTSN7testing8internal22ElementsAreMatcherImplIRKNSt3__13mapINS2_12basic_stringIcNS2_11char_traitsIcEENS2_9allocatorIcEEEES9_NS2_4lessIS9_EENS7_INS2_4pairIKS9_S9_EEEEEEEE = linkonce_odr hidden constant [167 x i8] c"N7testing8internal22ElementsAreMatcherImplIRKNSt3__13mapINS2_12basic_stringIcNS2_11char_traitsIcEENS2_9allocatorIcEEEES9_NS2_4lessIS9_EENS7_INS2_4pairIKS9_S9_EEEEEEEE\00", comdat, align 1
@_ZTSN7testing16MatcherInterfaceIRKNSt3__13mapINS1_12basic_stringIcNS1_11char_traitsIcEENS1_9allocatorIcEEEES8_NS1_4lessIS8_EENS6_INS1_4pairIKS8_S8_EEEEEEEE = linkonce_odr hidden constant [152 x i8] c"N7testing16MatcherInterfaceIRKNSt3__13mapINS1_12basic_stringIcNS1_11char_traitsIcEENS1_9allocatorIcEEEES8_NS1_4lessIS8_EENS6_INS1_4pairIKS8_S8_EEEEEEEE\00", comdat, align 1
@_ZTIN7testing16MatcherInterfaceIRKNSt3__13mapINS1_12basic_stringIcNS1_11char_traitsIcEENS1_9allocatorIcEEEES8_NS1_4lessIS8_EENS6_INS1_4pairIKS8_S8_EEEEEEEE = linkonce_odr hidden constant { ptr, ptr, ptr } { ptr getelementptr inbounds (ptr, ptr @_ZTVN10__cxxabiv120__si_class_type_infoE, i64 2), ptr @_ZTSN7testing16MatcherInterfaceIRKNSt3__13mapINS1_12basic_stringIcNS1_11char_traitsIcEENS1_9allocatorIcEEEES8_NS1_4lessIS8_EENS6_INS1_4pairIKS8_S8_EEEEEEEE, ptr @_ZTIN7testing25MatcherDescriberInterfaceE }, comdat, align 8
@_ZTIN7testing8internal22ElementsAreMatcherImplIRKNSt3__13mapINS2_12basic_stringIcNS2_11char_traitsIcEENS2_9allocatorIcEEEES9_NS2_4lessIS9_EENS7_INS2_4pairIKS9_S9_EEEEEEEE = linkonce_odr hidden constant { ptr, ptr, ptr } { ptr getelementptr inbounds (ptr, ptr @_ZTVN10__cxxabiv120__si_class_type_infoE, i64 2), ptr @_ZTSN7testing8internal22ElementsAreMatcherImplIRKNSt3__13mapINS2_12basic_stringIcNS2_11char_traitsIcEENS2_9allocatorIcEEEES9_NS2_4lessIS9_EENS7_INS2_4pairIKS9_S9_EEEEEEEE, ptr @_ZTIN7testing16MatcherInterfaceIRKNSt3__13mapINS1_12basic_stringIcNS1_11char_traitsIcEENS1_9allocatorIcEEEES8_NS1_4lessIS8_EENS6_INS1_4pairIKS8_S8_EEEEEEEE }, comdat, align 8
@.str.136 = private unnamed_addr constant [9 x i8] c"is empty\00", align 1
@.str.137 = private unnamed_addr constant [20 x i8] c"has 1 element that \00", align 1
@.str.138 = private unnamed_addr constant [5 x i8] c"has \00", align 1
@.str.139 = private unnamed_addr constant [8 x i8] c" where\0A\00", align 1
@.str.140 = private unnamed_addr constant [10 x i8] c"element #\00", align 1
@.str.141 = private unnamed_addr constant [2 x i8] c" \00", align 1
@.str.142 = private unnamed_addr constant [3 x i8] c",\0A\00", align 1
@.str.143 = private unnamed_addr constant [9 x i8] c" element\00", align 1
@.str.144 = private unnamed_addr constant [10 x i8] c" elements\00", align 1
@.str.146 = private unnamed_addr constant [12 x i8] c"isn't empty\00", align 1
@.str.147 = private unnamed_addr constant [14 x i8] c"doesn't have \00", align 1
@.str.148 = private unnamed_addr constant [6 x i8] c", or\0A\00", align 1
@.str.149 = private unnamed_addr constant [11 x i8] c"which has \00", align 1
@.str.150 = private unnamed_addr constant [16 x i8] c"whose element #\00", align 1
@.str.151 = private unnamed_addr constant [15 x i8] c" doesn't match\00", align 1
@.str.152 = private unnamed_addr constant [7 x i8] c",\0Aand \00", align 1
@.str.153 = private unnamed_addr constant [11 x i8] c" matches, \00", align 1
@_ZTVN7testing7MatcherIRKNSt3__13mapINS1_12basic_stringIcNS1_11char_traitsIcEENS1_9allocatorIcEEEES8_NS1_4lessIS8_EENS6_INS1_4pairIKS8_S8_EEEEEEEE = linkonce_odr hidden unnamed_addr constant { [6 x ptr] } { [6 x ptr] [ptr null, ptr @_ZTIN7testing7MatcherIRKNSt3__13mapINS1_12basic_stringIcNS1_11char_traitsIcEENS1_9allocatorIcEEEES8_NS1_4lessIS8_EENS6_INS1_4pairIKS8_S8_EEEEEEEE, ptr @_ZN7testing8internal11MatcherBaseIRKNSt3__13mapINS2_12basic_stringIcNS2_11char_traitsIcEENS2_9allocatorIcEEEES9_NS2_4lessIS9_EENS7_INS2_4pairIKS9_S9_EEEEEEED2Ev, ptr @_ZN7testing7MatcherIRKNSt3__13mapINS1_12basic_stringIcNS1_11char_traitsIcEENS1_9allocatorIcEEEES8_NS1_4lessIS8_EENS6_INS1_4pairIKS8_S8_EEEEEEED0Ev, ptr @_ZNK7testing8internal11MatcherBaseIRKNSt3__13mapINS2_12basic_stringIcNS2_11char_traitsIcEENS2_9allocatorIcEEEES9_NS2_4lessIS9_EENS7_INS2_4pairIKS9_S9_EEEEEEE10DescribeToEPNS2_13basic_ostreamIcS6_EE, ptr @_ZNK7testing8internal11MatcherBaseIRKNSt3__13mapINS2_12basic_stringIcNS2_11char_traitsIcEENS2_9allocatorIcEEEES9_NS2_4lessIS9_EENS7_INS2_4pairIKS9_S9_EEEEEEE18DescribeNegationToEPNS2_13basic_ostreamIcS6_EE] }, comdat, align 8
@_ZTSN7testing7MatcherIRKNSt3__13mapINS1_12basic_stringIcNS1_11char_traitsIcEENS1_9allocatorIcEEEES8_NS1_4lessIS8_EENS6_INS1_4pairIKS8_S8_EEEEEEEE = linkonce_odr hidden constant [142 x i8] c"N7testing7MatcherIRKNSt3__13mapINS1_12basic_stringIcNS1_11char_traitsIcEENS1_9allocatorIcEEEES8_NS1_4lessIS8_EENS6_INS1_4pairIKS8_S8_EEEEEEEE\00", comdat, align 1
@_ZTSN7testing8internal11MatcherBaseIRKNSt3__13mapINS2_12basic_stringIcNS2_11char_traitsIcEENS2_9allocatorIcEEEES9_NS2_4lessIS9_EENS7_INS2_4pairIKS9_S9_EEEEEEEE = linkonce_odr hidden constant [156 x i8] c"N7testing8internal11MatcherBaseIRKNSt3__13mapINS2_12basic_stringIcNS2_11char_traitsIcEENS2_9allocatorIcEEEES9_NS2_4lessIS9_EENS7_INS2_4pairIKS9_S9_EEEEEEEE\00", comdat, align 1
@_ZTIN7testing8internal11MatcherBaseIRKNSt3__13mapINS2_12basic_stringIcNS2_11char_traitsIcEENS2_9allocatorIcEEEES9_NS2_4lessIS9_EENS7_INS2_4pairIKS9_S9_EEEEEEEE = linkonce_odr hidden constant { ptr, ptr, i32, i32, ptr, i64 } { ptr getelementptr inbounds (ptr, ptr @_ZTVN10__cxxabiv121__vmi_class_type_infoE, i64 2), ptr @_ZTSN7testing8internal11MatcherBaseIRKNSt3__13mapINS2_12basic_stringIcNS2_11char_traitsIcEENS2_9allocatorIcEEEES9_NS2_4lessIS9_EENS7_INS2_4pairIKS9_S9_EEEEEEEE, i32 0, i32 1, ptr @_ZTIN7testing25MatcherDescriberInterfaceE, i64 0 }, comdat, align 8
@_ZTIN7testing7MatcherIRKNSt3__13mapINS1_12basic_stringIcNS1_11char_traitsIcEENS1_9allocatorIcEEEES8_NS1_4lessIS8_EENS6_INS1_4pairIKS8_S8_EEEEEEEE = linkonce_odr hidden constant { ptr, ptr, ptr } { ptr getelementptr inbounds (ptr, ptr @_ZTVN10__cxxabiv120__si_class_type_infoE, i64 2), ptr @_ZTSN7testing7MatcherIRKNSt3__13mapINS1_12basic_stringIcNS1_11char_traitsIcEENS1_9allocatorIcEEEES8_NS1_4lessIS8_EENS6_INS1_4pairIKS8_S8_EEEEEEEE, ptr @_ZTIN7testing8internal11MatcherBaseIRKNSt3__13mapINS2_12basic_stringIcNS2_11char_traitsIcEENS2_9allocatorIcEEEES9_NS2_4lessIS9_EENS7_INS2_4pairIKS9_S9_EEEEEEEE }, comdat, align 8
@_ZTVN7testing8internal11MatcherBaseIRKNSt3__13mapINS2_12basic_stringIcNS2_11char_traitsIcEENS2_9allocatorIcEEEES9_NS2_4lessIS9_EENS7_INS2_4pairIKS9_S9_EEEEEEEE = linkonce_odr hidden unnamed_addr constant { [6 x ptr] } { [6 x ptr] [ptr null, ptr @_ZTIN7testing8internal11MatcherBaseIRKNSt3__13mapINS2_12basic_stringIcNS2_11char_traitsIcEENS2_9allocatorIcEEEES9_NS2_4lessIS9_EENS7_INS2_4pairIKS9_S9_EEEEEEEE, ptr @_ZN7testing8internal11MatcherBaseIRKNSt3__13mapINS2_12basic_stringIcNS2_11char_traitsIcEENS2_9allocatorIcEEEES9_NS2_4lessIS9_EENS7_INS2_4pairIKS9_S9_EEEEEEED2Ev, ptr @_ZN7testing8internal11MatcherBaseIRKNSt3__13mapINS2_12basic_stringIcNS2_11char_traitsIcEENS2_9allocatorIcEEEES9_NS2_4lessIS9_EENS7_INS2_4pairIKS9_S9_EEEEEEED0Ev, ptr @_ZNK7testing8internal11MatcherBaseIRKNSt3__13mapINS2_12basic_stringIcNS2_11char_traitsIcEENS2_9allocatorIcEEEES9_NS2_4lessIS9_EENS7_INS2_4pairIKS9_S9_EEEEEEE10DescribeToEPNS2_13basic_ostreamIcS6_EE, ptr @_ZNK7testing8internal11MatcherBaseIRKNSt3__13mapINS2_12basic_stringIcNS2_11char_traitsIcEENS2_9allocatorIcEEEES9_NS2_4lessIS9_EENS7_INS2_4pairIKS9_S9_EEEEEEE18DescribeNegationToEPNS2_13basic_ostreamIcS6_EE] }, comdat, align 8
@_ZZN7testing8internal11MatcherBaseIRKNSt3__13mapINS2_12basic_stringIcNS2_11char_traitsIcEENS2_9allocatorIcEEEES9_NS2_4lessIS9_EENS7_INS2_4pairIKS9_S9_EEEEEEE9GetVTableINSJ_11ValuePolicyIPKNS_16MatcherInterfaceISI_EELb1EEEEEPKNSJ_6VTableEvE7kVTable = linkonce_odr hidden constant %"struct.testing::internal::MatcherBase<const std::__1::map<std::__1::string, std::__1::string> &>::VTable" { ptr @_ZN7testing8internal11MatcherBaseIRKNSt3__13mapINS2_12basic_stringIcNS2_11char_traitsIcEENS2_9allocatorIcEEEES9_NS2_4lessIS9_EENS7_INS2_4pairIKS9_S9_EEEEEEE19MatchAndExplainImplINSJ_11ValuePolicyIPKNS_16MatcherInterfaceISI_EELb1EEEEEDTcldtclsrT_3Getfp_E15MatchAndExplainfp0_fp1_EERKSJ_SI_PNS_19MatchResultListenerE, ptr @_ZN7testing8internal11MatcherBaseIRKNSt3__13mapINS2_12basic_stringIcNS2_11char_traitsIcEENS2_9allocatorIcEEEES9_NS2_4lessIS9_EENS7_INS2_4pairIKS9_S9_EEEEEEE12DescribeImplINSJ_11ValuePolicyIPKNS_16MatcherInterfaceISI_EELb1EEEEEvRKSJ_PNS2_13basic_ostreamIcS6_EEb, ptr @_ZN7testing8internal11MatcherBaseIRKNSt3__13mapINS2_12basic_stringIcNS2_11char_traitsIcEENS2_9allocatorIcEEEES9_NS2_4lessIS9_EENS7_INS2_4pairIKS9_S9_EEEEEEE16GetDescriberImplINSJ_11ValuePolicyIPKNS_16MatcherInterfaceISI_EELb1EEEEEPKNS_25MatcherDescriberInterfaceERKSJ_, ptr @_ZN7testing8internal13SharedPayloadINSt3__110unique_ptrIKNS_16MatcherInterfaceIRKNS2_3mapINS2_12basic_stringIcNS2_11char_traitsIcEENS2_9allocatorIcEEEESB_NS2_4lessISB_EENS9_INS2_4pairIKSB_SB_EEEEEEEENS2_14default_deleteISM_EEEEE7DestroyEPNS0_17SharedPayloadBaseE }, comdat, align 8
@_ZTVN7testing25StringMatchResultListenerE = linkonce_odr hidden unnamed_addr constant { [4 x ptr] } { [4 x ptr] [ptr null, ptr @_ZTIN7testing25StringMatchResultListenerE, ptr @_ZN7testing25StringMatchResultListenerD2Ev, ptr @_ZN7testing25StringMatchResultListenerD0Ev] }, comdat, align 8
@_ZTSN7testing25StringMatchResultListenerE = linkonce_odr hidden constant [38 x i8] c"N7testing25StringMatchResultListenerE\00", comdat, align 1
@_ZTIN7testing25StringMatchResultListenerE = linkonce_odr hidden constant { ptr, ptr, ptr } { ptr getelementptr inbounds (ptr, ptr @_ZTVN10__cxxabiv120__si_class_type_infoE, i64 2), ptr @_ZTSN7testing25StringMatchResultListenerE, ptr @_ZTIN7testing19MatchResultListenerE }, comdat, align 8
@.str.154 = private unnamed_addr constant [11 x i8] c" (of type \00", align 1
@.str.155 = private unnamed_addr constant [5 x i8] c" ...\00", align 1
@_ZTSNSt3__13mapINS_12basic_stringIcNS_11char_traitsIcEENS_9allocatorIcEEEES6_NS_4lessIS6_EENS4_INS_4pairIKS6_S6_EEEEEE = linkonce_odr dso_local constant [115 x i8] c"NSt3__13mapINS_12basic_stringIcNS_11char_traitsIcEENS_9allocatorIcEEEES6_NS_4lessIS6_EENS4_INS_4pairIKS6_S6_EEEEEE\00", comdat, align 1
@_ZTINSt3__13mapINS_12basic_stringIcNS_11char_traitsIcEENS_9allocatorIcEEEES6_NS_4lessIS6_EENS4_INS_4pairIKS6_S6_EEEEEE = linkonce_odr dso_local constant { ptr, ptr } { ptr getelementptr inbounds (ptr, ptr @_ZTVN10__cxxabiv117__class_type_infoE, i64 2), ptr @_ZTSNSt3__13mapINS_12basic_stringIcNS_11char_traitsIcEENS_9allocatorIcEEEES6_NS_4lessIS6_EENS4_INS_4pairIKS6_S6_EEEEEE }, comdat, align 8
@_ZZN7testing8internal31CanonicalizeForStdLibVersioningENSt3__112basic_stringIcNS1_11char_traitsIcEENS1_9allocatorIcEEEEE6prefix = linkonce_odr hidden constant [8 x i8] c"std::__\00", comdat, align 1
@.str.156 = private unnamed_addr constant [3 x i8] c"::\00", align 1
@_ZTVN7testing8internal15TestFactoryImplIN9benchmark12_GLOBAL__N_143KvPairsFromEnv_MalformedReturnsDefault_TestEEE = internal unnamed_addr constant { [5 x ptr] } { [5 x ptr] [ptr null, ptr @_ZTIN7testing8internal15TestFactoryImplIN9benchmark12_GLOBAL__N_143KvPairsFromEnv_MalformedReturnsDefault_TestEEE, ptr @_ZN7testing8internal15TestFactoryBaseD2Ev, ptr @_ZN7testing8internal15TestFactoryImplIN9benchmark12_GLOBAL__N_143KvPairsFromEnv_MalformedReturnsDefault_TestEED0Ev, ptr @_ZN7testing8internal15TestFactoryImplIN9benchmark12_GLOBAL__N_143KvPairsFromEnv_MalformedReturnsDefault_TestEE10CreateTestEv] }, align 8
@_ZTSN7testing8internal15TestFactoryImplIN9benchmark12_GLOBAL__N_143KvPairsFromEnv_MalformedReturnsDefault_TestEEE = internal constant [110 x i8] c"N7testing8internal15TestFactoryImplIN9benchmark12_GLOBAL__N_143KvPairsFromEnv_MalformedReturnsDefault_TestEEE\00", align 1
@_ZTIN7testing8internal15TestFactoryImplIN9benchmark12_GLOBAL__N_143KvPairsFromEnv_MalformedReturnsDefault_TestEEE = internal constant { ptr, ptr, ptr } { ptr getelementptr inbounds (ptr, ptr @_ZTVN10__cxxabiv120__si_class_type_infoE, i64 2), ptr @_ZTSN7testing8internal15TestFactoryImplIN9benchmark12_GLOBAL__N_143KvPairsFromEnv_MalformedReturnsDefault_TestEEE, ptr @_ZTIN7testing8internal15TestFactoryBaseE }, align 8
@_ZTVN9benchmark12_GLOBAL__N_143KvPairsFromEnv_MalformedReturnsDefault_TestE = internal unnamed_addr constant { [8 x ptr] } { [8 x ptr] [ptr null, ptr @_ZTIN9benchmark12_GLOBAL__N_143KvPairsFromEnv_MalformedReturnsDefault_TestE, ptr @_ZN7testing4TestD2Ev, ptr @_ZN9benchmark12_GLOBAL__N_143KvPairsFromEnv_MalformedReturnsDefault_TestD0Ev, ptr @_ZN7testing4Test5SetUpEv, ptr @_ZN7testing4Test8TearDownEv, ptr @_ZN9benchmark12_GLOBAL__N_143KvPairsFromEnv_MalformedReturnsDefault_Test8TestBodyEv, ptr @_ZN7testing4Test5SetupEv] }, align 8
@_ZTSN9benchmark12_GLOBAL__N_143KvPairsFromEnv_MalformedReturnsDefault_TestE = internal constant [72 x i8] c"N9benchmark12_GLOBAL__N_143KvPairsFromEnv_MalformedReturnsDefault_TestE\00", align 1
@_ZTIN9benchmark12_GLOBAL__N_143KvPairsFromEnv_MalformedReturnsDefault_TestE = internal constant { ptr, ptr, ptr } { ptr getelementptr inbounds (ptr, ptr @_ZTVN10__cxxabiv120__si_class_type_infoE, i64 2), ptr @_ZTSN9benchmark12_GLOBAL__N_143KvPairsFromEnv_MalformedReturnsDefault_TestE, ptr @_ZTIN7testing4TestE }, align 8
@.str.158 = private unnamed_addr constant [43 x i8] c"KvPairsFromEnv(\22in_env\22, {{\22foo\22, \22bar\22}})\00", align 1
@_ZTVN7testing8internal15TestFactoryImplIN9benchmark12_GLOBAL__N_126KvPairsFromEnv_Single_TestEEE = internal unnamed_addr constant { [5 x ptr] } { [5 x ptr] [ptr null, ptr @_ZTIN7testing8internal15TestFactoryImplIN9benchmark12_GLOBAL__N_126KvPairsFromEnv_Single_TestEEE, ptr @_ZN7testing8internal15TestFactoryBaseD2Ev, ptr @_ZN7testing8internal15TestFactoryImplIN9benchmark12_GLOBAL__N_126KvPairsFromEnv_Single_TestEED0Ev, ptr @_ZN7testing8internal15TestFactoryImplIN9benchmark12_GLOBAL__N_126KvPairsFromEnv_Single_TestEE10CreateTestEv] }, align 8
@_ZTSN7testing8internal15TestFactoryImplIN9benchmark12_GLOBAL__N_126KvPairsFromEnv_Single_TestEEE = internal constant [93 x i8] c"N7testing8internal15TestFactoryImplIN9benchmark12_GLOBAL__N_126KvPairsFromEnv_Single_TestEEE\00", align 1
@_ZTIN7testing8internal15TestFactoryImplIN9benchmark12_GLOBAL__N_126KvPairsFromEnv_Single_TestEEE = internal constant { ptr, ptr, ptr } { ptr getelementptr inbounds (ptr, ptr @_ZTVN10__cxxabiv120__si_class_type_infoE, i64 2), ptr @_ZTSN7testing8internal15TestFactoryImplIN9benchmark12_GLOBAL__N_126KvPairsFromEnv_Single_TestEEE, ptr @_ZTIN7testing8internal15TestFactoryBaseE }, align 8
@_ZTVN9benchmark12_GLOBAL__N_126KvPairsFromEnv_Single_TestE = internal unnamed_addr constant { [8 x ptr] } { [8 x ptr] [ptr null, ptr @_ZTIN9benchmark12_GLOBAL__N_126KvPairsFromEnv_Single_TestE, ptr @_ZN7testing4TestD2Ev, ptr @_ZN9benchmark12_GLOBAL__N_126KvPairsFromEnv_Single_TestD0Ev, ptr @_ZN7testing4Test5SetUpEv, ptr @_ZN7testing4Test8TearDownEv, ptr @_ZN9benchmark12_GLOBAL__N_126KvPairsFromEnv_Single_Test8TestBodyEv, ptr @_ZN7testing4Test5SetupEv] }, align 8
@_ZTSN9benchmark12_GLOBAL__N_126KvPairsFromEnv_Single_TestE = internal constant [55 x i8] c"N9benchmark12_GLOBAL__N_126KvPairsFromEnv_Single_TestE\00", align 1
@_ZTIN9benchmark12_GLOBAL__N_126KvPairsFromEnv_Single_TestE = internal constant { ptr, ptr, ptr } { ptr getelementptr inbounds (ptr, ptr @_ZTVN10__cxxabiv120__si_class_type_infoE, i64 2), ptr @_ZTSN9benchmark12_GLOBAL__N_126KvPairsFromEnv_Single_TestE, ptr @_ZTIN7testing4TestE }, align 8
@.str.159 = private unnamed_addr constant [31 x i8] c"setenv(\22IN_ENV\22, \22foo=bar\22, 1)\00", align 1
@.str.160 = private unnamed_addr constant [8 x i8] c"foo=bar\00", align 1
@.str.161 = private unnamed_addr constant [29 x i8] c"KvPairsFromEnv(\22in_env\22, {})\00", align 1
@_ZTVN7testing8internal15TestFactoryImplIN9benchmark12_GLOBAL__N_128KvPairsFromEnv_Multiple_TestEEE = internal unnamed_addr constant { [5 x ptr] } { [5 x ptr] [ptr null, ptr @_ZTIN7testing8internal15TestFactoryImplIN9benchmark12_GLOBAL__N_128KvPairsFromEnv_Multiple_TestEEE, ptr @_ZN7testing8internal15TestFactoryBaseD2Ev, ptr @_ZN7testing8internal15TestFactoryImplIN9benchmark12_GLOBAL__N_128KvPairsFromEnv_Multiple_TestEED0Ev, ptr @_ZN7testing8internal15TestFactoryImplIN9benchmark12_GLOBAL__N_128KvPairsFromEnv_Multiple_TestEE10CreateTestEv] }, align 8
@_ZTSN7testing8internal15TestFactoryImplIN9benchmark12_GLOBAL__N_128KvPairsFromEnv_Multiple_TestEEE = internal constant [95 x i8] c"N7testing8internal15TestFactoryImplIN9benchmark12_GLOBAL__N_128KvPairsFromEnv_Multiple_TestEEE\00", align 1
@_ZTIN7testing8internal15TestFactoryImplIN9benchmark12_GLOBAL__N_128KvPairsFromEnv_Multiple_TestEEE = internal constant { ptr, ptr, ptr } { ptr getelementptr inbounds (ptr, ptr @_ZTVN10__cxxabiv120__si_class_type_infoE, i64 2), ptr @_ZTSN7testing8internal15TestFactoryImplIN9benchmark12_GLOBAL__N_128KvPairsFromEnv_Multiple_TestEEE, ptr @_ZTIN7testing8internal15TestFactoryBaseE }, align 8
@_ZTVN9benchmark12_GLOBAL__N_128KvPairsFromEnv_Multiple_TestE = internal unnamed_addr constant { [8 x ptr] } { [8 x ptr] [ptr null, ptr @_ZTIN9benchmark12_GLOBAL__N_128KvPairsFromEnv_Multiple_TestE, ptr @_ZN7testing4TestD2Ev, ptr @_ZN9benchmark12_GLOBAL__N_128KvPairsFromEnv_Multiple_TestD0Ev, ptr @_ZN7testing4Test5SetUpEv, ptr @_ZN7testing4Test8TearDownEv, ptr @_ZN9benchmark12_GLOBAL__N_128KvPairsFromEnv_Multiple_Test8TestBodyEv, ptr @_ZN7testing4Test5SetupEv] }, align 8
@_ZTSN9benchmark12_GLOBAL__N_128KvPairsFromEnv_Multiple_TestE = internal constant [57 x i8] c"N9benchmark12_GLOBAL__N_128KvPairsFromEnv_Multiple_TestE\00", align 1
@_ZTIN9benchmark12_GLOBAL__N_128KvPairsFromEnv_Multiple_TestE = internal constant { ptr, ptr, ptr } { ptr getelementptr inbounds (ptr, ptr @_ZTVN10__cxxabiv120__si_class_type_infoE, i64 2), ptr @_ZTSN9benchmark12_GLOBAL__N_128KvPairsFromEnv_Multiple_TestE, ptr @_ZTIN7testing4TestE }, align 8
@.str.162 = private unnamed_addr constant [39 x i8] c"setenv(\22IN_ENV\22, \22foo=bar,baz=qux\22, 1)\00", align 1
@.str.163 = private unnamed_addr constant [16 x i8] c"foo=bar,baz=qux\00", align 1
@.str.164 = private unnamed_addr constant [4 x i8] c"baz\00", align 1
@.str.165 = private unnamed_addr constant [4 x i8] c"qux\00", align 1
@_ZTVN7testing8internal31UnorderedElementsAreMatcherImplIRKNSt3__13mapINS2_12basic_stringIcNS2_11char_traitsIcEENS2_9allocatorIcEEEES9_NS2_4lessIS9_EENS7_INS2_4pairIKS9_S9_EEEEEEEE = linkonce_odr hidden unnamed_addr constant { [7 x ptr] } { [7 x ptr] [ptr null, ptr @_ZTIN7testing8internal31UnorderedElementsAreMatcherImplIRKNSt3__13mapINS2_12basic_stringIcNS2_11char_traitsIcEENS2_9allocatorIcEEEES9_NS2_4lessIS9_EENS7_INS2_4pairIKS9_S9_EEEEEEEE, ptr @_ZN7testing8internal31UnorderedElementsAreMatcherImplIRKNSt3__13mapINS2_12basic_stringIcNS2_11char_traitsIcEENS2_9allocatorIcEEEES9_NS2_4lessIS9_EENS7_INS2_4pairIKS9_S9_EEEEEEED2Ev, ptr @_ZN7testing8internal31UnorderedElementsAreMatcherImplIRKNSt3__13mapINS2_12basic_stringIcNS2_11char_traitsIcEENS2_9allocatorIcEEEES9_NS2_4lessIS9_EENS7_INS2_4pairIKS9_S9_EEEEEEED0Ev, ptr @_ZNK7testing8internal31UnorderedElementsAreMatcherImplIRKNSt3__13mapINS2_12basic_stringIcNS2_11char_traitsIcEENS2_9allocatorIcEEEES9_NS2_4lessIS9_EENS7_INS2_4pairIKS9_S9_EEEEEEE10DescribeToEPNS2_13basic_ostreamIcS6_EE, ptr @_ZNK7testing8internal31UnorderedElementsAreMatcherImplIRKNSt3__13mapINS2_12basic_stringIcNS2_11char_traitsIcEENS2_9allocatorIcEEEES9_NS2_4lessIS9_EENS7_INS2_4pairIKS9_S9_EEEEEEE18DescribeNegationToEPNS2_13basic_ostreamIcS6_EE, ptr @_ZNK7testing8internal31UnorderedElementsAreMatcherImplIRKNSt3__13mapINS2_12basic_stringIcNS2_11char_traitsIcEENS2_9allocatorIcEEEES9_NS2_4lessIS9_EENS7_INS2_4pairIKS9_S9_EEEEEEE15MatchAndExplainESI_PNS_19MatchResultListenerE] }, comdat, align 8
@_ZTSN7testing8internal31UnorderedElementsAreMatcherImplIRKNSt3__13mapINS2_12basic_stringIcNS2_11char_traitsIcEENS2_9allocatorIcEEEES9_NS2_4lessIS9_EENS7_INS2_4pairIKS9_S9_EEEEEEEE = linkonce_odr hidden constant [176 x i8] c"N7testing8internal31UnorderedElementsAreMatcherImplIRKNSt3__13mapINS2_12basic_stringIcNS2_11char_traitsIcEENS2_9allocatorIcEEEES9_NS2_4lessIS9_EENS7_INS2_4pairIKS9_S9_EEEEEEEE\00", comdat, align 1
@_ZTSN7testing8internal35UnorderedElementsAreMatcherImplBaseE = linkonce_odr dso_local constant [57 x i8] c"N7testing8internal35UnorderedElementsAreMatcherImplBaseE\00", comdat, align 1
@_ZTIN7testing8internal35UnorderedElementsAreMatcherImplBaseE = linkonce_odr dso_local constant { ptr, ptr } { ptr getelementptr inbounds (ptr, ptr @_ZTVN10__cxxabiv117__class_type_infoE, i64 2), ptr @_ZTSN7testing8internal35UnorderedElementsAreMatcherImplBaseE }, comdat, align 8
@_ZTIN7testing8internal31UnorderedElementsAreMatcherImplIRKNSt3__13mapINS2_12basic_stringIcNS2_11char_traitsIcEENS2_9allocatorIcEEEES9_NS2_4lessIS9_EENS7_INS2_4pairIKS9_S9_EEEEEEEE = linkonce_odr hidden constant { ptr, ptr, i32, i32, ptr, i64, ptr, i64 } { ptr getelementptr inbounds (ptr, ptr @_ZTVN10__cxxabiv121__vmi_class_type_infoE, i64 2), ptr @_ZTSN7testing8internal31UnorderedElementsAreMatcherImplIRKNSt3__13mapINS2_12basic_stringIcNS2_11char_traitsIcEENS2_9allocatorIcEEEES9_NS2_4lessIS9_EENS7_INS2_4pairIKS9_S9_EEEEEEEE, i32 0, i32 2, ptr @_ZTIN7testing16MatcherInterfaceIRKNSt3__13mapINS1_12basic_stringIcNS1_11char_traitsIcEENS1_9allocatorIcEEEES8_NS1_4lessIS8_EENS6_INS1_4pairIKS8_S8_EEEEEEEE, i64 2, ptr @_ZTIN7testing8internal35UnorderedElementsAreMatcherImplBaseE, i64 2050 }, comdat, align 8
@.str.166 = private unnamed_addr constant [2 x i8] c"s\00", align 1
@.str.167 = private unnamed_addr constant [145 x i8] c"/local/mnt2/workspace2/mnadeem/llvm/llvm-test-suite/MicroBenchmarks/libs/benchmark/googletest/googletest/include/gtest/internal/gtest-internal.h\00", align 1
@.str.168 = private unnamed_addr constant [51 x i8] c"Condition !test_case_fp || !test_suite_fp failed. \00", align 1
@.str.169 = private unnamed_addr constant [107 x i8] c"Test can not provide both SetUpTestSuite and SetUpTestCase, please make sure there is only one present at \00", align 1
@.str.170 = private unnamed_addr constant [2 x i8] c":\00", align 1
@.str.171 = private unnamed_addr constant [112 x i8] c"Test can not provide both TearDownTestSuite and TearDownTestCase, please make sure there is only one present at\00", align 1
@llvm.global_ctors = appending global [1 x { i32, ptr, ptr }] [{ i32, ptr, ptr } { i32 65535, ptr @_GLOBAL__sub_I_commandlineflags_gtest.cc, ptr null }]

declare noundef i32 @_ZN9benchmark8internal17InitializeStreamsEv() local_unnamed_addr #0

declare noundef ptr @_ZN7testing8internal23MakeAndRegisterTestInfoEPKcS2_S2_S2_NS0_12CodeLocationEPKvPFvvES7_PNS0_15TestFactoryBaseE(ptr noundef, ptr noundef, ptr noundef, ptr noundef, ptr noundef, ptr noundef, ptr noundef, ptr noundef, ptr noundef) local_unnamed_addr #0

; Function Attrs: mustprogress nocallback nofree nosync nounwind willreturn memory(argmem: readwrite)
declare void @llvm.lifetime.start.p0(i64 immarg, ptr nocapture) #1

declare i32 @__gxx_personality_v0(...)

declare noundef ptr @_ZN7testing8internal13GetTestTypeIdEv() local_unnamed_addr #0

; Function Attrs: mustprogress uwtable
define linkonce_odr hidden noundef ptr @_ZN7testing8internal16SuiteApiResolverINS_4TestEE19GetSetUpCaseOrSuiteEPKci(ptr noundef %filename, i32 noundef %line_num) local_unnamed_addr #2 comdat align 2 personality ptr @__gxx_personality_v0 {
entry:
  %ref.tmp = alloca %"class.testing::internal::GTestLog", align 4
  %call3 = tail call noundef zeroext i1 @_ZN7testing8internal6IsTrueEb(i1 noundef zeroext true)
  br i1 %call3, label %if.end, label %if.else

if.else:                                          ; preds = %entry
  call void @llvm.lifetime.start.p0(i64 4, ptr nonnull %ref.tmp) #23
  call void @_ZN7testing8internal8GTestLogC1ENS0_16GTestLogSeverityEPKci(ptr noundef nonnull align 4 dereferenceable(4) %ref.tmp, i32 noundef 3, ptr noundef nonnull @.str.167, i32 noundef 531)
  %call1.i18 = invoke noundef nonnull align 8 dereferenceable(8) ptr @_ZNSt3__124__put_character_sequenceB7v170000IcNS_11char_traitsIcEEEERNS_13basic_ostreamIT_T0_EES7_PKS4_m(ptr noundef nonnull align 8 dereferenceable(8) @_ZNSt3__14cerrE, ptr noundef nonnull @.str.168, i64 noundef 50)
          to label %invoke.cont unwind label %lpad

invoke.cont:                                      ; preds = %if.else
  %call1.i20 = invoke noundef nonnull align 8 dereferenceable(8) ptr @_ZNSt3__124__put_character_sequenceB7v170000IcNS_11char_traitsIcEEEERNS_13basic_ostreamIT_T0_EES7_PKS4_m(ptr noundef nonnull align 8 dereferenceable(8) %call1.i18, ptr noundef nonnull @.str.169, i64 noundef 106)
          to label %invoke.cont6 unwind label %lpad

invoke.cont6:                                     ; preds = %invoke.cont
  %call.i.i.i22 = call i64 @strlen(ptr noundef nonnull dereferenceable(1) %filename) #23
  %call1.i23 = invoke noundef nonnull align 8 dereferenceable(8) ptr @_ZNSt3__124__put_character_sequenceB7v170000IcNS_11char_traitsIcEEEERNS_13basic_ostreamIT_T0_EES7_PKS4_m(ptr noundef nonnull align 8 dereferenceable(8) %call1.i20, ptr noundef %filename, i64 noundef %call.i.i.i22)
          to label %invoke.cont8 unwind label %lpad

invoke.cont8:                                     ; preds = %invoke.cont6
  %call1.i26 = invoke noundef nonnull align 8 dereferenceable(8) ptr @_ZNSt3__124__put_character_sequenceB7v170000IcNS_11char_traitsIcEEEERNS_13basic_ostreamIT_T0_EES7_PKS4_m(ptr noundef nonnull align 8 dereferenceable(8) %call1.i23, ptr noundef nonnull @.str.170, i64 noundef 1)
          to label %invoke.cont10 unwind label %lpad

invoke.cont10:                                    ; preds = %invoke.cont8
  %call13 = invoke noundef nonnull align 8 dereferenceable(8) ptr @_ZNSt3__113basic_ostreamIcNS_11char_traitsIcEEElsEi(ptr noundef nonnull align 8 dereferenceable(8) %call1.i26, i32 noundef %line_num)
          to label %invoke.cont12 unwind label %lpad

invoke.cont12:                                    ; preds = %invoke.cont10
  call void @_ZN7testing8internal8GTestLogD1Ev(ptr noundef nonnull align 4 dereferenceable(4) %ref.tmp) #23
  call void @llvm.lifetime.end.p0(i64 4, ptr nonnull %ref.tmp) #23
  br label %if.end

lpad:                                             ; preds = %invoke.cont8, %invoke.cont6, %invoke.cont, %if.else, %invoke.cont10
  %0 = landingpad { ptr, i32 }
          cleanup
  call void @_ZN7testing8internal8GTestLogD1Ev(ptr noundef nonnull align 4 dereferenceable(4) %ref.tmp) #23
  call void @llvm.lifetime.end.p0(i64 4, ptr nonnull %ref.tmp) #23
  resume { ptr, i32 } %0

if.end:                                           ; preds = %entry, %invoke.cont12
  ret ptr null
}

; Function Attrs: mustprogress uwtable
define linkonce_odr hidden noundef ptr @_ZN7testing8internal16SuiteApiResolverINS_4TestEE22GetTearDownCaseOrSuiteEPKci(ptr noundef %filename, i32 noundef %line_num) local_unnamed_addr #2 comdat align 2 personality ptr @__gxx_personality_v0 {
entry:
  %ref.tmp = alloca %"class.testing::internal::GTestLog", align 4
  %call3 = tail call noundef zeroext i1 @_ZN7testing8internal6IsTrueEb(i1 noundef zeroext true)
  br i1 %call3, label %if.end, label %if.else

if.else:                                          ; preds = %entry
  call void @llvm.lifetime.start.p0(i64 4, ptr nonnull %ref.tmp) #23
  call void @_ZN7testing8internal8GTestLogC1ENS0_16GTestLogSeverityEPKci(ptr noundef nonnull align 4 dereferenceable(4) %ref.tmp, i32 noundef 3, ptr noundef nonnull @.str.167, i32 noundef 552)
  %call1.i18 = invoke noundef nonnull align 8 dereferenceable(8) ptr @_ZNSt3__124__put_character_sequenceB7v170000IcNS_11char_traitsIcEEEERNS_13basic_ostreamIT_T0_EES7_PKS4_m(ptr noundef nonnull align 8 dereferenceable(8) @_ZNSt3__14cerrE, ptr noundef nonnull @.str.168, i64 noundef 50)
          to label %invoke.cont unwind label %lpad

invoke.cont:                                      ; preds = %if.else
  %call1.i20 = invoke noundef nonnull align 8 dereferenceable(8) ptr @_ZNSt3__124__put_character_sequenceB7v170000IcNS_11char_traitsIcEEEERNS_13basic_ostreamIT_T0_EES7_PKS4_m(ptr noundef nonnull align 8 dereferenceable(8) %call1.i18, ptr noundef nonnull @.str.171, i64 noundef 111)
          to label %invoke.cont6 unwind label %lpad

invoke.cont6:                                     ; preds = %invoke.cont
  %call.i.i.i22 = call i64 @strlen(ptr noundef nonnull dereferenceable(1) %filename) #23
  %call1.i23 = invoke noundef nonnull align 8 dereferenceable(8) ptr @_ZNSt3__124__put_character_sequenceB7v170000IcNS_11char_traitsIcEEEERNS_13basic_ostreamIT_T0_EES7_PKS4_m(ptr noundef nonnull align 8 dereferenceable(8) %call1.i20, ptr noundef %filename, i64 noundef %call.i.i.i22)
          to label %invoke.cont8 unwind label %lpad

invoke.cont8:                                     ; preds = %invoke.cont6
  %call1.i26 = invoke noundef nonnull align 8 dereferenceable(8) ptr @_ZNSt3__124__put_character_sequenceB7v170000IcNS_11char_traitsIcEEEERNS_13basic_ostreamIT_T0_EES7_PKS4_m(ptr noundef nonnull align 8 dereferenceable(8) %call1.i23, ptr noundef nonnull @.str.170, i64 noundef 1)
          to label %invoke.cont10 unwind label %lpad

invoke.cont10:                                    ; preds = %invoke.cont8
  %call13 = invoke noundef nonnull align 8 dereferenceable(8) ptr @_ZNSt3__113basic_ostreamIcNS_11char_traitsIcEEElsEi(ptr noundef nonnull align 8 dereferenceable(8) %call1.i26, i32 noundef %line_num)
          to label %invoke.cont12 unwind label %lpad

invoke.cont12:                                    ; preds = %invoke.cont10
  call void @_ZN7testing8internal8GTestLogD1Ev(ptr noundef nonnull align 4 dereferenceable(4) %ref.tmp) #23
  call void @llvm.lifetime.end.p0(i64 4, ptr nonnull %ref.tmp) #23
  br label %if.end

lpad:                                             ; preds = %invoke.cont8, %invoke.cont6, %invoke.cont, %if.else, %invoke.cont10
  %0 = landingpad { ptr, i32 }
          cleanup
  call void @_ZN7testing8internal8GTestLogD1Ev(ptr noundef nonnull align 4 dereferenceable(4) %ref.tmp) #23
  call void @llvm.lifetime.end.p0(i64 4, ptr nonnull %ref.tmp) #23
  resume { ptr, i32 } %0

if.end:                                           ; preds = %entry, %invoke.cont12
  ret ptr null
}

; Function Attrs: nobuiltin allocsize(0)
declare noundef nonnull ptr @_Znwm(i64 noundef) local_unnamed_addr #3

; Function Attrs: nobuiltin nounwind
declare void @_ZdlPv(ptr noundef) local_unnamed_addr #4

; Function Attrs: mustprogress nocallback nofree nosync nounwind willreturn memory(argmem: readwrite)
declare void @llvm.lifetime.end.p0(i64 immarg, ptr nocapture) #1

; Function Attrs: mustprogress nocallback nofree nosync nounwind willreturn memory(argmem: readwrite)
declare ptr @llvm.invariant.start.p0(i64 immarg, ptr nocapture) #1

declare void @_ZNSt3__112basic_stringIcNS_11char_traitsIcEENS_9allocatorIcEEEC1ERKS5_(ptr noundef nonnull align 8 dereferenceable(24), ptr noundef nonnull align 8 dereferenceable(24)) unnamed_addr #0

; Function Attrs: inlinehint nounwind uwtable
define internal void @_ZN7testing8internal15TestFactoryImplIN9benchmark12_GLOBAL__N_124BoolFromEnv_Default_TestEED0Ev(ptr noundef nonnull align 8 dereferenceable(8) %this) unnamed_addr #5 align 2 {
entry:
  tail call void @_ZdlPv(ptr noundef nonnull %this) #24
  ret void
}

; Function Attrs: uwtable
define internal noundef nonnull ptr @_ZN7testing8internal15TestFactoryImplIN9benchmark12_GLOBAL__N_124BoolFromEnv_Default_TestEE10CreateTestEv(ptr nocapture nonnull readnone align 8 %this) unnamed_addr #6 align 2 personality ptr @__gxx_personality_v0 {
entry:
  %call = tail call noalias noundef nonnull dereferenceable(16) ptr @_Znwm(i64 noundef 16) #25
  invoke void @_ZN7testing4TestC2Ev(ptr noundef nonnull align 8 dereferenceable(16) %call)
          to label %invoke.cont unwind label %lpad

invoke.cont:                                      ; preds = %entry
  store ptr getelementptr inbounds ({ [8 x ptr] }, ptr @_ZTVN9benchmark12_GLOBAL__N_124BoolFromEnv_Default_TestE, i64 0, inrange i32 0, i64 2), ptr %call, align 8, !tbaa !5
  ret ptr %call

lpad:                                             ; preds = %entry
  %0 = landingpad { ptr, i32 }
          cleanup
  tail call void @_ZdlPv(ptr noundef nonnull %call) #24
  resume { ptr, i32 } %0
}

declare void @_ZN7testing4TestC2Ev(ptr noundef nonnull align 8 dereferenceable(16)) unnamed_addr #0

; Function Attrs: nounwind uwtable
define internal void @_ZN9benchmark12_GLOBAL__N_124BoolFromEnv_Default_TestD0Ev(ptr noundef nonnull align 8 dereferenceable(16) %this) unnamed_addr #7 align 2 {
entry:
  tail call void @_ZN7testing4TestD2Ev(ptr noundef nonnull align 8 dereferenceable(16) %this) #23
  tail call void @_ZdlPv(ptr noundef nonnull %this) #24
  ret void
}

declare void @_ZN7testing4Test5SetUpEv(ptr noundef nonnull align 8 dereferenceable(16)) unnamed_addr #0

declare void @_ZN7testing4Test8TearDownEv(ptr noundef nonnull align 8 dereferenceable(16)) unnamed_addr #0

; Function Attrs: uwtable
define internal void @_ZN9benchmark12_GLOBAL__N_124BoolFromEnv_Default_Test8TestBodyEv(ptr nocapture nonnull readnone align 8 %this) unnamed_addr #6 align 2 personality ptr @__gxx_personality_v0 {
entry:
  %gtest_ar = alloca %"class.testing::AssertionResult", align 8
  %ref.tmp = alloca i32, align 4
  %ref.tmp2 = alloca i32, align 4
  %ref.tmp4 = alloca %"class.testing::Message", align 8
  %ref.tmp7 = alloca %"class.testing::internal::AssertHelper", align 8
  %gtest_ar19 = alloca %"class.testing::AssertionResult", align 8
  %ref.tmp20 = alloca i8, align 1
  %ref.tmp22 = alloca i8, align 1
  %ref.tmp28 = alloca %"class.testing::Message", align 8
  %ref.tmp31 = alloca %"class.testing::internal::AssertHelper", align 8
  call void @llvm.lifetime.start.p0(i64 16, ptr nonnull %gtest_ar) #23
  call void @llvm.lifetime.start.p0(i64 4, ptr nonnull %ref.tmp) #23
  %call = tail call i32 @unsetenv(ptr noundef nonnull @.str.35) #23
  store i32 %call, ptr %ref.tmp, align 4, !tbaa !8
  call void @llvm.lifetime.start.p0(i64 4, ptr nonnull %ref.tmp2) #23
  store i32 0, ptr %ref.tmp2, align 4, !tbaa !8
  %cmp.i.i = icmp eq i32 %call, 0
  br i1 %cmp.i.i, label %if.then.i.i, label %if.end.i.i

if.then.i.i:                                      ; preds = %entry
  call void @_ZN7testing16AssertionSuccessEv(ptr nonnull sret(%"class.testing::AssertionResult") align 8 %gtest_ar)
  br label %_ZN7testing8internal8EqHelper7CompareIiiLPv0EEENS_15AssertionResultEPKcS6_RKT_RKT0_.exit

if.end.i.i:                                       ; preds = %entry
  call void @_ZN7testing8internal18CmpHelperEQFailureIiiEENS_15AssertionResultEPKcS4_RKT_RKT0_(ptr nonnull sret(%"class.testing::AssertionResult") align 8 %gtest_ar, ptr noundef nonnull @.str.33, ptr noundef nonnull @.str.34, ptr noundef nonnull align 4 dereferenceable(4) %ref.tmp, ptr noundef nonnull align 4 dereferenceable(4) %ref.tmp2)
  br label %_ZN7testing8internal8EqHelper7CompareIiiLPv0EEENS_15AssertionResultEPKcS6_RKT_RKT0_.exit

_ZN7testing8internal8EqHelper7CompareIiiLPv0EEENS_15AssertionResultEPKcS6_RKT_RKT0_.exit: ; preds = %if.then.i.i, %if.end.i.i
  call void @llvm.lifetime.end.p0(i64 4, ptr nonnull %ref.tmp2) #23
  call void @llvm.lifetime.end.p0(i64 4, ptr nonnull %ref.tmp) #23
  %0 = load i8, ptr %gtest_ar, align 8, !tbaa !11, !range !18, !noundef !19
  %tobool.i.not = icmp eq i8 %0, 0
  br i1 %tobool.i.not, label %if.else, label %cleanup

if.else:                                          ; preds = %_ZN7testing8internal8EqHelper7CompareIiiLPv0EEENS_15AssertionResultEPKcS6_RKT_RKT0_.exit
  call void @llvm.lifetime.start.p0(i64 8, ptr nonnull %ref.tmp4) #23
  invoke void @_ZN7testing7MessageC1Ev(ptr noundef nonnull align 8 dereferenceable(8) %ref.tmp4)
          to label %invoke.cont6 unwind label %lpad5

invoke.cont6:                                     ; preds = %if.else
  call void @llvm.lifetime.start.p0(i64 8, ptr nonnull %ref.tmp7) #23
  %message_.i.i = getelementptr inbounds %"class.testing::AssertionResult", ptr %gtest_ar, i64 0, i32 1
  %1 = load ptr, ptr %message_.i.i, align 8, !tbaa !20
  %cmp.not.i.i = icmp eq ptr %1, null
  br i1 %cmp.not.i.i, label %invoke.cont9, label %cond.true.i.i

cond.true.i.i:                                    ; preds = %invoke.cont6
  %bf.load.i.i.i.i.i.i = load i8, ptr %1, align 8
  %bf.clear.i.i.i.i.i.i = and i8 %bf.load.i.i.i.i.i.i, 1
  %tobool.i.not.i.i.i.i.i = icmp eq i8 %bf.clear.i.i.i.i.i.i, 0
  %__data_.i.i.i.i.i.i = getelementptr inbounds %"struct.std::__1::basic_string<char>::__long", ptr %1, i64 0, i32 2
  %2 = load ptr, ptr %__data_.i.i.i.i.i.i, align 8
  %__data_.i4.i.i.i.i.i = getelementptr inbounds %"struct.std::__1::basic_string<char>::__short", ptr %1, i64 0, i32 2
  %cond.i.i.i.i.i = select i1 %tobool.i.not.i.i.i.i.i, ptr %__data_.i4.i.i.i.i.i, ptr %2
  br label %invoke.cont9

invoke.cont9:                                     ; preds = %cond.true.i.i, %invoke.cont6
  %cond.i.i = phi ptr [ %cond.i.i.i.i.i, %cond.true.i.i ], [ @.str.40, %invoke.cont6 ]
  invoke void @_ZN7testing8internal12AssertHelperC1ENS_14TestPartResult4TypeEPKciS5_(ptr noundef nonnull align 8 dereferenceable(8) %ref.tmp7, i32 noundef 2, ptr noundef nonnull @.str.3, i32 noundef 28, ptr noundef %cond.i.i)
          to label %invoke.cont11 unwind label %lpad8

invoke.cont11:                                    ; preds = %invoke.cont9
  invoke void @_ZNK7testing8internal12AssertHelperaSERKNS_7MessageE(ptr noundef nonnull align 8 dereferenceable(8) %ref.tmp7, ptr noundef nonnull align 8 dereferenceable(8) %ref.tmp4)
          to label %invoke.cont13 unwind label %lpad12

invoke.cont13:                                    ; preds = %invoke.cont11
  call void @_ZN7testing8internal12AssertHelperD1Ev(ptr noundef nonnull align 8 dereferenceable(8) %ref.tmp7) #23
  call void @llvm.lifetime.end.p0(i64 8, ptr nonnull %ref.tmp7) #23
  %3 = load ptr, ptr %ref.tmp4, align 8, !tbaa !20
  store ptr null, ptr %ref.tmp4, align 8, !tbaa !20
  %tobool.not.i.i.i = icmp eq ptr %3, null
  br i1 %tobool.not.i.i.i, label %_ZN7testing7MessageD2Ev.exit, label %_ZNKSt3__114default_deleteINS_18basic_stringstreamIcNS_11char_traitsIcEENS_9allocatorIcEEEEEclB7v170000EPS6_.exit.i.i.i

_ZNKSt3__114default_deleteINS_18basic_stringstreamIcNS_11char_traitsIcEENS_9allocatorIcEEEEEclB7v170000EPS6_.exit.i.i.i: ; preds = %invoke.cont13
  %vtable.i.i.i.i = load ptr, ptr %3, align 8, !tbaa !5
  %vfn.i.i.i.i = getelementptr inbounds ptr, ptr %vtable.i.i.i.i, i64 1
  %4 = load ptr, ptr %vfn.i.i.i.i, align 8
  call void %4(ptr noundef nonnull align 8 dereferenceable(128) %3) #23
  br label %_ZN7testing7MessageD2Ev.exit

_ZN7testing7MessageD2Ev.exit:                     ; preds = %invoke.cont13, %_ZNKSt3__114default_deleteINS_18basic_stringstreamIcNS_11char_traitsIcEENS_9allocatorIcEEEEEclB7v170000EPS6_.exit.i.i.i
  call void @llvm.lifetime.end.p0(i64 8, ptr nonnull %ref.tmp4) #23
  br label %cleanup

lpad5:                                            ; preds = %if.else
  %5 = landingpad { ptr, i32 }
          cleanup
  br label %ehcleanup15

lpad8:                                            ; preds = %invoke.cont9
  %6 = landingpad { ptr, i32 }
          cleanup
  br label %ehcleanup

lpad12:                                           ; preds = %invoke.cont11
  %7 = landingpad { ptr, i32 }
          cleanup
  call void @_ZN7testing8internal12AssertHelperD1Ev(ptr noundef nonnull align 8 dereferenceable(8) %ref.tmp7) #23
  br label %ehcleanup

ehcleanup:                                        ; preds = %lpad12, %lpad8
  %.pn = phi { ptr, i32 } [ %7, %lpad12 ], [ %6, %lpad8 ]
  call void @llvm.lifetime.end.p0(i64 8, ptr nonnull %ref.tmp7) #23
  %8 = load ptr, ptr %ref.tmp4, align 8, !tbaa !20
  store ptr null, ptr %ref.tmp4, align 8, !tbaa !20
  %tobool.not.i.i.i52 = icmp eq ptr %8, null
  br i1 %tobool.not.i.i.i52, label %ehcleanup15, label %_ZNKSt3__114default_deleteINS_18basic_stringstreamIcNS_11char_traitsIcEENS_9allocatorIcEEEEEclB7v170000EPS6_.exit.i.i.i55

_ZNKSt3__114default_deleteINS_18basic_stringstreamIcNS_11char_traitsIcEENS_9allocatorIcEEEEEclB7v170000EPS6_.exit.i.i.i55: ; preds = %ehcleanup
  %vtable.i.i.i.i53 = load ptr, ptr %8, align 8, !tbaa !5
  %vfn.i.i.i.i54 = getelementptr inbounds ptr, ptr %vtable.i.i.i.i53, i64 1
  %9 = load ptr, ptr %vfn.i.i.i.i54, align 8
  call void %9(ptr noundef nonnull align 8 dereferenceable(128) %8) #23
  br label %ehcleanup15

ehcleanup15:                                      ; preds = %_ZNKSt3__114default_deleteINS_18basic_stringstreamIcNS_11char_traitsIcEENS_9allocatorIcEEEEEclB7v170000EPS6_.exit.i.i.i55, %ehcleanup, %lpad5
  %.pn.pn = phi { ptr, i32 } [ %5, %lpad5 ], [ %.pn, %ehcleanup ], [ %.pn, %_ZNKSt3__114default_deleteINS_18basic_stringstreamIcNS_11char_traitsIcEENS_9allocatorIcEEEEEclB7v170000EPS6_.exit.i.i.i55 ]
  call void @llvm.lifetime.end.p0(i64 8, ptr nonnull %ref.tmp4) #23
  call void @_ZN7testing15AssertionResultD2Ev(ptr noundef nonnull align 8 dereferenceable(16) %gtest_ar) #23
  call void @llvm.lifetime.end.p0(i64 16, ptr nonnull %gtest_ar) #23
  br label %eh.resume

cleanup:                                          ; preds = %_ZN7testing8internal8EqHelper7CompareIiiLPv0EEENS_15AssertionResultEPKcS6_RKT_RKT0_.exit, %_ZN7testing7MessageD2Ev.exit
  %message_.i = getelementptr inbounds %"class.testing::AssertionResult", ptr %gtest_ar, i64 0, i32 1
  %10 = load ptr, ptr %message_.i, align 8, !tbaa !20
  store ptr null, ptr %message_.i, align 8, !tbaa !20
  %tobool.not.i.i.i57 = icmp eq ptr %10, null
  br i1 %tobool.not.i.i.i57, label %_ZN7testing15AssertionResultD2Ev.exit, label %delete.notnull.i.i.i.i

delete.notnull.i.i.i.i:                           ; preds = %cleanup
  %bf.load.i.i.i.i.i.i58 = load i8, ptr %10, align 8
  %bf.clear.i.i.i.i.i.i59 = and i8 %bf.load.i.i.i.i.i.i58, 1
  %tobool.i.not.i.i.i.i.i60 = icmp eq i8 %bf.clear.i.i.i.i.i.i59, 0
  br i1 %tobool.i.not.i.i.i.i.i60, label %_ZNKSt3__114default_deleteINS_12basic_stringIcNS_11char_traitsIcEENS_9allocatorIcEEEEEclB7v170000EPS6_.exit.i.i.i, label %if.then.i.i.i.i.i

if.then.i.i.i.i.i:                                ; preds = %delete.notnull.i.i.i.i
  %__data_.i.i.i.i.i.i61 = getelementptr inbounds %"struct.std::__1::basic_string<char>::__long", ptr %10, i64 0, i32 2
  %11 = load ptr, ptr %__data_.i.i.i.i.i.i61, align 8, !tbaa !21
  call void @_ZdlPv(ptr noundef %11) #24
  br label %_ZNKSt3__114default_deleteINS_12basic_stringIcNS_11char_traitsIcEENS_9allocatorIcEEEEEclB7v170000EPS6_.exit.i.i.i

_ZNKSt3__114default_deleteINS_12basic_stringIcNS_11char_traitsIcEENS_9allocatorIcEEEEEclB7v170000EPS6_.exit.i.i.i: ; preds = %if.then.i.i.i.i.i, %delete.notnull.i.i.i.i
  call void @_ZdlPv(ptr noundef nonnull %10) #24
  br label %_ZN7testing15AssertionResultD2Ev.exit

_ZN7testing15AssertionResultD2Ev.exit:            ; preds = %cleanup, %_ZNKSt3__114default_deleteINS_12basic_stringIcNS_11char_traitsIcEENS_9allocatorIcEEEEEclB7v170000EPS6_.exit.i.i.i
  call void @llvm.lifetime.end.p0(i64 16, ptr nonnull %gtest_ar) #23
  br i1 %tobool.i.not, label %return, label %cleanup.cont

cleanup.cont:                                     ; preds = %_ZN7testing15AssertionResultD2Ev.exit
  call void @llvm.lifetime.start.p0(i64 16, ptr nonnull %gtest_ar19) #23
  call void @llvm.lifetime.start.p0(i64 1, ptr nonnull %ref.tmp20) #23
  %call21 = call noundef zeroext i1 @_ZN9benchmark11BoolFromEnvEPKcb(ptr noundef nonnull @.str.38, i1 noundef zeroext true)
  %frombool = zext i1 %call21 to i8
  store i8 %frombool, ptr %ref.tmp20, align 1, !tbaa !22
  call void @llvm.lifetime.start.p0(i64 1, ptr nonnull %ref.tmp22) #23
  store i8 1, ptr %ref.tmp22, align 1, !tbaa !22
  br i1 %call21, label %if.then.i.i63, label %if.end.i.i64

if.then.i.i63:                                    ; preds = %cleanup.cont
  call void @_ZN7testing16AssertionSuccessEv(ptr nonnull sret(%"class.testing::AssertionResult") align 8 %gtest_ar19)
  br label %_ZN7testing8internal8EqHelper7CompareIbbLPv0EEENS_15AssertionResultEPKcS6_RKT_RKT0_.exit

if.end.i.i64:                                     ; preds = %cleanup.cont
  call void @_ZN7testing8internal18CmpHelperEQFailureIbbEENS_15AssertionResultEPKcS4_RKT_RKT0_(ptr nonnull sret(%"class.testing::AssertionResult") align 8 %gtest_ar19, ptr noundef nonnull @.str.36, ptr noundef nonnull @.str.37, ptr noundef nonnull align 1 dereferenceable(1) %ref.tmp20, ptr noundef nonnull align 1 dereferenceable(1) %ref.tmp22)
  br label %_ZN7testing8internal8EqHelper7CompareIbbLPv0EEENS_15AssertionResultEPKcS6_RKT_RKT0_.exit

_ZN7testing8internal8EqHelper7CompareIbbLPv0EEENS_15AssertionResultEPKcS6_RKT_RKT0_.exit: ; preds = %if.then.i.i63, %if.end.i.i64
  call void @llvm.lifetime.end.p0(i64 1, ptr nonnull %ref.tmp22) #23
  call void @llvm.lifetime.end.p0(i64 1, ptr nonnull %ref.tmp20) #23
  %12 = load i8, ptr %gtest_ar19, align 8, !tbaa !11, !range !18, !noundef !19
  %tobool.i65.not = icmp eq i8 %12, 0
  br i1 %tobool.i65.not, label %if.else27, label %if.end42

if.else27:                                        ; preds = %_ZN7testing8internal8EqHelper7CompareIbbLPv0EEENS_15AssertionResultEPKcS6_RKT_RKT0_.exit
  call void @llvm.lifetime.start.p0(i64 8, ptr nonnull %ref.tmp28) #23
  invoke void @_ZN7testing7MessageC1Ev(ptr noundef nonnull align 8 dereferenceable(8) %ref.tmp28)
          to label %invoke.cont30 unwind label %lpad29

invoke.cont30:                                    ; preds = %if.else27
  call void @llvm.lifetime.start.p0(i64 8, ptr nonnull %ref.tmp31) #23
  %message_.i.i66 = getelementptr inbounds %"class.testing::AssertionResult", ptr %gtest_ar19, i64 0, i32 1
  %13 = load ptr, ptr %message_.i.i66, align 8, !tbaa !20
  %cmp.not.i.i67 = icmp eq ptr %13, null
  br i1 %cmp.not.i.i67, label %invoke.cont33, label %cond.true.i.i74

cond.true.i.i74:                                  ; preds = %invoke.cont30
  %bf.load.i.i.i.i.i.i68 = load i8, ptr %13, align 8
  %bf.clear.i.i.i.i.i.i69 = and i8 %bf.load.i.i.i.i.i.i68, 1
  %tobool.i.not.i.i.i.i.i70 = icmp eq i8 %bf.clear.i.i.i.i.i.i69, 0
  %__data_.i.i.i.i.i.i71 = getelementptr inbounds %"struct.std::__1::basic_string<char>::__long", ptr %13, i64 0, i32 2
  %14 = load ptr, ptr %__data_.i.i.i.i.i.i71, align 8
  %__data_.i4.i.i.i.i.i72 = getelementptr inbounds %"struct.std::__1::basic_string<char>::__short", ptr %13, i64 0, i32 2
  %cond.i.i.i.i.i73 = select i1 %tobool.i.not.i.i.i.i.i70, ptr %__data_.i4.i.i.i.i.i72, ptr %14
  br label %invoke.cont33

invoke.cont33:                                    ; preds = %cond.true.i.i74, %invoke.cont30
  %cond.i.i75 = phi ptr [ %cond.i.i.i.i.i73, %cond.true.i.i74 ], [ @.str.40, %invoke.cont30 ]
  invoke void @_ZN7testing8internal12AssertHelperC1ENS_14TestPartResult4TypeEPKciS5_(ptr noundef nonnull align 8 dereferenceable(8) %ref.tmp31, i32 noundef 1, ptr noundef nonnull @.str.3, i32 noundef 29, ptr noundef %cond.i.i75)
          to label %invoke.cont35 unwind label %lpad32

invoke.cont35:                                    ; preds = %invoke.cont33
  invoke void @_ZNK7testing8internal12AssertHelperaSERKNS_7MessageE(ptr noundef nonnull align 8 dereferenceable(8) %ref.tmp31, ptr noundef nonnull align 8 dereferenceable(8) %ref.tmp28)
          to label %invoke.cont37 unwind label %lpad36

invoke.cont37:                                    ; preds = %invoke.cont35
  call void @_ZN7testing8internal12AssertHelperD1Ev(ptr noundef nonnull align 8 dereferenceable(8) %ref.tmp31) #23
  call void @llvm.lifetime.end.p0(i64 8, ptr nonnull %ref.tmp31) #23
  %15 = load ptr, ptr %ref.tmp28, align 8, !tbaa !20
  store ptr null, ptr %ref.tmp28, align 8, !tbaa !20
  %tobool.not.i.i.i77 = icmp eq ptr %15, null
  br i1 %tobool.not.i.i.i77, label %_ZN7testing7MessageD2Ev.exit81, label %_ZNKSt3__114default_deleteINS_18basic_stringstreamIcNS_11char_traitsIcEENS_9allocatorIcEEEEEclB7v170000EPS6_.exit.i.i.i80

_ZNKSt3__114default_deleteINS_18basic_stringstreamIcNS_11char_traitsIcEENS_9allocatorIcEEEEEclB7v170000EPS6_.exit.i.i.i80: ; preds = %invoke.cont37
  %vtable.i.i.i.i78 = load ptr, ptr %15, align 8, !tbaa !5
  %vfn.i.i.i.i79 = getelementptr inbounds ptr, ptr %vtable.i.i.i.i78, i64 1
  %16 = load ptr, ptr %vfn.i.i.i.i79, align 8
  call void %16(ptr noundef nonnull align 8 dereferenceable(128) %15) #23
  br label %_ZN7testing7MessageD2Ev.exit81

_ZN7testing7MessageD2Ev.exit81:                   ; preds = %invoke.cont37, %_ZNKSt3__114default_deleteINS_18basic_stringstreamIcNS_11char_traitsIcEENS_9allocatorIcEEEEEclB7v170000EPS6_.exit.i.i.i80
  call void @llvm.lifetime.end.p0(i64 8, ptr nonnull %ref.tmp28) #23
  br label %if.end42

lpad29:                                           ; preds = %if.else27
  %17 = landingpad { ptr, i32 }
          cleanup
  br label %ehcleanup41

lpad32:                                           ; preds = %invoke.cont33
  %18 = landingpad { ptr, i32 }
          cleanup
  br label %ehcleanup39

lpad36:                                           ; preds = %invoke.cont35
  %19 = landingpad { ptr, i32 }
          cleanup
  call void @_ZN7testing8internal12AssertHelperD1Ev(ptr noundef nonnull align 8 dereferenceable(8) %ref.tmp31) #23
  br label %ehcleanup39

ehcleanup39:                                      ; preds = %lpad36, %lpad32
  %.pn48 = phi { ptr, i32 } [ %19, %lpad36 ], [ %18, %lpad32 ]
  call void @llvm.lifetime.end.p0(i64 8, ptr nonnull %ref.tmp31) #23
  %20 = load ptr, ptr %ref.tmp28, align 8, !tbaa !20
  store ptr null, ptr %ref.tmp28, align 8, !tbaa !20
  %tobool.not.i.i.i82 = icmp eq ptr %20, null
  br i1 %tobool.not.i.i.i82, label %ehcleanup41, label %_ZNKSt3__114default_deleteINS_18basic_stringstreamIcNS_11char_traitsIcEENS_9allocatorIcEEEEEclB7v170000EPS6_.exit.i.i.i85

_ZNKSt3__114default_deleteINS_18basic_stringstreamIcNS_11char_traitsIcEENS_9allocatorIcEEEEEclB7v170000EPS6_.exit.i.i.i85: ; preds = %ehcleanup39
  %vtable.i.i.i.i83 = load ptr, ptr %20, align 8, !tbaa !5
  %vfn.i.i.i.i84 = getelementptr inbounds ptr, ptr %vtable.i.i.i.i83, i64 1
  %21 = load ptr, ptr %vfn.i.i.i.i84, align 8
  call void %21(ptr noundef nonnull align 8 dereferenceable(128) %20) #23
  br label %ehcleanup41

ehcleanup41:                                      ; preds = %_ZNKSt3__114default_deleteINS_18basic_stringstreamIcNS_11char_traitsIcEENS_9allocatorIcEEEEEclB7v170000EPS6_.exit.i.i.i85, %ehcleanup39, %lpad29
  %.pn48.pn = phi { ptr, i32 } [ %17, %lpad29 ], [ %.pn48, %ehcleanup39 ], [ %.pn48, %_ZNKSt3__114default_deleteINS_18basic_stringstreamIcNS_11char_traitsIcEENS_9allocatorIcEEEEEclB7v170000EPS6_.exit.i.i.i85 ]
  call void @llvm.lifetime.end.p0(i64 8, ptr nonnull %ref.tmp28) #23
  call void @_ZN7testing15AssertionResultD2Ev(ptr noundef nonnull align 8 dereferenceable(16) %gtest_ar19) #23
  call void @llvm.lifetime.end.p0(i64 16, ptr nonnull %gtest_ar19) #23
  br label %eh.resume

if.end42:                                         ; preds = %_ZN7testing8internal8EqHelper7CompareIbbLPv0EEENS_15AssertionResultEPKcS6_RKT_RKT0_.exit, %_ZN7testing7MessageD2Ev.exit81
  %message_.i87 = getelementptr inbounds %"class.testing::AssertionResult", ptr %gtest_ar19, i64 0, i32 1
  %22 = load ptr, ptr %message_.i87, align 8, !tbaa !20
  store ptr null, ptr %message_.i87, align 8, !tbaa !20
  %tobool.not.i.i.i88 = icmp eq ptr %22, null
  br i1 %tobool.not.i.i.i88, label %_ZN7testing15AssertionResultD2Ev.exit96, label %delete.notnull.i.i.i.i92

delete.notnull.i.i.i.i92:                         ; preds = %if.end42
  %bf.load.i.i.i.i.i.i89 = load i8, ptr %22, align 8
  %bf.clear.i.i.i.i.i.i90 = and i8 %bf.load.i.i.i.i.i.i89, 1
  %tobool.i.not.i.i.i.i.i91 = icmp eq i8 %bf.clear.i.i.i.i.i.i90, 0
  br i1 %tobool.i.not.i.i.i.i.i91, label %_ZNKSt3__114default_deleteINS_12basic_stringIcNS_11char_traitsIcEENS_9allocatorIcEEEEEclB7v170000EPS6_.exit.i.i.i95, label %if.then.i.i.i.i.i94

if.then.i.i.i.i.i94:                              ; preds = %delete.notnull.i.i.i.i92
  %__data_.i.i.i.i.i.i93 = getelementptr inbounds %"struct.std::__1::basic_string<char>::__long", ptr %22, i64 0, i32 2
  %23 = load ptr, ptr %__data_.i.i.i.i.i.i93, align 8, !tbaa !21
  call void @_ZdlPv(ptr noundef %23) #24
  br label %_ZNKSt3__114default_deleteINS_12basic_stringIcNS_11char_traitsIcEENS_9allocatorIcEEEEEclB7v170000EPS6_.exit.i.i.i95

_ZNKSt3__114default_deleteINS_12basic_stringIcNS_11char_traitsIcEENS_9allocatorIcEEEEEclB7v170000EPS6_.exit.i.i.i95: ; preds = %if.then.i.i.i.i.i94, %delete.notnull.i.i.i.i92
  call void @_ZdlPv(ptr noundef nonnull %22) #24
  br label %_ZN7testing15AssertionResultD2Ev.exit96

_ZN7testing15AssertionResultD2Ev.exit96:          ; preds = %if.end42, %_ZNKSt3__114default_deleteINS_12basic_stringIcNS_11char_traitsIcEENS_9allocatorIcEEEEEclB7v170000EPS6_.exit.i.i.i95
  call void @llvm.lifetime.end.p0(i64 16, ptr nonnull %gtest_ar19) #23
  br label %return

return:                                           ; preds = %_ZN7testing15AssertionResultD2Ev.exit, %_ZN7testing15AssertionResultD2Ev.exit96
  ret void

eh.resume:                                        ; preds = %ehcleanup41, %ehcleanup15
  %.pn48.pn.pn = phi { ptr, i32 } [ %.pn48.pn, %ehcleanup41 ], [ %.pn.pn, %ehcleanup15 ]
  resume { ptr, i32 } %.pn48.pn.pn
}

; Function Attrs: mustprogress nounwind uwtable
define linkonce_odr hidden noundef ptr @_ZN7testing4Test5SetupEv(ptr noundef nonnull align 8 dereferenceable(16) %this) unnamed_addr #8 comdat align 2 {
entry:
  ret ptr null
}

; Function Attrs: mustprogress uwtable
define linkonce_odr hidden void @_ZN7testing8internal8EqHelper7CompareIiiLPv0EEENS_15AssertionResultEPKcS6_RKT_RKT0_(ptr noalias sret(%"class.testing::AssertionResult") align 8 %agg.result, ptr noundef %lhs_expression, ptr noundef %rhs_expression, ptr noundef nonnull align 4 dereferenceable(4) %lhs, ptr noundef nonnull align 4 dereferenceable(4) %rhs) local_unnamed_addr #2 comdat align 2 {
entry:
  %0 = load i32, ptr %lhs, align 4, !tbaa !8, !noalias !23
  %1 = load i32, ptr %rhs, align 4, !tbaa !8, !noalias !23
  %cmp.i = icmp eq i32 %0, %1
  br i1 %cmp.i, label %if.then.i, label %if.end.i

if.then.i:                                        ; preds = %entry
  tail call void @_ZN7testing16AssertionSuccessEv(ptr sret(%"class.testing::AssertionResult") align 8 %agg.result)
  br label %_ZN7testing8internal11CmpHelperEQIiiEENS_15AssertionResultEPKcS4_RKT_RKT0_.exit

if.end.i:                                         ; preds = %entry
  tail call void @_ZN7testing8internal18CmpHelperEQFailureIiiEENS_15AssertionResultEPKcS4_RKT_RKT0_(ptr sret(%"class.testing::AssertionResult") align 8 %agg.result, ptr noundef %lhs_expression, ptr noundef %rhs_expression, ptr noundef nonnull align 4 dereferenceable(4) %lhs, ptr noundef nonnull align 4 dereferenceable(4) %rhs)
  br label %_ZN7testing8internal11CmpHelperEQIiiEENS_15AssertionResultEPKcS4_RKT_RKT0_.exit

_ZN7testing8internal11CmpHelperEQIiiEENS_15AssertionResultEPKcS4_RKT_RKT0_.exit: ; preds = %if.then.i, %if.end.i
  ret void
}

; Function Attrs: nofree nounwind
declare noundef i32 @unsetenv(ptr nocapture noundef readonly) local_unnamed_addr #9

declare void @_ZN7testing7MessageC1Ev(ptr noundef nonnull align 8 dereferenceable(8)) unnamed_addr #0

declare void @_ZN7testing8internal12AssertHelperC1ENS_14TestPartResult4TypeEPKciS5_(ptr noundef nonnull align 8 dereferenceable(8), i32 noundef, ptr noundef, i32 noundef, ptr noundef) unnamed_addr #0

declare void @_ZNK7testing8internal12AssertHelperaSERKNS_7MessageE(ptr noundef nonnull align 8 dereferenceable(8), ptr noundef nonnull align 8 dereferenceable(8)) local_unnamed_addr #0

; Function Attrs: nounwind
declare void @_ZN7testing8internal12AssertHelperD1Ev(ptr noundef nonnull align 8 dereferenceable(8)) unnamed_addr #10

; Function Attrs: inlinehint nounwind uwtable
define linkonce_odr hidden void @_ZN7testing15AssertionResultD2Ev(ptr noundef nonnull align 8 dereferenceable(16) %this) unnamed_addr #5 comdat align 2 personality ptr @__gxx_personality_v0 {
entry:
  %message_ = getelementptr inbounds %"class.testing::AssertionResult", ptr %this, i64 0, i32 1
  %0 = load ptr, ptr %message_, align 8, !tbaa !20
  store ptr null, ptr %message_, align 8, !tbaa !20
  %tobool.not.i.i = icmp eq ptr %0, null
  br i1 %tobool.not.i.i, label %_ZNSt3__110unique_ptrINS_12basic_stringIcNS_11char_traitsIcEENS_9allocatorIcEEEENS_14default_deleteIS6_EEED2B7v170000Ev.exit, label %delete.notnull.i.i.i

delete.notnull.i.i.i:                             ; preds = %entry
  %bf.load.i.i.i.i.i = load i8, ptr %0, align 8
  %bf.clear.i.i.i.i.i = and i8 %bf.load.i.i.i.i.i, 1
  %tobool.i.not.i.i.i.i = icmp eq i8 %bf.clear.i.i.i.i.i, 0
  br i1 %tobool.i.not.i.i.i.i, label %_ZNKSt3__114default_deleteINS_12basic_stringIcNS_11char_traitsIcEENS_9allocatorIcEEEEEclB7v170000EPS6_.exit.i.i, label %if.then.i.i.i.i

if.then.i.i.i.i:                                  ; preds = %delete.notnull.i.i.i
  %__data_.i.i.i.i.i = getelementptr inbounds %"struct.std::__1::basic_string<char>::__long", ptr %0, i64 0, i32 2
  %1 = load ptr, ptr %__data_.i.i.i.i.i, align 8, !tbaa !21
  tail call void @_ZdlPv(ptr noundef %1) #24
  br label %_ZNKSt3__114default_deleteINS_12basic_stringIcNS_11char_traitsIcEENS_9allocatorIcEEEEEclB7v170000EPS6_.exit.i.i

_ZNKSt3__114default_deleteINS_12basic_stringIcNS_11char_traitsIcEENS_9allocatorIcEEEEEclB7v170000EPS6_.exit.i.i: ; preds = %if.then.i.i.i.i, %delete.notnull.i.i.i
  tail call void @_ZdlPv(ptr noundef nonnull %0) #24
  br label %_ZNSt3__110unique_ptrINS_12basic_stringIcNS_11char_traitsIcEENS_9allocatorIcEEEENS_14default_deleteIS6_EEED2B7v170000Ev.exit

_ZNSt3__110unique_ptrINS_12basic_stringIcNS_11char_traitsIcEENS_9allocatorIcEEEENS_14default_deleteIS6_EEED2B7v170000Ev.exit: ; preds = %entry, %_ZNKSt3__114default_deleteINS_12basic_stringIcNS_11char_traitsIcEENS_9allocatorIcEEEEEclB7v170000EPS6_.exit.i.i
  ret void
}

; Function Attrs: mustprogress uwtable
define linkonce_odr hidden void @_ZN7testing8internal8EqHelper7CompareIbbLPv0EEENS_15AssertionResultEPKcS6_RKT_RKT0_(ptr noalias sret(%"class.testing::AssertionResult") align 8 %agg.result, ptr noundef %lhs_expression, ptr noundef %rhs_expression, ptr noundef nonnull align 1 dereferenceable(1) %lhs, ptr noundef nonnull align 1 dereferenceable(1) %rhs) local_unnamed_addr #2 comdat align 2 {
entry:
  %0 = load i8, ptr %lhs, align 1, !tbaa !22, !range !18, !noalias !26, !noundef !19
  %1 = load i8, ptr %rhs, align 1, !tbaa !22, !range !18, !noalias !26, !noundef !19
  %cmp.i = icmp eq i8 %0, %1
  br i1 %cmp.i, label %if.then.i, label %if.end.i

if.then.i:                                        ; preds = %entry
  tail call void @_ZN7testing16AssertionSuccessEv(ptr sret(%"class.testing::AssertionResult") align 8 %agg.result)
  br label %_ZN7testing8internal11CmpHelperEQIbbEENS_15AssertionResultEPKcS4_RKT_RKT0_.exit

if.end.i:                                         ; preds = %entry
  tail call void @_ZN7testing8internal18CmpHelperEQFailureIbbEENS_15AssertionResultEPKcS4_RKT_RKT0_(ptr sret(%"class.testing::AssertionResult") align 8 %agg.result, ptr noundef %lhs_expression, ptr noundef %rhs_expression, ptr noundef nonnull align 1 dereferenceable(1) %lhs, ptr noundef nonnull align 1 dereferenceable(1) %rhs)
  br label %_ZN7testing8internal11CmpHelperEQIbbEENS_15AssertionResultEPKcS4_RKT_RKT0_.exit

_ZN7testing8internal11CmpHelperEQIbbEENS_15AssertionResultEPKcS4_RKT_RKT0_.exit: ; preds = %if.then.i, %if.end.i
  ret void
}

declare noundef zeroext i1 @_ZN9benchmark11BoolFromEnvEPKcb(ptr noundef, i1 noundef zeroext) local_unnamed_addr #0

declare void @_ZN7testing16AssertionSuccessEv(ptr sret(%"class.testing::AssertionResult") align 8) local_unnamed_addr #0

; Function Attrs: uwtable
define linkonce_odr hidden void @_ZN7testing8internal18CmpHelperEQFailureIiiEENS_15AssertionResultEPKcS4_RKT_RKT0_(ptr noalias sret(%"class.testing::AssertionResult") align 8 %agg.result, ptr noundef %lhs_expression, ptr noundef %rhs_expression, ptr noundef nonnull align 4 dereferenceable(4) %lhs, ptr noundef nonnull align 4 dereferenceable(4) %rhs) local_unnamed_addr #6 comdat personality ptr @__gxx_personality_v0 {
entry:
  %ref.tmp = alloca %"class.std::__1::basic_string", align 8
  %ref.tmp1 = alloca %"class.std::__1::basic_string", align 8
  call void @llvm.lifetime.start.p0(i64 24, ptr nonnull %ref.tmp) #23
  call void @_ZN7testing13PrintToStringIiEENSt3__112basic_stringIcNS1_11char_traitsIcEENS1_9allocatorIcEEEERKT_(ptr nonnull sret(%"class.std::__1::basic_string") align 8 %ref.tmp, ptr noundef nonnull align 4 dereferenceable(4) %lhs)
  call void @llvm.lifetime.start.p0(i64 24, ptr nonnull %ref.tmp1) #23
  invoke void @_ZN7testing13PrintToStringIiEENSt3__112basic_stringIcNS1_11char_traitsIcEENS1_9allocatorIcEEEERKT_(ptr nonnull sret(%"class.std::__1::basic_string") align 8 %ref.tmp1, ptr noundef nonnull align 4 dereferenceable(4) %rhs)
          to label %invoke.cont unwind label %lpad

invoke.cont:                                      ; preds = %entry
  invoke void @_ZN7testing8internal9EqFailureEPKcS2_RKNSt3__112basic_stringIcNS3_11char_traitsIcEENS3_9allocatorIcEEEESB_b(ptr sret(%"class.testing::AssertionResult") align 8 %agg.result, ptr noundef %lhs_expression, ptr noundef %rhs_expression, ptr noundef nonnull align 8 dereferenceable(24) %ref.tmp, ptr noundef nonnull align 8 dereferenceable(24) %ref.tmp1, i1 noundef zeroext false)
          to label %invoke.cont3 unwind label %lpad2

invoke.cont3:                                     ; preds = %invoke.cont
  %bf.load.i.i = load i8, ptr %ref.tmp1, align 8
  %bf.clear.i.i = and i8 %bf.load.i.i, 1
  %tobool.i.not.i = icmp eq i8 %bf.clear.i.i, 0
  br i1 %tobool.i.not.i, label %_ZNSt3__112basic_stringIcNS_11char_traitsIcEENS_9allocatorIcEEED2Ev.exit, label %if.then.i

if.then.i:                                        ; preds = %invoke.cont3
  %__data_.i.i = getelementptr inbounds %"struct.std::__1::basic_string<char>::__long", ptr %ref.tmp1, i64 0, i32 2
  %0 = load ptr, ptr %__data_.i.i, align 8, !tbaa !21
  call void @_ZdlPv(ptr noundef %0) #24
  br label %_ZNSt3__112basic_stringIcNS_11char_traitsIcEENS_9allocatorIcEEED2Ev.exit

_ZNSt3__112basic_stringIcNS_11char_traitsIcEENS_9allocatorIcEEED2Ev.exit: ; preds = %invoke.cont3, %if.then.i
  call void @llvm.lifetime.end.p0(i64 24, ptr nonnull %ref.tmp1) #23
  %bf.load.i.i10 = load i8, ptr %ref.tmp, align 8
  %bf.clear.i.i11 = and i8 %bf.load.i.i10, 1
  %tobool.i.not.i12 = icmp eq i8 %bf.clear.i.i11, 0
  br i1 %tobool.i.not.i12, label %_ZNSt3__112basic_stringIcNS_11char_traitsIcEENS_9allocatorIcEEED2Ev.exit15, label %if.then.i14

if.then.i14:                                      ; preds = %_ZNSt3__112basic_stringIcNS_11char_traitsIcEENS_9allocatorIcEEED2Ev.exit
  %__data_.i.i13 = getelementptr inbounds %"struct.std::__1::basic_string<char>::__long", ptr %ref.tmp, i64 0, i32 2
  %1 = load ptr, ptr %__data_.i.i13, align 8, !tbaa !21
  call void @_ZdlPv(ptr noundef %1) #24
  br label %_ZNSt3__112basic_stringIcNS_11char_traitsIcEENS_9allocatorIcEEED2Ev.exit15

_ZNSt3__112basic_stringIcNS_11char_traitsIcEENS_9allocatorIcEEED2Ev.exit15: ; preds = %_ZNSt3__112basic_stringIcNS_11char_traitsIcEENS_9allocatorIcEEED2Ev.exit, %if.then.i14
  call void @llvm.lifetime.end.p0(i64 24, ptr nonnull %ref.tmp) #23
  ret void

lpad:                                             ; preds = %entry
  %2 = landingpad { ptr, i32 }
          cleanup
  br label %ehcleanup

lpad2:                                            ; preds = %invoke.cont
  %3 = landingpad { ptr, i32 }
          cleanup
  %bf.load.i.i16 = load i8, ptr %ref.tmp1, align 8
  %bf.clear.i.i17 = and i8 %bf.load.i.i16, 1
  %tobool.i.not.i18 = icmp eq i8 %bf.clear.i.i17, 0
  br i1 %tobool.i.not.i18, label %ehcleanup, label %if.then.i20

if.then.i20:                                      ; preds = %lpad2
  %__data_.i.i19 = getelementptr inbounds %"struct.std::__1::basic_string<char>::__long", ptr %ref.tmp1, i64 0, i32 2
  %4 = load ptr, ptr %__data_.i.i19, align 8, !tbaa !21
  call void @_ZdlPv(ptr noundef %4) #24
  br label %ehcleanup

ehcleanup:                                        ; preds = %if.then.i20, %lpad2, %lpad
  %.pn = phi { ptr, i32 } [ %2, %lpad ], [ %3, %lpad2 ], [ %3, %if.then.i20 ]
  call void @llvm.lifetime.end.p0(i64 24, ptr nonnull %ref.tmp1) #23
  %bf.load.i.i22 = load i8, ptr %ref.tmp, align 8
  %bf.clear.i.i23 = and i8 %bf.load.i.i22, 1
  %tobool.i.not.i24 = icmp eq i8 %bf.clear.i.i23, 0
  br i1 %tobool.i.not.i24, label %_ZNSt3__112basic_stringIcNS_11char_traitsIcEENS_9allocatorIcEEED2Ev.exit27, label %if.then.i26

if.then.i26:                                      ; preds = %ehcleanup
  %__data_.i.i25 = getelementptr inbounds %"struct.std::__1::basic_string<char>::__long", ptr %ref.tmp, i64 0, i32 2
  %5 = load ptr, ptr %__data_.i.i25, align 8, !tbaa !21
  call void @_ZdlPv(ptr noundef %5) #24
  br label %_ZNSt3__112basic_stringIcNS_11char_traitsIcEENS_9allocatorIcEEED2Ev.exit27

_ZNSt3__112basic_stringIcNS_11char_traitsIcEENS_9allocatorIcEEED2Ev.exit27: ; preds = %ehcleanup, %if.then.i26
  call void @llvm.lifetime.end.p0(i64 24, ptr nonnull %ref.tmp) #23
  resume { ptr, i32 } %.pn
}

declare void @_ZN7testing8internal9EqFailureEPKcS2_RKNSt3__112basic_stringIcNS3_11char_traitsIcEENS3_9allocatorIcEEEESB_b(ptr sret(%"class.testing::AssertionResult") align 8, ptr noundef, ptr noundef, ptr noundef nonnull align 8 dereferenceable(24), ptr noundef nonnull align 8 dereferenceable(24), i1 noundef zeroext) local_unnamed_addr #0

; Function Attrs: uwtable
define linkonce_odr hidden void @_ZN7testing13PrintToStringIiEENSt3__112basic_stringIcNS1_11char_traitsIcEENS1_9allocatorIcEEEERKT_(ptr noalias sret(%"class.std::__1::basic_string") align 8 %agg.result, ptr noundef nonnull align 4 dereferenceable(4) %value) local_unnamed_addr #6 comdat personality ptr @__gxx_personality_v0 {
entry:
  %ss = alloca %"class.std::__1::basic_stringstream", align 8
  call void @llvm.lifetime.start.p0(i64 280, ptr nonnull %ss) #23
  %0 = getelementptr inbounds i8, ptr %ss, i64 128
  %add.ptr2.i = getelementptr inbounds i8, ptr %ss, i64 16
  store ptr getelementptr inbounds ({ [5 x ptr], [5 x ptr], [5 x ptr] }, ptr @_ZTVNSt3__118basic_stringstreamIcNS_11char_traitsIcEENS_9allocatorIcEEEE, i64 0, inrange i32 1, i64 3), ptr %add.ptr2.i, align 8, !tbaa !5
  %__sb_.i = getelementptr inbounds %"class.std::__1::basic_stringstream", ptr %ss, i64 0, i32 1
  store ptr getelementptr inbounds ({ [5 x ptr], [5 x ptr] }, ptr @_ZTCNSt3__118basic_stringstreamIcNS_11char_traitsIcEENS_9allocatorIcEEEE0_NS_13basic_istreamIcS2_EE, i64 0, inrange i32 0, i64 3), ptr %ss, align 8, !tbaa !5
  store ptr getelementptr inbounds ({ [5 x ptr], [5 x ptr] }, ptr @_ZTCNSt3__118basic_stringstreamIcNS_11char_traitsIcEENS_9allocatorIcEEEE0_NS_13basic_istreamIcS2_EE, i64 0, inrange i32 1, i64 3), ptr %0, align 8, !tbaa !5
  %__gc_.i.i.i = getelementptr inbounds %"class.std::__1::basic_istream", ptr %ss, i64 0, i32 1
  store i64 0, ptr %__gc_.i.i.i, align 8, !tbaa !29
  invoke void @_ZNSt3__18ios_base4initEPv(ptr noundef nonnull align 8 dereferenceable(136) %0, ptr noundef nonnull %__sb_.i)
          to label %invoke.cont.i unwind label %lpad.i

invoke.cont.i:                                    ; preds = %entry
  %__tie_.i.i.i.i = getelementptr inbounds i8, ptr %ss, i64 264
  store ptr null, ptr %__tie_.i.i.i.i, align 8, !tbaa !32
  %__fill_.i.i.i.i = getelementptr inbounds i8, ptr %ss, i64 272
  store i32 -1, ptr %__fill_.i.i.i.i, align 8, !tbaa !35
  store ptr getelementptr inbounds ({ [5 x ptr], [5 x ptr], [5 x ptr] }, ptr @_ZTVNSt3__118basic_stringstreamIcNS_11char_traitsIcEENS_9allocatorIcEEEE, i64 0, inrange i32 0, i64 3), ptr %ss, align 8, !tbaa !5
  store ptr getelementptr inbounds ({ [5 x ptr], [5 x ptr], [5 x ptr] }, ptr @_ZTVNSt3__118basic_stringstreamIcNS_11char_traitsIcEENS_9allocatorIcEEEE, i64 0, inrange i32 2, i64 3), ptr %0, align 8, !tbaa !5
  store ptr getelementptr inbounds ({ [5 x ptr], [5 x ptr], [5 x ptr] }, ptr @_ZTVNSt3__118basic_stringstreamIcNS_11char_traitsIcEENS_9allocatorIcEEEE, i64 0, inrange i32 1, i64 3), ptr %add.ptr2.i, align 8, !tbaa !5
  invoke void @_ZNSt3__115basic_streambufIcNS_11char_traitsIcEEEC2Ev(ptr noundef nonnull align 8 dereferenceable(64) %__sb_.i)
          to label %_ZNSt3__118basic_stringstreamIcNS_11char_traitsIcEENS_9allocatorIcEEEC1B7v170000Ev.exit unwind label %lpad6.i

lpad.i:                                           ; preds = %entry
  %1 = landingpad { ptr, i32 }
          cleanup
  br label %ehcleanup.i

lpad6.i:                                          ; preds = %invoke.cont.i
  %2 = landingpad { ptr, i32 }
          cleanup
  call void @_ZNSt3__114basic_iostreamIcNS_11char_traitsIcEEED2Ev(ptr noundef nonnull align 8 dereferenceable(24) %ss, ptr noundef nonnull getelementptr inbounds ([10 x ptr], ptr @_ZTTNSt3__118basic_stringstreamIcNS_11char_traitsIcEENS_9allocatorIcEEEE, i64 0, i64 1)) #23
  br label %ehcleanup.i

common.resume:                                    ; preds = %lpad, %ehcleanup.i
  %common.resume.op = phi { ptr, i32 } [ %.pn.i, %ehcleanup.i ], [ %5, %lpad ]
  resume { ptr, i32 } %common.resume.op

ehcleanup.i:                                      ; preds = %lpad6.i, %lpad.i
  %.pn.i = phi { ptr, i32 } [ %2, %lpad6.i ], [ %1, %lpad.i ]
  call void @_ZNSt3__19basic_iosIcNS_11char_traitsIcEEED2Ev(ptr noundef nonnull align 8 dereferenceable(148) %0) #23
  br label %common.resume

_ZNSt3__118basic_stringstreamIcNS_11char_traitsIcEENS_9allocatorIcEEEC1B7v170000Ev.exit: ; preds = %invoke.cont.i
  store ptr getelementptr inbounds ({ [16 x ptr] }, ptr @_ZTVNSt3__115basic_stringbufIcNS_11char_traitsIcEENS_9allocatorIcEEEE, i64 0, inrange i32 0, i64 2), ptr %__sb_.i, align 8, !tbaa !5
  %__str_.i.i = getelementptr inbounds %"class.std::__1::basic_stringstream", ptr %ss, i64 0, i32 1, i32 1
  %__mode_.i.i = getelementptr inbounds %"class.std::__1::basic_stringstream", ptr %ss, i64 0, i32 1, i32 3
  call void @llvm.memset.p0.i64(ptr noundef nonnull align 8 dereferenceable(32) %__str_.i.i, i8 0, i64 32, i1 false)
  store i32 24, ptr %__mode_.i.i, align 8, !tbaa !36
  %3 = load i32, ptr %value, align 4, !tbaa !8
  %call.i.i.i.i.i.i3 = invoke noundef nonnull align 8 dereferenceable(8) ptr @_ZNSt3__113basic_ostreamIcNS_11char_traitsIcEEElsEi(ptr noundef nonnull align 8 dereferenceable(8) %add.ptr2.i, i32 noundef %3)
          to label %invoke.cont unwind label %lpad

invoke.cont:                                      ; preds = %_ZNSt3__118basic_stringstreamIcNS_11char_traitsIcEENS_9allocatorIcEEEC1B7v170000Ev.exit
  invoke void @_ZNKSt3__115basic_stringbufIcNS_11char_traitsIcEENS_9allocatorIcEEE3strEv(ptr sret(%"class.std::__1::basic_string") align 8 %agg.result, ptr noundef nonnull align 8 dereferenceable(100) %__sb_.i)
          to label %invoke.cont1 unwind label %lpad

invoke.cont1:                                     ; preds = %invoke.cont
  store ptr getelementptr inbounds ({ [5 x ptr], [5 x ptr], [5 x ptr] }, ptr @_ZTVNSt3__118basic_stringstreamIcNS_11char_traitsIcEENS_9allocatorIcEEEE, i64 0, inrange i32 0, i64 3), ptr %ss, align 8, !tbaa !5
  store ptr getelementptr inbounds ({ [5 x ptr], [5 x ptr], [5 x ptr] }, ptr @_ZTVNSt3__118basic_stringstreamIcNS_11char_traitsIcEENS_9allocatorIcEEEE, i64 0, inrange i32 2, i64 3), ptr %0, align 8, !tbaa !5
  store ptr getelementptr inbounds ({ [5 x ptr], [5 x ptr], [5 x ptr] }, ptr @_ZTVNSt3__118basic_stringstreamIcNS_11char_traitsIcEENS_9allocatorIcEEEE, i64 0, inrange i32 1, i64 3), ptr %add.ptr2.i, align 8, !tbaa !5
  store ptr getelementptr inbounds ({ [16 x ptr] }, ptr @_ZTVNSt3__115basic_stringbufIcNS_11char_traitsIcEENS_9allocatorIcEEEE, i64 0, inrange i32 0, i64 2), ptr %__sb_.i, align 8, !tbaa !5
  %bf.load.i.i.i.i.i = load i8, ptr %__str_.i.i, align 8
  %bf.clear.i.i.i.i.i = and i8 %bf.load.i.i.i.i.i, 1
  %tobool.i.not.i.i.i.i = icmp eq i8 %bf.clear.i.i.i.i.i, 0
  br i1 %tobool.i.not.i.i.i.i, label %_ZNSt3__118basic_stringstreamIcNS_11char_traitsIcEENS_9allocatorIcEEED1Ev.exit, label %if.then.i.i.i.i

if.then.i.i.i.i:                                  ; preds = %invoke.cont1
  %__data_.i.i.i.i.i = getelementptr inbounds %"class.std::__1::basic_stringstream", ptr %ss, i64 0, i32 1, i32 1, i32 0, i32 0, i32 0, i32 0, i32 0, i32 2
  %4 = load ptr, ptr %__data_.i.i.i.i.i, align 8, !tbaa !21
  call void @_ZdlPv(ptr noundef %4) #24
  br label %_ZNSt3__118basic_stringstreamIcNS_11char_traitsIcEENS_9allocatorIcEEED1Ev.exit

_ZNSt3__118basic_stringstreamIcNS_11char_traitsIcEENS_9allocatorIcEEED1Ev.exit: ; preds = %invoke.cont1, %if.then.i.i.i.i
  call void @_ZNSt3__115basic_streambufIcNS_11char_traitsIcEEED2Ev(ptr noundef nonnull align 8 dereferenceable(64) %__sb_.i) #23
  call void @_ZNSt3__114basic_iostreamIcNS_11char_traitsIcEEED2Ev(ptr noundef nonnull align 8 dereferenceable(24) %ss, ptr noundef nonnull getelementptr inbounds ([10 x ptr], ptr @_ZTTNSt3__118basic_stringstreamIcNS_11char_traitsIcEENS_9allocatorIcEEEE, i64 0, i64 1)) #23
  call void @_ZNSt3__19basic_iosIcNS_11char_traitsIcEEED2Ev(ptr noundef nonnull align 8 dereferenceable(148) %0) #23
  call void @llvm.lifetime.end.p0(i64 280, ptr nonnull %ss) #23
  ret void

lpad:                                             ; preds = %invoke.cont, %_ZNSt3__118basic_stringstreamIcNS_11char_traitsIcEENS_9allocatorIcEEEC1B7v170000Ev.exit
  %5 = landingpad { ptr, i32 }
          cleanup
  call void @_ZNSt3__118basic_stringstreamIcNS_11char_traitsIcEENS_9allocatorIcEEED1Ev(ptr noundef nonnull align 8 dereferenceable(128) %ss) #23
  call void @llvm.lifetime.end.p0(i64 280, ptr nonnull %ss) #23
  br label %common.resume
}

; Function Attrs: inlinehint nounwind uwtable
define linkonce_odr hidden void @_ZNSt3__118basic_stringstreamIcNS_11char_traitsIcEENS_9allocatorIcEEED1Ev(ptr noundef nonnull align 8 dereferenceable(128) %this) unnamed_addr #5 comdat align 2 personality ptr @__gxx_personality_v0 {
entry:
  store ptr getelementptr inbounds ({ [5 x ptr], [5 x ptr], [5 x ptr] }, ptr @_ZTVNSt3__118basic_stringstreamIcNS_11char_traitsIcEENS_9allocatorIcEEEE, i64 0, inrange i32 0, i64 3), ptr %this, align 8, !tbaa !5
  %add.ptr.i = getelementptr inbounds i8, ptr %this, i64 128
  store ptr getelementptr inbounds ({ [5 x ptr], [5 x ptr], [5 x ptr] }, ptr @_ZTVNSt3__118basic_stringstreamIcNS_11char_traitsIcEENS_9allocatorIcEEEE, i64 0, inrange i32 2, i64 3), ptr %add.ptr.i, align 8, !tbaa !5
  %add.ptr3.i = getelementptr inbounds i8, ptr %this, i64 16
  store ptr getelementptr inbounds ({ [5 x ptr], [5 x ptr], [5 x ptr] }, ptr @_ZTVNSt3__118basic_stringstreamIcNS_11char_traitsIcEENS_9allocatorIcEEEE, i64 0, inrange i32 1, i64 3), ptr %add.ptr3.i, align 8, !tbaa !5
  %__sb_.i = getelementptr inbounds %"class.std::__1::basic_stringstream", ptr %this, i64 0, i32 1
  store ptr getelementptr inbounds ({ [16 x ptr] }, ptr @_ZTVNSt3__115basic_stringbufIcNS_11char_traitsIcEENS_9allocatorIcEEEE, i64 0, inrange i32 0, i64 2), ptr %__sb_.i, align 8, !tbaa !5
  %__str_.i.i = getelementptr inbounds %"class.std::__1::basic_stringstream", ptr %this, i64 0, i32 1, i32 1
  %bf.load.i.i.i.i = load i8, ptr %__str_.i.i, align 8
  %bf.clear.i.i.i.i = and i8 %bf.load.i.i.i.i, 1
  %tobool.i.not.i.i.i = icmp eq i8 %bf.clear.i.i.i.i, 0
  br i1 %tobool.i.not.i.i.i, label %_ZNSt3__118basic_stringstreamIcNS_11char_traitsIcEENS_9allocatorIcEEED2Ev.exit, label %if.then.i.i.i

if.then.i.i.i:                                    ; preds = %entry
  %__data_.i.i.i.i = getelementptr inbounds %"class.std::__1::basic_stringstream", ptr %this, i64 0, i32 1, i32 1, i32 0, i32 0, i32 0, i32 0, i32 0, i32 2
  %0 = load ptr, ptr %__data_.i.i.i.i, align 8, !tbaa !21
  tail call void @_ZdlPv(ptr noundef %0) #24
  br label %_ZNSt3__118basic_stringstreamIcNS_11char_traitsIcEENS_9allocatorIcEEED2Ev.exit

_ZNSt3__118basic_stringstreamIcNS_11char_traitsIcEENS_9allocatorIcEEED2Ev.exit: ; preds = %entry, %if.then.i.i.i
  tail call void @_ZNSt3__115basic_streambufIcNS_11char_traitsIcEEED2Ev(ptr noundef nonnull align 8 dereferenceable(64) %__sb_.i) #23
  tail call void @_ZNSt3__114basic_iostreamIcNS_11char_traitsIcEEED2Ev(ptr noundef nonnull align 8 dereferenceable(24) %this, ptr noundef nonnull getelementptr inbounds ([10 x ptr], ptr @_ZTTNSt3__118basic_stringstreamIcNS_11char_traitsIcEENS_9allocatorIcEEEE, i64 0, i64 1)) #23
  tail call void @_ZNSt3__19basic_iosIcNS_11char_traitsIcEEED2Ev(ptr noundef nonnull align 8 dereferenceable(148) %add.ptr.i) #23
  ret void
}

; Function Attrs: nounwind
declare void @_ZNSt3__114basic_iostreamIcNS_11char_traitsIcEEED2Ev(ptr noundef nonnull align 8 dereferenceable(24), ptr noundef) unnamed_addr #10

; Function Attrs: nounwind
declare void @_ZNSt3__19basic_iosIcNS_11char_traitsIcEEED2Ev(ptr noundef nonnull align 8 dereferenceable(148)) unnamed_addr #10

; Function Attrs: nounwind
declare void @_ZNSt3__114basic_iostreamIcNS_11char_traitsIcEEED1Ev(ptr noundef nonnull align 8 dereferenceable(24)) unnamed_addr #10

; Function Attrs: nounwind
declare void @_ZNSt3__114basic_iostreamIcNS_11char_traitsIcEEED0Ev(ptr noundef nonnull align 8 dereferenceable(24)) unnamed_addr #10

; Function Attrs: nounwind uwtable
declare void @_ZThn16_NSt3__114basic_iostreamIcNS_11char_traitsIcEEED1Ev(ptr noundef) unnamed_addr #7 align 2

; Function Attrs: nounwind uwtable
declare void @_ZThn16_NSt3__114basic_iostreamIcNS_11char_traitsIcEEED0Ev(ptr noundef) unnamed_addr #7 align 2

; Function Attrs: nounwind uwtable
declare void @_ZTv0_n24_NSt3__114basic_iostreamIcNS_11char_traitsIcEEED1Ev(ptr noundef) unnamed_addr #7 align 2

; Function Attrs: nounwind uwtable
declare void @_ZTv0_n24_NSt3__114basic_iostreamIcNS_11char_traitsIcEEED0Ev(ptr noundef) unnamed_addr #7 align 2

; Function Attrs: nounwind
declare void @_ZNSt3__113basic_istreamIcNS_11char_traitsIcEEED1Ev(ptr noundef nonnull align 8 dereferenceable(16)) unnamed_addr #10

; Function Attrs: nounwind
declare void @_ZNSt3__113basic_istreamIcNS_11char_traitsIcEEED0Ev(ptr noundef nonnull align 8 dereferenceable(16)) unnamed_addr #10

; Function Attrs: nounwind uwtable
declare void @_ZTv0_n24_NSt3__113basic_istreamIcNS_11char_traitsIcEEED1Ev(ptr noundef) unnamed_addr #7 align 2

; Function Attrs: nounwind uwtable
declare void @_ZTv0_n24_NSt3__113basic_istreamIcNS_11char_traitsIcEEED0Ev(ptr noundef) unnamed_addr #7 align 2

; Function Attrs: nounwind
declare void @_ZNSt3__113basic_ostreamIcNS_11char_traitsIcEEED1Ev(ptr noundef nonnull align 8 dereferenceable(8)) unnamed_addr #10

; Function Attrs: nounwind
declare void @_ZNSt3__113basic_ostreamIcNS_11char_traitsIcEEED0Ev(ptr noundef nonnull align 8 dereferenceable(8)) unnamed_addr #10

; Function Attrs: nounwind uwtable
declare void @_ZTv0_n24_NSt3__113basic_ostreamIcNS_11char_traitsIcEEED1Ev(ptr noundef) unnamed_addr #7 align 2

; Function Attrs: nounwind uwtable
declare void @_ZTv0_n24_NSt3__113basic_ostreamIcNS_11char_traitsIcEEED0Ev(ptr noundef) unnamed_addr #7 align 2

; Function Attrs: inlinehint nounwind uwtable
define linkonce_odr hidden void @_ZNSt3__118basic_stringstreamIcNS_11char_traitsIcEENS_9allocatorIcEEED0Ev(ptr noundef nonnull align 8 dereferenceable(128) %this) unnamed_addr #5 comdat align 2 personality ptr @__gxx_personality_v0 {
entry:
  store ptr getelementptr inbounds ({ [5 x ptr], [5 x ptr], [5 x ptr] }, ptr @_ZTVNSt3__118basic_stringstreamIcNS_11char_traitsIcEENS_9allocatorIcEEEE, i64 0, inrange i32 0, i64 3), ptr %this, align 8, !tbaa !5
  %add.ptr.i.i = getelementptr inbounds i8, ptr %this, i64 128
  store ptr getelementptr inbounds ({ [5 x ptr], [5 x ptr], [5 x ptr] }, ptr @_ZTVNSt3__118basic_stringstreamIcNS_11char_traitsIcEENS_9allocatorIcEEEE, i64 0, inrange i32 2, i64 3), ptr %add.ptr.i.i, align 8, !tbaa !5
  %add.ptr3.i.i = getelementptr inbounds i8, ptr %this, i64 16
  store ptr getelementptr inbounds ({ [5 x ptr], [5 x ptr], [5 x ptr] }, ptr @_ZTVNSt3__118basic_stringstreamIcNS_11char_traitsIcEENS_9allocatorIcEEEE, i64 0, inrange i32 1, i64 3), ptr %add.ptr3.i.i, align 8, !tbaa !5
  %__sb_.i.i = getelementptr inbounds %"class.std::__1::basic_stringstream", ptr %this, i64 0, i32 1
  store ptr getelementptr inbounds ({ [16 x ptr] }, ptr @_ZTVNSt3__115basic_stringbufIcNS_11char_traitsIcEENS_9allocatorIcEEEE, i64 0, inrange i32 0, i64 2), ptr %__sb_.i.i, align 8, !tbaa !5
  %__str_.i.i.i = getelementptr inbounds %"class.std::__1::basic_stringstream", ptr %this, i64 0, i32 1, i32 1
  %bf.load.i.i.i.i.i = load i8, ptr %__str_.i.i.i, align 8
  %bf.clear.i.i.i.i.i = and i8 %bf.load.i.i.i.i.i, 1
  %tobool.i.not.i.i.i.i = icmp eq i8 %bf.clear.i.i.i.i.i, 0
  br i1 %tobool.i.not.i.i.i.i, label %_ZNSt3__118basic_stringstreamIcNS_11char_traitsIcEENS_9allocatorIcEEED1Ev.exit, label %if.then.i.i.i.i

if.then.i.i.i.i:                                  ; preds = %entry
  %__data_.i.i.i.i.i = getelementptr inbounds %"class.std::__1::basic_stringstream", ptr %this, i64 0, i32 1, i32 1, i32 0, i32 0, i32 0, i32 0, i32 0, i32 2
  %0 = load ptr, ptr %__data_.i.i.i.i.i, align 8, !tbaa !21
  tail call void @_ZdlPv(ptr noundef %0) #24
  br label %_ZNSt3__118basic_stringstreamIcNS_11char_traitsIcEENS_9allocatorIcEEED1Ev.exit

_ZNSt3__118basic_stringstreamIcNS_11char_traitsIcEENS_9allocatorIcEEED1Ev.exit: ; preds = %entry, %if.then.i.i.i.i
  tail call void @_ZNSt3__115basic_streambufIcNS_11char_traitsIcEEED2Ev(ptr noundef nonnull align 8 dereferenceable(64) %__sb_.i.i) #23
  tail call void @_ZNSt3__114basic_iostreamIcNS_11char_traitsIcEEED2Ev(ptr noundef nonnull align 8 dereferenceable(24) %this, ptr noundef nonnull getelementptr inbounds ([10 x ptr], ptr @_ZTTNSt3__118basic_stringstreamIcNS_11char_traitsIcEENS_9allocatorIcEEEE, i64 0, i64 1)) #23
  tail call void @_ZNSt3__19basic_iosIcNS_11char_traitsIcEEED2Ev(ptr noundef nonnull align 8 dereferenceable(148) %add.ptr.i.i) #23
  tail call void @_ZdlPv(ptr noundef nonnull %this) #24
  ret void
}

; Function Attrs: inlinehint nounwind uwtable
define linkonce_odr hidden void @_ZThn16_NSt3__118basic_stringstreamIcNS_11char_traitsIcEENS_9allocatorIcEEED1Ev(ptr noundef %this) unnamed_addr #5 comdat align 2 personality ptr @__gxx_personality_v0 {
entry:
  %0 = getelementptr inbounds i8, ptr %this, i64 -16
  store ptr getelementptr inbounds ({ [5 x ptr], [5 x ptr], [5 x ptr] }, ptr @_ZTVNSt3__118basic_stringstreamIcNS_11char_traitsIcEENS_9allocatorIcEEEE, i64 0, inrange i32 0, i64 3), ptr %0, align 8, !tbaa !5
  %add.ptr.i.i = getelementptr inbounds i8, ptr %this, i64 112
  store ptr getelementptr inbounds ({ [5 x ptr], [5 x ptr], [5 x ptr] }, ptr @_ZTVNSt3__118basic_stringstreamIcNS_11char_traitsIcEENS_9allocatorIcEEEE, i64 0, inrange i32 2, i64 3), ptr %add.ptr.i.i, align 8, !tbaa !5
  store ptr getelementptr inbounds ({ [5 x ptr], [5 x ptr], [5 x ptr] }, ptr @_ZTVNSt3__118basic_stringstreamIcNS_11char_traitsIcEENS_9allocatorIcEEEE, i64 0, inrange i32 1, i64 3), ptr %this, align 8, !tbaa !5
  %__sb_.i.i = getelementptr inbounds i8, ptr %this, i64 8
  store ptr getelementptr inbounds ({ [16 x ptr] }, ptr @_ZTVNSt3__115basic_stringbufIcNS_11char_traitsIcEENS_9allocatorIcEEEE, i64 0, inrange i32 0, i64 2), ptr %__sb_.i.i, align 8, !tbaa !5
  %__str_.i.i.i = getelementptr inbounds i8, ptr %this, i64 72
  %bf.load.i.i.i.i.i = load i8, ptr %__str_.i.i.i, align 8
  %bf.clear.i.i.i.i.i = and i8 %bf.load.i.i.i.i.i, 1
  %tobool.i.not.i.i.i.i = icmp eq i8 %bf.clear.i.i.i.i.i, 0
  br i1 %tobool.i.not.i.i.i.i, label %_ZNSt3__118basic_stringstreamIcNS_11char_traitsIcEENS_9allocatorIcEEED1Ev.exit, label %if.then.i.i.i.i

if.then.i.i.i.i:                                  ; preds = %entry
  %__data_.i.i.i.i.i = getelementptr inbounds i8, ptr %this, i64 88
  %1 = load ptr, ptr %__data_.i.i.i.i.i, align 8, !tbaa !21
  tail call void @_ZdlPv(ptr noundef %1) #24
  br label %_ZNSt3__118basic_stringstreamIcNS_11char_traitsIcEENS_9allocatorIcEEED1Ev.exit

_ZNSt3__118basic_stringstreamIcNS_11char_traitsIcEENS_9allocatorIcEEED1Ev.exit: ; preds = %entry, %if.then.i.i.i.i
  tail call void @_ZNSt3__115basic_streambufIcNS_11char_traitsIcEEED2Ev(ptr noundef nonnull align 8 dereferenceable(64) %__sb_.i.i) #23
  tail call void @_ZNSt3__114basic_iostreamIcNS_11char_traitsIcEEED2Ev(ptr noundef nonnull align 8 dereferenceable(24) %0, ptr noundef nonnull getelementptr inbounds ([10 x ptr], ptr @_ZTTNSt3__118basic_stringstreamIcNS_11char_traitsIcEENS_9allocatorIcEEEE, i64 0, i64 1)) #23
  tail call void @_ZNSt3__19basic_iosIcNS_11char_traitsIcEEED2Ev(ptr noundef nonnull align 8 dereferenceable(148) %add.ptr.i.i) #23
  ret void
}

; Function Attrs: inlinehint nounwind uwtable
define linkonce_odr hidden void @_ZThn16_NSt3__118basic_stringstreamIcNS_11char_traitsIcEENS_9allocatorIcEEED0Ev(ptr noundef %this) unnamed_addr #5 comdat align 2 personality ptr @__gxx_personality_v0 {
entry:
  %0 = getelementptr inbounds i8, ptr %this, i64 -16
  store ptr getelementptr inbounds ({ [5 x ptr], [5 x ptr], [5 x ptr] }, ptr @_ZTVNSt3__118basic_stringstreamIcNS_11char_traitsIcEENS_9allocatorIcEEEE, i64 0, inrange i32 0, i64 3), ptr %0, align 8, !tbaa !5
  %add.ptr.i.i.i = getelementptr inbounds i8, ptr %this, i64 112
  store ptr getelementptr inbounds ({ [5 x ptr], [5 x ptr], [5 x ptr] }, ptr @_ZTVNSt3__118basic_stringstreamIcNS_11char_traitsIcEENS_9allocatorIcEEEE, i64 0, inrange i32 2, i64 3), ptr %add.ptr.i.i.i, align 8, !tbaa !5
  store ptr getelementptr inbounds ({ [5 x ptr], [5 x ptr], [5 x ptr] }, ptr @_ZTVNSt3__118basic_stringstreamIcNS_11char_traitsIcEENS_9allocatorIcEEEE, i64 0, inrange i32 1, i64 3), ptr %this, align 8, !tbaa !5
  %__sb_.i.i.i = getelementptr inbounds i8, ptr %this, i64 8
  store ptr getelementptr inbounds ({ [16 x ptr] }, ptr @_ZTVNSt3__115basic_stringbufIcNS_11char_traitsIcEENS_9allocatorIcEEEE, i64 0, inrange i32 0, i64 2), ptr %__sb_.i.i.i, align 8, !tbaa !5
  %__str_.i.i.i.i = getelementptr inbounds i8, ptr %this, i64 72
  %bf.load.i.i.i.i.i.i = load i8, ptr %__str_.i.i.i.i, align 8
  %bf.clear.i.i.i.i.i.i = and i8 %bf.load.i.i.i.i.i.i, 1
  %tobool.i.not.i.i.i.i.i = icmp eq i8 %bf.clear.i.i.i.i.i.i, 0
  br i1 %tobool.i.not.i.i.i.i.i, label %_ZNSt3__118basic_stringstreamIcNS_11char_traitsIcEENS_9allocatorIcEEED0Ev.exit, label %if.then.i.i.i.i.i

if.then.i.i.i.i.i:                                ; preds = %entry
  %__data_.i.i.i.i.i.i = getelementptr inbounds i8, ptr %this, i64 88
  %1 = load ptr, ptr %__data_.i.i.i.i.i.i, align 8, !tbaa !21
  tail call void @_ZdlPv(ptr noundef %1) #24
  br label %_ZNSt3__118basic_stringstreamIcNS_11char_traitsIcEENS_9allocatorIcEEED0Ev.exit

_ZNSt3__118basic_stringstreamIcNS_11char_traitsIcEENS_9allocatorIcEEED0Ev.exit: ; preds = %entry, %if.then.i.i.i.i.i
  tail call void @_ZNSt3__115basic_streambufIcNS_11char_traitsIcEEED2Ev(ptr noundef nonnull align 8 dereferenceable(64) %__sb_.i.i.i) #23
  tail call void @_ZNSt3__114basic_iostreamIcNS_11char_traitsIcEEED2Ev(ptr noundef nonnull align 8 dereferenceable(24) %0, ptr noundef nonnull getelementptr inbounds ([10 x ptr], ptr @_ZTTNSt3__118basic_stringstreamIcNS_11char_traitsIcEENS_9allocatorIcEEEE, i64 0, i64 1)) #23
  tail call void @_ZNSt3__19basic_iosIcNS_11char_traitsIcEEED2Ev(ptr noundef nonnull align 8 dereferenceable(148) %add.ptr.i.i.i) #23
  tail call void @_ZdlPv(ptr noundef nonnull %0) #24
  ret void
}

; Function Attrs: inlinehint nounwind uwtable
define linkonce_odr hidden void @_ZTv0_n24_NSt3__118basic_stringstreamIcNS_11char_traitsIcEENS_9allocatorIcEEED1Ev(ptr noundef %this) unnamed_addr #5 comdat align 2 personality ptr @__gxx_personality_v0 {
entry:
  %0 = load ptr, ptr %this, align 8
  %1 = getelementptr inbounds i8, ptr %0, i64 -24
  %2 = load i64, ptr %1, align 8
  %3 = getelementptr inbounds i8, ptr %this, i64 %2
  store ptr getelementptr inbounds ({ [5 x ptr], [5 x ptr], [5 x ptr] }, ptr @_ZTVNSt3__118basic_stringstreamIcNS_11char_traitsIcEENS_9allocatorIcEEEE, i64 0, inrange i32 0, i64 3), ptr %3, align 8, !tbaa !5
  %add.ptr.i.i = getelementptr inbounds i8, ptr %3, i64 128
  store ptr getelementptr inbounds ({ [5 x ptr], [5 x ptr], [5 x ptr] }, ptr @_ZTVNSt3__118basic_stringstreamIcNS_11char_traitsIcEENS_9allocatorIcEEEE, i64 0, inrange i32 2, i64 3), ptr %add.ptr.i.i, align 8, !tbaa !5
  %add.ptr3.i.i = getelementptr inbounds i8, ptr %3, i64 16
  store ptr getelementptr inbounds ({ [5 x ptr], [5 x ptr], [5 x ptr] }, ptr @_ZTVNSt3__118basic_stringstreamIcNS_11char_traitsIcEENS_9allocatorIcEEEE, i64 0, inrange i32 1, i64 3), ptr %add.ptr3.i.i, align 8, !tbaa !5
  %__sb_.i.i = getelementptr inbounds %"class.std::__1::basic_stringstream", ptr %3, i64 0, i32 1
  store ptr getelementptr inbounds ({ [16 x ptr] }, ptr @_ZTVNSt3__115basic_stringbufIcNS_11char_traitsIcEENS_9allocatorIcEEEE, i64 0, inrange i32 0, i64 2), ptr %__sb_.i.i, align 8, !tbaa !5
  %__str_.i.i.i = getelementptr inbounds %"class.std::__1::basic_stringstream", ptr %3, i64 0, i32 1, i32 1
  %bf.load.i.i.i.i.i = load i8, ptr %__str_.i.i.i, align 8
  %bf.clear.i.i.i.i.i = and i8 %bf.load.i.i.i.i.i, 1
  %tobool.i.not.i.i.i.i = icmp eq i8 %bf.clear.i.i.i.i.i, 0
  br i1 %tobool.i.not.i.i.i.i, label %_ZNSt3__118basic_stringstreamIcNS_11char_traitsIcEENS_9allocatorIcEEED1Ev.exit, label %if.then.i.i.i.i

if.then.i.i.i.i:                                  ; preds = %entry
  %__data_.i.i.i.i.i = getelementptr inbounds %"class.std::__1::basic_stringstream", ptr %3, i64 0, i32 1, i32 1, i32 0, i32 0, i32 0, i32 0, i32 0, i32 2
  %4 = load ptr, ptr %__data_.i.i.i.i.i, align 8, !tbaa !21
  tail call void @_ZdlPv(ptr noundef %4) #24
  br label %_ZNSt3__118basic_stringstreamIcNS_11char_traitsIcEENS_9allocatorIcEEED1Ev.exit

_ZNSt3__118basic_stringstreamIcNS_11char_traitsIcEENS_9allocatorIcEEED1Ev.exit: ; preds = %entry, %if.then.i.i.i.i
  tail call void @_ZNSt3__115basic_streambufIcNS_11char_traitsIcEEED2Ev(ptr noundef nonnull align 8 dereferenceable(64) %__sb_.i.i) #23
  tail call void @_ZNSt3__114basic_iostreamIcNS_11char_traitsIcEEED2Ev(ptr noundef nonnull align 8 dereferenceable(24) %3, ptr noundef nonnull getelementptr inbounds ([10 x ptr], ptr @_ZTTNSt3__118basic_stringstreamIcNS_11char_traitsIcEENS_9allocatorIcEEEE, i64 0, i64 1)) #23
  tail call void @_ZNSt3__19basic_iosIcNS_11char_traitsIcEEED2Ev(ptr noundef nonnull align 8 dereferenceable(148) %add.ptr.i.i) #23
  ret void
}

; Function Attrs: inlinehint nounwind uwtable
define linkonce_odr hidden void @_ZTv0_n24_NSt3__118basic_stringstreamIcNS_11char_traitsIcEENS_9allocatorIcEEED0Ev(ptr noundef %this) unnamed_addr #5 comdat align 2 personality ptr @__gxx_personality_v0 {
entry:
  %0 = load ptr, ptr %this, align 8
  %1 = getelementptr inbounds i8, ptr %0, i64 -24
  %2 = load i64, ptr %1, align 8
  %3 = getelementptr inbounds i8, ptr %this, i64 %2
  store ptr getelementptr inbounds ({ [5 x ptr], [5 x ptr], [5 x ptr] }, ptr @_ZTVNSt3__118basic_stringstreamIcNS_11char_traitsIcEENS_9allocatorIcEEEE, i64 0, inrange i32 0, i64 3), ptr %3, align 8, !tbaa !5
  %add.ptr.i.i.i = getelementptr inbounds i8, ptr %3, i64 128
  store ptr getelementptr inbounds ({ [5 x ptr], [5 x ptr], [5 x ptr] }, ptr @_ZTVNSt3__118basic_stringstreamIcNS_11char_traitsIcEENS_9allocatorIcEEEE, i64 0, inrange i32 2, i64 3), ptr %add.ptr.i.i.i, align 8, !tbaa !5
  %add.ptr3.i.i.i = getelementptr inbounds i8, ptr %3, i64 16
  store ptr getelementptr inbounds ({ [5 x ptr], [5 x ptr], [5 x ptr] }, ptr @_ZTVNSt3__118basic_stringstreamIcNS_11char_traitsIcEENS_9allocatorIcEEEE, i64 0, inrange i32 1, i64 3), ptr %add.ptr3.i.i.i, align 8, !tbaa !5
  %__sb_.i.i.i = getelementptr inbounds %"class.std::__1::basic_stringstream", ptr %3, i64 0, i32 1
  store ptr getelementptr inbounds ({ [16 x ptr] }, ptr @_ZTVNSt3__115basic_stringbufIcNS_11char_traitsIcEENS_9allocatorIcEEEE, i64 0, inrange i32 0, i64 2), ptr %__sb_.i.i.i, align 8, !tbaa !5
  %__str_.i.i.i.i = getelementptr inbounds %"class.std::__1::basic_stringstream", ptr %3, i64 0, i32 1, i32 1
  %bf.load.i.i.i.i.i.i = load i8, ptr %__str_.i.i.i.i, align 8
  %bf.clear.i.i.i.i.i.i = and i8 %bf.load.i.i.i.i.i.i, 1
  %tobool.i.not.i.i.i.i.i = icmp eq i8 %bf.clear.i.i.i.i.i.i, 0
  br i1 %tobool.i.not.i.i.i.i.i, label %_ZNSt3__118basic_stringstreamIcNS_11char_traitsIcEENS_9allocatorIcEEED0Ev.exit, label %if.then.i.i.i.i.i

if.then.i.i.i.i.i:                                ; preds = %entry
  %__data_.i.i.i.i.i.i = getelementptr inbounds %"class.std::__1::basic_stringstream", ptr %3, i64 0, i32 1, i32 1, i32 0, i32 0, i32 0, i32 0, i32 0, i32 2
  %4 = load ptr, ptr %__data_.i.i.i.i.i.i, align 8, !tbaa !21
  tail call void @_ZdlPv(ptr noundef %4) #24
  br label %_ZNSt3__118basic_stringstreamIcNS_11char_traitsIcEENS_9allocatorIcEEED0Ev.exit

_ZNSt3__118basic_stringstreamIcNS_11char_traitsIcEENS_9allocatorIcEEED0Ev.exit: ; preds = %entry, %if.then.i.i.i.i.i
  tail call void @_ZNSt3__115basic_streambufIcNS_11char_traitsIcEEED2Ev(ptr noundef nonnull align 8 dereferenceable(64) %__sb_.i.i.i) #23
  tail call void @_ZNSt3__114basic_iostreamIcNS_11char_traitsIcEEED2Ev(ptr noundef nonnull align 8 dereferenceable(24) %3, ptr noundef nonnull getelementptr inbounds ([10 x ptr], ptr @_ZTTNSt3__118basic_stringstreamIcNS_11char_traitsIcEENS_9allocatorIcEEEE, i64 0, i64 1)) #23
  tail call void @_ZNSt3__19basic_iosIcNS_11char_traitsIcEEED2Ev(ptr noundef nonnull align 8 dereferenceable(148) %add.ptr.i.i.i) #23
  tail call void @_ZdlPv(ptr noundef nonnull %3) #24
  ret void
}

declare void @_ZNSt3__18ios_base4initEPv(ptr noundef nonnull align 8 dereferenceable(136), ptr noundef) local_unnamed_addr #0

declare void @_ZNSt3__115basic_streambufIcNS_11char_traitsIcEEEC2Ev(ptr noundef nonnull align 8 dereferenceable(64)) unnamed_addr #0

; Function Attrs: inlinehint nounwind uwtable
define linkonce_odr hidden void @_ZNSt3__115basic_stringbufIcNS_11char_traitsIcEENS_9allocatorIcEEED2Ev(ptr noundef nonnull align 8 dereferenceable(100) %this) unnamed_addr #5 comdat align 2 personality ptr @__gxx_personality_v0 {
entry:
  store ptr getelementptr inbounds ({ [16 x ptr] }, ptr @_ZTVNSt3__115basic_stringbufIcNS_11char_traitsIcEENS_9allocatorIcEEEE, i64 0, inrange i32 0, i64 2), ptr %this, align 8, !tbaa !5
  %__str_ = getelementptr inbounds %"class.std::__1::basic_stringbuf", ptr %this, i64 0, i32 1
  %bf.load.i.i = load i8, ptr %__str_, align 8
  %bf.clear.i.i = and i8 %bf.load.i.i, 1
  %tobool.i.not.i = icmp eq i8 %bf.clear.i.i, 0
  br i1 %tobool.i.not.i, label %_ZNSt3__112basic_stringIcNS_11char_traitsIcEENS_9allocatorIcEEED2Ev.exit, label %if.then.i

if.then.i:                                        ; preds = %entry
  %__data_.i.i = getelementptr inbounds %"class.std::__1::basic_stringbuf", ptr %this, i64 0, i32 1, i32 0, i32 0, i32 0, i32 0, i32 0, i32 2
  %0 = load ptr, ptr %__data_.i.i, align 8, !tbaa !21
  tail call void @_ZdlPv(ptr noundef %0) #24
  br label %_ZNSt3__112basic_stringIcNS_11char_traitsIcEENS_9allocatorIcEEED2Ev.exit

_ZNSt3__112basic_stringIcNS_11char_traitsIcEENS_9allocatorIcEEED2Ev.exit: ; preds = %entry, %if.then.i
  tail call void @_ZNSt3__115basic_streambufIcNS_11char_traitsIcEEED2Ev(ptr noundef nonnull align 8 dereferenceable(64) %this) #23
  ret void
}

; Function Attrs: inlinehint nounwind uwtable
define linkonce_odr hidden void @_ZNSt3__115basic_stringbufIcNS_11char_traitsIcEENS_9allocatorIcEEED0Ev(ptr noundef nonnull align 8 dereferenceable(100) %this) unnamed_addr #5 comdat align 2 personality ptr @__gxx_personality_v0 {
entry:
  store ptr getelementptr inbounds ({ [16 x ptr] }, ptr @_ZTVNSt3__115basic_stringbufIcNS_11char_traitsIcEENS_9allocatorIcEEEE, i64 0, inrange i32 0, i64 2), ptr %this, align 8, !tbaa !5
  %__str_.i = getelementptr inbounds %"class.std::__1::basic_stringbuf", ptr %this, i64 0, i32 1
  %bf.load.i.i.i = load i8, ptr %__str_.i, align 8
  %bf.clear.i.i.i = and i8 %bf.load.i.i.i, 1
  %tobool.i.not.i.i = icmp eq i8 %bf.clear.i.i.i, 0
  br i1 %tobool.i.not.i.i, label %_ZNSt3__115basic_stringbufIcNS_11char_traitsIcEENS_9allocatorIcEEED2Ev.exit, label %if.then.i.i

if.then.i.i:                                      ; preds = %entry
  %__data_.i.i.i = getelementptr inbounds %"class.std::__1::basic_stringbuf", ptr %this, i64 0, i32 1, i32 0, i32 0, i32 0, i32 0, i32 0, i32 2
  %0 = load ptr, ptr %__data_.i.i.i, align 8, !tbaa !21
  tail call void @_ZdlPv(ptr noundef %0) #24
  br label %_ZNSt3__115basic_stringbufIcNS_11char_traitsIcEENS_9allocatorIcEEED2Ev.exit

_ZNSt3__115basic_stringbufIcNS_11char_traitsIcEENS_9allocatorIcEEED2Ev.exit: ; preds = %entry, %if.then.i.i
  tail call void @_ZNSt3__115basic_streambufIcNS_11char_traitsIcEEED2Ev(ptr noundef nonnull align 8 dereferenceable(64) %this) #23
  tail call void @_ZdlPv(ptr noundef nonnull %this) #24
  ret void
}

declare void @_ZNSt3__115basic_streambufIcNS_11char_traitsIcEEE5imbueERKNS_6localeE(ptr noundef nonnull align 8 dereferenceable(64), ptr noundef nonnull align 8 dereferenceable(8)) unnamed_addr #0

declare noundef ptr @_ZNSt3__115basic_streambufIcNS_11char_traitsIcEEE6setbufEPcl(ptr noundef nonnull align 8 dereferenceable(64), ptr noundef, i64 noundef) unnamed_addr #0

; Function Attrs: uwtable
define linkonce_odr hidden { i64, i64 } @_ZNSt3__115basic_stringbufIcNS_11char_traitsIcEENS_9allocatorIcEEE7seekoffExNS_8ios_base7seekdirEj(ptr noundef nonnull align 8 dereferenceable(100) %this, i64 noundef %__off, i32 noundef %__way, i32 noundef %__wch) unnamed_addr #6 comdat align 2 {
entry:
  %__hm_ = getelementptr inbounds %"class.std::__1::basic_stringbuf", ptr %this, i64 0, i32 2
  %0 = load ptr, ptr %__hm_, align 8, !tbaa !44
  %__nout_.i = getelementptr inbounds %"class.std::__1::basic_streambuf", ptr %this, i64 0, i32 6
  %1 = load ptr, ptr %__nout_.i, align 8, !tbaa !45
  %cmp = icmp ult ptr %0, %1
  br i1 %cmp, label %if.then, label %if.end

if.then:                                          ; preds = %entry
  store ptr %1, ptr %__hm_, align 8, !tbaa !44
  br label %if.end

if.end:                                           ; preds = %if.then, %entry
  %2 = phi ptr [ %1, %if.then ], [ %0, %entry ]
  %and = and i32 %__wch, 24
  %cmp4 = icmp eq i32 %and, 0
  br i1 %cmp4, label %return, label %if.end6

if.end6:                                          ; preds = %if.end
  %cmp8 = icmp eq i32 %and, 24
  %cmp9 = icmp eq i32 %__way, 1
  %or.cond = and i1 %cmp9, %cmp8
  br i1 %or.cond, label %return, label %if.end11

if.end11:                                         ; preds = %if.end6
  %cmp13 = icmp eq ptr %2, null
  br i1 %cmp13, label %cond.end, label %cond.false

cond.false:                                       ; preds = %if.end11
  %__str_ = getelementptr inbounds %"class.std::__1::basic_stringbuf", ptr %this, i64 0, i32 1
  %bf.load.i.i.i = load i8, ptr %__str_, align 8
  %bf.clear.i.i.i = and i8 %bf.load.i.i.i, 1
  %tobool.i.not.i.i = icmp eq i8 %bf.clear.i.i.i, 0
  %__data_.i.i.i = getelementptr inbounds %"class.std::__1::basic_stringbuf", ptr %this, i64 0, i32 1, i32 0, i32 0, i32 0, i32 0, i32 0, i32 2
  %3 = load ptr, ptr %__data_.i.i.i, align 8
  %__data_.i4.i.i = getelementptr inbounds i8, ptr %this, i64 65
  %cond.i.i = select i1 %tobool.i.not.i.i, ptr %__data_.i4.i.i, ptr %3
  %sub.ptr.lhs.cast = ptrtoint ptr %2 to i64
  %sub.ptr.rhs.cast = ptrtoint ptr %cond.i.i to i64
  %sub.ptr.sub = sub i64 %sub.ptr.lhs.cast, %sub.ptr.rhs.cast
  br label %cond.end

cond.end:                                         ; preds = %if.end11, %cond.false
  %cond = phi i64 [ %sub.ptr.sub, %cond.false ], [ 0, %if.end11 ]
  switch i32 %__way, label %return [
    i32 0, label %sw.epilog
    i32 1, label %sw.bb16
    i32 2, label %sw.bb30
  ]

sw.bb16:                                          ; preds = %cond.end
  %and17 = and i32 %__wch, 8
  %tobool.not = icmp eq i32 %and17, 0
  br i1 %tobool.not, label %if.else, label %if.then18

if.then18:                                        ; preds = %sw.bb16
  %__ninp_.i = getelementptr inbounds %"class.std::__1::basic_streambuf", ptr %this, i64 0, i32 3
  %4 = load ptr, ptr %__ninp_.i, align 8, !tbaa !46
  %__binp_.i = getelementptr inbounds %"class.std::__1::basic_streambuf", ptr %this, i64 0, i32 2
  %5 = load ptr, ptr %__binp_.i, align 8, !tbaa !47
  %sub.ptr.lhs.cast21 = ptrtoint ptr %4 to i64
  %sub.ptr.rhs.cast22 = ptrtoint ptr %5 to i64
  %sub.ptr.sub23 = sub i64 %sub.ptr.lhs.cast21, %sub.ptr.rhs.cast22
  br label %sw.epilog

if.else:                                          ; preds = %sw.bb16
  %__bout_.i = getelementptr inbounds %"class.std::__1::basic_streambuf", ptr %this, i64 0, i32 5
  %6 = load ptr, ptr %__bout_.i, align 8, !tbaa !48
  %sub.ptr.lhs.cast26 = ptrtoint ptr %1 to i64
  %sub.ptr.rhs.cast27 = ptrtoint ptr %6 to i64
  %sub.ptr.sub28 = sub i64 %sub.ptr.lhs.cast26, %sub.ptr.rhs.cast27
  br label %sw.epilog

sw.bb30:                                          ; preds = %cond.end
  br label %sw.epilog

sw.epilog:                                        ; preds = %cond.end, %if.then18, %if.else, %sw.bb30
  %__noff.0 = phi i64 [ %cond, %sw.bb30 ], [ %sub.ptr.sub23, %if.then18 ], [ %sub.ptr.sub28, %if.else ], [ 0, %cond.end ]
  %add = add nsw i64 %__noff.0, %__off
  %cmp31 = icmp slt i64 %add, 0
  %cmp32 = icmp slt i64 %cond, %add
  %or.cond80 = select i1 %cmp31, i1 true, i1 %cmp32
  br i1 %or.cond80, label %return, label %if.end34

if.end34:                                         ; preds = %sw.epilog
  %cmp35.not = icmp eq i64 %add, 0
  %.pre = and i32 %__wch, 8
  br i1 %cmp35.not, label %if.end51, label %if.then36

if.then36:                                        ; preds = %if.end34
  %tobool38.not = icmp ne i32 %.pre, 0
  %__ninp_.i86 = getelementptr inbounds %"class.std::__1::basic_streambuf", ptr %this, i64 0, i32 3
  %7 = load ptr, ptr %__ninp_.i86, align 8
  %cmp41 = icmp eq ptr %7, null
  %or.cond100 = select i1 %tobool38.not, i1 %cmp41, i1 false
  br i1 %or.cond100, label %return, label %if.end43

if.end43:                                         ; preds = %if.then36
  %and44 = and i32 %__wch, 16
  %tobool45.not = icmp ne i32 %and44, 0
  %cmp48 = icmp eq ptr %1, null
  %or.cond101 = select i1 %tobool45.not, i1 %cmp48, i1 false
  br i1 %or.cond101, label %return, label %if.end51

if.end51:                                         ; preds = %if.end34, %if.end43
  %tobool53.not = icmp eq i32 %.pre, 0
  br i1 %tobool53.not, label %if.end58, label %if.then54

if.then54:                                        ; preds = %if.end51
  %__binp_.i90 = getelementptr inbounds %"class.std::__1::basic_streambuf", ptr %this, i64 0, i32 2
  %8 = load ptr, ptr %__binp_.i90, align 8, !tbaa !47
  %add.ptr = getelementptr inbounds i8, ptr %8, i64 %add
  %__ninp_.i93 = getelementptr inbounds %"class.std::__1::basic_streambuf", ptr %this, i64 0, i32 3
  store ptr %add.ptr, ptr %__ninp_.i93, align 8, !tbaa !46
  %__einp_.i = getelementptr inbounds %"class.std::__1::basic_streambuf", ptr %this, i64 0, i32 4
  store ptr %2, ptr %__einp_.i, align 8, !tbaa !49
  br label %if.end58

if.end58:                                         ; preds = %if.then54, %if.end51
  %and59 = and i32 %__wch, 16
  %tobool60.not = icmp eq i32 %and59, 0
  br i1 %tobool60.not, label %return, label %if.then61

if.then61:                                        ; preds = %if.end58
  %__bout_.i94 = getelementptr inbounds %"class.std::__1::basic_streambuf", ptr %this, i64 0, i32 5
  %9 = load ptr, ptr %__bout_.i94, align 8, !tbaa !48
  %sext = shl i64 %add, 32
  %idx.ext.i = ashr exact i64 %sext, 32
  %add.ptr.i = getelementptr inbounds i8, ptr %9, i64 %idx.ext.i
  store ptr %add.ptr.i, ptr %__nout_.i, align 8, !tbaa !45
  br label %return

return:                                           ; preds = %if.end43, %if.then36, %if.end58, %if.then61, %sw.epilog, %cond.end, %if.end6, %if.end
  %retval.sroa.8.0 = phi i64 [ -1, %if.end ], [ -1, %if.end6 ], [ -1, %cond.end ], [ -1, %sw.epilog ], [ %add, %if.then61 ], [ %add, %if.end58 ], [ -1, %if.then36 ], [ -1, %if.end43 ]
  %.fca.1.insert = insertvalue { i64, i64 } { i64 0, i64 poison }, i64 %retval.sroa.8.0, 1
  ret { i64, i64 } %.fca.1.insert
}

; Function Attrs: mustprogress uwtable
define linkonce_odr hidden { i64, i64 } @_ZNSt3__115basic_stringbufIcNS_11char_traitsIcEENS_9allocatorIcEEE7seekposENS_4fposI11__mbstate_tEEj(ptr noundef nonnull align 8 dereferenceable(100) %this, i64 %__sp.coerce0, i64 %__sp.coerce1, i32 noundef %__wch) unnamed_addr #2 comdat align 2 {
entry:
  %vtable = load ptr, ptr %this, align 8, !tbaa !5
  %vfn = getelementptr inbounds ptr, ptr %vtable, i64 4
  %0 = load ptr, ptr %vfn, align 8
  %call2 = tail call { i64, i64 } %0(ptr noundef nonnull align 8 dereferenceable(100) %this, i64 noundef %__sp.coerce1, i32 noundef 0, i32 noundef %__wch)
  ret { i64, i64 } %call2
}

declare noundef i32 @_ZNSt3__115basic_streambufIcNS_11char_traitsIcEEE4syncEv(ptr noundef nonnull align 8 dereferenceable(64)) unnamed_addr #0

declare noundef i64 @_ZNSt3__115basic_streambufIcNS_11char_traitsIcEEE9showmanycEv(ptr noundef nonnull align 8 dereferenceable(64)) unnamed_addr #0

declare noundef i64 @_ZNSt3__115basic_streambufIcNS_11char_traitsIcEEE6xsgetnEPcl(ptr noundef nonnull align 8 dereferenceable(64), ptr noundef, i64 noundef) unnamed_addr #0

; Function Attrs: mustprogress uwtable
define linkonce_odr hidden noundef i32 @_ZNSt3__115basic_stringbufIcNS_11char_traitsIcEENS_9allocatorIcEEE9underflowEv(ptr noundef nonnull align 8 dereferenceable(100) %this) unnamed_addr #2 comdat align 2 {
entry:
  %__hm_ = getelementptr inbounds %"class.std::__1::basic_stringbuf", ptr %this, i64 0, i32 2
  %0 = load ptr, ptr %__hm_, align 8, !tbaa !44
  %__nout_.i = getelementptr inbounds %"class.std::__1::basic_streambuf", ptr %this, i64 0, i32 6
  %1 = load ptr, ptr %__nout_.i, align 8, !tbaa !45
  %cmp = icmp ult ptr %0, %1
  br i1 %cmp, label %if.then, label %if.end

if.then:                                          ; preds = %entry
  store ptr %1, ptr %__hm_, align 8, !tbaa !44
  br label %if.end

if.end:                                           ; preds = %if.then, %entry
  %2 = phi ptr [ %1, %if.then ], [ %0, %entry ]
  %__mode_ = getelementptr inbounds %"class.std::__1::basic_stringbuf", ptr %this, i64 0, i32 3
  %3 = load i32, ptr %__mode_, align 8, !tbaa !36
  %and = and i32 %3, 8
  %tobool.not = icmp eq i32 %and, 0
  br i1 %tobool.not, label %return, label %if.then4

if.then4:                                         ; preds = %if.end
  %__einp_.i = getelementptr inbounds %"class.std::__1::basic_streambuf", ptr %this, i64 0, i32 4
  %4 = load ptr, ptr %__einp_.i, align 8, !tbaa !49
  %cmp7 = icmp ult ptr %4, %2
  br i1 %cmp7, label %if.then8, label %if.end12

if.then8:                                         ; preds = %if.then4
  store ptr %2, ptr %__einp_.i, align 8, !tbaa !49
  br label %if.end12

if.end12:                                         ; preds = %if.then8, %if.then4
  %5 = phi ptr [ %2, %if.then8 ], [ %4, %if.then4 ]
  %__ninp_.i26 = getelementptr inbounds %"class.std::__1::basic_streambuf", ptr %this, i64 0, i32 3
  %6 = load ptr, ptr %__ninp_.i26, align 8, !tbaa !46
  %cmp15 = icmp ult ptr %6, %5
  br i1 %cmp15, label %if.then16, label %return

if.then16:                                        ; preds = %if.end12
  %7 = load i8, ptr %6, align 1, !tbaa !21
  %conv.i = zext i8 %7 to i32
  br label %return

return:                                           ; preds = %if.end, %if.end12, %if.then16
  %retval.0 = phi i32 [ %conv.i, %if.then16 ], [ -1, %if.end12 ], [ -1, %if.end ]
  ret i32 %retval.0
}

declare noundef i32 @_ZNSt3__115basic_streambufIcNS_11char_traitsIcEEE5uflowEv(ptr noundef nonnull align 8 dereferenceable(64)) unnamed_addr #0

; Function Attrs: mustprogress nounwind uwtable
define linkonce_odr hidden noundef i32 @_ZNSt3__115basic_stringbufIcNS_11char_traitsIcEENS_9allocatorIcEEE9pbackfailEi(ptr noundef nonnull align 8 dereferenceable(100) %this, i32 noundef %__c) unnamed_addr #8 comdat align 2 {
entry:
  %__hm_ = getelementptr inbounds %"class.std::__1::basic_stringbuf", ptr %this, i64 0, i32 2
  %0 = load ptr, ptr %__hm_, align 8, !tbaa !44
  %__nout_.i = getelementptr inbounds %"class.std::__1::basic_streambuf", ptr %this, i64 0, i32 6
  %1 = load ptr, ptr %__nout_.i, align 8, !tbaa !45
  %cmp = icmp ult ptr %0, %1
  br i1 %cmp, label %if.then, label %if.end

if.then:                                          ; preds = %entry
  store ptr %1, ptr %__hm_, align 8, !tbaa !44
  br label %if.end

if.end:                                           ; preds = %if.then, %entry
  %2 = phi ptr [ %1, %if.then ], [ %0, %entry ]
  %__binp_.i = getelementptr inbounds %"class.std::__1::basic_streambuf", ptr %this, i64 0, i32 2
  %3 = load ptr, ptr %__binp_.i, align 8, !tbaa !47
  %__ninp_.i = getelementptr inbounds %"class.std::__1::basic_streambuf", ptr %this, i64 0, i32 3
  %4 = load ptr, ptr %__ninp_.i, align 8, !tbaa !46
  %cmp6 = icmp ult ptr %3, %4
  br i1 %cmp6, label %if.then7, label %return

if.then7:                                         ; preds = %if.end
  %cmp.i = icmp eq i32 %__c, -1
  br i1 %cmp.i, label %if.then10, label %if.end15

if.then10:                                        ; preds = %if.then7
  %add.ptr = getelementptr inbounds i8, ptr %4, i64 -1
  store ptr %add.ptr, ptr %__ninp_.i, align 8, !tbaa !46
  %__einp_.i = getelementptr inbounds %"class.std::__1::basic_streambuf", ptr %this, i64 0, i32 4
  store ptr %2, ptr %__einp_.i, align 8, !tbaa !49
  br label %return

if.end15:                                         ; preds = %if.then7
  %__mode_ = getelementptr inbounds %"class.std::__1::basic_stringbuf", ptr %this, i64 0, i32 3
  %5 = load i32, ptr %__mode_, align 8, !tbaa !36
  %and = and i32 %5, 16
  %tobool.not = icmp eq i32 %and, 0
  %conv.i = trunc i32 %__c to i8
  br i1 %tobool.not, label %lor.lhs.false, label %if.then19

lor.lhs.false:                                    ; preds = %if.end15
  %arrayidx = getelementptr inbounds i8, ptr %4, i64 -1
  %6 = load i8, ptr %arrayidx, align 1, !tbaa !21
  %cmp.i39 = icmp eq i8 %6, %conv.i
  br i1 %cmp.i39, label %if.then19, label %return

if.then19:                                        ; preds = %if.end15, %lor.lhs.false
  %add.ptr22 = getelementptr inbounds i8, ptr %4, i64 -1
  store ptr %add.ptr22, ptr %__ninp_.i, align 8, !tbaa !46
  %__einp_.i44 = getelementptr inbounds %"class.std::__1::basic_streambuf", ptr %this, i64 0, i32 4
  store ptr %2, ptr %__einp_.i44, align 8, !tbaa !49
  store i8 %conv.i, ptr %add.ptr22, align 1, !tbaa !21
  br label %return

return:                                           ; preds = %if.end, %lor.lhs.false, %if.then19, %if.then10
  %retval.0 = phi i32 [ 0, %if.then10 ], [ %__c, %if.then19 ], [ -1, %lor.lhs.false ], [ -1, %if.end ]
  ret i32 %retval.0
}

declare noundef i64 @_ZNSt3__115basic_streambufIcNS_11char_traitsIcEEE6xsputnEPKcl(ptr noundef nonnull align 8 dereferenceable(64), ptr noundef, i64 noundef) unnamed_addr #0

; Function Attrs: mustprogress uwtable
define linkonce_odr hidden noundef i32 @_ZNSt3__115basic_stringbufIcNS_11char_traitsIcEENS_9allocatorIcEEE8overflowEi(ptr noundef nonnull align 8 dereferenceable(100) %this, i32 noundef %__c) unnamed_addr #2 comdat align 2 personality ptr @__gxx_personality_v0 {
entry:
  %cmp.i = icmp eq i32 %__c, -1
  br i1 %cmp.i, label %return, label %if.then

if.then:                                          ; preds = %entry
  %__ninp_.i = getelementptr inbounds %"class.std::__1::basic_streambuf", ptr %this, i64 0, i32 3
  %0 = load ptr, ptr %__ninp_.i, align 8, !tbaa !46
  %__binp_.i = getelementptr inbounds %"class.std::__1::basic_streambuf", ptr %this, i64 0, i32 2
  %1 = load ptr, ptr %__binp_.i, align 8, !tbaa !47
  %sub.ptr.lhs.cast = ptrtoint ptr %0 to i64
  %sub.ptr.rhs.cast = ptrtoint ptr %1 to i64
  %sub.ptr.sub = sub i64 %sub.ptr.lhs.cast, %sub.ptr.rhs.cast
  %__nout_.i = getelementptr inbounds %"class.std::__1::basic_streambuf", ptr %this, i64 0, i32 6
  %2 = load ptr, ptr %__nout_.i, align 8, !tbaa !45
  %__eout_.i = getelementptr inbounds %"class.std::__1::basic_streambuf", ptr %this, i64 0, i32 7
  %3 = load ptr, ptr %__eout_.i, align 8, !tbaa !50
  %cmp = icmp eq ptr %2, %3
  br i1 %cmp, label %if.then7, label %if.then.if.end34_crit_edge

if.then.if.end34_crit_edge:                       ; preds = %if.then
  %__hm_37.phi.trans.insert = getelementptr inbounds %"class.std::__1::basic_stringbuf", ptr %this, i64 0, i32 2
  %.pre = load ptr, ptr %__hm_37.phi.trans.insert, align 8, !tbaa !20
  br label %if.end34

if.then7:                                         ; preds = %if.then
  %__mode_ = getelementptr inbounds %"class.std::__1::basic_stringbuf", ptr %this, i64 0, i32 3
  %4 = load i32, ptr %__mode_, align 8, !tbaa !36
  %and = and i32 %4, 16
  %tobool.not = icmp eq i32 %and, 0
  br i1 %tobool.not, label %return, label %if.end

if.end:                                           ; preds = %if.then7
  %__bout_.i = getelementptr inbounds %"class.std::__1::basic_streambuf", ptr %this, i64 0, i32 5
  %5 = load ptr, ptr %__bout_.i, align 8, !tbaa !48
  %sub.ptr.lhs.cast12 = ptrtoint ptr %2 to i64
  %sub.ptr.rhs.cast13 = ptrtoint ptr %5 to i64
  %sub.ptr.sub14 = sub i64 %sub.ptr.lhs.cast12, %sub.ptr.rhs.cast13
  %__hm_ = getelementptr inbounds %"class.std::__1::basic_stringbuf", ptr %this, i64 0, i32 2
  %6 = load ptr, ptr %__hm_, align 8, !tbaa !44
  %sub.ptr.lhs.cast16 = ptrtoint ptr %6 to i64
  %sub.ptr.sub18 = sub i64 %sub.ptr.lhs.cast16, %sub.ptr.rhs.cast13
  %__str_ = getelementptr inbounds %"class.std::__1::basic_stringbuf", ptr %this, i64 0, i32 1
  invoke void @_ZNSt3__112basic_stringIcNS_11char_traitsIcEENS_9allocatorIcEEE9push_backEc(ptr noundef nonnull align 8 dereferenceable(24) %__str_, i8 noundef signext 0)
          to label %invoke.cont unwind label %lpad

invoke.cont:                                      ; preds = %if.end
  %bf.load.i.i = load i8, ptr %__str_, align 8
  %bf.clear.i.i = and i8 %bf.load.i.i, 1
  %tobool.i.not.i = icmp eq i8 %bf.clear.i.i, 0
  %bf.load.i3.i = load i64, ptr %__str_, align 8
  %bf.lshr.i.i = and i64 %bf.load.i3.i, -2
  %7 = add i64 %bf.lshr.i.i, -1
  %cond.i = select i1 %tobool.i.not.i, i64 22, i64 %7
  invoke void @_ZNSt3__112basic_stringIcNS_11char_traitsIcEENS_9allocatorIcEEE6resizeEmc(ptr noundef nonnull align 8 dereferenceable(24) %__str_, i64 noundef %cond.i, i8 noundef signext 0)
          to label %invoke.cont22 unwind label %lpad

invoke.cont22:                                    ; preds = %invoke.cont
  %bf.load.i.i.i = load i8, ptr %__str_, align 8
  %bf.clear.i.i.i = and i8 %bf.load.i.i.i, 1
  %tobool.i.not.i.i = icmp eq i8 %bf.clear.i.i.i, 0
  %__data_.i.i.i = getelementptr inbounds %"class.std::__1::basic_stringbuf", ptr %this, i64 0, i32 1, i32 0, i32 0, i32 0, i32 0, i32 0, i32 2
  %8 = load ptr, ptr %__data_.i.i.i, align 8
  %__data_.i4.i.i = getelementptr inbounds i8, ptr %this, i64 65
  %cond.i.i = select i1 %tobool.i.not.i.i, ptr %__data_.i4.i.i, ptr %8
  %__size_.i.i = getelementptr inbounds %"class.std::__1::basic_stringbuf", ptr %this, i64 0, i32 1, i32 0, i32 0, i32 0, i32 0, i32 0, i32 1
  %9 = load i64, ptr %__size_.i.i, align 8
  %bf.lshr.i.i63 = lshr i8 %bf.load.i.i.i, 1
  %conv.i.i = zext i8 %bf.lshr.i.i63 to i64
  %cond.i64 = select i1 %tobool.i.not.i.i, i64 %conv.i.i, i64 %9
  %add.ptr = getelementptr inbounds i8, ptr %cond.i.i, i64 %cond.i64
  store ptr %cond.i.i, ptr %__bout_.i, align 8, !tbaa !48
  store ptr %add.ptr, ptr %__eout_.i, align 8, !tbaa !50
  %add.ptr.i = getelementptr inbounds i8, ptr %cond.i.i, i64 %sub.ptr.sub14
  store ptr %add.ptr.i, ptr %__nout_.i, align 8, !tbaa !45
  %add.ptr30 = getelementptr inbounds i8, ptr %cond.i.i, i64 %sub.ptr.sub18
  br label %if.end34

lpad:                                             ; preds = %invoke.cont, %if.end
  %10 = landingpad { ptr, i32 }
          catch ptr null
  %11 = extractvalue { ptr, i32 } %10, 0
  %12 = tail call ptr @__cxa_begin_catch(ptr %11) #23
  tail call void @__cxa_end_catch()
  br label %return

if.end34:                                         ; preds = %if.then.if.end34_crit_edge, %invoke.cont22
  %13 = phi ptr [ %add.ptr, %invoke.cont22 ], [ %3, %if.then.if.end34_crit_edge ]
  %14 = phi ptr [ %add.ptr30, %invoke.cont22 ], [ %.pre, %if.then.if.end34_crit_edge ]
  %15 = phi ptr [ %add.ptr.i, %invoke.cont22 ], [ %2, %if.then.if.end34_crit_edge ]
  %add.ptr36 = getelementptr inbounds i8, ptr %15, i64 1
  %__hm_37 = getelementptr inbounds %"class.std::__1::basic_stringbuf", ptr %this, i64 0, i32 2
  %cmp.i.i.i = icmp ult ptr %add.ptr36, %14
  %.sroa.speculated = select i1 %cmp.i.i.i, ptr %14, ptr %add.ptr36
  store ptr %.sroa.speculated, ptr %__hm_37, align 8, !tbaa !44
  %__mode_40 = getelementptr inbounds %"class.std::__1::basic_stringbuf", ptr %this, i64 0, i32 3
  %16 = load i32, ptr %__mode_40, align 8, !tbaa !36
  %and41 = and i32 %16, 8
  %tobool42.not = icmp eq i32 %and41, 0
  br i1 %tobool42.not, label %if.end49, label %if.then43

if.then43:                                        ; preds = %if.end34
  %__str_45 = getelementptr inbounds %"class.std::__1::basic_stringbuf", ptr %this, i64 0, i32 1
  %bf.load.i.i.i71 = load i8, ptr %__str_45, align 8
  %bf.clear.i.i.i72 = and i8 %bf.load.i.i.i71, 1
  %tobool.i.not.i.i73 = icmp eq i8 %bf.clear.i.i.i72, 0
  %__data_.i.i.i74 = getelementptr inbounds %"class.std::__1::basic_stringbuf", ptr %this, i64 0, i32 1, i32 0, i32 0, i32 0, i32 0, i32 0, i32 2
  %17 = load ptr, ptr %__data_.i.i.i74, align 8
  %__data_.i4.i.i75 = getelementptr inbounds i8, ptr %this, i64 65
  %cond.i.i76 = select i1 %tobool.i.not.i.i73, ptr %__data_.i4.i.i75, ptr %17
  %add.ptr47 = getelementptr inbounds i8, ptr %cond.i.i76, i64 %sub.ptr.sub
  store ptr %cond.i.i76, ptr %__binp_.i, align 8, !tbaa !47
  store ptr %add.ptr47, ptr %__ninp_.i, align 8, !tbaa !46
  %__einp_.i = getelementptr inbounds %"class.std::__1::basic_streambuf", ptr %this, i64 0, i32 4
  store ptr %.sroa.speculated, ptr %__einp_.i, align 8, !tbaa !49
  br label %if.end49

if.end49:                                         ; preds = %if.then43, %if.end34
  %cmp.i81 = icmp eq ptr %15, %13
  br i1 %cmp.i81, label %if.then.i, label %if.end.i

if.then.i:                                        ; preds = %if.end49
  %conv.i.i82 = and i32 %__c, 255
  %vtable.i = load ptr, ptr %this, align 8, !tbaa !5
  %vfn.i = getelementptr inbounds ptr, ptr %vtable.i, i64 13
  %18 = load ptr, ptr %vfn.i, align 8
  %call2.i = tail call noundef i32 %18(ptr noundef nonnull align 8 dereferenceable(64) %this, i32 noundef %conv.i.i82)
  br label %return

if.end.i:                                         ; preds = %if.end49
  %conv.i = trunc i32 %__c to i8
  store ptr %add.ptr36, ptr %__nout_.i, align 8, !tbaa !45
  store i8 %conv.i, ptr %15, align 1, !tbaa !21
  %conv.i7.i = and i32 %__c, 255
  br label %return

return:                                           ; preds = %entry, %if.end.i, %if.then.i, %if.then7, %lpad
  %retval.1 = phi i32 [ -1, %lpad ], [ -1, %if.then7 ], [ %call2.i, %if.then.i ], [ %conv.i7.i, %if.end.i ], [ 0, %entry ]
  ret i32 %retval.1
}

; Function Attrs: noinline noreturn nounwind
define linkonce_odr hidden void @__clang_call_terminate(ptr noundef %0) local_unnamed_addr #11 comdat {
  %2 = tail call ptr @__cxa_begin_catch(ptr %0) #23
  tail call void @_ZSt9terminatev() #26
  unreachable
}

declare ptr @__cxa_begin_catch(ptr) local_unnamed_addr

declare void @_ZSt9terminatev() local_unnamed_addr

; Function Attrs: mustprogress nocallback nofree nounwind willreturn memory(argmem: write)
declare void @llvm.memset.p0.i64(ptr nocapture writeonly, i8, i64, i1 immarg) #12

; Function Attrs: mustprogress nocallback nofree nounwind willreturn memory(argmem: readwrite)
declare void @llvm.memcpy.p0.p0.i64(ptr noalias nocapture writeonly, ptr noalias nocapture readonly, i64, i1 immarg) #13

; Function Attrs: nounwind
declare void @_ZNSt3__115basic_streambufIcNS_11char_traitsIcEEED2Ev(ptr noundef nonnull align 8 dereferenceable(64)) unnamed_addr #10

declare void @_ZNSt3__112basic_stringIcNS_11char_traitsIcEENS_9allocatorIcEEE9push_backEc(ptr noundef nonnull align 8 dereferenceable(24), i8 noundef signext) local_unnamed_addr #0

declare void @__cxa_end_catch() local_unnamed_addr

declare void @_ZNSt3__112basic_stringIcNS_11char_traitsIcEENS_9allocatorIcEEE6resizeEmc(ptr noundef nonnull align 8 dereferenceable(24), i64 noundef, i8 noundef signext) local_unnamed_addr #0

declare noundef nonnull align 8 dereferenceable(8) ptr @_ZNSt3__113basic_ostreamIcNS_11char_traitsIcEEElsEi(ptr noundef nonnull align 8 dereferenceable(8), i32 noundef) local_unnamed_addr #0

; Function Attrs: uwtable
define linkonce_odr hidden void @_ZNKSt3__115basic_stringbufIcNS_11char_traitsIcEENS_9allocatorIcEEE3strEv(ptr noalias sret(%"class.std::__1::basic_string") align 8 %agg.result, ptr noundef nonnull align 8 dereferenceable(100) %this) local_unnamed_addr #6 comdat align 2 personality ptr @__gxx_personality_v0 {
entry:
  %__mode_ = getelementptr inbounds %"class.std::__1::basic_stringbuf", ptr %this, i64 0, i32 3
  %0 = load i32, ptr %__mode_, align 8, !tbaa !36
  %and = and i32 %0, 16
  %tobool.not = icmp eq i32 %and, 0
  br i1 %tobool.not, label %if.else, label %if.then

if.then:                                          ; preds = %entry
  %__hm_ = getelementptr inbounds %"class.std::__1::basic_stringbuf", ptr %this, i64 0, i32 2
  %1 = load ptr, ptr %__hm_, align 8, !tbaa !44
  %2 = ptrtoint ptr %1 to i64
  %__nout_.i = getelementptr inbounds %"class.std::__1::basic_streambuf", ptr %this, i64 0, i32 6
  %3 = load ptr, ptr %__nout_.i, align 8, !tbaa !45
  %4 = ptrtoint ptr %3 to i64
  %cmp = icmp ult ptr %1, %3
  br i1 %cmp, label %if.then2, label %if.end

if.then2:                                         ; preds = %if.then
  store ptr %3, ptr %__hm_, align 8, !tbaa !44
  br label %if.end

if.end:                                           ; preds = %if.then2, %if.then
  %5 = phi ptr [ %3, %if.then2 ], [ %1, %if.then ]
  %__bout_.i = getelementptr inbounds %"class.std::__1::basic_streambuf", ptr %this, i64 0, i32 5
  %6 = load ptr, ptr %__bout_.i, align 8, !tbaa !48
  %7 = ptrtoint ptr %6 to i64
  %sub.ptr.lhs.cast.i.i.i.i = ptrtoint ptr %5 to i64
  %sub.ptr.rhs.cast.i.i.i.i = ptrtoint ptr %6 to i64
  %sub.ptr.sub.i.i.i.i = sub i64 %sub.ptr.lhs.cast.i.i.i.i, %sub.ptr.rhs.cast.i.i.i.i
  %cmp.i.i = icmp ugt i64 %sub.ptr.sub.i.i.i.i, -17
  br i1 %cmp.i.i, label %if.then.i.i, label %if.end.i.i

if.then.i.i:                                      ; preds = %if.end
  tail call void @_ZNKSt3__112basic_stringIcNS_11char_traitsIcEENS_9allocatorIcEEE20__throw_length_errorB7v170000Ev(ptr noundef nonnull align 8 dereferenceable(24) %agg.result) #27
  unreachable

if.end.i.i:                                       ; preds = %if.end
  %cmp.i.i.i = icmp ult i64 %sub.ptr.sub.i.i.i.i, 23
  br i1 %cmp.i.i.i, label %if.then4.i.i, label %if.else.i.i

if.then4.i.i:                                     ; preds = %if.end.i.i
  %conv.i.i.i = trunc i64 %sub.ptr.sub.i.i.i.i to i8
  %bf.shl.i.i.i = shl nuw nsw i8 %conv.i.i.i, 1
  store i8 %bf.shl.i.i.i, ptr %agg.result, align 8
  %__data_.i.i.i = getelementptr inbounds %"struct.std::__1::basic_string<char>::__short", ptr %agg.result, i64 0, i32 2
  br label %if.end10.i.i

if.else.i.i:                                      ; preds = %if.end.i.i
  %sub.i.i.i = or i64 %sub.ptr.sub.i.i.i.i, 15
  %add.i.i = add i64 %sub.i.i.i, 1
  %call.i.i.i.i.i.i = tail call noalias noundef nonnull ptr @_Znwm(i64 noundef %add.i.i) #25
  %__data_.i27.i.i = getelementptr inbounds %"struct.std::__1::basic_string<char>::__long", ptr %agg.result, i64 0, i32 2
  store ptr %call.i.i.i.i.i.i, ptr %__data_.i27.i.i, align 8, !tbaa !21
  %bf.set6.i.i.i = or i64 %add.i.i, 1
  store i64 %bf.set6.i.i.i, ptr %agg.result, align 8
  %__size_.i.i.i = getelementptr inbounds %"struct.std::__1::basic_string<char>::__long", ptr %agg.result, i64 0, i32 1
  store i64 %sub.ptr.sub.i.i.i.i, ptr %__size_.i.i.i, align 8, !tbaa !21
  br label %if.end10.i.i

if.end10.i.i:                                     ; preds = %if.else.i.i, %if.then4.i.i
  %__p.0.i.i = phi ptr [ %__data_.i.i.i, %if.then4.i.i ], [ %call.i.i.i.i.i.i, %if.else.i.i ]
  %cmp11.not28.i.i = icmp eq ptr %6, %5
  br i1 %cmp11.not28.i.i, label %_ZNSt3__112basic_stringIcNS_11char_traitsIcEENS_9allocatorIcEEEC2B7v170000IPcvEET_S8_RKS4_.exit, label %for.body.i.i.preheader

for.body.i.i.preheader:                           ; preds = %if.end10.i.i
  %__p.0.i.i51 = ptrtoint ptr %__p.0.i.i to i64
  %umax = tail call i64 @llvm.umax.i64(i64 %2, i64 %4)
  %8 = sub i64 %umax, %7
  %min.iters.check = icmp ult i64 %8, 32
  %9 = sub i64 %__p.0.i.i51, %7
  %diff.check = icmp ult i64 %9, 32
  %or.cond = select i1 %min.iters.check, i1 true, i1 %diff.check
  br i1 %or.cond, label %for.body.i.i.preheader83, label %vector.ph

vector.ph:                                        ; preds = %for.body.i.i.preheader
  %n.vec = and i64 %8, -32
  %ind.end = getelementptr i8, ptr %6, i64 %n.vec
  %ind.end52 = getelementptr i8, ptr %__p.0.i.i, i64 %n.vec
  br label %vector.body

vector.body:                                      ; preds = %vector.body, %vector.ph
  %index = phi i64 [ 0, %vector.ph ], [ %index.next, %vector.body ]
  %next.gep = getelementptr i8, ptr %6, i64 %index
  %next.gep55 = getelementptr i8, ptr %__p.0.i.i, i64 %index
  %wide.load = load <16 x i8>, ptr %next.gep, align 1, !tbaa !21
  %10 = getelementptr i8, ptr %next.gep, i64 16
  %wide.load57 = load <16 x i8>, ptr %10, align 1, !tbaa !21
  store <16 x i8> %wide.load, ptr %next.gep55, align 1, !tbaa !21
  %11 = getelementptr i8, ptr %next.gep55, i64 16
  store <16 x i8> %wide.load57, ptr %11, align 1, !tbaa !21
  %index.next = add nuw i64 %index, 32
  %12 = icmp eq i64 %index.next, %n.vec
  br i1 %12, label %middle.block, label %vector.body, !llvm.loop !51

middle.block:                                     ; preds = %vector.body
  %cmp.n = icmp eq i64 %8, %n.vec
  br i1 %cmp.n, label %_ZNSt3__112basic_stringIcNS_11char_traitsIcEENS_9allocatorIcEEEC2B7v170000IPcvEET_S8_RKS4_.exit, label %for.body.i.i.preheader83

for.body.i.i.preheader83:                         ; preds = %for.body.i.i.preheader, %middle.block
  %__first.addr.030.i.i.ph = phi ptr [ %6, %for.body.i.i.preheader ], [ %ind.end, %middle.block ]
  %__p.129.i.i.ph = phi ptr [ %__p.0.i.i, %for.body.i.i.preheader ], [ %ind.end52, %middle.block ]
  br label %for.body.i.i

for.body.i.i:                                     ; preds = %for.body.i.i.preheader83, %for.body.i.i
  %__first.addr.030.i.i = phi ptr [ %incdec.ptr.i.i, %for.body.i.i ], [ %__first.addr.030.i.i.ph, %for.body.i.i.preheader83 ]
  %__p.129.i.i = phi ptr [ %incdec.ptr12.i.i, %for.body.i.i ], [ %__p.129.i.i.ph, %for.body.i.i.preheader83 ]
  %13 = load i8, ptr %__first.addr.030.i.i, align 1, !tbaa !21
  store i8 %13, ptr %__p.129.i.i, align 1, !tbaa !21
  %incdec.ptr.i.i = getelementptr inbounds i8, ptr %__first.addr.030.i.i, i64 1
  %incdec.ptr12.i.i = getelementptr inbounds i8, ptr %__p.129.i.i, i64 1
  %cmp11.not.i.i = icmp eq ptr %incdec.ptr.i.i, %5
  br i1 %cmp11.not.i.i, label %_ZNSt3__112basic_stringIcNS_11char_traitsIcEENS_9allocatorIcEEEC2B7v170000IPcvEET_S8_RKS4_.exit, label %for.body.i.i, !llvm.loop !55

_ZNSt3__112basic_stringIcNS_11char_traitsIcEENS_9allocatorIcEEEC2B7v170000IPcvEET_S8_RKS4_.exit: ; preds = %for.body.i.i, %middle.block, %if.end10.i.i
  %__p.1.lcssa.i.i = phi ptr [ %__p.0.i.i, %if.end10.i.i ], [ %ind.end52, %middle.block ], [ %incdec.ptr12.i.i, %for.body.i.i ]
  store i8 0, ptr %__p.1.lcssa.i.i, align 1, !tbaa !21
  br label %return

if.else:                                          ; preds = %entry
  %and8 = and i32 %0, 8
  %tobool9.not = icmp eq i32 %and8, 0
  br i1 %tobool9.not, label %if.end17, label %if.then10

if.then10:                                        ; preds = %if.else
  %__binp_.i = getelementptr inbounds %"class.std::__1::basic_streambuf", ptr %this, i64 0, i32 2
  %14 = load ptr, ptr %__binp_.i, align 8, !tbaa !47
  %15 = ptrtoint ptr %14 to i64
  %__einp_.i = getelementptr inbounds %"class.std::__1::basic_streambuf", ptr %this, i64 0, i32 4
  %16 = load ptr, ptr %__einp_.i, align 8, !tbaa !49
  %sub.ptr.lhs.cast.i.i.i.i22 = ptrtoint ptr %16 to i64
  %sub.ptr.rhs.cast.i.i.i.i23 = ptrtoint ptr %14 to i64
  %sub.ptr.sub.i.i.i.i24 = sub i64 %sub.ptr.lhs.cast.i.i.i.i22, %sub.ptr.rhs.cast.i.i.i.i23
  %cmp.i.i25 = icmp ugt i64 %sub.ptr.sub.i.i.i.i24, -17
  br i1 %cmp.i.i25, label %if.then.i.i26, label %if.end.i.i28

if.then.i.i26:                                    ; preds = %if.then10
  tail call void @_ZNKSt3__112basic_stringIcNS_11char_traitsIcEENS_9allocatorIcEEE20__throw_length_errorB7v170000Ev(ptr noundef nonnull align 8 dereferenceable(24) %agg.result) #27
  unreachable

if.end.i.i28:                                     ; preds = %if.then10
  %cmp.i.i.i27 = icmp ult i64 %sub.ptr.sub.i.i.i.i24, 23
  br i1 %cmp.i.i.i27, label %if.then4.i.i32, label %if.else.i.i39

if.then4.i.i32:                                   ; preds = %if.end.i.i28
  %conv.i.i.i29 = trunc i64 %sub.ptr.sub.i.i.i.i24 to i8
  %bf.shl.i.i.i30 = shl nuw nsw i8 %conv.i.i.i29, 1
  store i8 %bf.shl.i.i.i30, ptr %agg.result, align 8
  %__data_.i.i.i31 = getelementptr inbounds %"struct.std::__1::basic_string<char>::__short", ptr %agg.result, i64 0, i32 2
  br label %if.end10.i.i42

if.else.i.i39:                                    ; preds = %if.end.i.i28
  %sub.i.i.i33 = or i64 %sub.ptr.sub.i.i.i.i24, 15
  %add.i.i34 = add i64 %sub.i.i.i33, 1
  %call.i.i.i.i.i.i35 = tail call noalias noundef nonnull ptr @_Znwm(i64 noundef %add.i.i34) #25
  %__data_.i27.i.i36 = getelementptr inbounds %"struct.std::__1::basic_string<char>::__long", ptr %agg.result, i64 0, i32 2
  store ptr %call.i.i.i.i.i.i35, ptr %__data_.i27.i.i36, align 8, !tbaa !21
  %bf.set6.i.i.i37 = or i64 %add.i.i34, 1
  store i64 %bf.set6.i.i.i37, ptr %agg.result, align 8
  %__size_.i.i.i38 = getelementptr inbounds %"struct.std::__1::basic_string<char>::__long", ptr %agg.result, i64 0, i32 1
  store i64 %sub.ptr.sub.i.i.i.i24, ptr %__size_.i.i.i38, align 8, !tbaa !21
  br label %if.end10.i.i42

if.end10.i.i42:                                   ; preds = %if.else.i.i39, %if.then4.i.i32
  %__p.0.i.i40 = phi ptr [ %__data_.i.i.i31, %if.then4.i.i32 ], [ %call.i.i.i.i.i.i35, %if.else.i.i39 ]
  %cmp11.not28.i.i41 = icmp eq ptr %14, %16
  br i1 %cmp11.not28.i.i41, label %_ZNSt3__112basic_stringIcNS_11char_traitsIcEENS_9allocatorIcEEEC2B7v170000IPcvEET_S8_RKS4_.exit50, label %for.body.i.i48.preheader

for.body.i.i48.preheader:                         ; preds = %if.end10.i.i42
  %__p.0.i.i4059 = ptrtoint ptr %__p.0.i.i40 to i64
  %17 = sub i64 %sub.ptr.lhs.cast.i.i.i.i22, %15
  %min.iters.check63 = icmp ult i64 %17, 32
  %18 = sub i64 %__p.0.i.i4059, %15
  %diff.check60 = icmp ult i64 %18, 32
  %or.cond81 = select i1 %min.iters.check63, i1 true, i1 %diff.check60
  br i1 %or.cond81, label %for.body.i.i48.preheader82, label %vector.ph64

vector.ph64:                                      ; preds = %for.body.i.i48.preheader
  %n.vec66 = and i64 %17, -32
  %ind.end67 = getelementptr i8, ptr %14, i64 %n.vec66
  %ind.end69 = getelementptr i8, ptr %__p.0.i.i40, i64 %n.vec66
  br label %vector.body72

vector.body72:                                    ; preds = %vector.body72, %vector.ph64
  %index73 = phi i64 [ 0, %vector.ph64 ], [ %index.next80, %vector.body72 ]
  %next.gep74 = getelementptr i8, ptr %14, i64 %index73
  %next.gep76 = getelementptr i8, ptr %__p.0.i.i40, i64 %index73
  %wide.load78 = load <16 x i8>, ptr %next.gep74, align 1, !tbaa !21
  %19 = getelementptr i8, ptr %next.gep74, i64 16
  %wide.load79 = load <16 x i8>, ptr %19, align 1, !tbaa !21
  store <16 x i8> %wide.load78, ptr %next.gep76, align 1, !tbaa !21
  %20 = getelementptr i8, ptr %next.gep76, i64 16
  store <16 x i8> %wide.load79, ptr %20, align 1, !tbaa !21
  %index.next80 = add nuw i64 %index73, 32
  %21 = icmp eq i64 %index.next80, %n.vec66
  br i1 %21, label %middle.block61, label %vector.body72, !llvm.loop !56

middle.block61:                                   ; preds = %vector.body72
  %cmp.n71 = icmp eq i64 %17, %n.vec66
  br i1 %cmp.n71, label %_ZNSt3__112basic_stringIcNS_11char_traitsIcEENS_9allocatorIcEEEC2B7v170000IPcvEET_S8_RKS4_.exit50, label %for.body.i.i48.preheader82

for.body.i.i48.preheader82:                       ; preds = %for.body.i.i48.preheader, %middle.block61
  %__first.addr.030.i.i43.ph = phi ptr [ %14, %for.body.i.i48.preheader ], [ %ind.end67, %middle.block61 ]
  %__p.129.i.i44.ph = phi ptr [ %__p.0.i.i40, %for.body.i.i48.preheader ], [ %ind.end69, %middle.block61 ]
  %__first.addr.030.i.i43.ph84 = ptrtoint ptr %__first.addr.030.i.i43.ph to i64
  %22 = sub i64 %sub.ptr.lhs.cast.i.i.i.i22, %__first.addr.030.i.i43.ph84
  %23 = xor i64 %__first.addr.030.i.i43.ph84, -1
  %24 = add i64 %23, %sub.ptr.lhs.cast.i.i.i.i22
  %xtraiter = and i64 %22, 7
  %lcmp.mod.not = icmp eq i64 %xtraiter, 0
  br i1 %lcmp.mod.not, label %for.body.i.i48.prol.loopexit, label %for.body.i.i48.prol

for.body.i.i48.prol:                              ; preds = %for.body.i.i48.preheader82, %for.body.i.i48.prol
  %__first.addr.030.i.i43.prol = phi ptr [ %incdec.ptr.i.i45.prol, %for.body.i.i48.prol ], [ %__first.addr.030.i.i43.ph, %for.body.i.i48.preheader82 ]
  %__p.129.i.i44.prol = phi ptr [ %incdec.ptr12.i.i46.prol, %for.body.i.i48.prol ], [ %__p.129.i.i44.ph, %for.body.i.i48.preheader82 ]
  %prol.iter = phi i64 [ %prol.iter.next, %for.body.i.i48.prol ], [ 0, %for.body.i.i48.preheader82 ]
  %25 = load i8, ptr %__first.addr.030.i.i43.prol, align 1, !tbaa !21
  store i8 %25, ptr %__p.129.i.i44.prol, align 1, !tbaa !21
  %incdec.ptr.i.i45.prol = getelementptr inbounds i8, ptr %__first.addr.030.i.i43.prol, i64 1
  %incdec.ptr12.i.i46.prol = getelementptr inbounds i8, ptr %__p.129.i.i44.prol, i64 1
  %prol.iter.next = add i64 %prol.iter, 1
  %prol.iter.cmp.not = icmp eq i64 %prol.iter.next, %xtraiter
  br i1 %prol.iter.cmp.not, label %for.body.i.i48.prol.loopexit, label %for.body.i.i48.prol, !llvm.loop !57

for.body.i.i48.prol.loopexit:                     ; preds = %for.body.i.i48.prol, %for.body.i.i48.preheader82
  %incdec.ptr12.i.i46.lcssa.unr = phi ptr [ undef, %for.body.i.i48.preheader82 ], [ %incdec.ptr12.i.i46.prol, %for.body.i.i48.prol ]
  %__first.addr.030.i.i43.unr = phi ptr [ %__first.addr.030.i.i43.ph, %for.body.i.i48.preheader82 ], [ %incdec.ptr.i.i45.prol, %for.body.i.i48.prol ]
  %__p.129.i.i44.unr = phi ptr [ %__p.129.i.i44.ph, %for.body.i.i48.preheader82 ], [ %incdec.ptr12.i.i46.prol, %for.body.i.i48.prol ]
  %26 = icmp ult i64 %24, 7
  br i1 %26, label %_ZNSt3__112basic_stringIcNS_11char_traitsIcEENS_9allocatorIcEEEC2B7v170000IPcvEET_S8_RKS4_.exit50, label %for.body.i.i48

for.body.i.i48:                                   ; preds = %for.body.i.i48.prol.loopexit, %for.body.i.i48
  %__first.addr.030.i.i43 = phi ptr [ %incdec.ptr.i.i45.7, %for.body.i.i48 ], [ %__first.addr.030.i.i43.unr, %for.body.i.i48.prol.loopexit ]
  %__p.129.i.i44 = phi ptr [ %incdec.ptr12.i.i46.7, %for.body.i.i48 ], [ %__p.129.i.i44.unr, %for.body.i.i48.prol.loopexit ]
  %27 = load i8, ptr %__first.addr.030.i.i43, align 1, !tbaa !21
  store i8 %27, ptr %__p.129.i.i44, align 1, !tbaa !21
  %incdec.ptr.i.i45 = getelementptr inbounds i8, ptr %__first.addr.030.i.i43, i64 1
  %incdec.ptr12.i.i46 = getelementptr inbounds i8, ptr %__p.129.i.i44, i64 1
  %28 = load i8, ptr %incdec.ptr.i.i45, align 1, !tbaa !21
  store i8 %28, ptr %incdec.ptr12.i.i46, align 1, !tbaa !21
  %incdec.ptr.i.i45.1 = getelementptr inbounds i8, ptr %__first.addr.030.i.i43, i64 2
  %incdec.ptr12.i.i46.1 = getelementptr inbounds i8, ptr %__p.129.i.i44, i64 2
  %29 = load i8, ptr %incdec.ptr.i.i45.1, align 1, !tbaa !21
  store i8 %29, ptr %incdec.ptr12.i.i46.1, align 1, !tbaa !21
  %incdec.ptr.i.i45.2 = getelementptr inbounds i8, ptr %__first.addr.030.i.i43, i64 3
  %incdec.ptr12.i.i46.2 = getelementptr inbounds i8, ptr %__p.129.i.i44, i64 3
  %30 = load i8, ptr %incdec.ptr.i.i45.2, align 1, !tbaa !21
  store i8 %30, ptr %incdec.ptr12.i.i46.2, align 1, !tbaa !21
  %incdec.ptr.i.i45.3 = getelementptr inbounds i8, ptr %__first.addr.030.i.i43, i64 4
  %incdec.ptr12.i.i46.3 = getelementptr inbounds i8, ptr %__p.129.i.i44, i64 4
  %31 = load i8, ptr %incdec.ptr.i.i45.3, align 1, !tbaa !21
  store i8 %31, ptr %incdec.ptr12.i.i46.3, align 1, !tbaa !21
  %incdec.ptr.i.i45.4 = getelementptr inbounds i8, ptr %__first.addr.030.i.i43, i64 5
  %incdec.ptr12.i.i46.4 = getelementptr inbounds i8, ptr %__p.129.i.i44, i64 5
  %32 = load i8, ptr %incdec.ptr.i.i45.4, align 1, !tbaa !21
  store i8 %32, ptr %incdec.ptr12.i.i46.4, align 1, !tbaa !21
  %incdec.ptr.i.i45.5 = getelementptr inbounds i8, ptr %__first.addr.030.i.i43, i64 6
  %incdec.ptr12.i.i46.5 = getelementptr inbounds i8, ptr %__p.129.i.i44, i64 6
  %33 = load i8, ptr %incdec.ptr.i.i45.5, align 1, !tbaa !21
  store i8 %33, ptr %incdec.ptr12.i.i46.5, align 1, !tbaa !21
  %incdec.ptr.i.i45.6 = getelementptr inbounds i8, ptr %__first.addr.030.i.i43, i64 7
  %incdec.ptr12.i.i46.6 = getelementptr inbounds i8, ptr %__p.129.i.i44, i64 7
  %34 = load i8, ptr %incdec.ptr.i.i45.6, align 1, !tbaa !21
  store i8 %34, ptr %incdec.ptr12.i.i46.6, align 1, !tbaa !21
  %incdec.ptr.i.i45.7 = getelementptr inbounds i8, ptr %__first.addr.030.i.i43, i64 8
  %incdec.ptr12.i.i46.7 = getelementptr inbounds i8, ptr %__p.129.i.i44, i64 8
  %cmp11.not.i.i47.7 = icmp eq ptr %incdec.ptr.i.i45.7, %16
  br i1 %cmp11.not.i.i47.7, label %_ZNSt3__112basic_stringIcNS_11char_traitsIcEENS_9allocatorIcEEEC2B7v170000IPcvEET_S8_RKS4_.exit50, label %for.body.i.i48, !llvm.loop !59

_ZNSt3__112basic_stringIcNS_11char_traitsIcEENS_9allocatorIcEEEC2B7v170000IPcvEET_S8_RKS4_.exit50: ; preds = %for.body.i.i48.prol.loopexit, %for.body.i.i48, %middle.block61, %if.end10.i.i42
  %__p.1.lcssa.i.i49 = phi ptr [ %__p.0.i.i40, %if.end10.i.i42 ], [ %ind.end69, %middle.block61 ], [ %incdec.ptr12.i.i46.lcssa.unr, %for.body.i.i48.prol.loopexit ], [ %incdec.ptr12.i.i46.7, %for.body.i.i48 ]
  store i8 0, ptr %__p.1.lcssa.i.i49, align 1, !tbaa !21
  br label %return

if.end17:                                         ; preds = %if.else
  tail call void @llvm.memset.p0.i64(ptr noundef nonnull align 8 dereferenceable(24) %agg.result, i8 0, i64 24, i1 false)
  br label %return

return:                                           ; preds = %if.end17, %_ZNSt3__112basic_stringIcNS_11char_traitsIcEENS_9allocatorIcEEEC2B7v170000IPcvEET_S8_RKS4_.exit50, %_ZNSt3__112basic_stringIcNS_11char_traitsIcEENS_9allocatorIcEEEC2B7v170000IPcvEET_S8_RKS4_.exit
  ret void
}

; Function Attrs: mustprogress noreturn uwtable
define linkonce_odr hidden void @_ZNKSt3__112basic_stringIcNS_11char_traitsIcEENS_9allocatorIcEEE20__throw_length_errorB7v170000Ev(ptr noundef nonnull align 8 dereferenceable(24) %this) local_unnamed_addr #14 comdat align 2 {
entry:
  tail call void @_ZNSt3__120__throw_length_errorB7v170000EPKc(ptr noundef nonnull @.str.39) #27
  unreachable
}

; Function Attrs: inlinehint mustprogress noreturn uwtable
define linkonce_odr hidden void @_ZNSt3__120__throw_length_errorB7v170000EPKc(ptr noundef %__msg) local_unnamed_addr #15 comdat personality ptr @__gxx_personality_v0 {
entry:
  %exception = tail call ptr @__cxa_allocate_exception(i64 16) #23
  invoke void @_ZNSt12length_errorC2B7v170000EPKc(ptr noundef nonnull align 8 dereferenceable(16) %exception, ptr noundef %__msg)
          to label %invoke.cont unwind label %lpad

invoke.cont:                                      ; preds = %entry
  tail call void @__cxa_throw(ptr nonnull %exception, ptr nonnull @_ZTISt12length_error, ptr nonnull @_ZNSt12length_errorD1Ev) #27
  unreachable

lpad:                                             ; preds = %entry
  %0 = landingpad { ptr, i32 }
          cleanup
  tail call void @__cxa_free_exception(ptr %exception) #23
  resume { ptr, i32 } %0
}

declare ptr @__cxa_allocate_exception(i64) local_unnamed_addr

; Function Attrs: uwtable
define linkonce_odr hidden void @_ZNSt12length_errorC2B7v170000EPKc(ptr noundef nonnull align 8 dereferenceable(16) %this, ptr noundef %__s) unnamed_addr #6 comdat align 2 {
entry:
  tail call void @_ZNSt11logic_errorC2EPKc(ptr noundef nonnull align 8 dereferenceable(16) %this, ptr noundef %__s)
  store ptr getelementptr inbounds ({ [5 x ptr] }, ptr @_ZTVSt12length_error, i64 0, inrange i32 0, i64 2), ptr %this, align 8, !tbaa !5
  ret void
}

declare void @__cxa_free_exception(ptr) local_unnamed_addr

; Function Attrs: nounwind
declare void @_ZNSt12length_errorD1Ev(ptr noundef nonnull align 8 dereferenceable(16)) unnamed_addr #10

declare void @__cxa_throw(ptr, ptr, ptr) local_unnamed_addr

declare void @_ZNSt11logic_errorC2EPKc(ptr noundef nonnull align 8 dereferenceable(16), ptr noundef) unnamed_addr #0

; Function Attrs: mustprogress nocallback nofree nosync nounwind willreturn memory(inaccessiblemem: readwrite)
declare void @llvm.assume(i1 noundef) #16

; Function Attrs: inlinehint mustprogress noreturn uwtable
define linkonce_odr hidden void @_ZSt28__throw_bad_array_new_lengthB7v170000v() local_unnamed_addr #15 comdat {
entry:
  %exception = tail call ptr @__cxa_allocate_exception(i64 8) #23
  tail call void @_ZNSt20bad_array_new_lengthC1Ev(ptr noundef nonnull align 8 dereferenceable(8) %exception) #23
  tail call void @__cxa_throw(ptr nonnull %exception, ptr nonnull @_ZTISt20bad_array_new_length, ptr nonnull @_ZNSt20bad_array_new_lengthD1Ev) #27
  unreachable
}

; Function Attrs: nounwind
declare void @_ZNSt20bad_array_new_lengthC1Ev(ptr noundef nonnull align 8 dereferenceable(8)) unnamed_addr #10

; Function Attrs: nounwind
declare void @_ZNSt20bad_array_new_lengthD1Ev(ptr noundef nonnull align 8 dereferenceable(8)) unnamed_addr #10

; Function Attrs: uwtable
define linkonce_odr hidden void @_ZN7testing8internal18CmpHelperEQFailureIbbEENS_15AssertionResultEPKcS4_RKT_RKT0_(ptr noalias sret(%"class.testing::AssertionResult") align 8 %agg.result, ptr noundef %lhs_expression, ptr noundef %rhs_expression, ptr noundef nonnull align 1 dereferenceable(1) %lhs, ptr noundef nonnull align 1 dereferenceable(1) %rhs) local_unnamed_addr #6 comdat personality ptr @__gxx_personality_v0 {
entry:
  %ref.tmp = alloca %"class.std::__1::basic_string", align 8
  %ref.tmp1 = alloca %"class.std::__1::basic_string", align 8
  call void @llvm.lifetime.start.p0(i64 24, ptr nonnull %ref.tmp) #23
  call void @_ZN7testing13PrintToStringIbEENSt3__112basic_stringIcNS1_11char_traitsIcEENS1_9allocatorIcEEEERKT_(ptr nonnull sret(%"class.std::__1::basic_string") align 8 %ref.tmp, ptr noundef nonnull align 1 dereferenceable(1) %lhs)
  call void @llvm.lifetime.start.p0(i64 24, ptr nonnull %ref.tmp1) #23
  invoke void @_ZN7testing13PrintToStringIbEENSt3__112basic_stringIcNS1_11char_traitsIcEENS1_9allocatorIcEEEERKT_(ptr nonnull sret(%"class.std::__1::basic_string") align 8 %ref.tmp1, ptr noundef nonnull align 1 dereferenceable(1) %rhs)
          to label %invoke.cont unwind label %lpad

invoke.cont:                                      ; preds = %entry
  invoke void @_ZN7testing8internal9EqFailureEPKcS2_RKNSt3__112basic_stringIcNS3_11char_traitsIcEENS3_9allocatorIcEEEESB_b(ptr sret(%"class.testing::AssertionResult") align 8 %agg.result, ptr noundef %lhs_expression, ptr noundef %rhs_expression, ptr noundef nonnull align 8 dereferenceable(24) %ref.tmp, ptr noundef nonnull align 8 dereferenceable(24) %ref.tmp1, i1 noundef zeroext false)
          to label %invoke.cont3 unwind label %lpad2

invoke.cont3:                                     ; preds = %invoke.cont
  %bf.load.i.i = load i8, ptr %ref.tmp1, align 8
  %bf.clear.i.i = and i8 %bf.load.i.i, 1
  %tobool.i.not.i = icmp eq i8 %bf.clear.i.i, 0
  br i1 %tobool.i.not.i, label %_ZNSt3__112basic_stringIcNS_11char_traitsIcEENS_9allocatorIcEEED2Ev.exit, label %if.then.i

if.then.i:                                        ; preds = %invoke.cont3
  %__data_.i.i = getelementptr inbounds %"struct.std::__1::basic_string<char>::__long", ptr %ref.tmp1, i64 0, i32 2
  %0 = load ptr, ptr %__data_.i.i, align 8, !tbaa !21
  call void @_ZdlPv(ptr noundef %0) #24
  br label %_ZNSt3__112basic_stringIcNS_11char_traitsIcEENS_9allocatorIcEEED2Ev.exit

_ZNSt3__112basic_stringIcNS_11char_traitsIcEENS_9allocatorIcEEED2Ev.exit: ; preds = %invoke.cont3, %if.then.i
  call void @llvm.lifetime.end.p0(i64 24, ptr nonnull %ref.tmp1) #23
  %bf.load.i.i10 = load i8, ptr %ref.tmp, align 8
  %bf.clear.i.i11 = and i8 %bf.load.i.i10, 1
  %tobool.i.not.i12 = icmp eq i8 %bf.clear.i.i11, 0
  br i1 %tobool.i.not.i12, label %_ZNSt3__112basic_stringIcNS_11char_traitsIcEENS_9allocatorIcEEED2Ev.exit15, label %if.then.i14

if.then.i14:                                      ; preds = %_ZNSt3__112basic_stringIcNS_11char_traitsIcEENS_9allocatorIcEEED2Ev.exit
  %__data_.i.i13 = getelementptr inbounds %"struct.std::__1::basic_string<char>::__long", ptr %ref.tmp, i64 0, i32 2
  %1 = load ptr, ptr %__data_.i.i13, align 8, !tbaa !21
  call void @_ZdlPv(ptr noundef %1) #24
  br label %_ZNSt3__112basic_stringIcNS_11char_traitsIcEENS_9allocatorIcEEED2Ev.exit15

_ZNSt3__112basic_stringIcNS_11char_traitsIcEENS_9allocatorIcEEED2Ev.exit15: ; preds = %_ZNSt3__112basic_stringIcNS_11char_traitsIcEENS_9allocatorIcEEED2Ev.exit, %if.then.i14
  call void @llvm.lifetime.end.p0(i64 24, ptr nonnull %ref.tmp) #23
  ret void

lpad:                                             ; preds = %entry
  %2 = landingpad { ptr, i32 }
          cleanup
  br label %ehcleanup

lpad2:                                            ; preds = %invoke.cont
  %3 = landingpad { ptr, i32 }
          cleanup
  %bf.load.i.i16 = load i8, ptr %ref.tmp1, align 8
  %bf.clear.i.i17 = and i8 %bf.load.i.i16, 1
  %tobool.i.not.i18 = icmp eq i8 %bf.clear.i.i17, 0
  br i1 %tobool.i.not.i18, label %ehcleanup, label %if.then.i20

if.then.i20:                                      ; preds = %lpad2
  %__data_.i.i19 = getelementptr inbounds %"struct.std::__1::basic_string<char>::__long", ptr %ref.tmp1, i64 0, i32 2
  %4 = load ptr, ptr %__data_.i.i19, align 8, !tbaa !21
  call void @_ZdlPv(ptr noundef %4) #24
  br label %ehcleanup

ehcleanup:                                        ; preds = %if.then.i20, %lpad2, %lpad
  %.pn = phi { ptr, i32 } [ %2, %lpad ], [ %3, %lpad2 ], [ %3, %if.then.i20 ]
  call void @llvm.lifetime.end.p0(i64 24, ptr nonnull %ref.tmp1) #23
  %bf.load.i.i22 = load i8, ptr %ref.tmp, align 8
  %bf.clear.i.i23 = and i8 %bf.load.i.i22, 1
  %tobool.i.not.i24 = icmp eq i8 %bf.clear.i.i23, 0
  br i1 %tobool.i.not.i24, label %_ZNSt3__112basic_stringIcNS_11char_traitsIcEENS_9allocatorIcEEED2Ev.exit27, label %if.then.i26

if.then.i26:                                      ; preds = %ehcleanup
  %__data_.i.i25 = getelementptr inbounds %"struct.std::__1::basic_string<char>::__long", ptr %ref.tmp, i64 0, i32 2
  %5 = load ptr, ptr %__data_.i.i25, align 8, !tbaa !21
  call void @_ZdlPv(ptr noundef %5) #24
  br label %_ZNSt3__112basic_stringIcNS_11char_traitsIcEENS_9allocatorIcEEED2Ev.exit27

_ZNSt3__112basic_stringIcNS_11char_traitsIcEENS_9allocatorIcEEED2Ev.exit27: ; preds = %ehcleanup, %if.then.i26
  call void @llvm.lifetime.end.p0(i64 24, ptr nonnull %ref.tmp) #23
  resume { ptr, i32 } %.pn
}

; Function Attrs: uwtable
define linkonce_odr hidden void @_ZN7testing13PrintToStringIbEENSt3__112basic_stringIcNS1_11char_traitsIcEENS1_9allocatorIcEEEERKT_(ptr noalias sret(%"class.std::__1::basic_string") align 8 %agg.result, ptr noundef nonnull align 1 dereferenceable(1) %value) local_unnamed_addr #6 comdat personality ptr @__gxx_personality_v0 {
entry:
  %ss = alloca %"class.std::__1::basic_stringstream", align 8
  call void @llvm.lifetime.start.p0(i64 280, ptr nonnull %ss) #23
  %0 = getelementptr inbounds i8, ptr %ss, i64 128
  %add.ptr2.i = getelementptr inbounds i8, ptr %ss, i64 16
  store ptr getelementptr inbounds ({ [5 x ptr], [5 x ptr], [5 x ptr] }, ptr @_ZTVNSt3__118basic_stringstreamIcNS_11char_traitsIcEENS_9allocatorIcEEEE, i64 0, inrange i32 1, i64 3), ptr %add.ptr2.i, align 8, !tbaa !5
  %__sb_.i = getelementptr inbounds %"class.std::__1::basic_stringstream", ptr %ss, i64 0, i32 1
  store ptr getelementptr inbounds ({ [5 x ptr], [5 x ptr] }, ptr @_ZTCNSt3__118basic_stringstreamIcNS_11char_traitsIcEENS_9allocatorIcEEEE0_NS_13basic_istreamIcS2_EE, i64 0, inrange i32 0, i64 3), ptr %ss, align 8, !tbaa !5
  store ptr getelementptr inbounds ({ [5 x ptr], [5 x ptr] }, ptr @_ZTCNSt3__118basic_stringstreamIcNS_11char_traitsIcEENS_9allocatorIcEEEE0_NS_13basic_istreamIcS2_EE, i64 0, inrange i32 1, i64 3), ptr %0, align 8, !tbaa !5
  %__gc_.i.i.i = getelementptr inbounds %"class.std::__1::basic_istream", ptr %ss, i64 0, i32 1
  store i64 0, ptr %__gc_.i.i.i, align 8, !tbaa !29
  invoke void @_ZNSt3__18ios_base4initEPv(ptr noundef nonnull align 8 dereferenceable(136) %0, ptr noundef nonnull %__sb_.i)
          to label %invoke.cont.i unwind label %lpad.i

invoke.cont.i:                                    ; preds = %entry
  %__tie_.i.i.i.i = getelementptr inbounds i8, ptr %ss, i64 264
  store ptr null, ptr %__tie_.i.i.i.i, align 8, !tbaa !32
  %__fill_.i.i.i.i = getelementptr inbounds i8, ptr %ss, i64 272
  store i32 -1, ptr %__fill_.i.i.i.i, align 8, !tbaa !35
  store ptr getelementptr inbounds ({ [5 x ptr], [5 x ptr], [5 x ptr] }, ptr @_ZTVNSt3__118basic_stringstreamIcNS_11char_traitsIcEENS_9allocatorIcEEEE, i64 0, inrange i32 0, i64 3), ptr %ss, align 8, !tbaa !5
  store ptr getelementptr inbounds ({ [5 x ptr], [5 x ptr], [5 x ptr] }, ptr @_ZTVNSt3__118basic_stringstreamIcNS_11char_traitsIcEENS_9allocatorIcEEEE, i64 0, inrange i32 2, i64 3), ptr %0, align 8, !tbaa !5
  store ptr getelementptr inbounds ({ [5 x ptr], [5 x ptr], [5 x ptr] }, ptr @_ZTVNSt3__118basic_stringstreamIcNS_11char_traitsIcEENS_9allocatorIcEEEE, i64 0, inrange i32 1, i64 3), ptr %add.ptr2.i, align 8, !tbaa !5
  invoke void @_ZNSt3__115basic_streambufIcNS_11char_traitsIcEEEC2Ev(ptr noundef nonnull align 8 dereferenceable(64) %__sb_.i)
          to label %_ZNSt3__118basic_stringstreamIcNS_11char_traitsIcEENS_9allocatorIcEEEC1B7v170000Ev.exit unwind label %lpad6.i

lpad.i:                                           ; preds = %entry
  %1 = landingpad { ptr, i32 }
          cleanup
  br label %ehcleanup.i

lpad6.i:                                          ; preds = %invoke.cont.i
  %2 = landingpad { ptr, i32 }
          cleanup
  call void @_ZNSt3__114basic_iostreamIcNS_11char_traitsIcEEED2Ev(ptr noundef nonnull align 8 dereferenceable(24) %ss, ptr noundef nonnull getelementptr inbounds ([10 x ptr], ptr @_ZTTNSt3__118basic_stringstreamIcNS_11char_traitsIcEENS_9allocatorIcEEEE, i64 0, i64 1)) #23
  br label %ehcleanup.i

common.resume:                                    ; preds = %lpad, %ehcleanup.i
  %common.resume.op = phi { ptr, i32 } [ %.pn.i, %ehcleanup.i ], [ %5, %lpad ]
  resume { ptr, i32 } %common.resume.op

ehcleanup.i:                                      ; preds = %lpad6.i, %lpad.i
  %.pn.i = phi { ptr, i32 } [ %2, %lpad6.i ], [ %1, %lpad.i ]
  call void @_ZNSt3__19basic_iosIcNS_11char_traitsIcEEED2Ev(ptr noundef nonnull align 8 dereferenceable(148) %0) #23
  br label %common.resume

_ZNSt3__118basic_stringstreamIcNS_11char_traitsIcEENS_9allocatorIcEEEC1B7v170000Ev.exit: ; preds = %invoke.cont.i
  store ptr getelementptr inbounds ({ [16 x ptr] }, ptr @_ZTVNSt3__115basic_stringbufIcNS_11char_traitsIcEENS_9allocatorIcEEEE, i64 0, inrange i32 0, i64 2), ptr %__sb_.i, align 8, !tbaa !5
  %__str_.i.i = getelementptr inbounds %"class.std::__1::basic_stringstream", ptr %ss, i64 0, i32 1, i32 1
  %__mode_.i.i = getelementptr inbounds %"class.std::__1::basic_stringstream", ptr %ss, i64 0, i32 1, i32 3
  call void @llvm.memset.p0.i64(ptr noundef nonnull align 8 dereferenceable(32) %__str_.i.i, i8 0, i64 32, i1 false)
  store i32 24, ptr %__mode_.i.i, align 8, !tbaa !36
  %3 = load i8, ptr %value, align 1, !tbaa !22, !range !18, !noundef !19
  %tobool.not.i.i.i = icmp eq i8 %3, 0
  %cond.i.i.i.i = select i1 %tobool.not.i.i.i, ptr @.str.41, ptr @.str.37
  %call.i.i.i.i.i.i.i = select i1 %tobool.not.i.i.i, i64 5, i64 4
  %call1.i.i.i.i.i3 = invoke noundef nonnull align 8 dereferenceable(8) ptr @_ZNSt3__124__put_character_sequenceB7v170000IcNS_11char_traitsIcEEEERNS_13basic_ostreamIT_T0_EES7_PKS4_m(ptr noundef nonnull align 8 dereferenceable(8) %add.ptr2.i, ptr noundef nonnull %cond.i.i.i.i, i64 noundef %call.i.i.i.i.i.i.i)
          to label %invoke.cont unwind label %lpad

invoke.cont:                                      ; preds = %_ZNSt3__118basic_stringstreamIcNS_11char_traitsIcEENS_9allocatorIcEEEC1B7v170000Ev.exit
  invoke void @_ZNKSt3__115basic_stringbufIcNS_11char_traitsIcEENS_9allocatorIcEEE3strEv(ptr sret(%"class.std::__1::basic_string") align 8 %agg.result, ptr noundef nonnull align 8 dereferenceable(100) %__sb_.i)
          to label %invoke.cont1 unwind label %lpad

invoke.cont1:                                     ; preds = %invoke.cont
  store ptr getelementptr inbounds ({ [5 x ptr], [5 x ptr], [5 x ptr] }, ptr @_ZTVNSt3__118basic_stringstreamIcNS_11char_traitsIcEENS_9allocatorIcEEEE, i64 0, inrange i32 0, i64 3), ptr %ss, align 8, !tbaa !5
  store ptr getelementptr inbounds ({ [5 x ptr], [5 x ptr], [5 x ptr] }, ptr @_ZTVNSt3__118basic_stringstreamIcNS_11char_traitsIcEENS_9allocatorIcEEEE, i64 0, inrange i32 2, i64 3), ptr %0, align 8, !tbaa !5
  store ptr getelementptr inbounds ({ [5 x ptr], [5 x ptr], [5 x ptr] }, ptr @_ZTVNSt3__118basic_stringstreamIcNS_11char_traitsIcEENS_9allocatorIcEEEE, i64 0, inrange i32 1, i64 3), ptr %add.ptr2.i, align 8, !tbaa !5
  store ptr getelementptr inbounds ({ [16 x ptr] }, ptr @_ZTVNSt3__115basic_stringbufIcNS_11char_traitsIcEENS_9allocatorIcEEEE, i64 0, inrange i32 0, i64 2), ptr %__sb_.i, align 8, !tbaa !5
  %bf.load.i.i.i.i.i = load i8, ptr %__str_.i.i, align 8
  %bf.clear.i.i.i.i.i = and i8 %bf.load.i.i.i.i.i, 1
  %tobool.i.not.i.i.i.i = icmp eq i8 %bf.clear.i.i.i.i.i, 0
  br i1 %tobool.i.not.i.i.i.i, label %_ZNSt3__118basic_stringstreamIcNS_11char_traitsIcEENS_9allocatorIcEEED1Ev.exit, label %if.then.i.i.i.i

if.then.i.i.i.i:                                  ; preds = %invoke.cont1
  %__data_.i.i.i.i.i = getelementptr inbounds %"class.std::__1::basic_stringstream", ptr %ss, i64 0, i32 1, i32 1, i32 0, i32 0, i32 0, i32 0, i32 0, i32 2
  %4 = load ptr, ptr %__data_.i.i.i.i.i, align 8, !tbaa !21
  call void @_ZdlPv(ptr noundef %4) #24
  br label %_ZNSt3__118basic_stringstreamIcNS_11char_traitsIcEENS_9allocatorIcEEED1Ev.exit

_ZNSt3__118basic_stringstreamIcNS_11char_traitsIcEENS_9allocatorIcEEED1Ev.exit: ; preds = %invoke.cont1, %if.then.i.i.i.i
  call void @_ZNSt3__115basic_streambufIcNS_11char_traitsIcEEED2Ev(ptr noundef nonnull align 8 dereferenceable(64) %__sb_.i) #23
  call void @_ZNSt3__114basic_iostreamIcNS_11char_traitsIcEEED2Ev(ptr noundef nonnull align 8 dereferenceable(24) %ss, ptr noundef nonnull getelementptr inbounds ([10 x ptr], ptr @_ZTTNSt3__118basic_stringstreamIcNS_11char_traitsIcEENS_9allocatorIcEEEE, i64 0, i64 1)) #23
  call void @_ZNSt3__19basic_iosIcNS_11char_traitsIcEEED2Ev(ptr noundef nonnull align 8 dereferenceable(148) %0) #23
  call void @llvm.lifetime.end.p0(i64 280, ptr nonnull %ss) #23
  ret void

lpad:                                             ; preds = %invoke.cont, %_ZNSt3__118basic_stringstreamIcNS_11char_traitsIcEENS_9allocatorIcEEEC1B7v170000Ev.exit
  %5 = landingpad { ptr, i32 }
          cleanup
  call void @_ZNSt3__118basic_stringstreamIcNS_11char_traitsIcEENS_9allocatorIcEEED1Ev(ptr noundef nonnull align 8 dereferenceable(128) %ss) #23
  call void @llvm.lifetime.end.p0(i64 280, ptr nonnull %ss) #23
  br label %common.resume
}

; Function Attrs: uwtable
define linkonce_odr hidden noundef nonnull align 8 dereferenceable(8) ptr @_ZNSt3__124__put_character_sequenceB7v170000IcNS_11char_traitsIcEEEERNS_13basic_ostreamIT_T0_EES7_PKS4_m(ptr noundef nonnull align 8 dereferenceable(8) %__os, ptr noundef %__str, i64 noundef %__len) local_unnamed_addr #6 comdat personality ptr @__gxx_personality_v0 {
entry:
  %ref.tmp.i.i = alloca %"class.std::__1::locale", align 8
  %__s = alloca %"class.std::__1::basic_ostream<char>::sentry", align 8
  call void @llvm.lifetime.start.p0(i64 16, ptr nonnull %__s) #23
  invoke void @_ZNSt3__113basic_ostreamIcNS_11char_traitsIcEEE6sentryC1ERS3_(ptr noundef nonnull align 8 dereferenceable(16) %__s, ptr noundef nonnull align 8 dereferenceable(8) %__os)
          to label %invoke.cont unwind label %lpad

invoke.cont:                                      ; preds = %entry
  %0 = load i8, ptr %__s, align 8, !tbaa !60, !range !18, !noundef !19
  %tobool.i.not = icmp eq i8 %0, 0
  br i1 %tobool.i.not, label %if.end28, label %if.then

if.then:                                          ; preds = %invoke.cont
  %vtable.i = load ptr, ptr %__os, align 8, !tbaa !5
  %vbase.offset.ptr.i = getelementptr i8, ptr %vtable.i, i64 -24
  %vbase.offset.i = load i64, ptr %vbase.offset.ptr.i, align 8
  %add.ptr.i = getelementptr inbounds i8, ptr %__os, i64 %vbase.offset.i
  %__rdbuf_.i.i.i = getelementptr inbounds %"class.std::__1::ios_base", ptr %add.ptr.i, i64 0, i32 6
  %1 = load ptr, ptr %__rdbuf_.i.i.i, align 8, !tbaa !62
  %__fmtflags_.i = getelementptr inbounds %"class.std::__1::ios_base", ptr %add.ptr.i, i64 0, i32 1
  %2 = load i32, ptr %__fmtflags_.i, align 8, !tbaa !63
  %__fill_.i = getelementptr inbounds %"class.std::__1::basic_ios", ptr %add.ptr.i, i64 0, i32 2
  %3 = load i32, ptr %__fill_.i, align 8, !tbaa !35
  %cmp.i.i = icmp eq i32 %3, -1
  br i1 %cmp.i.i, label %if.then.i, label %invoke.cont16

if.then.i:                                        ; preds = %if.then
  call void @llvm.lifetime.start.p0(i64 8, ptr nonnull %ref.tmp.i.i) #23
  invoke void @_ZNKSt3__18ios_base6getlocEv(ptr nonnull sret(%"class.std::__1::locale") align 8 %ref.tmp.i.i, ptr noundef nonnull align 8 dereferenceable(136) %add.ptr.i)
          to label %.noexc unwind label %lpad3

.noexc:                                           ; preds = %if.then.i
  %call.i5.i.i = invoke noundef ptr @_ZNKSt3__16locale9use_facetERNS0_2idE(ptr noundef nonnull align 8 dereferenceable(8) %ref.tmp.i.i, ptr noundef nonnull align 8 dereferenceable(12) @_ZNSt3__15ctypeIcE2idE)
          to label %invoke.cont.i.i unwind label %lpad.i.i

invoke.cont.i.i:                                  ; preds = %.noexc
  %vtable.i.i.i = load ptr, ptr %call.i5.i.i, align 8, !tbaa !5
  %vfn.i.i.i = getelementptr inbounds ptr, ptr %vtable.i.i.i, i64 7
  %4 = load ptr, ptr %vfn.i.i.i, align 8
  %call.i6.i.i = invoke noundef signext i8 %4(ptr noundef nonnull align 8 dereferenceable(25) %call.i5.i.i, i8 noundef signext 32)
          to label %_ZNKSt3__19basic_iosIcNS_11char_traitsIcEEE5widenB7v170000Ec.exit.i unwind label %lpad.i.i

lpad.i.i:                                         ; preds = %invoke.cont.i.i, %.noexc
  %5 = landingpad { ptr, i32 }
          catch ptr null
  call void @_ZNSt3__16localeD1Ev(ptr noundef nonnull align 8 dereferenceable(8) %ref.tmp.i.i) #23
  call void @llvm.lifetime.end.p0(i64 8, ptr nonnull %ref.tmp.i.i) #23
  br label %ehcleanup

_ZNKSt3__19basic_iosIcNS_11char_traitsIcEEE5widenB7v170000Ec.exit.i: ; preds = %invoke.cont.i.i
  call void @_ZNSt3__16localeD1Ev(ptr noundef nonnull align 8 dereferenceable(8) %ref.tmp.i.i) #23
  call void @llvm.lifetime.end.p0(i64 8, ptr nonnull %ref.tmp.i.i) #23
  %conv.i = sext i8 %call.i6.i.i to i32
  store i32 %conv.i, ptr %__fill_.i, align 8, !tbaa !35
  br label %invoke.cont16

invoke.cont16:                                    ; preds = %_ZNKSt3__19basic_iosIcNS_11char_traitsIcEEE5widenB7v170000Ec.exit.i, %if.then
  %6 = phi i32 [ %conv.i, %_ZNKSt3__19basic_iosIcNS_11char_traitsIcEEE5widenB7v170000Ec.exit.i ], [ %3, %if.then ]
  %conv6.i = trunc i32 %6 to i8
  %and = and i32 %2, 176
  %cmp = icmp eq i32 %and, 32
  %add.ptr6 = getelementptr inbounds i8, ptr %__str, i64 %__len
  %cond = select i1 %cmp, ptr %add.ptr6, ptr %__str
  %call19 = invoke ptr @_ZNSt3__116__pad_and_outputB7v170000IcNS_11char_traitsIcEEEENS_19ostreambuf_iteratorIT_T0_EES6_PKS4_S8_S8_RNS_8ios_baseES4_(ptr %1, ptr noundef %__str, ptr noundef %cond, ptr noundef %add.ptr6, ptr noundef nonnull align 8 dereferenceable(136) %add.ptr.i, i8 noundef signext %conv6.i)
          to label %invoke.cont18 unwind label %lpad3

invoke.cont18:                                    ; preds = %invoke.cont16
  %cmp.i = icmp eq ptr %call19, null
  br i1 %cmp.i, label %if.then22, label %if.end28

if.then22:                                        ; preds = %invoke.cont18
  %vtable23 = load ptr, ptr %__os, align 8, !tbaa !5
  %vbase.offset.ptr24 = getelementptr i8, ptr %vtable23, i64 -24
  %vbase.offset25 = load i64, ptr %vbase.offset.ptr24, align 8
  %add.ptr26 = getelementptr inbounds i8, ptr %__os, i64 %vbase.offset25
  %__rdstate_.i.i = getelementptr inbounds %"class.std::__1::ios_base", ptr %add.ptr26, i64 0, i32 4
  %7 = load i32, ptr %__rdstate_.i.i, align 8, !tbaa !64
  %or.i.i = or i32 %7, 5
  invoke void @_ZNSt3__18ios_base5clearEj(ptr noundef nonnull align 8 dereferenceable(136) %add.ptr26, i32 noundef %or.i.i)
          to label %if.end28 unwind label %lpad1

lpad:                                             ; preds = %entry
  %8 = landingpad { ptr, i32 }
          catch ptr null
  br label %ehcleanup29

lpad1:                                            ; preds = %if.then22
  %9 = landingpad { ptr, i32 }
          catch ptr null
  br label %ehcleanup

lpad3:                                            ; preds = %if.then.i, %invoke.cont16
  %10 = landingpad { ptr, i32 }
          catch ptr null
  br label %ehcleanup

if.end28:                                         ; preds = %if.then22, %invoke.cont18, %invoke.cont
  call void @_ZNSt3__113basic_ostreamIcNS_11char_traitsIcEEE6sentryD1Ev(ptr noundef nonnull align 8 dereferenceable(16) %__s) #23
  call void @llvm.lifetime.end.p0(i64 16, ptr nonnull %__s) #23
  br label %try.cont

ehcleanup:                                        ; preds = %lpad3, %lpad.i.i, %lpad1
  %.pn = phi { ptr, i32 } [ %9, %lpad1 ], [ %10, %lpad3 ], [ %5, %lpad.i.i ]
  call void @_ZNSt3__113basic_ostreamIcNS_11char_traitsIcEEE6sentryD1Ev(ptr noundef nonnull align 8 dereferenceable(16) %__s) #23
  br label %ehcleanup29

ehcleanup29:                                      ; preds = %ehcleanup, %lpad
  %.pn.pn = phi { ptr, i32 } [ %.pn, %ehcleanup ], [ %8, %lpad ]
  %exn.slot.1 = extractvalue { ptr, i32 } %.pn.pn, 0
  call void @llvm.lifetime.end.p0(i64 16, ptr nonnull %__s) #23
  %11 = call ptr @__cxa_begin_catch(ptr %exn.slot.1) #23
  %vtable30 = load ptr, ptr %__os, align 8, !tbaa !5
  %vbase.offset.ptr31 = getelementptr i8, ptr %vtable30, i64 -24
  %vbase.offset32 = load i64, ptr %vbase.offset.ptr31, align 8
  %add.ptr33 = getelementptr inbounds i8, ptr %__os, i64 %vbase.offset32
  invoke void @_ZNSt3__18ios_base33__set_badbit_and_consider_rethrowEv(ptr noundef nonnull align 8 dereferenceable(136) %add.ptr33)
          to label %invoke.cont35 unwind label %lpad34

invoke.cont35:                                    ; preds = %ehcleanup29
  call void @__cxa_end_catch()
  br label %try.cont

try.cont:                                         ; preds = %invoke.cont35, %if.end28
  ret ptr %__os

lpad34:                                           ; preds = %ehcleanup29
  %12 = landingpad { ptr, i32 }
          cleanup
  invoke void @__cxa_end_catch()
          to label %eh.resume unwind label %terminate.lpad

eh.resume:                                        ; preds = %lpad34
  resume { ptr, i32 } %12

terminate.lpad:                                   ; preds = %lpad34
  %13 = landingpad { ptr, i32 }
          catch ptr null
  %14 = extractvalue { ptr, i32 } %13, 0
  call void @__clang_call_terminate(ptr %14) #26
  unreachable
}

declare void @_ZNSt3__113basic_ostreamIcNS_11char_traitsIcEEE6sentryC1ERS3_(ptr noundef nonnull align 8 dereferenceable(16), ptr noundef nonnull align 8 dereferenceable(8)) unnamed_addr #0

; Function Attrs: uwtable
define linkonce_odr hidden ptr @_ZNSt3__116__pad_and_outputB7v170000IcNS_11char_traitsIcEEEENS_19ostreambuf_iteratorIT_T0_EES6_PKS4_S8_S8_RNS_8ios_baseES4_(ptr %__s.coerce, ptr noundef %__ob, ptr noundef %__op, ptr noundef %__oe, ptr noundef nonnull align 8 dereferenceable(136) %__iob, i8 noundef signext %__fl) local_unnamed_addr #6 comdat personality ptr @__gxx_personality_v0 {
entry:
  %__sp = alloca %"class.std::__1::basic_string", align 8
  %cmp = icmp eq ptr %__s.coerce, null
  br i1 %cmp, label %return, label %if.end

if.end:                                           ; preds = %entry
  %sub.ptr.lhs.cast = ptrtoint ptr %__oe to i64
  %sub.ptr.rhs.cast = ptrtoint ptr %__ob to i64
  %sub.ptr.sub = sub i64 %sub.ptr.lhs.cast, %sub.ptr.rhs.cast
  %__width_.i = getelementptr inbounds %"class.std::__1::ios_base", ptr %__iob, i64 0, i32 3
  %0 = load i64, ptr %__width_.i, align 8, !tbaa !65
  %cmp1 = icmp sgt i64 %0, %sub.ptr.sub
  %sub = sub nsw i64 %0, %sub.ptr.sub
  %__ns.0 = select i1 %cmp1, i64 %sub, i64 0
  %sub.ptr.lhs.cast4 = ptrtoint ptr %__op to i64
  %sub.ptr.sub6 = sub i64 %sub.ptr.lhs.cast4, %sub.ptr.rhs.cast
  %cmp7 = icmp sgt i64 %sub.ptr.sub6, 0
  br i1 %cmp7, label %if.then8, label %if.end15

if.then8:                                         ; preds = %if.end
  %vtable.i = load ptr, ptr %__s.coerce, align 8, !tbaa !5
  %vfn.i = getelementptr inbounds ptr, ptr %vtable.i, i64 12
  %1 = load ptr, ptr %vfn.i, align 8
  %call.i = tail call noundef i64 %1(ptr noundef nonnull align 8 dereferenceable(64) %__s.coerce, ptr noundef %__ob, i64 noundef %sub.ptr.sub6)
  %cmp11.not = icmp eq i64 %call.i, %sub.ptr.sub6
  br i1 %cmp11.not, label %if.end15, label %return

if.end15:                                         ; preds = %if.then8, %if.end
  %cmp16 = icmp sgt i64 %__ns.0, 0
  br i1 %cmp16, label %if.end.i.i, label %if.end26

if.end.i.i:                                       ; preds = %if.end15
  call void @llvm.lifetime.start.p0(i64 24, ptr nonnull %__sp) #23
  %cmp.i.i.i = icmp ult i64 %__ns.0, 23
  br i1 %cmp.i.i.i, label %if.end9.i.i, label %if.end9.thread.i.i

if.end9.thread.i.i:                               ; preds = %if.end.i.i
  %sub.i.i.i = or i64 %__ns.0, 15
  %add.i.i = add nuw i64 %sub.i.i.i, 1
  %call.i.i.i.i.i.i = tail call noalias noundef nonnull ptr @_Znwm(i64 noundef %add.i.i) #25
  %__data_.i23.i.i = getelementptr inbounds %"struct.std::__1::basic_string<char>::__long", ptr %__sp, i64 0, i32 2
  store ptr %call.i.i.i.i.i.i, ptr %__data_.i23.i.i, align 8, !tbaa !21
  %bf.set6.i.i.i = or i64 %add.i.i, 1
  store i64 %bf.set6.i.i.i, ptr %__sp, align 8
  %__size_.i.i.i = getelementptr inbounds %"struct.std::__1::basic_string<char>::__long", ptr %__sp, i64 0, i32 1
  store i64 %__ns.0, ptr %__size_.i.i.i, align 8, !tbaa !21
  br label %_ZNSt3__112basic_stringIcNS_11char_traitsIcEENS_9allocatorIcEEEC2B7v170000Emc.exit

if.end9.i.i:                                      ; preds = %if.end.i.i
  %conv.i.i.i = trunc i64 %__ns.0 to i8
  %bf.shl.i.i.i = shl nuw nsw i8 %conv.i.i.i, 1
  store i8 %bf.shl.i.i.i, ptr %__sp, align 8
  %__data_.i.i.i = getelementptr inbounds %"struct.std::__1::basic_string<char>::__short", ptr %__sp, i64 0, i32 2
  br label %_ZNSt3__112basic_stringIcNS_11char_traitsIcEENS_9allocatorIcEEEC2B7v170000Emc.exit

_ZNSt3__112basic_stringIcNS_11char_traitsIcEENS_9allocatorIcEEEC2B7v170000Emc.exit: ; preds = %if.end9.thread.i.i, %if.end9.i.i
  %__p.026.i.i = phi ptr [ %call.i.i.i.i.i.i, %if.end9.thread.i.i ], [ %__data_.i.i.i, %if.end9.i.i ]
  call void @llvm.memset.p0.i64(ptr nonnull align 1 %__p.026.i.i, i8 %__fl, i64 %__ns.0, i1 false), !tbaa !21
  %arrayidx.i.i = getelementptr inbounds i8, ptr %__p.026.i.i, i64 %__ns.0
  store i8 0, ptr %arrayidx.i.i, align 1, !tbaa !21
  %bf.load.i.i.i = load i8, ptr %__sp, align 8
  %bf.clear.i.i.i = and i8 %bf.load.i.i.i, 1
  %tobool.i.not.i.i = icmp eq i8 %bf.clear.i.i.i, 0
  %__data_.i.i.i69 = getelementptr inbounds %"struct.std::__1::basic_string<char>::__long", ptr %__sp, i64 0, i32 2
  %2 = load ptr, ptr %__data_.i.i.i69, align 8
  %__data_.i4.i.i = getelementptr inbounds %"struct.std::__1::basic_string<char>::__short", ptr %__sp, i64 0, i32 2
  %cond.i.i = select i1 %tobool.i.not.i.i, ptr %__data_.i4.i.i, ptr %2
  %vtable.i70 = load ptr, ptr %__s.coerce, align 8, !tbaa !5
  %vfn.i71 = getelementptr inbounds ptr, ptr %vtable.i70, i64 12
  %3 = load ptr, ptr %vfn.i71, align 8
  %call.i7273 = invoke noundef i64 %3(ptr noundef nonnull align 8 dereferenceable(64) %__s.coerce, ptr noundef %cond.i.i, i64 noundef %__ns.0)
          to label %invoke.cont unwind label %lpad

invoke.cont:                                      ; preds = %_ZNSt3__112basic_stringIcNS_11char_traitsIcEENS_9allocatorIcEEEC2B7v170000Emc.exit
  %cmp21.not = icmp eq i64 %call.i7273, %__ns.0
  %bf.load.i.i = load i8, ptr %__sp, align 8
  %bf.clear.i.i = and i8 %bf.load.i.i, 1
  %tobool.i.not.i = icmp eq i8 %bf.clear.i.i, 0
  br i1 %tobool.i.not.i, label %_ZNSt3__112basic_stringIcNS_11char_traitsIcEENS_9allocatorIcEEED2Ev.exit, label %if.then.i

if.then.i:                                        ; preds = %invoke.cont
  %4 = load ptr, ptr %__data_.i.i.i69, align 8, !tbaa !21
  call void @_ZdlPv(ptr noundef %4) #24
  br label %_ZNSt3__112basic_stringIcNS_11char_traitsIcEENS_9allocatorIcEEED2Ev.exit

_ZNSt3__112basic_stringIcNS_11char_traitsIcEENS_9allocatorIcEEED2Ev.exit: ; preds = %invoke.cont, %if.then.i
  call void @llvm.lifetime.end.p0(i64 24, ptr nonnull %__sp) #23
  br i1 %cmp21.not, label %if.end26, label %return

lpad:                                             ; preds = %_ZNSt3__112basic_stringIcNS_11char_traitsIcEENS_9allocatorIcEEEC2B7v170000Emc.exit
  %5 = landingpad { ptr, i32 }
          cleanup
  %bf.load.i.i74 = load i8, ptr %__sp, align 8
  %bf.clear.i.i75 = and i8 %bf.load.i.i74, 1
  %tobool.i.not.i76 = icmp eq i8 %bf.clear.i.i75, 0
  br i1 %tobool.i.not.i76, label %_ZNSt3__112basic_stringIcNS_11char_traitsIcEENS_9allocatorIcEEED2Ev.exit79, label %if.then.i78

if.then.i78:                                      ; preds = %lpad
  %6 = load ptr, ptr %__data_.i.i.i69, align 8, !tbaa !21
  call void @_ZdlPv(ptr noundef %6) #24
  br label %_ZNSt3__112basic_stringIcNS_11char_traitsIcEENS_9allocatorIcEEED2Ev.exit79

_ZNSt3__112basic_stringIcNS_11char_traitsIcEENS_9allocatorIcEEED2Ev.exit79: ; preds = %lpad, %if.then.i78
  call void @llvm.lifetime.end.p0(i64 24, ptr nonnull %__sp) #23
  resume { ptr, i32 } %5

if.end26:                                         ; preds = %_ZNSt3__112basic_stringIcNS_11char_traitsIcEENS_9allocatorIcEEED2Ev.exit, %if.end15
  %sub.ptr.sub29 = sub i64 %sub.ptr.lhs.cast, %sub.ptr.lhs.cast4
  %cmp30 = icmp sgt i64 %sub.ptr.sub29, 0
  br i1 %cmp30, label %if.then31, label %if.end38

if.then31:                                        ; preds = %if.end26
  %vtable.i80 = load ptr, ptr %__s.coerce, align 8, !tbaa !5
  %vfn.i81 = getelementptr inbounds ptr, ptr %vtable.i80, i64 12
  %7 = load ptr, ptr %vfn.i81, align 8
  %call.i82 = call noundef i64 %7(ptr noundef nonnull align 8 dereferenceable(64) %__s.coerce, ptr noundef %__op, i64 noundef %sub.ptr.sub29)
  %cmp34.not = icmp eq i64 %call.i82, %sub.ptr.sub29
  br i1 %cmp34.not, label %if.end38, label %return

if.end38:                                         ; preds = %if.then31, %if.end26
  store i64 0, ptr %__width_.i, align 8, !tbaa !65
  br label %return

return:                                           ; preds = %if.end38, %_ZNSt3__112basic_stringIcNS_11char_traitsIcEENS_9allocatorIcEEED2Ev.exit, %if.then8, %if.then31, %entry
  %retval.sroa.0.2 = phi ptr [ null, %entry ], [ %__s.coerce, %if.end38 ], [ null, %_ZNSt3__112basic_stringIcNS_11char_traitsIcEENS_9allocatorIcEEED2Ev.exit ], [ null, %if.then8 ], [ null, %if.then31 ]
  ret ptr %retval.sroa.0.2
}

; Function Attrs: nounwind
declare void @_ZNSt3__113basic_ostreamIcNS_11char_traitsIcEEE6sentryD1Ev(ptr noundef nonnull align 8 dereferenceable(16)) unnamed_addr #10

declare void @_ZNSt3__18ios_base33__set_badbit_and_consider_rethrowEv(ptr noundef nonnull align 8 dereferenceable(136)) local_unnamed_addr #0

declare void @_ZNKSt3__18ios_base6getlocEv(ptr sret(%"class.std::__1::locale") align 8, ptr noundef nonnull align 8 dereferenceable(136)) local_unnamed_addr #0

; Function Attrs: nounwind
declare void @_ZNSt3__16localeD1Ev(ptr noundef nonnull align 8 dereferenceable(8)) unnamed_addr #10

declare noundef ptr @_ZNKSt3__16locale9use_facetERNS0_2idE(ptr noundef nonnull align 8 dereferenceable(8), ptr noundef nonnull align 8 dereferenceable(12)) local_unnamed_addr #0

declare void @_ZNSt3__18ios_base5clearEj(ptr noundef nonnull align 8 dereferenceable(136), i32 noundef) local_unnamed_addr #0

; Function Attrs: mustprogress nofree nounwind willreturn memory(argmem: read)
declare i64 @strlen(ptr nocapture noundef) local_unnamed_addr #17

; Function Attrs: inlinehint nounwind uwtable
define internal void @_ZN7testing8internal15TestFactoryImplIN9benchmark12_GLOBAL__N_122BoolFromEnv_False_TestEED0Ev(ptr noundef nonnull align 8 dereferenceable(8) %this) unnamed_addr #5 align 2 {
entry:
  tail call void @_ZdlPv(ptr noundef nonnull %this) #24
  ret void
}

; Function Attrs: uwtable
define internal noundef nonnull ptr @_ZN7testing8internal15TestFactoryImplIN9benchmark12_GLOBAL__N_122BoolFromEnv_False_TestEE10CreateTestEv(ptr nocapture nonnull readnone align 8 %this) unnamed_addr #6 align 2 personality ptr @__gxx_personality_v0 {
entry:
  %call = tail call noalias noundef nonnull dereferenceable(16) ptr @_Znwm(i64 noundef 16) #25
  invoke void @_ZN7testing4TestC2Ev(ptr noundef nonnull align 8 dereferenceable(16) %call)
          to label %invoke.cont unwind label %lpad

invoke.cont:                                      ; preds = %entry
  store ptr getelementptr inbounds ({ [8 x ptr] }, ptr @_ZTVN9benchmark12_GLOBAL__N_122BoolFromEnv_False_TestE, i64 0, inrange i32 0, i64 2), ptr %call, align 8, !tbaa !5
  ret ptr %call

lpad:                                             ; preds = %entry
  %0 = landingpad { ptr, i32 }
          cleanup
  tail call void @_ZdlPv(ptr noundef nonnull %call) #24
  resume { ptr, i32 } %0
}

; Function Attrs: nounwind uwtable
define internal void @_ZN9benchmark12_GLOBAL__N_122BoolFromEnv_False_TestD0Ev(ptr noundef nonnull align 8 dereferenceable(16) %this) unnamed_addr #7 align 2 {
entry:
  tail call void @_ZN7testing4TestD2Ev(ptr noundef nonnull align 8 dereferenceable(16) %this) #23
  tail call void @_ZdlPv(ptr noundef nonnull %this) #24
  ret void
}

; Function Attrs: uwtable
define internal void @_ZN9benchmark12_GLOBAL__N_122BoolFromEnv_False_Test8TestBodyEv(ptr nocapture nonnull readnone align 8 %this) unnamed_addr #6 align 2 personality ptr @__gxx_personality_v0 {
entry:
  %gtest_ar = alloca %"class.testing::AssertionResult", align 8
  %ref.tmp = alloca i32, align 4
  %ref.tmp2 = alloca i32, align 4
  %ref.tmp4 = alloca %"class.testing::Message", align 8
  %ref.tmp5 = alloca %"class.testing::internal::AssertHelper", align 8
  %gtest_ar17 = alloca %"class.testing::AssertionResult", align 8
  %ref.tmp18 = alloca i8, align 1
  %ref.tmp20 = alloca i8, align 1
  %ref.tmp24 = alloca %"class.testing::Message", align 8
  %ref.tmp27 = alloca %"class.testing::internal::AssertHelper", align 8
  %gtest_ar42 = alloca %"class.testing::AssertionResult", align 8
  %ref.tmp43 = alloca i32, align 4
  %ref.tmp45 = alloca i32, align 4
  %ref.tmp49 = alloca %"class.testing::Message", align 8
  %ref.tmp52 = alloca %"class.testing::internal::AssertHelper", align 8
  %gtest_ar70 = alloca %"class.testing::AssertionResult", align 8
  %ref.tmp71 = alloca i8, align 1
  %ref.tmp74 = alloca i8, align 1
  %ref.tmp78 = alloca %"class.testing::Message", align 8
  %ref.tmp81 = alloca %"class.testing::internal::AssertHelper", align 8
  %gtest_ar96 = alloca %"class.testing::AssertionResult", align 8
  %ref.tmp97 = alloca i32, align 4
  %ref.tmp99 = alloca i32, align 4
  %ref.tmp103 = alloca %"class.testing::Message", align 8
  %ref.tmp106 = alloca %"class.testing::internal::AssertHelper", align 8
  %gtest_ar124 = alloca %"class.testing::AssertionResult", align 8
  %ref.tmp125 = alloca i8, align 1
  %ref.tmp128 = alloca i8, align 1
  %ref.tmp132 = alloca %"class.testing::Message", align 8
  %ref.tmp135 = alloca %"class.testing::internal::AssertHelper", align 8
  %gtest_ar150 = alloca %"class.testing::AssertionResult", align 8
  %ref.tmp151 = alloca i32, align 4
  %ref.tmp153 = alloca i32, align 4
  %ref.tmp157 = alloca %"class.testing::Message", align 8
  %ref.tmp160 = alloca %"class.testing::internal::AssertHelper", align 8
  %gtest_ar178 = alloca %"class.testing::AssertionResult", align 8
  %ref.tmp179 = alloca i8, align 1
  %ref.tmp182 = alloca i8, align 1
  %ref.tmp186 = alloca %"class.testing::Message", align 8
  %ref.tmp189 = alloca %"class.testing::internal::AssertHelper", align 8
  %gtest_ar204 = alloca %"class.testing::AssertionResult", align 8
  %ref.tmp205 = alloca i32, align 4
  %ref.tmp207 = alloca i32, align 4
  %ref.tmp211 = alloca %"class.testing::Message", align 8
  %ref.tmp214 = alloca %"class.testing::internal::AssertHelper", align 8
  %gtest_ar232 = alloca %"class.testing::AssertionResult", align 8
  %ref.tmp233 = alloca i8, align 1
  %ref.tmp236 = alloca i8, align 1
  %ref.tmp240 = alloca %"class.testing::Message", align 8
  %ref.tmp243 = alloca %"class.testing::internal::AssertHelper", align 8
  %gtest_ar258 = alloca %"class.testing::AssertionResult", align 8
  %ref.tmp259 = alloca i32, align 4
  %ref.tmp261 = alloca i32, align 4
  %ref.tmp265 = alloca %"class.testing::Message", align 8
  %ref.tmp268 = alloca %"class.testing::internal::AssertHelper", align 8
  %gtest_ar286 = alloca %"class.testing::AssertionResult", align 8
  %ref.tmp287 = alloca i8, align 1
  %ref.tmp290 = alloca i8, align 1
  %ref.tmp294 = alloca %"class.testing::Message", align 8
  %ref.tmp297 = alloca %"class.testing::internal::AssertHelper", align 8
  %gtest_ar312 = alloca %"class.testing::AssertionResult", align 8
  %ref.tmp313 = alloca i32, align 4
  %ref.tmp315 = alloca i32, align 4
  %ref.tmp319 = alloca %"class.testing::Message", align 8
  %ref.tmp322 = alloca %"class.testing::internal::AssertHelper", align 8
  %gtest_ar340 = alloca %"class.testing::AssertionResult", align 8
  %ref.tmp341 = alloca i8, align 1
  %ref.tmp344 = alloca i8, align 1
  %ref.tmp348 = alloca %"class.testing::Message", align 8
  %ref.tmp351 = alloca %"class.testing::internal::AssertHelper", align 8
  %gtest_ar366 = alloca %"class.testing::AssertionResult", align 8
  %ref.tmp367 = alloca i32, align 4
  %ref.tmp369 = alloca i32, align 4
  %ref.tmp373 = alloca %"class.testing::Message", align 8
  %ref.tmp376 = alloca %"class.testing::internal::AssertHelper", align 8
  %gtest_ar394 = alloca %"class.testing::AssertionResult", align 8
  %ref.tmp395 = alloca i8, align 1
  %ref.tmp398 = alloca i8, align 1
  %ref.tmp402 = alloca %"class.testing::Message", align 8
  %ref.tmp405 = alloca %"class.testing::internal::AssertHelper", align 8
  %gtest_ar420 = alloca %"class.testing::AssertionResult", align 8
  %ref.tmp421 = alloca i32, align 4
  %ref.tmp423 = alloca i32, align 4
  %ref.tmp427 = alloca %"class.testing::Message", align 8
  %ref.tmp430 = alloca %"class.testing::internal::AssertHelper", align 8
  %gtest_ar448 = alloca %"class.testing::AssertionResult", align 8
  %ref.tmp449 = alloca i8, align 1
  %ref.tmp452 = alloca i8, align 1
  %ref.tmp456 = alloca %"class.testing::Message", align 8
  %ref.tmp459 = alloca %"class.testing::internal::AssertHelper", align 8
  %gtest_ar474 = alloca %"class.testing::AssertionResult", align 8
  %ref.tmp475 = alloca i32, align 4
  %ref.tmp477 = alloca i32, align 4
  %ref.tmp481 = alloca %"class.testing::Message", align 8
  %ref.tmp484 = alloca %"class.testing::internal::AssertHelper", align 8
  %gtest_ar502 = alloca %"class.testing::AssertionResult", align 8
  %ref.tmp503 = alloca i8, align 1
  %ref.tmp506 = alloca i8, align 1
  %ref.tmp510 = alloca %"class.testing::Message", align 8
  %ref.tmp513 = alloca %"class.testing::internal::AssertHelper", align 8
  %gtest_ar528 = alloca %"class.testing::AssertionResult", align 8
  %ref.tmp529 = alloca i32, align 4
  %ref.tmp531 = alloca i32, align 4
  %ref.tmp535 = alloca %"class.testing::Message", align 8
  %ref.tmp538 = alloca %"class.testing::internal::AssertHelper", align 8
  %gtest_ar556 = alloca %"class.testing::AssertionResult", align 8
  %ref.tmp557 = alloca i8, align 1
  %ref.tmp560 = alloca i8, align 1
  %ref.tmp564 = alloca %"class.testing::Message", align 8
  %ref.tmp567 = alloca %"class.testing::internal::AssertHelper", align 8
  %gtest_ar582 = alloca %"class.testing::AssertionResult", align 8
  %ref.tmp583 = alloca i32, align 4
  %ref.tmp585 = alloca i32, align 4
  %ref.tmp589 = alloca %"class.testing::Message", align 8
  %ref.tmp592 = alloca %"class.testing::internal::AssertHelper", align 8
  %gtest_ar610 = alloca %"class.testing::AssertionResult", align 8
  %ref.tmp611 = alloca i8, align 1
  %ref.tmp614 = alloca i8, align 1
  %ref.tmp618 = alloca %"class.testing::Message", align 8
  %ref.tmp621 = alloca %"class.testing::internal::AssertHelper", align 8
  %gtest_ar636 = alloca %"class.testing::AssertionResult", align 8
  %ref.tmp637 = alloca i32, align 4
  %ref.tmp639 = alloca i32, align 4
  %ref.tmp643 = alloca %"class.testing::Message", align 8
  %ref.tmp646 = alloca %"class.testing::internal::AssertHelper", align 8
  %gtest_ar664 = alloca %"class.testing::AssertionResult", align 8
  %ref.tmp665 = alloca i8, align 1
  %ref.tmp668 = alloca i8, align 1
  %ref.tmp672 = alloca %"class.testing::Message", align 8
  %ref.tmp675 = alloca %"class.testing::internal::AssertHelper", align 8
  %gtest_ar690 = alloca %"class.testing::AssertionResult", align 8
  %ref.tmp691 = alloca i32, align 4
  %ref.tmp693 = alloca i32, align 4
  %ref.tmp697 = alloca %"class.testing::Message", align 8
  %ref.tmp700 = alloca %"class.testing::internal::AssertHelper", align 8
  %gtest_ar718 = alloca %"class.testing::AssertionResult", align 8
  %ref.tmp719 = alloca i8, align 1
  %ref.tmp722 = alloca i8, align 1
  %ref.tmp726 = alloca %"class.testing::Message", align 8
  %ref.tmp729 = alloca %"class.testing::internal::AssertHelper", align 8
  call void @llvm.lifetime.start.p0(i64 16, ptr nonnull %gtest_ar) #23
  call void @llvm.lifetime.start.p0(i64 4, ptr nonnull %ref.tmp) #23
  %call = tail call i32 @setenv(ptr noundef nonnull @.str.43, ptr noundef nonnull @.str.34, i32 noundef 1) #23
  store i32 %call, ptr %ref.tmp, align 4, !tbaa !8
  call void @llvm.lifetime.start.p0(i64 4, ptr nonnull %ref.tmp2) #23
  store i32 0, ptr %ref.tmp2, align 4, !tbaa !8
  %cmp.i.i = icmp eq i32 %call, 0
  br i1 %cmp.i.i, label %if.then.i.i, label %if.end.i.i

if.then.i.i:                                      ; preds = %entry
  call void @_ZN7testing16AssertionSuccessEv(ptr nonnull sret(%"class.testing::AssertionResult") align 8 %gtest_ar)
  br label %_ZN7testing8internal8EqHelper7CompareIiiLPv0EEENS_15AssertionResultEPKcS6_RKT_RKT0_.exit

if.end.i.i:                                       ; preds = %entry
  call void @_ZN7testing8internal18CmpHelperEQFailureIiiEENS_15AssertionResultEPKcS4_RKT_RKT0_(ptr nonnull sret(%"class.testing::AssertionResult") align 8 %gtest_ar, ptr noundef nonnull @.str.42, ptr noundef nonnull @.str.34, ptr noundef nonnull align 4 dereferenceable(4) %ref.tmp, ptr noundef nonnull align 4 dereferenceable(4) %ref.tmp2)
  br label %_ZN7testing8internal8EqHelper7CompareIiiLPv0EEENS_15AssertionResultEPKcS6_RKT_RKT0_.exit

_ZN7testing8internal8EqHelper7CompareIiiLPv0EEENS_15AssertionResultEPKcS6_RKT_RKT0_.exit: ; preds = %if.then.i.i, %if.end.i.i
  call void @llvm.lifetime.end.p0(i64 4, ptr nonnull %ref.tmp2) #23
  call void @llvm.lifetime.end.p0(i64 4, ptr nonnull %ref.tmp) #23
  %0 = load i8, ptr %gtest_ar, align 8, !tbaa !11, !range !18, !noundef !19
  %tobool.i.not = icmp eq i8 %0, 0
  br i1 %tobool.i.not, label %if.else, label %cleanup

if.else:                                          ; preds = %_ZN7testing8internal8EqHelper7CompareIiiLPv0EEENS_15AssertionResultEPKcS6_RKT_RKT0_.exit
  call void @llvm.lifetime.start.p0(i64 8, ptr nonnull %ref.tmp4) #23
  invoke void @_ZN7testing7MessageC1Ev(ptr noundef nonnull align 8 dereferenceable(8) %ref.tmp4)
          to label %invoke.cont unwind label %lpad

invoke.cont:                                      ; preds = %if.else
  call void @llvm.lifetime.start.p0(i64 8, ptr nonnull %ref.tmp5) #23
  %message_.i.i = getelementptr inbounds %"class.testing::AssertionResult", ptr %gtest_ar, i64 0, i32 1
  %1 = load ptr, ptr %message_.i.i, align 8, !tbaa !20
  %cmp.not.i.i = icmp eq ptr %1, null
  br i1 %cmp.not.i.i, label %invoke.cont7, label %cond.true.i.i

cond.true.i.i:                                    ; preds = %invoke.cont
  %bf.load.i.i.i.i.i.i = load i8, ptr %1, align 8
  %bf.clear.i.i.i.i.i.i = and i8 %bf.load.i.i.i.i.i.i, 1
  %tobool.i.not.i.i.i.i.i = icmp eq i8 %bf.clear.i.i.i.i.i.i, 0
  %__data_.i.i.i.i.i.i = getelementptr inbounds %"struct.std::__1::basic_string<char>::__long", ptr %1, i64 0, i32 2
  %2 = load ptr, ptr %__data_.i.i.i.i.i.i, align 8
  %__data_.i4.i.i.i.i.i = getelementptr inbounds %"struct.std::__1::basic_string<char>::__short", ptr %1, i64 0, i32 2
  %cond.i.i.i.i.i = select i1 %tobool.i.not.i.i.i.i.i, ptr %__data_.i4.i.i.i.i.i, ptr %2
  br label %invoke.cont7

invoke.cont7:                                     ; preds = %cond.true.i.i, %invoke.cont
  %cond.i.i = phi ptr [ %cond.i.i.i.i.i, %cond.true.i.i ], [ @.str.40, %invoke.cont ]
  invoke void @_ZN7testing8internal12AssertHelperC1ENS_14TestPartResult4TypeEPKciS5_(ptr noundef nonnull align 8 dereferenceable(8) %ref.tmp5, i32 noundef 2, ptr noundef nonnull @.str.3, i32 noundef 33, ptr noundef %cond.i.i)
          to label %invoke.cont9 unwind label %lpad6

invoke.cont9:                                     ; preds = %invoke.cont7
  invoke void @_ZNK7testing8internal12AssertHelperaSERKNS_7MessageE(ptr noundef nonnull align 8 dereferenceable(8) %ref.tmp5, ptr noundef nonnull align 8 dereferenceable(8) %ref.tmp4)
          to label %invoke.cont11 unwind label %lpad10

invoke.cont11:                                    ; preds = %invoke.cont9
  call void @_ZN7testing8internal12AssertHelperD1Ev(ptr noundef nonnull align 8 dereferenceable(8) %ref.tmp5) #23
  call void @llvm.lifetime.end.p0(i64 8, ptr nonnull %ref.tmp5) #23
  %3 = load ptr, ptr %ref.tmp4, align 8, !tbaa !20
  store ptr null, ptr %ref.tmp4, align 8, !tbaa !20
  %tobool.not.i.i.i = icmp eq ptr %3, null
  br i1 %tobool.not.i.i.i, label %_ZN7testing7MessageD2Ev.exit, label %_ZNKSt3__114default_deleteINS_18basic_stringstreamIcNS_11char_traitsIcEENS_9allocatorIcEEEEEclB7v170000EPS6_.exit.i.i.i

_ZNKSt3__114default_deleteINS_18basic_stringstreamIcNS_11char_traitsIcEENS_9allocatorIcEEEEEclB7v170000EPS6_.exit.i.i.i: ; preds = %invoke.cont11
  %vtable.i.i.i.i = load ptr, ptr %3, align 8, !tbaa !5
  %vfn.i.i.i.i = getelementptr inbounds ptr, ptr %vtable.i.i.i.i, i64 1
  %4 = load ptr, ptr %vfn.i.i.i.i, align 8
  call void %4(ptr noundef nonnull align 8 dereferenceable(128) %3) #23
  br label %_ZN7testing7MessageD2Ev.exit

_ZN7testing7MessageD2Ev.exit:                     ; preds = %invoke.cont11, %_ZNKSt3__114default_deleteINS_18basic_stringstreamIcNS_11char_traitsIcEENS_9allocatorIcEEEEEclB7v170000EPS6_.exit.i.i.i
  call void @llvm.lifetime.end.p0(i64 8, ptr nonnull %ref.tmp4) #23
  br label %cleanup

lpad:                                             ; preds = %if.else
  %5 = landingpad { ptr, i32 }
          cleanup
  br label %ehcleanup13

lpad6:                                            ; preds = %invoke.cont7
  %6 = landingpad { ptr, i32 }
          cleanup
  br label %ehcleanup

lpad10:                                           ; preds = %invoke.cont9
  %7 = landingpad { ptr, i32 }
          cleanup
  call void @_ZN7testing8internal12AssertHelperD1Ev(ptr noundef nonnull align 8 dereferenceable(8) %ref.tmp5) #23
  br label %ehcleanup

ehcleanup:                                        ; preds = %lpad10, %lpad6
  %.pn = phi { ptr, i32 } [ %7, %lpad10 ], [ %6, %lpad6 ]
  call void @llvm.lifetime.end.p0(i64 8, ptr nonnull %ref.tmp5) #23
  %8 = load ptr, ptr %ref.tmp4, align 8, !tbaa !20
  store ptr null, ptr %ref.tmp4, align 8, !tbaa !20
  %tobool.not.i.i.i855 = icmp eq ptr %8, null
  br i1 %tobool.not.i.i.i855, label %ehcleanup13, label %_ZNKSt3__114default_deleteINS_18basic_stringstreamIcNS_11char_traitsIcEENS_9allocatorIcEEEEEclB7v170000EPS6_.exit.i.i.i858

_ZNKSt3__114default_deleteINS_18basic_stringstreamIcNS_11char_traitsIcEENS_9allocatorIcEEEEEclB7v170000EPS6_.exit.i.i.i858: ; preds = %ehcleanup
  %vtable.i.i.i.i856 = load ptr, ptr %8, align 8, !tbaa !5
  %vfn.i.i.i.i857 = getelementptr inbounds ptr, ptr %vtable.i.i.i.i856, i64 1
  %9 = load ptr, ptr %vfn.i.i.i.i857, align 8
  call void %9(ptr noundef nonnull align 8 dereferenceable(128) %8) #23
  br label %ehcleanup13

ehcleanup13:                                      ; preds = %_ZNKSt3__114default_deleteINS_18basic_stringstreamIcNS_11char_traitsIcEENS_9allocatorIcEEEEEclB7v170000EPS6_.exit.i.i.i858, %ehcleanup, %lpad
  %.pn.pn = phi { ptr, i32 } [ %5, %lpad ], [ %.pn, %ehcleanup ], [ %.pn, %_ZNKSt3__114default_deleteINS_18basic_stringstreamIcNS_11char_traitsIcEENS_9allocatorIcEEEEEclB7v170000EPS6_.exit.i.i.i858 ]
  call void @llvm.lifetime.end.p0(i64 8, ptr nonnull %ref.tmp4) #23
  call void @_ZN7testing15AssertionResultD2Ev(ptr noundef nonnull align 8 dereferenceable(16) %gtest_ar) #23
  call void @llvm.lifetime.end.p0(i64 16, ptr nonnull %gtest_ar) #23
  br label %eh.resume

cleanup:                                          ; preds = %_ZN7testing8internal8EqHelper7CompareIiiLPv0EEENS_15AssertionResultEPKcS6_RKT_RKT0_.exit, %_ZN7testing7MessageD2Ev.exit
  %message_.i = getelementptr inbounds %"class.testing::AssertionResult", ptr %gtest_ar, i64 0, i32 1
  %10 = load ptr, ptr %message_.i, align 8, !tbaa !20
  store ptr null, ptr %message_.i, align 8, !tbaa !20
  %tobool.not.i.i.i860 = icmp eq ptr %10, null
  br i1 %tobool.not.i.i.i860, label %_ZN7testing15AssertionResultD2Ev.exit, label %delete.notnull.i.i.i.i

delete.notnull.i.i.i.i:                           ; preds = %cleanup
  %bf.load.i.i.i.i.i.i861 = load i8, ptr %10, align 8
  %bf.clear.i.i.i.i.i.i862 = and i8 %bf.load.i.i.i.i.i.i861, 1
  %tobool.i.not.i.i.i.i.i863 = icmp eq i8 %bf.clear.i.i.i.i.i.i862, 0
  br i1 %tobool.i.not.i.i.i.i.i863, label %_ZNKSt3__114default_deleteINS_12basic_stringIcNS_11char_traitsIcEENS_9allocatorIcEEEEEclB7v170000EPS6_.exit.i.i.i, label %if.then.i.i.i.i.i

if.then.i.i.i.i.i:                                ; preds = %delete.notnull.i.i.i.i
  %__data_.i.i.i.i.i.i864 = getelementptr inbounds %"struct.std::__1::basic_string<char>::__long", ptr %10, i64 0, i32 2
  %11 = load ptr, ptr %__data_.i.i.i.i.i.i864, align 8, !tbaa !21
  call void @_ZdlPv(ptr noundef %11) #24
  br label %_ZNKSt3__114default_deleteINS_12basic_stringIcNS_11char_traitsIcEENS_9allocatorIcEEEEEclB7v170000EPS6_.exit.i.i.i

_ZNKSt3__114default_deleteINS_12basic_stringIcNS_11char_traitsIcEENS_9allocatorIcEEEEEclB7v170000EPS6_.exit.i.i.i: ; preds = %if.then.i.i.i.i.i, %delete.notnull.i.i.i.i
  call void @_ZdlPv(ptr noundef nonnull %10) #24
  br label %_ZN7testing15AssertionResultD2Ev.exit

_ZN7testing15AssertionResultD2Ev.exit:            ; preds = %cleanup, %_ZNKSt3__114default_deleteINS_12basic_stringIcNS_11char_traitsIcEENS_9allocatorIcEEEEEclB7v170000EPS6_.exit.i.i.i
  call void @llvm.lifetime.end.p0(i64 16, ptr nonnull %gtest_ar) #23
  br i1 %tobool.i.not, label %return, label %cleanup.cont

cleanup.cont:                                     ; preds = %_ZN7testing15AssertionResultD2Ev.exit
  call void @llvm.lifetime.start.p0(i64 16, ptr nonnull %gtest_ar17) #23
  call void @llvm.lifetime.start.p0(i64 1, ptr nonnull %ref.tmp18) #23
  %call19 = call noundef zeroext i1 @_ZN9benchmark11BoolFromEnvEPKcb(ptr noundef nonnull @.str.45, i1 noundef zeroext true)
  %frombool = zext i1 %call19 to i8
  store i8 %frombool, ptr %ref.tmp18, align 1, !tbaa !22
  call void @llvm.lifetime.start.p0(i64 1, ptr nonnull %ref.tmp20) #23
  store i8 0, ptr %ref.tmp20, align 1, !tbaa !22
  br i1 %call19, label %if.end.i.i867, label %if.then.i.i866

if.then.i.i866:                                   ; preds = %cleanup.cont
  call void @_ZN7testing16AssertionSuccessEv(ptr nonnull sret(%"class.testing::AssertionResult") align 8 %gtest_ar17)
  br label %_ZN7testing8internal8EqHelper7CompareIbbLPv0EEENS_15AssertionResultEPKcS6_RKT_RKT0_.exit

if.end.i.i867:                                    ; preds = %cleanup.cont
  call void @_ZN7testing8internal18CmpHelperEQFailureIbbEENS_15AssertionResultEPKcS4_RKT_RKT0_(ptr nonnull sret(%"class.testing::AssertionResult") align 8 %gtest_ar17, ptr noundef nonnull @.str.44, ptr noundef nonnull @.str.41, ptr noundef nonnull align 1 dereferenceable(1) %ref.tmp18, ptr noundef nonnull align 1 dereferenceable(1) %ref.tmp20)
  br label %_ZN7testing8internal8EqHelper7CompareIbbLPv0EEENS_15AssertionResultEPKcS6_RKT_RKT0_.exit

_ZN7testing8internal8EqHelper7CompareIbbLPv0EEENS_15AssertionResultEPKcS6_RKT_RKT0_.exit: ; preds = %if.then.i.i866, %if.end.i.i867
  call void @llvm.lifetime.end.p0(i64 1, ptr nonnull %ref.tmp20) #23
  call void @llvm.lifetime.end.p0(i64 1, ptr nonnull %ref.tmp18) #23
  %12 = load i8, ptr %gtest_ar17, align 8, !tbaa !11, !range !18, !noundef !19
  %tobool.i868.not = icmp eq i8 %12, 0
  br i1 %tobool.i868.not, label %if.else23, label %if.end38

if.else23:                                        ; preds = %_ZN7testing8internal8EqHelper7CompareIbbLPv0EEENS_15AssertionResultEPKcS6_RKT_RKT0_.exit
  call void @llvm.lifetime.start.p0(i64 8, ptr nonnull %ref.tmp24) #23
  invoke void @_ZN7testing7MessageC1Ev(ptr noundef nonnull align 8 dereferenceable(8) %ref.tmp24)
          to label %invoke.cont26 unwind label %lpad25

invoke.cont26:                                    ; preds = %if.else23
  call void @llvm.lifetime.start.p0(i64 8, ptr nonnull %ref.tmp27) #23
  %message_.i.i869 = getelementptr inbounds %"class.testing::AssertionResult", ptr %gtest_ar17, i64 0, i32 1
  %13 = load ptr, ptr %message_.i.i869, align 8, !tbaa !20
  %cmp.not.i.i870 = icmp eq ptr %13, null
  br i1 %cmp.not.i.i870, label %invoke.cont29, label %cond.true.i.i877

cond.true.i.i877:                                 ; preds = %invoke.cont26
  %bf.load.i.i.i.i.i.i871 = load i8, ptr %13, align 8
  %bf.clear.i.i.i.i.i.i872 = and i8 %bf.load.i.i.i.i.i.i871, 1
  %tobool.i.not.i.i.i.i.i873 = icmp eq i8 %bf.clear.i.i.i.i.i.i872, 0
  %__data_.i.i.i.i.i.i874 = getelementptr inbounds %"struct.std::__1::basic_string<char>::__long", ptr %13, i64 0, i32 2
  %14 = load ptr, ptr %__data_.i.i.i.i.i.i874, align 8
  %__data_.i4.i.i.i.i.i875 = getelementptr inbounds %"struct.std::__1::basic_string<char>::__short", ptr %13, i64 0, i32 2
  %cond.i.i.i.i.i876 = select i1 %tobool.i.not.i.i.i.i.i873, ptr %__data_.i4.i.i.i.i.i875, ptr %14
  br label %invoke.cont29

invoke.cont29:                                    ; preds = %cond.true.i.i877, %invoke.cont26
  %cond.i.i878 = phi ptr [ %cond.i.i.i.i.i876, %cond.true.i.i877 ], [ @.str.40, %invoke.cont26 ]
  invoke void @_ZN7testing8internal12AssertHelperC1ENS_14TestPartResult4TypeEPKciS5_(ptr noundef nonnull align 8 dereferenceable(8) %ref.tmp27, i32 noundef 1, ptr noundef nonnull @.str.3, i32 noundef 34, ptr noundef %cond.i.i878)
          to label %invoke.cont31 unwind label %lpad28

invoke.cont31:                                    ; preds = %invoke.cont29
  invoke void @_ZNK7testing8internal12AssertHelperaSERKNS_7MessageE(ptr noundef nonnull align 8 dereferenceable(8) %ref.tmp27, ptr noundef nonnull align 8 dereferenceable(8) %ref.tmp24)
          to label %invoke.cont33 unwind label %lpad32

invoke.cont33:                                    ; preds = %invoke.cont31
  call void @_ZN7testing8internal12AssertHelperD1Ev(ptr noundef nonnull align 8 dereferenceable(8) %ref.tmp27) #23
  call void @llvm.lifetime.end.p0(i64 8, ptr nonnull %ref.tmp27) #23
  %15 = load ptr, ptr %ref.tmp24, align 8, !tbaa !20
  store ptr null, ptr %ref.tmp24, align 8, !tbaa !20
  %tobool.not.i.i.i880 = icmp eq ptr %15, null
  br i1 %tobool.not.i.i.i880, label %_ZN7testing7MessageD2Ev.exit884, label %_ZNKSt3__114default_deleteINS_18basic_stringstreamIcNS_11char_traitsIcEENS_9allocatorIcEEEEEclB7v170000EPS6_.exit.i.i.i883

_ZNKSt3__114default_deleteINS_18basic_stringstreamIcNS_11char_traitsIcEENS_9allocatorIcEEEEEclB7v170000EPS6_.exit.i.i.i883: ; preds = %invoke.cont33
  %vtable.i.i.i.i881 = load ptr, ptr %15, align 8, !tbaa !5
  %vfn.i.i.i.i882 = getelementptr inbounds ptr, ptr %vtable.i.i.i.i881, i64 1
  %16 = load ptr, ptr %vfn.i.i.i.i882, align 8
  call void %16(ptr noundef nonnull align 8 dereferenceable(128) %15) #23
  br label %_ZN7testing7MessageD2Ev.exit884

_ZN7testing7MessageD2Ev.exit884:                  ; preds = %invoke.cont33, %_ZNKSt3__114default_deleteINS_18basic_stringstreamIcNS_11char_traitsIcEENS_9allocatorIcEEEEEclB7v170000EPS6_.exit.i.i.i883
  call void @llvm.lifetime.end.p0(i64 8, ptr nonnull %ref.tmp24) #23
  br label %if.end38

lpad25:                                           ; preds = %if.else23
  %17 = landingpad { ptr, i32 }
          cleanup
  br label %ehcleanup37

lpad28:                                           ; preds = %invoke.cont29
  %18 = landingpad { ptr, i32 }
          cleanup
  br label %ehcleanup35

lpad32:                                           ; preds = %invoke.cont31
  %19 = landingpad { ptr, i32 }
          cleanup
  call void @_ZN7testing8internal12AssertHelperD1Ev(ptr noundef nonnull align 8 dereferenceable(8) %ref.tmp27) #23
  br label %ehcleanup35

ehcleanup35:                                      ; preds = %lpad32, %lpad28
  %.pn760 = phi { ptr, i32 } [ %19, %lpad32 ], [ %18, %lpad28 ]
  call void @llvm.lifetime.end.p0(i64 8, ptr nonnull %ref.tmp27) #23
  %20 = load ptr, ptr %ref.tmp24, align 8, !tbaa !20
  store ptr null, ptr %ref.tmp24, align 8, !tbaa !20
  %tobool.not.i.i.i885 = icmp eq ptr %20, null
  br i1 %tobool.not.i.i.i885, label %ehcleanup37, label %_ZNKSt3__114default_deleteINS_18basic_stringstreamIcNS_11char_traitsIcEENS_9allocatorIcEEEEEclB7v170000EPS6_.exit.i.i.i888

_ZNKSt3__114default_deleteINS_18basic_stringstreamIcNS_11char_traitsIcEENS_9allocatorIcEEEEEclB7v170000EPS6_.exit.i.i.i888: ; preds = %ehcleanup35
  %vtable.i.i.i.i886 = load ptr, ptr %20, align 8, !tbaa !5
  %vfn.i.i.i.i887 = getelementptr inbounds ptr, ptr %vtable.i.i.i.i886, i64 1
  %21 = load ptr, ptr %vfn.i.i.i.i887, align 8
  call void %21(ptr noundef nonnull align 8 dereferenceable(128) %20) #23
  br label %ehcleanup37

ehcleanup37:                                      ; preds = %_ZNKSt3__114default_deleteINS_18basic_stringstreamIcNS_11char_traitsIcEENS_9allocatorIcEEEEEclB7v170000EPS6_.exit.i.i.i888, %ehcleanup35, %lpad25
  %.pn760.pn = phi { ptr, i32 } [ %17, %lpad25 ], [ %.pn760, %ehcleanup35 ], [ %.pn760, %_ZNKSt3__114default_deleteINS_18basic_stringstreamIcNS_11char_traitsIcEENS_9allocatorIcEEEEEclB7v170000EPS6_.exit.i.i.i888 ]
  call void @llvm.lifetime.end.p0(i64 8, ptr nonnull %ref.tmp24) #23
  call void @_ZN7testing15AssertionResultD2Ev(ptr noundef nonnull align 8 dereferenceable(16) %gtest_ar17) #23
  call void @llvm.lifetime.end.p0(i64 16, ptr nonnull %gtest_ar17) #23
  br label %eh.resume

if.end38:                                         ; preds = %_ZN7testing8internal8EqHelper7CompareIbbLPv0EEENS_15AssertionResultEPKcS6_RKT_RKT0_.exit, %_ZN7testing7MessageD2Ev.exit884
  %message_.i890 = getelementptr inbounds %"class.testing::AssertionResult", ptr %gtest_ar17, i64 0, i32 1
  %22 = load ptr, ptr %message_.i890, align 8, !tbaa !20
  store ptr null, ptr %message_.i890, align 8, !tbaa !20
  %tobool.not.i.i.i891 = icmp eq ptr %22, null
  br i1 %tobool.not.i.i.i891, label %_ZN7testing15AssertionResultD2Ev.exit899, label %delete.notnull.i.i.i.i895

delete.notnull.i.i.i.i895:                        ; preds = %if.end38
  %bf.load.i.i.i.i.i.i892 = load i8, ptr %22, align 8
  %bf.clear.i.i.i.i.i.i893 = and i8 %bf.load.i.i.i.i.i.i892, 1
  %tobool.i.not.i.i.i.i.i894 = icmp eq i8 %bf.clear.i.i.i.i.i.i893, 0
  br i1 %tobool.i.not.i.i.i.i.i894, label %_ZNKSt3__114default_deleteINS_12basic_stringIcNS_11char_traitsIcEENS_9allocatorIcEEEEEclB7v170000EPS6_.exit.i.i.i898, label %if.then.i.i.i.i.i897

if.then.i.i.i.i.i897:                             ; preds = %delete.notnull.i.i.i.i895
  %__data_.i.i.i.i.i.i896 = getelementptr inbounds %"struct.std::__1::basic_string<char>::__long", ptr %22, i64 0, i32 2
  %23 = load ptr, ptr %__data_.i.i.i.i.i.i896, align 8, !tbaa !21
  call void @_ZdlPv(ptr noundef %23) #24
  br label %_ZNKSt3__114default_deleteINS_12basic_stringIcNS_11char_traitsIcEENS_9allocatorIcEEEEEclB7v170000EPS6_.exit.i.i.i898

_ZNKSt3__114default_deleteINS_12basic_stringIcNS_11char_traitsIcEENS_9allocatorIcEEEEEclB7v170000EPS6_.exit.i.i.i898: ; preds = %if.then.i.i.i.i.i897, %delete.notnull.i.i.i.i895
  call void @_ZdlPv(ptr noundef nonnull %22) #24
  br label %_ZN7testing15AssertionResultD2Ev.exit899

_ZN7testing15AssertionResultD2Ev.exit899:         ; preds = %if.end38, %_ZNKSt3__114default_deleteINS_12basic_stringIcNS_11char_traitsIcEENS_9allocatorIcEEEEEclB7v170000EPS6_.exit.i.i.i898
  call void @llvm.lifetime.end.p0(i64 16, ptr nonnull %gtest_ar17) #23
  %call41 = call i32 @unsetenv(ptr noundef nonnull @.str.43) #23
  call void @llvm.lifetime.start.p0(i64 16, ptr nonnull %gtest_ar42) #23
  call void @llvm.lifetime.start.p0(i64 4, ptr nonnull %ref.tmp43) #23
  %call44 = call i32 @setenv(ptr noundef nonnull @.str.43, ptr noundef nonnull @.str.47, i32 noundef 1) #23
  store i32 %call44, ptr %ref.tmp43, align 4, !tbaa !8
  call void @llvm.lifetime.start.p0(i64 4, ptr nonnull %ref.tmp45) #23
  store i32 0, ptr %ref.tmp45, align 4, !tbaa !8
  %cmp.i.i900 = icmp eq i32 %call44, 0
  br i1 %cmp.i.i900, label %if.then.i.i901, label %if.end.i.i902

if.then.i.i901:                                   ; preds = %_ZN7testing15AssertionResultD2Ev.exit899
  call void @_ZN7testing16AssertionSuccessEv(ptr nonnull sret(%"class.testing::AssertionResult") align 8 %gtest_ar42)
  br label %_ZN7testing8internal8EqHelper7CompareIiiLPv0EEENS_15AssertionResultEPKcS6_RKT_RKT0_.exit903

if.end.i.i902:                                    ; preds = %_ZN7testing15AssertionResultD2Ev.exit899
  call void @_ZN7testing8internal18CmpHelperEQFailureIiiEENS_15AssertionResultEPKcS4_RKT_RKT0_(ptr nonnull sret(%"class.testing::AssertionResult") align 8 %gtest_ar42, ptr noundef nonnull @.str.46, ptr noundef nonnull @.str.34, ptr noundef nonnull align 4 dereferenceable(4) %ref.tmp43, ptr noundef nonnull align 4 dereferenceable(4) %ref.tmp45)
  br label %_ZN7testing8internal8EqHelper7CompareIiiLPv0EEENS_15AssertionResultEPKcS6_RKT_RKT0_.exit903

_ZN7testing8internal8EqHelper7CompareIiiLPv0EEENS_15AssertionResultEPKcS6_RKT_RKT0_.exit903: ; preds = %if.then.i.i901, %if.end.i.i902
  call void @llvm.lifetime.end.p0(i64 4, ptr nonnull %ref.tmp45) #23
  call void @llvm.lifetime.end.p0(i64 4, ptr nonnull %ref.tmp43) #23
  %24 = load i8, ptr %gtest_ar42, align 8, !tbaa !11, !range !18, !noundef !19
  %tobool.i904.not = icmp eq i8 %24, 0
  br i1 %tobool.i904.not, label %if.else48, label %cleanup64

if.else48:                                        ; preds = %_ZN7testing8internal8EqHelper7CompareIiiLPv0EEENS_15AssertionResultEPKcS6_RKT_RKT0_.exit903
  call void @llvm.lifetime.start.p0(i64 8, ptr nonnull %ref.tmp49) #23
  invoke void @_ZN7testing7MessageC1Ev(ptr noundef nonnull align 8 dereferenceable(8) %ref.tmp49)
          to label %invoke.cont51 unwind label %lpad50

invoke.cont51:                                    ; preds = %if.else48
  call void @llvm.lifetime.start.p0(i64 8, ptr nonnull %ref.tmp52) #23
  %message_.i.i905 = getelementptr inbounds %"class.testing::AssertionResult", ptr %gtest_ar42, i64 0, i32 1
  %25 = load ptr, ptr %message_.i.i905, align 8, !tbaa !20
  %cmp.not.i.i906 = icmp eq ptr %25, null
  br i1 %cmp.not.i.i906, label %invoke.cont54, label %cond.true.i.i913

cond.true.i.i913:                                 ; preds = %invoke.cont51
  %bf.load.i.i.i.i.i.i907 = load i8, ptr %25, align 8
  %bf.clear.i.i.i.i.i.i908 = and i8 %bf.load.i.i.i.i.i.i907, 1
  %tobool.i.not.i.i.i.i.i909 = icmp eq i8 %bf.clear.i.i.i.i.i.i908, 0
  %__data_.i.i.i.i.i.i910 = getelementptr inbounds %"struct.std::__1::basic_string<char>::__long", ptr %25, i64 0, i32 2
  %26 = load ptr, ptr %__data_.i.i.i.i.i.i910, align 8
  %__data_.i4.i.i.i.i.i911 = getelementptr inbounds %"struct.std::__1::basic_string<char>::__short", ptr %25, i64 0, i32 2
  %cond.i.i.i.i.i912 = select i1 %tobool.i.not.i.i.i.i.i909, ptr %__data_.i4.i.i.i.i.i911, ptr %26
  br label %invoke.cont54

invoke.cont54:                                    ; preds = %cond.true.i.i913, %invoke.cont51
  %cond.i.i914 = phi ptr [ %cond.i.i.i.i.i912, %cond.true.i.i913 ], [ @.str.40, %invoke.cont51 ]
  invoke void @_ZN7testing8internal12AssertHelperC1ENS_14TestPartResult4TypeEPKciS5_(ptr noundef nonnull align 8 dereferenceable(8) %ref.tmp52, i32 noundef 2, ptr noundef nonnull @.str.3, i32 noundef 37, ptr noundef %cond.i.i914)
          to label %invoke.cont56 unwind label %lpad53

invoke.cont56:                                    ; preds = %invoke.cont54
  invoke void @_ZNK7testing8internal12AssertHelperaSERKNS_7MessageE(ptr noundef nonnull align 8 dereferenceable(8) %ref.tmp52, ptr noundef nonnull align 8 dereferenceable(8) %ref.tmp49)
          to label %invoke.cont58 unwind label %lpad57

invoke.cont58:                                    ; preds = %invoke.cont56
  call void @_ZN7testing8internal12AssertHelperD1Ev(ptr noundef nonnull align 8 dereferenceable(8) %ref.tmp52) #23
  call void @llvm.lifetime.end.p0(i64 8, ptr nonnull %ref.tmp52) #23
  %27 = load ptr, ptr %ref.tmp49, align 8, !tbaa !20
  store ptr null, ptr %ref.tmp49, align 8, !tbaa !20
  %tobool.not.i.i.i916 = icmp eq ptr %27, null
  br i1 %tobool.not.i.i.i916, label %_ZN7testing7MessageD2Ev.exit920, label %_ZNKSt3__114default_deleteINS_18basic_stringstreamIcNS_11char_traitsIcEENS_9allocatorIcEEEEEclB7v170000EPS6_.exit.i.i.i919

_ZNKSt3__114default_deleteINS_18basic_stringstreamIcNS_11char_traitsIcEENS_9allocatorIcEEEEEclB7v170000EPS6_.exit.i.i.i919: ; preds = %invoke.cont58
  %vtable.i.i.i.i917 = load ptr, ptr %27, align 8, !tbaa !5
  %vfn.i.i.i.i918 = getelementptr inbounds ptr, ptr %vtable.i.i.i.i917, i64 1
  %28 = load ptr, ptr %vfn.i.i.i.i918, align 8
  call void %28(ptr noundef nonnull align 8 dereferenceable(128) %27) #23
  br label %_ZN7testing7MessageD2Ev.exit920

_ZN7testing7MessageD2Ev.exit920:                  ; preds = %invoke.cont58, %_ZNKSt3__114default_deleteINS_18basic_stringstreamIcNS_11char_traitsIcEENS_9allocatorIcEEEEEclB7v170000EPS6_.exit.i.i.i919
  call void @llvm.lifetime.end.p0(i64 8, ptr nonnull %ref.tmp49) #23
  br label %cleanup64

lpad50:                                           ; preds = %if.else48
  %29 = landingpad { ptr, i32 }
          cleanup
  br label %ehcleanup62

lpad53:                                           ; preds = %invoke.cont54
  %30 = landingpad { ptr, i32 }
          cleanup
  br label %ehcleanup60

lpad57:                                           ; preds = %invoke.cont56
  %31 = landingpad { ptr, i32 }
          cleanup
  call void @_ZN7testing8internal12AssertHelperD1Ev(ptr noundef nonnull align 8 dereferenceable(8) %ref.tmp52) #23
  br label %ehcleanup60

ehcleanup60:                                      ; preds = %lpad57, %lpad53
  %.pn763 = phi { ptr, i32 } [ %31, %lpad57 ], [ %30, %lpad53 ]
  call void @llvm.lifetime.end.p0(i64 8, ptr nonnull %ref.tmp52) #23
  %32 = load ptr, ptr %ref.tmp49, align 8, !tbaa !20
  store ptr null, ptr %ref.tmp49, align 8, !tbaa !20
  %tobool.not.i.i.i921 = icmp eq ptr %32, null
  br i1 %tobool.not.i.i.i921, label %ehcleanup62, label %_ZNKSt3__114default_deleteINS_18basic_stringstreamIcNS_11char_traitsIcEENS_9allocatorIcEEEEEclB7v170000EPS6_.exit.i.i.i924

_ZNKSt3__114default_deleteINS_18basic_stringstreamIcNS_11char_traitsIcEENS_9allocatorIcEEEEEclB7v170000EPS6_.exit.i.i.i924: ; preds = %ehcleanup60
  %vtable.i.i.i.i922 = load ptr, ptr %32, align 8, !tbaa !5
  %vfn.i.i.i.i923 = getelementptr inbounds ptr, ptr %vtable.i.i.i.i922, i64 1
  %33 = load ptr, ptr %vfn.i.i.i.i923, align 8
  call void %33(ptr noundef nonnull align 8 dereferenceable(128) %32) #23
  br label %ehcleanup62

ehcleanup62:                                      ; preds = %_ZNKSt3__114default_deleteINS_18basic_stringstreamIcNS_11char_traitsIcEENS_9allocatorIcEEEEEclB7v170000EPS6_.exit.i.i.i924, %ehcleanup60, %lpad50
  %.pn763.pn = phi { ptr, i32 } [ %29, %lpad50 ], [ %.pn763, %ehcleanup60 ], [ %.pn763, %_ZNKSt3__114default_deleteINS_18basic_stringstreamIcNS_11char_traitsIcEENS_9allocatorIcEEEEEclB7v170000EPS6_.exit.i.i.i924 ]
  call void @llvm.lifetime.end.p0(i64 8, ptr nonnull %ref.tmp49) #23
  call void @_ZN7testing15AssertionResultD2Ev(ptr noundef nonnull align 8 dereferenceable(16) %gtest_ar42) #23
  call void @llvm.lifetime.end.p0(i64 16, ptr nonnull %gtest_ar42) #23
  br label %eh.resume

cleanup64:                                        ; preds = %_ZN7testing8internal8EqHelper7CompareIiiLPv0EEENS_15AssertionResultEPKcS6_RKT_RKT0_.exit903, %_ZN7testing7MessageD2Ev.exit920
  %message_.i926 = getelementptr inbounds %"class.testing::AssertionResult", ptr %gtest_ar42, i64 0, i32 1
  %34 = load ptr, ptr %message_.i926, align 8, !tbaa !20
  store ptr null, ptr %message_.i926, align 8, !tbaa !20
  %tobool.not.i.i.i927 = icmp eq ptr %34, null
  br i1 %tobool.not.i.i.i927, label %_ZN7testing15AssertionResultD2Ev.exit935, label %delete.notnull.i.i.i.i931

delete.notnull.i.i.i.i931:                        ; preds = %cleanup64
  %bf.load.i.i.i.i.i.i928 = load i8, ptr %34, align 8
  %bf.clear.i.i.i.i.i.i929 = and i8 %bf.load.i.i.i.i.i.i928, 1
  %tobool.i.not.i.i.i.i.i930 = icmp eq i8 %bf.clear.i.i.i.i.i.i929, 0
  br i1 %tobool.i.not.i.i.i.i.i930, label %_ZNKSt3__114default_deleteINS_12basic_stringIcNS_11char_traitsIcEENS_9allocatorIcEEEEEclB7v170000EPS6_.exit.i.i.i934, label %if.then.i.i.i.i.i933

if.then.i.i.i.i.i933:                             ; preds = %delete.notnull.i.i.i.i931
  %__data_.i.i.i.i.i.i932 = getelementptr inbounds %"struct.std::__1::basic_string<char>::__long", ptr %34, i64 0, i32 2
  %35 = load ptr, ptr %__data_.i.i.i.i.i.i932, align 8, !tbaa !21
  call void @_ZdlPv(ptr noundef %35) #24
  br label %_ZNKSt3__114default_deleteINS_12basic_stringIcNS_11char_traitsIcEENS_9allocatorIcEEEEEclB7v170000EPS6_.exit.i.i.i934

_ZNKSt3__114default_deleteINS_12basic_stringIcNS_11char_traitsIcEENS_9allocatorIcEEEEEclB7v170000EPS6_.exit.i.i.i934: ; preds = %if.then.i.i.i.i.i933, %delete.notnull.i.i.i.i931
  call void @_ZdlPv(ptr noundef nonnull %34) #24
  br label %_ZN7testing15AssertionResultD2Ev.exit935

_ZN7testing15AssertionResultD2Ev.exit935:         ; preds = %cleanup64, %_ZNKSt3__114default_deleteINS_12basic_stringIcNS_11char_traitsIcEENS_9allocatorIcEEEEEclB7v170000EPS6_.exit.i.i.i934
  call void @llvm.lifetime.end.p0(i64 16, ptr nonnull %gtest_ar42) #23
  br i1 %tobool.i904.not, label %return, label %cleanup.cont68

cleanup.cont68:                                   ; preds = %_ZN7testing15AssertionResultD2Ev.exit935
  call void @llvm.lifetime.start.p0(i64 16, ptr nonnull %gtest_ar70) #23
  call void @llvm.lifetime.start.p0(i64 1, ptr nonnull %ref.tmp71) #23
  %call72 = call noundef zeroext i1 @_ZN9benchmark11BoolFromEnvEPKcb(ptr noundef nonnull @.str.45, i1 noundef zeroext true)
  %frombool73 = zext i1 %call72 to i8
  store i8 %frombool73, ptr %ref.tmp71, align 1, !tbaa !22
  call void @llvm.lifetime.start.p0(i64 1, ptr nonnull %ref.tmp74) #23
  store i8 0, ptr %ref.tmp74, align 1, !tbaa !22
  br i1 %call72, label %if.end.i.i938, label %if.then.i.i937

if.then.i.i937:                                   ; preds = %cleanup.cont68
  call void @_ZN7testing16AssertionSuccessEv(ptr nonnull sret(%"class.testing::AssertionResult") align 8 %gtest_ar70)
  br label %_ZN7testing8internal8EqHelper7CompareIbbLPv0EEENS_15AssertionResultEPKcS6_RKT_RKT0_.exit939

if.end.i.i938:                                    ; preds = %cleanup.cont68
  call void @_ZN7testing8internal18CmpHelperEQFailureIbbEENS_15AssertionResultEPKcS4_RKT_RKT0_(ptr nonnull sret(%"class.testing::AssertionResult") align 8 %gtest_ar70, ptr noundef nonnull @.str.44, ptr noundef nonnull @.str.41, ptr noundef nonnull align 1 dereferenceable(1) %ref.tmp71, ptr noundef nonnull align 1 dereferenceable(1) %ref.tmp74)
  br label %_ZN7testing8internal8EqHelper7CompareIbbLPv0EEENS_15AssertionResultEPKcS6_RKT_RKT0_.exit939

_ZN7testing8internal8EqHelper7CompareIbbLPv0EEENS_15AssertionResultEPKcS6_RKT_RKT0_.exit939: ; preds = %if.then.i.i937, %if.end.i.i938
  call void @llvm.lifetime.end.p0(i64 1, ptr nonnull %ref.tmp74) #23
  call void @llvm.lifetime.end.p0(i64 1, ptr nonnull %ref.tmp71) #23
  %36 = load i8, ptr %gtest_ar70, align 8, !tbaa !11, !range !18, !noundef !19
  %tobool.i940.not = icmp eq i8 %36, 0
  br i1 %tobool.i940.not, label %if.else77, label %if.end92

if.else77:                                        ; preds = %_ZN7testing8internal8EqHelper7CompareIbbLPv0EEENS_15AssertionResultEPKcS6_RKT_RKT0_.exit939
  call void @llvm.lifetime.start.p0(i64 8, ptr nonnull %ref.tmp78) #23
  invoke void @_ZN7testing7MessageC1Ev(ptr noundef nonnull align 8 dereferenceable(8) %ref.tmp78)
          to label %invoke.cont80 unwind label %lpad79

invoke.cont80:                                    ; preds = %if.else77
  call void @llvm.lifetime.start.p0(i64 8, ptr nonnull %ref.tmp81) #23
  %message_.i.i941 = getelementptr inbounds %"class.testing::AssertionResult", ptr %gtest_ar70, i64 0, i32 1
  %37 = load ptr, ptr %message_.i.i941, align 8, !tbaa !20
  %cmp.not.i.i942 = icmp eq ptr %37, null
  br i1 %cmp.not.i.i942, label %invoke.cont83, label %cond.true.i.i949

cond.true.i.i949:                                 ; preds = %invoke.cont80
  %bf.load.i.i.i.i.i.i943 = load i8, ptr %37, align 8
  %bf.clear.i.i.i.i.i.i944 = and i8 %bf.load.i.i.i.i.i.i943, 1
  %tobool.i.not.i.i.i.i.i945 = icmp eq i8 %bf.clear.i.i.i.i.i.i944, 0
  %__data_.i.i.i.i.i.i946 = getelementptr inbounds %"struct.std::__1::basic_string<char>::__long", ptr %37, i64 0, i32 2
  %38 = load ptr, ptr %__data_.i.i.i.i.i.i946, align 8
  %__data_.i4.i.i.i.i.i947 = getelementptr inbounds %"struct.std::__1::basic_string<char>::__short", ptr %37, i64 0, i32 2
  %cond.i.i.i.i.i948 = select i1 %tobool.i.not.i.i.i.i.i945, ptr %__data_.i4.i.i.i.i.i947, ptr %38
  br label %invoke.cont83

invoke.cont83:                                    ; preds = %cond.true.i.i949, %invoke.cont80
  %cond.i.i950 = phi ptr [ %cond.i.i.i.i.i948, %cond.true.i.i949 ], [ @.str.40, %invoke.cont80 ]
  invoke void @_ZN7testing8internal12AssertHelperC1ENS_14TestPartResult4TypeEPKciS5_(ptr noundef nonnull align 8 dereferenceable(8) %ref.tmp81, i32 noundef 1, ptr noundef nonnull @.str.3, i32 noundef 38, ptr noundef %cond.i.i950)
          to label %invoke.cont85 unwind label %lpad82

invoke.cont85:                                    ; preds = %invoke.cont83
  invoke void @_ZNK7testing8internal12AssertHelperaSERKNS_7MessageE(ptr noundef nonnull align 8 dereferenceable(8) %ref.tmp81, ptr noundef nonnull align 8 dereferenceable(8) %ref.tmp78)
          to label %invoke.cont87 unwind label %lpad86

invoke.cont87:                                    ; preds = %invoke.cont85
  call void @_ZN7testing8internal12AssertHelperD1Ev(ptr noundef nonnull align 8 dereferenceable(8) %ref.tmp81) #23
  call void @llvm.lifetime.end.p0(i64 8, ptr nonnull %ref.tmp81) #23
  %39 = load ptr, ptr %ref.tmp78, align 8, !tbaa !20
  store ptr null, ptr %ref.tmp78, align 8, !tbaa !20
  %tobool.not.i.i.i952 = icmp eq ptr %39, null
  br i1 %tobool.not.i.i.i952, label %_ZN7testing7MessageD2Ev.exit956, label %_ZNKSt3__114default_deleteINS_18basic_stringstreamIcNS_11char_traitsIcEENS_9allocatorIcEEEEEclB7v170000EPS6_.exit.i.i.i955

_ZNKSt3__114default_deleteINS_18basic_stringstreamIcNS_11char_traitsIcEENS_9allocatorIcEEEEEclB7v170000EPS6_.exit.i.i.i955: ; preds = %invoke.cont87
  %vtable.i.i.i.i953 = load ptr, ptr %39, align 8, !tbaa !5
  %vfn.i.i.i.i954 = getelementptr inbounds ptr, ptr %vtable.i.i.i.i953, i64 1
  %40 = load ptr, ptr %vfn.i.i.i.i954, align 8
  call void %40(ptr noundef nonnull align 8 dereferenceable(128) %39) #23
  br label %_ZN7testing7MessageD2Ev.exit956

_ZN7testing7MessageD2Ev.exit956:                  ; preds = %invoke.cont87, %_ZNKSt3__114default_deleteINS_18basic_stringstreamIcNS_11char_traitsIcEENS_9allocatorIcEEEEEclB7v170000EPS6_.exit.i.i.i955
  call void @llvm.lifetime.end.p0(i64 8, ptr nonnull %ref.tmp78) #23
  br label %if.end92

lpad79:                                           ; preds = %if.else77
  %41 = landingpad { ptr, i32 }
          cleanup
  br label %ehcleanup91

lpad82:                                           ; preds = %invoke.cont83
  %42 = landingpad { ptr, i32 }
          cleanup
  br label %ehcleanup89

lpad86:                                           ; preds = %invoke.cont85
  %43 = landingpad { ptr, i32 }
          cleanup
  call void @_ZN7testing8internal12AssertHelperD1Ev(ptr noundef nonnull align 8 dereferenceable(8) %ref.tmp81) #23
  br label %ehcleanup89

ehcleanup89:                                      ; preds = %lpad86, %lpad82
  %.pn766 = phi { ptr, i32 } [ %43, %lpad86 ], [ %42, %lpad82 ]
  call void @llvm.lifetime.end.p0(i64 8, ptr nonnull %ref.tmp81) #23
  %44 = load ptr, ptr %ref.tmp78, align 8, !tbaa !20
  store ptr null, ptr %ref.tmp78, align 8, !tbaa !20
  %tobool.not.i.i.i957 = icmp eq ptr %44, null
  br i1 %tobool.not.i.i.i957, label %ehcleanup91, label %_ZNKSt3__114default_deleteINS_18basic_stringstreamIcNS_11char_traitsIcEENS_9allocatorIcEEEEEclB7v170000EPS6_.exit.i.i.i960

_ZNKSt3__114default_deleteINS_18basic_stringstreamIcNS_11char_traitsIcEENS_9allocatorIcEEEEEclB7v170000EPS6_.exit.i.i.i960: ; preds = %ehcleanup89
  %vtable.i.i.i.i958 = load ptr, ptr %44, align 8, !tbaa !5
  %vfn.i.i.i.i959 = getelementptr inbounds ptr, ptr %vtable.i.i.i.i958, i64 1
  %45 = load ptr, ptr %vfn.i.i.i.i959, align 8
  call void %45(ptr noundef nonnull align 8 dereferenceable(128) %44) #23
  br label %ehcleanup91

ehcleanup91:                                      ; preds = %_ZNKSt3__114default_deleteINS_18basic_stringstreamIcNS_11char_traitsIcEENS_9allocatorIcEEEEEclB7v170000EPS6_.exit.i.i.i960, %ehcleanup89, %lpad79
  %.pn766.pn = phi { ptr, i32 } [ %41, %lpad79 ], [ %.pn766, %ehcleanup89 ], [ %.pn766, %_ZNKSt3__114default_deleteINS_18basic_stringstreamIcNS_11char_traitsIcEENS_9allocatorIcEEEEEclB7v170000EPS6_.exit.i.i.i960 ]
  call void @llvm.lifetime.end.p0(i64 8, ptr nonnull %ref.tmp78) #23
  call void @_ZN7testing15AssertionResultD2Ev(ptr noundef nonnull align 8 dereferenceable(16) %gtest_ar70) #23
  call void @llvm.lifetime.end.p0(i64 16, ptr nonnull %gtest_ar70) #23
  br label %eh.resume

if.end92:                                         ; preds = %_ZN7testing8internal8EqHelper7CompareIbbLPv0EEENS_15AssertionResultEPKcS6_RKT_RKT0_.exit939, %_ZN7testing7MessageD2Ev.exit956
  %message_.i962 = getelementptr inbounds %"class.testing::AssertionResult", ptr %gtest_ar70, i64 0, i32 1
  %46 = load ptr, ptr %message_.i962, align 8, !tbaa !20
  store ptr null, ptr %message_.i962, align 8, !tbaa !20
  %tobool.not.i.i.i963 = icmp eq ptr %46, null
  br i1 %tobool.not.i.i.i963, label %_ZN7testing15AssertionResultD2Ev.exit971, label %delete.notnull.i.i.i.i967

delete.notnull.i.i.i.i967:                        ; preds = %if.end92
  %bf.load.i.i.i.i.i.i964 = load i8, ptr %46, align 8
  %bf.clear.i.i.i.i.i.i965 = and i8 %bf.load.i.i.i.i.i.i964, 1
  %tobool.i.not.i.i.i.i.i966 = icmp eq i8 %bf.clear.i.i.i.i.i.i965, 0
  br i1 %tobool.i.not.i.i.i.i.i966, label %_ZNKSt3__114default_deleteINS_12basic_stringIcNS_11char_traitsIcEENS_9allocatorIcEEEEEclB7v170000EPS6_.exit.i.i.i970, label %if.then.i.i.i.i.i969

if.then.i.i.i.i.i969:                             ; preds = %delete.notnull.i.i.i.i967
  %__data_.i.i.i.i.i.i968 = getelementptr inbounds %"struct.std::__1::basic_string<char>::__long", ptr %46, i64 0, i32 2
  %47 = load ptr, ptr %__data_.i.i.i.i.i.i968, align 8, !tbaa !21
  call void @_ZdlPv(ptr noundef %47) #24
  br label %_ZNKSt3__114default_deleteINS_12basic_stringIcNS_11char_traitsIcEENS_9allocatorIcEEEEEclB7v170000EPS6_.exit.i.i.i970

_ZNKSt3__114default_deleteINS_12basic_stringIcNS_11char_traitsIcEENS_9allocatorIcEEEEEclB7v170000EPS6_.exit.i.i.i970: ; preds = %if.then.i.i.i.i.i969, %delete.notnull.i.i.i.i967
  call void @_ZdlPv(ptr noundef nonnull %46) #24
  br label %_ZN7testing15AssertionResultD2Ev.exit971

_ZN7testing15AssertionResultD2Ev.exit971:         ; preds = %if.end92, %_ZNKSt3__114default_deleteINS_12basic_stringIcNS_11char_traitsIcEENS_9allocatorIcEEEEEclB7v170000EPS6_.exit.i.i.i970
  call void @llvm.lifetime.end.p0(i64 16, ptr nonnull %gtest_ar70) #23
  %call95 = call i32 @unsetenv(ptr noundef nonnull @.str.43) #23
  call void @llvm.lifetime.start.p0(i64 16, ptr nonnull %gtest_ar96) #23
  call void @llvm.lifetime.start.p0(i64 4, ptr nonnull %ref.tmp97) #23
  %call98 = call i32 @setenv(ptr noundef nonnull @.str.43, ptr noundef nonnull @.str.49, i32 noundef 1) #23
  store i32 %call98, ptr %ref.tmp97, align 4, !tbaa !8
  call void @llvm.lifetime.start.p0(i64 4, ptr nonnull %ref.tmp99) #23
  store i32 0, ptr %ref.tmp99, align 4, !tbaa !8
  %cmp.i.i972 = icmp eq i32 %call98, 0
  br i1 %cmp.i.i972, label %if.then.i.i973, label %if.end.i.i974

if.then.i.i973:                                   ; preds = %_ZN7testing15AssertionResultD2Ev.exit971
  call void @_ZN7testing16AssertionSuccessEv(ptr nonnull sret(%"class.testing::AssertionResult") align 8 %gtest_ar96)
  br label %_ZN7testing8internal8EqHelper7CompareIiiLPv0EEENS_15AssertionResultEPKcS6_RKT_RKT0_.exit975

if.end.i.i974:                                    ; preds = %_ZN7testing15AssertionResultD2Ev.exit971
  call void @_ZN7testing8internal18CmpHelperEQFailureIiiEENS_15AssertionResultEPKcS4_RKT_RKT0_(ptr nonnull sret(%"class.testing::AssertionResult") align 8 %gtest_ar96, ptr noundef nonnull @.str.48, ptr noundef nonnull @.str.34, ptr noundef nonnull align 4 dereferenceable(4) %ref.tmp97, ptr noundef nonnull align 4 dereferenceable(4) %ref.tmp99)
  br label %_ZN7testing8internal8EqHelper7CompareIiiLPv0EEENS_15AssertionResultEPKcS6_RKT_RKT0_.exit975

_ZN7testing8internal8EqHelper7CompareIiiLPv0EEENS_15AssertionResultEPKcS6_RKT_RKT0_.exit975: ; preds = %if.then.i.i973, %if.end.i.i974
  call void @llvm.lifetime.end.p0(i64 4, ptr nonnull %ref.tmp99) #23
  call void @llvm.lifetime.end.p0(i64 4, ptr nonnull %ref.tmp97) #23
  %48 = load i8, ptr %gtest_ar96, align 8, !tbaa !11, !range !18, !noundef !19
  %tobool.i976.not = icmp eq i8 %48, 0
  br i1 %tobool.i976.not, label %if.else102, label %cleanup118

if.else102:                                       ; preds = %_ZN7testing8internal8EqHelper7CompareIiiLPv0EEENS_15AssertionResultEPKcS6_RKT_RKT0_.exit975
  call void @llvm.lifetime.start.p0(i64 8, ptr nonnull %ref.tmp103) #23
  invoke void @_ZN7testing7MessageC1Ev(ptr noundef nonnull align 8 dereferenceable(8) %ref.tmp103)
          to label %invoke.cont105 unwind label %lpad104

invoke.cont105:                                   ; preds = %if.else102
  call void @llvm.lifetime.start.p0(i64 8, ptr nonnull %ref.tmp106) #23
  %message_.i.i977 = getelementptr inbounds %"class.testing::AssertionResult", ptr %gtest_ar96, i64 0, i32 1
  %49 = load ptr, ptr %message_.i.i977, align 8, !tbaa !20
  %cmp.not.i.i978 = icmp eq ptr %49, null
  br i1 %cmp.not.i.i978, label %invoke.cont108, label %cond.true.i.i985

cond.true.i.i985:                                 ; preds = %invoke.cont105
  %bf.load.i.i.i.i.i.i979 = load i8, ptr %49, align 8
  %bf.clear.i.i.i.i.i.i980 = and i8 %bf.load.i.i.i.i.i.i979, 1
  %tobool.i.not.i.i.i.i.i981 = icmp eq i8 %bf.clear.i.i.i.i.i.i980, 0
  %__data_.i.i.i.i.i.i982 = getelementptr inbounds %"struct.std::__1::basic_string<char>::__long", ptr %49, i64 0, i32 2
  %50 = load ptr, ptr %__data_.i.i.i.i.i.i982, align 8
  %__data_.i4.i.i.i.i.i983 = getelementptr inbounds %"struct.std::__1::basic_string<char>::__short", ptr %49, i64 0, i32 2
  %cond.i.i.i.i.i984 = select i1 %tobool.i.not.i.i.i.i.i981, ptr %__data_.i4.i.i.i.i.i983, ptr %50
  br label %invoke.cont108

invoke.cont108:                                   ; preds = %cond.true.i.i985, %invoke.cont105
  %cond.i.i986 = phi ptr [ %cond.i.i.i.i.i984, %cond.true.i.i985 ], [ @.str.40, %invoke.cont105 ]
  invoke void @_ZN7testing8internal12AssertHelperC1ENS_14TestPartResult4TypeEPKciS5_(ptr noundef nonnull align 8 dereferenceable(8) %ref.tmp106, i32 noundef 2, ptr noundef nonnull @.str.3, i32 noundef 41, ptr noundef %cond.i.i986)
          to label %invoke.cont110 unwind label %lpad107

invoke.cont110:                                   ; preds = %invoke.cont108
  invoke void @_ZNK7testing8internal12AssertHelperaSERKNS_7MessageE(ptr noundef nonnull align 8 dereferenceable(8) %ref.tmp106, ptr noundef nonnull align 8 dereferenceable(8) %ref.tmp103)
          to label %invoke.cont112 unwind label %lpad111

invoke.cont112:                                   ; preds = %invoke.cont110
  call void @_ZN7testing8internal12AssertHelperD1Ev(ptr noundef nonnull align 8 dereferenceable(8) %ref.tmp106) #23
  call void @llvm.lifetime.end.p0(i64 8, ptr nonnull %ref.tmp106) #23
  %51 = load ptr, ptr %ref.tmp103, align 8, !tbaa !20
  store ptr null, ptr %ref.tmp103, align 8, !tbaa !20
  %tobool.not.i.i.i988 = icmp eq ptr %51, null
  br i1 %tobool.not.i.i.i988, label %_ZN7testing7MessageD2Ev.exit992, label %_ZNKSt3__114default_deleteINS_18basic_stringstreamIcNS_11char_traitsIcEENS_9allocatorIcEEEEEclB7v170000EPS6_.exit.i.i.i991

_ZNKSt3__114default_deleteINS_18basic_stringstreamIcNS_11char_traitsIcEENS_9allocatorIcEEEEEclB7v170000EPS6_.exit.i.i.i991: ; preds = %invoke.cont112
  %vtable.i.i.i.i989 = load ptr, ptr %51, align 8, !tbaa !5
  %vfn.i.i.i.i990 = getelementptr inbounds ptr, ptr %vtable.i.i.i.i989, i64 1
  %52 = load ptr, ptr %vfn.i.i.i.i990, align 8
  call void %52(ptr noundef nonnull align 8 dereferenceable(128) %51) #23
  br label %_ZN7testing7MessageD2Ev.exit992

_ZN7testing7MessageD2Ev.exit992:                  ; preds = %invoke.cont112, %_ZNKSt3__114default_deleteINS_18basic_stringstreamIcNS_11char_traitsIcEENS_9allocatorIcEEEEEclB7v170000EPS6_.exit.i.i.i991
  call void @llvm.lifetime.end.p0(i64 8, ptr nonnull %ref.tmp103) #23
  br label %cleanup118

lpad104:                                          ; preds = %if.else102
  %53 = landingpad { ptr, i32 }
          cleanup
  br label %ehcleanup116

lpad107:                                          ; preds = %invoke.cont108
  %54 = landingpad { ptr, i32 }
          cleanup
  br label %ehcleanup114

lpad111:                                          ; preds = %invoke.cont110
  %55 = landingpad { ptr, i32 }
          cleanup
  call void @_ZN7testing8internal12AssertHelperD1Ev(ptr noundef nonnull align 8 dereferenceable(8) %ref.tmp106) #23
  br label %ehcleanup114

ehcleanup114:                                     ; preds = %lpad111, %lpad107
  %.pn769 = phi { ptr, i32 } [ %55, %lpad111 ], [ %54, %lpad107 ]
  call void @llvm.lifetime.end.p0(i64 8, ptr nonnull %ref.tmp106) #23
  %56 = load ptr, ptr %ref.tmp103, align 8, !tbaa !20
  store ptr null, ptr %ref.tmp103, align 8, !tbaa !20
  %tobool.not.i.i.i993 = icmp eq ptr %56, null
  br i1 %tobool.not.i.i.i993, label %ehcleanup116, label %_ZNKSt3__114default_deleteINS_18basic_stringstreamIcNS_11char_traitsIcEENS_9allocatorIcEEEEEclB7v170000EPS6_.exit.i.i.i996

_ZNKSt3__114default_deleteINS_18basic_stringstreamIcNS_11char_traitsIcEENS_9allocatorIcEEEEEclB7v170000EPS6_.exit.i.i.i996: ; preds = %ehcleanup114
  %vtable.i.i.i.i994 = load ptr, ptr %56, align 8, !tbaa !5
  %vfn.i.i.i.i995 = getelementptr inbounds ptr, ptr %vtable.i.i.i.i994, i64 1
  %57 = load ptr, ptr %vfn.i.i.i.i995, align 8
  call void %57(ptr noundef nonnull align 8 dereferenceable(128) %56) #23
  br label %ehcleanup116

ehcleanup116:                                     ; preds = %_ZNKSt3__114default_deleteINS_18basic_stringstreamIcNS_11char_traitsIcEENS_9allocatorIcEEEEEclB7v170000EPS6_.exit.i.i.i996, %ehcleanup114, %lpad104
  %.pn769.pn = phi { ptr, i32 } [ %53, %lpad104 ], [ %.pn769, %ehcleanup114 ], [ %.pn769, %_ZNKSt3__114default_deleteINS_18basic_stringstreamIcNS_11char_traitsIcEENS_9allocatorIcEEEEEclB7v170000EPS6_.exit.i.i.i996 ]
  call void @llvm.lifetime.end.p0(i64 8, ptr nonnull %ref.tmp103) #23
  call void @_ZN7testing15AssertionResultD2Ev(ptr noundef nonnull align 8 dereferenceable(16) %gtest_ar96) #23
  call void @llvm.lifetime.end.p0(i64 16, ptr nonnull %gtest_ar96) #23
  br label %eh.resume

cleanup118:                                       ; preds = %_ZN7testing8internal8EqHelper7CompareIiiLPv0EEENS_15AssertionResultEPKcS6_RKT_RKT0_.exit975, %_ZN7testing7MessageD2Ev.exit992
  %message_.i998 = getelementptr inbounds %"class.testing::AssertionResult", ptr %gtest_ar96, i64 0, i32 1
  %58 = load ptr, ptr %message_.i998, align 8, !tbaa !20
  store ptr null, ptr %message_.i998, align 8, !tbaa !20
  %tobool.not.i.i.i999 = icmp eq ptr %58, null
  br i1 %tobool.not.i.i.i999, label %_ZN7testing15AssertionResultD2Ev.exit1007, label %delete.notnull.i.i.i.i1003

delete.notnull.i.i.i.i1003:                       ; preds = %cleanup118
  %bf.load.i.i.i.i.i.i1000 = load i8, ptr %58, align 8
  %bf.clear.i.i.i.i.i.i1001 = and i8 %bf.load.i.i.i.i.i.i1000, 1
  %tobool.i.not.i.i.i.i.i1002 = icmp eq i8 %bf.clear.i.i.i.i.i.i1001, 0
  br i1 %tobool.i.not.i.i.i.i.i1002, label %_ZNKSt3__114default_deleteINS_12basic_stringIcNS_11char_traitsIcEENS_9allocatorIcEEEEEclB7v170000EPS6_.exit.i.i.i1006, label %if.then.i.i.i.i.i1005

if.then.i.i.i.i.i1005:                            ; preds = %delete.notnull.i.i.i.i1003
  %__data_.i.i.i.i.i.i1004 = getelementptr inbounds %"struct.std::__1::basic_string<char>::__long", ptr %58, i64 0, i32 2
  %59 = load ptr, ptr %__data_.i.i.i.i.i.i1004, align 8, !tbaa !21
  call void @_ZdlPv(ptr noundef %59) #24
  br label %_ZNKSt3__114default_deleteINS_12basic_stringIcNS_11char_traitsIcEENS_9allocatorIcEEEEEclB7v170000EPS6_.exit.i.i.i1006

_ZNKSt3__114default_deleteINS_12basic_stringIcNS_11char_traitsIcEENS_9allocatorIcEEEEEclB7v170000EPS6_.exit.i.i.i1006: ; preds = %if.then.i.i.i.i.i1005, %delete.notnull.i.i.i.i1003
  call void @_ZdlPv(ptr noundef nonnull %58) #24
  br label %_ZN7testing15AssertionResultD2Ev.exit1007

_ZN7testing15AssertionResultD2Ev.exit1007:        ; preds = %cleanup118, %_ZNKSt3__114default_deleteINS_12basic_stringIcNS_11char_traitsIcEENS_9allocatorIcEEEEEclB7v170000EPS6_.exit.i.i.i1006
  call void @llvm.lifetime.end.p0(i64 16, ptr nonnull %gtest_ar96) #23
  br i1 %tobool.i976.not, label %return, label %cleanup.cont122

cleanup.cont122:                                  ; preds = %_ZN7testing15AssertionResultD2Ev.exit1007
  call void @llvm.lifetime.start.p0(i64 16, ptr nonnull %gtest_ar124) #23
  call void @llvm.lifetime.start.p0(i64 1, ptr nonnull %ref.tmp125) #23
  %call126 = call noundef zeroext i1 @_ZN9benchmark11BoolFromEnvEPKcb(ptr noundef nonnull @.str.45, i1 noundef zeroext true)
  %frombool127 = zext i1 %call126 to i8
  store i8 %frombool127, ptr %ref.tmp125, align 1, !tbaa !22
  call void @llvm.lifetime.start.p0(i64 1, ptr nonnull %ref.tmp128) #23
  store i8 0, ptr %ref.tmp128, align 1, !tbaa !22
  br i1 %call126, label %if.end.i.i1010, label %if.then.i.i1009

if.then.i.i1009:                                  ; preds = %cleanup.cont122
  call void @_ZN7testing16AssertionSuccessEv(ptr nonnull sret(%"class.testing::AssertionResult") align 8 %gtest_ar124)
  br label %_ZN7testing8internal8EqHelper7CompareIbbLPv0EEENS_15AssertionResultEPKcS6_RKT_RKT0_.exit1011

if.end.i.i1010:                                   ; preds = %cleanup.cont122
  call void @_ZN7testing8internal18CmpHelperEQFailureIbbEENS_15AssertionResultEPKcS4_RKT_RKT0_(ptr nonnull sret(%"class.testing::AssertionResult") align 8 %gtest_ar124, ptr noundef nonnull @.str.44, ptr noundef nonnull @.str.41, ptr noundef nonnull align 1 dereferenceable(1) %ref.tmp125, ptr noundef nonnull align 1 dereferenceable(1) %ref.tmp128)
  br label %_ZN7testing8internal8EqHelper7CompareIbbLPv0EEENS_15AssertionResultEPKcS6_RKT_RKT0_.exit1011

_ZN7testing8internal8EqHelper7CompareIbbLPv0EEENS_15AssertionResultEPKcS6_RKT_RKT0_.exit1011: ; preds = %if.then.i.i1009, %if.end.i.i1010
  call void @llvm.lifetime.end.p0(i64 1, ptr nonnull %ref.tmp128) #23
  call void @llvm.lifetime.end.p0(i64 1, ptr nonnull %ref.tmp125) #23
  %60 = load i8, ptr %gtest_ar124, align 8, !tbaa !11, !range !18, !noundef !19
  %tobool.i1012.not = icmp eq i8 %60, 0
  br i1 %tobool.i1012.not, label %if.else131, label %if.end146

if.else131:                                       ; preds = %_ZN7testing8internal8EqHelper7CompareIbbLPv0EEENS_15AssertionResultEPKcS6_RKT_RKT0_.exit1011
  call void @llvm.lifetime.start.p0(i64 8, ptr nonnull %ref.tmp132) #23
  invoke void @_ZN7testing7MessageC1Ev(ptr noundef nonnull align 8 dereferenceable(8) %ref.tmp132)
          to label %invoke.cont134 unwind label %lpad133

invoke.cont134:                                   ; preds = %if.else131
  call void @llvm.lifetime.start.p0(i64 8, ptr nonnull %ref.tmp135) #23
  %message_.i.i1013 = getelementptr inbounds %"class.testing::AssertionResult", ptr %gtest_ar124, i64 0, i32 1
  %61 = load ptr, ptr %message_.i.i1013, align 8, !tbaa !20
  %cmp.not.i.i1014 = icmp eq ptr %61, null
  br i1 %cmp.not.i.i1014, label %invoke.cont137, label %cond.true.i.i1021

cond.true.i.i1021:                                ; preds = %invoke.cont134
  %bf.load.i.i.i.i.i.i1015 = load i8, ptr %61, align 8
  %bf.clear.i.i.i.i.i.i1016 = and i8 %bf.load.i.i.i.i.i.i1015, 1
  %tobool.i.not.i.i.i.i.i1017 = icmp eq i8 %bf.clear.i.i.i.i.i.i1016, 0
  %__data_.i.i.i.i.i.i1018 = getelementptr inbounds %"struct.std::__1::basic_string<char>::__long", ptr %61, i64 0, i32 2
  %62 = load ptr, ptr %__data_.i.i.i.i.i.i1018, align 8
  %__data_.i4.i.i.i.i.i1019 = getelementptr inbounds %"struct.std::__1::basic_string<char>::__short", ptr %61, i64 0, i32 2
  %cond.i.i.i.i.i1020 = select i1 %tobool.i.not.i.i.i.i.i1017, ptr %__data_.i4.i.i.i.i.i1019, ptr %62
  br label %invoke.cont137

invoke.cont137:                                   ; preds = %cond.true.i.i1021, %invoke.cont134
  %cond.i.i1022 = phi ptr [ %cond.i.i.i.i.i1020, %cond.true.i.i1021 ], [ @.str.40, %invoke.cont134 ]
  invoke void @_ZN7testing8internal12AssertHelperC1ENS_14TestPartResult4TypeEPKciS5_(ptr noundef nonnull align 8 dereferenceable(8) %ref.tmp135, i32 noundef 1, ptr noundef nonnull @.str.3, i32 noundef 42, ptr noundef %cond.i.i1022)
          to label %invoke.cont139 unwind label %lpad136

invoke.cont139:                                   ; preds = %invoke.cont137
  invoke void @_ZNK7testing8internal12AssertHelperaSERKNS_7MessageE(ptr noundef nonnull align 8 dereferenceable(8) %ref.tmp135, ptr noundef nonnull align 8 dereferenceable(8) %ref.tmp132)
          to label %invoke.cont141 unwind label %lpad140

invoke.cont141:                                   ; preds = %invoke.cont139
  call void @_ZN7testing8internal12AssertHelperD1Ev(ptr noundef nonnull align 8 dereferenceable(8) %ref.tmp135) #23
  call void @llvm.lifetime.end.p0(i64 8, ptr nonnull %ref.tmp135) #23
  %63 = load ptr, ptr %ref.tmp132, align 8, !tbaa !20
  store ptr null, ptr %ref.tmp132, align 8, !tbaa !20
  %tobool.not.i.i.i1024 = icmp eq ptr %63, null
  br i1 %tobool.not.i.i.i1024, label %_ZN7testing7MessageD2Ev.exit1028, label %_ZNKSt3__114default_deleteINS_18basic_stringstreamIcNS_11char_traitsIcEENS_9allocatorIcEEEEEclB7v170000EPS6_.exit.i.i.i1027

_ZNKSt3__114default_deleteINS_18basic_stringstreamIcNS_11char_traitsIcEENS_9allocatorIcEEEEEclB7v170000EPS6_.exit.i.i.i1027: ; preds = %invoke.cont141
  %vtable.i.i.i.i1025 = load ptr, ptr %63, align 8, !tbaa !5
  %vfn.i.i.i.i1026 = getelementptr inbounds ptr, ptr %vtable.i.i.i.i1025, i64 1
  %64 = load ptr, ptr %vfn.i.i.i.i1026, align 8
  call void %64(ptr noundef nonnull align 8 dereferenceable(128) %63) #23
  br label %_ZN7testing7MessageD2Ev.exit1028

_ZN7testing7MessageD2Ev.exit1028:                 ; preds = %invoke.cont141, %_ZNKSt3__114default_deleteINS_18basic_stringstreamIcNS_11char_traitsIcEENS_9allocatorIcEEEEEclB7v170000EPS6_.exit.i.i.i1027
  call void @llvm.lifetime.end.p0(i64 8, ptr nonnull %ref.tmp132) #23
  br label %if.end146

lpad133:                                          ; preds = %if.else131
  %65 = landingpad { ptr, i32 }
          cleanup
  br label %ehcleanup145

lpad136:                                          ; preds = %invoke.cont137
  %66 = landingpad { ptr, i32 }
          cleanup
  br label %ehcleanup143

lpad140:                                          ; preds = %invoke.cont139
  %67 = landingpad { ptr, i32 }
          cleanup
  call void @_ZN7testing8internal12AssertHelperD1Ev(ptr noundef nonnull align 8 dereferenceable(8) %ref.tmp135) #23
  br label %ehcleanup143

ehcleanup143:                                     ; preds = %lpad140, %lpad136
  %.pn772 = phi { ptr, i32 } [ %67, %lpad140 ], [ %66, %lpad136 ]
  call void @llvm.lifetime.end.p0(i64 8, ptr nonnull %ref.tmp135) #23
  %68 = load ptr, ptr %ref.tmp132, align 8, !tbaa !20
  store ptr null, ptr %ref.tmp132, align 8, !tbaa !20
  %tobool.not.i.i.i1029 = icmp eq ptr %68, null
  br i1 %tobool.not.i.i.i1029, label %ehcleanup145, label %_ZNKSt3__114default_deleteINS_18basic_stringstreamIcNS_11char_traitsIcEENS_9allocatorIcEEEEEclB7v170000EPS6_.exit.i.i.i1032

_ZNKSt3__114default_deleteINS_18basic_stringstreamIcNS_11char_traitsIcEENS_9allocatorIcEEEEEclB7v170000EPS6_.exit.i.i.i1032: ; preds = %ehcleanup143
  %vtable.i.i.i.i1030 = load ptr, ptr %68, align 8, !tbaa !5
  %vfn.i.i.i.i1031 = getelementptr inbounds ptr, ptr %vtable.i.i.i.i1030, i64 1
  %69 = load ptr, ptr %vfn.i.i.i.i1031, align 8
  call void %69(ptr noundef nonnull align 8 dereferenceable(128) %68) #23
  br label %ehcleanup145

ehcleanup145:                                     ; preds = %_ZNKSt3__114default_deleteINS_18basic_stringstreamIcNS_11char_traitsIcEENS_9allocatorIcEEEEEclB7v170000EPS6_.exit.i.i.i1032, %ehcleanup143, %lpad133
  %.pn772.pn = phi { ptr, i32 } [ %65, %lpad133 ], [ %.pn772, %ehcleanup143 ], [ %.pn772, %_ZNKSt3__114default_deleteINS_18basic_stringstreamIcNS_11char_traitsIcEENS_9allocatorIcEEEEEclB7v170000EPS6_.exit.i.i.i1032 ]
  call void @llvm.lifetime.end.p0(i64 8, ptr nonnull %ref.tmp132) #23
  call void @_ZN7testing15AssertionResultD2Ev(ptr noundef nonnull align 8 dereferenceable(16) %gtest_ar124) #23
  call void @llvm.lifetime.end.p0(i64 16, ptr nonnull %gtest_ar124) #23
  br label %eh.resume

if.end146:                                        ; preds = %_ZN7testing8internal8EqHelper7CompareIbbLPv0EEENS_15AssertionResultEPKcS6_RKT_RKT0_.exit1011, %_ZN7testing7MessageD2Ev.exit1028
  %message_.i1034 = getelementptr inbounds %"class.testing::AssertionResult", ptr %gtest_ar124, i64 0, i32 1
  %70 = load ptr, ptr %message_.i1034, align 8, !tbaa !20
  store ptr null, ptr %message_.i1034, align 8, !tbaa !20
  %tobool.not.i.i.i1035 = icmp eq ptr %70, null
  br i1 %tobool.not.i.i.i1035, label %_ZN7testing15AssertionResultD2Ev.exit1043, label %delete.notnull.i.i.i.i1039

delete.notnull.i.i.i.i1039:                       ; preds = %if.end146
  %bf.load.i.i.i.i.i.i1036 = load i8, ptr %70, align 8
  %bf.clear.i.i.i.i.i.i1037 = and i8 %bf.load.i.i.i.i.i.i1036, 1
  %tobool.i.not.i.i.i.i.i1038 = icmp eq i8 %bf.clear.i.i.i.i.i.i1037, 0
  br i1 %tobool.i.not.i.i.i.i.i1038, label %_ZNKSt3__114default_deleteINS_12basic_stringIcNS_11char_traitsIcEENS_9allocatorIcEEEEEclB7v170000EPS6_.exit.i.i.i1042, label %if.then.i.i.i.i.i1041

if.then.i.i.i.i.i1041:                            ; preds = %delete.notnull.i.i.i.i1039
  %__data_.i.i.i.i.i.i1040 = getelementptr inbounds %"struct.std::__1::basic_string<char>::__long", ptr %70, i64 0, i32 2
  %71 = load ptr, ptr %__data_.i.i.i.i.i.i1040, align 8, !tbaa !21
  call void @_ZdlPv(ptr noundef %71) #24
  br label %_ZNKSt3__114default_deleteINS_12basic_stringIcNS_11char_traitsIcEENS_9allocatorIcEEEEEclB7v170000EPS6_.exit.i.i.i1042

_ZNKSt3__114default_deleteINS_12basic_stringIcNS_11char_traitsIcEENS_9allocatorIcEEEEEclB7v170000EPS6_.exit.i.i.i1042: ; preds = %if.then.i.i.i.i.i1041, %delete.notnull.i.i.i.i1039
  call void @_ZdlPv(ptr noundef nonnull %70) #24
  br label %_ZN7testing15AssertionResultD2Ev.exit1043

_ZN7testing15AssertionResultD2Ev.exit1043:        ; preds = %if.end146, %_ZNKSt3__114default_deleteINS_12basic_stringIcNS_11char_traitsIcEENS_9allocatorIcEEEEEclB7v170000EPS6_.exit.i.i.i1042
  call void @llvm.lifetime.end.p0(i64 16, ptr nonnull %gtest_ar124) #23
  %call149 = call i32 @unsetenv(ptr noundef nonnull @.str.43) #23
  call void @llvm.lifetime.start.p0(i64 16, ptr nonnull %gtest_ar150) #23
  call void @llvm.lifetime.start.p0(i64 4, ptr nonnull %ref.tmp151) #23
  %call152 = call i32 @setenv(ptr noundef nonnull @.str.43, ptr noundef nonnull @.str.51, i32 noundef 1) #23
  store i32 %call152, ptr %ref.tmp151, align 4, !tbaa !8
  call void @llvm.lifetime.start.p0(i64 4, ptr nonnull %ref.tmp153) #23
  store i32 0, ptr %ref.tmp153, align 4, !tbaa !8
  %cmp.i.i1044 = icmp eq i32 %call152, 0
  br i1 %cmp.i.i1044, label %if.then.i.i1045, label %if.end.i.i1046

if.then.i.i1045:                                  ; preds = %_ZN7testing15AssertionResultD2Ev.exit1043
  call void @_ZN7testing16AssertionSuccessEv(ptr nonnull sret(%"class.testing::AssertionResult") align 8 %gtest_ar150)
  br label %_ZN7testing8internal8EqHelper7CompareIiiLPv0EEENS_15AssertionResultEPKcS6_RKT_RKT0_.exit1047

if.end.i.i1046:                                   ; preds = %_ZN7testing15AssertionResultD2Ev.exit1043
  call void @_ZN7testing8internal18CmpHelperEQFailureIiiEENS_15AssertionResultEPKcS4_RKT_RKT0_(ptr nonnull sret(%"class.testing::AssertionResult") align 8 %gtest_ar150, ptr noundef nonnull @.str.50, ptr noundef nonnull @.str.34, ptr noundef nonnull align 4 dereferenceable(4) %ref.tmp151, ptr noundef nonnull align 4 dereferenceable(4) %ref.tmp153)
  br label %_ZN7testing8internal8EqHelper7CompareIiiLPv0EEENS_15AssertionResultEPKcS6_RKT_RKT0_.exit1047

_ZN7testing8internal8EqHelper7CompareIiiLPv0EEENS_15AssertionResultEPKcS6_RKT_RKT0_.exit1047: ; preds = %if.then.i.i1045, %if.end.i.i1046
  call void @llvm.lifetime.end.p0(i64 4, ptr nonnull %ref.tmp153) #23
  call void @llvm.lifetime.end.p0(i64 4, ptr nonnull %ref.tmp151) #23
  %72 = load i8, ptr %gtest_ar150, align 8, !tbaa !11, !range !18, !noundef !19
  %tobool.i1048.not = icmp eq i8 %72, 0
  br i1 %tobool.i1048.not, label %if.else156, label %cleanup172

if.else156:                                       ; preds = %_ZN7testing8internal8EqHelper7CompareIiiLPv0EEENS_15AssertionResultEPKcS6_RKT_RKT0_.exit1047
  call void @llvm.lifetime.start.p0(i64 8, ptr nonnull %ref.tmp157) #23
  invoke void @_ZN7testing7MessageC1Ev(ptr noundef nonnull align 8 dereferenceable(8) %ref.tmp157)
          to label %invoke.cont159 unwind label %lpad158

invoke.cont159:                                   ; preds = %if.else156
  call void @llvm.lifetime.start.p0(i64 8, ptr nonnull %ref.tmp160) #23
  %message_.i.i1049 = getelementptr inbounds %"class.testing::AssertionResult", ptr %gtest_ar150, i64 0, i32 1
  %73 = load ptr, ptr %message_.i.i1049, align 8, !tbaa !20
  %cmp.not.i.i1050 = icmp eq ptr %73, null
  br i1 %cmp.not.i.i1050, label %invoke.cont162, label %cond.true.i.i1057

cond.true.i.i1057:                                ; preds = %invoke.cont159
  %bf.load.i.i.i.i.i.i1051 = load i8, ptr %73, align 8
  %bf.clear.i.i.i.i.i.i1052 = and i8 %bf.load.i.i.i.i.i.i1051, 1
  %tobool.i.not.i.i.i.i.i1053 = icmp eq i8 %bf.clear.i.i.i.i.i.i1052, 0
  %__data_.i.i.i.i.i.i1054 = getelementptr inbounds %"struct.std::__1::basic_string<char>::__long", ptr %73, i64 0, i32 2
  %74 = load ptr, ptr %__data_.i.i.i.i.i.i1054, align 8
  %__data_.i4.i.i.i.i.i1055 = getelementptr inbounds %"struct.std::__1::basic_string<char>::__short", ptr %73, i64 0, i32 2
  %cond.i.i.i.i.i1056 = select i1 %tobool.i.not.i.i.i.i.i1053, ptr %__data_.i4.i.i.i.i.i1055, ptr %74
  br label %invoke.cont162

invoke.cont162:                                   ; preds = %cond.true.i.i1057, %invoke.cont159
  %cond.i.i1058 = phi ptr [ %cond.i.i.i.i.i1056, %cond.true.i.i1057 ], [ @.str.40, %invoke.cont159 ]
  invoke void @_ZN7testing8internal12AssertHelperC1ENS_14TestPartResult4TypeEPKciS5_(ptr noundef nonnull align 8 dereferenceable(8) %ref.tmp160, i32 noundef 2, ptr noundef nonnull @.str.3, i32 noundef 45, ptr noundef %cond.i.i1058)
          to label %invoke.cont164 unwind label %lpad161

invoke.cont164:                                   ; preds = %invoke.cont162
  invoke void @_ZNK7testing8internal12AssertHelperaSERKNS_7MessageE(ptr noundef nonnull align 8 dereferenceable(8) %ref.tmp160, ptr noundef nonnull align 8 dereferenceable(8) %ref.tmp157)
          to label %invoke.cont166 unwind label %lpad165

invoke.cont166:                                   ; preds = %invoke.cont164
  call void @_ZN7testing8internal12AssertHelperD1Ev(ptr noundef nonnull align 8 dereferenceable(8) %ref.tmp160) #23
  call void @llvm.lifetime.end.p0(i64 8, ptr nonnull %ref.tmp160) #23
  %75 = load ptr, ptr %ref.tmp157, align 8, !tbaa !20
  store ptr null, ptr %ref.tmp157, align 8, !tbaa !20
  %tobool.not.i.i.i1060 = icmp eq ptr %75, null
  br i1 %tobool.not.i.i.i1060, label %_ZN7testing7MessageD2Ev.exit1064, label %_ZNKSt3__114default_deleteINS_18basic_stringstreamIcNS_11char_traitsIcEENS_9allocatorIcEEEEEclB7v170000EPS6_.exit.i.i.i1063

_ZNKSt3__114default_deleteINS_18basic_stringstreamIcNS_11char_traitsIcEENS_9allocatorIcEEEEEclB7v170000EPS6_.exit.i.i.i1063: ; preds = %invoke.cont166
  %vtable.i.i.i.i1061 = load ptr, ptr %75, align 8, !tbaa !5
  %vfn.i.i.i.i1062 = getelementptr inbounds ptr, ptr %vtable.i.i.i.i1061, i64 1
  %76 = load ptr, ptr %vfn.i.i.i.i1062, align 8
  call void %76(ptr noundef nonnull align 8 dereferenceable(128) %75) #23
  br label %_ZN7testing7MessageD2Ev.exit1064

_ZN7testing7MessageD2Ev.exit1064:                 ; preds = %invoke.cont166, %_ZNKSt3__114default_deleteINS_18basic_stringstreamIcNS_11char_traitsIcEENS_9allocatorIcEEEEEclB7v170000EPS6_.exit.i.i.i1063
  call void @llvm.lifetime.end.p0(i64 8, ptr nonnull %ref.tmp157) #23
  br label %cleanup172

lpad158:                                          ; preds = %if.else156
  %77 = landingpad { ptr, i32 }
          cleanup
  br label %ehcleanup170

lpad161:                                          ; preds = %invoke.cont162
  %78 = landingpad { ptr, i32 }
          cleanup
  br label %ehcleanup168

lpad165:                                          ; preds = %invoke.cont164
  %79 = landingpad { ptr, i32 }
          cleanup
  call void @_ZN7testing8internal12AssertHelperD1Ev(ptr noundef nonnull align 8 dereferenceable(8) %ref.tmp160) #23
  br label %ehcleanup168

ehcleanup168:                                     ; preds = %lpad165, %lpad161
  %.pn775 = phi { ptr, i32 } [ %79, %lpad165 ], [ %78, %lpad161 ]
  call void @llvm.lifetime.end.p0(i64 8, ptr nonnull %ref.tmp160) #23
  %80 = load ptr, ptr %ref.tmp157, align 8, !tbaa !20
  store ptr null, ptr %ref.tmp157, align 8, !tbaa !20
  %tobool.not.i.i.i1065 = icmp eq ptr %80, null
  br i1 %tobool.not.i.i.i1065, label %ehcleanup170, label %_ZNKSt3__114default_deleteINS_18basic_stringstreamIcNS_11char_traitsIcEENS_9allocatorIcEEEEEclB7v170000EPS6_.exit.i.i.i1068

_ZNKSt3__114default_deleteINS_18basic_stringstreamIcNS_11char_traitsIcEENS_9allocatorIcEEEEEclB7v170000EPS6_.exit.i.i.i1068: ; preds = %ehcleanup168
  %vtable.i.i.i.i1066 = load ptr, ptr %80, align 8, !tbaa !5
  %vfn.i.i.i.i1067 = getelementptr inbounds ptr, ptr %vtable.i.i.i.i1066, i64 1
  %81 = load ptr, ptr %vfn.i.i.i.i1067, align 8
  call void %81(ptr noundef nonnull align 8 dereferenceable(128) %80) #23
  br label %ehcleanup170

ehcleanup170:                                     ; preds = %_ZNKSt3__114default_deleteINS_18basic_stringstreamIcNS_11char_traitsIcEENS_9allocatorIcEEEEEclB7v170000EPS6_.exit.i.i.i1068, %ehcleanup168, %lpad158
  %.pn775.pn = phi { ptr, i32 } [ %77, %lpad158 ], [ %.pn775, %ehcleanup168 ], [ %.pn775, %_ZNKSt3__114default_deleteINS_18basic_stringstreamIcNS_11char_traitsIcEENS_9allocatorIcEEEEEclB7v170000EPS6_.exit.i.i.i1068 ]
  call void @llvm.lifetime.end.p0(i64 8, ptr nonnull %ref.tmp157) #23
  call void @_ZN7testing15AssertionResultD2Ev(ptr noundef nonnull align 8 dereferenceable(16) %gtest_ar150) #23
  call void @llvm.lifetime.end.p0(i64 16, ptr nonnull %gtest_ar150) #23
  br label %eh.resume

cleanup172:                                       ; preds = %_ZN7testing8internal8EqHelper7CompareIiiLPv0EEENS_15AssertionResultEPKcS6_RKT_RKT0_.exit1047, %_ZN7testing7MessageD2Ev.exit1064
  %message_.i1070 = getelementptr inbounds %"class.testing::AssertionResult", ptr %gtest_ar150, i64 0, i32 1
  %82 = load ptr, ptr %message_.i1070, align 8, !tbaa !20
  store ptr null, ptr %message_.i1070, align 8, !tbaa !20
  %tobool.not.i.i.i1071 = icmp eq ptr %82, null
  br i1 %tobool.not.i.i.i1071, label %_ZN7testing15AssertionResultD2Ev.exit1079, label %delete.notnull.i.i.i.i1075

delete.notnull.i.i.i.i1075:                       ; preds = %cleanup172
  %bf.load.i.i.i.i.i.i1072 = load i8, ptr %82, align 8
  %bf.clear.i.i.i.i.i.i1073 = and i8 %bf.load.i.i.i.i.i.i1072, 1
  %tobool.i.not.i.i.i.i.i1074 = icmp eq i8 %bf.clear.i.i.i.i.i.i1073, 0
  br i1 %tobool.i.not.i.i.i.i.i1074, label %_ZNKSt3__114default_deleteINS_12basic_stringIcNS_11char_traitsIcEENS_9allocatorIcEEEEEclB7v170000EPS6_.exit.i.i.i1078, label %if.then.i.i.i.i.i1077

if.then.i.i.i.i.i1077:                            ; preds = %delete.notnull.i.i.i.i1075
  %__data_.i.i.i.i.i.i1076 = getelementptr inbounds %"struct.std::__1::basic_string<char>::__long", ptr %82, i64 0, i32 2
  %83 = load ptr, ptr %__data_.i.i.i.i.i.i1076, align 8, !tbaa !21
  call void @_ZdlPv(ptr noundef %83) #24
  br label %_ZNKSt3__114default_deleteINS_12basic_stringIcNS_11char_traitsIcEENS_9allocatorIcEEEEEclB7v170000EPS6_.exit.i.i.i1078

_ZNKSt3__114default_deleteINS_12basic_stringIcNS_11char_traitsIcEENS_9allocatorIcEEEEEclB7v170000EPS6_.exit.i.i.i1078: ; preds = %if.then.i.i.i.i.i1077, %delete.notnull.i.i.i.i1075
  call void @_ZdlPv(ptr noundef nonnull %82) #24
  br label %_ZN7testing15AssertionResultD2Ev.exit1079

_ZN7testing15AssertionResultD2Ev.exit1079:        ; preds = %cleanup172, %_ZNKSt3__114default_deleteINS_12basic_stringIcNS_11char_traitsIcEENS_9allocatorIcEEEEEclB7v170000EPS6_.exit.i.i.i1078
  call void @llvm.lifetime.end.p0(i64 16, ptr nonnull %gtest_ar150) #23
  br i1 %tobool.i1048.not, label %return, label %cleanup.cont176

cleanup.cont176:                                  ; preds = %_ZN7testing15AssertionResultD2Ev.exit1079
  call void @llvm.lifetime.start.p0(i64 16, ptr nonnull %gtest_ar178) #23
  call void @llvm.lifetime.start.p0(i64 1, ptr nonnull %ref.tmp179) #23
  %call180 = call noundef zeroext i1 @_ZN9benchmark11BoolFromEnvEPKcb(ptr noundef nonnull @.str.45, i1 noundef zeroext true)
  %frombool181 = zext i1 %call180 to i8
  store i8 %frombool181, ptr %ref.tmp179, align 1, !tbaa !22
  call void @llvm.lifetime.start.p0(i64 1, ptr nonnull %ref.tmp182) #23
  store i8 0, ptr %ref.tmp182, align 1, !tbaa !22
  br i1 %call180, label %if.end.i.i1082, label %if.then.i.i1081

if.then.i.i1081:                                  ; preds = %cleanup.cont176
  call void @_ZN7testing16AssertionSuccessEv(ptr nonnull sret(%"class.testing::AssertionResult") align 8 %gtest_ar178)
  br label %_ZN7testing8internal8EqHelper7CompareIbbLPv0EEENS_15AssertionResultEPKcS6_RKT_RKT0_.exit1083

if.end.i.i1082:                                   ; preds = %cleanup.cont176
  call void @_ZN7testing8internal18CmpHelperEQFailureIbbEENS_15AssertionResultEPKcS4_RKT_RKT0_(ptr nonnull sret(%"class.testing::AssertionResult") align 8 %gtest_ar178, ptr noundef nonnull @.str.44, ptr noundef nonnull @.str.41, ptr noundef nonnull align 1 dereferenceable(1) %ref.tmp179, ptr noundef nonnull align 1 dereferenceable(1) %ref.tmp182)
  br label %_ZN7testing8internal8EqHelper7CompareIbbLPv0EEENS_15AssertionResultEPKcS6_RKT_RKT0_.exit1083

_ZN7testing8internal8EqHelper7CompareIbbLPv0EEENS_15AssertionResultEPKcS6_RKT_RKT0_.exit1083: ; preds = %if.then.i.i1081, %if.end.i.i1082
  call void @llvm.lifetime.end.p0(i64 1, ptr nonnull %ref.tmp182) #23
  call void @llvm.lifetime.end.p0(i64 1, ptr nonnull %ref.tmp179) #23
  %84 = load i8, ptr %gtest_ar178, align 8, !tbaa !11, !range !18, !noundef !19
  %tobool.i1084.not = icmp eq i8 %84, 0
  br i1 %tobool.i1084.not, label %if.else185, label %if.end200

if.else185:                                       ; preds = %_ZN7testing8internal8EqHelper7CompareIbbLPv0EEENS_15AssertionResultEPKcS6_RKT_RKT0_.exit1083
  call void @llvm.lifetime.start.p0(i64 8, ptr nonnull %ref.tmp186) #23
  invoke void @_ZN7testing7MessageC1Ev(ptr noundef nonnull align 8 dereferenceable(8) %ref.tmp186)
          to label %invoke.cont188 unwind label %lpad187

invoke.cont188:                                   ; preds = %if.else185
  call void @llvm.lifetime.start.p0(i64 8, ptr nonnull %ref.tmp189) #23
  %message_.i.i1085 = getelementptr inbounds %"class.testing::AssertionResult", ptr %gtest_ar178, i64 0, i32 1
  %85 = load ptr, ptr %message_.i.i1085, align 8, !tbaa !20
  %cmp.not.i.i1086 = icmp eq ptr %85, null
  br i1 %cmp.not.i.i1086, label %invoke.cont191, label %cond.true.i.i1093

cond.true.i.i1093:                                ; preds = %invoke.cont188
  %bf.load.i.i.i.i.i.i1087 = load i8, ptr %85, align 8
  %bf.clear.i.i.i.i.i.i1088 = and i8 %bf.load.i.i.i.i.i.i1087, 1
  %tobool.i.not.i.i.i.i.i1089 = icmp eq i8 %bf.clear.i.i.i.i.i.i1088, 0
  %__data_.i.i.i.i.i.i1090 = getelementptr inbounds %"struct.std::__1::basic_string<char>::__long", ptr %85, i64 0, i32 2
  %86 = load ptr, ptr %__data_.i.i.i.i.i.i1090, align 8
  %__data_.i4.i.i.i.i.i1091 = getelementptr inbounds %"struct.std::__1::basic_string<char>::__short", ptr %85, i64 0, i32 2
  %cond.i.i.i.i.i1092 = select i1 %tobool.i.not.i.i.i.i.i1089, ptr %__data_.i4.i.i.i.i.i1091, ptr %86
  br label %invoke.cont191

invoke.cont191:                                   ; preds = %cond.true.i.i1093, %invoke.cont188
  %cond.i.i1094 = phi ptr [ %cond.i.i.i.i.i1092, %cond.true.i.i1093 ], [ @.str.40, %invoke.cont188 ]
  invoke void @_ZN7testing8internal12AssertHelperC1ENS_14TestPartResult4TypeEPKciS5_(ptr noundef nonnull align 8 dereferenceable(8) %ref.tmp189, i32 noundef 1, ptr noundef nonnull @.str.3, i32 noundef 46, ptr noundef %cond.i.i1094)
          to label %invoke.cont193 unwind label %lpad190

invoke.cont193:                                   ; preds = %invoke.cont191
  invoke void @_ZNK7testing8internal12AssertHelperaSERKNS_7MessageE(ptr noundef nonnull align 8 dereferenceable(8) %ref.tmp189, ptr noundef nonnull align 8 dereferenceable(8) %ref.tmp186)
          to label %invoke.cont195 unwind label %lpad194

invoke.cont195:                                   ; preds = %invoke.cont193
  call void @_ZN7testing8internal12AssertHelperD1Ev(ptr noundef nonnull align 8 dereferenceable(8) %ref.tmp189) #23
  call void @llvm.lifetime.end.p0(i64 8, ptr nonnull %ref.tmp189) #23
  %87 = load ptr, ptr %ref.tmp186, align 8, !tbaa !20
  store ptr null, ptr %ref.tmp186, align 8, !tbaa !20
  %tobool.not.i.i.i1096 = icmp eq ptr %87, null
  br i1 %tobool.not.i.i.i1096, label %_ZN7testing7MessageD2Ev.exit1100, label %_ZNKSt3__114default_deleteINS_18basic_stringstreamIcNS_11char_traitsIcEENS_9allocatorIcEEEEEclB7v170000EPS6_.exit.i.i.i1099

_ZNKSt3__114default_deleteINS_18basic_stringstreamIcNS_11char_traitsIcEENS_9allocatorIcEEEEEclB7v170000EPS6_.exit.i.i.i1099: ; preds = %invoke.cont195
  %vtable.i.i.i.i1097 = load ptr, ptr %87, align 8, !tbaa !5
  %vfn.i.i.i.i1098 = getelementptr inbounds ptr, ptr %vtable.i.i.i.i1097, i64 1
  %88 = load ptr, ptr %vfn.i.i.i.i1098, align 8
  call void %88(ptr noundef nonnull align 8 dereferenceable(128) %87) #23
  br label %_ZN7testing7MessageD2Ev.exit1100

_ZN7testing7MessageD2Ev.exit1100:                 ; preds = %invoke.cont195, %_ZNKSt3__114default_deleteINS_18basic_stringstreamIcNS_11char_traitsIcEENS_9allocatorIcEEEEEclB7v170000EPS6_.exit.i.i.i1099
  call void @llvm.lifetime.end.p0(i64 8, ptr nonnull %ref.tmp186) #23
  br label %if.end200

lpad187:                                          ; preds = %if.else185
  %89 = landingpad { ptr, i32 }
          cleanup
  br label %ehcleanup199

lpad190:                                          ; preds = %invoke.cont191
  %90 = landingpad { ptr, i32 }
          cleanup
  br label %ehcleanup197

lpad194:                                          ; preds = %invoke.cont193
  %91 = landingpad { ptr, i32 }
          cleanup
  call void @_ZN7testing8internal12AssertHelperD1Ev(ptr noundef nonnull align 8 dereferenceable(8) %ref.tmp189) #23
  br label %ehcleanup197

ehcleanup197:                                     ; preds = %lpad194, %lpad190
  %.pn778 = phi { ptr, i32 } [ %91, %lpad194 ], [ %90, %lpad190 ]
  call void @llvm.lifetime.end.p0(i64 8, ptr nonnull %ref.tmp189) #23
  %92 = load ptr, ptr %ref.tmp186, align 8, !tbaa !20
  store ptr null, ptr %ref.tmp186, align 8, !tbaa !20
  %tobool.not.i.i.i1101 = icmp eq ptr %92, null
  br i1 %tobool.not.i.i.i1101, label %ehcleanup199, label %_ZNKSt3__114default_deleteINS_18basic_stringstreamIcNS_11char_traitsIcEENS_9allocatorIcEEEEEclB7v170000EPS6_.exit.i.i.i1104

_ZNKSt3__114default_deleteINS_18basic_stringstreamIcNS_11char_traitsIcEENS_9allocatorIcEEEEEclB7v170000EPS6_.exit.i.i.i1104: ; preds = %ehcleanup197
  %vtable.i.i.i.i1102 = load ptr, ptr %92, align 8, !tbaa !5
  %vfn.i.i.i.i1103 = getelementptr inbounds ptr, ptr %vtable.i.i.i.i1102, i64 1
  %93 = load ptr, ptr %vfn.i.i.i.i1103, align 8
  call void %93(ptr noundef nonnull align 8 dereferenceable(128) %92) #23
  br label %ehcleanup199

ehcleanup199:                                     ; preds = %_ZNKSt3__114default_deleteINS_18basic_stringstreamIcNS_11char_traitsIcEENS_9allocatorIcEEEEEclB7v170000EPS6_.exit.i.i.i1104, %ehcleanup197, %lpad187
  %.pn778.pn = phi { ptr, i32 } [ %89, %lpad187 ], [ %.pn778, %ehcleanup197 ], [ %.pn778, %_ZNKSt3__114default_deleteINS_18basic_stringstreamIcNS_11char_traitsIcEENS_9allocatorIcEEEEEclB7v170000EPS6_.exit.i.i.i1104 ]
  call void @llvm.lifetime.end.p0(i64 8, ptr nonnull %ref.tmp186) #23
  call void @_ZN7testing15AssertionResultD2Ev(ptr noundef nonnull align 8 dereferenceable(16) %gtest_ar178) #23
  call void @llvm.lifetime.end.p0(i64 16, ptr nonnull %gtest_ar178) #23
  br label %eh.resume

if.end200:                                        ; preds = %_ZN7testing8internal8EqHelper7CompareIbbLPv0EEENS_15AssertionResultEPKcS6_RKT_RKT0_.exit1083, %_ZN7testing7MessageD2Ev.exit1100
  %message_.i1106 = getelementptr inbounds %"class.testing::AssertionResult", ptr %gtest_ar178, i64 0, i32 1
  %94 = load ptr, ptr %message_.i1106, align 8, !tbaa !20
  store ptr null, ptr %message_.i1106, align 8, !tbaa !20
  %tobool.not.i.i.i1107 = icmp eq ptr %94, null
  br i1 %tobool.not.i.i.i1107, label %_ZN7testing15AssertionResultD2Ev.exit1115, label %delete.notnull.i.i.i.i1111

delete.notnull.i.i.i.i1111:                       ; preds = %if.end200
  %bf.load.i.i.i.i.i.i1108 = load i8, ptr %94, align 8
  %bf.clear.i.i.i.i.i.i1109 = and i8 %bf.load.i.i.i.i.i.i1108, 1
  %tobool.i.not.i.i.i.i.i1110 = icmp eq i8 %bf.clear.i.i.i.i.i.i1109, 0
  br i1 %tobool.i.not.i.i.i.i.i1110, label %_ZNKSt3__114default_deleteINS_12basic_stringIcNS_11char_traitsIcEENS_9allocatorIcEEEEEclB7v170000EPS6_.exit.i.i.i1114, label %if.then.i.i.i.i.i1113

if.then.i.i.i.i.i1113:                            ; preds = %delete.notnull.i.i.i.i1111
  %__data_.i.i.i.i.i.i1112 = getelementptr inbounds %"struct.std::__1::basic_string<char>::__long", ptr %94, i64 0, i32 2
  %95 = load ptr, ptr %__data_.i.i.i.i.i.i1112, align 8, !tbaa !21
  call void @_ZdlPv(ptr noundef %95) #24
  br label %_ZNKSt3__114default_deleteINS_12basic_stringIcNS_11char_traitsIcEENS_9allocatorIcEEEEEclB7v170000EPS6_.exit.i.i.i1114

_ZNKSt3__114default_deleteINS_12basic_stringIcNS_11char_traitsIcEENS_9allocatorIcEEEEEclB7v170000EPS6_.exit.i.i.i1114: ; preds = %if.then.i.i.i.i.i1113, %delete.notnull.i.i.i.i1111
  call void @_ZdlPv(ptr noundef nonnull %94) #24
  br label %_ZN7testing15AssertionResultD2Ev.exit1115

_ZN7testing15AssertionResultD2Ev.exit1115:        ; preds = %if.end200, %_ZNKSt3__114default_deleteINS_12basic_stringIcNS_11char_traitsIcEENS_9allocatorIcEEEEEclB7v170000EPS6_.exit.i.i.i1114
  call void @llvm.lifetime.end.p0(i64 16, ptr nonnull %gtest_ar178) #23
  %call203 = call i32 @unsetenv(ptr noundef nonnull @.str.43) #23
  call void @llvm.lifetime.start.p0(i64 16, ptr nonnull %gtest_ar204) #23
  call void @llvm.lifetime.start.p0(i64 4, ptr nonnull %ref.tmp205) #23
  %call206 = call i32 @setenv(ptr noundef nonnull @.str.43, ptr noundef nonnull @.str.53, i32 noundef 1) #23
  store i32 %call206, ptr %ref.tmp205, align 4, !tbaa !8
  call void @llvm.lifetime.start.p0(i64 4, ptr nonnull %ref.tmp207) #23
  store i32 0, ptr %ref.tmp207, align 4, !tbaa !8
  %cmp.i.i1116 = icmp eq i32 %call206, 0
  br i1 %cmp.i.i1116, label %if.then.i.i1117, label %if.end.i.i1118

if.then.i.i1117:                                  ; preds = %_ZN7testing15AssertionResultD2Ev.exit1115
  call void @_ZN7testing16AssertionSuccessEv(ptr nonnull sret(%"class.testing::AssertionResult") align 8 %gtest_ar204)
  br label %_ZN7testing8internal8EqHelper7CompareIiiLPv0EEENS_15AssertionResultEPKcS6_RKT_RKT0_.exit1119

if.end.i.i1118:                                   ; preds = %_ZN7testing15AssertionResultD2Ev.exit1115
  call void @_ZN7testing8internal18CmpHelperEQFailureIiiEENS_15AssertionResultEPKcS4_RKT_RKT0_(ptr nonnull sret(%"class.testing::AssertionResult") align 8 %gtest_ar204, ptr noundef nonnull @.str.52, ptr noundef nonnull @.str.34, ptr noundef nonnull align 4 dereferenceable(4) %ref.tmp205, ptr noundef nonnull align 4 dereferenceable(4) %ref.tmp207)
  br label %_ZN7testing8internal8EqHelper7CompareIiiLPv0EEENS_15AssertionResultEPKcS6_RKT_RKT0_.exit1119

_ZN7testing8internal8EqHelper7CompareIiiLPv0EEENS_15AssertionResultEPKcS6_RKT_RKT0_.exit1119: ; preds = %if.then.i.i1117, %if.end.i.i1118
  call void @llvm.lifetime.end.p0(i64 4, ptr nonnull %ref.tmp207) #23
  call void @llvm.lifetime.end.p0(i64 4, ptr nonnull %ref.tmp205) #23
  %96 = load i8, ptr %gtest_ar204, align 8, !tbaa !11, !range !18, !noundef !19
  %tobool.i1120.not = icmp eq i8 %96, 0
  br i1 %tobool.i1120.not, label %if.else210, label %cleanup226

if.else210:                                       ; preds = %_ZN7testing8internal8EqHelper7CompareIiiLPv0EEENS_15AssertionResultEPKcS6_RKT_RKT0_.exit1119
  call void @llvm.lifetime.start.p0(i64 8, ptr nonnull %ref.tmp211) #23
  invoke void @_ZN7testing7MessageC1Ev(ptr noundef nonnull align 8 dereferenceable(8) %ref.tmp211)
          to label %invoke.cont213 unwind label %lpad212

invoke.cont213:                                   ; preds = %if.else210
  call void @llvm.lifetime.start.p0(i64 8, ptr nonnull %ref.tmp214) #23
  %message_.i.i1121 = getelementptr inbounds %"class.testing::AssertionResult", ptr %gtest_ar204, i64 0, i32 1
  %97 = load ptr, ptr %message_.i.i1121, align 8, !tbaa !20
  %cmp.not.i.i1122 = icmp eq ptr %97, null
  br i1 %cmp.not.i.i1122, label %invoke.cont216, label %cond.true.i.i1129

cond.true.i.i1129:                                ; preds = %invoke.cont213
  %bf.load.i.i.i.i.i.i1123 = load i8, ptr %97, align 8
  %bf.clear.i.i.i.i.i.i1124 = and i8 %bf.load.i.i.i.i.i.i1123, 1
  %tobool.i.not.i.i.i.i.i1125 = icmp eq i8 %bf.clear.i.i.i.i.i.i1124, 0
  %__data_.i.i.i.i.i.i1126 = getelementptr inbounds %"struct.std::__1::basic_string<char>::__long", ptr %97, i64 0, i32 2
  %98 = load ptr, ptr %__data_.i.i.i.i.i.i1126, align 8
  %__data_.i4.i.i.i.i.i1127 = getelementptr inbounds %"struct.std::__1::basic_string<char>::__short", ptr %97, i64 0, i32 2
  %cond.i.i.i.i.i1128 = select i1 %tobool.i.not.i.i.i.i.i1125, ptr %__data_.i4.i.i.i.i.i1127, ptr %98
  br label %invoke.cont216

invoke.cont216:                                   ; preds = %cond.true.i.i1129, %invoke.cont213
  %cond.i.i1130 = phi ptr [ %cond.i.i.i.i.i1128, %cond.true.i.i1129 ], [ @.str.40, %invoke.cont213 ]
  invoke void @_ZN7testing8internal12AssertHelperC1ENS_14TestPartResult4TypeEPKciS5_(ptr noundef nonnull align 8 dereferenceable(8) %ref.tmp214, i32 noundef 2, ptr noundef nonnull @.str.3, i32 noundef 49, ptr noundef %cond.i.i1130)
          to label %invoke.cont218 unwind label %lpad215

invoke.cont218:                                   ; preds = %invoke.cont216
  invoke void @_ZNK7testing8internal12AssertHelperaSERKNS_7MessageE(ptr noundef nonnull align 8 dereferenceable(8) %ref.tmp214, ptr noundef nonnull align 8 dereferenceable(8) %ref.tmp211)
          to label %invoke.cont220 unwind label %lpad219

invoke.cont220:                                   ; preds = %invoke.cont218
  call void @_ZN7testing8internal12AssertHelperD1Ev(ptr noundef nonnull align 8 dereferenceable(8) %ref.tmp214) #23
  call void @llvm.lifetime.end.p0(i64 8, ptr nonnull %ref.tmp214) #23
  %99 = load ptr, ptr %ref.tmp211, align 8, !tbaa !20
  store ptr null, ptr %ref.tmp211, align 8, !tbaa !20
  %tobool.not.i.i.i1132 = icmp eq ptr %99, null
  br i1 %tobool.not.i.i.i1132, label %_ZN7testing7MessageD2Ev.exit1136, label %_ZNKSt3__114default_deleteINS_18basic_stringstreamIcNS_11char_traitsIcEENS_9allocatorIcEEEEEclB7v170000EPS6_.exit.i.i.i1135

_ZNKSt3__114default_deleteINS_18basic_stringstreamIcNS_11char_traitsIcEENS_9allocatorIcEEEEEclB7v170000EPS6_.exit.i.i.i1135: ; preds = %invoke.cont220
  %vtable.i.i.i.i1133 = load ptr, ptr %99, align 8, !tbaa !5
  %vfn.i.i.i.i1134 = getelementptr inbounds ptr, ptr %vtable.i.i.i.i1133, i64 1
  %100 = load ptr, ptr %vfn.i.i.i.i1134, align 8
  call void %100(ptr noundef nonnull align 8 dereferenceable(128) %99) #23
  br label %_ZN7testing7MessageD2Ev.exit1136

_ZN7testing7MessageD2Ev.exit1136:                 ; preds = %invoke.cont220, %_ZNKSt3__114default_deleteINS_18basic_stringstreamIcNS_11char_traitsIcEENS_9allocatorIcEEEEEclB7v170000EPS6_.exit.i.i.i1135
  call void @llvm.lifetime.end.p0(i64 8, ptr nonnull %ref.tmp211) #23
  br label %cleanup226

lpad212:                                          ; preds = %if.else210
  %101 = landingpad { ptr, i32 }
          cleanup
  br label %ehcleanup224

lpad215:                                          ; preds = %invoke.cont216
  %102 = landingpad { ptr, i32 }
          cleanup
  br label %ehcleanup222

lpad219:                                          ; preds = %invoke.cont218
  %103 = landingpad { ptr, i32 }
          cleanup
  call void @_ZN7testing8internal12AssertHelperD1Ev(ptr noundef nonnull align 8 dereferenceable(8) %ref.tmp214) #23
  br label %ehcleanup222

ehcleanup222:                                     ; preds = %lpad219, %lpad215
  %.pn781 = phi { ptr, i32 } [ %103, %lpad219 ], [ %102, %lpad215 ]
  call void @llvm.lifetime.end.p0(i64 8, ptr nonnull %ref.tmp214) #23
  %104 = load ptr, ptr %ref.tmp211, align 8, !tbaa !20
  store ptr null, ptr %ref.tmp211, align 8, !tbaa !20
  %tobool.not.i.i.i1137 = icmp eq ptr %104, null
  br i1 %tobool.not.i.i.i1137, label %ehcleanup224, label %_ZNKSt3__114default_deleteINS_18basic_stringstreamIcNS_11char_traitsIcEENS_9allocatorIcEEEEEclB7v170000EPS6_.exit.i.i.i1140

_ZNKSt3__114default_deleteINS_18basic_stringstreamIcNS_11char_traitsIcEENS_9allocatorIcEEEEEclB7v170000EPS6_.exit.i.i.i1140: ; preds = %ehcleanup222
  %vtable.i.i.i.i1138 = load ptr, ptr %104, align 8, !tbaa !5
  %vfn.i.i.i.i1139 = getelementptr inbounds ptr, ptr %vtable.i.i.i.i1138, i64 1
  %105 = load ptr, ptr %vfn.i.i.i.i1139, align 8
  call void %105(ptr noundef nonnull align 8 dereferenceable(128) %104) #23
  br label %ehcleanup224

ehcleanup224:                                     ; preds = %_ZNKSt3__114default_deleteINS_18basic_stringstreamIcNS_11char_traitsIcEENS_9allocatorIcEEEEEclB7v170000EPS6_.exit.i.i.i1140, %ehcleanup222, %lpad212
  %.pn781.pn = phi { ptr, i32 } [ %101, %lpad212 ], [ %.pn781, %ehcleanup222 ], [ %.pn781, %_ZNKSt3__114default_deleteINS_18basic_stringstreamIcNS_11char_traitsIcEENS_9allocatorIcEEEEEclB7v170000EPS6_.exit.i.i.i1140 ]
  call void @llvm.lifetime.end.p0(i64 8, ptr nonnull %ref.tmp211) #23
  call void @_ZN7testing15AssertionResultD2Ev(ptr noundef nonnull align 8 dereferenceable(16) %gtest_ar204) #23
  call void @llvm.lifetime.end.p0(i64 16, ptr nonnull %gtest_ar204) #23
  br label %eh.resume

cleanup226:                                       ; preds = %_ZN7testing8internal8EqHelper7CompareIiiLPv0EEENS_15AssertionResultEPKcS6_RKT_RKT0_.exit1119, %_ZN7testing7MessageD2Ev.exit1136
  %message_.i1142 = getelementptr inbounds %"class.testing::AssertionResult", ptr %gtest_ar204, i64 0, i32 1
  %106 = load ptr, ptr %message_.i1142, align 8, !tbaa !20
  store ptr null, ptr %message_.i1142, align 8, !tbaa !20
  %tobool.not.i.i.i1143 = icmp eq ptr %106, null
  br i1 %tobool.not.i.i.i1143, label %_ZN7testing15AssertionResultD2Ev.exit1151, label %delete.notnull.i.i.i.i1147

delete.notnull.i.i.i.i1147:                       ; preds = %cleanup226
  %bf.load.i.i.i.i.i.i1144 = load i8, ptr %106, align 8
  %bf.clear.i.i.i.i.i.i1145 = and i8 %bf.load.i.i.i.i.i.i1144, 1
  %tobool.i.not.i.i.i.i.i1146 = icmp eq i8 %bf.clear.i.i.i.i.i.i1145, 0
  br i1 %tobool.i.not.i.i.i.i.i1146, label %_ZNKSt3__114default_deleteINS_12basic_stringIcNS_11char_traitsIcEENS_9allocatorIcEEEEEclB7v170000EPS6_.exit.i.i.i1150, label %if.then.i.i.i.i.i1149

if.then.i.i.i.i.i1149:                            ; preds = %delete.notnull.i.i.i.i1147
  %__data_.i.i.i.i.i.i1148 = getelementptr inbounds %"struct.std::__1::basic_string<char>::__long", ptr %106, i64 0, i32 2
  %107 = load ptr, ptr %__data_.i.i.i.i.i.i1148, align 8, !tbaa !21
  call void @_ZdlPv(ptr noundef %107) #24
  br label %_ZNKSt3__114default_deleteINS_12basic_stringIcNS_11char_traitsIcEENS_9allocatorIcEEEEEclB7v170000EPS6_.exit.i.i.i1150

_ZNKSt3__114default_deleteINS_12basic_stringIcNS_11char_traitsIcEENS_9allocatorIcEEEEEclB7v170000EPS6_.exit.i.i.i1150: ; preds = %if.then.i.i.i.i.i1149, %delete.notnull.i.i.i.i1147
  call void @_ZdlPv(ptr noundef nonnull %106) #24
  br label %_ZN7testing15AssertionResultD2Ev.exit1151

_ZN7testing15AssertionResultD2Ev.exit1151:        ; preds = %cleanup226, %_ZNKSt3__114default_deleteINS_12basic_stringIcNS_11char_traitsIcEENS_9allocatorIcEEEEEclB7v170000EPS6_.exit.i.i.i1150
  call void @llvm.lifetime.end.p0(i64 16, ptr nonnull %gtest_ar204) #23
  br i1 %tobool.i1120.not, label %return, label %cleanup.cont230

cleanup.cont230:                                  ; preds = %_ZN7testing15AssertionResultD2Ev.exit1151
  call void @llvm.lifetime.start.p0(i64 16, ptr nonnull %gtest_ar232) #23
  call void @llvm.lifetime.start.p0(i64 1, ptr nonnull %ref.tmp233) #23
  %call234 = call noundef zeroext i1 @_ZN9benchmark11BoolFromEnvEPKcb(ptr noundef nonnull @.str.45, i1 noundef zeroext true)
  %frombool235 = zext i1 %call234 to i8
  store i8 %frombool235, ptr %ref.tmp233, align 1, !tbaa !22
  call void @llvm.lifetime.start.p0(i64 1, ptr nonnull %ref.tmp236) #23
  store i8 0, ptr %ref.tmp236, align 1, !tbaa !22
  br i1 %call234, label %if.end.i.i1154, label %if.then.i.i1153

if.then.i.i1153:                                  ; preds = %cleanup.cont230
  call void @_ZN7testing16AssertionSuccessEv(ptr nonnull sret(%"class.testing::AssertionResult") align 8 %gtest_ar232)
  br label %_ZN7testing8internal8EqHelper7CompareIbbLPv0EEENS_15AssertionResultEPKcS6_RKT_RKT0_.exit1155

if.end.i.i1154:                                   ; preds = %cleanup.cont230
  call void @_ZN7testing8internal18CmpHelperEQFailureIbbEENS_15AssertionResultEPKcS4_RKT_RKT0_(ptr nonnull sret(%"class.testing::AssertionResult") align 8 %gtest_ar232, ptr noundef nonnull @.str.44, ptr noundef nonnull @.str.41, ptr noundef nonnull align 1 dereferenceable(1) %ref.tmp233, ptr noundef nonnull align 1 dereferenceable(1) %ref.tmp236)
  br label %_ZN7testing8internal8EqHelper7CompareIbbLPv0EEENS_15AssertionResultEPKcS6_RKT_RKT0_.exit1155

_ZN7testing8internal8EqHelper7CompareIbbLPv0EEENS_15AssertionResultEPKcS6_RKT_RKT0_.exit1155: ; preds = %if.then.i.i1153, %if.end.i.i1154
  call void @llvm.lifetime.end.p0(i64 1, ptr nonnull %ref.tmp236) #23
  call void @llvm.lifetime.end.p0(i64 1, ptr nonnull %ref.tmp233) #23
  %108 = load i8, ptr %gtest_ar232, align 8, !tbaa !11, !range !18, !noundef !19
  %tobool.i1156.not = icmp eq i8 %108, 0
  br i1 %tobool.i1156.not, label %if.else239, label %if.end254

if.else239:                                       ; preds = %_ZN7testing8internal8EqHelper7CompareIbbLPv0EEENS_15AssertionResultEPKcS6_RKT_RKT0_.exit1155
  call void @llvm.lifetime.start.p0(i64 8, ptr nonnull %ref.tmp240) #23
  invoke void @_ZN7testing7MessageC1Ev(ptr noundef nonnull align 8 dereferenceable(8) %ref.tmp240)
          to label %invoke.cont242 unwind label %lpad241

invoke.cont242:                                   ; preds = %if.else239
  call void @llvm.lifetime.start.p0(i64 8, ptr nonnull %ref.tmp243) #23
  %message_.i.i1157 = getelementptr inbounds %"class.testing::AssertionResult", ptr %gtest_ar232, i64 0, i32 1
  %109 = load ptr, ptr %message_.i.i1157, align 8, !tbaa !20
  %cmp.not.i.i1158 = icmp eq ptr %109, null
  br i1 %cmp.not.i.i1158, label %invoke.cont245, label %cond.true.i.i1165

cond.true.i.i1165:                                ; preds = %invoke.cont242
  %bf.load.i.i.i.i.i.i1159 = load i8, ptr %109, align 8
  %bf.clear.i.i.i.i.i.i1160 = and i8 %bf.load.i.i.i.i.i.i1159, 1
  %tobool.i.not.i.i.i.i.i1161 = icmp eq i8 %bf.clear.i.i.i.i.i.i1160, 0
  %__data_.i.i.i.i.i.i1162 = getelementptr inbounds %"struct.std::__1::basic_string<char>::__long", ptr %109, i64 0, i32 2
  %110 = load ptr, ptr %__data_.i.i.i.i.i.i1162, align 8
  %__data_.i4.i.i.i.i.i1163 = getelementptr inbounds %"struct.std::__1::basic_string<char>::__short", ptr %109, i64 0, i32 2
  %cond.i.i.i.i.i1164 = select i1 %tobool.i.not.i.i.i.i.i1161, ptr %__data_.i4.i.i.i.i.i1163, ptr %110
  br label %invoke.cont245

invoke.cont245:                                   ; preds = %cond.true.i.i1165, %invoke.cont242
  %cond.i.i1166 = phi ptr [ %cond.i.i.i.i.i1164, %cond.true.i.i1165 ], [ @.str.40, %invoke.cont242 ]
  invoke void @_ZN7testing8internal12AssertHelperC1ENS_14TestPartResult4TypeEPKciS5_(ptr noundef nonnull align 8 dereferenceable(8) %ref.tmp243, i32 noundef 1, ptr noundef nonnull @.str.3, i32 noundef 50, ptr noundef %cond.i.i1166)
          to label %invoke.cont247 unwind label %lpad244

invoke.cont247:                                   ; preds = %invoke.cont245
  invoke void @_ZNK7testing8internal12AssertHelperaSERKNS_7MessageE(ptr noundef nonnull align 8 dereferenceable(8) %ref.tmp243, ptr noundef nonnull align 8 dereferenceable(8) %ref.tmp240)
          to label %invoke.cont249 unwind label %lpad248

invoke.cont249:                                   ; preds = %invoke.cont247
  call void @_ZN7testing8internal12AssertHelperD1Ev(ptr noundef nonnull align 8 dereferenceable(8) %ref.tmp243) #23
  call void @llvm.lifetime.end.p0(i64 8, ptr nonnull %ref.tmp243) #23
  %111 = load ptr, ptr %ref.tmp240, align 8, !tbaa !20
  store ptr null, ptr %ref.tmp240, align 8, !tbaa !20
  %tobool.not.i.i.i1168 = icmp eq ptr %111, null
  br i1 %tobool.not.i.i.i1168, label %_ZN7testing7MessageD2Ev.exit1172, label %_ZNKSt3__114default_deleteINS_18basic_stringstreamIcNS_11char_traitsIcEENS_9allocatorIcEEEEEclB7v170000EPS6_.exit.i.i.i1171

_ZNKSt3__114default_deleteINS_18basic_stringstreamIcNS_11char_traitsIcEENS_9allocatorIcEEEEEclB7v170000EPS6_.exit.i.i.i1171: ; preds = %invoke.cont249
  %vtable.i.i.i.i1169 = load ptr, ptr %111, align 8, !tbaa !5
  %vfn.i.i.i.i1170 = getelementptr inbounds ptr, ptr %vtable.i.i.i.i1169, i64 1
  %112 = load ptr, ptr %vfn.i.i.i.i1170, align 8
  call void %112(ptr noundef nonnull align 8 dereferenceable(128) %111) #23
  br label %_ZN7testing7MessageD2Ev.exit1172

_ZN7testing7MessageD2Ev.exit1172:                 ; preds = %invoke.cont249, %_ZNKSt3__114default_deleteINS_18basic_stringstreamIcNS_11char_traitsIcEENS_9allocatorIcEEEEEclB7v170000EPS6_.exit.i.i.i1171
  call void @llvm.lifetime.end.p0(i64 8, ptr nonnull %ref.tmp240) #23
  br label %if.end254

lpad241:                                          ; preds = %if.else239
  %113 = landingpad { ptr, i32 }
          cleanup
  br label %ehcleanup253

lpad244:                                          ; preds = %invoke.cont245
  %114 = landingpad { ptr, i32 }
          cleanup
  br label %ehcleanup251

lpad248:                                          ; preds = %invoke.cont247
  %115 = landingpad { ptr, i32 }
          cleanup
  call void @_ZN7testing8internal12AssertHelperD1Ev(ptr noundef nonnull align 8 dereferenceable(8) %ref.tmp243) #23
  br label %ehcleanup251

ehcleanup251:                                     ; preds = %lpad248, %lpad244
  %.pn784 = phi { ptr, i32 } [ %115, %lpad248 ], [ %114, %lpad244 ]
  call void @llvm.lifetime.end.p0(i64 8, ptr nonnull %ref.tmp243) #23
  %116 = load ptr, ptr %ref.tmp240, align 8, !tbaa !20
  store ptr null, ptr %ref.tmp240, align 8, !tbaa !20
  %tobool.not.i.i.i1173 = icmp eq ptr %116, null
  br i1 %tobool.not.i.i.i1173, label %ehcleanup253, label %_ZNKSt3__114default_deleteINS_18basic_stringstreamIcNS_11char_traitsIcEENS_9allocatorIcEEEEEclB7v170000EPS6_.exit.i.i.i1176

_ZNKSt3__114default_deleteINS_18basic_stringstreamIcNS_11char_traitsIcEENS_9allocatorIcEEEEEclB7v170000EPS6_.exit.i.i.i1176: ; preds = %ehcleanup251
  %vtable.i.i.i.i1174 = load ptr, ptr %116, align 8, !tbaa !5
  %vfn.i.i.i.i1175 = getelementptr inbounds ptr, ptr %vtable.i.i.i.i1174, i64 1
  %117 = load ptr, ptr %vfn.i.i.i.i1175, align 8
  call void %117(ptr noundef nonnull align 8 dereferenceable(128) %116) #23
  br label %ehcleanup253

ehcleanup253:                                     ; preds = %_ZNKSt3__114default_deleteINS_18basic_stringstreamIcNS_11char_traitsIcEENS_9allocatorIcEEEEEclB7v170000EPS6_.exit.i.i.i1176, %ehcleanup251, %lpad241
  %.pn784.pn = phi { ptr, i32 } [ %113, %lpad241 ], [ %.pn784, %ehcleanup251 ], [ %.pn784, %_ZNKSt3__114default_deleteINS_18basic_stringstreamIcNS_11char_traitsIcEENS_9allocatorIcEEEEEclB7v170000EPS6_.exit.i.i.i1176 ]
  call void @llvm.lifetime.end.p0(i64 8, ptr nonnull %ref.tmp240) #23
  call void @_ZN7testing15AssertionResultD2Ev(ptr noundef nonnull align 8 dereferenceable(16) %gtest_ar232) #23
  call void @llvm.lifetime.end.p0(i64 16, ptr nonnull %gtest_ar232) #23
  br label %eh.resume

if.end254:                                        ; preds = %_ZN7testing8internal8EqHelper7CompareIbbLPv0EEENS_15AssertionResultEPKcS6_RKT_RKT0_.exit1155, %_ZN7testing7MessageD2Ev.exit1172
  %message_.i1178 = getelementptr inbounds %"class.testing::AssertionResult", ptr %gtest_ar232, i64 0, i32 1
  %118 = load ptr, ptr %message_.i1178, align 8, !tbaa !20
  store ptr null, ptr %message_.i1178, align 8, !tbaa !20
  %tobool.not.i.i.i1179 = icmp eq ptr %118, null
  br i1 %tobool.not.i.i.i1179, label %_ZN7testing15AssertionResultD2Ev.exit1187, label %delete.notnull.i.i.i.i1183

delete.notnull.i.i.i.i1183:                       ; preds = %if.end254
  %bf.load.i.i.i.i.i.i1180 = load i8, ptr %118, align 8
  %bf.clear.i.i.i.i.i.i1181 = and i8 %bf.load.i.i.i.i.i.i1180, 1
  %tobool.i.not.i.i.i.i.i1182 = icmp eq i8 %bf.clear.i.i.i.i.i.i1181, 0
  br i1 %tobool.i.not.i.i.i.i.i1182, label %_ZNKSt3__114default_deleteINS_12basic_stringIcNS_11char_traitsIcEENS_9allocatorIcEEEEEclB7v170000EPS6_.exit.i.i.i1186, label %if.then.i.i.i.i.i1185

if.then.i.i.i.i.i1185:                            ; preds = %delete.notnull.i.i.i.i1183
  %__data_.i.i.i.i.i.i1184 = getelementptr inbounds %"struct.std::__1::basic_string<char>::__long", ptr %118, i64 0, i32 2
  %119 = load ptr, ptr %__data_.i.i.i.i.i.i1184, align 8, !tbaa !21
  call void @_ZdlPv(ptr noundef %119) #24
  br label %_ZNKSt3__114default_deleteINS_12basic_stringIcNS_11char_traitsIcEENS_9allocatorIcEEEEEclB7v170000EPS6_.exit.i.i.i1186

_ZNKSt3__114default_deleteINS_12basic_stringIcNS_11char_traitsIcEENS_9allocatorIcEEEEEclB7v170000EPS6_.exit.i.i.i1186: ; preds = %if.then.i.i.i.i.i1185, %delete.notnull.i.i.i.i1183
  call void @_ZdlPv(ptr noundef nonnull %118) #24
  br label %_ZN7testing15AssertionResultD2Ev.exit1187

_ZN7testing15AssertionResultD2Ev.exit1187:        ; preds = %if.end254, %_ZNKSt3__114default_deleteINS_12basic_stringIcNS_11char_traitsIcEENS_9allocatorIcEEEEEclB7v170000EPS6_.exit.i.i.i1186
  call void @llvm.lifetime.end.p0(i64 16, ptr nonnull %gtest_ar232) #23
  %call257 = call i32 @unsetenv(ptr noundef nonnull @.str.43) #23
  call void @llvm.lifetime.start.p0(i64 16, ptr nonnull %gtest_ar258) #23
  call void @llvm.lifetime.start.p0(i64 4, ptr nonnull %ref.tmp259) #23
  %call260 = call i32 @setenv(ptr noundef nonnull @.str.43, ptr noundef nonnull @.str.55, i32 noundef 1) #23
  store i32 %call260, ptr %ref.tmp259, align 4, !tbaa !8
  call void @llvm.lifetime.start.p0(i64 4, ptr nonnull %ref.tmp261) #23
  store i32 0, ptr %ref.tmp261, align 4, !tbaa !8
  %cmp.i.i1188 = icmp eq i32 %call260, 0
  br i1 %cmp.i.i1188, label %if.then.i.i1189, label %if.end.i.i1190

if.then.i.i1189:                                  ; preds = %_ZN7testing15AssertionResultD2Ev.exit1187
  call void @_ZN7testing16AssertionSuccessEv(ptr nonnull sret(%"class.testing::AssertionResult") align 8 %gtest_ar258)
  br label %_ZN7testing8internal8EqHelper7CompareIiiLPv0EEENS_15AssertionResultEPKcS6_RKT_RKT0_.exit1191

if.end.i.i1190:                                   ; preds = %_ZN7testing15AssertionResultD2Ev.exit1187
  call void @_ZN7testing8internal18CmpHelperEQFailureIiiEENS_15AssertionResultEPKcS4_RKT_RKT0_(ptr nonnull sret(%"class.testing::AssertionResult") align 8 %gtest_ar258, ptr noundef nonnull @.str.54, ptr noundef nonnull @.str.34, ptr noundef nonnull align 4 dereferenceable(4) %ref.tmp259, ptr noundef nonnull align 4 dereferenceable(4) %ref.tmp261)
  br label %_ZN7testing8internal8EqHelper7CompareIiiLPv0EEENS_15AssertionResultEPKcS6_RKT_RKT0_.exit1191

_ZN7testing8internal8EqHelper7CompareIiiLPv0EEENS_15AssertionResultEPKcS6_RKT_RKT0_.exit1191: ; preds = %if.then.i.i1189, %if.end.i.i1190
  call void @llvm.lifetime.end.p0(i64 4, ptr nonnull %ref.tmp261) #23
  call void @llvm.lifetime.end.p0(i64 4, ptr nonnull %ref.tmp259) #23
  %120 = load i8, ptr %gtest_ar258, align 8, !tbaa !11, !range !18, !noundef !19
  %tobool.i1192.not = icmp eq i8 %120, 0
  br i1 %tobool.i1192.not, label %if.else264, label %cleanup280

if.else264:                                       ; preds = %_ZN7testing8internal8EqHelper7CompareIiiLPv0EEENS_15AssertionResultEPKcS6_RKT_RKT0_.exit1191
  call void @llvm.lifetime.start.p0(i64 8, ptr nonnull %ref.tmp265) #23
  invoke void @_ZN7testing7MessageC1Ev(ptr noundef nonnull align 8 dereferenceable(8) %ref.tmp265)
          to label %invoke.cont267 unwind label %lpad266

invoke.cont267:                                   ; preds = %if.else264
  call void @llvm.lifetime.start.p0(i64 8, ptr nonnull %ref.tmp268) #23
  %message_.i.i1193 = getelementptr inbounds %"class.testing::AssertionResult", ptr %gtest_ar258, i64 0, i32 1
  %121 = load ptr, ptr %message_.i.i1193, align 8, !tbaa !20
  %cmp.not.i.i1194 = icmp eq ptr %121, null
  br i1 %cmp.not.i.i1194, label %invoke.cont270, label %cond.true.i.i1201

cond.true.i.i1201:                                ; preds = %invoke.cont267
  %bf.load.i.i.i.i.i.i1195 = load i8, ptr %121, align 8
  %bf.clear.i.i.i.i.i.i1196 = and i8 %bf.load.i.i.i.i.i.i1195, 1
  %tobool.i.not.i.i.i.i.i1197 = icmp eq i8 %bf.clear.i.i.i.i.i.i1196, 0
  %__data_.i.i.i.i.i.i1198 = getelementptr inbounds %"struct.std::__1::basic_string<char>::__long", ptr %121, i64 0, i32 2
  %122 = load ptr, ptr %__data_.i.i.i.i.i.i1198, align 8
  %__data_.i4.i.i.i.i.i1199 = getelementptr inbounds %"struct.std::__1::basic_string<char>::__short", ptr %121, i64 0, i32 2
  %cond.i.i.i.i.i1200 = select i1 %tobool.i.not.i.i.i.i.i1197, ptr %__data_.i4.i.i.i.i.i1199, ptr %122
  br label %invoke.cont270

invoke.cont270:                                   ; preds = %cond.true.i.i1201, %invoke.cont267
  %cond.i.i1202 = phi ptr [ %cond.i.i.i.i.i1200, %cond.true.i.i1201 ], [ @.str.40, %invoke.cont267 ]
  invoke void @_ZN7testing8internal12AssertHelperC1ENS_14TestPartResult4TypeEPKciS5_(ptr noundef nonnull align 8 dereferenceable(8) %ref.tmp268, i32 noundef 2, ptr noundef nonnull @.str.3, i32 noundef 53, ptr noundef %cond.i.i1202)
          to label %invoke.cont272 unwind label %lpad269

invoke.cont272:                                   ; preds = %invoke.cont270
  invoke void @_ZNK7testing8internal12AssertHelperaSERKNS_7MessageE(ptr noundef nonnull align 8 dereferenceable(8) %ref.tmp268, ptr noundef nonnull align 8 dereferenceable(8) %ref.tmp265)
          to label %invoke.cont274 unwind label %lpad273

invoke.cont274:                                   ; preds = %invoke.cont272
  call void @_ZN7testing8internal12AssertHelperD1Ev(ptr noundef nonnull align 8 dereferenceable(8) %ref.tmp268) #23
  call void @llvm.lifetime.end.p0(i64 8, ptr nonnull %ref.tmp268) #23
  %123 = load ptr, ptr %ref.tmp265, align 8, !tbaa !20
  store ptr null, ptr %ref.tmp265, align 8, !tbaa !20
  %tobool.not.i.i.i1204 = icmp eq ptr %123, null
  br i1 %tobool.not.i.i.i1204, label %_ZN7testing7MessageD2Ev.exit1208, label %_ZNKSt3__114default_deleteINS_18basic_stringstreamIcNS_11char_traitsIcEENS_9allocatorIcEEEEEclB7v170000EPS6_.exit.i.i.i1207

_ZNKSt3__114default_deleteINS_18basic_stringstreamIcNS_11char_traitsIcEENS_9allocatorIcEEEEEclB7v170000EPS6_.exit.i.i.i1207: ; preds = %invoke.cont274
  %vtable.i.i.i.i1205 = load ptr, ptr %123, align 8, !tbaa !5
  %vfn.i.i.i.i1206 = getelementptr inbounds ptr, ptr %vtable.i.i.i.i1205, i64 1
  %124 = load ptr, ptr %vfn.i.i.i.i1206, align 8
  call void %124(ptr noundef nonnull align 8 dereferenceable(128) %123) #23
  br label %_ZN7testing7MessageD2Ev.exit1208

_ZN7testing7MessageD2Ev.exit1208:                 ; preds = %invoke.cont274, %_ZNKSt3__114default_deleteINS_18basic_stringstreamIcNS_11char_traitsIcEENS_9allocatorIcEEEEEclB7v170000EPS6_.exit.i.i.i1207
  call void @llvm.lifetime.end.p0(i64 8, ptr nonnull %ref.tmp265) #23
  br label %cleanup280

lpad266:                                          ; preds = %if.else264
  %125 = landingpad { ptr, i32 }
          cleanup
  br label %ehcleanup278

lpad269:                                          ; preds = %invoke.cont270
  %126 = landingpad { ptr, i32 }
          cleanup
  br label %ehcleanup276

lpad273:                                          ; preds = %invoke.cont272
  %127 = landingpad { ptr, i32 }
          cleanup
  call void @_ZN7testing8internal12AssertHelperD1Ev(ptr noundef nonnull align 8 dereferenceable(8) %ref.tmp268) #23
  br label %ehcleanup276

ehcleanup276:                                     ; preds = %lpad273, %lpad269
  %.pn787 = phi { ptr, i32 } [ %127, %lpad273 ], [ %126, %lpad269 ]
  call void @llvm.lifetime.end.p0(i64 8, ptr nonnull %ref.tmp268) #23
  %128 = load ptr, ptr %ref.tmp265, align 8, !tbaa !20
  store ptr null, ptr %ref.tmp265, align 8, !tbaa !20
  %tobool.not.i.i.i1209 = icmp eq ptr %128, null
  br i1 %tobool.not.i.i.i1209, label %ehcleanup278, label %_ZNKSt3__114default_deleteINS_18basic_stringstreamIcNS_11char_traitsIcEENS_9allocatorIcEEEEEclB7v170000EPS6_.exit.i.i.i1212

_ZNKSt3__114default_deleteINS_18basic_stringstreamIcNS_11char_traitsIcEENS_9allocatorIcEEEEEclB7v170000EPS6_.exit.i.i.i1212: ; preds = %ehcleanup276
  %vtable.i.i.i.i1210 = load ptr, ptr %128, align 8, !tbaa !5
  %vfn.i.i.i.i1211 = getelementptr inbounds ptr, ptr %vtable.i.i.i.i1210, i64 1
  %129 = load ptr, ptr %vfn.i.i.i.i1211, align 8
  call void %129(ptr noundef nonnull align 8 dereferenceable(128) %128) #23
  br label %ehcleanup278

ehcleanup278:                                     ; preds = %_ZNKSt3__114default_deleteINS_18basic_stringstreamIcNS_11char_traitsIcEENS_9allocatorIcEEEEEclB7v170000EPS6_.exit.i.i.i1212, %ehcleanup276, %lpad266
  %.pn787.pn = phi { ptr, i32 } [ %125, %lpad266 ], [ %.pn787, %ehcleanup276 ], [ %.pn787, %_ZNKSt3__114default_deleteINS_18basic_stringstreamIcNS_11char_traitsIcEENS_9allocatorIcEEEEEclB7v170000EPS6_.exit.i.i.i1212 ]
  call void @llvm.lifetime.end.p0(i64 8, ptr nonnull %ref.tmp265) #23
  call void @_ZN7testing15AssertionResultD2Ev(ptr noundef nonnull align 8 dereferenceable(16) %gtest_ar258) #23
  call void @llvm.lifetime.end.p0(i64 16, ptr nonnull %gtest_ar258) #23
  br label %eh.resume

cleanup280:                                       ; preds = %_ZN7testing8internal8EqHelper7CompareIiiLPv0EEENS_15AssertionResultEPKcS6_RKT_RKT0_.exit1191, %_ZN7testing7MessageD2Ev.exit1208
  %message_.i1214 = getelementptr inbounds %"class.testing::AssertionResult", ptr %gtest_ar258, i64 0, i32 1
  %130 = load ptr, ptr %message_.i1214, align 8, !tbaa !20
  store ptr null, ptr %message_.i1214, align 8, !tbaa !20
  %tobool.not.i.i.i1215 = icmp eq ptr %130, null
  br i1 %tobool.not.i.i.i1215, label %_ZN7testing15AssertionResultD2Ev.exit1223, label %delete.notnull.i.i.i.i1219

delete.notnull.i.i.i.i1219:                       ; preds = %cleanup280
  %bf.load.i.i.i.i.i.i1216 = load i8, ptr %130, align 8
  %bf.clear.i.i.i.i.i.i1217 = and i8 %bf.load.i.i.i.i.i.i1216, 1
  %tobool.i.not.i.i.i.i.i1218 = icmp eq i8 %bf.clear.i.i.i.i.i.i1217, 0
  br i1 %tobool.i.not.i.i.i.i.i1218, label %_ZNKSt3__114default_deleteINS_12basic_stringIcNS_11char_traitsIcEENS_9allocatorIcEEEEEclB7v170000EPS6_.exit.i.i.i1222, label %if.then.i.i.i.i.i1221

if.then.i.i.i.i.i1221:                            ; preds = %delete.notnull.i.i.i.i1219
  %__data_.i.i.i.i.i.i1220 = getelementptr inbounds %"struct.std::__1::basic_string<char>::__long", ptr %130, i64 0, i32 2
  %131 = load ptr, ptr %__data_.i.i.i.i.i.i1220, align 8, !tbaa !21
  call void @_ZdlPv(ptr noundef %131) #24
  br label %_ZNKSt3__114default_deleteINS_12basic_stringIcNS_11char_traitsIcEENS_9allocatorIcEEEEEclB7v170000EPS6_.exit.i.i.i1222

_ZNKSt3__114default_deleteINS_12basic_stringIcNS_11char_traitsIcEENS_9allocatorIcEEEEEclB7v170000EPS6_.exit.i.i.i1222: ; preds = %if.then.i.i.i.i.i1221, %delete.notnull.i.i.i.i1219
  call void @_ZdlPv(ptr noundef nonnull %130) #24
  br label %_ZN7testing15AssertionResultD2Ev.exit1223

_ZN7testing15AssertionResultD2Ev.exit1223:        ; preds = %cleanup280, %_ZNKSt3__114default_deleteINS_12basic_stringIcNS_11char_traitsIcEENS_9allocatorIcEEEEEclB7v170000EPS6_.exit.i.i.i1222
  call void @llvm.lifetime.end.p0(i64 16, ptr nonnull %gtest_ar258) #23
  br i1 %tobool.i1192.not, label %return, label %cleanup.cont284

cleanup.cont284:                                  ; preds = %_ZN7testing15AssertionResultD2Ev.exit1223
  call void @llvm.lifetime.start.p0(i64 16, ptr nonnull %gtest_ar286) #23
  call void @llvm.lifetime.start.p0(i64 1, ptr nonnull %ref.tmp287) #23
  %call288 = call noundef zeroext i1 @_ZN9benchmark11BoolFromEnvEPKcb(ptr noundef nonnull @.str.45, i1 noundef zeroext true)
  %frombool289 = zext i1 %call288 to i8
  store i8 %frombool289, ptr %ref.tmp287, align 1, !tbaa !22
  call void @llvm.lifetime.start.p0(i64 1, ptr nonnull %ref.tmp290) #23
  store i8 0, ptr %ref.tmp290, align 1, !tbaa !22
  call void @_ZN7testing8internal8EqHelper7CompareIbbLPv0EEENS_15AssertionResultEPKcS6_RKT_RKT0_(ptr nonnull sret(%"class.testing::AssertionResult") align 8 %gtest_ar286, ptr noundef nonnull @.str.44, ptr noundef nonnull @.str.41, ptr noundef nonnull align 1 dereferenceable(1) %ref.tmp287, ptr noundef nonnull align 1 dereferenceable(1) %ref.tmp290)
  call void @llvm.lifetime.end.p0(i64 1, ptr nonnull %ref.tmp290) #23
  call void @llvm.lifetime.end.p0(i64 1, ptr nonnull %ref.tmp287) #23
  %132 = load i8, ptr %gtest_ar286, align 8, !tbaa !11, !range !18, !noundef !19
  %tobool.i1224.not = icmp eq i8 %132, 0
  br i1 %tobool.i1224.not, label %if.else293, label %if.end308

if.else293:                                       ; preds = %cleanup.cont284
  call void @llvm.lifetime.start.p0(i64 8, ptr nonnull %ref.tmp294) #23
  invoke void @_ZN7testing7MessageC1Ev(ptr noundef nonnull align 8 dereferenceable(8) %ref.tmp294)
          to label %invoke.cont296 unwind label %lpad295

invoke.cont296:                                   ; preds = %if.else293
  call void @llvm.lifetime.start.p0(i64 8, ptr nonnull %ref.tmp297) #23
  %message_.i.i1225 = getelementptr inbounds %"class.testing::AssertionResult", ptr %gtest_ar286, i64 0, i32 1
  %133 = load ptr, ptr %message_.i.i1225, align 8, !tbaa !20
  %cmp.not.i.i1226 = icmp eq ptr %133, null
  br i1 %cmp.not.i.i1226, label %invoke.cont299, label %cond.true.i.i1233

cond.true.i.i1233:                                ; preds = %invoke.cont296
  %bf.load.i.i.i.i.i.i1227 = load i8, ptr %133, align 8
  %bf.clear.i.i.i.i.i.i1228 = and i8 %bf.load.i.i.i.i.i.i1227, 1
  %tobool.i.not.i.i.i.i.i1229 = icmp eq i8 %bf.clear.i.i.i.i.i.i1228, 0
  %__data_.i.i.i.i.i.i1230 = getelementptr inbounds %"struct.std::__1::basic_string<char>::__long", ptr %133, i64 0, i32 2
  %134 = load ptr, ptr %__data_.i.i.i.i.i.i1230, align 8
  %__data_.i4.i.i.i.i.i1231 = getelementptr inbounds %"struct.std::__1::basic_string<char>::__short", ptr %133, i64 0, i32 2
  %cond.i.i.i.i.i1232 = select i1 %tobool.i.not.i.i.i.i.i1229, ptr %__data_.i4.i.i.i.i.i1231, ptr %134
  br label %invoke.cont299

invoke.cont299:                                   ; preds = %cond.true.i.i1233, %invoke.cont296
  %cond.i.i1234 = phi ptr [ %cond.i.i.i.i.i1232, %cond.true.i.i1233 ], [ @.str.40, %invoke.cont296 ]
  invoke void @_ZN7testing8internal12AssertHelperC1ENS_14TestPartResult4TypeEPKciS5_(ptr noundef nonnull align 8 dereferenceable(8) %ref.tmp297, i32 noundef 1, ptr noundef nonnull @.str.3, i32 noundef 54, ptr noundef %cond.i.i1234)
          to label %invoke.cont301 unwind label %lpad298

invoke.cont301:                                   ; preds = %invoke.cont299
  invoke void @_ZNK7testing8internal12AssertHelperaSERKNS_7MessageE(ptr noundef nonnull align 8 dereferenceable(8) %ref.tmp297, ptr noundef nonnull align 8 dereferenceable(8) %ref.tmp294)
          to label %invoke.cont303 unwind label %lpad302

invoke.cont303:                                   ; preds = %invoke.cont301
  call void @_ZN7testing8internal12AssertHelperD1Ev(ptr noundef nonnull align 8 dereferenceable(8) %ref.tmp297) #23
  call void @llvm.lifetime.end.p0(i64 8, ptr nonnull %ref.tmp297) #23
  %135 = load ptr, ptr %ref.tmp294, align 8, !tbaa !20
  store ptr null, ptr %ref.tmp294, align 8, !tbaa !20
  %tobool.not.i.i.i1236 = icmp eq ptr %135, null
  br i1 %tobool.not.i.i.i1236, label %_ZN7testing7MessageD2Ev.exit1240, label %_ZNKSt3__114default_deleteINS_18basic_stringstreamIcNS_11char_traitsIcEENS_9allocatorIcEEEEEclB7v170000EPS6_.exit.i.i.i1239

_ZNKSt3__114default_deleteINS_18basic_stringstreamIcNS_11char_traitsIcEENS_9allocatorIcEEEEEclB7v170000EPS6_.exit.i.i.i1239: ; preds = %invoke.cont303
  %vtable.i.i.i.i1237 = load ptr, ptr %135, align 8, !tbaa !5
  %vfn.i.i.i.i1238 = getelementptr inbounds ptr, ptr %vtable.i.i.i.i1237, i64 1
  %136 = load ptr, ptr %vfn.i.i.i.i1238, align 8
  call void %136(ptr noundef nonnull align 8 dereferenceable(128) %135) #23
  br label %_ZN7testing7MessageD2Ev.exit1240

_ZN7testing7MessageD2Ev.exit1240:                 ; preds = %invoke.cont303, %_ZNKSt3__114default_deleteINS_18basic_stringstreamIcNS_11char_traitsIcEENS_9allocatorIcEEEEEclB7v170000EPS6_.exit.i.i.i1239
  call void @llvm.lifetime.end.p0(i64 8, ptr nonnull %ref.tmp294) #23
  br label %if.end308

lpad295:                                          ; preds = %if.else293
  %137 = landingpad { ptr, i32 }
          cleanup
  br label %ehcleanup307

lpad298:                                          ; preds = %invoke.cont299
  %138 = landingpad { ptr, i32 }
          cleanup
  br label %ehcleanup305

lpad302:                                          ; preds = %invoke.cont301
  %139 = landingpad { ptr, i32 }
          cleanup
  call void @_ZN7testing8internal12AssertHelperD1Ev(ptr noundef nonnull align 8 dereferenceable(8) %ref.tmp297) #23
  br label %ehcleanup305

ehcleanup305:                                     ; preds = %lpad302, %lpad298
  %.pn790 = phi { ptr, i32 } [ %139, %lpad302 ], [ %138, %lpad298 ]
  call void @llvm.lifetime.end.p0(i64 8, ptr nonnull %ref.tmp297) #23
  %140 = load ptr, ptr %ref.tmp294, align 8, !tbaa !20
  store ptr null, ptr %ref.tmp294, align 8, !tbaa !20
  %tobool.not.i.i.i1241 = icmp eq ptr %140, null
  br i1 %tobool.not.i.i.i1241, label %ehcleanup307, label %_ZNKSt3__114default_deleteINS_18basic_stringstreamIcNS_11char_traitsIcEENS_9allocatorIcEEEEEclB7v170000EPS6_.exit.i.i.i1244

_ZNKSt3__114default_deleteINS_18basic_stringstreamIcNS_11char_traitsIcEENS_9allocatorIcEEEEEclB7v170000EPS6_.exit.i.i.i1244: ; preds = %ehcleanup305
  %vtable.i.i.i.i1242 = load ptr, ptr %140, align 8, !tbaa !5
  %vfn.i.i.i.i1243 = getelementptr inbounds ptr, ptr %vtable.i.i.i.i1242, i64 1
  %141 = load ptr, ptr %vfn.i.i.i.i1243, align 8
  call void %141(ptr noundef nonnull align 8 dereferenceable(128) %140) #23
  br label %ehcleanup307

ehcleanup307:                                     ; preds = %_ZNKSt3__114default_deleteINS_18basic_stringstreamIcNS_11char_traitsIcEENS_9allocatorIcEEEEEclB7v170000EPS6_.exit.i.i.i1244, %ehcleanup305, %lpad295
  %.pn790.pn = phi { ptr, i32 } [ %137, %lpad295 ], [ %.pn790, %ehcleanup305 ], [ %.pn790, %_ZNKSt3__114default_deleteINS_18basic_stringstreamIcNS_11char_traitsIcEENS_9allocatorIcEEEEEclB7v170000EPS6_.exit.i.i.i1244 ]
  call void @llvm.lifetime.end.p0(i64 8, ptr nonnull %ref.tmp294) #23
  call void @_ZN7testing15AssertionResultD2Ev(ptr noundef nonnull align 8 dereferenceable(16) %gtest_ar286) #23
  call void @llvm.lifetime.end.p0(i64 16, ptr nonnull %gtest_ar286) #23
  br label %eh.resume

if.end308:                                        ; preds = %cleanup.cont284, %_ZN7testing7MessageD2Ev.exit1240
  call void @_ZN7testing15AssertionResultD2Ev(ptr noundef nonnull align 8 dereferenceable(16) %gtest_ar286) #23
  call void @llvm.lifetime.end.p0(i64 16, ptr nonnull %gtest_ar286) #23
  %call311 = call i32 @unsetenv(ptr noundef nonnull @.str.43) #23
  call void @llvm.lifetime.start.p0(i64 16, ptr nonnull %gtest_ar312) #23
  call void @llvm.lifetime.start.p0(i64 4, ptr nonnull %ref.tmp313) #23
  %call314 = call i32 @setenv(ptr noundef nonnull @.str.43, ptr noundef nonnull @.str.57, i32 noundef 1) #23
  store i32 %call314, ptr %ref.tmp313, align 4, !tbaa !8
  call void @llvm.lifetime.start.p0(i64 4, ptr nonnull %ref.tmp315) #23
  store i32 0, ptr %ref.tmp315, align 4, !tbaa !8
  call void @_ZN7testing8internal8EqHelper7CompareIiiLPv0EEENS_15AssertionResultEPKcS6_RKT_RKT0_(ptr nonnull sret(%"class.testing::AssertionResult") align 8 %gtest_ar312, ptr noundef nonnull @.str.56, ptr noundef nonnull @.str.34, ptr noundef nonnull align 4 dereferenceable(4) %ref.tmp313, ptr noundef nonnull align 4 dereferenceable(4) %ref.tmp315)
  call void @llvm.lifetime.end.p0(i64 4, ptr nonnull %ref.tmp315) #23
  call void @llvm.lifetime.end.p0(i64 4, ptr nonnull %ref.tmp313) #23
  %142 = load i8, ptr %gtest_ar312, align 8, !tbaa !11, !range !18, !noundef !19
  %tobool.i1246.not = icmp eq i8 %142, 0
  br i1 %tobool.i1246.not, label %if.else318, label %cleanup.cont338

if.else318:                                       ; preds = %if.end308
  call void @llvm.lifetime.start.p0(i64 8, ptr nonnull %ref.tmp319) #23
  invoke void @_ZN7testing7MessageC1Ev(ptr noundef nonnull align 8 dereferenceable(8) %ref.tmp319)
          to label %invoke.cont321 unwind label %lpad320

invoke.cont321:                                   ; preds = %if.else318
  call void @llvm.lifetime.start.p0(i64 8, ptr nonnull %ref.tmp322) #23
  %message_.i.i1247 = getelementptr inbounds %"class.testing::AssertionResult", ptr %gtest_ar312, i64 0, i32 1
  %143 = load ptr, ptr %message_.i.i1247, align 8, !tbaa !20
  %cmp.not.i.i1248 = icmp eq ptr %143, null
  br i1 %cmp.not.i.i1248, label %invoke.cont324, label %cond.true.i.i1255

cond.true.i.i1255:                                ; preds = %invoke.cont321
  %bf.load.i.i.i.i.i.i1249 = load i8, ptr %143, align 8
  %bf.clear.i.i.i.i.i.i1250 = and i8 %bf.load.i.i.i.i.i.i1249, 1
  %tobool.i.not.i.i.i.i.i1251 = icmp eq i8 %bf.clear.i.i.i.i.i.i1250, 0
  %__data_.i.i.i.i.i.i1252 = getelementptr inbounds %"struct.std::__1::basic_string<char>::__long", ptr %143, i64 0, i32 2
  %144 = load ptr, ptr %__data_.i.i.i.i.i.i1252, align 8
  %__data_.i4.i.i.i.i.i1253 = getelementptr inbounds %"struct.std::__1::basic_string<char>::__short", ptr %143, i64 0, i32 2
  %cond.i.i.i.i.i1254 = select i1 %tobool.i.not.i.i.i.i.i1251, ptr %__data_.i4.i.i.i.i.i1253, ptr %144
  br label %invoke.cont324

invoke.cont324:                                   ; preds = %cond.true.i.i1255, %invoke.cont321
  %cond.i.i1256 = phi ptr [ %cond.i.i.i.i.i1254, %cond.true.i.i1255 ], [ @.str.40, %invoke.cont321 ]
  invoke void @_ZN7testing8internal12AssertHelperC1ENS_14TestPartResult4TypeEPKciS5_(ptr noundef nonnull align 8 dereferenceable(8) %ref.tmp322, i32 noundef 2, ptr noundef nonnull @.str.3, i32 noundef 57, ptr noundef %cond.i.i1256)
          to label %invoke.cont326 unwind label %lpad323

invoke.cont326:                                   ; preds = %invoke.cont324
  invoke void @_ZNK7testing8internal12AssertHelperaSERKNS_7MessageE(ptr noundef nonnull align 8 dereferenceable(8) %ref.tmp322, ptr noundef nonnull align 8 dereferenceable(8) %ref.tmp319)
          to label %invoke.cont328 unwind label %lpad327

invoke.cont328:                                   ; preds = %invoke.cont326
  call void @_ZN7testing8internal12AssertHelperD1Ev(ptr noundef nonnull align 8 dereferenceable(8) %ref.tmp322) #23
  call void @llvm.lifetime.end.p0(i64 8, ptr nonnull %ref.tmp322) #23
  %145 = load ptr, ptr %ref.tmp319, align 8, !tbaa !20
  store ptr null, ptr %ref.tmp319, align 8, !tbaa !20
  %tobool.not.i.i.i1258 = icmp eq ptr %145, null
  br i1 %tobool.not.i.i.i1258, label %cleanup334, label %_ZNKSt3__114default_deleteINS_18basic_stringstreamIcNS_11char_traitsIcEENS_9allocatorIcEEEEEclB7v170000EPS6_.exit.i.i.i1261

_ZNKSt3__114default_deleteINS_18basic_stringstreamIcNS_11char_traitsIcEENS_9allocatorIcEEEEEclB7v170000EPS6_.exit.i.i.i1261: ; preds = %invoke.cont328
  %vtable.i.i.i.i1259 = load ptr, ptr %145, align 8, !tbaa !5
  %vfn.i.i.i.i1260 = getelementptr inbounds ptr, ptr %vtable.i.i.i.i1259, i64 1
  %146 = load ptr, ptr %vfn.i.i.i.i1260, align 8
  call void %146(ptr noundef nonnull align 8 dereferenceable(128) %145) #23
  br label %cleanup334

lpad320:                                          ; preds = %if.else318
  %147 = landingpad { ptr, i32 }
          cleanup
  br label %ehcleanup332

lpad323:                                          ; preds = %invoke.cont324
  %148 = landingpad { ptr, i32 }
          cleanup
  br label %ehcleanup330

lpad327:                                          ; preds = %invoke.cont326
  %149 = landingpad { ptr, i32 }
          cleanup
  call void @_ZN7testing8internal12AssertHelperD1Ev(ptr noundef nonnull align 8 dereferenceable(8) %ref.tmp322) #23
  br label %ehcleanup330

ehcleanup330:                                     ; preds = %lpad327, %lpad323
  %.pn793 = phi { ptr, i32 } [ %149, %lpad327 ], [ %148, %lpad323 ]
  call void @llvm.lifetime.end.p0(i64 8, ptr nonnull %ref.tmp322) #23
  %150 = load ptr, ptr %ref.tmp319, align 8, !tbaa !20
  store ptr null, ptr %ref.tmp319, align 8, !tbaa !20
  %tobool.not.i.i.i1263 = icmp eq ptr %150, null
  br i1 %tobool.not.i.i.i1263, label %ehcleanup332, label %_ZNKSt3__114default_deleteINS_18basic_stringstreamIcNS_11char_traitsIcEENS_9allocatorIcEEEEEclB7v170000EPS6_.exit.i.i.i1266

_ZNKSt3__114default_deleteINS_18basic_stringstreamIcNS_11char_traitsIcEENS_9allocatorIcEEEEEclB7v170000EPS6_.exit.i.i.i1266: ; preds = %ehcleanup330
  %vtable.i.i.i.i1264 = load ptr, ptr %150, align 8, !tbaa !5
  %vfn.i.i.i.i1265 = getelementptr inbounds ptr, ptr %vtable.i.i.i.i1264, i64 1
  %151 = load ptr, ptr %vfn.i.i.i.i1265, align 8
  call void %151(ptr noundef nonnull align 8 dereferenceable(128) %150) #23
  br label %ehcleanup332

ehcleanup332:                                     ; preds = %_ZNKSt3__114default_deleteINS_18basic_stringstreamIcNS_11char_traitsIcEENS_9allocatorIcEEEEEclB7v170000EPS6_.exit.i.i.i1266, %ehcleanup330, %lpad320
  %.pn793.pn = phi { ptr, i32 } [ %147, %lpad320 ], [ %.pn793, %ehcleanup330 ], [ %.pn793, %_ZNKSt3__114default_deleteINS_18basic_stringstreamIcNS_11char_traitsIcEENS_9allocatorIcEEEEEclB7v170000EPS6_.exit.i.i.i1266 ]
  call void @llvm.lifetime.end.p0(i64 8, ptr nonnull %ref.tmp319) #23
  call void @_ZN7testing15AssertionResultD2Ev(ptr noundef nonnull align 8 dereferenceable(16) %gtest_ar312) #23
  call void @llvm.lifetime.end.p0(i64 16, ptr nonnull %gtest_ar312) #23
  br label %eh.resume

cleanup334:                                       ; preds = %_ZNKSt3__114default_deleteINS_18basic_stringstreamIcNS_11char_traitsIcEENS_9allocatorIcEEEEEclB7v170000EPS6_.exit.i.i.i1261, %invoke.cont328
  call void @llvm.lifetime.end.p0(i64 8, ptr nonnull %ref.tmp319) #23
  call void @_ZN7testing15AssertionResultD2Ev(ptr noundef nonnull align 8 dereferenceable(16) %gtest_ar312) #23
  call void @llvm.lifetime.end.p0(i64 16, ptr nonnull %gtest_ar312) #23
  br label %return

cleanup.cont338:                                  ; preds = %if.end308
  call void @_ZN7testing15AssertionResultD2Ev(ptr noundef nonnull align 8 dereferenceable(16) %gtest_ar312) #23
  call void @llvm.lifetime.end.p0(i64 16, ptr nonnull %gtest_ar312) #23
  call void @llvm.lifetime.start.p0(i64 16, ptr nonnull %gtest_ar340) #23
  call void @llvm.lifetime.start.p0(i64 1, ptr nonnull %ref.tmp341) #23
  %call342 = call noundef zeroext i1 @_ZN9benchmark11BoolFromEnvEPKcb(ptr noundef nonnull @.str.45, i1 noundef zeroext true)
  %frombool343 = zext i1 %call342 to i8
  store i8 %frombool343, ptr %ref.tmp341, align 1, !tbaa !22
  call void @llvm.lifetime.start.p0(i64 1, ptr nonnull %ref.tmp344) #23
  store i8 0, ptr %ref.tmp344, align 1, !tbaa !22
  call void @_ZN7testing8internal8EqHelper7CompareIbbLPv0EEENS_15AssertionResultEPKcS6_RKT_RKT0_(ptr nonnull sret(%"class.testing::AssertionResult") align 8 %gtest_ar340, ptr noundef nonnull @.str.44, ptr noundef nonnull @.str.41, ptr noundef nonnull align 1 dereferenceable(1) %ref.tmp341, ptr noundef nonnull align 1 dereferenceable(1) %ref.tmp344)
  call void @llvm.lifetime.end.p0(i64 1, ptr nonnull %ref.tmp344) #23
  call void @llvm.lifetime.end.p0(i64 1, ptr nonnull %ref.tmp341) #23
  %152 = load i8, ptr %gtest_ar340, align 8, !tbaa !11, !range !18, !noundef !19
  %tobool.i1268.not = icmp eq i8 %152, 0
  br i1 %tobool.i1268.not, label %if.else347, label %if.end362

if.else347:                                       ; preds = %cleanup.cont338
  call void @llvm.lifetime.start.p0(i64 8, ptr nonnull %ref.tmp348) #23
  invoke void @_ZN7testing7MessageC1Ev(ptr noundef nonnull align 8 dereferenceable(8) %ref.tmp348)
          to label %invoke.cont350 unwind label %lpad349

invoke.cont350:                                   ; preds = %if.else347
  call void @llvm.lifetime.start.p0(i64 8, ptr nonnull %ref.tmp351) #23
  %message_.i.i1269 = getelementptr inbounds %"class.testing::AssertionResult", ptr %gtest_ar340, i64 0, i32 1
  %153 = load ptr, ptr %message_.i.i1269, align 8, !tbaa !20
  %cmp.not.i.i1270 = icmp eq ptr %153, null
  br i1 %cmp.not.i.i1270, label %invoke.cont353, label %cond.true.i.i1277

cond.true.i.i1277:                                ; preds = %invoke.cont350
  %bf.load.i.i.i.i.i.i1271 = load i8, ptr %153, align 8
  %bf.clear.i.i.i.i.i.i1272 = and i8 %bf.load.i.i.i.i.i.i1271, 1
  %tobool.i.not.i.i.i.i.i1273 = icmp eq i8 %bf.clear.i.i.i.i.i.i1272, 0
  %__data_.i.i.i.i.i.i1274 = getelementptr inbounds %"struct.std::__1::basic_string<char>::__long", ptr %153, i64 0, i32 2
  %154 = load ptr, ptr %__data_.i.i.i.i.i.i1274, align 8
  %__data_.i4.i.i.i.i.i1275 = getelementptr inbounds %"struct.std::__1::basic_string<char>::__short", ptr %153, i64 0, i32 2
  %cond.i.i.i.i.i1276 = select i1 %tobool.i.not.i.i.i.i.i1273, ptr %__data_.i4.i.i.i.i.i1275, ptr %154
  br label %invoke.cont353

invoke.cont353:                                   ; preds = %cond.true.i.i1277, %invoke.cont350
  %cond.i.i1278 = phi ptr [ %cond.i.i.i.i.i1276, %cond.true.i.i1277 ], [ @.str.40, %invoke.cont350 ]
  invoke void @_ZN7testing8internal12AssertHelperC1ENS_14TestPartResult4TypeEPKciS5_(ptr noundef nonnull align 8 dereferenceable(8) %ref.tmp351, i32 noundef 1, ptr noundef nonnull @.str.3, i32 noundef 58, ptr noundef %cond.i.i1278)
          to label %invoke.cont355 unwind label %lpad352

invoke.cont355:                                   ; preds = %invoke.cont353
  invoke void @_ZNK7testing8internal12AssertHelperaSERKNS_7MessageE(ptr noundef nonnull align 8 dereferenceable(8) %ref.tmp351, ptr noundef nonnull align 8 dereferenceable(8) %ref.tmp348)
          to label %invoke.cont357 unwind label %lpad356

invoke.cont357:                                   ; preds = %invoke.cont355
  call void @_ZN7testing8internal12AssertHelperD1Ev(ptr noundef nonnull align 8 dereferenceable(8) %ref.tmp351) #23
  call void @llvm.lifetime.end.p0(i64 8, ptr nonnull %ref.tmp351) #23
  %155 = load ptr, ptr %ref.tmp348, align 8, !tbaa !20
  store ptr null, ptr %ref.tmp348, align 8, !tbaa !20
  %tobool.not.i.i.i1280 = icmp eq ptr %155, null
  br i1 %tobool.not.i.i.i1280, label %_ZN7testing7MessageD2Ev.exit1284, label %_ZNKSt3__114default_deleteINS_18basic_stringstreamIcNS_11char_traitsIcEENS_9allocatorIcEEEEEclB7v170000EPS6_.exit.i.i.i1283

_ZNKSt3__114default_deleteINS_18basic_stringstreamIcNS_11char_traitsIcEENS_9allocatorIcEEEEEclB7v170000EPS6_.exit.i.i.i1283: ; preds = %invoke.cont357
  %vtable.i.i.i.i1281 = load ptr, ptr %155, align 8, !tbaa !5
  %vfn.i.i.i.i1282 = getelementptr inbounds ptr, ptr %vtable.i.i.i.i1281, i64 1
  %156 = load ptr, ptr %vfn.i.i.i.i1282, align 8
  call void %156(ptr noundef nonnull align 8 dereferenceable(128) %155) #23
  br label %_ZN7testing7MessageD2Ev.exit1284

_ZN7testing7MessageD2Ev.exit1284:                 ; preds = %invoke.cont357, %_ZNKSt3__114default_deleteINS_18basic_stringstreamIcNS_11char_traitsIcEENS_9allocatorIcEEEEEclB7v170000EPS6_.exit.i.i.i1283
  call void @llvm.lifetime.end.p0(i64 8, ptr nonnull %ref.tmp348) #23
  br label %if.end362

lpad349:                                          ; preds = %if.else347
  %157 = landingpad { ptr, i32 }
          cleanup
  br label %ehcleanup361

lpad352:                                          ; preds = %invoke.cont353
  %158 = landingpad { ptr, i32 }
          cleanup
  br label %ehcleanup359

lpad356:                                          ; preds = %invoke.cont355
  %159 = landingpad { ptr, i32 }
          cleanup
  call void @_ZN7testing8internal12AssertHelperD1Ev(ptr noundef nonnull align 8 dereferenceable(8) %ref.tmp351) #23
  br label %ehcleanup359

ehcleanup359:                                     ; preds = %lpad356, %lpad352
  %.pn796 = phi { ptr, i32 } [ %159, %lpad356 ], [ %158, %lpad352 ]
  call void @llvm.lifetime.end.p0(i64 8, ptr nonnull %ref.tmp351) #23
  %160 = load ptr, ptr %ref.tmp348, align 8, !tbaa !20
  store ptr null, ptr %ref.tmp348, align 8, !tbaa !20
  %tobool.not.i.i.i1285 = icmp eq ptr %160, null
  br i1 %tobool.not.i.i.i1285, label %ehcleanup361, label %_ZNKSt3__114default_deleteINS_18basic_stringstreamIcNS_11char_traitsIcEENS_9allocatorIcEEEEEclB7v170000EPS6_.exit.i.i.i1288

_ZNKSt3__114default_deleteINS_18basic_stringstreamIcNS_11char_traitsIcEENS_9allocatorIcEEEEEclB7v170000EPS6_.exit.i.i.i1288: ; preds = %ehcleanup359
  %vtable.i.i.i.i1286 = load ptr, ptr %160, align 8, !tbaa !5
  %vfn.i.i.i.i1287 = getelementptr inbounds ptr, ptr %vtable.i.i.i.i1286, i64 1
  %161 = load ptr, ptr %vfn.i.i.i.i1287, align 8
  call void %161(ptr noundef nonnull align 8 dereferenceable(128) %160) #23
  br label %ehcleanup361

ehcleanup361:                                     ; preds = %_ZNKSt3__114default_deleteINS_18basic_stringstreamIcNS_11char_traitsIcEENS_9allocatorIcEEEEEclB7v170000EPS6_.exit.i.i.i1288, %ehcleanup359, %lpad349
  %.pn796.pn = phi { ptr, i32 } [ %157, %lpad349 ], [ %.pn796, %ehcleanup359 ], [ %.pn796, %_ZNKSt3__114default_deleteINS_18basic_stringstreamIcNS_11char_traitsIcEENS_9allocatorIcEEEEEclB7v170000EPS6_.exit.i.i.i1288 ]
  call void @llvm.lifetime.end.p0(i64 8, ptr nonnull %ref.tmp348) #23
  call void @_ZN7testing15AssertionResultD2Ev(ptr noundef nonnull align 8 dereferenceable(16) %gtest_ar340) #23
  call void @llvm.lifetime.end.p0(i64 16, ptr nonnull %gtest_ar340) #23
  br label %eh.resume

if.end362:                                        ; preds = %cleanup.cont338, %_ZN7testing7MessageD2Ev.exit1284
  call void @_ZN7testing15AssertionResultD2Ev(ptr noundef nonnull align 8 dereferenceable(16) %gtest_ar340) #23
  call void @llvm.lifetime.end.p0(i64 16, ptr nonnull %gtest_ar340) #23
  %call365 = call i32 @unsetenv(ptr noundef nonnull @.str.43) #23
  call void @llvm.lifetime.start.p0(i64 16, ptr nonnull %gtest_ar366) #23
  call void @llvm.lifetime.start.p0(i64 4, ptr nonnull %ref.tmp367) #23
  %call368 = call i32 @setenv(ptr noundef nonnull @.str.43, ptr noundef nonnull @.str.59, i32 noundef 1) #23
  store i32 %call368, ptr %ref.tmp367, align 4, !tbaa !8
  call void @llvm.lifetime.start.p0(i64 4, ptr nonnull %ref.tmp369) #23
  store i32 0, ptr %ref.tmp369, align 4, !tbaa !8
  call void @_ZN7testing8internal8EqHelper7CompareIiiLPv0EEENS_15AssertionResultEPKcS6_RKT_RKT0_(ptr nonnull sret(%"class.testing::AssertionResult") align 8 %gtest_ar366, ptr noundef nonnull @.str.58, ptr noundef nonnull @.str.34, ptr noundef nonnull align 4 dereferenceable(4) %ref.tmp367, ptr noundef nonnull align 4 dereferenceable(4) %ref.tmp369)
  call void @llvm.lifetime.end.p0(i64 4, ptr nonnull %ref.tmp369) #23
  call void @llvm.lifetime.end.p0(i64 4, ptr nonnull %ref.tmp367) #23
  %162 = load i8, ptr %gtest_ar366, align 8, !tbaa !11, !range !18, !noundef !19
  %tobool.i1290.not = icmp eq i8 %162, 0
  br i1 %tobool.i1290.not, label %if.else372, label %cleanup.cont392

if.else372:                                       ; preds = %if.end362
  call void @llvm.lifetime.start.p0(i64 8, ptr nonnull %ref.tmp373) #23
  invoke void @_ZN7testing7MessageC1Ev(ptr noundef nonnull align 8 dereferenceable(8) %ref.tmp373)
          to label %invoke.cont375 unwind label %lpad374

invoke.cont375:                                   ; preds = %if.else372
  call void @llvm.lifetime.start.p0(i64 8, ptr nonnull %ref.tmp376) #23
  %message_.i.i1291 = getelementptr inbounds %"class.testing::AssertionResult", ptr %gtest_ar366, i64 0, i32 1
  %163 = load ptr, ptr %message_.i.i1291, align 8, !tbaa !20
  %cmp.not.i.i1292 = icmp eq ptr %163, null
  br i1 %cmp.not.i.i1292, label %invoke.cont378, label %cond.true.i.i1299

cond.true.i.i1299:                                ; preds = %invoke.cont375
  %bf.load.i.i.i.i.i.i1293 = load i8, ptr %163, align 8
  %bf.clear.i.i.i.i.i.i1294 = and i8 %bf.load.i.i.i.i.i.i1293, 1
  %tobool.i.not.i.i.i.i.i1295 = icmp eq i8 %bf.clear.i.i.i.i.i.i1294, 0
  %__data_.i.i.i.i.i.i1296 = getelementptr inbounds %"struct.std::__1::basic_string<char>::__long", ptr %163, i64 0, i32 2
  %164 = load ptr, ptr %__data_.i.i.i.i.i.i1296, align 8
  %__data_.i4.i.i.i.i.i1297 = getelementptr inbounds %"struct.std::__1::basic_string<char>::__short", ptr %163, i64 0, i32 2
  %cond.i.i.i.i.i1298 = select i1 %tobool.i.not.i.i.i.i.i1295, ptr %__data_.i4.i.i.i.i.i1297, ptr %164
  br label %invoke.cont378

invoke.cont378:                                   ; preds = %cond.true.i.i1299, %invoke.cont375
  %cond.i.i1300 = phi ptr [ %cond.i.i.i.i.i1298, %cond.true.i.i1299 ], [ @.str.40, %invoke.cont375 ]
  invoke void @_ZN7testing8internal12AssertHelperC1ENS_14TestPartResult4TypeEPKciS5_(ptr noundef nonnull align 8 dereferenceable(8) %ref.tmp376, i32 noundef 2, ptr noundef nonnull @.str.3, i32 noundef 61, ptr noundef %cond.i.i1300)
          to label %invoke.cont380 unwind label %lpad377

invoke.cont380:                                   ; preds = %invoke.cont378
  invoke void @_ZNK7testing8internal12AssertHelperaSERKNS_7MessageE(ptr noundef nonnull align 8 dereferenceable(8) %ref.tmp376, ptr noundef nonnull align 8 dereferenceable(8) %ref.tmp373)
          to label %invoke.cont382 unwind label %lpad381

invoke.cont382:                                   ; preds = %invoke.cont380
  call void @_ZN7testing8internal12AssertHelperD1Ev(ptr noundef nonnull align 8 dereferenceable(8) %ref.tmp376) #23
  call void @llvm.lifetime.end.p0(i64 8, ptr nonnull %ref.tmp376) #23
  %165 = load ptr, ptr %ref.tmp373, align 8, !tbaa !20
  store ptr null, ptr %ref.tmp373, align 8, !tbaa !20
  %tobool.not.i.i.i1302 = icmp eq ptr %165, null
  br i1 %tobool.not.i.i.i1302, label %cleanup388, label %_ZNKSt3__114default_deleteINS_18basic_stringstreamIcNS_11char_traitsIcEENS_9allocatorIcEEEEEclB7v170000EPS6_.exit.i.i.i1305

_ZNKSt3__114default_deleteINS_18basic_stringstreamIcNS_11char_traitsIcEENS_9allocatorIcEEEEEclB7v170000EPS6_.exit.i.i.i1305: ; preds = %invoke.cont382
  %vtable.i.i.i.i1303 = load ptr, ptr %165, align 8, !tbaa !5
  %vfn.i.i.i.i1304 = getelementptr inbounds ptr, ptr %vtable.i.i.i.i1303, i64 1
  %166 = load ptr, ptr %vfn.i.i.i.i1304, align 8
  call void %166(ptr noundef nonnull align 8 dereferenceable(128) %165) #23
  br label %cleanup388

lpad374:                                          ; preds = %if.else372
  %167 = landingpad { ptr, i32 }
          cleanup
  br label %ehcleanup386

lpad377:                                          ; preds = %invoke.cont378
  %168 = landingpad { ptr, i32 }
          cleanup
  br label %ehcleanup384

lpad381:                                          ; preds = %invoke.cont380
  %169 = landingpad { ptr, i32 }
          cleanup
  call void @_ZN7testing8internal12AssertHelperD1Ev(ptr noundef nonnull align 8 dereferenceable(8) %ref.tmp376) #23
  br label %ehcleanup384

ehcleanup384:                                     ; preds = %lpad381, %lpad377
  %.pn799 = phi { ptr, i32 } [ %169, %lpad381 ], [ %168, %lpad377 ]
  call void @llvm.lifetime.end.p0(i64 8, ptr nonnull %ref.tmp376) #23
  %170 = load ptr, ptr %ref.tmp373, align 8, !tbaa !20
  store ptr null, ptr %ref.tmp373, align 8, !tbaa !20
  %tobool.not.i.i.i1307 = icmp eq ptr %170, null
  br i1 %tobool.not.i.i.i1307, label %ehcleanup386, label %_ZNKSt3__114default_deleteINS_18basic_stringstreamIcNS_11char_traitsIcEENS_9allocatorIcEEEEEclB7v170000EPS6_.exit.i.i.i1310

_ZNKSt3__114default_deleteINS_18basic_stringstreamIcNS_11char_traitsIcEENS_9allocatorIcEEEEEclB7v170000EPS6_.exit.i.i.i1310: ; preds = %ehcleanup384
  %vtable.i.i.i.i1308 = load ptr, ptr %170, align 8, !tbaa !5
  %vfn.i.i.i.i1309 = getelementptr inbounds ptr, ptr %vtable.i.i.i.i1308, i64 1
  %171 = load ptr, ptr %vfn.i.i.i.i1309, align 8
  call void %171(ptr noundef nonnull align 8 dereferenceable(128) %170) #23
  br label %ehcleanup386

ehcleanup386:                                     ; preds = %_ZNKSt3__114default_deleteINS_18basic_stringstreamIcNS_11char_traitsIcEENS_9allocatorIcEEEEEclB7v170000EPS6_.exit.i.i.i1310, %ehcleanup384, %lpad374
  %.pn799.pn = phi { ptr, i32 } [ %167, %lpad374 ], [ %.pn799, %ehcleanup384 ], [ %.pn799, %_ZNKSt3__114default_deleteINS_18basic_stringstreamIcNS_11char_traitsIcEENS_9allocatorIcEEEEEclB7v170000EPS6_.exit.i.i.i1310 ]
  call void @llvm.lifetime.end.p0(i64 8, ptr nonnull %ref.tmp373) #23
  call void @_ZN7testing15AssertionResultD2Ev(ptr noundef nonnull align 8 dereferenceable(16) %gtest_ar366) #23
  call void @llvm.lifetime.end.p0(i64 16, ptr nonnull %gtest_ar366) #23
  br label %eh.resume

cleanup388:                                       ; preds = %_ZNKSt3__114default_deleteINS_18basic_stringstreamIcNS_11char_traitsIcEENS_9allocatorIcEEEEEclB7v170000EPS6_.exit.i.i.i1305, %invoke.cont382
  call void @llvm.lifetime.end.p0(i64 8, ptr nonnull %ref.tmp373) #23
  call void @_ZN7testing15AssertionResultD2Ev(ptr noundef nonnull align 8 dereferenceable(16) %gtest_ar366) #23
  call void @llvm.lifetime.end.p0(i64 16, ptr nonnull %gtest_ar366) #23
  br label %return

cleanup.cont392:                                  ; preds = %if.end362
  call void @_ZN7testing15AssertionResultD2Ev(ptr noundef nonnull align 8 dereferenceable(16) %gtest_ar366) #23
  call void @llvm.lifetime.end.p0(i64 16, ptr nonnull %gtest_ar366) #23
  call void @llvm.lifetime.start.p0(i64 16, ptr nonnull %gtest_ar394) #23
  call void @llvm.lifetime.start.p0(i64 1, ptr nonnull %ref.tmp395) #23
  %call396 = call noundef zeroext i1 @_ZN9benchmark11BoolFromEnvEPKcb(ptr noundef nonnull @.str.45, i1 noundef zeroext true)
  %frombool397 = zext i1 %call396 to i8
  store i8 %frombool397, ptr %ref.tmp395, align 1, !tbaa !22
  call void @llvm.lifetime.start.p0(i64 1, ptr nonnull %ref.tmp398) #23
  store i8 0, ptr %ref.tmp398, align 1, !tbaa !22
  call void @_ZN7testing8internal8EqHelper7CompareIbbLPv0EEENS_15AssertionResultEPKcS6_RKT_RKT0_(ptr nonnull sret(%"class.testing::AssertionResult") align 8 %gtest_ar394, ptr noundef nonnull @.str.44, ptr noundef nonnull @.str.41, ptr noundef nonnull align 1 dereferenceable(1) %ref.tmp395, ptr noundef nonnull align 1 dereferenceable(1) %ref.tmp398)
  call void @llvm.lifetime.end.p0(i64 1, ptr nonnull %ref.tmp398) #23
  call void @llvm.lifetime.end.p0(i64 1, ptr nonnull %ref.tmp395) #23
  %172 = load i8, ptr %gtest_ar394, align 8, !tbaa !11, !range !18, !noundef !19
  %tobool.i1312.not = icmp eq i8 %172, 0
  br i1 %tobool.i1312.not, label %if.else401, label %if.end416

if.else401:                                       ; preds = %cleanup.cont392
  call void @llvm.lifetime.start.p0(i64 8, ptr nonnull %ref.tmp402) #23
  invoke void @_ZN7testing7MessageC1Ev(ptr noundef nonnull align 8 dereferenceable(8) %ref.tmp402)
          to label %invoke.cont404 unwind label %lpad403

invoke.cont404:                                   ; preds = %if.else401
  call void @llvm.lifetime.start.p0(i64 8, ptr nonnull %ref.tmp405) #23
  %message_.i.i1313 = getelementptr inbounds %"class.testing::AssertionResult", ptr %gtest_ar394, i64 0, i32 1
  %173 = load ptr, ptr %message_.i.i1313, align 8, !tbaa !20
  %cmp.not.i.i1314 = icmp eq ptr %173, null
  br i1 %cmp.not.i.i1314, label %invoke.cont407, label %cond.true.i.i1321

cond.true.i.i1321:                                ; preds = %invoke.cont404
  %bf.load.i.i.i.i.i.i1315 = load i8, ptr %173, align 8
  %bf.clear.i.i.i.i.i.i1316 = and i8 %bf.load.i.i.i.i.i.i1315, 1
  %tobool.i.not.i.i.i.i.i1317 = icmp eq i8 %bf.clear.i.i.i.i.i.i1316, 0
  %__data_.i.i.i.i.i.i1318 = getelementptr inbounds %"struct.std::__1::basic_string<char>::__long", ptr %173, i64 0, i32 2
  %174 = load ptr, ptr %__data_.i.i.i.i.i.i1318, align 8
  %__data_.i4.i.i.i.i.i1319 = getelementptr inbounds %"struct.std::__1::basic_string<char>::__short", ptr %173, i64 0, i32 2
  %cond.i.i.i.i.i1320 = select i1 %tobool.i.not.i.i.i.i.i1317, ptr %__data_.i4.i.i.i.i.i1319, ptr %174
  br label %invoke.cont407

invoke.cont407:                                   ; preds = %cond.true.i.i1321, %invoke.cont404
  %cond.i.i1322 = phi ptr [ %cond.i.i.i.i.i1320, %cond.true.i.i1321 ], [ @.str.40, %invoke.cont404 ]
  invoke void @_ZN7testing8internal12AssertHelperC1ENS_14TestPartResult4TypeEPKciS5_(ptr noundef nonnull align 8 dereferenceable(8) %ref.tmp405, i32 noundef 1, ptr noundef nonnull @.str.3, i32 noundef 62, ptr noundef %cond.i.i1322)
          to label %invoke.cont409 unwind label %lpad406

invoke.cont409:                                   ; preds = %invoke.cont407
  invoke void @_ZNK7testing8internal12AssertHelperaSERKNS_7MessageE(ptr noundef nonnull align 8 dereferenceable(8) %ref.tmp405, ptr noundef nonnull align 8 dereferenceable(8) %ref.tmp402)
          to label %invoke.cont411 unwind label %lpad410

invoke.cont411:                                   ; preds = %invoke.cont409
  call void @_ZN7testing8internal12AssertHelperD1Ev(ptr noundef nonnull align 8 dereferenceable(8) %ref.tmp405) #23
  call void @llvm.lifetime.end.p0(i64 8, ptr nonnull %ref.tmp405) #23
  %175 = load ptr, ptr %ref.tmp402, align 8, !tbaa !20
  store ptr null, ptr %ref.tmp402, align 8, !tbaa !20
  %tobool.not.i.i.i1324 = icmp eq ptr %175, null
  br i1 %tobool.not.i.i.i1324, label %_ZN7testing7MessageD2Ev.exit1328, label %_ZNKSt3__114default_deleteINS_18basic_stringstreamIcNS_11char_traitsIcEENS_9allocatorIcEEEEEclB7v170000EPS6_.exit.i.i.i1327

_ZNKSt3__114default_deleteINS_18basic_stringstreamIcNS_11char_traitsIcEENS_9allocatorIcEEEEEclB7v170000EPS6_.exit.i.i.i1327: ; preds = %invoke.cont411
  %vtable.i.i.i.i1325 = load ptr, ptr %175, align 8, !tbaa !5
  %vfn.i.i.i.i1326 = getelementptr inbounds ptr, ptr %vtable.i.i.i.i1325, i64 1
  %176 = load ptr, ptr %vfn.i.i.i.i1326, align 8
  call void %176(ptr noundef nonnull align 8 dereferenceable(128) %175) #23
  br label %_ZN7testing7MessageD2Ev.exit1328

_ZN7testing7MessageD2Ev.exit1328:                 ; preds = %invoke.cont411, %_ZNKSt3__114default_deleteINS_18basic_stringstreamIcNS_11char_traitsIcEENS_9allocatorIcEEEEEclB7v170000EPS6_.exit.i.i.i1327
  call void @llvm.lifetime.end.p0(i64 8, ptr nonnull %ref.tmp402) #23
  br label %if.end416

lpad403:                                          ; preds = %if.else401
  %177 = landingpad { ptr, i32 }
          cleanup
  br label %ehcleanup415

lpad406:                                          ; preds = %invoke.cont407
  %178 = landingpad { ptr, i32 }
          cleanup
  br label %ehcleanup413

lpad410:                                          ; preds = %invoke.cont409
  %179 = landingpad { ptr, i32 }
          cleanup
  call void @_ZN7testing8internal12AssertHelperD1Ev(ptr noundef nonnull align 8 dereferenceable(8) %ref.tmp405) #23
  br label %ehcleanup413

ehcleanup413:                                     ; preds = %lpad410, %lpad406
  %.pn802 = phi { ptr, i32 } [ %179, %lpad410 ], [ %178, %lpad406 ]
  call void @llvm.lifetime.end.p0(i64 8, ptr nonnull %ref.tmp405) #23
  %180 = load ptr, ptr %ref.tmp402, align 8, !tbaa !20
  store ptr null, ptr %ref.tmp402, align 8, !tbaa !20
  %tobool.not.i.i.i1329 = icmp eq ptr %180, null
  br i1 %tobool.not.i.i.i1329, label %ehcleanup415, label %_ZNKSt3__114default_deleteINS_18basic_stringstreamIcNS_11char_traitsIcEENS_9allocatorIcEEEEEclB7v170000EPS6_.exit.i.i.i1332

_ZNKSt3__114default_deleteINS_18basic_stringstreamIcNS_11char_traitsIcEENS_9allocatorIcEEEEEclB7v170000EPS6_.exit.i.i.i1332: ; preds = %ehcleanup413
  %vtable.i.i.i.i1330 = load ptr, ptr %180, align 8, !tbaa !5
  %vfn.i.i.i.i1331 = getelementptr inbounds ptr, ptr %vtable.i.i.i.i1330, i64 1
  %181 = load ptr, ptr %vfn.i.i.i.i1331, align 8
  call void %181(ptr noundef nonnull align 8 dereferenceable(128) %180) #23
  br label %ehcleanup415

ehcleanup415:                                     ; preds = %_ZNKSt3__114default_deleteINS_18basic_stringstreamIcNS_11char_traitsIcEENS_9allocatorIcEEEEEclB7v170000EPS6_.exit.i.i.i1332, %ehcleanup413, %lpad403
  %.pn802.pn = phi { ptr, i32 } [ %177, %lpad403 ], [ %.pn802, %ehcleanup413 ], [ %.pn802, %_ZNKSt3__114default_deleteINS_18basic_stringstreamIcNS_11char_traitsIcEENS_9allocatorIcEEEEEclB7v170000EPS6_.exit.i.i.i1332 ]
  call void @llvm.lifetime.end.p0(i64 8, ptr nonnull %ref.tmp402) #23
  call void @_ZN7testing15AssertionResultD2Ev(ptr noundef nonnull align 8 dereferenceable(16) %gtest_ar394) #23
  call void @llvm.lifetime.end.p0(i64 16, ptr nonnull %gtest_ar394) #23
  br label %eh.resume

if.end416:                                        ; preds = %cleanup.cont392, %_ZN7testing7MessageD2Ev.exit1328
  call void @_ZN7testing15AssertionResultD2Ev(ptr noundef nonnull align 8 dereferenceable(16) %gtest_ar394) #23
  call void @llvm.lifetime.end.p0(i64 16, ptr nonnull %gtest_ar394) #23
  %call419 = call i32 @unsetenv(ptr noundef nonnull @.str.43) #23
  call void @llvm.lifetime.start.p0(i64 16, ptr nonnull %gtest_ar420) #23
  call void @llvm.lifetime.start.p0(i64 4, ptr nonnull %ref.tmp421) #23
  %call422 = call i32 @setenv(ptr noundef nonnull @.str.43, ptr noundef nonnull @.str.61, i32 noundef 1) #23
  store i32 %call422, ptr %ref.tmp421, align 4, !tbaa !8
  call void @llvm.lifetime.start.p0(i64 4, ptr nonnull %ref.tmp423) #23
  store i32 0, ptr %ref.tmp423, align 4, !tbaa !8
  call void @_ZN7testing8internal8EqHelper7CompareIiiLPv0EEENS_15AssertionResultEPKcS6_RKT_RKT0_(ptr nonnull sret(%"class.testing::AssertionResult") align 8 %gtest_ar420, ptr noundef nonnull @.str.60, ptr noundef nonnull @.str.34, ptr noundef nonnull align 4 dereferenceable(4) %ref.tmp421, ptr noundef nonnull align 4 dereferenceable(4) %ref.tmp423)
  call void @llvm.lifetime.end.p0(i64 4, ptr nonnull %ref.tmp423) #23
  call void @llvm.lifetime.end.p0(i64 4, ptr nonnull %ref.tmp421) #23
  %182 = load i8, ptr %gtest_ar420, align 8, !tbaa !11, !range !18, !noundef !19
  %tobool.i1334.not = icmp eq i8 %182, 0
  br i1 %tobool.i1334.not, label %if.else426, label %cleanup.cont446

if.else426:                                       ; preds = %if.end416
  call void @llvm.lifetime.start.p0(i64 8, ptr nonnull %ref.tmp427) #23
  invoke void @_ZN7testing7MessageC1Ev(ptr noundef nonnull align 8 dereferenceable(8) %ref.tmp427)
          to label %invoke.cont429 unwind label %lpad428

invoke.cont429:                                   ; preds = %if.else426
  call void @llvm.lifetime.start.p0(i64 8, ptr nonnull %ref.tmp430) #23
  %message_.i.i1335 = getelementptr inbounds %"class.testing::AssertionResult", ptr %gtest_ar420, i64 0, i32 1
  %183 = load ptr, ptr %message_.i.i1335, align 8, !tbaa !20
  %cmp.not.i.i1336 = icmp eq ptr %183, null
  br i1 %cmp.not.i.i1336, label %invoke.cont432, label %cond.true.i.i1343

cond.true.i.i1343:                                ; preds = %invoke.cont429
  %bf.load.i.i.i.i.i.i1337 = load i8, ptr %183, align 8
  %bf.clear.i.i.i.i.i.i1338 = and i8 %bf.load.i.i.i.i.i.i1337, 1
  %tobool.i.not.i.i.i.i.i1339 = icmp eq i8 %bf.clear.i.i.i.i.i.i1338, 0
  %__data_.i.i.i.i.i.i1340 = getelementptr inbounds %"struct.std::__1::basic_string<char>::__long", ptr %183, i64 0, i32 2
  %184 = load ptr, ptr %__data_.i.i.i.i.i.i1340, align 8
  %__data_.i4.i.i.i.i.i1341 = getelementptr inbounds %"struct.std::__1::basic_string<char>::__short", ptr %183, i64 0, i32 2
  %cond.i.i.i.i.i1342 = select i1 %tobool.i.not.i.i.i.i.i1339, ptr %__data_.i4.i.i.i.i.i1341, ptr %184
  br label %invoke.cont432

invoke.cont432:                                   ; preds = %cond.true.i.i1343, %invoke.cont429
  %cond.i.i1344 = phi ptr [ %cond.i.i.i.i.i1342, %cond.true.i.i1343 ], [ @.str.40, %invoke.cont429 ]
  invoke void @_ZN7testing8internal12AssertHelperC1ENS_14TestPartResult4TypeEPKciS5_(ptr noundef nonnull align 8 dereferenceable(8) %ref.tmp430, i32 noundef 2, ptr noundef nonnull @.str.3, i32 noundef 65, ptr noundef %cond.i.i1344)
          to label %invoke.cont434 unwind label %lpad431

invoke.cont434:                                   ; preds = %invoke.cont432
  invoke void @_ZNK7testing8internal12AssertHelperaSERKNS_7MessageE(ptr noundef nonnull align 8 dereferenceable(8) %ref.tmp430, ptr noundef nonnull align 8 dereferenceable(8) %ref.tmp427)
          to label %invoke.cont436 unwind label %lpad435

invoke.cont436:                                   ; preds = %invoke.cont434
  call void @_ZN7testing8internal12AssertHelperD1Ev(ptr noundef nonnull align 8 dereferenceable(8) %ref.tmp430) #23
  call void @llvm.lifetime.end.p0(i64 8, ptr nonnull %ref.tmp430) #23
  %185 = load ptr, ptr %ref.tmp427, align 8, !tbaa !20
  store ptr null, ptr %ref.tmp427, align 8, !tbaa !20
  %tobool.not.i.i.i1346 = icmp eq ptr %185, null
  br i1 %tobool.not.i.i.i1346, label %cleanup442, label %_ZNKSt3__114default_deleteINS_18basic_stringstreamIcNS_11char_traitsIcEENS_9allocatorIcEEEEEclB7v170000EPS6_.exit.i.i.i1349

_ZNKSt3__114default_deleteINS_18basic_stringstreamIcNS_11char_traitsIcEENS_9allocatorIcEEEEEclB7v170000EPS6_.exit.i.i.i1349: ; preds = %invoke.cont436
  %vtable.i.i.i.i1347 = load ptr, ptr %185, align 8, !tbaa !5
  %vfn.i.i.i.i1348 = getelementptr inbounds ptr, ptr %vtable.i.i.i.i1347, i64 1
  %186 = load ptr, ptr %vfn.i.i.i.i1348, align 8
  call void %186(ptr noundef nonnull align 8 dereferenceable(128) %185) #23
  br label %cleanup442

lpad428:                                          ; preds = %if.else426
  %187 = landingpad { ptr, i32 }
          cleanup
  br label %ehcleanup440

lpad431:                                          ; preds = %invoke.cont432
  %188 = landingpad { ptr, i32 }
          cleanup
  br label %ehcleanup438

lpad435:                                          ; preds = %invoke.cont434
  %189 = landingpad { ptr, i32 }
          cleanup
  call void @_ZN7testing8internal12AssertHelperD1Ev(ptr noundef nonnull align 8 dereferenceable(8) %ref.tmp430) #23
  br label %ehcleanup438

ehcleanup438:                                     ; preds = %lpad435, %lpad431
  %.pn805 = phi { ptr, i32 } [ %189, %lpad435 ], [ %188, %lpad431 ]
  call void @llvm.lifetime.end.p0(i64 8, ptr nonnull %ref.tmp430) #23
  %190 = load ptr, ptr %ref.tmp427, align 8, !tbaa !20
  store ptr null, ptr %ref.tmp427, align 8, !tbaa !20
  %tobool.not.i.i.i1351 = icmp eq ptr %190, null
  br i1 %tobool.not.i.i.i1351, label %ehcleanup440, label %_ZNKSt3__114default_deleteINS_18basic_stringstreamIcNS_11char_traitsIcEENS_9allocatorIcEEEEEclB7v170000EPS6_.exit.i.i.i1354

_ZNKSt3__114default_deleteINS_18basic_stringstreamIcNS_11char_traitsIcEENS_9allocatorIcEEEEEclB7v170000EPS6_.exit.i.i.i1354: ; preds = %ehcleanup438
  %vtable.i.i.i.i1352 = load ptr, ptr %190, align 8, !tbaa !5
  %vfn.i.i.i.i1353 = getelementptr inbounds ptr, ptr %vtable.i.i.i.i1352, i64 1
  %191 = load ptr, ptr %vfn.i.i.i.i1353, align 8
  call void %191(ptr noundef nonnull align 8 dereferenceable(128) %190) #23
  br label %ehcleanup440

ehcleanup440:                                     ; preds = %_ZNKSt3__114default_deleteINS_18basic_stringstreamIcNS_11char_traitsIcEENS_9allocatorIcEEEEEclB7v170000EPS6_.exit.i.i.i1354, %ehcleanup438, %lpad428
  %.pn805.pn = phi { ptr, i32 } [ %187, %lpad428 ], [ %.pn805, %ehcleanup438 ], [ %.pn805, %_ZNKSt3__114default_deleteINS_18basic_stringstreamIcNS_11char_traitsIcEENS_9allocatorIcEEEEEclB7v170000EPS6_.exit.i.i.i1354 ]
  call void @llvm.lifetime.end.p0(i64 8, ptr nonnull %ref.tmp427) #23
  call void @_ZN7testing15AssertionResultD2Ev(ptr noundef nonnull align 8 dereferenceable(16) %gtest_ar420) #23
  call void @llvm.lifetime.end.p0(i64 16, ptr nonnull %gtest_ar420) #23
  br label %eh.resume

cleanup442:                                       ; preds = %_ZNKSt3__114default_deleteINS_18basic_stringstreamIcNS_11char_traitsIcEENS_9allocatorIcEEEEEclB7v170000EPS6_.exit.i.i.i1349, %invoke.cont436
  call void @llvm.lifetime.end.p0(i64 8, ptr nonnull %ref.tmp427) #23
  call void @_ZN7testing15AssertionResultD2Ev(ptr noundef nonnull align 8 dereferenceable(16) %gtest_ar420) #23
  call void @llvm.lifetime.end.p0(i64 16, ptr nonnull %gtest_ar420) #23
  br label %return

cleanup.cont446:                                  ; preds = %if.end416
  call void @_ZN7testing15AssertionResultD2Ev(ptr noundef nonnull align 8 dereferenceable(16) %gtest_ar420) #23
  call void @llvm.lifetime.end.p0(i64 16, ptr nonnull %gtest_ar420) #23
  call void @llvm.lifetime.start.p0(i64 16, ptr nonnull %gtest_ar448) #23
  call void @llvm.lifetime.start.p0(i64 1, ptr nonnull %ref.tmp449) #23
  %call450 = call noundef zeroext i1 @_ZN9benchmark11BoolFromEnvEPKcb(ptr noundef nonnull @.str.45, i1 noundef zeroext true)
  %frombool451 = zext i1 %call450 to i8
  store i8 %frombool451, ptr %ref.tmp449, align 1, !tbaa !22
  call void @llvm.lifetime.start.p0(i64 1, ptr nonnull %ref.tmp452) #23
  store i8 0, ptr %ref.tmp452, align 1, !tbaa !22
  call void @_ZN7testing8internal8EqHelper7CompareIbbLPv0EEENS_15AssertionResultEPKcS6_RKT_RKT0_(ptr nonnull sret(%"class.testing::AssertionResult") align 8 %gtest_ar448, ptr noundef nonnull @.str.44, ptr noundef nonnull @.str.41, ptr noundef nonnull align 1 dereferenceable(1) %ref.tmp449, ptr noundef nonnull align 1 dereferenceable(1) %ref.tmp452)
  call void @llvm.lifetime.end.p0(i64 1, ptr nonnull %ref.tmp452) #23
  call void @llvm.lifetime.end.p0(i64 1, ptr nonnull %ref.tmp449) #23
  %192 = load i8, ptr %gtest_ar448, align 8, !tbaa !11, !range !18, !noundef !19
  %tobool.i1356.not = icmp eq i8 %192, 0
  br i1 %tobool.i1356.not, label %if.else455, label %if.end470

if.else455:                                       ; preds = %cleanup.cont446
  call void @llvm.lifetime.start.p0(i64 8, ptr nonnull %ref.tmp456) #23
  invoke void @_ZN7testing7MessageC1Ev(ptr noundef nonnull align 8 dereferenceable(8) %ref.tmp456)
          to label %invoke.cont458 unwind label %lpad457

invoke.cont458:                                   ; preds = %if.else455
  call void @llvm.lifetime.start.p0(i64 8, ptr nonnull %ref.tmp459) #23
  %message_.i.i1357 = getelementptr inbounds %"class.testing::AssertionResult", ptr %gtest_ar448, i64 0, i32 1
  %193 = load ptr, ptr %message_.i.i1357, align 8, !tbaa !20
  %cmp.not.i.i1358 = icmp eq ptr %193, null
  br i1 %cmp.not.i.i1358, label %invoke.cont461, label %cond.true.i.i1365

cond.true.i.i1365:                                ; preds = %invoke.cont458
  %bf.load.i.i.i.i.i.i1359 = load i8, ptr %193, align 8
  %bf.clear.i.i.i.i.i.i1360 = and i8 %bf.load.i.i.i.i.i.i1359, 1
  %tobool.i.not.i.i.i.i.i1361 = icmp eq i8 %bf.clear.i.i.i.i.i.i1360, 0
  %__data_.i.i.i.i.i.i1362 = getelementptr inbounds %"struct.std::__1::basic_string<char>::__long", ptr %193, i64 0, i32 2
  %194 = load ptr, ptr %__data_.i.i.i.i.i.i1362, align 8
  %__data_.i4.i.i.i.i.i1363 = getelementptr inbounds %"struct.std::__1::basic_string<char>::__short", ptr %193, i64 0, i32 2
  %cond.i.i.i.i.i1364 = select i1 %tobool.i.not.i.i.i.i.i1361, ptr %__data_.i4.i.i.i.i.i1363, ptr %194
  br label %invoke.cont461

invoke.cont461:                                   ; preds = %cond.true.i.i1365, %invoke.cont458
  %cond.i.i1366 = phi ptr [ %cond.i.i.i.i.i1364, %cond.true.i.i1365 ], [ @.str.40, %invoke.cont458 ]
  invoke void @_ZN7testing8internal12AssertHelperC1ENS_14TestPartResult4TypeEPKciS5_(ptr noundef nonnull align 8 dereferenceable(8) %ref.tmp459, i32 noundef 1, ptr noundef nonnull @.str.3, i32 noundef 66, ptr noundef %cond.i.i1366)
          to label %invoke.cont463 unwind label %lpad460

invoke.cont463:                                   ; preds = %invoke.cont461
  invoke void @_ZNK7testing8internal12AssertHelperaSERKNS_7MessageE(ptr noundef nonnull align 8 dereferenceable(8) %ref.tmp459, ptr noundef nonnull align 8 dereferenceable(8) %ref.tmp456)
          to label %invoke.cont465 unwind label %lpad464

invoke.cont465:                                   ; preds = %invoke.cont463
  call void @_ZN7testing8internal12AssertHelperD1Ev(ptr noundef nonnull align 8 dereferenceable(8) %ref.tmp459) #23
  call void @llvm.lifetime.end.p0(i64 8, ptr nonnull %ref.tmp459) #23
  %195 = load ptr, ptr %ref.tmp456, align 8, !tbaa !20
  store ptr null, ptr %ref.tmp456, align 8, !tbaa !20
  %tobool.not.i.i.i1368 = icmp eq ptr %195, null
  br i1 %tobool.not.i.i.i1368, label %_ZN7testing7MessageD2Ev.exit1372, label %_ZNKSt3__114default_deleteINS_18basic_stringstreamIcNS_11char_traitsIcEENS_9allocatorIcEEEEEclB7v170000EPS6_.exit.i.i.i1371

_ZNKSt3__114default_deleteINS_18basic_stringstreamIcNS_11char_traitsIcEENS_9allocatorIcEEEEEclB7v170000EPS6_.exit.i.i.i1371: ; preds = %invoke.cont465
  %vtable.i.i.i.i1369 = load ptr, ptr %195, align 8, !tbaa !5
  %vfn.i.i.i.i1370 = getelementptr inbounds ptr, ptr %vtable.i.i.i.i1369, i64 1
  %196 = load ptr, ptr %vfn.i.i.i.i1370, align 8
  call void %196(ptr noundef nonnull align 8 dereferenceable(128) %195) #23
  br label %_ZN7testing7MessageD2Ev.exit1372

_ZN7testing7MessageD2Ev.exit1372:                 ; preds = %invoke.cont465, %_ZNKSt3__114default_deleteINS_18basic_stringstreamIcNS_11char_traitsIcEENS_9allocatorIcEEEEEclB7v170000EPS6_.exit.i.i.i1371
  call void @llvm.lifetime.end.p0(i64 8, ptr nonnull %ref.tmp456) #23
  br label %if.end470

lpad457:                                          ; preds = %if.else455
  %197 = landingpad { ptr, i32 }
          cleanup
  br label %ehcleanup469

lpad460:                                          ; preds = %invoke.cont461
  %198 = landingpad { ptr, i32 }
          cleanup
  br label %ehcleanup467

lpad464:                                          ; preds = %invoke.cont463
  %199 = landingpad { ptr, i32 }
          cleanup
  call void @_ZN7testing8internal12AssertHelperD1Ev(ptr noundef nonnull align 8 dereferenceable(8) %ref.tmp459) #23
  br label %ehcleanup467

ehcleanup467:                                     ; preds = %lpad464, %lpad460
  %.pn808 = phi { ptr, i32 } [ %199, %lpad464 ], [ %198, %lpad460 ]
  call void @llvm.lifetime.end.p0(i64 8, ptr nonnull %ref.tmp459) #23
  %200 = load ptr, ptr %ref.tmp456, align 8, !tbaa !20
  store ptr null, ptr %ref.tmp456, align 8, !tbaa !20
  %tobool.not.i.i.i1373 = icmp eq ptr %200, null
  br i1 %tobool.not.i.i.i1373, label %ehcleanup469, label %_ZNKSt3__114default_deleteINS_18basic_stringstreamIcNS_11char_traitsIcEENS_9allocatorIcEEEEEclB7v170000EPS6_.exit.i.i.i1376

_ZNKSt3__114default_deleteINS_18basic_stringstreamIcNS_11char_traitsIcEENS_9allocatorIcEEEEEclB7v170000EPS6_.exit.i.i.i1376: ; preds = %ehcleanup467
  %vtable.i.i.i.i1374 = load ptr, ptr %200, align 8, !tbaa !5
  %vfn.i.i.i.i1375 = getelementptr inbounds ptr, ptr %vtable.i.i.i.i1374, i64 1
  %201 = load ptr, ptr %vfn.i.i.i.i1375, align 8
  call void %201(ptr noundef nonnull align 8 dereferenceable(128) %200) #23
  br label %ehcleanup469

ehcleanup469:                                     ; preds = %_ZNKSt3__114default_deleteINS_18basic_stringstreamIcNS_11char_traitsIcEENS_9allocatorIcEEEEEclB7v170000EPS6_.exit.i.i.i1376, %ehcleanup467, %lpad457
  %.pn808.pn = phi { ptr, i32 } [ %197, %lpad457 ], [ %.pn808, %ehcleanup467 ], [ %.pn808, %_ZNKSt3__114default_deleteINS_18basic_stringstreamIcNS_11char_traitsIcEENS_9allocatorIcEEEEEclB7v170000EPS6_.exit.i.i.i1376 ]
  call void @llvm.lifetime.end.p0(i64 8, ptr nonnull %ref.tmp456) #23
  call void @_ZN7testing15AssertionResultD2Ev(ptr noundef nonnull align 8 dereferenceable(16) %gtest_ar448) #23
  call void @llvm.lifetime.end.p0(i64 16, ptr nonnull %gtest_ar448) #23
  br label %eh.resume

if.end470:                                        ; preds = %cleanup.cont446, %_ZN7testing7MessageD2Ev.exit1372
  call void @_ZN7testing15AssertionResultD2Ev(ptr noundef nonnull align 8 dereferenceable(16) %gtest_ar448) #23
  call void @llvm.lifetime.end.p0(i64 16, ptr nonnull %gtest_ar448) #23
  %call473 = call i32 @unsetenv(ptr noundef nonnull @.str.43) #23
  call void @llvm.lifetime.start.p0(i64 16, ptr nonnull %gtest_ar474) #23
  call void @llvm.lifetime.start.p0(i64 4, ptr nonnull %ref.tmp475) #23
  %call476 = call i32 @setenv(ptr noundef nonnull @.str.43, ptr noundef nonnull @.str.5, i32 noundef 1) #23
  store i32 %call476, ptr %ref.tmp475, align 4, !tbaa !8
  call void @llvm.lifetime.start.p0(i64 4, ptr nonnull %ref.tmp477) #23
  store i32 0, ptr %ref.tmp477, align 4, !tbaa !8
  call void @_ZN7testing8internal8EqHelper7CompareIiiLPv0EEENS_15AssertionResultEPKcS6_RKT_RKT0_(ptr nonnull sret(%"class.testing::AssertionResult") align 8 %gtest_ar474, ptr noundef nonnull @.str.62, ptr noundef nonnull @.str.34, ptr noundef nonnull align 4 dereferenceable(4) %ref.tmp475, ptr noundef nonnull align 4 dereferenceable(4) %ref.tmp477)
  call void @llvm.lifetime.end.p0(i64 4, ptr nonnull %ref.tmp477) #23
  call void @llvm.lifetime.end.p0(i64 4, ptr nonnull %ref.tmp475) #23
  %202 = load i8, ptr %gtest_ar474, align 8, !tbaa !11, !range !18, !noundef !19
  %tobool.i1378.not = icmp eq i8 %202, 0
  br i1 %tobool.i1378.not, label %if.else480, label %cleanup.cont500

if.else480:                                       ; preds = %if.end470
  call void @llvm.lifetime.start.p0(i64 8, ptr nonnull %ref.tmp481) #23
  invoke void @_ZN7testing7MessageC1Ev(ptr noundef nonnull align 8 dereferenceable(8) %ref.tmp481)
          to label %invoke.cont483 unwind label %lpad482

invoke.cont483:                                   ; preds = %if.else480
  call void @llvm.lifetime.start.p0(i64 8, ptr nonnull %ref.tmp484) #23
  %message_.i.i1379 = getelementptr inbounds %"class.testing::AssertionResult", ptr %gtest_ar474, i64 0, i32 1
  %203 = load ptr, ptr %message_.i.i1379, align 8, !tbaa !20
  %cmp.not.i.i1380 = icmp eq ptr %203, null
  br i1 %cmp.not.i.i1380, label %invoke.cont486, label %cond.true.i.i1387

cond.true.i.i1387:                                ; preds = %invoke.cont483
  %bf.load.i.i.i.i.i.i1381 = load i8, ptr %203, align 8
  %bf.clear.i.i.i.i.i.i1382 = and i8 %bf.load.i.i.i.i.i.i1381, 1
  %tobool.i.not.i.i.i.i.i1383 = icmp eq i8 %bf.clear.i.i.i.i.i.i1382, 0
  %__data_.i.i.i.i.i.i1384 = getelementptr inbounds %"struct.std::__1::basic_string<char>::__long", ptr %203, i64 0, i32 2
  %204 = load ptr, ptr %__data_.i.i.i.i.i.i1384, align 8
  %__data_.i4.i.i.i.i.i1385 = getelementptr inbounds %"struct.std::__1::basic_string<char>::__short", ptr %203, i64 0, i32 2
  %cond.i.i.i.i.i1386 = select i1 %tobool.i.not.i.i.i.i.i1383, ptr %__data_.i4.i.i.i.i.i1385, ptr %204
  br label %invoke.cont486

invoke.cont486:                                   ; preds = %cond.true.i.i1387, %invoke.cont483
  %cond.i.i1388 = phi ptr [ %cond.i.i.i.i.i1386, %cond.true.i.i1387 ], [ @.str.40, %invoke.cont483 ]
  invoke void @_ZN7testing8internal12AssertHelperC1ENS_14TestPartResult4TypeEPKciS5_(ptr noundef nonnull align 8 dereferenceable(8) %ref.tmp484, i32 noundef 2, ptr noundef nonnull @.str.3, i32 noundef 69, ptr noundef %cond.i.i1388)
          to label %invoke.cont488 unwind label %lpad485

invoke.cont488:                                   ; preds = %invoke.cont486
  invoke void @_ZNK7testing8internal12AssertHelperaSERKNS_7MessageE(ptr noundef nonnull align 8 dereferenceable(8) %ref.tmp484, ptr noundef nonnull align 8 dereferenceable(8) %ref.tmp481)
          to label %invoke.cont490 unwind label %lpad489

invoke.cont490:                                   ; preds = %invoke.cont488
  call void @_ZN7testing8internal12AssertHelperD1Ev(ptr noundef nonnull align 8 dereferenceable(8) %ref.tmp484) #23
  call void @llvm.lifetime.end.p0(i64 8, ptr nonnull %ref.tmp484) #23
  %205 = load ptr, ptr %ref.tmp481, align 8, !tbaa !20
  store ptr null, ptr %ref.tmp481, align 8, !tbaa !20
  %tobool.not.i.i.i1390 = icmp eq ptr %205, null
  br i1 %tobool.not.i.i.i1390, label %cleanup496, label %_ZNKSt3__114default_deleteINS_18basic_stringstreamIcNS_11char_traitsIcEENS_9allocatorIcEEEEEclB7v170000EPS6_.exit.i.i.i1393

_ZNKSt3__114default_deleteINS_18basic_stringstreamIcNS_11char_traitsIcEENS_9allocatorIcEEEEEclB7v170000EPS6_.exit.i.i.i1393: ; preds = %invoke.cont490
  %vtable.i.i.i.i1391 = load ptr, ptr %205, align 8, !tbaa !5
  %vfn.i.i.i.i1392 = getelementptr inbounds ptr, ptr %vtable.i.i.i.i1391, i64 1
  %206 = load ptr, ptr %vfn.i.i.i.i1392, align 8
  call void %206(ptr noundef nonnull align 8 dereferenceable(128) %205) #23
  br label %cleanup496

lpad482:                                          ; preds = %if.else480
  %207 = landingpad { ptr, i32 }
          cleanup
  br label %ehcleanup494

lpad485:                                          ; preds = %invoke.cont486
  %208 = landingpad { ptr, i32 }
          cleanup
  br label %ehcleanup492

lpad489:                                          ; preds = %invoke.cont488
  %209 = landingpad { ptr, i32 }
          cleanup
  call void @_ZN7testing8internal12AssertHelperD1Ev(ptr noundef nonnull align 8 dereferenceable(8) %ref.tmp484) #23
  br label %ehcleanup492

ehcleanup492:                                     ; preds = %lpad489, %lpad485
  %.pn811 = phi { ptr, i32 } [ %209, %lpad489 ], [ %208, %lpad485 ]
  call void @llvm.lifetime.end.p0(i64 8, ptr nonnull %ref.tmp484) #23
  %210 = load ptr, ptr %ref.tmp481, align 8, !tbaa !20
  store ptr null, ptr %ref.tmp481, align 8, !tbaa !20
  %tobool.not.i.i.i1395 = icmp eq ptr %210, null
  br i1 %tobool.not.i.i.i1395, label %ehcleanup494, label %_ZNKSt3__114default_deleteINS_18basic_stringstreamIcNS_11char_traitsIcEENS_9allocatorIcEEEEEclB7v170000EPS6_.exit.i.i.i1398

_ZNKSt3__114default_deleteINS_18basic_stringstreamIcNS_11char_traitsIcEENS_9allocatorIcEEEEEclB7v170000EPS6_.exit.i.i.i1398: ; preds = %ehcleanup492
  %vtable.i.i.i.i1396 = load ptr, ptr %210, align 8, !tbaa !5
  %vfn.i.i.i.i1397 = getelementptr inbounds ptr, ptr %vtable.i.i.i.i1396, i64 1
  %211 = load ptr, ptr %vfn.i.i.i.i1397, align 8
  call void %211(ptr noundef nonnull align 8 dereferenceable(128) %210) #23
  br label %ehcleanup494

ehcleanup494:                                     ; preds = %_ZNKSt3__114default_deleteINS_18basic_stringstreamIcNS_11char_traitsIcEENS_9allocatorIcEEEEEclB7v170000EPS6_.exit.i.i.i1398, %ehcleanup492, %lpad482
  %.pn811.pn = phi { ptr, i32 } [ %207, %lpad482 ], [ %.pn811, %ehcleanup492 ], [ %.pn811, %_ZNKSt3__114default_deleteINS_18basic_stringstreamIcNS_11char_traitsIcEENS_9allocatorIcEEEEEclB7v170000EPS6_.exit.i.i.i1398 ]
  call void @llvm.lifetime.end.p0(i64 8, ptr nonnull %ref.tmp481) #23
  call void @_ZN7testing15AssertionResultD2Ev(ptr noundef nonnull align 8 dereferenceable(16) %gtest_ar474) #23
  call void @llvm.lifetime.end.p0(i64 16, ptr nonnull %gtest_ar474) #23
  br label %eh.resume

cleanup496:                                       ; preds = %_ZNKSt3__114default_deleteINS_18basic_stringstreamIcNS_11char_traitsIcEENS_9allocatorIcEEEEEclB7v170000EPS6_.exit.i.i.i1393, %invoke.cont490
  call void @llvm.lifetime.end.p0(i64 8, ptr nonnull %ref.tmp481) #23
  call void @_ZN7testing15AssertionResultD2Ev(ptr noundef nonnull align 8 dereferenceable(16) %gtest_ar474) #23
  call void @llvm.lifetime.end.p0(i64 16, ptr nonnull %gtest_ar474) #23
  br label %return

cleanup.cont500:                                  ; preds = %if.end470
  call void @_ZN7testing15AssertionResultD2Ev(ptr noundef nonnull align 8 dereferenceable(16) %gtest_ar474) #23
  call void @llvm.lifetime.end.p0(i64 16, ptr nonnull %gtest_ar474) #23
  call void @llvm.lifetime.start.p0(i64 16, ptr nonnull %gtest_ar502) #23
  call void @llvm.lifetime.start.p0(i64 1, ptr nonnull %ref.tmp503) #23
  %call504 = call noundef zeroext i1 @_ZN9benchmark11BoolFromEnvEPKcb(ptr noundef nonnull @.str.45, i1 noundef zeroext true)
  %frombool505 = zext i1 %call504 to i8
  store i8 %frombool505, ptr %ref.tmp503, align 1, !tbaa !22
  call void @llvm.lifetime.start.p0(i64 1, ptr nonnull %ref.tmp506) #23
  store i8 0, ptr %ref.tmp506, align 1, !tbaa !22
  call void @_ZN7testing8internal8EqHelper7CompareIbbLPv0EEENS_15AssertionResultEPKcS6_RKT_RKT0_(ptr nonnull sret(%"class.testing::AssertionResult") align 8 %gtest_ar502, ptr noundef nonnull @.str.44, ptr noundef nonnull @.str.41, ptr noundef nonnull align 1 dereferenceable(1) %ref.tmp503, ptr noundef nonnull align 1 dereferenceable(1) %ref.tmp506)
  call void @llvm.lifetime.end.p0(i64 1, ptr nonnull %ref.tmp506) #23
  call void @llvm.lifetime.end.p0(i64 1, ptr nonnull %ref.tmp503) #23
  %212 = load i8, ptr %gtest_ar502, align 8, !tbaa !11, !range !18, !noundef !19
  %tobool.i1400.not = icmp eq i8 %212, 0
  br i1 %tobool.i1400.not, label %if.else509, label %if.end524

if.else509:                                       ; preds = %cleanup.cont500
  call void @llvm.lifetime.start.p0(i64 8, ptr nonnull %ref.tmp510) #23
  invoke void @_ZN7testing7MessageC1Ev(ptr noundef nonnull align 8 dereferenceable(8) %ref.tmp510)
          to label %invoke.cont512 unwind label %lpad511

invoke.cont512:                                   ; preds = %if.else509
  call void @llvm.lifetime.start.p0(i64 8, ptr nonnull %ref.tmp513) #23
  %message_.i.i1401 = getelementptr inbounds %"class.testing::AssertionResult", ptr %gtest_ar502, i64 0, i32 1
  %213 = load ptr, ptr %message_.i.i1401, align 8, !tbaa !20
  %cmp.not.i.i1402 = icmp eq ptr %213, null
  br i1 %cmp.not.i.i1402, label %invoke.cont515, label %cond.true.i.i1409

cond.true.i.i1409:                                ; preds = %invoke.cont512
  %bf.load.i.i.i.i.i.i1403 = load i8, ptr %213, align 8
  %bf.clear.i.i.i.i.i.i1404 = and i8 %bf.load.i.i.i.i.i.i1403, 1
  %tobool.i.not.i.i.i.i.i1405 = icmp eq i8 %bf.clear.i.i.i.i.i.i1404, 0
  %__data_.i.i.i.i.i.i1406 = getelementptr inbounds %"struct.std::__1::basic_string<char>::__long", ptr %213, i64 0, i32 2
  %214 = load ptr, ptr %__data_.i.i.i.i.i.i1406, align 8
  %__data_.i4.i.i.i.i.i1407 = getelementptr inbounds %"struct.std::__1::basic_string<char>::__short", ptr %213, i64 0, i32 2
  %cond.i.i.i.i.i1408 = select i1 %tobool.i.not.i.i.i.i.i1405, ptr %__data_.i4.i.i.i.i.i1407, ptr %214
  br label %invoke.cont515

invoke.cont515:                                   ; preds = %cond.true.i.i1409, %invoke.cont512
  %cond.i.i1410 = phi ptr [ %cond.i.i.i.i.i1408, %cond.true.i.i1409 ], [ @.str.40, %invoke.cont512 ]
  invoke void @_ZN7testing8internal12AssertHelperC1ENS_14TestPartResult4TypeEPKciS5_(ptr noundef nonnull align 8 dereferenceable(8) %ref.tmp513, i32 noundef 1, ptr noundef nonnull @.str.3, i32 noundef 70, ptr noundef %cond.i.i1410)
          to label %invoke.cont517 unwind label %lpad514

invoke.cont517:                                   ; preds = %invoke.cont515
  invoke void @_ZNK7testing8internal12AssertHelperaSERKNS_7MessageE(ptr noundef nonnull align 8 dereferenceable(8) %ref.tmp513, ptr noundef nonnull align 8 dereferenceable(8) %ref.tmp510)
          to label %invoke.cont519 unwind label %lpad518

invoke.cont519:                                   ; preds = %invoke.cont517
  call void @_ZN7testing8internal12AssertHelperD1Ev(ptr noundef nonnull align 8 dereferenceable(8) %ref.tmp513) #23
  call void @llvm.lifetime.end.p0(i64 8, ptr nonnull %ref.tmp513) #23
  %215 = load ptr, ptr %ref.tmp510, align 8, !tbaa !20
  store ptr null, ptr %ref.tmp510, align 8, !tbaa !20
  %tobool.not.i.i.i1412 = icmp eq ptr %215, null
  br i1 %tobool.not.i.i.i1412, label %_ZN7testing7MessageD2Ev.exit1416, label %_ZNKSt3__114default_deleteINS_18basic_stringstreamIcNS_11char_traitsIcEENS_9allocatorIcEEEEEclB7v170000EPS6_.exit.i.i.i1415

_ZNKSt3__114default_deleteINS_18basic_stringstreamIcNS_11char_traitsIcEENS_9allocatorIcEEEEEclB7v170000EPS6_.exit.i.i.i1415: ; preds = %invoke.cont519
  %vtable.i.i.i.i1413 = load ptr, ptr %215, align 8, !tbaa !5
  %vfn.i.i.i.i1414 = getelementptr inbounds ptr, ptr %vtable.i.i.i.i1413, i64 1
  %216 = load ptr, ptr %vfn.i.i.i.i1414, align 8
  call void %216(ptr noundef nonnull align 8 dereferenceable(128) %215) #23
  br label %_ZN7testing7MessageD2Ev.exit1416

_ZN7testing7MessageD2Ev.exit1416:                 ; preds = %invoke.cont519, %_ZNKSt3__114default_deleteINS_18basic_stringstreamIcNS_11char_traitsIcEENS_9allocatorIcEEEEEclB7v170000EPS6_.exit.i.i.i1415
  call void @llvm.lifetime.end.p0(i64 8, ptr nonnull %ref.tmp510) #23
  br label %if.end524

lpad511:                                          ; preds = %if.else509
  %217 = landingpad { ptr, i32 }
          cleanup
  br label %ehcleanup523

lpad514:                                          ; preds = %invoke.cont515
  %218 = landingpad { ptr, i32 }
          cleanup
  br label %ehcleanup521

lpad518:                                          ; preds = %invoke.cont517
  %219 = landingpad { ptr, i32 }
          cleanup
  call void @_ZN7testing8internal12AssertHelperD1Ev(ptr noundef nonnull align 8 dereferenceable(8) %ref.tmp513) #23
  br label %ehcleanup521

ehcleanup521:                                     ; preds = %lpad518, %lpad514
  %.pn814 = phi { ptr, i32 } [ %219, %lpad518 ], [ %218, %lpad514 ]
  call void @llvm.lifetime.end.p0(i64 8, ptr nonnull %ref.tmp513) #23
  %220 = load ptr, ptr %ref.tmp510, align 8, !tbaa !20
  store ptr null, ptr %ref.tmp510, align 8, !tbaa !20
  %tobool.not.i.i.i1417 = icmp eq ptr %220, null
  br i1 %tobool.not.i.i.i1417, label %ehcleanup523, label %_ZNKSt3__114default_deleteINS_18basic_stringstreamIcNS_11char_traitsIcEENS_9allocatorIcEEEEEclB7v170000EPS6_.exit.i.i.i1420

_ZNKSt3__114default_deleteINS_18basic_stringstreamIcNS_11char_traitsIcEENS_9allocatorIcEEEEEclB7v170000EPS6_.exit.i.i.i1420: ; preds = %ehcleanup521
  %vtable.i.i.i.i1418 = load ptr, ptr %220, align 8, !tbaa !5
  %vfn.i.i.i.i1419 = getelementptr inbounds ptr, ptr %vtable.i.i.i.i1418, i64 1
  %221 = load ptr, ptr %vfn.i.i.i.i1419, align 8
  call void %221(ptr noundef nonnull align 8 dereferenceable(128) %220) #23
  br label %ehcleanup523

ehcleanup523:                                     ; preds = %_ZNKSt3__114default_deleteINS_18basic_stringstreamIcNS_11char_traitsIcEENS_9allocatorIcEEEEEclB7v170000EPS6_.exit.i.i.i1420, %ehcleanup521, %lpad511
  %.pn814.pn = phi { ptr, i32 } [ %217, %lpad511 ], [ %.pn814, %ehcleanup521 ], [ %.pn814, %_ZNKSt3__114default_deleteINS_18basic_stringstreamIcNS_11char_traitsIcEENS_9allocatorIcEEEEEclB7v170000EPS6_.exit.i.i.i1420 ]
  call void @llvm.lifetime.end.p0(i64 8, ptr nonnull %ref.tmp510) #23
  call void @_ZN7testing15AssertionResultD2Ev(ptr noundef nonnull align 8 dereferenceable(16) %gtest_ar502) #23
  call void @llvm.lifetime.end.p0(i64 16, ptr nonnull %gtest_ar502) #23
  br label %eh.resume

if.end524:                                        ; preds = %cleanup.cont500, %_ZN7testing7MessageD2Ev.exit1416
  call void @_ZN7testing15AssertionResultD2Ev(ptr noundef nonnull align 8 dereferenceable(16) %gtest_ar502) #23
  call void @llvm.lifetime.end.p0(i64 16, ptr nonnull %gtest_ar502) #23
  %call527 = call i32 @unsetenv(ptr noundef nonnull @.str.43) #23
  call void @llvm.lifetime.start.p0(i64 16, ptr nonnull %gtest_ar528) #23
  call void @llvm.lifetime.start.p0(i64 4, ptr nonnull %ref.tmp529) #23
  %call530 = call i32 @setenv(ptr noundef nonnull @.str.43, ptr noundef nonnull @.str.41, i32 noundef 1) #23
  store i32 %call530, ptr %ref.tmp529, align 4, !tbaa !8
  call void @llvm.lifetime.start.p0(i64 4, ptr nonnull %ref.tmp531) #23
  store i32 0, ptr %ref.tmp531, align 4, !tbaa !8
  call void @_ZN7testing8internal8EqHelper7CompareIiiLPv0EEENS_15AssertionResultEPKcS6_RKT_RKT0_(ptr nonnull sret(%"class.testing::AssertionResult") align 8 %gtest_ar528, ptr noundef nonnull @.str.63, ptr noundef nonnull @.str.34, ptr noundef nonnull align 4 dereferenceable(4) %ref.tmp529, ptr noundef nonnull align 4 dereferenceable(4) %ref.tmp531)
  call void @llvm.lifetime.end.p0(i64 4, ptr nonnull %ref.tmp531) #23
  call void @llvm.lifetime.end.p0(i64 4, ptr nonnull %ref.tmp529) #23
  %222 = load i8, ptr %gtest_ar528, align 8, !tbaa !11, !range !18, !noundef !19
  %tobool.i1422.not = icmp eq i8 %222, 0
  br i1 %tobool.i1422.not, label %if.else534, label %cleanup.cont554

if.else534:                                       ; preds = %if.end524
  call void @llvm.lifetime.start.p0(i64 8, ptr nonnull %ref.tmp535) #23
  invoke void @_ZN7testing7MessageC1Ev(ptr noundef nonnull align 8 dereferenceable(8) %ref.tmp535)
          to label %invoke.cont537 unwind label %lpad536

invoke.cont537:                                   ; preds = %if.else534
  call void @llvm.lifetime.start.p0(i64 8, ptr nonnull %ref.tmp538) #23
  %message_.i.i1423 = getelementptr inbounds %"class.testing::AssertionResult", ptr %gtest_ar528, i64 0, i32 1
  %223 = load ptr, ptr %message_.i.i1423, align 8, !tbaa !20
  %cmp.not.i.i1424 = icmp eq ptr %223, null
  br i1 %cmp.not.i.i1424, label %invoke.cont540, label %cond.true.i.i1431

cond.true.i.i1431:                                ; preds = %invoke.cont537
  %bf.load.i.i.i.i.i.i1425 = load i8, ptr %223, align 8
  %bf.clear.i.i.i.i.i.i1426 = and i8 %bf.load.i.i.i.i.i.i1425, 1
  %tobool.i.not.i.i.i.i.i1427 = icmp eq i8 %bf.clear.i.i.i.i.i.i1426, 0
  %__data_.i.i.i.i.i.i1428 = getelementptr inbounds %"struct.std::__1::basic_string<char>::__long", ptr %223, i64 0, i32 2
  %224 = load ptr, ptr %__data_.i.i.i.i.i.i1428, align 8
  %__data_.i4.i.i.i.i.i1429 = getelementptr inbounds %"struct.std::__1::basic_string<char>::__short", ptr %223, i64 0, i32 2
  %cond.i.i.i.i.i1430 = select i1 %tobool.i.not.i.i.i.i.i1427, ptr %__data_.i4.i.i.i.i.i1429, ptr %224
  br label %invoke.cont540

invoke.cont540:                                   ; preds = %cond.true.i.i1431, %invoke.cont537
  %cond.i.i1432 = phi ptr [ %cond.i.i.i.i.i1430, %cond.true.i.i1431 ], [ @.str.40, %invoke.cont537 ]
  invoke void @_ZN7testing8internal12AssertHelperC1ENS_14TestPartResult4TypeEPKciS5_(ptr noundef nonnull align 8 dereferenceable(8) %ref.tmp538, i32 noundef 2, ptr noundef nonnull @.str.3, i32 noundef 73, ptr noundef %cond.i.i1432)
          to label %invoke.cont542 unwind label %lpad539

invoke.cont542:                                   ; preds = %invoke.cont540
  invoke void @_ZNK7testing8internal12AssertHelperaSERKNS_7MessageE(ptr noundef nonnull align 8 dereferenceable(8) %ref.tmp538, ptr noundef nonnull align 8 dereferenceable(8) %ref.tmp535)
          to label %invoke.cont544 unwind label %lpad543

invoke.cont544:                                   ; preds = %invoke.cont542
  call void @_ZN7testing8internal12AssertHelperD1Ev(ptr noundef nonnull align 8 dereferenceable(8) %ref.tmp538) #23
  call void @llvm.lifetime.end.p0(i64 8, ptr nonnull %ref.tmp538) #23
  %225 = load ptr, ptr %ref.tmp535, align 8, !tbaa !20
  store ptr null, ptr %ref.tmp535, align 8, !tbaa !20
  %tobool.not.i.i.i1434 = icmp eq ptr %225, null
  br i1 %tobool.not.i.i.i1434, label %cleanup550, label %_ZNKSt3__114default_deleteINS_18basic_stringstreamIcNS_11char_traitsIcEENS_9allocatorIcEEEEEclB7v170000EPS6_.exit.i.i.i1437

_ZNKSt3__114default_deleteINS_18basic_stringstreamIcNS_11char_traitsIcEENS_9allocatorIcEEEEEclB7v170000EPS6_.exit.i.i.i1437: ; preds = %invoke.cont544
  %vtable.i.i.i.i1435 = load ptr, ptr %225, align 8, !tbaa !5
  %vfn.i.i.i.i1436 = getelementptr inbounds ptr, ptr %vtable.i.i.i.i1435, i64 1
  %226 = load ptr, ptr %vfn.i.i.i.i1436, align 8
  call void %226(ptr noundef nonnull align 8 dereferenceable(128) %225) #23
  br label %cleanup550

lpad536:                                          ; preds = %if.else534
  %227 = landingpad { ptr, i32 }
          cleanup
  br label %ehcleanup548

lpad539:                                          ; preds = %invoke.cont540
  %228 = landingpad { ptr, i32 }
          cleanup
  br label %ehcleanup546

lpad543:                                          ; preds = %invoke.cont542
  %229 = landingpad { ptr, i32 }
          cleanup
  call void @_ZN7testing8internal12AssertHelperD1Ev(ptr noundef nonnull align 8 dereferenceable(8) %ref.tmp538) #23
  br label %ehcleanup546

ehcleanup546:                                     ; preds = %lpad543, %lpad539
  %.pn817 = phi { ptr, i32 } [ %229, %lpad543 ], [ %228, %lpad539 ]
  call void @llvm.lifetime.end.p0(i64 8, ptr nonnull %ref.tmp538) #23
  %230 = load ptr, ptr %ref.tmp535, align 8, !tbaa !20
  store ptr null, ptr %ref.tmp535, align 8, !tbaa !20
  %tobool.not.i.i.i1439 = icmp eq ptr %230, null
  br i1 %tobool.not.i.i.i1439, label %ehcleanup548, label %_ZNKSt3__114default_deleteINS_18basic_stringstreamIcNS_11char_traitsIcEENS_9allocatorIcEEEEEclB7v170000EPS6_.exit.i.i.i1442

_ZNKSt3__114default_deleteINS_18basic_stringstreamIcNS_11char_traitsIcEENS_9allocatorIcEEEEEclB7v170000EPS6_.exit.i.i.i1442: ; preds = %ehcleanup546
  %vtable.i.i.i.i1440 = load ptr, ptr %230, align 8, !tbaa !5
  %vfn.i.i.i.i1441 = getelementptr inbounds ptr, ptr %vtable.i.i.i.i1440, i64 1
  %231 = load ptr, ptr %vfn.i.i.i.i1441, align 8
  call void %231(ptr noundef nonnull align 8 dereferenceable(128) %230) #23
  br label %ehcleanup548

ehcleanup548:                                     ; preds = %_ZNKSt3__114default_deleteINS_18basic_stringstreamIcNS_11char_traitsIcEENS_9allocatorIcEEEEEclB7v170000EPS6_.exit.i.i.i1442, %ehcleanup546, %lpad536
  %.pn817.pn = phi { ptr, i32 } [ %227, %lpad536 ], [ %.pn817, %ehcleanup546 ], [ %.pn817, %_ZNKSt3__114default_deleteINS_18basic_stringstreamIcNS_11char_traitsIcEENS_9allocatorIcEEEEEclB7v170000EPS6_.exit.i.i.i1442 ]
  call void @llvm.lifetime.end.p0(i64 8, ptr nonnull %ref.tmp535) #23
  call void @_ZN7testing15AssertionResultD2Ev(ptr noundef nonnull align 8 dereferenceable(16) %gtest_ar528) #23
  call void @llvm.lifetime.end.p0(i64 16, ptr nonnull %gtest_ar528) #23
  br label %eh.resume

cleanup550:                                       ; preds = %_ZNKSt3__114default_deleteINS_18basic_stringstreamIcNS_11char_traitsIcEENS_9allocatorIcEEEEEclB7v170000EPS6_.exit.i.i.i1437, %invoke.cont544
  call void @llvm.lifetime.end.p0(i64 8, ptr nonnull %ref.tmp535) #23
  call void @_ZN7testing15AssertionResultD2Ev(ptr noundef nonnull align 8 dereferenceable(16) %gtest_ar528) #23
  call void @llvm.lifetime.end.p0(i64 16, ptr nonnull %gtest_ar528) #23
  br label %return

cleanup.cont554:                                  ; preds = %if.end524
  call void @_ZN7testing15AssertionResultD2Ev(ptr noundef nonnull align 8 dereferenceable(16) %gtest_ar528) #23
  call void @llvm.lifetime.end.p0(i64 16, ptr nonnull %gtest_ar528) #23
  call void @llvm.lifetime.start.p0(i64 16, ptr nonnull %gtest_ar556) #23
  call void @llvm.lifetime.start.p0(i64 1, ptr nonnull %ref.tmp557) #23
  %call558 = call noundef zeroext i1 @_ZN9benchmark11BoolFromEnvEPKcb(ptr noundef nonnull @.str.45, i1 noundef zeroext true)
  %frombool559 = zext i1 %call558 to i8
  store i8 %frombool559, ptr %ref.tmp557, align 1, !tbaa !22
  call void @llvm.lifetime.start.p0(i64 1, ptr nonnull %ref.tmp560) #23
  store i8 0, ptr %ref.tmp560, align 1, !tbaa !22
  call void @_ZN7testing8internal8EqHelper7CompareIbbLPv0EEENS_15AssertionResultEPKcS6_RKT_RKT0_(ptr nonnull sret(%"class.testing::AssertionResult") align 8 %gtest_ar556, ptr noundef nonnull @.str.44, ptr noundef nonnull @.str.41, ptr noundef nonnull align 1 dereferenceable(1) %ref.tmp557, ptr noundef nonnull align 1 dereferenceable(1) %ref.tmp560)
  call void @llvm.lifetime.end.p0(i64 1, ptr nonnull %ref.tmp560) #23
  call void @llvm.lifetime.end.p0(i64 1, ptr nonnull %ref.tmp557) #23
  %232 = load i8, ptr %gtest_ar556, align 8, !tbaa !11, !range !18, !noundef !19
  %tobool.i1444.not = icmp eq i8 %232, 0
  br i1 %tobool.i1444.not, label %if.else563, label %if.end578

if.else563:                                       ; preds = %cleanup.cont554
  call void @llvm.lifetime.start.p0(i64 8, ptr nonnull %ref.tmp564) #23
  invoke void @_ZN7testing7MessageC1Ev(ptr noundef nonnull align 8 dereferenceable(8) %ref.tmp564)
          to label %invoke.cont566 unwind label %lpad565

invoke.cont566:                                   ; preds = %if.else563
  call void @llvm.lifetime.start.p0(i64 8, ptr nonnull %ref.tmp567) #23
  %message_.i.i1445 = getelementptr inbounds %"class.testing::AssertionResult", ptr %gtest_ar556, i64 0, i32 1
  %233 = load ptr, ptr %message_.i.i1445, align 8, !tbaa !20
  %cmp.not.i.i1446 = icmp eq ptr %233, null
  br i1 %cmp.not.i.i1446, label %invoke.cont569, label %cond.true.i.i1453

cond.true.i.i1453:                                ; preds = %invoke.cont566
  %bf.load.i.i.i.i.i.i1447 = load i8, ptr %233, align 8
  %bf.clear.i.i.i.i.i.i1448 = and i8 %bf.load.i.i.i.i.i.i1447, 1
  %tobool.i.not.i.i.i.i.i1449 = icmp eq i8 %bf.clear.i.i.i.i.i.i1448, 0
  %__data_.i.i.i.i.i.i1450 = getelementptr inbounds %"struct.std::__1::basic_string<char>::__long", ptr %233, i64 0, i32 2
  %234 = load ptr, ptr %__data_.i.i.i.i.i.i1450, align 8
  %__data_.i4.i.i.i.i.i1451 = getelementptr inbounds %"struct.std::__1::basic_string<char>::__short", ptr %233, i64 0, i32 2
  %cond.i.i.i.i.i1452 = select i1 %tobool.i.not.i.i.i.i.i1449, ptr %__data_.i4.i.i.i.i.i1451, ptr %234
  br label %invoke.cont569

invoke.cont569:                                   ; preds = %cond.true.i.i1453, %invoke.cont566
  %cond.i.i1454 = phi ptr [ %cond.i.i.i.i.i1452, %cond.true.i.i1453 ], [ @.str.40, %invoke.cont566 ]
  invoke void @_ZN7testing8internal12AssertHelperC1ENS_14TestPartResult4TypeEPKciS5_(ptr noundef nonnull align 8 dereferenceable(8) %ref.tmp567, i32 noundef 1, ptr noundef nonnull @.str.3, i32 noundef 74, ptr noundef %cond.i.i1454)
          to label %invoke.cont571 unwind label %lpad568

invoke.cont571:                                   ; preds = %invoke.cont569
  invoke void @_ZNK7testing8internal12AssertHelperaSERKNS_7MessageE(ptr noundef nonnull align 8 dereferenceable(8) %ref.tmp567, ptr noundef nonnull align 8 dereferenceable(8) %ref.tmp564)
          to label %invoke.cont573 unwind label %lpad572

invoke.cont573:                                   ; preds = %invoke.cont571
  call void @_ZN7testing8internal12AssertHelperD1Ev(ptr noundef nonnull align 8 dereferenceable(8) %ref.tmp567) #23
  call void @llvm.lifetime.end.p0(i64 8, ptr nonnull %ref.tmp567) #23
  %235 = load ptr, ptr %ref.tmp564, align 8, !tbaa !20
  store ptr null, ptr %ref.tmp564, align 8, !tbaa !20
  %tobool.not.i.i.i1456 = icmp eq ptr %235, null
  br i1 %tobool.not.i.i.i1456, label %_ZN7testing7MessageD2Ev.exit1460, label %_ZNKSt3__114default_deleteINS_18basic_stringstreamIcNS_11char_traitsIcEENS_9allocatorIcEEEEEclB7v170000EPS6_.exit.i.i.i1459

_ZNKSt3__114default_deleteINS_18basic_stringstreamIcNS_11char_traitsIcEENS_9allocatorIcEEEEEclB7v170000EPS6_.exit.i.i.i1459: ; preds = %invoke.cont573
  %vtable.i.i.i.i1457 = load ptr, ptr %235, align 8, !tbaa !5
  %vfn.i.i.i.i1458 = getelementptr inbounds ptr, ptr %vtable.i.i.i.i1457, i64 1
  %236 = load ptr, ptr %vfn.i.i.i.i1458, align 8
  call void %236(ptr noundef nonnull align 8 dereferenceable(128) %235) #23
  br label %_ZN7testing7MessageD2Ev.exit1460

_ZN7testing7MessageD2Ev.exit1460:                 ; preds = %invoke.cont573, %_ZNKSt3__114default_deleteINS_18basic_stringstreamIcNS_11char_traitsIcEENS_9allocatorIcEEEEEclB7v170000EPS6_.exit.i.i.i1459
  call void @llvm.lifetime.end.p0(i64 8, ptr nonnull %ref.tmp564) #23
  br label %if.end578

lpad565:                                          ; preds = %if.else563
  %237 = landingpad { ptr, i32 }
          cleanup
  br label %ehcleanup577

lpad568:                                          ; preds = %invoke.cont569
  %238 = landingpad { ptr, i32 }
          cleanup
  br label %ehcleanup575

lpad572:                                          ; preds = %invoke.cont571
  %239 = landingpad { ptr, i32 }
          cleanup
  call void @_ZN7testing8internal12AssertHelperD1Ev(ptr noundef nonnull align 8 dereferenceable(8) %ref.tmp567) #23
  br label %ehcleanup575

ehcleanup575:                                     ; preds = %lpad572, %lpad568
  %.pn820 = phi { ptr, i32 } [ %239, %lpad572 ], [ %238, %lpad568 ]
  call void @llvm.lifetime.end.p0(i64 8, ptr nonnull %ref.tmp567) #23
  %240 = load ptr, ptr %ref.tmp564, align 8, !tbaa !20
  store ptr null, ptr %ref.tmp564, align 8, !tbaa !20
  %tobool.not.i.i.i1461 = icmp eq ptr %240, null
  br i1 %tobool.not.i.i.i1461, label %ehcleanup577, label %_ZNKSt3__114default_deleteINS_18basic_stringstreamIcNS_11char_traitsIcEENS_9allocatorIcEEEEEclB7v170000EPS6_.exit.i.i.i1464

_ZNKSt3__114default_deleteINS_18basic_stringstreamIcNS_11char_traitsIcEENS_9allocatorIcEEEEEclB7v170000EPS6_.exit.i.i.i1464: ; preds = %ehcleanup575
  %vtable.i.i.i.i1462 = load ptr, ptr %240, align 8, !tbaa !5
  %vfn.i.i.i.i1463 = getelementptr inbounds ptr, ptr %vtable.i.i.i.i1462, i64 1
  %241 = load ptr, ptr %vfn.i.i.i.i1463, align 8
  call void %241(ptr noundef nonnull align 8 dereferenceable(128) %240) #23
  br label %ehcleanup577

ehcleanup577:                                     ; preds = %_ZNKSt3__114default_deleteINS_18basic_stringstreamIcNS_11char_traitsIcEENS_9allocatorIcEEEEEclB7v170000EPS6_.exit.i.i.i1464, %ehcleanup575, %lpad565
  %.pn820.pn = phi { ptr, i32 } [ %237, %lpad565 ], [ %.pn820, %ehcleanup575 ], [ %.pn820, %_ZNKSt3__114default_deleteINS_18basic_stringstreamIcNS_11char_traitsIcEENS_9allocatorIcEEEEEclB7v170000EPS6_.exit.i.i.i1464 ]
  call void @llvm.lifetime.end.p0(i64 8, ptr nonnull %ref.tmp564) #23
  call void @_ZN7testing15AssertionResultD2Ev(ptr noundef nonnull align 8 dereferenceable(16) %gtest_ar556) #23
  call void @llvm.lifetime.end.p0(i64 16, ptr nonnull %gtest_ar556) #23
  br label %eh.resume

if.end578:                                        ; preds = %cleanup.cont554, %_ZN7testing7MessageD2Ev.exit1460
  call void @_ZN7testing15AssertionResultD2Ev(ptr noundef nonnull align 8 dereferenceable(16) %gtest_ar556) #23
  call void @llvm.lifetime.end.p0(i64 16, ptr nonnull %gtest_ar556) #23
  %call581 = call i32 @unsetenv(ptr noundef nonnull @.str.43) #23
  call void @llvm.lifetime.start.p0(i64 16, ptr nonnull %gtest_ar582) #23
  call void @llvm.lifetime.start.p0(i64 4, ptr nonnull %ref.tmp583) #23
  %call584 = call i32 @setenv(ptr noundef nonnull @.str.43, ptr noundef nonnull @.str.65, i32 noundef 1) #23
  store i32 %call584, ptr %ref.tmp583, align 4, !tbaa !8
  call void @llvm.lifetime.start.p0(i64 4, ptr nonnull %ref.tmp585) #23
  store i32 0, ptr %ref.tmp585, align 4, !tbaa !8
  call void @_ZN7testing8internal8EqHelper7CompareIiiLPv0EEENS_15AssertionResultEPKcS6_RKT_RKT0_(ptr nonnull sret(%"class.testing::AssertionResult") align 8 %gtest_ar582, ptr noundef nonnull @.str.64, ptr noundef nonnull @.str.34, ptr noundef nonnull align 4 dereferenceable(4) %ref.tmp583, ptr noundef nonnull align 4 dereferenceable(4) %ref.tmp585)
  call void @llvm.lifetime.end.p0(i64 4, ptr nonnull %ref.tmp585) #23
  call void @llvm.lifetime.end.p0(i64 4, ptr nonnull %ref.tmp583) #23
  %242 = load i8, ptr %gtest_ar582, align 8, !tbaa !11, !range !18, !noundef !19
  %tobool.i1466.not = icmp eq i8 %242, 0
  br i1 %tobool.i1466.not, label %if.else588, label %cleanup.cont608

if.else588:                                       ; preds = %if.end578
  call void @llvm.lifetime.start.p0(i64 8, ptr nonnull %ref.tmp589) #23
  invoke void @_ZN7testing7MessageC1Ev(ptr noundef nonnull align 8 dereferenceable(8) %ref.tmp589)
          to label %invoke.cont591 unwind label %lpad590

invoke.cont591:                                   ; preds = %if.else588
  call void @llvm.lifetime.start.p0(i64 8, ptr nonnull %ref.tmp592) #23
  %message_.i.i1467 = getelementptr inbounds %"class.testing::AssertionResult", ptr %gtest_ar582, i64 0, i32 1
  %243 = load ptr, ptr %message_.i.i1467, align 8, !tbaa !20
  %cmp.not.i.i1468 = icmp eq ptr %243, null
  br i1 %cmp.not.i.i1468, label %invoke.cont594, label %cond.true.i.i1475

cond.true.i.i1475:                                ; preds = %invoke.cont591
  %bf.load.i.i.i.i.i.i1469 = load i8, ptr %243, align 8
  %bf.clear.i.i.i.i.i.i1470 = and i8 %bf.load.i.i.i.i.i.i1469, 1
  %tobool.i.not.i.i.i.i.i1471 = icmp eq i8 %bf.clear.i.i.i.i.i.i1470, 0
  %__data_.i.i.i.i.i.i1472 = getelementptr inbounds %"struct.std::__1::basic_string<char>::__long", ptr %243, i64 0, i32 2
  %244 = load ptr, ptr %__data_.i.i.i.i.i.i1472, align 8
  %__data_.i4.i.i.i.i.i1473 = getelementptr inbounds %"struct.std::__1::basic_string<char>::__short", ptr %243, i64 0, i32 2
  %cond.i.i.i.i.i1474 = select i1 %tobool.i.not.i.i.i.i.i1471, ptr %__data_.i4.i.i.i.i.i1473, ptr %244
  br label %invoke.cont594

invoke.cont594:                                   ; preds = %cond.true.i.i1475, %invoke.cont591
  %cond.i.i1476 = phi ptr [ %cond.i.i.i.i.i1474, %cond.true.i.i1475 ], [ @.str.40, %invoke.cont591 ]
  invoke void @_ZN7testing8internal12AssertHelperC1ENS_14TestPartResult4TypeEPKciS5_(ptr noundef nonnull align 8 dereferenceable(8) %ref.tmp592, i32 noundef 2, ptr noundef nonnull @.str.3, i32 noundef 77, ptr noundef %cond.i.i1476)
          to label %invoke.cont596 unwind label %lpad593

invoke.cont596:                                   ; preds = %invoke.cont594
  invoke void @_ZNK7testing8internal12AssertHelperaSERKNS_7MessageE(ptr noundef nonnull align 8 dereferenceable(8) %ref.tmp592, ptr noundef nonnull align 8 dereferenceable(8) %ref.tmp589)
          to label %invoke.cont598 unwind label %lpad597

invoke.cont598:                                   ; preds = %invoke.cont596
  call void @_ZN7testing8internal12AssertHelperD1Ev(ptr noundef nonnull align 8 dereferenceable(8) %ref.tmp592) #23
  call void @llvm.lifetime.end.p0(i64 8, ptr nonnull %ref.tmp592) #23
  %245 = load ptr, ptr %ref.tmp589, align 8, !tbaa !20
  store ptr null, ptr %ref.tmp589, align 8, !tbaa !20
  %tobool.not.i.i.i1478 = icmp eq ptr %245, null
  br i1 %tobool.not.i.i.i1478, label %cleanup604, label %_ZNKSt3__114default_deleteINS_18basic_stringstreamIcNS_11char_traitsIcEENS_9allocatorIcEEEEEclB7v170000EPS6_.exit.i.i.i1481

_ZNKSt3__114default_deleteINS_18basic_stringstreamIcNS_11char_traitsIcEENS_9allocatorIcEEEEEclB7v170000EPS6_.exit.i.i.i1481: ; preds = %invoke.cont598
  %vtable.i.i.i.i1479 = load ptr, ptr %245, align 8, !tbaa !5
  %vfn.i.i.i.i1480 = getelementptr inbounds ptr, ptr %vtable.i.i.i.i1479, i64 1
  %246 = load ptr, ptr %vfn.i.i.i.i1480, align 8
  call void %246(ptr noundef nonnull align 8 dereferenceable(128) %245) #23
  br label %cleanup604

lpad590:                                          ; preds = %if.else588
  %247 = landingpad { ptr, i32 }
          cleanup
  br label %ehcleanup602

lpad593:                                          ; preds = %invoke.cont594
  %248 = landingpad { ptr, i32 }
          cleanup
  br label %ehcleanup600

lpad597:                                          ; preds = %invoke.cont596
  %249 = landingpad { ptr, i32 }
          cleanup
  call void @_ZN7testing8internal12AssertHelperD1Ev(ptr noundef nonnull align 8 dereferenceable(8) %ref.tmp592) #23
  br label %ehcleanup600

ehcleanup600:                                     ; preds = %lpad597, %lpad593
  %.pn823 = phi { ptr, i32 } [ %249, %lpad597 ], [ %248, %lpad593 ]
  call void @llvm.lifetime.end.p0(i64 8, ptr nonnull %ref.tmp592) #23
  %250 = load ptr, ptr %ref.tmp589, align 8, !tbaa !20
  store ptr null, ptr %ref.tmp589, align 8, !tbaa !20
  %tobool.not.i.i.i1483 = icmp eq ptr %250, null
  br i1 %tobool.not.i.i.i1483, label %ehcleanup602, label %_ZNKSt3__114default_deleteINS_18basic_stringstreamIcNS_11char_traitsIcEENS_9allocatorIcEEEEEclB7v170000EPS6_.exit.i.i.i1486

_ZNKSt3__114default_deleteINS_18basic_stringstreamIcNS_11char_traitsIcEENS_9allocatorIcEEEEEclB7v170000EPS6_.exit.i.i.i1486: ; preds = %ehcleanup600
  %vtable.i.i.i.i1484 = load ptr, ptr %250, align 8, !tbaa !5
  %vfn.i.i.i.i1485 = getelementptr inbounds ptr, ptr %vtable.i.i.i.i1484, i64 1
  %251 = load ptr, ptr %vfn.i.i.i.i1485, align 8
  call void %251(ptr noundef nonnull align 8 dereferenceable(128) %250) #23
  br label %ehcleanup602

ehcleanup602:                                     ; preds = %_ZNKSt3__114default_deleteINS_18basic_stringstreamIcNS_11char_traitsIcEENS_9allocatorIcEEEEEclB7v170000EPS6_.exit.i.i.i1486, %ehcleanup600, %lpad590
  %.pn823.pn = phi { ptr, i32 } [ %247, %lpad590 ], [ %.pn823, %ehcleanup600 ], [ %.pn823, %_ZNKSt3__114default_deleteINS_18basic_stringstreamIcNS_11char_traitsIcEENS_9allocatorIcEEEEEclB7v170000EPS6_.exit.i.i.i1486 ]
  call void @llvm.lifetime.end.p0(i64 8, ptr nonnull %ref.tmp589) #23
  call void @_ZN7testing15AssertionResultD2Ev(ptr noundef nonnull align 8 dereferenceable(16) %gtest_ar582) #23
  call void @llvm.lifetime.end.p0(i64 16, ptr nonnull %gtest_ar582) #23
  br label %eh.resume

cleanup604:                                       ; preds = %_ZNKSt3__114default_deleteINS_18basic_stringstreamIcNS_11char_traitsIcEENS_9allocatorIcEEEEEclB7v170000EPS6_.exit.i.i.i1481, %invoke.cont598
  call void @llvm.lifetime.end.p0(i64 8, ptr nonnull %ref.tmp589) #23
  call void @_ZN7testing15AssertionResultD2Ev(ptr noundef nonnull align 8 dereferenceable(16) %gtest_ar582) #23
  call void @llvm.lifetime.end.p0(i64 16, ptr nonnull %gtest_ar582) #23
  br label %return

cleanup.cont608:                                  ; preds = %if.end578
  call void @_ZN7testing15AssertionResultD2Ev(ptr noundef nonnull align 8 dereferenceable(16) %gtest_ar582) #23
  call void @llvm.lifetime.end.p0(i64 16, ptr nonnull %gtest_ar582) #23
  call void @llvm.lifetime.start.p0(i64 16, ptr nonnull %gtest_ar610) #23
  call void @llvm.lifetime.start.p0(i64 1, ptr nonnull %ref.tmp611) #23
  %call612 = call noundef zeroext i1 @_ZN9benchmark11BoolFromEnvEPKcb(ptr noundef nonnull @.str.45, i1 noundef zeroext true)
  %frombool613 = zext i1 %call612 to i8
  store i8 %frombool613, ptr %ref.tmp611, align 1, !tbaa !22
  call void @llvm.lifetime.start.p0(i64 1, ptr nonnull %ref.tmp614) #23
  store i8 0, ptr %ref.tmp614, align 1, !tbaa !22
  call void @_ZN7testing8internal8EqHelper7CompareIbbLPv0EEENS_15AssertionResultEPKcS6_RKT_RKT0_(ptr nonnull sret(%"class.testing::AssertionResult") align 8 %gtest_ar610, ptr noundef nonnull @.str.44, ptr noundef nonnull @.str.41, ptr noundef nonnull align 1 dereferenceable(1) %ref.tmp611, ptr noundef nonnull align 1 dereferenceable(1) %ref.tmp614)
  call void @llvm.lifetime.end.p0(i64 1, ptr nonnull %ref.tmp614) #23
  call void @llvm.lifetime.end.p0(i64 1, ptr nonnull %ref.tmp611) #23
  %252 = load i8, ptr %gtest_ar610, align 8, !tbaa !11, !range !18, !noundef !19
  %tobool.i1488.not = icmp eq i8 %252, 0
  br i1 %tobool.i1488.not, label %if.else617, label %if.end632

if.else617:                                       ; preds = %cleanup.cont608
  call void @llvm.lifetime.start.p0(i64 8, ptr nonnull %ref.tmp618) #23
  invoke void @_ZN7testing7MessageC1Ev(ptr noundef nonnull align 8 dereferenceable(8) %ref.tmp618)
          to label %invoke.cont620 unwind label %lpad619

invoke.cont620:                                   ; preds = %if.else617
  call void @llvm.lifetime.start.p0(i64 8, ptr nonnull %ref.tmp621) #23
  %message_.i.i1489 = getelementptr inbounds %"class.testing::AssertionResult", ptr %gtest_ar610, i64 0, i32 1
  %253 = load ptr, ptr %message_.i.i1489, align 8, !tbaa !20
  %cmp.not.i.i1490 = icmp eq ptr %253, null
  br i1 %cmp.not.i.i1490, label %invoke.cont623, label %cond.true.i.i1497

cond.true.i.i1497:                                ; preds = %invoke.cont620
  %bf.load.i.i.i.i.i.i1491 = load i8, ptr %253, align 8
  %bf.clear.i.i.i.i.i.i1492 = and i8 %bf.load.i.i.i.i.i.i1491, 1
  %tobool.i.not.i.i.i.i.i1493 = icmp eq i8 %bf.clear.i.i.i.i.i.i1492, 0
  %__data_.i.i.i.i.i.i1494 = getelementptr inbounds %"struct.std::__1::basic_string<char>::__long", ptr %253, i64 0, i32 2
  %254 = load ptr, ptr %__data_.i.i.i.i.i.i1494, align 8
  %__data_.i4.i.i.i.i.i1495 = getelementptr inbounds %"struct.std::__1::basic_string<char>::__short", ptr %253, i64 0, i32 2
  %cond.i.i.i.i.i1496 = select i1 %tobool.i.not.i.i.i.i.i1493, ptr %__data_.i4.i.i.i.i.i1495, ptr %254
  br label %invoke.cont623

invoke.cont623:                                   ; preds = %cond.true.i.i1497, %invoke.cont620
  %cond.i.i1498 = phi ptr [ %cond.i.i.i.i.i1496, %cond.true.i.i1497 ], [ @.str.40, %invoke.cont620 ]
  invoke void @_ZN7testing8internal12AssertHelperC1ENS_14TestPartResult4TypeEPKciS5_(ptr noundef nonnull align 8 dereferenceable(8) %ref.tmp621, i32 noundef 1, ptr noundef nonnull @.str.3, i32 noundef 78, ptr noundef %cond.i.i1498)
          to label %invoke.cont625 unwind label %lpad622

invoke.cont625:                                   ; preds = %invoke.cont623
  invoke void @_ZNK7testing8internal12AssertHelperaSERKNS_7MessageE(ptr noundef nonnull align 8 dereferenceable(8) %ref.tmp621, ptr noundef nonnull align 8 dereferenceable(8) %ref.tmp618)
          to label %invoke.cont627 unwind label %lpad626

invoke.cont627:                                   ; preds = %invoke.cont625
  call void @_ZN7testing8internal12AssertHelperD1Ev(ptr noundef nonnull align 8 dereferenceable(8) %ref.tmp621) #23
  call void @llvm.lifetime.end.p0(i64 8, ptr nonnull %ref.tmp621) #23
  %255 = load ptr, ptr %ref.tmp618, align 8, !tbaa !20
  store ptr null, ptr %ref.tmp618, align 8, !tbaa !20
  %tobool.not.i.i.i1500 = icmp eq ptr %255, null
  br i1 %tobool.not.i.i.i1500, label %_ZN7testing7MessageD2Ev.exit1504, label %_ZNKSt3__114default_deleteINS_18basic_stringstreamIcNS_11char_traitsIcEENS_9allocatorIcEEEEEclB7v170000EPS6_.exit.i.i.i1503

_ZNKSt3__114default_deleteINS_18basic_stringstreamIcNS_11char_traitsIcEENS_9allocatorIcEEEEEclB7v170000EPS6_.exit.i.i.i1503: ; preds = %invoke.cont627
  %vtable.i.i.i.i1501 = load ptr, ptr %255, align 8, !tbaa !5
  %vfn.i.i.i.i1502 = getelementptr inbounds ptr, ptr %vtable.i.i.i.i1501, i64 1
  %256 = load ptr, ptr %vfn.i.i.i.i1502, align 8
  call void %256(ptr noundef nonnull align 8 dereferenceable(128) %255) #23
  br label %_ZN7testing7MessageD2Ev.exit1504

_ZN7testing7MessageD2Ev.exit1504:                 ; preds = %invoke.cont627, %_ZNKSt3__114default_deleteINS_18basic_stringstreamIcNS_11char_traitsIcEENS_9allocatorIcEEEEEclB7v170000EPS6_.exit.i.i.i1503
  call void @llvm.lifetime.end.p0(i64 8, ptr nonnull %ref.tmp618) #23
  br label %if.end632

lpad619:                                          ; preds = %if.else617
  %257 = landingpad { ptr, i32 }
          cleanup
  br label %ehcleanup631

lpad622:                                          ; preds = %invoke.cont623
  %258 = landingpad { ptr, i32 }
          cleanup
  br label %ehcleanup629

lpad626:                                          ; preds = %invoke.cont625
  %259 = landingpad { ptr, i32 }
          cleanup
  call void @_ZN7testing8internal12AssertHelperD1Ev(ptr noundef nonnull align 8 dereferenceable(8) %ref.tmp621) #23
  br label %ehcleanup629

ehcleanup629:                                     ; preds = %lpad626, %lpad622
  %.pn826 = phi { ptr, i32 } [ %259, %lpad626 ], [ %258, %lpad622 ]
  call void @llvm.lifetime.end.p0(i64 8, ptr nonnull %ref.tmp621) #23
  %260 = load ptr, ptr %ref.tmp618, align 8, !tbaa !20
  store ptr null, ptr %ref.tmp618, align 8, !tbaa !20
  %tobool.not.i.i.i1505 = icmp eq ptr %260, null
  br i1 %tobool.not.i.i.i1505, label %ehcleanup631, label %_ZNKSt3__114default_deleteINS_18basic_stringstreamIcNS_11char_traitsIcEENS_9allocatorIcEEEEEclB7v170000EPS6_.exit.i.i.i1508

_ZNKSt3__114default_deleteINS_18basic_stringstreamIcNS_11char_traitsIcEENS_9allocatorIcEEEEEclB7v170000EPS6_.exit.i.i.i1508: ; preds = %ehcleanup629
  %vtable.i.i.i.i1506 = load ptr, ptr %260, align 8, !tbaa !5
  %vfn.i.i.i.i1507 = getelementptr inbounds ptr, ptr %vtable.i.i.i.i1506, i64 1
  %261 = load ptr, ptr %vfn.i.i.i.i1507, align 8
  call void %261(ptr noundef nonnull align 8 dereferenceable(128) %260) #23
  br label %ehcleanup631

ehcleanup631:                                     ; preds = %_ZNKSt3__114default_deleteINS_18basic_stringstreamIcNS_11char_traitsIcEENS_9allocatorIcEEEEEclB7v170000EPS6_.exit.i.i.i1508, %ehcleanup629, %lpad619
  %.pn826.pn = phi { ptr, i32 } [ %257, %lpad619 ], [ %.pn826, %ehcleanup629 ], [ %.pn826, %_ZNKSt3__114default_deleteINS_18basic_stringstreamIcNS_11char_traitsIcEENS_9allocatorIcEEEEEclB7v170000EPS6_.exit.i.i.i1508 ]
  call void @llvm.lifetime.end.p0(i64 8, ptr nonnull %ref.tmp618) #23
  call void @_ZN7testing15AssertionResultD2Ev(ptr noundef nonnull align 8 dereferenceable(16) %gtest_ar610) #23
  call void @llvm.lifetime.end.p0(i64 16, ptr nonnull %gtest_ar610) #23
  br label %eh.resume

if.end632:                                        ; preds = %cleanup.cont608, %_ZN7testing7MessageD2Ev.exit1504
  call void @_ZN7testing15AssertionResultD2Ev(ptr noundef nonnull align 8 dereferenceable(16) %gtest_ar610) #23
  call void @llvm.lifetime.end.p0(i64 16, ptr nonnull %gtest_ar610) #23
  %call635 = call i32 @unsetenv(ptr noundef nonnull @.str.43) #23
  call void @llvm.lifetime.start.p0(i64 16, ptr nonnull %gtest_ar636) #23
  call void @llvm.lifetime.start.p0(i64 4, ptr nonnull %ref.tmp637) #23
  %call638 = call i32 @setenv(ptr noundef nonnull @.str.43, ptr noundef nonnull @.str.67, i32 noundef 1) #23
  store i32 %call638, ptr %ref.tmp637, align 4, !tbaa !8
  call void @llvm.lifetime.start.p0(i64 4, ptr nonnull %ref.tmp639) #23
  store i32 0, ptr %ref.tmp639, align 4, !tbaa !8
  call void @_ZN7testing8internal8EqHelper7CompareIiiLPv0EEENS_15AssertionResultEPKcS6_RKT_RKT0_(ptr nonnull sret(%"class.testing::AssertionResult") align 8 %gtest_ar636, ptr noundef nonnull @.str.66, ptr noundef nonnull @.str.34, ptr noundef nonnull align 4 dereferenceable(4) %ref.tmp637, ptr noundef nonnull align 4 dereferenceable(4) %ref.tmp639)
  call void @llvm.lifetime.end.p0(i64 4, ptr nonnull %ref.tmp639) #23
  call void @llvm.lifetime.end.p0(i64 4, ptr nonnull %ref.tmp637) #23
  %262 = load i8, ptr %gtest_ar636, align 8, !tbaa !11, !range !18, !noundef !19
  %tobool.i1510.not = icmp eq i8 %262, 0
  br i1 %tobool.i1510.not, label %if.else642, label %cleanup.cont662

if.else642:                                       ; preds = %if.end632
  call void @llvm.lifetime.start.p0(i64 8, ptr nonnull %ref.tmp643) #23
  invoke void @_ZN7testing7MessageC1Ev(ptr noundef nonnull align 8 dereferenceable(8) %ref.tmp643)
          to label %invoke.cont645 unwind label %lpad644

invoke.cont645:                                   ; preds = %if.else642
  call void @llvm.lifetime.start.p0(i64 8, ptr nonnull %ref.tmp646) #23
  %message_.i.i1511 = getelementptr inbounds %"class.testing::AssertionResult", ptr %gtest_ar636, i64 0, i32 1
  %263 = load ptr, ptr %message_.i.i1511, align 8, !tbaa !20
  %cmp.not.i.i1512 = icmp eq ptr %263, null
  br i1 %cmp.not.i.i1512, label %invoke.cont648, label %cond.true.i.i1519

cond.true.i.i1519:                                ; preds = %invoke.cont645
  %bf.load.i.i.i.i.i.i1513 = load i8, ptr %263, align 8
  %bf.clear.i.i.i.i.i.i1514 = and i8 %bf.load.i.i.i.i.i.i1513, 1
  %tobool.i.not.i.i.i.i.i1515 = icmp eq i8 %bf.clear.i.i.i.i.i.i1514, 0
  %__data_.i.i.i.i.i.i1516 = getelementptr inbounds %"struct.std::__1::basic_string<char>::__long", ptr %263, i64 0, i32 2
  %264 = load ptr, ptr %__data_.i.i.i.i.i.i1516, align 8
  %__data_.i4.i.i.i.i.i1517 = getelementptr inbounds %"struct.std::__1::basic_string<char>::__short", ptr %263, i64 0, i32 2
  %cond.i.i.i.i.i1518 = select i1 %tobool.i.not.i.i.i.i.i1515, ptr %__data_.i4.i.i.i.i.i1517, ptr %264
  br label %invoke.cont648

invoke.cont648:                                   ; preds = %cond.true.i.i1519, %invoke.cont645
  %cond.i.i1520 = phi ptr [ %cond.i.i.i.i.i1518, %cond.true.i.i1519 ], [ @.str.40, %invoke.cont645 ]
  invoke void @_ZN7testing8internal12AssertHelperC1ENS_14TestPartResult4TypeEPKciS5_(ptr noundef nonnull align 8 dereferenceable(8) %ref.tmp646, i32 noundef 2, ptr noundef nonnull @.str.3, i32 noundef 81, ptr noundef %cond.i.i1520)
          to label %invoke.cont650 unwind label %lpad647

invoke.cont650:                                   ; preds = %invoke.cont648
  invoke void @_ZNK7testing8internal12AssertHelperaSERKNS_7MessageE(ptr noundef nonnull align 8 dereferenceable(8) %ref.tmp646, ptr noundef nonnull align 8 dereferenceable(8) %ref.tmp643)
          to label %invoke.cont652 unwind label %lpad651

invoke.cont652:                                   ; preds = %invoke.cont650
  call void @_ZN7testing8internal12AssertHelperD1Ev(ptr noundef nonnull align 8 dereferenceable(8) %ref.tmp646) #23
  call void @llvm.lifetime.end.p0(i64 8, ptr nonnull %ref.tmp646) #23
  %265 = load ptr, ptr %ref.tmp643, align 8, !tbaa !20
  store ptr null, ptr %ref.tmp643, align 8, !tbaa !20
  %tobool.not.i.i.i1522 = icmp eq ptr %265, null
  br i1 %tobool.not.i.i.i1522, label %cleanup658, label %_ZNKSt3__114default_deleteINS_18basic_stringstreamIcNS_11char_traitsIcEENS_9allocatorIcEEEEEclB7v170000EPS6_.exit.i.i.i1525

_ZNKSt3__114default_deleteINS_18basic_stringstreamIcNS_11char_traitsIcEENS_9allocatorIcEEEEEclB7v170000EPS6_.exit.i.i.i1525: ; preds = %invoke.cont652
  %vtable.i.i.i.i1523 = load ptr, ptr %265, align 8, !tbaa !5
  %vfn.i.i.i.i1524 = getelementptr inbounds ptr, ptr %vtable.i.i.i.i1523, i64 1
  %266 = load ptr, ptr %vfn.i.i.i.i1524, align 8
  call void %266(ptr noundef nonnull align 8 dereferenceable(128) %265) #23
  br label %cleanup658

lpad644:                                          ; preds = %if.else642
  %267 = landingpad { ptr, i32 }
          cleanup
  br label %ehcleanup656

lpad647:                                          ; preds = %invoke.cont648
  %268 = landingpad { ptr, i32 }
          cleanup
  br label %ehcleanup654

lpad651:                                          ; preds = %invoke.cont650
  %269 = landingpad { ptr, i32 }
          cleanup
  call void @_ZN7testing8internal12AssertHelperD1Ev(ptr noundef nonnull align 8 dereferenceable(8) %ref.tmp646) #23
  br label %ehcleanup654

ehcleanup654:                                     ; preds = %lpad651, %lpad647
  %.pn829 = phi { ptr, i32 } [ %269, %lpad651 ], [ %268, %lpad647 ]
  call void @llvm.lifetime.end.p0(i64 8, ptr nonnull %ref.tmp646) #23
  %270 = load ptr, ptr %ref.tmp643, align 8, !tbaa !20
  store ptr null, ptr %ref.tmp643, align 8, !tbaa !20
  %tobool.not.i.i.i1527 = icmp eq ptr %270, null
  br i1 %tobool.not.i.i.i1527, label %ehcleanup656, label %_ZNKSt3__114default_deleteINS_18basic_stringstreamIcNS_11char_traitsIcEENS_9allocatorIcEEEEEclB7v170000EPS6_.exit.i.i.i1530

_ZNKSt3__114default_deleteINS_18basic_stringstreamIcNS_11char_traitsIcEENS_9allocatorIcEEEEEclB7v170000EPS6_.exit.i.i.i1530: ; preds = %ehcleanup654
  %vtable.i.i.i.i1528 = load ptr, ptr %270, align 8, !tbaa !5
  %vfn.i.i.i.i1529 = getelementptr inbounds ptr, ptr %vtable.i.i.i.i1528, i64 1
  %271 = load ptr, ptr %vfn.i.i.i.i1529, align 8
  call void %271(ptr noundef nonnull align 8 dereferenceable(128) %270) #23
  br label %ehcleanup656

ehcleanup656:                                     ; preds = %_ZNKSt3__114default_deleteINS_18basic_stringstreamIcNS_11char_traitsIcEENS_9allocatorIcEEEEEclB7v170000EPS6_.exit.i.i.i1530, %ehcleanup654, %lpad644
  %.pn829.pn = phi { ptr, i32 } [ %267, %lpad644 ], [ %.pn829, %ehcleanup654 ], [ %.pn829, %_ZNKSt3__114default_deleteINS_18basic_stringstreamIcNS_11char_traitsIcEENS_9allocatorIcEEEEEclB7v170000EPS6_.exit.i.i.i1530 ]
  call void @llvm.lifetime.end.p0(i64 8, ptr nonnull %ref.tmp643) #23
  call void @_ZN7testing15AssertionResultD2Ev(ptr noundef nonnull align 8 dereferenceable(16) %gtest_ar636) #23
  call void @llvm.lifetime.end.p0(i64 16, ptr nonnull %gtest_ar636) #23
  br label %eh.resume

cleanup658:                                       ; preds = %_ZNKSt3__114default_deleteINS_18basic_stringstreamIcNS_11char_traitsIcEENS_9allocatorIcEEEEEclB7v170000EPS6_.exit.i.i.i1525, %invoke.cont652
  call void @llvm.lifetime.end.p0(i64 8, ptr nonnull %ref.tmp643) #23
  call void @_ZN7testing15AssertionResultD2Ev(ptr noundef nonnull align 8 dereferenceable(16) %gtest_ar636) #23
  call void @llvm.lifetime.end.p0(i64 16, ptr nonnull %gtest_ar636) #23
  br label %return

cleanup.cont662:                                  ; preds = %if.end632
  call void @_ZN7testing15AssertionResultD2Ev(ptr noundef nonnull align 8 dereferenceable(16) %gtest_ar636) #23
  call void @llvm.lifetime.end.p0(i64 16, ptr nonnull %gtest_ar636) #23
  call void @llvm.lifetime.start.p0(i64 16, ptr nonnull %gtest_ar664) #23
  call void @llvm.lifetime.start.p0(i64 1, ptr nonnull %ref.tmp665) #23
  %call666 = call noundef zeroext i1 @_ZN9benchmark11BoolFromEnvEPKcb(ptr noundef nonnull @.str.45, i1 noundef zeroext true)
  %frombool667 = zext i1 %call666 to i8
  store i8 %frombool667, ptr %ref.tmp665, align 1, !tbaa !22
  call void @llvm.lifetime.start.p0(i64 1, ptr nonnull %ref.tmp668) #23
  store i8 0, ptr %ref.tmp668, align 1, !tbaa !22
  call void @_ZN7testing8internal8EqHelper7CompareIbbLPv0EEENS_15AssertionResultEPKcS6_RKT_RKT0_(ptr nonnull sret(%"class.testing::AssertionResult") align 8 %gtest_ar664, ptr noundef nonnull @.str.44, ptr noundef nonnull @.str.41, ptr noundef nonnull align 1 dereferenceable(1) %ref.tmp665, ptr noundef nonnull align 1 dereferenceable(1) %ref.tmp668)
  call void @llvm.lifetime.end.p0(i64 1, ptr nonnull %ref.tmp668) #23
  call void @llvm.lifetime.end.p0(i64 1, ptr nonnull %ref.tmp665) #23
  %272 = load i8, ptr %gtest_ar664, align 8, !tbaa !11, !range !18, !noundef !19
  %tobool.i1532.not = icmp eq i8 %272, 0
  br i1 %tobool.i1532.not, label %if.else671, label %if.end686

if.else671:                                       ; preds = %cleanup.cont662
  call void @llvm.lifetime.start.p0(i64 8, ptr nonnull %ref.tmp672) #23
  invoke void @_ZN7testing7MessageC1Ev(ptr noundef nonnull align 8 dereferenceable(8) %ref.tmp672)
          to label %invoke.cont674 unwind label %lpad673

invoke.cont674:                                   ; preds = %if.else671
  call void @llvm.lifetime.start.p0(i64 8, ptr nonnull %ref.tmp675) #23
  %message_.i.i1533 = getelementptr inbounds %"class.testing::AssertionResult", ptr %gtest_ar664, i64 0, i32 1
  %273 = load ptr, ptr %message_.i.i1533, align 8, !tbaa !20
  %cmp.not.i.i1534 = icmp eq ptr %273, null
  br i1 %cmp.not.i.i1534, label %invoke.cont677, label %cond.true.i.i1541

cond.true.i.i1541:                                ; preds = %invoke.cont674
  %bf.load.i.i.i.i.i.i1535 = load i8, ptr %273, align 8
  %bf.clear.i.i.i.i.i.i1536 = and i8 %bf.load.i.i.i.i.i.i1535, 1
  %tobool.i.not.i.i.i.i.i1537 = icmp eq i8 %bf.clear.i.i.i.i.i.i1536, 0
  %__data_.i.i.i.i.i.i1538 = getelementptr inbounds %"struct.std::__1::basic_string<char>::__long", ptr %273, i64 0, i32 2
  %274 = load ptr, ptr %__data_.i.i.i.i.i.i1538, align 8
  %__data_.i4.i.i.i.i.i1539 = getelementptr inbounds %"struct.std::__1::basic_string<char>::__short", ptr %273, i64 0, i32 2
  %cond.i.i.i.i.i1540 = select i1 %tobool.i.not.i.i.i.i.i1537, ptr %__data_.i4.i.i.i.i.i1539, ptr %274
  br label %invoke.cont677

invoke.cont677:                                   ; preds = %cond.true.i.i1541, %invoke.cont674
  %cond.i.i1542 = phi ptr [ %cond.i.i.i.i.i1540, %cond.true.i.i1541 ], [ @.str.40, %invoke.cont674 ]
  invoke void @_ZN7testing8internal12AssertHelperC1ENS_14TestPartResult4TypeEPKciS5_(ptr noundef nonnull align 8 dereferenceable(8) %ref.tmp675, i32 noundef 1, ptr noundef nonnull @.str.3, i32 noundef 82, ptr noundef %cond.i.i1542)
          to label %invoke.cont679 unwind label %lpad676

invoke.cont679:                                   ; preds = %invoke.cont677
  invoke void @_ZNK7testing8internal12AssertHelperaSERKNS_7MessageE(ptr noundef nonnull align 8 dereferenceable(8) %ref.tmp675, ptr noundef nonnull align 8 dereferenceable(8) %ref.tmp672)
          to label %invoke.cont681 unwind label %lpad680

invoke.cont681:                                   ; preds = %invoke.cont679
  call void @_ZN7testing8internal12AssertHelperD1Ev(ptr noundef nonnull align 8 dereferenceable(8) %ref.tmp675) #23
  call void @llvm.lifetime.end.p0(i64 8, ptr nonnull %ref.tmp675) #23
  %275 = load ptr, ptr %ref.tmp672, align 8, !tbaa !20
  store ptr null, ptr %ref.tmp672, align 8, !tbaa !20
  %tobool.not.i.i.i1544 = icmp eq ptr %275, null
  br i1 %tobool.not.i.i.i1544, label %_ZN7testing7MessageD2Ev.exit1548, label %_ZNKSt3__114default_deleteINS_18basic_stringstreamIcNS_11char_traitsIcEENS_9allocatorIcEEEEEclB7v170000EPS6_.exit.i.i.i1547

_ZNKSt3__114default_deleteINS_18basic_stringstreamIcNS_11char_traitsIcEENS_9allocatorIcEEEEEclB7v170000EPS6_.exit.i.i.i1547: ; preds = %invoke.cont681
  %vtable.i.i.i.i1545 = load ptr, ptr %275, align 8, !tbaa !5
  %vfn.i.i.i.i1546 = getelementptr inbounds ptr, ptr %vtable.i.i.i.i1545, i64 1
  %276 = load ptr, ptr %vfn.i.i.i.i1546, align 8
  call void %276(ptr noundef nonnull align 8 dereferenceable(128) %275) #23
  br label %_ZN7testing7MessageD2Ev.exit1548

_ZN7testing7MessageD2Ev.exit1548:                 ; preds = %invoke.cont681, %_ZNKSt3__114default_deleteINS_18basic_stringstreamIcNS_11char_traitsIcEENS_9allocatorIcEEEEEclB7v170000EPS6_.exit.i.i.i1547
  call void @llvm.lifetime.end.p0(i64 8, ptr nonnull %ref.tmp672) #23
  br label %if.end686

lpad673:                                          ; preds = %if.else671
  %277 = landingpad { ptr, i32 }
          cleanup
  br label %ehcleanup685

lpad676:                                          ; preds = %invoke.cont677
  %278 = landingpad { ptr, i32 }
          cleanup
  br label %ehcleanup683

lpad680:                                          ; preds = %invoke.cont679
  %279 = landingpad { ptr, i32 }
          cleanup
  call void @_ZN7testing8internal12AssertHelperD1Ev(ptr noundef nonnull align 8 dereferenceable(8) %ref.tmp675) #23
  br label %ehcleanup683

ehcleanup683:                                     ; preds = %lpad680, %lpad676
  %.pn832 = phi { ptr, i32 } [ %279, %lpad680 ], [ %278, %lpad676 ]
  call void @llvm.lifetime.end.p0(i64 8, ptr nonnull %ref.tmp675) #23
  %280 = load ptr, ptr %ref.tmp672, align 8, !tbaa !20
  store ptr null, ptr %ref.tmp672, align 8, !tbaa !20
  %tobool.not.i.i.i1549 = icmp eq ptr %280, null
  br i1 %tobool.not.i.i.i1549, label %ehcleanup685, label %_ZNKSt3__114default_deleteINS_18basic_stringstreamIcNS_11char_traitsIcEENS_9allocatorIcEEEEEclB7v170000EPS6_.exit.i.i.i1552

_ZNKSt3__114default_deleteINS_18basic_stringstreamIcNS_11char_traitsIcEENS_9allocatorIcEEEEEclB7v170000EPS6_.exit.i.i.i1552: ; preds = %ehcleanup683
  %vtable.i.i.i.i1550 = load ptr, ptr %280, align 8, !tbaa !5
  %vfn.i.i.i.i1551 = getelementptr inbounds ptr, ptr %vtable.i.i.i.i1550, i64 1
  %281 = load ptr, ptr %vfn.i.i.i.i1551, align 8
  call void %281(ptr noundef nonnull align 8 dereferenceable(128) %280) #23
  br label %ehcleanup685

ehcleanup685:                                     ; preds = %_ZNKSt3__114default_deleteINS_18basic_stringstreamIcNS_11char_traitsIcEENS_9allocatorIcEEEEEclB7v170000EPS6_.exit.i.i.i1552, %ehcleanup683, %lpad673
  %.pn832.pn = phi { ptr, i32 } [ %277, %lpad673 ], [ %.pn832, %ehcleanup683 ], [ %.pn832, %_ZNKSt3__114default_deleteINS_18basic_stringstreamIcNS_11char_traitsIcEENS_9allocatorIcEEEEEclB7v170000EPS6_.exit.i.i.i1552 ]
  call void @llvm.lifetime.end.p0(i64 8, ptr nonnull %ref.tmp672) #23
  call void @_ZN7testing15AssertionResultD2Ev(ptr noundef nonnull align 8 dereferenceable(16) %gtest_ar664) #23
  call void @llvm.lifetime.end.p0(i64 16, ptr nonnull %gtest_ar664) #23
  br label %eh.resume

if.end686:                                        ; preds = %cleanup.cont662, %_ZN7testing7MessageD2Ev.exit1548
  call void @_ZN7testing15AssertionResultD2Ev(ptr noundef nonnull align 8 dereferenceable(16) %gtest_ar664) #23
  call void @llvm.lifetime.end.p0(i64 16, ptr nonnull %gtest_ar664) #23
  %call689 = call i32 @unsetenv(ptr noundef nonnull @.str.43) #23
  call void @llvm.lifetime.start.p0(i64 16, ptr nonnull %gtest_ar690) #23
  call void @llvm.lifetime.start.p0(i64 4, ptr nonnull %ref.tmp691) #23
  %call692 = call i32 @setenv(ptr noundef nonnull @.str.43, ptr noundef nonnull @.str.69, i32 noundef 1) #23
  store i32 %call692, ptr %ref.tmp691, align 4, !tbaa !8
  call void @llvm.lifetime.start.p0(i64 4, ptr nonnull %ref.tmp693) #23
  store i32 0, ptr %ref.tmp693, align 4, !tbaa !8
  call void @_ZN7testing8internal8EqHelper7CompareIiiLPv0EEENS_15AssertionResultEPKcS6_RKT_RKT0_(ptr nonnull sret(%"class.testing::AssertionResult") align 8 %gtest_ar690, ptr noundef nonnull @.str.68, ptr noundef nonnull @.str.34, ptr noundef nonnull align 4 dereferenceable(4) %ref.tmp691, ptr noundef nonnull align 4 dereferenceable(4) %ref.tmp693)
  call void @llvm.lifetime.end.p0(i64 4, ptr nonnull %ref.tmp693) #23
  call void @llvm.lifetime.end.p0(i64 4, ptr nonnull %ref.tmp691) #23
  %282 = load i8, ptr %gtest_ar690, align 8, !tbaa !11, !range !18, !noundef !19
  %tobool.i1554.not = icmp eq i8 %282, 0
  br i1 %tobool.i1554.not, label %if.else696, label %cleanup.cont716

if.else696:                                       ; preds = %if.end686
  call void @llvm.lifetime.start.p0(i64 8, ptr nonnull %ref.tmp697) #23
  invoke void @_ZN7testing7MessageC1Ev(ptr noundef nonnull align 8 dereferenceable(8) %ref.tmp697)
          to label %invoke.cont699 unwind label %lpad698

invoke.cont699:                                   ; preds = %if.else696
  call void @llvm.lifetime.start.p0(i64 8, ptr nonnull %ref.tmp700) #23
  %message_.i.i1555 = getelementptr inbounds %"class.testing::AssertionResult", ptr %gtest_ar690, i64 0, i32 1
  %283 = load ptr, ptr %message_.i.i1555, align 8, !tbaa !20
  %cmp.not.i.i1556 = icmp eq ptr %283, null
  br i1 %cmp.not.i.i1556, label %invoke.cont702, label %cond.true.i.i1563

cond.true.i.i1563:                                ; preds = %invoke.cont699
  %bf.load.i.i.i.i.i.i1557 = load i8, ptr %283, align 8
  %bf.clear.i.i.i.i.i.i1558 = and i8 %bf.load.i.i.i.i.i.i1557, 1
  %tobool.i.not.i.i.i.i.i1559 = icmp eq i8 %bf.clear.i.i.i.i.i.i1558, 0
