; ModuleID = '/local/mnt2/workspace2/mnadeem/llvm/llvm-test-suite/MicroBenchmarks/libs/benchmark/test/skip_with_error_test.cc'
source_filename = "/local/mnt2/workspace2/mnadeem/llvm/llvm-test-suite/MicroBenchmarks/libs/benchmark/test/skip_with_error_test.cc"
target datalayout = "e-m:e-p270:32:32-p271:32:32-p272:64:64-i64:64-f80:128-n8:16:32:64-S128"
target triple = "x86_64-unknown-linux-gnu"

%"class.std::__1::vector" = type { ptr, ptr, %"class.std::__1::__compressed_pair.2" }
%"class.std::__1::__compressed_pair.2" = type { %"struct.std::__1::__compressed_pair_elem.3" }
%"struct.std::__1::__compressed_pair_elem.3" = type { ptr }
%"class.std::__1::locale::id" = type <{ %"struct.std::__1::once_flag", i32, [4 x i8] }>
%"struct.std::__1::once_flag" = type { i64 }
%"class.benchmark::internal::LogType" = type { ptr }
%"class.std::__1::basic_ostream" = type { ptr, %"class.std::__1::basic_ios.base" }
%"class.std::__1::basic_ios.base" = type <{ %"class.std::__1::ios_base", ptr, i32 }>
%"class.std::__1::ios_base" = type { ptr, i32, i64, i64, i32, i32, ptr, ptr, ptr, ptr, i64, i64, ptr, i64, i64, ptr, i64, i64 }
%"struct.(anonymous namespace)::TestCase" = type { %"class.std::__1::basic_string", i8, %"class.std::__1::basic_string" }
%"class.std::__1::basic_string" = type { %"class.std::__1::__compressed_pair" }
%"class.std::__1::__compressed_pair" = type { %"struct.std::__1::__compressed_pair_elem" }
%"struct.std::__1::__compressed_pair_elem" = type { %"struct.std::__1::basic_string<char>::__rep" }
%"struct.std::__1::basic_string<char>::__rep" = type { %union.anon }
%union.anon = type { %"struct.std::__1::basic_string<char>::__long" }
%"struct.std::__1::basic_string<char>::__long" = type { %struct.anon, i64, ptr }
%struct.anon = type { i64 }
%"class.benchmark::State" = type { i64, i64, i64, i8, i8, i8, %"class.std::__1::vector.8", i64, %"class.std::__1::map", i32, i32, ptr, ptr, ptr }
%"class.std::__1::vector.8" = type { ptr, ptr, %"class.std::__1::__compressed_pair.9" }
%"class.std::__1::__compressed_pair.9" = type { %"struct.std::__1::__compressed_pair_elem.10" }
%"struct.std::__1::__compressed_pair_elem.10" = type { ptr }
%"class.std::__1::map" = type { %"class.std::__1::__tree" }
%"class.std::__1::__tree" = type { ptr, %"class.std::__1::__compressed_pair.15", %"class.std::__1::__compressed_pair.21" }
%"class.std::__1::__compressed_pair.15" = type { %"struct.std::__1::__compressed_pair_elem.16" }
%"struct.std::__1::__compressed_pair_elem.16" = type { %"class.std::__1::__tree_end_node" }
%"class.std::__1::__tree_end_node" = type { ptr }
%"class.std::__1::__compressed_pair.21" = type { %"struct.std::__1::__compressed_pair_elem.22" }
%"struct.std::__1::__compressed_pair_elem.22" = type { i64 }
%"class.benchmark::internal::CheckHandler" = type { ptr }
%"class.(anonymous namespace)::TestReporter" = type { %"class.benchmark::ConsoleReporter.base", %"class.std::__1::vector.59" }
%"class.benchmark::ConsoleReporter.base" = type <{ %"class.benchmark::BenchmarkReporter", i32, [4 x i8], i64, %"class.std::__1::map", i8 }>
%"class.benchmark::BenchmarkReporter" = type { ptr, ptr, ptr }
%"class.std::__1::vector.59" = type { ptr, ptr, %"class.std::__1::__compressed_pair.60" }
%"class.std::__1::__compressed_pair.60" = type { %"struct.std::__1::__compressed_pair_elem.61" }
%"struct.std::__1::__compressed_pair_elem.61" = type { ptr }
%"class.benchmark::ConsoleReporter" = type <{ %"class.benchmark::BenchmarkReporter", i32, [4 x i8], i64, %"class.std::__1::map", i8, [7 x i8] }>
%"struct.std::__1::basic_string<char>::__short" = type { %struct.anon.0, [0 x i8], [23 x i8] }
%struct.anon.0 = type { i8 }
%"struct.benchmark::BenchmarkReporter::Run" = type { %"struct.benchmark::BenchmarkName", i64, i64, i32, %"class.std::__1::basic_string", i32, %"class.std::__1::basic_string", i8, %"class.std::__1::basic_string", i64, i64, i64, i64, i32, double, double, double, i32, ptr, i64, ptr, i8, i8, %"class.std::__1::map", ptr, double }
%"struct.benchmark::BenchmarkName" = type { %"class.std::__1::basic_string", %"class.std::__1::basic_string", %"class.std::__1::basic_string", %"class.std::__1::basic_string", %"class.std::__1::basic_string", %"class.std::__1::basic_string", %"class.std::__1::basic_string" }
%"struct.std::__1::__exception_guard_exceptions.82" = type <{ %"class.std::__1::_AllocatorDestroyRangeReverse.83", i8, [7 x i8] }>
%"class.std::__1::_AllocatorDestroyRangeReverse.83" = type { ptr, ptr, ptr }
%"struct.std::__1::__split_buffer.79" = type { ptr, ptr, ptr, %"class.std::__1::__compressed_pair.80" }
%"class.std::__1::__compressed_pair.80" = type { %"struct.std::__1::__compressed_pair_elem.61", %"struct.std::__1::__compressed_pair_elem.81" }
%"struct.std::__1::__compressed_pair_elem.81" = type { ptr }
%"class.std::__1::__tree_node_base" = type <{ %"class.std::__1::__tree_end_node", ptr, ptr, i8, [7 x i8] }>
%"class.std::__1::__tree_node" = type { %"class.std::__1::__tree_node_base.base", %"struct.std::__1::__value_type" }
%"class.std::__1::__tree_node_base.base" = type <{ %"class.std::__1::__tree_end_node", ptr, ptr, i8 }>
%"struct.std::__1::__value_type" = type { %"struct.std::__1::pair" }
%"struct.std::__1::pair" = type { %"class.std::__1::basic_string", %"class.benchmark::Counter" }
%"class.benchmark::Counter" = type { double, i32, i32 }
%"struct.std::__1::__tree<std::__1::__value_type<std::__1::string, benchmark::Counter>, std::__1::__map_value_compare<std::__1::string, std::__1::__value_type<std::__1::string, benchmark::Counter>, std::__1::less<std::__1::string>>, std::__1::allocator<std::__1::__value_type<std::__1::string, benchmark::Counter>>>::_DetachedTreeCache" = type { ptr, ptr, ptr }
%"class.std::__1::unique_ptr" = type { %"class.std::__1::__compressed_pair.86" }
%"class.std::__1::__compressed_pair.86" = type { %"struct.std::__1::__compressed_pair_elem.87", %"struct.std::__1::__compressed_pair_elem.88" }
%"struct.std::__1::__compressed_pair_elem.87" = type { ptr }
%"struct.std::__1::__compressed_pair_elem.88" = type { %"class.std::__1::__tree_node_destructor" }
%"class.std::__1::__tree_node_destructor" = type <{ ptr, i8, [7 x i8] }>
%"class.std::__1::locale" = type { ptr }
%"class.std::__1::basic_ostream<char>::sentry" = type { i8, ptr }
%"class.std::__1::basic_ios" = type <{ %"class.std::__1::ios_base", ptr, i32, [4 x i8] }>
%"class.benchmark::internal::FunctionBenchmark" = type { %"class.benchmark::internal::Benchmark", ptr }
%"class.benchmark::internal::Benchmark" = type { ptr, %"class.std::__1::basic_string", i32, %"class.std::__1::vector.24", %"class.std::__1::vector.31", i32, i8, i32, double, i64, i32, i8, i8, i8, i32, ptr, %"class.std::__1::vector.38", %"class.std::__1::vector.52", ptr, ptr }
%"class.std::__1::vector.24" = type { ptr, ptr, %"class.std::__1::__compressed_pair.25" }
%"class.std::__1::__compressed_pair.25" = type { %"struct.std::__1::__compressed_pair_elem.26" }
%"struct.std::__1::__compressed_pair_elem.26" = type { ptr }
%"class.std::__1::vector.31" = type { ptr, ptr, %"class.std::__1::__compressed_pair.32" }
%"class.std::__1::__compressed_pair.32" = type { %"struct.std::__1::__compressed_pair_elem.33" }
%"struct.std::__1::__compressed_pair_elem.33" = type { ptr }
%"class.std::__1::vector.38" = type { ptr, ptr, %"class.std::__1::__compressed_pair.46" }
%"class.std::__1::__compressed_pair.46" = type { %"struct.std::__1::__compressed_pair_elem.47" }
%"struct.std::__1::__compressed_pair_elem.47" = type { ptr }
%"class.std::__1::vector.52" = type { ptr, ptr, %"class.std::__1::__compressed_pair.53" }
%"class.std::__1::__compressed_pair.53" = type { %"struct.std::__1::__compressed_pair_elem.54" }
%"struct.std::__1::__compressed_pair_elem.54" = type { ptr }

$__clang_call_terminate = comdat any

$_ZNSt3__120__throw_length_errorB7v170000EPKc = comdat any

$_ZNSt12length_errorC2B7v170000EPKc = comdat any

$_ZSt28__throw_bad_array_new_lengthB7v170000v = comdat any

$_ZN9benchmark17BenchmarkReporter8FinalizeEv = comdat any

$_ZNSt3__16vectorIN9benchmark17BenchmarkReporter3RunENS_9allocatorIS3_EEE6insertINS_11__wrap_iterIPKS3_EELi0EEENS8_IPS3_EESB_T_SE_ = comdat any

$_ZNSt3__16vectorIN9benchmark17BenchmarkReporter3RunENS_9allocatorIS3_EEE12__move_rangeEPS3_S7_S7_ = comdat any

$_ZNSt3__16vectorIN9benchmark17BenchmarkReporter3RunENS_9allocatorIS3_EEE26__swap_out_circular_bufferERNS_14__split_bufferIS3_RS5_EEPS3_ = comdat any

$_ZNSt3__114__split_bufferIN9benchmark17BenchmarkReporter3RunERNS_9allocatorIS3_EEED2Ev = comdat any

$_ZNSt3__128__exception_guard_exceptionsINS_29_AllocatorDestroyRangeReverseINS_9allocatorIN9benchmark17BenchmarkReporter3RunEEEPS5_EEED2B7v170000Ev = comdat any

$_ZN9benchmark17BenchmarkReporter3RunC2ERKS1_ = comdat any

$_ZN9benchmark13BenchmarkNameC2ERKS0_ = comdat any

$_ZN9benchmark13BenchmarkNameD2Ev = comdat any

$_ZNSt3__16__treeINS_12__value_typeINS_12basic_stringIcNS_11char_traitsIcEENS_9allocatorIcEEEEN9benchmark7CounterEEENS_19__map_value_compareIS7_SA_NS_4lessIS7_EELb1EEENS5_ISA_EEE30__emplace_hint_unique_key_argsIS7_JRKNS_4pairIKS7_S9_EEEEENSI_INS_15__tree_iteratorISA_PNS_11__tree_nodeISA_PvEElEEbEENS_21__tree_const_iteratorISA_SR_lEERKT_DpOT0_ = comdat any

$_ZNSt3__16__treeINS_12__value_typeINS_12basic_stringIcNS_11char_traitsIcEENS_9allocatorIcEEEEN9benchmark7CounterEEENS_19__map_value_compareIS7_SA_NS_4lessIS7_EELb1EEENS5_ISA_EEE12__find_equalIS7_EERPNS_16__tree_node_baseIPvEENS_21__tree_const_iteratorISA_PNS_11__tree_nodeISA_SJ_EElEERPNS_15__tree_end_nodeISL_EESM_RKT_ = comdat any

$_ZNSt3__110unique_ptrINS_11__tree_nodeINS_12__value_typeINS_12basic_stringIcNS_11char_traitsIcEENS_9allocatorIcEEEEN9benchmark7CounterEEEPvEENS_22__tree_node_destructorINS6_ISD_EEEEED2B7v170000Ev = comdat any

$_ZNSt3__16__treeINS_12__value_typeINS_12basic_stringIcNS_11char_traitsIcEENS_9allocatorIcEEEEN9benchmark7CounterEEENS_19__map_value_compareIS7_SA_NS_4lessIS7_EELb1EEENS5_ISA_EEE12__find_equalIS7_EERPNS_16__tree_node_baseIPvEERPNS_15__tree_end_nodeISL_EERKT_ = comdat any

$_ZNSt3__127__tree_balance_after_insertB7v170000IPNS_16__tree_node_baseIPvEEEEvT_S5_ = comdat any

$_ZNSt3__16__treeINS_12__value_typeINS_12basic_stringIcNS_11char_traitsIcEENS_9allocatorIcEEEEN9benchmark7CounterEEENS_19__map_value_compareIS7_SA_NS_4lessIS7_EELb1EEENS5_ISA_EEE7destroyEPNS_11__tree_nodeISA_PvEE = comdat any

$_ZNKSt3__129_AllocatorDestroyRangeReverseINS_9allocatorIN9benchmark17BenchmarkReporter3RunEEEPS4_EclB7v170000Ev = comdat any

$_ZN9benchmark17BenchmarkReporter3RunaSEOS1_ = comdat any

$_ZN9benchmark13BenchmarkNameaSEOS0_ = comdat any

$_ZN9benchmark17BenchmarkReporter3RunaSERKS1_ = comdat any

$_ZNSt3__16__treeINS_12__value_typeINS_12basic_stringIcNS_11char_traitsIcEENS_9allocatorIcEEEEN9benchmark7CounterEEENS_19__map_value_compareIS7_SA_NS_4lessIS7_EELb1EEENS5_ISA_EEE14__assign_multiINS_21__tree_const_iteratorISA_PNS_11__tree_nodeISA_PvEElEEEEvT_SO_ = comdat any

$_ZNSt3__16__treeINS_12__value_typeINS_12basic_stringIcNS_11char_traitsIcEENS_9allocatorIcEEEEN9benchmark7CounterEEENS_19__map_value_compareIS7_SA_NS_4lessIS7_EELb1EEENS5_ISA_EEE19__node_insert_multiEPNS_11__tree_nodeISA_PvEE = comdat any

$_ZNSt3__16__treeINS_12__value_typeINS_12basic_stringIcNS_11char_traitsIcEENS_9allocatorIcEEEEN9benchmark7CounterEEENS_19__map_value_compareIS7_SA_NS_4lessIS7_EELb1EEENS5_ISA_EEE18_DetachedTreeCacheD2B7v170000Ev = comdat any

$_ZNSt3__16__treeINS_12__value_typeINS_12basic_stringIcNS_11char_traitsIcEENS_9allocatorIcEEEEN9benchmark7CounterEEENS_19__map_value_compareIS7_SA_NS_4lessIS7_EELb1EEENS5_ISA_EEE15__emplace_multiIJRKNS_4pairIKS7_S9_EEEEENS_15__tree_iteratorISA_PNS_11__tree_nodeISA_PvEElEEDpOT_ = comdat any

$_ZNKSt3__16vectorIN9benchmark17BenchmarkReporter3RunENS_9allocatorIS3_EEE20__throw_length_errorB7v170000Ev = comdat any

$_ZNSt3__114__split_bufferIN9benchmark17BenchmarkReporter3RunERNS_9allocatorIS3_EEE17__destruct_at_endB7v170000EPS3_ = comdat any

$_ZN9benchmark8internal12CheckHandlerC2EPKcS3_S3_i = comdat any

$_ZN9benchmark8internal12CheckHandlerD2Ev = comdat any

$_ZNSt3__124__put_character_sequenceB7v170000IcNS_11char_traitsIcEEEERNS_13basic_ostreamIT_T0_EES7_PKS4_m = comdat any

$_ZNSt3__116__pad_and_outputB7v170000IcNS_11char_traitsIcEEEENS_19ostreambuf_iteratorIT_T0_EES6_PKS4_S8_S8_RNS_8ios_baseES4_ = comdat any

$_ZN9benchmark8internal16CallAbortHandlerEv = comdat any

$_ZNSt3__16vectorIN9benchmark17BenchmarkReporter3RunENS_9allocatorIS3_EEE22__base_destruct_at_endB7v170000EPS3_ = comdat any

$_ZZN9benchmark8internal18GetNullLogInstanceEvE3log = comdat any

$_ZGVZN9benchmark8internal18GetNullLogInstanceEvE3log = comdat any

$_ZZN9benchmark8internal19GetErrorLogInstanceEvE3log = comdat any

$_ZGVZN9benchmark8internal19GetErrorLogInstanceEvE3log = comdat any

@_ZN12_GLOBAL__N_115ExpectedResultsE = internal global %"class.std::__1::vector" zeroinitializer, align 8
@__dso_handle = external hidden global i8
@.str = private unnamed_addr constant [14 x i8] c"error message\00", align 1
@_ZL27benchmark_uniq_2_benchmark_ = internal unnamed_addr global ptr null, align 8
@.str.3 = private unnamed_addr constant [20 x i8] c"BM_error_no_running\00", align 1
@dummy68 = hidden local_unnamed_addr global i32 0, align 4
@.str.6 = private unnamed_addr constant [6 x i8] c"false\00", align 1
@.str.7 = private unnamed_addr constant [112 x i8] c"/local/mnt2/workspace2/mnadeem/llvm/llvm-test-suite/MicroBenchmarks/libs/benchmark/test/skip_with_error_test.cc\00", align 1
@__PRETTY_FUNCTION__._Z23BM_error_before_runningRN9benchmark5StateE = private unnamed_addr constant [49 x i8] c"void BM_error_before_running(benchmark::State &)\00", align 1
@_ZL27benchmark_uniq_3_benchmark_ = internal unnamed_addr global ptr null, align 8
@.str.9 = private unnamed_addr constant [24 x i8] c"BM_error_before_running\00", align 1
@dummy77 = hidden local_unnamed_addr global i32 0, align 4
@__PRETTY_FUNCTION__._Z29BM_error_before_running_batchRN9benchmark5StateE = private unnamed_addr constant [55 x i8] c"void BM_error_before_running_batch(benchmark::State &)\00", align 1
@_ZL27benchmark_uniq_4_benchmark_ = internal unnamed_addr global ptr null, align 8
@.str.12 = private unnamed_addr constant [30 x i8] c"BM_error_before_running_batch\00", align 1
@dummy86 = hidden local_unnamed_addr global i32 0, align 4
@__PRETTY_FUNCTION__._Z33BM_error_before_running_range_forRN9benchmark5StateE = private unnamed_addr constant [59 x i8] c"void BM_error_before_running_range_for(benchmark::State &)\00", align 1
@_ZL27benchmark_uniq_5_benchmark_ = internal unnamed_addr global ptr null, align 8
@.str.15 = private unnamed_addr constant [34 x i8] c"BM_error_before_running_range_for\00", align 1
@dummy95 = hidden local_unnamed_addr global i32 0, align 4
@.str.17 = private unnamed_addr constant [11 x i8] c"first_iter\00", align 1
@__PRETTY_FUNCTION__._Z23BM_error_during_runningRN9benchmark5StateE = private unnamed_addr constant [49 x i8] c"void BM_error_during_running(benchmark::State &)\00", align 1
@_ZL27benchmark_uniq_6_benchmark_ = internal unnamed_addr global ptr null, align 8
@.str.19 = private unnamed_addr constant [24 x i8] c"BM_error_during_running\00", align 1
@dummy118 = hidden local_unnamed_addr global i32 0, align 4
@.str.21 = private unnamed_addr constant [13 x i8] c"/1/threads:1\00", align 1
@.str.22 = private unnamed_addr constant [13 x i8] c"/1/threads:2\00", align 1
@.str.23 = private unnamed_addr constant [13 x i8] c"/1/threads:4\00", align 1
@.str.24 = private unnamed_addr constant [13 x i8] c"/1/threads:8\00", align 1
@.str.25 = private unnamed_addr constant [13 x i8] c"/2/threads:1\00", align 1
@.str.26 = private unnamed_addr constant [13 x i8] c"/2/threads:2\00", align 1
@.str.27 = private unnamed_addr constant [13 x i8] c"/2/threads:4\00", align 1
@.str.28 = private unnamed_addr constant [13 x i8] c"/2/threads:8\00", align 1
@.str.29 = private unnamed_addr constant [70 x i8] c"state.max_iterations > 3 && \22test requires at least a few iterations\22\00", align 1
@__PRETTY_FUNCTION__._Z34BM_error_during_running_ranged_forRN9benchmark5StateE = private unnamed_addr constant [60 x i8] c"void BM_error_during_running_ranged_for(benchmark::State &)\00", align 1
@_ZL27benchmark_uniq_7_benchmark_ = internal unnamed_addr global ptr null, align 8
@.str.32 = private unnamed_addr constant [35 x i8] c"BM_error_during_running_ranged_for\00", align 1
@dummy140 = hidden local_unnamed_addr global i32 0, align 4
@.str.34 = private unnamed_addr constant [16 x i8] c"/1/iterations:5\00", align 1
@.str.35 = private unnamed_addr constant [16 x i8] c"/2/iterations:5\00", align 1
@_ZL27benchmark_uniq_8_benchmark_ = internal unnamed_addr global ptr null, align 8
@.str.37 = private unnamed_addr constant [23 x i8] c"BM_error_after_running\00", align 1
@dummy153 = hidden local_unnamed_addr global i32 0, align 4
@.str.39 = private unnamed_addr constant [11 x i8] c"/threads:1\00", align 1
@.str.40 = private unnamed_addr constant [11 x i8] c"/threads:2\00", align 1
@.str.41 = private unnamed_addr constant [11 x i8] c"/threads:4\00", align 1
@.str.42 = private unnamed_addr constant [11 x i8] c"/threads:8\00", align 1
@__PRETTY_FUNCTION__._Z21BM_error_while_pausedRN9benchmark5StateE = private unnamed_addr constant [47 x i8] c"void BM_error_while_paused(benchmark::State &)\00", align 1
@_ZL27benchmark_uniq_9_benchmark_ = internal unnamed_addr global ptr null, align 8
@.str.44 = private unnamed_addr constant [22 x i8] c"BM_error_while_paused\00", align 1
@dummy177 = hidden local_unnamed_addr global i32 0, align 4
@.str.46 = private unnamed_addr constant [28 x i8] c"EB != ExpectedResults.end()\00", align 1
@__PRETTY_FUNCTION__.main = private unnamed_addr constant [23 x i8] c"int main(int, char **)\00", align 1
@.str.47 = private unnamed_addr constant [28 x i8] c"EB == ExpectedResults.end()\00", align 1
@_ZTVN9benchmark8internal17FunctionBenchmarkE = external unnamed_addr constant { [5 x ptr] }, align 8
@.str.48 = private unnamed_addr constant [7 x i8] c"vector\00", align 1
@_ZTISt12length_error = external constant ptr
@_ZTVSt12length_error = external unnamed_addr constant { [5 x ptr] }, align 8
@_ZTISt20bad_array_new_length = external constant ptr
@.str.50 = private unnamed_addr constant [113 x i8] c"/local/mnt2/workspace2/mnadeem/llvm/llvm-test-suite/MicroBenchmarks/libs/benchmark/include/benchmark/benchmark.h\00", align 1
@.str.53 = private unnamed_addr constant [20 x i8] c"range_.size() > pos\00", align 1
@__PRETTY_FUNCTION__._ZNK9benchmark5State5rangeEm = private unnamed_addr constant [51 x i8] c"int64_t benchmark::State::range(std::size_t) const\00", align 1
@_ZTVN12_GLOBAL__N_112TestReporterE = internal unnamed_addr constant { [9 x ptr] } { [9 x ptr] [ptr null, ptr @_ZTIN12_GLOBAL__N_112TestReporterE, ptr @_ZN12_GLOBAL__N_112TestReporter13ReportContextERKN9benchmark17BenchmarkReporter7ContextE, ptr @_ZN12_GLOBAL__N_112TestReporter10ReportRunsERKNSt3__16vectorIN9benchmark17BenchmarkReporter3RunENS1_9allocatorIS5_EEEE, ptr @_ZN9benchmark17BenchmarkReporter8FinalizeEv, ptr @_ZN12_GLOBAL__N_112TestReporterD2Ev, ptr @_ZN12_GLOBAL__N_112TestReporterD0Ev, ptr @_ZN9benchmark15ConsoleReporter12PrintRunDataERKNS_17BenchmarkReporter3RunE, ptr @_ZN9benchmark15ConsoleReporter11PrintHeaderERKNS_17BenchmarkReporter3RunE] }, align 8
@_ZTVN10__cxxabiv120__si_class_type_infoE = external global ptr
@_ZTSN12_GLOBAL__N_112TestReporterE = internal constant [31 x i8] c"N12_GLOBAL__N_112TestReporterE\00", align 1
@_ZTIN9benchmark15ConsoleReporterE = external constant ptr
@_ZTIN12_GLOBAL__N_112TestReporterE = internal constant { ptr, ptr, ptr } { ptr getelementptr inbounds (ptr, ptr @_ZTVN10__cxxabiv120__si_class_type_infoE, i64 2), ptr @_ZTSN12_GLOBAL__N_112TestReporterE, ptr @_ZTIN9benchmark15ConsoleReporterE }, align 8
@_ZTVN9benchmark15ConsoleReporterE = external unnamed_addr constant { [9 x ptr] }, align 8
@.str.54 = private unnamed_addr constant [29 x i8] c"name == run.benchmark_name()\00", align 1
@__func__._ZNK12_GLOBAL__N_18TestCase8CheckRunERKN9benchmark17BenchmarkReporter3RunE = private unnamed_addr constant [9 x i8] c"CheckRun\00", align 1
@.str.55 = private unnamed_addr constant [10 x i8] c"expected \00", align 1
@.str.56 = private unnamed_addr constant [6 x i8] c" got \00", align 1
@.str.57 = private unnamed_addr constant [37 x i8] c"error_occurred == run.error_occurred\00", align 1
@.str.58 = private unnamed_addr constant [35 x i8] c"error_message == run.error_message\00", align 1
@.str.59 = private unnamed_addr constant [20 x i8] c"run.iterations != 0\00", align 1
@_ZNSt3__15ctypeIcE2idE = external global %"class.std::__1::locale::id", align 8
@_ZZN9benchmark8internal18GetNullLogInstanceEvE3log = linkonce_odr hidden local_unnamed_addr global %"class.benchmark::internal::LogType" zeroinitializer, comdat, align 8
@_ZGVZN9benchmark8internal18GetNullLogInstanceEvE3log = linkonce_odr hidden global i64 0, comdat, align 8
@.str.61 = private unnamed_addr constant [2 x i8] c":\00", align 1
@.str.62 = private unnamed_addr constant [3 x i8] c": \00", align 1
@.str.63 = private unnamed_addr constant [10 x i8] c": Check `\00", align 1
@.str.64 = private unnamed_addr constant [11 x i8] c"' failed. \00", align 1
@_ZZN9benchmark8internal19GetErrorLogInstanceEvE3log = linkonce_odr hidden global %"class.benchmark::internal::LogType" zeroinitializer, comdat, align 8
@_ZGVZN9benchmark8internal19GetErrorLogInstanceEvE3log = linkonce_odr hidden global i64 0, comdat, align 8
@_ZNSt3__14clogE = external global %"class.std::__1::basic_ostream", align 8
@llvm.global_ctors = appending global [1 x { i32, ptr, ptr }] [{ i32, ptr, ptr } { i32 65535, ptr @_GLOBAL__sub_I_skip_with_error_test.cc, ptr null }]

declare noundef i32 @_ZN9benchmark8internal17InitializeStreamsEv() local_unnamed_addr #0

; Function Attrs: nounwind uwtable
define internal void @_ZNSt3__16vectorIN12_GLOBAL__N_18TestCaseENS_9allocatorIS2_EEED2B7v170000Ev(ptr noundef nonnull align 8 dereferenceable(24) %this) unnamed_addr #1 align 2 personality ptr @__gxx_personality_v0 {
entry:
  %0 = load ptr, ptr %this, align 8, !tbaa !5
  %cmp.not.i = icmp eq ptr %0, null
  br i1 %cmp.not.i, label %invoke.cont2, label %if.then.i

if.then.i:                                        ; preds = %entry
  %__end_.i.i.i = getelementptr inbounds %"class.std::__1::vector", ptr %this, i64 0, i32 1
  %1 = load ptr, ptr %__end_.i.i.i, align 8, !tbaa !12
  %cmp.not6.i.i.i = icmp eq ptr %1, %0
  br i1 %cmp.not6.i.i.i, label %_ZNSt3__16vectorIN12_GLOBAL__N_18TestCaseENS_9allocatorIS2_EEE7__clearB7v170000Ev.exit.i, label %while.body.i.i.i

while.body.i.i.i:                                 ; preds = %if.then.i, %_ZNSt3__116allocator_traitsINS_9allocatorIN12_GLOBAL__N_18TestCaseEEEE7destroyB7v170000IS3_vEEvRS4_PT_.exit.i.i.i
  %__soon_to_be_end.07.i.i.i = phi ptr [ %incdec.ptr.i.i.i, %_ZNSt3__116allocator_traitsINS_9allocatorIN12_GLOBAL__N_18TestCaseEEEE7destroyB7v170000IS3_vEEvRS4_PT_.exit.i.i.i ], [ %1, %if.then.i ]
  %incdec.ptr.i.i.i = getelementptr inbounds %"struct.(anonymous namespace)::TestCase", ptr %__soon_to_be_end.07.i.i.i, i64 -1
  %error_message.i.i.i.i.i.i = getelementptr %"struct.(anonymous namespace)::TestCase", ptr %__soon_to_be_end.07.i.i.i, i64 -1, i32 2
  %bf.load.i.i.i.i.i.i.i.i = load i8, ptr %error_message.i.i.i.i.i.i, align 8
  %bf.clear.i.i.i.i.i.i.i.i = and i8 %bf.load.i.i.i.i.i.i.i.i, 1
  %tobool.i.not.i.i.i.i.i.i.i = icmp eq i8 %bf.clear.i.i.i.i.i.i.i.i, 0
  br i1 %tobool.i.not.i.i.i.i.i.i.i, label %_ZNSt3__112basic_stringIcNS_11char_traitsIcEENS_9allocatorIcEEED2Ev.exit.i.i.i.i.i.i, label %if.then.i.i.i.i.i.i.i

if.then.i.i.i.i.i.i.i:                            ; preds = %while.body.i.i.i
  %__data_.i.i.i.i.i.i.i.i = getelementptr %"struct.(anonymous namespace)::TestCase", ptr %__soon_to_be_end.07.i.i.i, i64 -1, i32 2, i32 0, i32 0, i32 0, i32 0, i32 0, i32 2
  %2 = load ptr, ptr %__data_.i.i.i.i.i.i.i.i, align 8, !tbaa !13
  tail call void @_ZdlPv(ptr noundef %2) #25
  br label %_ZNSt3__112basic_stringIcNS_11char_traitsIcEENS_9allocatorIcEEED2Ev.exit.i.i.i.i.i.i

_ZNSt3__112basic_stringIcNS_11char_traitsIcEENS_9allocatorIcEEED2Ev.exit.i.i.i.i.i.i: ; preds = %if.then.i.i.i.i.i.i.i, %while.body.i.i.i
  %bf.load.i.i2.i.i.i.i.i.i = load i8, ptr %incdec.ptr.i.i.i, align 8
  %bf.clear.i.i3.i.i.i.i.i.i = and i8 %bf.load.i.i2.i.i.i.i.i.i, 1
  %tobool.i.not.i4.i.i.i.i.i.i = icmp eq i8 %bf.clear.i.i3.i.i.i.i.i.i, 0
  br i1 %tobool.i.not.i4.i.i.i.i.i.i, label %_ZNSt3__116allocator_traitsINS_9allocatorIN12_GLOBAL__N_18TestCaseEEEE7destroyB7v170000IS3_vEEvRS4_PT_.exit.i.i.i, label %if.then.i6.i.i.i.i.i.i

if.then.i6.i.i.i.i.i.i:                           ; preds = %_ZNSt3__112basic_stringIcNS_11char_traitsIcEENS_9allocatorIcEEED2Ev.exit.i.i.i.i.i.i
  %__data_.i.i5.i.i.i.i.i.i = getelementptr %"struct.(anonymous namespace)::TestCase", ptr %__soon_to_be_end.07.i.i.i, i64 -1, i32 0, i32 0, i32 0, i32 0, i32 0, i32 0, i32 2
  %3 = load ptr, ptr %__data_.i.i5.i.i.i.i.i.i, align 8, !tbaa !13
  tail call void @_ZdlPv(ptr noundef %3) #25
  br label %_ZNSt3__116allocator_traitsINS_9allocatorIN12_GLOBAL__N_18TestCaseEEEE7destroyB7v170000IS3_vEEvRS4_PT_.exit.i.i.i

_ZNSt3__116allocator_traitsINS_9allocatorIN12_GLOBAL__N_18TestCaseEEEE7destroyB7v170000IS3_vEEvRS4_PT_.exit.i.i.i: ; preds = %if.then.i6.i.i.i.i.i.i, %_ZNSt3__112basic_stringIcNS_11char_traitsIcEENS_9allocatorIcEEED2Ev.exit.i.i.i.i.i.i
  %cmp.not.i.i.i = icmp eq ptr %incdec.ptr.i.i.i, %0
  br i1 %cmp.not.i.i.i, label %_ZNSt3__16vectorIN12_GLOBAL__N_18TestCaseENS_9allocatorIS2_EEE7__clearB7v170000Ev.exit.loopexit.i, label %while.body.i.i.i

_ZNSt3__16vectorIN12_GLOBAL__N_18TestCaseENS_9allocatorIS2_EEE7__clearB7v170000Ev.exit.loopexit.i: ; preds = %_ZNSt3__116allocator_traitsINS_9allocatorIN12_GLOBAL__N_18TestCaseEEEE7destroyB7v170000IS3_vEEvRS4_PT_.exit.i.i.i
  %.pre11.i = load ptr, ptr %this, align 8, !tbaa !5
  br label %_ZNSt3__16vectorIN12_GLOBAL__N_18TestCaseENS_9allocatorIS2_EEE7__clearB7v170000Ev.exit.i

_ZNSt3__16vectorIN12_GLOBAL__N_18TestCaseENS_9allocatorIS2_EEE7__clearB7v170000Ev.exit.i: ; preds = %_ZNSt3__16vectorIN12_GLOBAL__N_18TestCaseENS_9allocatorIS2_EEE7__clearB7v170000Ev.exit.loopexit.i, %if.then.i
  %4 = phi ptr [ %.pre11.i, %_ZNSt3__16vectorIN12_GLOBAL__N_18TestCaseENS_9allocatorIS2_EEE7__clearB7v170000Ev.exit.loopexit.i ], [ %0, %if.then.i ]
  store ptr %0, ptr %__end_.i.i.i, align 8, !tbaa !12
  tail call void @_ZdlPv(ptr noundef %4) #25
  br label %invoke.cont2

invoke.cont2:                                     ; preds = %_ZNSt3__16vectorIN12_GLOBAL__N_18TestCaseENS_9allocatorIS2_EEE7__clearB7v170000Ev.exit.i, %entry
  ret void
}

; Function Attrs: nofree nounwind
declare i32 @__cxa_atexit(ptr, ptr, ptr) local_unnamed_addr #2

; Function Attrs: mustprogress uwtable
define hidden void @_Z19BM_error_no_runningRN9benchmark5StateE(ptr noundef nonnull align 8 dereferenceable(120) %state) #3 {
entry:
  tail call void @_ZN9benchmark5State13SkipWithErrorEPKc(ptr noundef nonnull align 8 dereferenceable(120) %state, ptr noundef nonnull @.str)
  ret void
}

declare void @_ZN9benchmark5State13SkipWithErrorEPKc(ptr noundef nonnull align 8 dereferenceable(120), ptr noundef) local_unnamed_addr #0

declare noundef ptr @_ZN9benchmark8internal25RegisterBenchmarkInternalEPNS0_9BenchmarkE(ptr noundef) local_unnamed_addr #0

; Function Attrs: nobuiltin allocsize(0)
declare noundef nonnull ptr @_Znwm(i64 noundef) local_unnamed_addr #4

declare i32 @__gxx_personality_v0(...)

; Function Attrs: nobuiltin nounwind
declare void @_ZdlPv(ptr noundef) local_unnamed_addr #5

; Function Attrs: uwtable
define internal fastcc void @_ZN12_GLOBAL__N_18AddCasesEPKcRKSt16initializer_listINS_8TestCaseEE(ptr noundef %base_name, ptr %v.0.val, i64 %v.8.val) unnamed_addr #6 personality ptr @__gxx_personality_v0 {
entry:
  %TC = alloca %"struct.(anonymous namespace)::TestCase", align 8
  %ref.tmp = alloca %"class.std::__1::basic_string", align 8
  %add.ptr.i = getelementptr inbounds %"struct.(anonymous namespace)::TestCase", ptr %v.0.val, i64 %v.8.val
  %cmp.not1 = icmp eq i64 %v.8.val, 0
  br i1 %cmp.not1, label %for.cond.cleanup, label %for.body.lr.ph

for.body.lr.ph:                                   ; preds = %entry
  %error_occurred.i = getelementptr inbounds %"struct.(anonymous namespace)::TestCase", ptr %TC, i64 0, i32 1
  %error_message.i = getelementptr inbounds %"struct.(anonymous namespace)::TestCase", ptr %TC, i64 0, i32 2
  %__data_.i.i.i20 = getelementptr inbounds %"struct.std::__1::basic_string<char>::__long", ptr %TC, i64 0, i32 2
  %__data_.i.i.i29 = getelementptr inbounds %"struct.(anonymous namespace)::TestCase", ptr %TC, i64 0, i32 2, i32 0, i32 0, i32 0, i32 0, i32 0, i32 2
  br label %for.body

for.cond.cleanup:                                 ; preds = %_ZN12_GLOBAL__N_18TestCaseD2Ev.exit, %entry
  ret void

for.body:                                         ; preds = %for.body.lr.ph, %_ZN12_GLOBAL__N_18TestCaseD2Ev.exit
  %__begin1.02 = phi ptr [ %v.0.val, %for.body.lr.ph ], [ %incdec.ptr, %_ZN12_GLOBAL__N_18TestCaseD2Ev.exit ]
  call void @llvm.lifetime.start.p0(i64 56, ptr nonnull %TC) #26
  call void @_ZNSt3__112basic_stringIcNS_11char_traitsIcEENS_9allocatorIcEEEC1ERKS5_(ptr noundef nonnull align 8 dereferenceable(24) %TC, ptr noundef nonnull align 8 dereferenceable(24) %__begin1.02)
  %error_occurred3.i = getelementptr inbounds %"struct.(anonymous namespace)::TestCase", ptr %__begin1.02, i64 0, i32 1
  %0 = load i8, ptr %error_occurred3.i, align 8, !tbaa !14, !range !21, !noundef !22
  store i8 %0, ptr %error_occurred.i, align 8, !tbaa !14
  %error_message4.i = getelementptr inbounds %"struct.(anonymous namespace)::TestCase", ptr %__begin1.02, i64 0, i32 2
  invoke void @_ZNSt3__112basic_stringIcNS_11char_traitsIcEENS_9allocatorIcEEEC1ERKS5_(ptr noundef nonnull align 8 dereferenceable(24) %error_message.i, ptr noundef nonnull align 8 dereferenceable(24) %error_message4.i)
          to label %_ZN12_GLOBAL__N_18TestCaseC2ERKS0_.exit unwind label %lpad.i

lpad.i:                                           ; preds = %for.body
  %1 = landingpad { ptr, i32 }
          cleanup
  %bf.load.i.i.i = load i8, ptr %TC, align 8
  %bf.clear.i.i.i = and i8 %bf.load.i.i.i, 1
  %tobool.i.not.i.i = icmp eq i8 %bf.clear.i.i.i, 0
  br i1 %tobool.i.not.i.i, label %common.resume, label %if.then.i.i

if.then.i.i:                                      ; preds = %lpad.i
  %2 = load ptr, ptr %__data_.i.i.i20, align 8, !tbaa !13
  call void @_ZdlPv(ptr noundef %2) #25
  br label %common.resume

common.resume:                                    ; preds = %lpad.i, %if.then.i.i, %ehcleanup
  %common.resume.op = phi { ptr, i32 } [ %.pn, %ehcleanup ], [ %1, %if.then.i.i ], [ %1, %lpad.i ]
  resume { ptr, i32 } %common.resume.op

_ZN12_GLOBAL__N_18TestCaseC2ERKS0_.exit:          ; preds = %for.body
  call void @llvm.lifetime.start.p0(i64 24, ptr nonnull %ref.tmp) #26
  invoke void @_ZNSt3__1plIcNS_11char_traitsIcEENS_9allocatorIcEEEENS_12basic_stringIT_T0_T1_EEPKS6_RKS9_(ptr nonnull sret(%"class.std::__1::basic_string") align 8 %ref.tmp, ptr noundef %base_name, ptr noundef nonnull align 8 dereferenceable(24) %TC)
          to label %invoke.cont unwind label %lpad

invoke.cont:                                      ; preds = %_ZN12_GLOBAL__N_18TestCaseC2ERKS0_.exit
  %bf.load.i.i.i17 = load i8, ptr %TC, align 8
  %bf.clear.i.i.i18 = and i8 %bf.load.i.i.i17, 1
  %tobool.i.not.i.i19 = icmp eq i8 %bf.clear.i.i.i18, 0
  br i1 %tobool.i.not.i.i19, label %_ZNSt3__112basic_stringIcNS_11char_traitsIcEENS_9allocatorIcEEED2Ev.exit, label %if.then.i.i21

if.then.i.i21:                                    ; preds = %invoke.cont
  %3 = load ptr, ptr %__data_.i.i.i20, align 8, !tbaa !13
  call void @_ZdlPv(ptr noundef %3) #25
  br label %_ZNSt3__112basic_stringIcNS_11char_traitsIcEENS_9allocatorIcEEED2Ev.exit

_ZNSt3__112basic_stringIcNS_11char_traitsIcEENS_9allocatorIcEEED2Ev.exit: ; preds = %if.then.i.i21, %invoke.cont
  call void @llvm.memcpy.p0.p0.i64(ptr noundef nonnull align 8 dereferenceable(24) %TC, ptr noundef nonnull align 8 dereferenceable(24) %ref.tmp, i64 24, i1 false), !tbaa.struct !23
  call void @llvm.lifetime.end.p0(i64 24, ptr nonnull %ref.tmp) #26
  %4 = load ptr, ptr getelementptr inbounds (%"class.std::__1::vector", ptr @_ZN12_GLOBAL__N_115ExpectedResultsE, i64 0, i32 1), align 8, !tbaa !12
  %5 = load ptr, ptr getelementptr inbounds (%"class.std::__1::vector", ptr @_ZN12_GLOBAL__N_115ExpectedResultsE, i64 0, i32 2), align 8, !tbaa !26
  %cmp.i = icmp ult ptr %4, %5
  br i1 %cmp.i, label %if.then.i22, label %if.else.i

if.then.i22:                                      ; preds = %_ZNSt3__112basic_stringIcNS_11char_traitsIcEENS_9allocatorIcEEED2Ev.exit
  call void @llvm.memcpy.p0.p0.i64(ptr noundef nonnull align 8 dereferenceable(24) %4, ptr noundef nonnull align 8 dereferenceable(24) %TC, i64 24, i1 false)
  call void @llvm.memset.p0.i64(ptr noundef nonnull align 8 dereferenceable(24) %TC, i8 0, i64 24, i1 false)
  %error_occurred.i.i.i.i.i = getelementptr inbounds %"struct.(anonymous namespace)::TestCase", ptr %4, i64 0, i32 1
  %6 = load i8, ptr %error_occurred.i, align 8, !tbaa !14, !range !21, !noundef !22
  store i8 %6, ptr %error_occurred.i.i.i.i.i, align 8, !tbaa !14
  %error_message.i.i.i.i.i = getelementptr inbounds %"struct.(anonymous namespace)::TestCase", ptr %4, i64 0, i32 2
  call void @llvm.memcpy.p0.p0.i64(ptr noundef nonnull align 8 dereferenceable(24) %error_message.i.i.i.i.i, ptr noundef nonnull align 8 dereferenceable(24) %error_message.i, i64 24, i1 false)
  call void @llvm.memset.p0.i64(ptr noundef nonnull align 8 dereferenceable(24) %error_message.i, i8 0, i64 24, i1 false)
  %incdec.ptr.i.i = getelementptr inbounds %"struct.(anonymous namespace)::TestCase", ptr %4, i64 1
  store ptr %incdec.ptr.i.i, ptr getelementptr inbounds (%"class.std::__1::vector", ptr @_ZN12_GLOBAL__N_115ExpectedResultsE, i64 0, i32 1), align 8, !tbaa !12
  br label %invoke.cont5

if.else.i:                                        ; preds = %_ZNSt3__112basic_stringIcNS_11char_traitsIcEENS_9allocatorIcEEED2Ev.exit
  %_ZN12_GLOBAL__N_115ExpectedResultsE.val11.i.i = load ptr, ptr @_ZN12_GLOBAL__N_115ExpectedResultsE, align 8, !tbaa !5
  %sub.ptr.lhs.cast.i.i.i = ptrtoint ptr %4 to i64
  %sub.ptr.rhs.cast.i.i.i = ptrtoint ptr %_ZN12_GLOBAL__N_115ExpectedResultsE.val11.i.i to i64
  %sub.ptr.sub.i.i.i = sub i64 %sub.ptr.lhs.cast.i.i.i, %sub.ptr.rhs.cast.i.i.i
  %sub.ptr.div.i.i.i = sdiv exact i64 %sub.ptr.sub.i.i.i, 56
  %add.i.i = add nsw i64 %sub.ptr.div.i.i.i, 1
  %cmp.i.i.i = icmp ugt i64 %add.i.i, 329406144173384850
  br i1 %cmp.i.i.i, label %if.then.i.i.i, label %_ZNKSt3__16vectorIN12_GLOBAL__N_18TestCaseENS_9allocatorIS2_EEE11__recommendB7v170000Em.exit.i.i

if.then.i.i.i:                                    ; preds = %if.else.i
  invoke fastcc void @_ZNKSt3__16vectorIN12_GLOBAL__N_18TestCaseENS_9allocatorIS2_EEE20__throw_length_errorB7v170000Ev() #27
          to label %.noexc unwind label %lpad4.loopexit.split-lp

.noexc:                                           ; preds = %if.then.i.i.i
  unreachable

_ZNKSt3__16vectorIN12_GLOBAL__N_18TestCaseENS_9allocatorIS2_EEE11__recommendB7v170000Em.exit.i.i: ; preds = %if.else.i
  %sub.ptr.lhs.cast.i.i.i.i = ptrtoint ptr %5 to i64
  %sub.ptr.sub.i.i.i.i = sub i64 %sub.ptr.lhs.cast.i.i.i.i, %sub.ptr.rhs.cast.i.i.i
  %sub.ptr.div.i.i.i.i = sdiv exact i64 %sub.ptr.sub.i.i.i.i, 56
  %cmp3.not.i.i.i = icmp ult i64 %sub.ptr.div.i.i.i.i, 164703072086692425
  %mul.i.i.i = shl nuw nsw i64 %sub.ptr.div.i.i.i.i, 1
  %.sroa.speculated.i.i.i = call i64 @llvm.umax.i64(i64 %mul.i.i.i, i64 %add.i.i)
  %retval.0.i.i.i = select i1 %cmp3.not.i.i.i, i64 %.sroa.speculated.i.i.i, i64 329406144173384850
  %cmp.i17.i.i = icmp eq i64 %retval.0.i.i.i, 0
  br i1 %cmp.i17.i.i, label %invoke.cont.i.i, label %if.else.i.i.i

if.else.i.i.i:                                    ; preds = %_ZNKSt3__16vectorIN12_GLOBAL__N_18TestCaseENS_9allocatorIS2_EEE11__recommendB7v170000Em.exit.i.i
  %cmp.i.i.i.i.i = icmp ugt i64 %retval.0.i.i.i, 329406144173384850
  br i1 %cmp.i.i.i.i.i, label %if.then.i.i.i.i.i, label %_ZNSt3__119__allocate_at_leastB7v170000INS_9allocatorIN12_GLOBAL__N_18TestCaseEEEEENS_19__allocation_resultINS_16allocator_traitsIT_E7pointerEEERS7_m.exit.i.i.i

if.then.i.i.i.i.i:                                ; preds = %if.else.i.i.i
  invoke void @_ZSt28__throw_bad_array_new_lengthB7v170000v() #27
          to label %.noexc23 unwind label %lpad4.loopexit.split-lp

.noexc23:                                         ; preds = %if.then.i.i.i.i.i
  unreachable

_ZNSt3__119__allocate_at_leastB7v170000INS_9allocatorIN12_GLOBAL__N_18TestCaseEEEEENS_19__allocation_resultINS_16allocator_traitsIT_E7pointerEEERS7_m.exit.i.i.i: ; preds = %if.else.i.i.i
  %mul.i.i.i.i.i = mul nuw i64 %retval.0.i.i.i, 56
  %call.i.i.i.i.i.i.i24 = invoke noalias noundef nonnull ptr @_Znwm(i64 noundef %mul.i.i.i.i.i) #28
          to label %invoke.cont.i.i unwind label %lpad4.loopexit

invoke.cont.i.i:                                  ; preds = %_ZNSt3__119__allocate_at_leastB7v170000INS_9allocatorIN12_GLOBAL__N_18TestCaseEEEEENS_19__allocation_resultINS_16allocator_traitsIT_E7pointerEEERS7_m.exit.i.i.i, %_ZNKSt3__16vectorIN12_GLOBAL__N_18TestCaseENS_9allocatorIS2_EEE11__recommendB7v170000Em.exit.i.i
  %storemerge.i.i.i = phi ptr [ null, %_ZNKSt3__16vectorIN12_GLOBAL__N_18TestCaseENS_9allocatorIS2_EEE11__recommendB7v170000Em.exit.i.i ], [ %call.i.i.i.i.i.i.i24, %_ZNSt3__119__allocate_at_leastB7v170000INS_9allocatorIN12_GLOBAL__N_18TestCaseEEEEENS_19__allocation_resultINS_16allocator_traitsIT_E7pointerEEERS7_m.exit.i.i.i ]
  %add.ptr.i.i.i = getelementptr inbounds %"struct.(anonymous namespace)::TestCase", ptr %storemerge.i.i.i, i64 %sub.ptr.div.i.i.i
  %add.ptr6.i.i.i = getelementptr inbounds %"struct.(anonymous namespace)::TestCase", ptr %storemerge.i.i.i, i64 %retval.0.i.i.i
  call void @llvm.memcpy.p0.p0.i64(ptr noundef nonnull align 8 dereferenceable(24) %add.ptr.i.i.i, ptr noundef nonnull align 8 dereferenceable(24) %TC, i64 24, i1 false)
  call void @llvm.memset.p0.i64(ptr noundef nonnull align 8 dereferenceable(24) %TC, i8 0, i64 24, i1 false)
  %error_occurred.i.i.i.i3.i = getelementptr inbounds %"struct.(anonymous namespace)::TestCase", ptr %storemerge.i.i.i, i64 %sub.ptr.div.i.i.i, i32 1
  %7 = load i8, ptr %error_occurred.i, align 8, !tbaa !14, !range !21, !noundef !22
  store i8 %7, ptr %error_occurred.i.i.i.i3.i, align 8, !tbaa !14
  %error_message.i.i.i.i5.i = getelementptr inbounds %"struct.(anonymous namespace)::TestCase", ptr %storemerge.i.i.i, i64 %sub.ptr.div.i.i.i, i32 2
  call void @llvm.memcpy.p0.p0.i64(ptr noundef nonnull align 8 dereferenceable(24) %error_message.i.i.i.i5.i, ptr noundef nonnull align 8 dereferenceable(24) %error_message.i, i64 24, i1 false)
  call void @llvm.memset.p0.i64(ptr noundef nonnull align 8 dereferenceable(24) %error_message.i, i8 0, i64 24, i1 false)
  %incdec.ptr.i7.i = getelementptr inbounds %"struct.(anonymous namespace)::TestCase", ptr %add.ptr.i.i.i, i64 1
  %cmp.i.not17.i.i.i.i = icmp eq ptr %4, %_ZN12_GLOBAL__N_115ExpectedResultsE.val11.i.i
  br i1 %cmp.i.not17.i.i.i.i, label %invoke.cont7.thread.i.i, label %invoke.cont4.i.i.i.i

invoke.cont7.thread.i.i:                          ; preds = %invoke.cont.i.i
  store ptr %add.ptr.i.i.i, ptr @_ZN12_GLOBAL__N_115ExpectedResultsE, align 8, !tbaa !26
  store ptr %incdec.ptr.i7.i, ptr getelementptr inbounds (%"class.std::__1::vector", ptr @_ZN12_GLOBAL__N_115ExpectedResultsE, i64 0, i32 1), align 8, !tbaa !26
  store ptr %add.ptr6.i.i.i, ptr getelementptr inbounds (%"class.std::__1::vector", ptr @_ZN12_GLOBAL__N_115ExpectedResultsE, i64 0, i32 2), align 8, !tbaa !26
  br label %_ZNSt3__114__split_bufferIN12_GLOBAL__N_18TestCaseERNS_9allocatorIS2_EEE5clearB7v170000Ev.exit.i.i.i

invoke.cont4.i.i.i.i:                             ; preds = %invoke.cont.i.i, %invoke.cont4.i.i.i.i
  %__first2.val19.i.i.i.i = phi ptr [ %incdec.ptr.i.i.i.i.i.i.i.i, %invoke.cont4.i.i.i.i ], [ %add.ptr.i.i.i, %invoke.cont.i.i ]
  %__first1.sroa.1.018.i.i.i.i = phi ptr [ %incdec.ptr.i.i.i.i.i, %invoke.cont4.i.i.i.i ], [ %4, %invoke.cont.i.i ]
  %incdec.ptr.i.i.i.i.i.i.i.i = getelementptr inbounds %"struct.(anonymous namespace)::TestCase", ptr %__first2.val19.i.i.i.i, i64 -1
  %incdec.ptr.i.i.i.i.i = getelementptr inbounds %"struct.(anonymous namespace)::TestCase", ptr %__first1.sroa.1.018.i.i.i.i, i64 -1
  call void @llvm.memcpy.p0.p0.i64(ptr noundef nonnull align 8 dereferenceable(24) %incdec.ptr.i.i.i.i.i.i.i.i, ptr noundef nonnull align 8 dereferenceable(24) %incdec.ptr.i.i.i.i.i, i64 24, i1 false)
  call void @llvm.memset.p0.i64(ptr noundef nonnull align 8 dereferenceable(24) %incdec.ptr.i.i.i.i.i, i8 0, i64 24, i1 false)
  %error_occurred.i.i.i.i.i.i.i = getelementptr %"struct.(anonymous namespace)::TestCase", ptr %__first2.val19.i.i.i.i, i64 -1, i32 1
  %error_occurred3.i.i.i.i.i.i.i = getelementptr %"struct.(anonymous namespace)::TestCase", ptr %__first1.sroa.1.018.i.i.i.i, i64 -1, i32 1
  %8 = load i8, ptr %error_occurred3.i.i.i.i.i.i.i, align 8, !tbaa !14, !range !21, !noundef !22
  store i8 %8, ptr %error_occurred.i.i.i.i.i.i.i, align 8, !tbaa !14
  %error_message.i.i.i.i.i.i.i = getelementptr %"struct.(anonymous namespace)::TestCase", ptr %__first2.val19.i.i.i.i, i64 -1, i32 2
  %error_message4.i.i.i.i.i.i.i = getelementptr %"struct.(anonymous namespace)::TestCase", ptr %__first1.sroa.1.018.i.i.i.i, i64 -1, i32 2
  call void @llvm.memcpy.p0.p0.i64(ptr noundef nonnull align 8 dereferenceable(24) %error_message.i.i.i.i.i.i.i, ptr noundef nonnull align 8 dereferenceable(24) %error_message4.i.i.i.i.i.i.i, i64 24, i1 false)
  call void @llvm.memset.p0.i64(ptr noundef nonnull align 8 dereferenceable(24) %error_message4.i.i.i.i.i.i.i, i8 0, i64 24, i1 false)
  %cmp.i.not.i.i.i.i = icmp eq ptr %incdec.ptr.i.i.i.i.i, %_ZN12_GLOBAL__N_115ExpectedResultsE.val11.i.i
  br i1 %cmp.i.not.i.i.i.i, label %invoke.cont7.i.i, label %invoke.cont4.i.i.i.i, !llvm.loop !27

invoke.cont7.i.i:                                 ; preds = %invoke.cont4.i.i.i.i
  %.pre.i.i.i = load ptr, ptr @_ZN12_GLOBAL__N_115ExpectedResultsE, align 8, !tbaa !26
  %.pre1.i.i.i = load ptr, ptr getelementptr inbounds (%"class.std::__1::vector", ptr @_ZN12_GLOBAL__N_115ExpectedResultsE, i64 0, i32 1), align 8, !tbaa !26
  store ptr %incdec.ptr.i.i.i.i.i.i.i.i, ptr @_ZN12_GLOBAL__N_115ExpectedResultsE, align 8, !tbaa !26
  store ptr %incdec.ptr.i7.i, ptr getelementptr inbounds (%"class.std::__1::vector", ptr @_ZN12_GLOBAL__N_115ExpectedResultsE, i64 0, i32 1), align 8, !tbaa !26
  store ptr %add.ptr6.i.i.i, ptr getelementptr inbounds (%"class.std::__1::vector", ptr @_ZN12_GLOBAL__N_115ExpectedResultsE, i64 0, i32 2), align 8, !tbaa !26
  %cmp.not4.i.i.i.i.i.i = icmp eq ptr %.pre1.i.i.i, %.pre.i.i.i
  br i1 %cmp.not4.i.i.i.i.i.i, label %_ZNSt3__114__split_bufferIN12_GLOBAL__N_18TestCaseERNS_9allocatorIS2_EEE5clearB7v170000Ev.exit.i.i.i, label %while.body.i.i.i.i.i.i

while.body.i.i.i.i.i.i:                           ; preds = %invoke.cont7.i.i, %_ZNSt3__116allocator_traitsINS_9allocatorIN12_GLOBAL__N_18TestCaseEEEE7destroyB7v170000IS3_vEEvRS4_PT_.exit.i.i.i.i.i.i
  %9 = phi ptr [ %incdec.ptr.i.i.i.i.i.i, %_ZNSt3__116allocator_traitsINS_9allocatorIN12_GLOBAL__N_18TestCaseEEEE7destroyB7v170000IS3_vEEvRS4_PT_.exit.i.i.i.i.i.i ], [ %.pre1.i.i.i, %invoke.cont7.i.i ]
  %incdec.ptr.i.i.i.i.i.i = getelementptr inbounds %"struct.(anonymous namespace)::TestCase", ptr %9, i64 -1
  %error_message.i.i.i.i.i.i.i.i.i = getelementptr %"struct.(anonymous namespace)::TestCase", ptr %9, i64 -1, i32 2
  %bf.load.i.i.i.i.i.i.i.i.i.i.i = load i8, ptr %error_message.i.i.i.i.i.i.i.i.i, align 8
  %bf.clear.i.i.i.i.i.i.i.i.i.i.i = and i8 %bf.load.i.i.i.i.i.i.i.i.i.i.i, 1
  %tobool.i.not.i.i.i.i.i.i.i.i.i.i = icmp eq i8 %bf.clear.i.i.i.i.i.i.i.i.i.i.i, 0
  br i1 %tobool.i.not.i.i.i.i.i.i.i.i.i.i, label %_ZNSt3__112basic_stringIcNS_11char_traitsIcEENS_9allocatorIcEEED2Ev.exit.i.i.i.i.i.i.i.i.i, label %if.then.i.i.i.i.i.i.i.i.i.i

if.then.i.i.i.i.i.i.i.i.i.i:                      ; preds = %while.body.i.i.i.i.i.i
  %__data_.i.i.i.i.i.i.i.i.i.i.i = getelementptr %"struct.(anonymous namespace)::TestCase", ptr %9, i64 -1, i32 2, i32 0, i32 0, i32 0, i32 0, i32 0, i32 2
  %10 = load ptr, ptr %__data_.i.i.i.i.i.i.i.i.i.i.i, align 8, !tbaa !13
  call void @_ZdlPv(ptr noundef %10) #25
  br label %_ZNSt3__112basic_stringIcNS_11char_traitsIcEENS_9allocatorIcEEED2Ev.exit.i.i.i.i.i.i.i.i.i

_ZNSt3__112basic_stringIcNS_11char_traitsIcEENS_9allocatorIcEEED2Ev.exit.i.i.i.i.i.i.i.i.i: ; preds = %if.then.i.i.i.i.i.i.i.i.i.i, %while.body.i.i.i.i.i.i
  %bf.load.i.i2.i.i.i.i.i.i.i.i.i = load i8, ptr %incdec.ptr.i.i.i.i.i.i, align 8
  %bf.clear.i.i3.i.i.i.i.i.i.i.i.i = and i8 %bf.load.i.i2.i.i.i.i.i.i.i.i.i, 1
  %tobool.i.not.i4.i.i.i.i.i.i.i.i.i = icmp eq i8 %bf.clear.i.i3.i.i.i.i.i.i.i.i.i, 0
  br i1 %tobool.i.not.i4.i.i.i.i.i.i.i.i.i, label %_ZNSt3__116allocator_traitsINS_9allocatorIN12_GLOBAL__N_18TestCaseEEEE7destroyB7v170000IS3_vEEvRS4_PT_.exit.i.i.i.i.i.i, label %if.then.i6.i.i.i.i.i.i.i.i.i

if.then.i6.i.i.i.i.i.i.i.i.i:                     ; preds = %_ZNSt3__112basic_stringIcNS_11char_traitsIcEENS_9allocatorIcEEED2Ev.exit.i.i.i.i.i.i.i.i.i
  %__data_.i.i5.i.i.i.i.i.i.i.i.i = getelementptr %"struct.(anonymous namespace)::TestCase", ptr %9, i64 -1, i32 0, i32 0, i32 0, i32 0, i32 0, i32 0, i32 2
  %11 = load ptr, ptr %__data_.i.i5.i.i.i.i.i.i.i.i.i, align 8, !tbaa !13
  call void @_ZdlPv(ptr noundef %11) #25
  br label %_ZNSt3__116allocator_traitsINS_9allocatorIN12_GLOBAL__N_18TestCaseEEEE7destroyB7v170000IS3_vEEvRS4_PT_.exit.i.i.i.i.i.i

_ZNSt3__116allocator_traitsINS_9allocatorIN12_GLOBAL__N_18TestCaseEEEE7destroyB7v170000IS3_vEEvRS4_PT_.exit.i.i.i.i.i.i: ; preds = %if.then.i6.i.i.i.i.i.i.i.i.i, %_ZNSt3__112basic_stringIcNS_11char_traitsIcEENS_9allocatorIcEEED2Ev.exit.i.i.i.i.i.i.i.i.i
  %cmp.not.i.i.i.i.i.i = icmp eq ptr %incdec.ptr.i.i.i.i.i.i, %.pre.i.i.i
  br i1 %cmp.not.i.i.i.i.i.i, label %_ZNSt3__114__split_bufferIN12_GLOBAL__N_18TestCaseERNS_9allocatorIS2_EEE5clearB7v170000Ev.exit.i.i.i, label %while.body.i.i.i.i.i.i

_ZNSt3__114__split_bufferIN12_GLOBAL__N_18TestCaseERNS_9allocatorIS2_EEE5clearB7v170000Ev.exit.i.i.i: ; preds = %_ZNSt3__116allocator_traitsINS_9allocatorIN12_GLOBAL__N_18TestCaseEEEE7destroyB7v170000IS3_vEEvRS4_PT_.exit.i.i.i.i.i.i, %invoke.cont7.i.i, %invoke.cont7.thread.i.i
  %12 = phi ptr [ %4, %invoke.cont7.thread.i.i ], [ %.pre.i.i.i, %invoke.cont7.i.i ], [ %.pre.i.i.i, %_ZNSt3__116allocator_traitsINS_9allocatorIN12_GLOBAL__N_18TestCaseEEEE7destroyB7v170000IS3_vEEvRS4_PT_.exit.i.i.i.i.i.i ]
  %tobool.not.i.i.i = icmp eq ptr %12, null
  br i1 %tobool.not.i.i.i, label %invoke.cont5, label %if.then.i18.i.i

if.then.i18.i.i:                                  ; preds = %_ZNSt3__114__split_bufferIN12_GLOBAL__N_18TestCaseERNS_9allocatorIS2_EEE5clearB7v170000Ev.exit.i.i.i
  call void @_ZdlPv(ptr noundef nonnull %12) #25
  br label %invoke.cont5

invoke.cont5:                                     ; preds = %if.then.i18.i.i, %_ZNSt3__114__split_bufferIN12_GLOBAL__N_18TestCaseERNS_9allocatorIS2_EEE5clearB7v170000Ev.exit.i.i.i, %if.then.i22
  %bf.load.i.i.i26 = load i8, ptr %error_message.i, align 8
  %bf.clear.i.i.i27 = and i8 %bf.load.i.i.i26, 1
  %tobool.i.not.i.i28 = icmp eq i8 %bf.clear.i.i.i27, 0
  br i1 %tobool.i.not.i.i28, label %_ZNSt3__112basic_stringIcNS_11char_traitsIcEENS_9allocatorIcEEED2Ev.exit.i31, label %if.then.i.i30

if.then.i.i30:                                    ; preds = %invoke.cont5
  %13 = load ptr, ptr %__data_.i.i.i29, align 8, !tbaa !13
  call void @_ZdlPv(ptr noundef %13) #25
  br label %_ZNSt3__112basic_stringIcNS_11char_traitsIcEENS_9allocatorIcEEED2Ev.exit.i31

_ZNSt3__112basic_stringIcNS_11char_traitsIcEENS_9allocatorIcEEED2Ev.exit.i31: ; preds = %if.then.i.i30, %invoke.cont5
  %bf.load.i.i2.i = load i8, ptr %TC, align 8
  %bf.clear.i.i3.i = and i8 %bf.load.i.i2.i, 1
  %tobool.i.not.i4.i = icmp eq i8 %bf.clear.i.i3.i, 0
  br i1 %tobool.i.not.i4.i, label %_ZN12_GLOBAL__N_18TestCaseD2Ev.exit, label %if.then.i6.i

if.then.i6.i:                                     ; preds = %_ZNSt3__112basic_stringIcNS_11char_traitsIcEENS_9allocatorIcEEED2Ev.exit.i31
  %14 = load ptr, ptr %__data_.i.i.i20, align 8, !tbaa !13
  call void @_ZdlPv(ptr noundef %14) #25
  br label %_ZN12_GLOBAL__N_18TestCaseD2Ev.exit

_ZN12_GLOBAL__N_18TestCaseD2Ev.exit:              ; preds = %_ZNSt3__112basic_stringIcNS_11char_traitsIcEENS_9allocatorIcEEED2Ev.exit.i31, %if.then.i6.i
  call void @llvm.lifetime.end.p0(i64 56, ptr nonnull %TC) #26
  %incdec.ptr = getelementptr inbounds %"struct.(anonymous namespace)::TestCase", ptr %__begin1.02, i64 1
  %cmp.not = icmp eq ptr %incdec.ptr, %add.ptr.i
  br i1 %cmp.not, label %for.cond.cleanup, label %for.body

lpad:                                             ; preds = %_ZN12_GLOBAL__N_18TestCaseC2ERKS0_.exit
  %15 = landingpad { ptr, i32 }
          cleanup
  call void @llvm.lifetime.end.p0(i64 24, ptr nonnull %ref.tmp) #26
  br label %ehcleanup

lpad4.loopexit:                                   ; preds = %_ZNSt3__119__allocate_at_leastB7v170000INS_9allocatorIN12_GLOBAL__N_18TestCaseEEEEENS_19__allocation_resultINS_16allocator_traitsIT_E7pointerEEERS7_m.exit.i.i.i
  %lpad.loopexit = landingpad { ptr, i32 }
          cleanup
  br label %ehcleanup

lpad4.loopexit.split-lp:                          ; preds = %if.then.i.i.i, %if.then.i.i.i.i.i
  %lpad.loopexit.split-lp = landingpad { ptr, i32 }
          cleanup
  br label %ehcleanup

ehcleanup:                                        ; preds = %lpad4.loopexit, %lpad4.loopexit.split-lp, %lpad
  %.pn = phi { ptr, i32 } [ %15, %lpad ], [ %lpad.loopexit, %lpad4.loopexit ], [ %lpad.loopexit.split-lp, %lpad4.loopexit.split-lp ]
  call fastcc void @_ZN12_GLOBAL__N_18TestCaseD2Ev(ptr noundef nonnull align 8 dereferenceable(56) %TC) #26
  call void @llvm.lifetime.end.p0(i64 56, ptr nonnull %TC) #26
  br label %common.resume
}

; Function Attrs: mustprogress nocallback nofree nosync nounwind willreturn memory(argmem: readwrite)
declare void @llvm.lifetime.start.p0(i64 immarg, ptr nocapture) #7

; Function Attrs: inlinehint nounwind uwtable
define internal fastcc void @_ZN12_GLOBAL__N_18TestCaseD2Ev(ptr nocapture noundef nonnull readonly align 8 dereferenceable(56) %this) unnamed_addr #8 align 2 personality ptr @__gxx_personality_v0 {
entry:
  %error_message = getelementptr inbounds %"struct.(anonymous namespace)::TestCase", ptr %this, i64 0, i32 2
  %bf.load.i.i = load i8, ptr %error_message, align 8
  %bf.clear.i.i = and i8 %bf.load.i.i, 1
  %tobool.i.not.i = icmp eq i8 %bf.clear.i.i, 0
  br i1 %tobool.i.not.i, label %_ZNSt3__112basic_stringIcNS_11char_traitsIcEENS_9allocatorIcEEED2Ev.exit, label %if.then.i

if.then.i:                                        ; preds = %entry
  %__data_.i.i = getelementptr inbounds %"struct.(anonymous namespace)::TestCase", ptr %this, i64 0, i32 2, i32 0, i32 0, i32 0, i32 0, i32 0, i32 2
  %0 = load ptr, ptr %__data_.i.i, align 8, !tbaa !13
  tail call void @_ZdlPv(ptr noundef %0) #25
  br label %_ZNSt3__112basic_stringIcNS_11char_traitsIcEENS_9allocatorIcEEED2Ev.exit

_ZNSt3__112basic_stringIcNS_11char_traitsIcEENS_9allocatorIcEEED2Ev.exit: ; preds = %entry, %if.then.i
  %bf.load.i.i2 = load i8, ptr %this, align 8
  %bf.clear.i.i3 = and i8 %bf.load.i.i2, 1
  %tobool.i.not.i4 = icmp eq i8 %bf.clear.i.i3, 0
  br i1 %tobool.i.not.i4, label %_ZNSt3__112basic_stringIcNS_11char_traitsIcEENS_9allocatorIcEEED2Ev.exit7, label %if.then.i6

if.then.i6:                                       ; preds = %_ZNSt3__112basic_stringIcNS_11char_traitsIcEENS_9allocatorIcEEED2Ev.exit
  %__data_.i.i5 = getelementptr inbounds %"struct.std::__1::basic_string<char>::__long", ptr %this, i64 0, i32 2
  %1 = load ptr, ptr %__data_.i.i5, align 8, !tbaa !13
  tail call void @_ZdlPv(ptr noundef %1) #25
  br label %_ZNSt3__112basic_stringIcNS_11char_traitsIcEENS_9allocatorIcEEED2Ev.exit7

_ZNSt3__112basic_stringIcNS_11char_traitsIcEENS_9allocatorIcEEED2Ev.exit7: ; preds = %_ZNSt3__112basic_stringIcNS_11char_traitsIcEENS_9allocatorIcEEED2Ev.exit, %if.then.i6
  ret void
}

; Function Attrs: mustprogress nocallback nofree nosync nounwind willreturn memory(argmem: readwrite)
declare void @llvm.lifetime.end.p0(i64 immarg, ptr nocapture) #7

; Function Attrs: mustprogress uwtable
define hidden void @_Z23BM_error_before_runningRN9benchmark5StateE(ptr noundef nonnull align 8 dereferenceable(120) %state) #3 {
entry:
  tail call void @_ZN9benchmark5State13SkipWithErrorEPKc(ptr noundef nonnull align 8 dereferenceable(120) %state, ptr noundef nonnull @.str)
  %0 = load i64, ptr %state, align 8, !tbaa !29
  %cmp6.not.i.i = icmp eq i64 %0, 0
  br i1 %cmp6.not.i.i, label %if.end.i.i, label %while.body, !prof !42

if.end.i.i:                                       ; preds = %entry
  %started_.i.i = getelementptr inbounds %"class.benchmark::State", ptr %state, i64 0, i32 3
  %1 = load i8, ptr %started_.i.i, align 8, !tbaa !43, !range !21, !noundef !22
  %tobool9.not.i.i = icmp eq i8 %1, 0
  br i1 %tobool9.not.i.i, label %if.then10.i.i, label %while.end

if.then10.i.i:                                    ; preds = %if.end.i.i
  tail call void @_ZN9benchmark5State16StartKeepRunningEv(ptr noundef nonnull align 8 dereferenceable(120) %state)
  %error_occurred_.i.i = getelementptr inbounds %"class.benchmark::State", ptr %state, i64 0, i32 5
  %2 = load i8, ptr %error_occurred_.i.i, align 2, !tbaa !44, !range !21, !noundef !22
  %tobool11.not.i.i = icmp ne i8 %2, 0
  %3 = load i64, ptr %state, align 8
  %cmp13.not.i.i = icmp eq i64 %3, 0
  %or.cond = select i1 %tobool11.not.i.i, i1 true, i1 %cmp13.not.i.i
  br i1 %or.cond, label %while.end, label %while.body

while.body:                                       ; preds = %if.then10.i.i, %entry
  %storemerge.in = phi i64 [ %0, %entry ], [ %3, %if.then10.i.i ]
  %storemerge = add i64 %storemerge.in, -1
  store i64 %storemerge, ptr %state, align 8, !tbaa !29
  tail call void @__assert_fail(ptr noundef nonnull @.str.6, ptr noundef nonnull @.str.7, i32 noundef 73, ptr noundef nonnull @__PRETTY_FUNCTION__._Z23BM_error_before_runningRN9benchmark5StateE) #29
  unreachable

while.end:                                        ; preds = %if.then10.i.i, %if.end.i.i
  tail call void @_ZN9benchmark5State17FinishKeepRunningEv(ptr noundef nonnull align 8 dereferenceable(120) %state)
  ret void
}

; Function Attrs: noreturn nounwind
declare void @__assert_fail(ptr noundef, ptr noundef, i32 noundef, ptr noundef) local_unnamed_addr #9

; Function Attrs: mustprogress uwtable
define hidden void @_Z29BM_error_before_running_batchRN9benchmark5StateE(ptr noundef nonnull align 8 dereferenceable(120) %state) #3 {
entry:
  tail call void @_ZN9benchmark5State13SkipWithErrorEPKc(ptr noundef nonnull align 8 dereferenceable(120) %state, ptr noundef nonnull @.str)
  %0 = load i64, ptr %state, align 8, !tbaa !29
  %cmp6.not.i.i = icmp ult i64 %0, 17
  br i1 %cmp6.not.i.i, label %if.end.i.i, label %if.then.i.i, !prof !42

if.then.i.i:                                      ; preds = %entry
  %sub.i.i = add i64 %0, -17
  br label %while.body

if.end.i.i:                                       ; preds = %entry
  %started_.i.i = getelementptr inbounds %"class.benchmark::State", ptr %state, i64 0, i32 3
  %1 = load i8, ptr %started_.i.i, align 8, !tbaa !43, !range !21, !noundef !22
  %tobool9.not.i.i = icmp eq i8 %1, 0
  br i1 %tobool9.not.i.i, label %if.then10.i.i, label %if.end18.i.i

if.then10.i.i:                                    ; preds = %if.end.i.i
  tail call void @_ZN9benchmark5State16StartKeepRunningEv(ptr noundef nonnull align 8 dereferenceable(120) %state)
  %error_occurred_.i.i = getelementptr inbounds %"class.benchmark::State", ptr %state, i64 0, i32 5
  %2 = load i8, ptr %error_occurred_.i.i, align 2, !tbaa !44, !range !21, !noundef !22
  %tobool11.not.i.i = icmp ne i8 %2, 0
  %3 = load i64, ptr %state, align 8, !tbaa !29
  %cmp13.not.i.i = icmp ult i64 %3, 17
  %or.cond.i = select i1 %tobool11.not.i.i, i1 true, i1 %cmp13.not.i.i
  br i1 %or.cond.i, label %if.end18.i.i, label %if.then14.i.i

if.then14.i.i:                                    ; preds = %if.then10.i.i
  %sub16.i.i = add i64 %3, -17
  br label %while.body

if.end18.i.i:                                     ; preds = %if.then10.i.i, %if.end.i.i
  %4 = phi i64 [ %0, %if.end.i.i ], [ %3, %if.then10.i.i ]
  %cmp22.not.i.i = icmp eq i64 %4, 0
  br i1 %cmp22.not.i.i, label %while.end, label %if.then23.i.i

if.then23.i.i:                                    ; preds = %if.end18.i.i
  %sub25.i.i = sub i64 17, %4
  %batch_leftover_.i.i = getelementptr inbounds %"class.benchmark::State", ptr %state, i64 0, i32 1
  store i64 %sub25.i.i, ptr %batch_leftover_.i.i, align 8, !tbaa !45
  br label %while.body

while.body:                                       ; preds = %if.then.i.i, %if.then23.i.i, %if.then14.i.i
  %sub.i.i.sink = phi i64 [ %sub.i.i, %if.then.i.i ], [ 0, %if.then23.i.i ], [ %sub16.i.i, %if.then14.i.i ]
  store i64 %sub.i.i.sink, ptr %state, align 8, !tbaa !29
  tail call void @__assert_fail(ptr noundef nonnull @.str.6, ptr noundef nonnull @.str.7, i32 noundef 82, ptr noundef nonnull @__PRETTY_FUNCTION__._Z29BM_error_before_running_batchRN9benchmark5StateE) #29
  unreachable

while.end:                                        ; preds = %if.end18.i.i
  tail call void @_ZN9benchmark5State17FinishKeepRunningEv(ptr noundef nonnull align 8 dereferenceable(120) %state)
  ret void
}

; Function Attrs: uwtable
define hidden void @_Z33BM_error_before_running_range_forRN9benchmark5StateE(ptr noundef nonnull align 8 dereferenceable(120) %state) #6 {
entry:
  tail call void @_ZN9benchmark5State13SkipWithErrorEPKc(ptr noundef nonnull align 8 dereferenceable(120) %state, ptr noundef nonnull @.str)
  %error_occurred_.i.i = getelementptr inbounds %"class.benchmark::State", ptr %state, i64 0, i32 5
  %0 = load i8, ptr %error_occurred_.i.i, align 2, !tbaa !44, !range !21, !noundef !22
  %tobool.not.i.i = icmp ne i8 %0, 0
  %max_iterations.i.i = getelementptr inbounds %"class.benchmark::State", ptr %state, i64 0, i32 2
  %1 = load i64, ptr %max_iterations.i.i, align 8
  tail call void @_ZN9benchmark5State16StartKeepRunningEv(ptr noundef nonnull align 8 dereferenceable(120) %state)
  %cmp.not.i.not6 = icmp eq i64 %1, 0
  %cmp.not.i.not = select i1 %tobool.not.i.i, i1 true, i1 %cmp.not.i.not6
  br i1 %cmp.not.i.not, label %for.cond.cleanup, label %for.body, !prof !42

for.cond.cleanup:                                 ; preds = %entry
  tail call void @_ZN9benchmark5State17FinishKeepRunningEv(ptr noundef nonnull align 8 dereferenceable(120) %state)
  ret void

for.body:                                         ; preds = %entry
  tail call void @__assert_fail(ptr noundef nonnull @.str.6, ptr noundef nonnull @.str.7, i32 noundef 91, ptr noundef nonnull @__PRETTY_FUNCTION__._Z33BM_error_before_running_range_forRN9benchmark5StateE) #29
  unreachable
}

; Function Attrs: mustprogress uwtable
define hidden void @_Z23BM_error_during_runningRN9benchmark5StateE(ptr noundef nonnull align 8 dereferenceable(120) %state) #3 {
entry:
  %started_.i.i = getelementptr inbounds %"class.benchmark::State", ptr %state, i64 0, i32 3
  %error_occurred_.i.i = getelementptr inbounds %"class.benchmark::State", ptr %state, i64 0, i32 5
  %range_.i = getelementptr inbounds %"class.benchmark::State", ptr %state, i64 0, i32 6
  %__end_.i.i = getelementptr inbounds %"class.benchmark::State", ptr %state, i64 0, i32 6, i32 1
  %thread_index_.i = getelementptr inbounds %"class.benchmark::State", ptr %state, i64 0, i32 9
  %threads_.i = getelementptr inbounds %"class.benchmark::State", ptr %state, i64 0, i32 10
  br label %while.cond

while.cond:                                       ; preds = %entry, %if.else
  %0 = load i64, ptr %state, align 8, !tbaa !29
  %cmp6.not.i.i = icmp eq i64 %0, 0
  br i1 %cmp6.not.i.i, label %if.end.i.i, label %while.body, !prof !42

if.end.i.i:                                       ; preds = %while.cond
  %1 = load i8, ptr %started_.i.i, align 8, !tbaa !43, !range !21, !noundef !22
  %tobool9.not.i.i = icmp eq i8 %1, 0
  br i1 %tobool9.not.i.i, label %if.then10.i.i, label %while.end

if.then10.i.i:                                    ; preds = %if.end.i.i
  tail call void @_ZN9benchmark5State16StartKeepRunningEv(ptr noundef nonnull align 8 dereferenceable(120) %state)
  %2 = load i8, ptr %error_occurred_.i.i, align 2, !tbaa !44, !range !21, !noundef !22
  %tobool11.not.i.i = icmp ne i8 %2, 0
  %3 = load i64, ptr %state, align 8
  %cmp13.not.i.i = icmp eq i64 %3, 0
  %or.cond = select i1 %tobool11.not.i.i, i1 true, i1 %cmp13.not.i.i
  br i1 %or.cond, label %while.end, label %while.body

while.body:                                       ; preds = %if.then10.i.i, %while.cond
  %storemerge.in = phi i64 [ %0, %while.cond ], [ %3, %if.then10.i.i ]
  %storemerge = add i64 %storemerge.in, -1
  store i64 %storemerge, ptr %state, align 8, !tbaa !29
  %4 = load ptr, ptr %__end_.i.i, align 8, !tbaa !46
  %5 = load ptr, ptr %range_.i, align 8, !tbaa !47
  %cmp.i.not = icmp eq ptr %4, %5
  br i1 %cmp.i.not, label %cond.false.i, label %_ZNK9benchmark5State5rangeEm.exit

cond.false.i:                                     ; preds = %while.body.1, %while.body
  tail call void @__assert_fail(ptr noundef nonnull @.str.53, ptr noundef nonnull @.str.50, i32 noundef 762, ptr noundef nonnull @__PRETTY_FUNCTION__._ZNK9benchmark5State5rangeEm) #29
  unreachable

_ZNK9benchmark5State5rangeEm.exit:                ; preds = %while.body
  %6 = load i64, ptr %5, align 8, !tbaa !24
  %cmp = icmp eq i64 %6, 1
  br i1 %cmp, label %land.lhs.true, label %if.else

land.lhs.true:                                    ; preds = %_ZNK9benchmark5State5rangeEm.exit
  %7 = load i32, ptr %thread_index_.i, align 8, !tbaa !48
  %8 = load i32, ptr %threads_.i, align 4, !tbaa !49
  %div = sdiv i32 %8, 2
  %cmp4.not = icmp sgt i32 %7, %div
  br i1 %cmp4.not, label %if.else, label %cond.end

cond.end:                                         ; preds = %land.lhs.true
  tail call void @_ZN9benchmark5State13SkipWithErrorEPKc(ptr noundef nonnull align 8 dereferenceable(120) %state, ptr noundef nonnull @.str)
  br label %while.cond.1

while.cond.1:                                     ; preds = %if.else.1, %cond.end
  %9 = load i64, ptr %state, align 8, !tbaa !29
  %cmp6.not.i.i.1 = icmp eq i64 %9, 0
  br i1 %cmp6.not.i.i.1, label %if.end.i.i.1, label %while.body.1, !prof !42

if.end.i.i.1:                                     ; preds = %while.cond.1
  %10 = load i8, ptr %started_.i.i, align 8, !tbaa !43, !range !21, !noundef !22
  %tobool9.not.i.i.1 = icmp eq i8 %10, 0
  br i1 %tobool9.not.i.i.1, label %if.then10.i.i.1, label %while.end

if.then10.i.i.1:                                  ; preds = %if.end.i.i.1
  tail call void @_ZN9benchmark5State16StartKeepRunningEv(ptr noundef nonnull align 8 dereferenceable(120) %state)
  %11 = load i8, ptr %error_occurred_.i.i, align 2, !tbaa !44, !range !21, !noundef !22
  %tobool11.not.i.i.1 = icmp ne i8 %11, 0
  %12 = load i64, ptr %state, align 8
  %cmp13.not.i.i.1 = icmp eq i64 %12, 0
  %or.cond.1 = select i1 %tobool11.not.i.i.1, i1 true, i1 %cmp13.not.i.i.1
  br i1 %or.cond.1, label %while.end, label %while.body.1

while.body.1:                                     ; preds = %if.then10.i.i.1, %while.cond.1
  %storemerge.in.1 = phi i64 [ %9, %while.cond.1 ], [ %12, %if.then10.i.i.1 ]
  %storemerge.1 = add i64 %storemerge.in.1, -1
  store i64 %storemerge.1, ptr %state, align 8, !tbaa !29
  %13 = load ptr, ptr %__end_.i.i, align 8, !tbaa !46
  %14 = load ptr, ptr %range_.i, align 8, !tbaa !47
  %cmp.i.not.1 = icmp eq ptr %13, %14
  br i1 %cmp.i.not.1, label %cond.false.i, label %_ZNK9benchmark5State5rangeEm.exit.1

_ZNK9benchmark5State5rangeEm.exit.1:              ; preds = %while.body.1
  %15 = load i64, ptr %14, align 8, !tbaa !24
  %cmp.1 = icmp eq i64 %15, 1
  br i1 %cmp.1, label %land.lhs.true.1, label %if.else.1

land.lhs.true.1:                                  ; preds = %_ZNK9benchmark5State5rangeEm.exit.1
  %16 = load i32, ptr %thread_index_.i, align 8, !tbaa !48
  %17 = load i32, ptr %threads_.i, align 4, !tbaa !49
  %div.1 = sdiv i32 %17, 2
  %cmp4.not.1 = icmp sgt i32 %16, %div.1
  br i1 %cmp4.not.1, label %if.else.1, label %if.then.1

if.then.1:                                        ; preds = %land.lhs.true.1
  tail call void @__assert_fail(ptr noundef nonnull @.str.17, ptr noundef nonnull @.str.7, i32 noundef 101, ptr noundef nonnull @__PRETTY_FUNCTION__._Z23BM_error_during_runningRN9benchmark5StateE) #29
  unreachable

if.else.1:                                        ; preds = %land.lhs.true.1, %_ZNK9benchmark5State5rangeEm.exit.1
  tail call void @_ZN9benchmark5State11PauseTimingEv(ptr noundef nonnull align 8 dereferenceable(120) %state)
  tail call void @_ZN9benchmark5State12ResumeTimingEv(ptr noundef nonnull align 8 dereferenceable(120) %state)
  br label %while.cond.1, !llvm.loop !50

if.else:                                          ; preds = %land.lhs.true, %_ZNK9benchmark5State5rangeEm.exit
  tail call void @_ZN9benchmark5State11PauseTimingEv(ptr noundef nonnull align 8 dereferenceable(120) %state)
  tail call void @_ZN9benchmark5State12ResumeTimingEv(ptr noundef nonnull align 8 dereferenceable(120) %state)
  br label %while.cond, !llvm.loop !50

while.end:                                        ; preds = %if.then10.i.i.1, %if.end.i.i.1, %if.then10.i.i, %if.end.i.i
  tail call void @_ZN9benchmark5State17FinishKeepRunningEv(ptr noundef nonnull align 8 dereferenceable(120) %state)
  ret void
}

declare void @_ZN9benchmark5State11PauseTimingEv(ptr noundef nonnull align 8 dereferenceable(120)) local_unnamed_addr #0

declare void @_ZN9benchmark5State12ResumeTimingEv(ptr noundef nonnull align 8 dereferenceable(120)) local_unnamed_addr #0

declare noundef ptr @_ZN9benchmark8internal9Benchmark3ArgEl(ptr noundef nonnull align 8 dereferenceable(208), i64 noundef) local_unnamed_addr #0

declare noundef ptr @_ZN9benchmark8internal9Benchmark11ThreadRangeEii(ptr noundef nonnull align 8 dereferenceable(208), i32 noundef, i32 noundef) local_unnamed_addr #0

; Function Attrs: uwtable
define hidden void @_Z34BM_error_during_running_ranged_forRN9benchmark5StateE(ptr noundef nonnull align 8 dereferenceable(120) %state) #6 {
entry:
  %max_iterations = getelementptr inbounds %"class.benchmark::State", ptr %state, i64 0, i32 2
  %0 = load i64, ptr %max_iterations, align 8, !tbaa !51
  %cmp = icmp ugt i64 %0, 3
  br i1 %cmp, label %cond.end, label %cond.false

cond.false:                                       ; preds = %entry
  tail call void @__assert_fail(ptr noundef nonnull @.str.29, ptr noundef nonnull @.str.7, i32 noundef 121, ptr noundef nonnull @__PRETTY_FUNCTION__._Z34BM_error_during_running_ranged_forRN9benchmark5StateE) #29
  unreachable

cond.end:                                         ; preds = %entry
  %error_occurred_.i.i = getelementptr inbounds %"class.benchmark::State", ptr %state, i64 0, i32 5
  %1 = load i8, ptr %error_occurred_.i.i, align 2, !tbaa !44, !range !21, !noundef !22
  %tobool.not.i.i.not = icmp eq i8 %1, 0
  tail call void @_ZN9benchmark5State16StartKeepRunningEv(ptr noundef nonnull align 8 dereferenceable(120) %state)
  br i1 %tobool.not.i.i.not, label %for.body.lr.ph, label %_ZNK9benchmark5State13StateIteratorneERKS1_.exit, !prof !52

for.body.lr.ph:                                   ; preds = %cond.end
  %range_.i = getelementptr inbounds %"class.benchmark::State", ptr %state, i64 0, i32 6
  %__end_.i.i = getelementptr inbounds %"class.benchmark::State", ptr %state, i64 0, i32 6, i32 1
  %2 = load ptr, ptr %__end_.i.i, align 8, !tbaa !46
  %3 = load ptr, ptr %range_.i, align 8, !tbaa !47
  %cmp.i.not = icmp eq ptr %2, %3
  br i1 %cmp.i.not, label %cond.false.i, label %for.body.lr.ph.split

for.body.lr.ph.split:                             ; preds = %for.body.lr.ph
  %4 = load i64, ptr %3, align 8, !tbaa !24
  %cmp4 = icmp eq i64 %4, 1
  br i1 %cmp4, label %_ZN9benchmark5State13StateIteratorppEv.exit, label %_ZNK9benchmark5State13StateIteratorneERKS1_.exit

_ZNK9benchmark5State13StateIteratorneERKS1_.exit: ; preds = %for.body.lr.ph.split, %cond.end
  tail call void @_ZN9benchmark5State17FinishKeepRunningEv(ptr noundef nonnull align 8 dereferenceable(120) %state)
  br label %cleanup

cond.false.i:                                     ; preds = %for.body.lr.ph
  tail call void @__assert_fail(ptr noundef nonnull @.str.53, ptr noundef nonnull @.str.50, i32 noundef 762, ptr noundef nonnull @__PRETTY_FUNCTION__._ZNK9benchmark5State5rangeEm) #29
  unreachable

_ZN9benchmark5State13StateIteratorppEv.exit:      ; preds = %for.body.lr.ph.split
  tail call void @_ZN9benchmark5State13SkipWithErrorEPKc(ptr noundef nonnull align 8 dereferenceable(120) %state, ptr noundef nonnull @.str)
  br label %cleanup

cleanup:                                          ; preds = %_ZN9benchmark5State13StateIteratorppEv.exit, %_ZNK9benchmark5State13StateIteratorneERKS1_.exit
  ret void
}

declare noundef ptr @_ZN9benchmark8internal9Benchmark10IterationsEm(ptr noundef nonnull align 8 dereferenceable(208), i64 noundef) local_unnamed_addr #0

; Function Attrs: uwtable
define hidden void @_Z22BM_error_after_runningRN9benchmark5StateE(ptr noundef nonnull align 8 dereferenceable(120) %state) #6 {
entry:
  %error_occurred_.i.i = getelementptr inbounds %"class.benchmark::State", ptr %state, i64 0, i32 5
  %0 = load i8, ptr %error_occurred_.i.i, align 2, !tbaa !44, !range !21, !noundef !22
  %tobool.not.i.i = icmp ne i8 %0, 0
  %max_iterations.i.i = getelementptr inbounds %"class.benchmark::State", ptr %state, i64 0, i32 2
  %1 = load i64, ptr %max_iterations.i.i, align 8
  tail call void @_ZN9benchmark5State16StartKeepRunningEv(ptr noundef nonnull align 8 dereferenceable(120) %state)
  %cmp.not.i.not1517 = icmp eq i64 %1, 0
  %cmp.not.i.not15 = select i1 %tobool.not.i.i, i1 true, i1 %cmp.not.i.not1517
  br i1 %cmp.not.i.not15, label %for.cond.cleanup, label %for.body.lr.ph, !prof !42

for.body.lr.ph:                                   ; preds = %entry
  %started_.i = getelementptr inbounds %"class.benchmark::State", ptr %state, i64 0, i32 3
  %batch_leftover_.i = getelementptr inbounds %"class.benchmark::State", ptr %state, i64 0, i32 1
  br label %for.body

for.cond.cleanup:                                 ; preds = %_ZN9benchmark5State13StateIteratorppEv.exit, %entry
  tail call void @_ZN9benchmark5State17FinishKeepRunningEv(ptr noundef nonnull align 8 dereferenceable(120) %state)
  %thread_index_.i = getelementptr inbounds %"class.benchmark::State", ptr %state, i64 0, i32 9
  %2 = load i32, ptr %thread_index_.i, align 8, !tbaa !48
  %threads_.i = getelementptr inbounds %"class.benchmark::State", ptr %state, i64 0, i32 10
  %3 = load i32, ptr %threads_.i, align 4, !tbaa !49
  %div = sdiv i32 %3, 2
  %cmp.not = icmp sgt i32 %2, %div
  br i1 %cmp.not, label %if.end, label %if.then

for.body:                                         ; preds = %for.body.lr.ph, %_ZN9benchmark5State13StateIteratorppEv.exit
  %__begin1.sroa.0.016 = phi i64 [ %1, %for.body.lr.ph ], [ %dec.i, %_ZN9benchmark5State13StateIteratorppEv.exit ]
  %4 = load i8, ptr %started_.i, align 8, !tbaa !43, !range !21, !noundef !22
  %tobool.not.i = icmp eq i8 %4, 0
  br i1 %tobool.not.i, label %_ZN9benchmark5State13StateIteratorppEv.exit, label %if.end.i12, !prof !42

if.end.i12:                                       ; preds = %for.body
  %5 = load i64, ptr %max_iterations.i.i, align 8, !tbaa !51
  %6 = load i64, ptr %state, align 8, !tbaa !29
  %sub.i = sub i64 %5, %6
  %7 = load i64, ptr %batch_leftover_.i, align 8, !tbaa !45
  %add.i = add i64 %sub.i, %7
  br label %_ZN9benchmark5State13StateIteratorppEv.exit

_ZN9benchmark5State13StateIteratorppEv.exit:      ; preds = %if.end.i12, %for.body
  %retval.0.i = phi i64 [ %add.i, %if.end.i12 ], [ 0, %for.body ]
  tail call void asm sideeffect "", "r|m,~{memory},~{dirflag},~{fpsr},~{flags}"(i64 %retval.0.i) #26, !srcloc !53
  %dec.i = add i64 %__begin1.sroa.0.016, -1
  %cmp.not.i.not = icmp eq i64 %dec.i, 0
  br i1 %cmp.not.i.not, label %for.cond.cleanup, label %for.body, !prof !42

if.then:                                          ; preds = %for.cond.cleanup
  tail call void @_ZN9benchmark5State13SkipWithErrorEPKc(ptr noundef nonnull align 8 dereferenceable(120) %state, ptr noundef nonnull @.str)
  br label %if.end

if.end:                                           ; preds = %if.then, %for.cond.cleanup
  ret void
}

; Function Attrs: mustprogress uwtable
define hidden void @_Z21BM_error_while_pausedRN9benchmark5StateE(ptr noundef nonnull align 8 dereferenceable(120) %state) #3 {
entry:
  %started_.i.i = getelementptr inbounds %"class.benchmark::State", ptr %state, i64 0, i32 3
  %error_occurred_.i.i = getelementptr inbounds %"class.benchmark::State", ptr %state, i64 0, i32 5
  %range_.i = getelementptr inbounds %"class.benchmark::State", ptr %state, i64 0, i32 6
  %__end_.i.i = getelementptr inbounds %"class.benchmark::State", ptr %state, i64 0, i32 6, i32 1
  %thread_index_.i = getelementptr inbounds %"class.benchmark::State", ptr %state, i64 0, i32 9
  %threads_.i = getelementptr inbounds %"class.benchmark::State", ptr %state, i64 0, i32 10
  br label %while.cond

while.cond:                                       ; preds = %entry, %if.else
  %0 = load i64, ptr %state, align 8, !tbaa !29
  %cmp6.not.i.i = icmp eq i64 %0, 0
  br i1 %cmp6.not.i.i, label %if.end.i.i, label %while.body, !prof !42

if.end.i.i:                                       ; preds = %while.cond
  %1 = load i8, ptr %started_.i.i, align 8, !tbaa !43, !range !21, !noundef !22
  %tobool9.not.i.i = icmp eq i8 %1, 0
  br i1 %tobool9.not.i.i, label %if.then10.i.i, label %while.end

if.then10.i.i:                                    ; preds = %if.end.i.i
  tail call void @_ZN9benchmark5State16StartKeepRunningEv(ptr noundef nonnull align 8 dereferenceable(120) %state)
  %2 = load i8, ptr %error_occurred_.i.i, align 2, !tbaa !44, !range !21, !noundef !22
  %tobool11.not.i.i = icmp ne i8 %2, 0
  %3 = load i64, ptr %state, align 8
  %cmp13.not.i.i = icmp eq i64 %3, 0
  %or.cond = select i1 %tobool11.not.i.i, i1 true, i1 %cmp13.not.i.i
  br i1 %or.cond, label %while.end, label %while.body

while.body:                                       ; preds = %if.then10.i.i, %while.cond
  %storemerge.in = phi i64 [ %0, %while.cond ], [ %3, %if.then10.i.i ]
  %storemerge = add i64 %storemerge.in, -1
  store i64 %storemerge, ptr %state, align 8, !tbaa !29
  %4 = load ptr, ptr %__end_.i.i, align 8, !tbaa !46
  %5 = load ptr, ptr %range_.i, align 8, !tbaa !47
  %cmp.i.not = icmp eq ptr %4, %5
  br i1 %cmp.i.not, label %cond.false.i, label %_ZNK9benchmark5State5rangeEm.exit

cond.false.i:                                     ; preds = %while.body.1, %while.body
  tail call void @__assert_fail(ptr noundef nonnull @.str.53, ptr noundef nonnull @.str.50, i32 noundef 762, ptr noundef nonnull @__PRETTY_FUNCTION__._ZNK9benchmark5State5rangeEm) #29
  unreachable

_ZNK9benchmark5State5rangeEm.exit:                ; preds = %while.body
  %6 = load i64, ptr %5, align 8, !tbaa !24
  %cmp = icmp eq i64 %6, 1
  br i1 %cmp, label %land.lhs.true, label %if.else

land.lhs.true:                                    ; preds = %_ZNK9benchmark5State5rangeEm.exit
  %7 = load i32, ptr %thread_index_.i, align 8, !tbaa !48
  %8 = load i32, ptr %threads_.i, align 4, !tbaa !49
  %div = sdiv i32 %8, 2
  %cmp4.not = icmp sgt i32 %7, %div
  br i1 %cmp4.not, label %if.else, label %cond.end

cond.end:                                         ; preds = %land.lhs.true
  tail call void @_ZN9benchmark5State11PauseTimingEv(ptr noundef nonnull align 8 dereferenceable(120) %state)
  tail call void @_ZN9benchmark5State13SkipWithErrorEPKc(ptr noundef nonnull align 8 dereferenceable(120) %state, ptr noundef nonnull @.str)
  br label %while.cond.1

while.cond.1:                                     ; preds = %if.else.1, %cond.end
  %9 = load i64, ptr %state, align 8, !tbaa !29
  %cmp6.not.i.i.1 = icmp eq i64 %9, 0
  br i1 %cmp6.not.i.i.1, label %if.end.i.i.1, label %while.body.1, !prof !42

if.end.i.i.1:                                     ; preds = %while.cond.1
  %10 = load i8, ptr %started_.i.i, align 8, !tbaa !43, !range !21, !noundef !22
  %tobool9.not.i.i.1 = icmp eq i8 %10, 0
  br i1 %tobool9.not.i.i.1, label %if.then10.i.i.1, label %while.end

if.then10.i.i.1:                                  ; preds = %if.end.i.i.1
  tail call void @_ZN9benchmark5State16StartKeepRunningEv(ptr noundef nonnull align 8 dereferenceable(120) %state)
  %11 = load i8, ptr %error_occurred_.i.i, align 2, !tbaa !44, !range !21, !noundef !22
  %tobool11.not.i.i.1 = icmp ne i8 %11, 0
  %12 = load i64, ptr %state, align 8
  %cmp13.not.i.i.1 = icmp eq i64 %12, 0
  %or.cond.1 = select i1 %tobool11.not.i.i.1, i1 true, i1 %cmp13.not.i.i.1
  br i1 %or.cond.1, label %while.end, label %while.body.1

while.body.1:                                     ; preds = %if.then10.i.i.1, %while.cond.1
  %storemerge.in.1 = phi i64 [ %9, %while.cond.1 ], [ %12, %if.then10.i.i.1 ]
  %storemerge.1 = add i64 %storemerge.in.1, -1
  store i64 %storemerge.1, ptr %state, align 8, !tbaa !29
  %13 = load ptr, ptr %__end_.i.i, align 8, !tbaa !46
  %14 = load ptr, ptr %range_.i, align 8, !tbaa !47
  %cmp.i.not.1 = icmp eq ptr %13, %14
  br i1 %cmp.i.not.1, label %cond.false.i, label %_ZNK9benchmark5State5rangeEm.exit.1

_ZNK9benchmark5State5rangeEm.exit.1:              ; preds = %while.body.1
  %15 = load i64, ptr %14, align 8, !tbaa !24
  %cmp.1 = icmp eq i64 %15, 1
  br i1 %cmp.1, label %land.lhs.true.1, label %if.else.1

land.lhs.true.1:                                  ; preds = %_ZNK9benchmark5State5rangeEm.exit.1
  %16 = load i32, ptr %thread_index_.i, align 8, !tbaa !48
  %17 = load i32, ptr %threads_.i, align 4, !tbaa !49
  %div.1 = sdiv i32 %17, 2
  %cmp4.not.1 = icmp sgt i32 %16, %div.1
  br i1 %cmp4.not.1, label %if.else.1, label %if.then.1

if.then.1:                                        ; preds = %land.lhs.true.1
  tail call void @__assert_fail(ptr noundef nonnull @.str.17, ptr noundef nonnull @.str.7, i32 noundef 159, ptr noundef nonnull @__PRETTY_FUNCTION__._Z21BM_error_while_pausedRN9benchmark5StateE) #29
  unreachable

if.else.1:                                        ; preds = %land.lhs.true.1, %_ZNK9benchmark5State5rangeEm.exit.1
  tail call void @_ZN9benchmark5State11PauseTimingEv(ptr noundef nonnull align 8 dereferenceable(120) %state)
  tail call void @_ZN9benchmark5State12ResumeTimingEv(ptr noundef nonnull align 8 dereferenceable(120) %state)
  br label %while.cond.1, !llvm.loop !54

if.else:                                          ; preds = %land.lhs.true, %_ZNK9benchmark5State5rangeEm.exit
  tail call void @_ZN9benchmark5State11PauseTimingEv(ptr noundef nonnull align 8 dereferenceable(120) %state)
  tail call void @_ZN9benchmark5State12ResumeTimingEv(ptr noundef nonnull align 8 dereferenceable(120) %state)
  br label %while.cond, !llvm.loop !54

while.end:                                        ; preds = %if.then10.i.i.1, %if.end.i.i.1, %if.then10.i.i, %if.end.i.i
  tail call void @_ZN9benchmark5State17FinishKeepRunningEv(ptr noundef nonnull align 8 dereferenceable(120) %state)
  ret void
}

; Function Attrs: norecurse uwtable
define hidden noundef i32 @main(i32 noundef %argc, ptr noundef %argv) local_unnamed_addr #10 personality ptr @__gxx_personality_v0 {
entry:
  %ref.tmp.i = alloca %"class.std::__1::basic_string", align 8
  %ref.tmp3.i = alloca %"class.benchmark::internal::CheckHandler", align 8
  %ref.tmp17.i = alloca %"class.std::__1::basic_string", align 8
  %ref.tmp44.i = alloca %"class.benchmark::internal::CheckHandler", align 8
  %ref.tmp72.i = alloca %"class.benchmark::internal::CheckHandler", align 8
  %ref.tmp101.i = alloca %"class.benchmark::internal::CheckHandler", align 8
  %argc.addr = alloca i32, align 4
  %test_reporter = alloca %"class.(anonymous namespace)::TestReporter", align 8
  store i32 %argc, ptr %argc.addr, align 4, !tbaa !55
  call void @_ZN9benchmark10InitializeEPiPPcPFvvE(ptr noundef nonnull %argc.addr, ptr noundef %argv, ptr noundef null)
  call void @llvm.lifetime.start.p0(i64 96, ptr nonnull %test_reporter) #26
  call void @_ZN9benchmark17BenchmarkReporterC2Ev(ptr noundef nonnull align 8 dereferenceable(24) %test_reporter)
  %output_options_.i.i = getelementptr inbounds %"class.benchmark::ConsoleReporter", ptr %test_reporter, i64 0, i32 1
  store i32 3, ptr %output_options_.i.i, align 8, !tbaa !56
  %name_field_width_.i.i = getelementptr inbounds %"class.benchmark::ConsoleReporter", ptr %test_reporter, i64 0, i32 3
  store i64 0, ptr %name_field_width_.i.i, align 8, !tbaa !60
  %prev_counters_.i.i = getelementptr inbounds %"class.benchmark::ConsoleReporter", ptr %test_reporter, i64 0, i32 4
  %__pair1_.i.i.i.i = getelementptr inbounds %"class.benchmark::ConsoleReporter", ptr %test_reporter, i64 0, i32 4, i32 0, i32 1
  call void @llvm.memset.p0.i64(ptr noundef nonnull align 8 dereferenceable(16) %__pair1_.i.i.i.i, i8 0, i64 16, i1 false)
  store ptr %__pair1_.i.i.i.i, ptr %prev_counters_.i.i, align 8, !tbaa !26
  %printed_header_.i.i = getelementptr inbounds %"class.benchmark::ConsoleReporter", ptr %test_reporter, i64 0, i32 5
  store i8 0, ptr %printed_header_.i.i, align 8, !tbaa !61
  store ptr getelementptr inbounds ({ [9 x ptr] }, ptr @_ZTVN12_GLOBAL__N_112TestReporterE, i64 0, inrange i32 0, i64 2), ptr %test_reporter, align 8, !tbaa !62
  %all_runs_.i = getelementptr inbounds %"class.(anonymous namespace)::TestReporter", ptr %test_reporter, i64 0, i32 1
  call void @llvm.memset.p0.i64(ptr noundef nonnull align 8 dereferenceable(24) %all_runs_.i, i8 0, i64 24, i1 false)
  %call = invoke noundef i64 @_ZN9benchmark22RunSpecifiedBenchmarksEPNS_17BenchmarkReporterE(ptr noundef nonnull %test_reporter)
          to label %invoke.cont unwind label %lpad

invoke.cont:                                      ; preds = %entry
  %0 = load ptr, ptr @_ZN12_GLOBAL__N_115ExpectedResultsE, align 8, !tbaa !5
  %1 = load ptr, ptr %all_runs_.i, align 8, !tbaa !64
  %__end_.i = getelementptr inbounds %"class.(anonymous namespace)::TestReporter", ptr %test_reporter, i64 0, i32 1, i32 1
  %2 = load ptr, ptr %__end_.i, align 8, !tbaa !68
  %cmp.i.i.not71 = icmp eq ptr %1, %2
  br i1 %cmp.i.i.not71, label %for.cond.cleanup, label %for.body.lr.ph

for.body.lr.ph:                                   ; preds = %invoke.cont
  %__size_.i.i30.i.i = getelementptr inbounds %"struct.std::__1::basic_string<char>::__long", ptr %ref.tmp.i, i64 0, i32 1
  %__data_.i.i.i37.i.i = getelementptr inbounds %"struct.std::__1::basic_string<char>::__long", ptr %ref.tmp.i, i64 0, i32 2
  %__data_.i4.i.i38.i.i = getelementptr inbounds %"struct.std::__1::basic_string<char>::__short", ptr %ref.tmp.i, i64 0, i32 2
  %__data_.i.i.i.i.i152.i = getelementptr inbounds %"struct.std::__1::basic_string<char>::__long", ptr %ref.tmp17.i, i64 0, i32 2
  %__data_.i4.i.i.i.i153.i = getelementptr inbounds %"struct.std::__1::basic_string<char>::__short", ptr %ref.tmp17.i, i64 0, i32 2
  %__size_.i.i.i.i155.i = getelementptr inbounds %"struct.std::__1::basic_string<char>::__long", ptr %ref.tmp17.i, i64 0, i32 1
  br label %for.body

for.cond.cleanup:                                 ; preds = %invoke.cont13, %invoke.cont
  %EB.sroa.0.0.lcssa = phi ptr [ %0, %invoke.cont ], [ %incdec.ptr.i, %invoke.cont13 ]
  %3 = load ptr, ptr getelementptr inbounds (%"class.std::__1::vector", ptr @_ZN12_GLOBAL__N_115ExpectedResultsE, i64 0, i32 1), align 8, !tbaa !12
  %cmp.i = icmp eq ptr %EB.sroa.0.0.lcssa, %3
  br i1 %cmp.i, label %cond.end22, label %cond.false21

lpad:                                             ; preds = %entry
  %4 = landingpad { ptr, i32 }
          cleanup
  br label %ehcleanup

for.body:                                         ; preds = %for.body.lr.ph, %invoke.cont13
  %EB.sroa.0.073 = phi ptr [ %0, %for.body.lr.ph ], [ %incdec.ptr.i, %invoke.cont13 ]
  %__begin1.sroa.0.072 = phi ptr [ %1, %for.body.lr.ph ], [ %incdec.ptr.i36, %invoke.cont13 ]
  %5 = load ptr, ptr getelementptr inbounds (%"class.std::__1::vector", ptr @_ZN12_GLOBAL__N_115ExpectedResultsE, i64 0, i32 1), align 8, !tbaa !12
  %cmp.i.i29.not = icmp eq ptr %EB.sroa.0.073, %5
  br i1 %cmp.i.i29.not, label %cond.false, label %cond.end

cond.false:                                       ; preds = %for.body
  call void @__assert_fail(ptr noundef nonnull @.str.46, ptr noundef nonnull @.str.7, i32 noundef 189, ptr noundef nonnull @__PRETTY_FUNCTION__.main) #29
  unreachable

cond.end:                                         ; preds = %for.body
  call void @llvm.lifetime.start.p0(i64 24, ptr nonnull %ref.tmp.i) #26
  invoke void @_ZNK9benchmark17BenchmarkReporter3Run14benchmark_nameEv(ptr nonnull sret(%"class.std::__1::basic_string") align 8 %ref.tmp.i, ptr noundef nonnull align 8 dereferenceable(424) %__begin1.sroa.0.072)
          to label %.noexc unwind label %lpad12.loopexit

.noexc:                                           ; preds = %cond.end
  %bf.load.i.i.i.i = load i8, ptr %EB.sroa.0.073, align 8
  %bf.clear.i.i.i.i = and i8 %bf.load.i.i.i.i, 1
  %tobool.i.not.i.i.i = icmp eq i8 %bf.clear.i.i.i.i, 0
  %__size_.i.i.i.i = getelementptr inbounds %"struct.std::__1::basic_string<char>::__long", ptr %EB.sroa.0.073, i64 0, i32 1
  %6 = load i64, ptr %__size_.i.i.i.i, align 8
  %bf.lshr.i.i.i.i = lshr i8 %bf.load.i.i.i.i, 1
  %conv.i.i.i.i = zext i8 %bf.lshr.i.i.i.i to i64
  %cond.i.i.i = select i1 %tobool.i.not.i.i.i, i64 %conv.i.i.i.i, i64 %6
  %bf.load.i.i27.i.i = load i8, ptr %ref.tmp.i, align 8
  %bf.clear.i.i28.i.i = and i8 %bf.load.i.i27.i.i, 1
  %tobool.i.not.i29.i.i = icmp eq i8 %bf.clear.i.i28.i.i, 0
  %7 = load i64, ptr %__size_.i.i30.i.i, align 8
  %bf.lshr.i.i31.i.i = lshr i8 %bf.load.i.i27.i.i, 1
  %conv.i.i32.i.i = zext i8 %bf.lshr.i.i31.i.i to i64
  %cond.i33.i.i = select i1 %tobool.i.not.i29.i.i, i64 %conv.i.i32.i.i, i64 %7
  %cmp.not.i.i = icmp eq i64 %cond.i.i.i, %cond.i33.i.i
  br i1 %cmp.not.i.i, label %if.end.i.i, label %cond.false.i

if.end.i.i:                                       ; preds = %.noexc
  %__data_.i.i.i.i.i = getelementptr inbounds %"struct.std::__1::basic_string<char>::__long", ptr %EB.sroa.0.073, i64 0, i32 2
  %8 = load ptr, ptr %__data_.i.i.i.i.i, align 8
  %__data_.i4.i.i.i.i = getelementptr inbounds %"struct.std::__1::basic_string<char>::__short", ptr %EB.sroa.0.073, i64 0, i32 2
  %cond.i.i.i.i = select i1 %tobool.i.not.i.i.i, ptr %__data_.i4.i.i.i.i, ptr %8
  %9 = load ptr, ptr %__data_.i.i.i37.i.i, align 8
  %cond.i.i39.i.i = select i1 %tobool.i.not.i29.i.i, ptr %__data_.i4.i.i38.i.i, ptr %9
  %cmp9.not40.i.i = icmp eq i64 %cond.i.i.i, 0
  br i1 %tobool.i.not.i.i.i, label %for.cond.preheader.i.i, label %if.then5.i.i

for.cond.preheader.i.i:                           ; preds = %if.end.i.i
  br i1 %cmp9.not40.i.i, label %cond.true.i, label %for.body.i.i

if.then5.i.i:                                     ; preds = %if.end.i.i
  br i1 %cmp9.not40.i.i, label %cond.true.i, label %_ZNSt3__1eqB7v170000INS_9allocatorIcEEEEbRKNS_12basic_stringIcNS_11char_traitsIcEET_EES9_.exit.i

for.body.i.i:                                     ; preds = %for.cond.preheader.i.i, %for.inc.i.i
  %__rp.043.i.i = phi ptr [ %incdec.ptr14.i.i, %for.inc.i.i ], [ %cond.i.i39.i.i, %for.cond.preheader.i.i ]
  %__lp.042.i.i = phi ptr [ %incdec.ptr.i.i, %for.inc.i.i ], [ %__data_.i4.i.i.i.i, %for.cond.preheader.i.i ]
  %__lhs_sz.041.i.i = phi i64 [ %dec.i.i, %for.inc.i.i ], [ %conv.i.i.i.i, %for.cond.preheader.i.i ]
  %10 = load i8, ptr %__lp.042.i.i, align 1, !tbaa !13
  %11 = load i8, ptr %__rp.043.i.i, align 1, !tbaa !13
  %cmp11.not.i.i = icmp eq i8 %10, %11
  br i1 %cmp11.not.i.i, label %for.inc.i.i, label %cond.false.i

for.inc.i.i:                                      ; preds = %for.body.i.i
  %dec.i.i = add i64 %__lhs_sz.041.i.i, -1
  %incdec.ptr.i.i = getelementptr inbounds i8, ptr %__lp.042.i.i, i64 1
  %incdec.ptr14.i.i = getelementptr inbounds i8, ptr %__rp.043.i.i, i64 1
  %cmp9.not.i.i = icmp eq i64 %dec.i.i, 0
  br i1 %cmp9.not.i.i, label %cond.true.i, label %for.body.i.i, !llvm.loop !69

_ZNSt3__1eqB7v170000INS_9allocatorIcEEEEbRKNS_12basic_stringIcNS_11char_traitsIcEET_EES9_.exit.i: ; preds = %if.then5.i.i
  %bcmp.i.i = call i32 @bcmp(ptr %cond.i.i.i.i, ptr %cond.i.i39.i.i, i64 %cond.i.i.i)
  %12 = icmp eq i32 %bcmp.i.i, 0
  br i1 %12, label %cond.true.i, label %cond.false.i

cond.true.i:                                      ; preds = %for.inc.i.i, %_ZNSt3__1eqB7v170000INS_9allocatorIcEEEEbRKNS_12basic_stringIcNS_11char_traitsIcEET_EES9_.exit.i, %if.then5.i.i, %for.cond.preheader.i.i
  %13 = load atomic i8, ptr @_ZGVZN9benchmark8internal18GetNullLogInstanceEvE3log acquire, align 8
  %guard.uninitialized.i.i = icmp eq i8 %13, 0
  br i1 %guard.uninitialized.i.i, label %init.check.i.i, label %cond.end.i, !prof !70

init.check.i.i:                                   ; preds = %cond.true.i
  %14 = call i32 @__cxa_guard_acquire(ptr nonnull @_ZGVZN9benchmark8internal18GetNullLogInstanceEvE3log) #26
  %tobool.not.i.i = icmp eq i32 %14, 0
  br i1 %tobool.not.i.i, label %cond.end.i, label %init.i.i

init.i.i:                                         ; preds = %init.check.i.i
  store ptr null, ptr @_ZZN9benchmark8internal18GetNullLogInstanceEvE3log, align 8, !tbaa !71
  call void @__cxa_guard_release(ptr nonnull @_ZGVZN9benchmark8internal18GetNullLogInstanceEvE3log) #26
  br label %cond.end.i

cond.false.i:                                     ; preds = %for.body.i.i, %_ZNSt3__1eqB7v170000INS_9allocatorIcEEEEbRKNS_12basic_stringIcNS_11char_traitsIcEET_EES9_.exit.i, %.noexc
  call void @llvm.lifetime.start.p0(i64 8, ptr nonnull %ref.tmp3.i) #26
  invoke void @_ZN9benchmark8internal12CheckHandlerC2EPKcS3_S3_i(ptr noundef nonnull align 8 dereferenceable(8) %ref.tmp3.i, ptr noundef nonnull @.str.54, ptr noundef nonnull @.str.7, ptr noundef nonnull @__func__._ZNK12_GLOBAL__N_18TestCase8CheckRunERKN9benchmark17BenchmarkReporter3RunE, i32 noundef 36)
          to label %invoke.cont5.i unwind label %cleanup.action34.i.loopexit

invoke.cont5.i:                                   ; preds = %cond.false.i
  %15 = load ptr, ptr %ref.tmp3.i, align 8, !tbaa !73
  br label %cond.end.i

cond.end.i:                                       ; preds = %invoke.cont5.i, %init.i.i, %init.check.i.i, %cond.true.i
  %retval.1.i242.i = phi i1 [ false, %invoke.cont5.i ], [ true, %cond.true.i ], [ true, %init.check.i.i ], [ true, %init.i.i ]
  %cond-lvalue.i = phi ptr [ %15, %invoke.cont5.i ], [ @_ZZN9benchmark8internal18GetNullLogInstanceEvE3log, %cond.true.i ], [ @_ZZN9benchmark8internal18GetNullLogInstanceEvE3log, %init.check.i.i ], [ @_ZZN9benchmark8internal18GetNullLogInstanceEvE3log, %init.i.i ]
  %16 = load ptr, ptr %cond-lvalue.i, align 8, !tbaa !71
  %tobool.not.i134.i = icmp eq ptr %16, null
  br i1 %tobool.not.i134.i, label %invoke.cont15.i, label %if.then.i.i

if.then.i.i:                                      ; preds = %cond.end.i
  %call1.i.i136.i = invoke noundef nonnull align 8 dereferenceable(8) ptr @_ZNSt3__124__put_character_sequenceB7v170000IcNS_11char_traitsIcEEEERNS_13basic_ostreamIT_T0_EES7_PKS4_m(ptr noundef nonnull align 8 dereferenceable(8) %16, ptr noundef nonnull @.str.55, i64 noundef 9)
          to label %invoke.cont10.i unwind label %ehcleanup24.i

invoke.cont10.i:                                  ; preds = %if.then.i.i
  %.pr.i = load ptr, ptr %cond-lvalue.i, align 8, !tbaa !71
  %tobool.not.i137.i = icmp eq ptr %.pr.i, null
  br i1 %tobool.not.i137.i, label %invoke.cont15.i, label %if.then.i139.i

if.then.i139.i:                                   ; preds = %invoke.cont10.i
  %bf.load.i.i.i.i.i.i = load i8, ptr %EB.sroa.0.073, align 8
  %bf.clear.i.i.i.i.i.i = and i8 %bf.load.i.i.i.i.i.i, 1
  %tobool.i.not.i.i.i.i.i = icmp eq i8 %bf.clear.i.i.i.i.i.i, 0
  %__data_.i.i.i.i.i.i = getelementptr inbounds %"struct.std::__1::basic_string<char>::__long", ptr %EB.sroa.0.073, i64 0, i32 2
  %17 = load ptr, ptr %__data_.i.i.i.i.i.i, align 8
  %__data_.i4.i.i.i.i.i = getelementptr inbounds %"struct.std::__1::basic_string<char>::__short", ptr %EB.sroa.0.073, i64 0, i32 2
  %cond.i.i.i.i.i = select i1 %tobool.i.not.i.i.i.i.i, ptr %__data_.i4.i.i.i.i.i, ptr %17
  %18 = load i64, ptr %__size_.i.i.i.i, align 8
  %bf.lshr.i.i.i.i.i = lshr i8 %bf.load.i.i.i.i.i.i, 1
  %conv.i.i.i.i.i = zext i8 %bf.lshr.i.i.i.i.i to i64
  %cond.i.i.i138.i = select i1 %tobool.i.not.i.i.i.i.i, i64 %conv.i.i.i.i.i, i64 %18
  %call2.i.i141.i = invoke noundef nonnull align 8 dereferenceable(8) ptr @_ZNSt3__124__put_character_sequenceB7v170000IcNS_11char_traitsIcEEEERNS_13basic_ostreamIT_T0_EES7_PKS4_m(ptr noundef nonnull align 8 dereferenceable(8) %.pr.i, ptr noundef %cond.i.i.i.i.i, i64 noundef %cond.i.i.i138.i)
          to label %invoke.cont13.i unwind label %ehcleanup24.i

invoke.cont13.i:                                  ; preds = %if.then.i139.i
  %.pr250.i = load ptr, ptr %cond-lvalue.i, align 8, !tbaa !71
  %tobool.not.i142.i = icmp eq ptr %.pr250.i, null
  br i1 %tobool.not.i142.i, label %invoke.cont15.i, label %if.then.i144.i

if.then.i144.i:                                   ; preds = %invoke.cont13.i
  %call1.i.i147.i = invoke noundef nonnull align 8 dereferenceable(8) ptr @_ZNSt3__124__put_character_sequenceB7v170000IcNS_11char_traitsIcEEEERNS_13basic_ostreamIT_T0_EES7_PKS4_m(ptr noundef nonnull align 8 dereferenceable(8) %.pr250.i, ptr noundef nonnull @.str.56, i64 noundef 5)
          to label %invoke.cont15.i unwind label %ehcleanup24.i

invoke.cont15.i:                                  ; preds = %if.then.i144.i, %invoke.cont13.i, %invoke.cont10.i, %cond.end.i
  call void @llvm.lifetime.start.p0(i64 24, ptr nonnull %ref.tmp17.i) #26
  invoke void @_ZNK9benchmark17BenchmarkReporter3Run14benchmark_nameEv(ptr nonnull sret(%"class.std::__1::basic_string") align 8 %ref.tmp17.i, ptr noundef nonnull align 8 dereferenceable(424) %__begin1.sroa.0.072)
          to label %invoke.cont19.i unwind label %lpad18.i

invoke.cont19.i:                                  ; preds = %invoke.cont15.i
  %19 = load ptr, ptr %cond-lvalue.i, align 8, !tbaa !71
  %tobool.not.i148.i = icmp eq ptr %19, null
  br i1 %tobool.not.i148.i, label %invoke.cont21.i, label %if.then.i159.i

if.then.i159.i:                                   ; preds = %invoke.cont19.i
  %bf.load.i.i.i.i.i149.i = load i8, ptr %ref.tmp17.i, align 8
  %bf.clear.i.i.i.i.i150.i = and i8 %bf.load.i.i.i.i.i149.i, 1
  %tobool.i.not.i.i.i.i151.i = icmp eq i8 %bf.clear.i.i.i.i.i150.i, 0
  %20 = load ptr, ptr %__data_.i.i.i.i.i152.i, align 8
  %cond.i.i.i.i154.i = select i1 %tobool.i.not.i.i.i.i151.i, ptr %__data_.i4.i.i.i.i153.i, ptr %20
  %21 = load i64, ptr %__size_.i.i.i.i155.i, align 8
  %bf.lshr.i.i.i.i156.i = lshr i8 %bf.load.i.i.i.i.i149.i, 1
  %conv.i.i.i.i157.i = zext i8 %bf.lshr.i.i.i.i156.i to i64
  %cond.i.i.i158.i = select i1 %tobool.i.not.i.i.i.i151.i, i64 %conv.i.i.i.i157.i, i64 %21
  %call2.i.i162.i = invoke noundef nonnull align 8 dereferenceable(8) ptr @_ZNSt3__124__put_character_sequenceB7v170000IcNS_11char_traitsIcEEEERNS_13basic_ostreamIT_T0_EES7_PKS4_m(ptr noundef nonnull align 8 dereferenceable(8) %19, ptr noundef %cond.i.i.i.i154.i, i64 noundef %cond.i.i.i158.i)
          to label %invoke.cont21.i unwind label %lpad20.i

invoke.cont21.i:                                  ; preds = %if.then.i159.i, %invoke.cont19.i
  %bf.load.i.i.i = load i8, ptr %ref.tmp17.i, align 8
  %bf.clear.i.i.i = and i8 %bf.load.i.i.i, 1
  %tobool.i.not.i.i = icmp eq i8 %bf.clear.i.i.i, 0
  br i1 %tobool.i.not.i.i, label %_ZNSt3__112basic_stringIcNS_11char_traitsIcEENS_9allocatorIcEEED2Ev.exit.i, label %if.then.i164.i

if.then.i164.i:                                   ; preds = %invoke.cont21.i
  %22 = load ptr, ptr %__data_.i.i.i.i.i152.i, align 8, !tbaa !13
  call void @_ZdlPv(ptr noundef %22) #25
  br label %_ZNSt3__112basic_stringIcNS_11char_traitsIcEENS_9allocatorIcEEED2Ev.exit.i

_ZNSt3__112basic_stringIcNS_11char_traitsIcEENS_9allocatorIcEEED2Ev.exit.i: ; preds = %if.then.i164.i, %invoke.cont21.i
  call void @llvm.lifetime.end.p0(i64 24, ptr nonnull %ref.tmp17.i) #26
  br i1 %retval.1.i242.i, label %cleanup.done31.i, label %cleanup.action.i

cleanup.action.i:                                 ; preds = %_ZNSt3__112basic_stringIcNS_11char_traitsIcEENS_9allocatorIcEEED2Ev.exit.i
  invoke void @_ZN9benchmark8internal12CheckHandlerD2Ev(ptr noundef nonnull align 8 dereferenceable(8) %ref.tmp3.i) #27
          to label %invoke.cont23.i unwind label %cleanup.action34.i.loopexit.split-lp

invoke.cont23.i:                                  ; preds = %cleanup.action.i
  unreachable

lpad18.i:                                         ; preds = %invoke.cont15.i
  %23 = landingpad { ptr, i32 }
          cleanup
  br label %ehcleanup.i

lpad20.i:                                         ; preds = %if.then.i159.i
  %24 = landingpad { ptr, i32 }
          cleanup
  %bf.load.i.i166.i = load i8, ptr %ref.tmp17.i, align 8
  %bf.clear.i.i167.i = and i8 %bf.load.i.i166.i, 1
  %tobool.i.not.i168.i = icmp eq i8 %bf.clear.i.i167.i, 0
  br i1 %tobool.i.not.i168.i, label %ehcleanup.i, label %if.then.i170.i

if.then.i170.i:                                   ; preds = %lpad20.i
  %25 = load ptr, ptr %__data_.i.i.i.i.i152.i, align 8, !tbaa !13
  call void @_ZdlPv(ptr noundef %25) #25
  br label %ehcleanup.i

ehcleanup.i:                                      ; preds = %if.then.i170.i, %lpad20.i, %lpad18.i
  %.pn.i = phi { ptr, i32 } [ %23, %lpad18.i ], [ %24, %lpad20.i ], [ %24, %if.then.i170.i ]
  call void @llvm.lifetime.end.p0(i64 24, ptr nonnull %ref.tmp17.i) #26
  br i1 %retval.1.i242.i, label %ehcleanup36.i, label %cleanup.action26.i

cleanup.done31.i:                                 ; preds = %_ZNSt3__112basic_stringIcNS_11char_traitsIcEENS_9allocatorIcEEED2Ev.exit.i
  %bf.load.i.i173.i = load i8, ptr %ref.tmp.i, align 8
  %bf.clear.i.i174.i = and i8 %bf.load.i.i173.i, 1
  %tobool.i.not.i175.i = icmp eq i8 %bf.clear.i.i174.i, 0
  br i1 %tobool.i.not.i175.i, label %_ZNSt3__112basic_stringIcNS_11char_traitsIcEENS_9allocatorIcEEED2Ev.exit179.i, label %if.then.i177.i

if.then.i177.i:                                   ; preds = %cleanup.done31.i
  %26 = load ptr, ptr %__data_.i.i.i37.i.i, align 8, !tbaa !13
  call void @_ZdlPv(ptr noundef %26) #25
  br label %_ZNSt3__112basic_stringIcNS_11char_traitsIcEENS_9allocatorIcEEED2Ev.exit179.i

_ZNSt3__112basic_stringIcNS_11char_traitsIcEENS_9allocatorIcEEED2Ev.exit179.i: ; preds = %if.then.i177.i, %cleanup.done31.i
  call void @llvm.lifetime.end.p0(i64 24, ptr nonnull %ref.tmp.i) #26
  %error_occurred.i = getelementptr inbounds %"struct.(anonymous namespace)::TestCase", ptr %EB.sroa.0.073, i64 0, i32 1
  %27 = load i8, ptr %error_occurred.i, align 8, !tbaa !14, !range !21, !noundef !22
  %error_occurred38.i = getelementptr inbounds %"struct.benchmark::BenchmarkReporter::Run", ptr %__begin1.sroa.0.072, i64 0, i32 7
  %28 = load i8, ptr %error_occurred38.i, align 8, !tbaa !75, !range !21, !noundef !22
  %cmp.not.i = icmp eq i8 %27, %28
  br i1 %cmp.not.i, label %cond.true41.i, label %cleanup.action53.i

cond.true41.i:                                    ; preds = %_ZNSt3__112basic_stringIcNS_11char_traitsIcEENS_9allocatorIcEEED2Ev.exit179.i
  %29 = load atomic i8, ptr @_ZGVZN9benchmark8internal18GetNullLogInstanceEvE3log acquire, align 8
  %guard.uninitialized.i180.i = icmp eq i8 %29, 0
  br i1 %guard.uninitialized.i180.i, label %init.check.i182.i, label %cleanup.done62.i, !prof !70

init.check.i182.i:                                ; preds = %cond.true41.i
  %30 = call i32 @__cxa_guard_acquire(ptr nonnull @_ZGVZN9benchmark8internal18GetNullLogInstanceEvE3log) #26
  %tobool.not.i181.i = icmp eq i32 %30, 0
  br i1 %tobool.not.i181.i, label %cleanup.done62.i, label %init.i183.i

init.i183.i:                                      ; preds = %init.check.i182.i
  store ptr null, ptr @_ZZN9benchmark8internal18GetNullLogInstanceEvE3log, align 8, !tbaa !71
  call void @__cxa_guard_release(ptr nonnull @_ZGVZN9benchmark8internal18GetNullLogInstanceEvE3log) #26
  br label %cleanup.done62.i

cleanup.action53.i:                               ; preds = %_ZNSt3__112basic_stringIcNS_11char_traitsIcEENS_9allocatorIcEEED2Ev.exit179.i
  call void @llvm.lifetime.start.p0(i64 8, ptr nonnull %ref.tmp44.i) #26
  invoke void @_ZN9benchmark8internal12CheckHandlerC2EPKcS3_S3_i(ptr noundef nonnull align 8 dereferenceable(8) %ref.tmp44.i, ptr noundef nonnull @.str.57, ptr noundef nonnull @.str.7, ptr noundef nonnull @__func__._ZNK12_GLOBAL__N_18TestCase8CheckRunERKN9benchmark17BenchmarkReporter3RunE, i32 noundef 38)
          to label %.noexc30.invoke unwind label %lpad12.loopexit.split-lp

.noexc30.invoke:                                  ; preds = %cleanup.action110.i, %cleanup.action81.i, %cleanup.action53.i
  %31 = phi ptr [ %ref.tmp44.i, %cleanup.action53.i ], [ %ref.tmp72.i, %cleanup.action81.i ], [ %ref.tmp101.i, %cleanup.action110.i ]
  invoke void @_ZN9benchmark8internal12CheckHandlerD2Ev(ptr noundef nonnull align 8 dereferenceable(8) %31) #27
          to label %.noexc30.cont unwind label %lpad12.loopexit.split-lp

.noexc30.cont:                                    ; preds = %.noexc30.invoke
  unreachable

ehcleanup24.i:                                    ; preds = %if.then.i144.i, %if.then.i139.i, %if.then.i.i
  %32 = landingpad { ptr, i32 }
          cleanup
  br i1 %retval.1.i242.i, label %ehcleanup36.i, label %cleanup.action26.i

cleanup.action26.i:                               ; preds = %ehcleanup24.i, %ehcleanup.i
  invoke void @_ZN9benchmark8internal12CheckHandlerD2Ev(ptr noundef nonnull align 8 dereferenceable(8) %ref.tmp3.i) #27
          to label %invoke.cont27.i unwind label %terminate.lpad.i

invoke.cont27.i:                                  ; preds = %cleanup.action26.i
  unreachable

cleanup.action34.i.loopexit:                      ; preds = %cond.false.i
  %lpad.loopexit48 = landingpad { ptr, i32 }
          cleanup
  br label %cleanup.action34.i

cleanup.action34.i.loopexit.split-lp:             ; preds = %cleanup.action.i
  %lpad.loopexit.split-lp49 = landingpad { ptr, i32 }
          cleanup
  br label %cleanup.action34.i

cleanup.action34.i:                               ; preds = %cleanup.action34.i.loopexit.split-lp, %cleanup.action34.i.loopexit
  %lpad.phi50 = phi { ptr, i32 } [ %lpad.loopexit48, %cleanup.action34.i.loopexit ], [ %lpad.loopexit.split-lp49, %cleanup.action34.i.loopexit.split-lp ]
  call void @llvm.lifetime.end.p0(i64 8, ptr nonnull %ref.tmp3.i) #26
  br label %ehcleanup36.i

ehcleanup36.i:                                    ; preds = %cleanup.action34.i, %ehcleanup24.i, %ehcleanup.i
  %.pn129.pn.i = phi { ptr, i32 } [ %lpad.phi50, %cleanup.action34.i ], [ %.pn.i, %ehcleanup.i ], [ %32, %ehcleanup24.i ]
  %bf.load.i.i185.i = load i8, ptr %ref.tmp.i, align 8
  %bf.clear.i.i186.i = and i8 %bf.load.i.i185.i, 1
  %tobool.i.not.i187.i = icmp eq i8 %bf.clear.i.i186.i, 0
  br i1 %tobool.i.not.i187.i, label %_ZNSt3__112basic_stringIcNS_11char_traitsIcEENS_9allocatorIcEEED2Ev.exit191.i, label %if.then.i189.i

if.then.i189.i:                                   ; preds = %ehcleanup36.i
  %33 = load ptr, ptr %__data_.i.i.i37.i.i, align 8, !tbaa !13
  call void @_ZdlPv(ptr noundef %33) #25
  br label %_ZNSt3__112basic_stringIcNS_11char_traitsIcEENS_9allocatorIcEEED2Ev.exit191.i

_ZNSt3__112basic_stringIcNS_11char_traitsIcEENS_9allocatorIcEEED2Ev.exit191.i: ; preds = %if.then.i189.i, %ehcleanup36.i
  call void @llvm.lifetime.end.p0(i64 24, ptr nonnull %ref.tmp.i) #26
  br label %ehcleanup

cleanup.done62.i:                                 ; preds = %init.i183.i, %init.check.i182.i, %cond.true41.i
  %error_message.i = getelementptr inbounds %"struct.(anonymous namespace)::TestCase", ptr %EB.sroa.0.073, i64 0, i32 2
  %error_message67.i = getelementptr inbounds %"struct.benchmark::BenchmarkReporter::Run", ptr %__begin1.sroa.0.072, i64 0, i32 8
  %bf.load.i.i.i192.i = load i8, ptr %error_message.i, align 8
  %bf.clear.i.i.i193.i = and i8 %bf.load.i.i.i192.i, 1
  %tobool.i.not.i.i194.i = icmp eq i8 %bf.clear.i.i.i193.i, 0
  %__size_.i.i.i195.i = getelementptr inbounds %"struct.(anonymous namespace)::TestCase", ptr %EB.sroa.0.073, i64 0, i32 2, i32 0, i32 0, i32 0, i32 0, i32 0, i32 1
  %34 = load i64, ptr %__size_.i.i.i195.i, align 8
  %bf.lshr.i.i.i196.i = lshr i8 %bf.load.i.i.i192.i, 1
  %conv.i.i.i197.i = zext i8 %bf.lshr.i.i.i196.i to i64
  %cond.i.i198.i = select i1 %tobool.i.not.i.i194.i, i64 %conv.i.i.i197.i, i64 %34
  %bf.load.i.i27.i199.i = load i8, ptr %error_message67.i, align 8
  %bf.clear.i.i28.i200.i = and i8 %bf.load.i.i27.i199.i, 1
  %tobool.i.not.i29.i201.i = icmp eq i8 %bf.clear.i.i28.i200.i, 0
  %__size_.i.i30.i202.i = getelementptr inbounds %"struct.benchmark::BenchmarkReporter::Run", ptr %__begin1.sroa.0.072, i64 0, i32 8, i32 0, i32 0, i32 0, i32 0, i32 0, i32 1
  %35 = load i64, ptr %__size_.i.i30.i202.i, align 8
  %bf.lshr.i.i31.i203.i = lshr i8 %bf.load.i.i27.i199.i, 1
  %conv.i.i32.i204.i = zext i8 %bf.lshr.i.i31.i203.i to i64
  %cond.i33.i205.i = select i1 %tobool.i.not.i29.i201.i, i64 %conv.i.i32.i204.i, i64 %35
  %cmp.not.i206.i = icmp eq i64 %cond.i.i198.i, %cond.i33.i205.i
  br i1 %cmp.not.i206.i, label %if.end.i214.i, label %cleanup.action81.i

if.end.i214.i:                                    ; preds = %cleanup.done62.i
  %__data_.i.i.i.i207.i = getelementptr inbounds %"struct.(anonymous namespace)::TestCase", ptr %EB.sroa.0.073, i64 0, i32 2, i32 0, i32 0, i32 0, i32 0, i32 0, i32 2
  %36 = load ptr, ptr %__data_.i.i.i.i207.i, align 8
  %__data_.i4.i.i.i208.i = getelementptr inbounds i8, ptr %EB.sroa.0.073, i64 33
  %cond.i.i.i209.i = select i1 %tobool.i.not.i.i194.i, ptr %__data_.i4.i.i.i208.i, ptr %36
  %__data_.i.i.i37.i210.i = getelementptr inbounds %"struct.benchmark::BenchmarkReporter::Run", ptr %__begin1.sroa.0.072, i64 0, i32 8, i32 0, i32 0, i32 0, i32 0, i32 0, i32 2
  %37 = load ptr, ptr %__data_.i.i.i37.i210.i, align 8
  %__data_.i4.i.i38.i211.i = getelementptr inbounds i8, ptr %__begin1.sroa.0.072, i64 257
  %cond.i.i39.i212.i = select i1 %tobool.i.not.i29.i201.i, ptr %__data_.i4.i.i38.i211.i, ptr %37
  %cmp9.not40.i213.i = icmp eq i64 %cond.i.i198.i, 0
  br i1 %tobool.i.not.i.i194.i, label %for.cond.preheader.i215.i, label %if.then5.i216.i

for.cond.preheader.i215.i:                        ; preds = %if.end.i214.i
  br i1 %cmp9.not40.i213.i, label %cond.true69.i, label %for.body.i223.i

if.then5.i216.i:                                  ; preds = %if.end.i214.i
  br i1 %cmp9.not40.i213.i, label %cond.true69.i, label %_ZNSt3__1eqB7v170000INS_9allocatorIcEEEEbRKNS_12basic_stringIcNS_11char_traitsIcEET_EES9_.exit230.i

for.body.i223.i:                                  ; preds = %for.cond.preheader.i215.i, %for.inc.i228.i
  %__rp.043.i219.i = phi ptr [ %incdec.ptr14.i226.i, %for.inc.i228.i ], [ %cond.i.i39.i212.i, %for.cond.preheader.i215.i ]
  %__lp.042.i220.i = phi ptr [ %incdec.ptr.i225.i, %for.inc.i228.i ], [ %__data_.i4.i.i.i208.i, %for.cond.preheader.i215.i ]
  %__lhs_sz.041.i221.i = phi i64 [ %dec.i224.i, %for.inc.i228.i ], [ %conv.i.i.i197.i, %for.cond.preheader.i215.i ]
  %38 = load i8, ptr %__lp.042.i220.i, align 1, !tbaa !13
  %39 = load i8, ptr %__rp.043.i219.i, align 1, !tbaa !13
  %cmp11.not.i222.i = icmp eq i8 %38, %39
  br i1 %cmp11.not.i222.i, label %for.inc.i228.i, label %cleanup.action81.i

for.inc.i228.i:                                   ; preds = %for.body.i223.i
  %dec.i224.i = add i64 %__lhs_sz.041.i221.i, -1
  %incdec.ptr.i225.i = getelementptr inbounds i8, ptr %__lp.042.i220.i, i64 1
  %incdec.ptr14.i226.i = getelementptr inbounds i8, ptr %__rp.043.i219.i, i64 1
  %cmp9.not.i227.i = icmp eq i64 %dec.i224.i, 0
  br i1 %cmp9.not.i227.i, label %cond.true69.i, label %for.body.i223.i, !llvm.loop !69

_ZNSt3__1eqB7v170000INS_9allocatorIcEEEEbRKNS_12basic_stringIcNS_11char_traitsIcEET_EES9_.exit230.i: ; preds = %if.then5.i216.i
  %bcmp.i217.i = call i32 @bcmp(ptr %cond.i.i.i209.i, ptr %cond.i.i39.i212.i, i64 %cond.i.i198.i)
  %40 = icmp eq i32 %bcmp.i217.i, 0
  br i1 %40, label %cond.true69.i, label %cleanup.action81.i

cond.true69.i:                                    ; preds = %for.inc.i228.i, %_ZNSt3__1eqB7v170000INS_9allocatorIcEEEEbRKNS_12basic_stringIcNS_11char_traitsIcEET_EES9_.exit230.i, %if.then5.i216.i, %for.cond.preheader.i215.i
  %41 = load atomic i8, ptr @_ZGVZN9benchmark8internal18GetNullLogInstanceEvE3log acquire, align 8
  %guard.uninitialized.i231.i = icmp eq i8 %41, 0
  br i1 %guard.uninitialized.i231.i, label %init.check.i233.i, label %cleanup.done90.i, !prof !70

init.check.i233.i:                                ; preds = %cond.true69.i
  %42 = call i32 @__cxa_guard_acquire(ptr nonnull @_ZGVZN9benchmark8internal18GetNullLogInstanceEvE3log) #26
  %tobool.not.i232.i = icmp eq i32 %42, 0
  br i1 %tobool.not.i232.i, label %cleanup.done90.i, label %init.i234.i

init.i234.i:                                      ; preds = %init.check.i233.i
  store ptr null, ptr @_ZZN9benchmark8internal18GetNullLogInstanceEvE3log, align 8, !tbaa !71
  call void @__cxa_guard_release(ptr nonnull @_ZGVZN9benchmark8internal18GetNullLogInstanceEvE3log) #26
  br label %cleanup.done90.i

cleanup.action81.i:                               ; preds = %_ZNSt3__1eqB7v170000INS_9allocatorIcEEEEbRKNS_12basic_stringIcNS_11char_traitsIcEET_EES9_.exit230.i, %cleanup.done62.i, %for.body.i223.i
  call void @llvm.lifetime.start.p0(i64 8, ptr nonnull %ref.tmp72.i) #26
  invoke void @_ZN9benchmark8internal12CheckHandlerC2EPKcS3_S3_i(ptr noundef nonnull align 8 dereferenceable(8) %ref.tmp72.i, ptr noundef nonnull @.str.58, ptr noundef nonnull @.str.7, ptr noundef nonnull @__func__._ZNK12_GLOBAL__N_18TestCase8CheckRunERKN9benchmark17BenchmarkReporter3RunE, i32 noundef 39)
          to label %.noexc30.invoke unwind label %lpad12.loopexit.split-lp

cleanup.done90.i:                                 ; preds = %init.i234.i, %init.check.i233.i, %cond.true69.i
  %43 = load i8, ptr %error_occurred.i, align 8, !tbaa !14, !range !21, !noundef !22
  %tobool96.not.i = icmp eq i8 %43, 0
  br i1 %tobool96.not.i, label %if.else.i, label %invoke.cont13

if.else.i:                                        ; preds = %cleanup.done90.i
  %iterations.i = getelementptr inbounds %"struct.benchmark::BenchmarkReporter::Run", ptr %__begin1.sroa.0.072, i64 0, i32 9
  %44 = load i64, ptr %iterations.i, align 8, !tbaa !83
  %cmp97.not.i = icmp eq i64 %44, 0
  br i1 %cmp97.not.i, label %cleanup.action110.i, label %cond.true98.i

cond.true98.i:                                    ; preds = %if.else.i
  %45 = load atomic i8, ptr @_ZGVZN9benchmark8internal18GetNullLogInstanceEvE3log acquire, align 8
  %guard.uninitialized.i236.i = icmp eq i8 %45, 0
  br i1 %guard.uninitialized.i236.i, label %init.check.i238.i, label %invoke.cont13, !prof !70

init.check.i238.i:                                ; preds = %cond.true98.i
  %46 = call i32 @__cxa_guard_acquire(ptr nonnull @_ZGVZN9benchmark8internal18GetNullLogInstanceEvE3log) #26
  %tobool.not.i237.i = icmp eq i32 %46, 0
  br i1 %tobool.not.i237.i, label %invoke.cont13, label %init.i239.i

init.i239.i:                                      ; preds = %init.check.i238.i
  store ptr null, ptr @_ZZN9benchmark8internal18GetNullLogInstanceEvE3log, align 8, !tbaa !71
  call void @__cxa_guard_release(ptr nonnull @_ZGVZN9benchmark8internal18GetNullLogInstanceEvE3log) #26
  br label %invoke.cont13

cleanup.action110.i:                              ; preds = %if.else.i
  call void @llvm.lifetime.start.p0(i64 8, ptr nonnull %ref.tmp101.i) #26
  invoke void @_ZN9benchmark8internal12CheckHandlerC2EPKcS3_S3_i(ptr noundef nonnull align 8 dereferenceable(8) %ref.tmp101.i, ptr noundef nonnull @.str.59, ptr noundef nonnull @.str.7, ptr noundef nonnull @__func__._ZNK12_GLOBAL__N_18TestCase8CheckRunERKN9benchmark17BenchmarkReporter3RunE, i32 noundef 43)
          to label %.noexc30.invoke unwind label %lpad12.loopexit.split-lp

terminate.lpad.i:                                 ; preds = %cleanup.action26.i
  %47 = landingpad { ptr, i32 }
          catch ptr null
  %48 = extractvalue { ptr, i32 } %47, 0
  call void @__clang_call_terminate(ptr %48) #29
  unreachable

invoke.cont13:                                    ; preds = %init.i239.i, %init.check.i238.i, %cond.true98.i, %cleanup.done90.i
  %incdec.ptr.i = getelementptr inbounds %"struct.(anonymous namespace)::TestCase", ptr %EB.sroa.0.073, i64 1
  %incdec.ptr.i36 = getelementptr inbounds %"struct.benchmark::BenchmarkReporter::Run", ptr %__begin1.sroa.0.072, i64 1
  %cmp.i.i.not = icmp eq ptr %incdec.ptr.i36, %2
  br i1 %cmp.i.i.not, label %for.cond.cleanup, label %for.body

lpad12.loopexit:                                  ; preds = %cond.end
  %lpad.loopexit = landingpad { ptr, i32 }
          cleanup
  br label %ehcleanup

lpad12.loopexit.split-lp:                         ; preds = %.noexc30.invoke, %cleanup.action53.i, %cleanup.action81.i, %cleanup.action110.i
  %lpad.loopexit.split-lp = landingpad { ptr, i32 }
          cleanup
  br label %ehcleanup

cond.false21:                                     ; preds = %for.cond.cleanup
  call void @__assert_fail(ptr noundef nonnull @.str.47, ptr noundef nonnull @.str.7, i32 noundef 193, ptr noundef nonnull @__PRETTY_FUNCTION__.main) #29
  unreachable

cond.end22:                                       ; preds = %for.cond.cleanup
  store ptr getelementptr inbounds ({ [9 x ptr] }, ptr @_ZTVN12_GLOBAL__N_112TestReporterE, i64 0, inrange i32 0, i64 2), ptr %test_reporter, align 8, !tbaa !62
  %49 = load ptr, ptr %all_runs_.i, align 8, !tbaa !64
  %cmp.not.i.i.i = icmp eq ptr %49, null
  br i1 %cmp.not.i.i.i, label %_ZN12_GLOBAL__N_112TestReporterD2Ev.exit, label %if.then.i.i.i

if.then.i.i.i:                                    ; preds = %cond.end22
  %50 = load ptr, ptr %__end_.i, align 8, !tbaa !68
  %cmp.not6.i = icmp eq ptr %50, %49
  br i1 %cmp.not6.i, label %_ZNSt3__16vectorIN9benchmark17BenchmarkReporter3RunENS_9allocatorIS3_EEE22__base_destruct_at_endB7v170000EPS3_.exit, label %while.body.i

while.body.i:                                     ; preds = %if.then.i.i.i, %_ZNSt3__116allocator_traitsINS_9allocatorIN9benchmark17BenchmarkReporter3RunEEEE7destroyB7v170000IS4_vEEvRS5_PT_.exit.i
  %__soon_to_be_end.07.i = phi ptr [ %incdec.ptr.i40, %_ZNSt3__116allocator_traitsINS_9allocatorIN9benchmark17BenchmarkReporter3RunEEEE7destroyB7v170000IS4_vEEvRS5_PT_.exit.i ], [ %50, %if.then.i.i.i ]
  %incdec.ptr.i40 = getelementptr inbounds %"struct.benchmark::BenchmarkReporter::Run", ptr %__soon_to_be_end.07.i, i64 -1
  %counters.i.i.i.i = getelementptr %"struct.benchmark::BenchmarkReporter::Run", ptr %__soon_to_be_end.07.i, i64 -1, i32 23
  %__pair1_.i.i.i.i.i.i.i.i = getelementptr %"struct.benchmark::BenchmarkReporter::Run", ptr %__soon_to_be_end.07.i, i64 -1, i32 23, i32 0, i32 1
  %51 = load ptr, ptr %__pair1_.i.i.i.i.i.i.i.i, align 8, !tbaa !84
  call void @_ZNSt3__16__treeINS_12__value_typeINS_12basic_stringIcNS_11char_traitsIcEENS_9allocatorIcEEEEN9benchmark7CounterEEENS_19__map_value_compareIS7_SA_NS_4lessIS7_EELb1EEENS5_ISA_EEE7destroyEPNS_11__tree_nodeISA_PvEE(ptr noundef nonnull align 8 dereferenceable(24) %counters.i.i.i.i, ptr noundef %51) #26
  %error_message.i.i.i.i = getelementptr %"struct.benchmark::BenchmarkReporter::Run", ptr %__soon_to_be_end.07.i, i64 -1, i32 8
  %bf.load.i.i.i.i.i.i41 = load i8, ptr %error_message.i.i.i.i, align 8
  %bf.clear.i.i.i.i.i.i42 = and i8 %bf.load.i.i.i.i.i.i41, 1
  %tobool.i.not.i.i.i.i.i43 = icmp eq i8 %bf.clear.i.i.i.i.i.i42, 0
  br i1 %tobool.i.not.i.i.i.i.i43, label %_ZNSt3__112basic_stringIcNS_11char_traitsIcEENS_9allocatorIcEEED2Ev.exit.i.i.i.i, label %if.then.i.i.i.i.i

if.then.i.i.i.i.i:                                ; preds = %while.body.i
  %__data_.i.i.i.i.i.i44 = getelementptr %"struct.benchmark::BenchmarkReporter::Run", ptr %__soon_to_be_end.07.i, i64 -1, i32 8, i32 0, i32 0, i32 0, i32 0, i32 0, i32 2
  %52 = load ptr, ptr %__data_.i.i.i.i.i.i44, align 8, !tbaa !13
  call void @_ZdlPv(ptr noundef %52) #25
  br label %_ZNSt3__112basic_stringIcNS_11char_traitsIcEENS_9allocatorIcEEED2Ev.exit.i.i.i.i

_ZNSt3__112basic_stringIcNS_11char_traitsIcEENS_9allocatorIcEEED2Ev.exit.i.i.i.i: ; preds = %if.then.i.i.i.i.i, %while.body.i
  %report_label.i.i.i.i = getelementptr %"struct.benchmark::BenchmarkReporter::Run", ptr %__soon_to_be_end.07.i, i64 -1, i32 6
  %bf.load.i.i2.i.i.i.i = load i8, ptr %report_label.i.i.i.i, align 8
  %bf.clear.i.i3.i.i.i.i = and i8 %bf.load.i.i2.i.i.i.i, 1
  %tobool.i.not.i4.i.i.i.i = icmp eq i8 %bf.clear.i.i3.i.i.i.i, 0
  br i1 %tobool.i.not.i4.i.i.i.i, label %_ZNSt3__112basic_stringIcNS_11char_traitsIcEENS_9allocatorIcEEED2Ev.exit7.i.i.i.i, label %if.then.i6.i.i.i.i

if.then.i6.i.i.i.i:                               ; preds = %_ZNSt3__112basic_stringIcNS_11char_traitsIcEENS_9allocatorIcEEED2Ev.exit.i.i.i.i
  %__data_.i.i5.i.i.i.i = getelementptr %"struct.benchmark::BenchmarkReporter::Run", ptr %__soon_to_be_end.07.i, i64 -1, i32 6, i32 0, i32 0, i32 0, i32 0, i32 0, i32 2
  %53 = load ptr, ptr %__data_.i.i5.i.i.i.i, align 8, !tbaa !13
  call void @_ZdlPv(ptr noundef %53) #25
  br label %_ZNSt3__112basic_stringIcNS_11char_traitsIcEENS_9allocatorIcEEED2Ev.exit7.i.i.i.i

_ZNSt3__112basic_stringIcNS_11char_traitsIcEENS_9allocatorIcEEED2Ev.exit7.i.i.i.i: ; preds = %if.then.i6.i.i.i.i, %_ZNSt3__112basic_stringIcNS_11char_traitsIcEENS_9allocatorIcEEED2Ev.exit.i.i.i.i
  %aggregate_name.i.i.i.i = getelementptr %"struct.benchmark::BenchmarkReporter::Run", ptr %__soon_to_be_end.07.i, i64 -1, i32 4
  %bf.load.i.i8.i.i.i.i = load i8, ptr %aggregate_name.i.i.i.i, align 8
  %bf.clear.i.i9.i.i.i.i = and i8 %bf.load.i.i8.i.i.i.i, 1
  %tobool.i.not.i10.i.i.i.i = icmp eq i8 %bf.clear.i.i9.i.i.i.i, 0
  br i1 %tobool.i.not.i10.i.i.i.i, label %_ZNSt3__116allocator_traitsINS_9allocatorIN9benchmark17BenchmarkReporter3RunEEEE7destroyB7v170000IS4_vEEvRS5_PT_.exit.i, label %if.then.i12.i.i.i.i

if.then.i12.i.i.i.i:                              ; preds = %_ZNSt3__112basic_stringIcNS_11char_traitsIcEENS_9allocatorIcEEED2Ev.exit7.i.i.i.i
  %__data_.i.i11.i.i.i.i = getelementptr %"struct.benchmark::BenchmarkReporter::Run", ptr %__soon_to_be_end.07.i, i64 -1, i32 4, i32 0, i32 0, i32 0, i32 0, i32 0, i32 2
  %54 = load ptr, ptr %__data_.i.i11.i.i.i.i, align 8, !tbaa !13
  call void @_ZdlPv(ptr noundef %54) #25
  br label %_ZNSt3__116allocator_traitsINS_9allocatorIN9benchmark17BenchmarkReporter3RunEEEE7destroyB7v170000IS4_vEEvRS5_PT_.exit.i

_ZNSt3__116allocator_traitsINS_9allocatorIN9benchmark17BenchmarkReporter3RunEEEE7destroyB7v170000IS4_vEEvRS5_PT_.exit.i: ; preds = %if.then.i12.i.i.i.i, %_ZNSt3__112basic_stringIcNS_11char_traitsIcEENS_9allocatorIcEEED2Ev.exit7.i.i.i.i
  call void @_ZN9benchmark13BenchmarkNameD2Ev(ptr noundef nonnull align 8 dereferenceable(168) %incdec.ptr.i40) #26
  %cmp.not.i45 = icmp eq ptr %incdec.ptr.i40, %49
  br i1 %cmp.not.i45, label %_ZNSt3__16vectorIN9benchmark17BenchmarkReporter3RunENS_9allocatorIS3_EEE22__base_destruct_at_endB7v170000EPS3_.exit.loopexit, label %while.body.i

_ZNSt3__16vectorIN9benchmark17BenchmarkReporter3RunENS_9allocatorIS3_EEE22__base_destruct_at_endB7v170000EPS3_.exit.loopexit: ; preds = %_ZNSt3__116allocator_traitsINS_9allocatorIN9benchmark17BenchmarkReporter3RunEEEE7destroyB7v170000IS4_vEEvRS5_PT_.exit.i
  %.pre = load ptr, ptr %all_runs_.i, align 8, !tbaa !64
  br label %_ZNSt3__16vectorIN9benchmark17BenchmarkReporter3RunENS_9allocatorIS3_EEE22__base_destruct_at_endB7v170000EPS3_.exit

_ZNSt3__16vectorIN9benchmark17BenchmarkReporter3RunENS_9allocatorIS3_EEE22__base_destruct_at_endB7v170000EPS3_.exit: ; preds = %_ZNSt3__16vectorIN9benchmark17BenchmarkReporter3RunENS_9allocatorIS3_EEE22__base_destruct_at_endB7v170000EPS3_.exit.loopexit, %if.then.i.i.i
  %55 = phi ptr [ %.pre, %_ZNSt3__16vectorIN9benchmark17BenchmarkReporter3RunENS_9allocatorIS3_EEE22__base_destruct_at_endB7v170000EPS3_.exit.loopexit ], [ %49, %if.then.i.i.i ]
  store ptr %49, ptr %__end_.i, align 8, !tbaa !68
  call void @_ZdlPv(ptr noundef %55) #25
  br label %_ZN12_GLOBAL__N_112TestReporterD2Ev.exit

_ZN12_GLOBAL__N_112TestReporterD2Ev.exit:         ; preds = %cond.end22, %_ZNSt3__16vectorIN9benchmark17BenchmarkReporter3RunENS_9allocatorIS3_EEE22__base_destruct_at_endB7v170000EPS3_.exit
  store ptr getelementptr inbounds ({ [9 x ptr] }, ptr @_ZTVN9benchmark15ConsoleReporterE, i64 0, inrange i32 0, i64 2), ptr %test_reporter, align 8, !tbaa !62
  %56 = load ptr, ptr %__pair1_.i.i.i.i, align 8, !tbaa !84
  call void @_ZNSt3__16__treeINS_12__value_typeINS_12basic_stringIcNS_11char_traitsIcEENS_9allocatorIcEEEEN9benchmark7CounterEEENS_19__map_value_compareIS7_SA_NS_4lessIS7_EELb1EEENS5_ISA_EEE7destroyEPNS_11__tree_nodeISA_PvEE(ptr noundef nonnull align 8 dereferenceable(24) %prev_counters_.i.i, ptr noundef %56) #26
  call void @_ZN9benchmark17BenchmarkReporterD2Ev(ptr noundef nonnull align 8 dereferenceable(24) %test_reporter) #26
  call void @llvm.lifetime.end.p0(i64 96, ptr nonnull %test_reporter) #26
  ret i32 0

ehcleanup:                                        ; preds = %lpad12.loopexit, %lpad12.loopexit.split-lp, %_ZNSt3__112basic_stringIcNS_11char_traitsIcEENS_9allocatorIcEEED2Ev.exit191.i, %lpad
  %.pn = phi { ptr, i32 } [ %4, %lpad ], [ %.pn129.pn.i, %_ZNSt3__112basic_stringIcNS_11char_traitsIcEENS_9allocatorIcEEED2Ev.exit191.i ], [ %lpad.loopexit, %lpad12.loopexit ], [ %lpad.loopexit.split-lp, %lpad12.loopexit.split-lp ]
  call void @_ZN12_GLOBAL__N_112TestReporterD2Ev(ptr noundef nonnull align 8 dereferenceable(96) %test_reporter) #26
  call void @llvm.lifetime.end.p0(i64 96, ptr nonnull %test_reporter) #26
  resume { ptr, i32 } %.pn
}

declare void @_ZN9benchmark10InitializeEPiPPcPFvvE(ptr noundef, ptr noundef, ptr noundef) local_unnamed_addr #0

declare noundef i64 @_ZN9benchmark22RunSpecifiedBenchmarksEPNS_17BenchmarkReporterE(ptr noundef) local_unnamed_addr #0

; Function Attrs: nounwind uwtable
define internal void @_ZN12_GLOBAL__N_112TestReporterD2Ev(ptr noundef nonnull align 8 dereferenceable(96) %this) unnamed_addr #1 align 2 personality ptr @__gxx_personality_v0 {
entry:
  store ptr getelementptr inbounds ({ [9 x ptr] }, ptr @_ZTVN12_GLOBAL__N_112TestReporterE, i64 0, inrange i32 0, i64 2), ptr %this, align 8, !tbaa !62
  %all_runs_ = getelementptr inbounds %"class.(anonymous namespace)::TestReporter", ptr %this, i64 0, i32 1
  %0 = load ptr, ptr %all_runs_, align 8, !tbaa !64
  %cmp.not.i.i = icmp eq ptr %0, null
  br i1 %cmp.not.i.i, label %_ZNSt3__16vectorIN9benchmark17BenchmarkReporter3RunENS_9allocatorIS3_EEED2B7v170000Ev.exit, label %if.then.i.i

if.then.i.i:                                      ; preds = %entry
  tail call void @_ZNSt3__16vectorIN9benchmark17BenchmarkReporter3RunENS_9allocatorIS3_EEE22__base_destruct_at_endB7v170000EPS3_(ptr noundef nonnull align 8 dereferenceable(24) %all_runs_, ptr noundef nonnull %0) #26
  %1 = load ptr, ptr %all_runs_, align 8, !tbaa !64
  tail call void @_ZdlPv(ptr noundef %1) #25
  br label %_ZNSt3__16vectorIN9benchmark17BenchmarkReporter3RunENS_9allocatorIS3_EEED2B7v170000Ev.exit

_ZNSt3__16vectorIN9benchmark17BenchmarkReporter3RunENS_9allocatorIS3_EEED2B7v170000Ev.exit: ; preds = %entry, %if.then.i.i
  store ptr getelementptr inbounds ({ [9 x ptr] }, ptr @_ZTVN9benchmark15ConsoleReporterE, i64 0, inrange i32 0, i64 2), ptr %this, align 8, !tbaa !62
  %prev_counters_.i = getelementptr inbounds %"class.benchmark::ConsoleReporter", ptr %this, i64 0, i32 4
  %__pair1_.i.i.i.i.i = getelementptr inbounds %"class.benchmark::ConsoleReporter", ptr %this, i64 0, i32 4, i32 0, i32 1
  %2 = load ptr, ptr %__pair1_.i.i.i.i.i, align 8, !tbaa !84
  tail call void @_ZNSt3__16__treeINS_12__value_typeINS_12basic_stringIcNS_11char_traitsIcEENS_9allocatorIcEEEEN9benchmark7CounterEEENS_19__map_value_compareIS7_SA_NS_4lessIS7_EELb1EEENS5_ISA_EEE7destroyEPNS_11__tree_nodeISA_PvEE(ptr noundef nonnull align 8 dereferenceable(24) %prev_counters_.i, ptr noundef %2) #26
  tail call void @_ZN9benchmark17BenchmarkReporterD2Ev(ptr noundef nonnull align 8 dereferenceable(24) %this) #26
  ret void
}

declare void @_ZN9benchmark8internal9BenchmarkC2EPKc(ptr noundef nonnull align 8 dereferenceable(208), ptr noundef) unnamed_addr #0

declare void @_ZNSt3__1plIcNS_11char_traitsIcEENS_9allocatorIcEEEENS_12basic_stringIT_T0_T1_EEPKS6_RKS9_(ptr sret(%"class.std::__1::basic_string") align 8, ptr noundef, ptr noundef nonnull align 8 dereferenceable(24)) local_unnamed_addr #0

declare void @_ZNSt3__112basic_stringIcNS_11char_traitsIcEENS_9allocatorIcEEEC1ERKS5_(ptr noundef nonnull align 8 dereferenceable(24), ptr noundef nonnull align 8 dereferenceable(24)) unnamed_addr #0

; Function Attrs: mustprogress nocallback nofree nounwind willreturn memory(argmem: readwrite)
declare void @llvm.memcpy.p0.p0.i64(ptr noalias nocapture writeonly, ptr noalias nocapture readonly, i64, i1 immarg) #11

; Function Attrs: noinline noreturn nounwind
define linkonce_odr hidden void @__clang_call_terminate(ptr noundef %0) local_unnamed_addr #12 comdat {
  %2 = tail call ptr @__cxa_begin_catch(ptr %0) #26
  tail call void @_ZSt9terminatev() #29
  unreachable
}

declare ptr @__cxa_begin_catch(ptr) local_unnamed_addr

declare void @_ZSt9terminatev() local_unnamed_addr

; Function Attrs: mustprogress nocallback nofree nosync nounwind willreturn memory(inaccessiblemem: readwrite)
declare void @llvm.assume(i1 noundef) #13

; Function Attrs: mustprogress nocallback nofree nounwind willreturn memory(argmem: write)
declare void @llvm.memset.p0.i64(ptr nocapture writeonly, i8, i64, i1 immarg) #14

; Function Attrs: mustprogress noreturn uwtable
define internal fastcc void @_ZNKSt3__16vectorIN12_GLOBAL__N_18TestCaseENS_9allocatorIS2_EEE20__throw_length_errorB7v170000Ev() unnamed_addr #15 align 2 {
entry:
  tail call void @_ZNSt3__120__throw_length_errorB7v170000EPKc(ptr noundef nonnull @.str.48) #27
  unreachable
}

; Function Attrs: inlinehint mustprogress noreturn uwtable
define linkonce_odr hidden void @_ZNSt3__120__throw_length_errorB7v170000EPKc(ptr noundef %__msg) local_unnamed_addr #16 comdat personality ptr @__gxx_personality_v0 {
entry:
  %exception = tail call ptr @__cxa_allocate_exception(i64 16) #26
  invoke void @_ZNSt12length_errorC2B7v170000EPKc(ptr noundef nonnull align 8 dereferenceable(16) %exception, ptr noundef %__msg)
          to label %invoke.cont unwind label %lpad

invoke.cont:                                      ; preds = %entry
  tail call void @__cxa_throw(ptr nonnull %exception, ptr nonnull @_ZTISt12length_error, ptr nonnull @_ZNSt12length_errorD1Ev) #27
  unreachable

lpad:                                             ; preds = %entry
  %0 = landingpad { ptr, i32 }
          cleanup
  tail call void @__cxa_free_exception(ptr %exception) #26
  resume { ptr, i32 } %0
}

declare ptr @__cxa_allocate_exception(i64) local_unnamed_addr

; Function Attrs: uwtable
define linkonce_odr hidden void @_ZNSt12length_errorC2B7v170000EPKc(ptr noundef nonnull align 8 dereferenceable(16) %this, ptr noundef %__s) unnamed_addr #6 comdat align 2 {
entry:
  tail call void @_ZNSt11logic_errorC2EPKc(ptr noundef nonnull align 8 dereferenceable(16) %this, ptr noundef %__s)
  store ptr getelementptr inbounds ({ [5 x ptr] }, ptr @_ZTVSt12length_error, i64 0, inrange i32 0, i64 2), ptr %this, align 8, !tbaa !62
  ret void
}

declare void @__cxa_free_exception(ptr) local_unnamed_addr

; Function Attrs: nounwind
declare void @_ZNSt12length_errorD1Ev(ptr noundef nonnull align 8 dereferenceable(16)) unnamed_addr #17

declare void @__cxa_throw(ptr, ptr, ptr) local_unnamed_addr

declare void @_ZNSt11logic_errorC2EPKc(ptr noundef nonnull align 8 dereferenceable(16), ptr noundef) unnamed_addr #0

; Function Attrs: inlinehint mustprogress noreturn uwtable
define linkonce_odr hidden void @_ZSt28__throw_bad_array_new_lengthB7v170000v() local_unnamed_addr #16 comdat {
entry:
  %exception = tail call ptr @__cxa_allocate_exception(i64 8) #26
  tail call void @_ZNSt20bad_array_new_lengthC1Ev(ptr noundef nonnull align 8 dereferenceable(8) %exception) #26
  tail call void @__cxa_throw(ptr nonnull %exception, ptr nonnull @_ZTISt20bad_array_new_length, ptr nonnull @_ZNSt20bad_array_new_lengthD1Ev) #27
  unreachable
}

; Function Attrs: nounwind
declare void @_ZNSt20bad_array_new_lengthC1Ev(ptr noundef nonnull align 8 dereferenceable(8)) unnamed_addr #17

; Function Attrs: nounwind
declare void @_ZNSt20bad_array_new_lengthD1Ev(ptr noundef nonnull align 8 dereferenceable(8)) unnamed_addr #17

declare void @_ZN9benchmark5State16StartKeepRunningEv(ptr noundef nonnull align 8 dereferenceable(120)) local_unnamed_addr #0

declare void @_ZN9benchmark5State17FinishKeepRunningEv(ptr noundef nonnull align 8 dereferenceable(120)) local_unnamed_addr #0

; Function Attrs: mustprogress uwtable
define internal noundef zeroext i1 @_ZN12_GLOBAL__N_112TestReporter13ReportContextERKN9benchmark17BenchmarkReporter7ContextE(ptr noundef nonnull align 8 dereferenceable(96) %this, ptr noundef nonnull align 8 dereferenceable(24) %context) unnamed_addr #3 align 2 {
entry:
  %call = tail call noundef zeroext i1 @_ZN9benchmark15ConsoleReporter13ReportContextERKNS_17BenchmarkReporter7ContextE(ptr noundef nonnull align 8 dereferenceable(65) %this, ptr noundef nonnull align 8 dereferenceable(24) %context)
  ret i1 %call
}

; Function Attrs: uwtable
define internal void @_ZN12_GLOBAL__N_112TestReporter10ReportRunsERKNSt3__16vectorIN9benchmark17BenchmarkReporter3RunENS1_9allocatorIS5_EEEE(ptr noundef nonnull align 8 dereferenceable(96) %this, ptr noundef nonnull align 8 dereferenceable(24) %report) unnamed_addr #6 align 2 {
entry:
  %all_runs_ = getelementptr inbounds %"class.(anonymous namespace)::TestReporter", ptr %this, i64 0, i32 1
  %__end_.i = getelementptr inbounds %"class.(anonymous namespace)::TestReporter", ptr %this, i64 0, i32 1, i32 1
  %0 = load ptr, ptr %__end_.i, align 8, !tbaa !68
  %1 = load ptr, ptr %report, align 8, !tbaa !64
  %__end_.i.i = getelementptr inbounds %"class.std::__1::vector.59", ptr %report, i64 0, i32 1
  %2 = load ptr, ptr %__end_.i.i, align 8, !tbaa !68
  %call12 = tail call ptr @_ZNSt3__16vectorIN9benchmark17BenchmarkReporter3RunENS_9allocatorIS3_EEE6insertINS_11__wrap_iterIPKS3_EELi0EEENS8_IPS3_EESB_T_SE_(ptr noundef nonnull align 8 dereferenceable(24) %all_runs_, ptr %0, ptr %1, ptr %2)
  tail call void @_ZN9benchmark15ConsoleReporter10ReportRunsERKNSt3__16vectorINS_17BenchmarkReporter3RunENS1_9allocatorIS4_EEEE(ptr noundef nonnull align 8 dereferenceable(65) %this, ptr noundef nonnull align 8 dereferenceable(24) %report)
  ret void
}

; Function Attrs: mustprogress nounwind uwtable
define linkonce_odr hidden void @_ZN9benchmark17BenchmarkReporter8FinalizeEv(ptr noundef nonnull align 8 dereferenceable(24) %this) unnamed_addr #18 comdat align 2 {
entry:
  ret void
}

; Function Attrs: nounwind uwtable
define internal void @_ZN12_GLOBAL__N_112TestReporterD0Ev(ptr noundef nonnull align 8 dereferenceable(96) %this) unnamed_addr #1 align 2 personality ptr @__gxx_personality_v0 {
entry:
  store ptr getelementptr inbounds ({ [9 x ptr] }, ptr @_ZTVN12_GLOBAL__N_112TestReporterE, i64 0, inrange i32 0, i64 2), ptr %this, align 8, !tbaa !62
  %all_runs_.i = getelementptr inbounds %"class.(anonymous namespace)::TestReporter", ptr %this, i64 0, i32 1
  %0 = load ptr, ptr %all_runs_.i, align 8, !tbaa !64
  %cmp.not.i.i.i = icmp eq ptr %0, null
  br i1 %cmp.not.i.i.i, label %_ZN12_GLOBAL__N_112TestReporterD2Ev.exit, label %if.then.i.i.i

if.then.i.i.i:                                    ; preds = %entry
  tail call void @_ZNSt3__16vectorIN9benchmark17BenchmarkReporter3RunENS_9allocatorIS3_EEE22__base_destruct_at_endB7v170000EPS3_(ptr noundef nonnull align 8 dereferenceable(24) %all_runs_.i, ptr noundef nonnull %0) #26
  %1 = load ptr, ptr %all_runs_.i, align 8, !tbaa !64
  tail call void @_ZdlPv(ptr noundef %1) #25
  br label %_ZN12_GLOBAL__N_112TestReporterD2Ev.exit

_ZN12_GLOBAL__N_112TestReporterD2Ev.exit:         ; preds = %entry, %if.then.i.i.i
  store ptr getelementptr inbounds ({ [9 x ptr] }, ptr @_ZTVN9benchmark15ConsoleReporterE, i64 0, inrange i32 0, i64 2), ptr %this, align 8, !tbaa !62
  %prev_counters_.i.i = getelementptr inbounds %"class.benchmark::ConsoleReporter", ptr %this, i64 0, i32 4
  %__pair1_.i.i.i.i.i.i = getelementptr inbounds %"class.benchmark::ConsoleReporter", ptr %this, i64 0, i32 4, i32 0, i32 1
  %2 = load ptr, ptr %__pair1_.i.i.i.i.i.i, align 8, !tbaa !84
  tail call void @_ZNSt3__16__treeINS_12__value_typeINS_12basic_stringIcNS_11char_traitsIcEENS_9allocatorIcEEEEN9benchmark7CounterEEENS_19__map_value_compareIS7_SA_NS_4lessIS7_EELb1EEENS5_ISA_EEE7destroyEPNS_11__tree_nodeISA_PvEE(ptr noundef nonnull align 8 dereferenceable(24) %prev_counters_.i.i, ptr noundef %2) #26
  tail call void @_ZN9benchmark17BenchmarkReporterD2Ev(ptr noundef nonnull align 8 dereferenceable(24) %this) #26
  tail call void @_ZdlPv(ptr noundef nonnull %this) #25
  ret void
}

declare void @_ZN9benchmark15ConsoleReporter12PrintRunDataERKNS_17BenchmarkReporter3RunE(ptr noundef nonnull align 8 dereferenceable(65), ptr noundef nonnull align 8 dereferenceable(424)) unnamed_addr #0

declare void @_ZN9benchmark15ConsoleReporter11PrintHeaderERKNS_17BenchmarkReporter3RunE(ptr noundef nonnull align 8 dereferenceable(65), ptr noundef nonnull align 8 dereferenceable(424)) unnamed_addr #0

declare void @_ZN9benchmark17BenchmarkReporterC2Ev(ptr noundef nonnull align 8 dereferenceable(24)) unnamed_addr #0

declare noundef zeroext i1 @_ZN9benchmark15ConsoleReporter13ReportContextERKNS_17BenchmarkReporter7ContextE(ptr noundef nonnull align 8 dereferenceable(65), ptr noundef nonnull align 8 dereferenceable(24)) unnamed_addr #0

; Function Attrs: uwtable
define linkonce_odr hidden ptr @_ZNSt3__16vectorIN9benchmark17BenchmarkReporter3RunENS_9allocatorIS3_EEE6insertINS_11__wrap_iterIPKS3_EELi0EEENS8_IPS3_EESB_T_SE_(ptr noundef nonnull align 8 dereferenceable(24) %this, ptr %__position.coerce, ptr %__first.coerce, ptr %__last.coerce) local_unnamed_addr #6 comdat align 2 personality ptr @__gxx_personality_v0 {
entry:
  %__first2.addr.i.i = alloca ptr, align 8
  %__destruct_first.i.i = alloca ptr, align 8
  %__guard.i.i = alloca %"struct.std::__1::__exception_guard_exceptions.82", align 8
  %__v = alloca %"struct.std::__1::__split_buffer.79", align 8
  %0 = load ptr, ptr %this, align 8, !tbaa !64
  %sub.ptr.lhs.cast.i = ptrtoint ptr %__position.coerce to i64
  %sub.ptr.rhs.cast.i = ptrtoint ptr %0 to i64
  %sub.ptr.sub.i = sub i64 %sub.ptr.lhs.cast.i, %sub.ptr.rhs.cast.i
  %sub.ptr.div.i = sdiv exact i64 %sub.ptr.sub.i, 424
  %add.ptr = getelementptr inbounds %"struct.benchmark::BenchmarkReporter::Run", ptr %0, i64 %sub.ptr.div.i
  %sub.ptr.lhs.cast.i.i.i = ptrtoint ptr %__last.coerce to i64
  %sub.ptr.rhs.cast.i.i.i = ptrtoint ptr %__first.coerce to i64
  %sub.ptr.sub.i.i.i = sub i64 %sub.ptr.lhs.cast.i.i.i, %sub.ptr.rhs.cast.i.i.i
  %sub.ptr.div.i.i.i = sdiv exact i64 %sub.ptr.sub.i.i.i, 424
  %cmp = icmp sgt i64 %sub.ptr.sub.i.i.i, 0
  br i1 %cmp, label %if.then, label %if.end54

if.then:                                          ; preds = %entry
  %__end_cap_.i = getelementptr inbounds %"class.std::__1::vector.59", ptr %this, i64 0, i32 2
  %1 = load ptr, ptr %__end_cap_.i, align 8, !tbaa !26
  %__end_ = getelementptr inbounds %"class.std::__1::vector.59", ptr %this, i64 0, i32 1
  %2 = load ptr, ptr %__end_, align 8, !tbaa !68
  %sub.ptr.lhs.cast = ptrtoint ptr %1 to i64
  %sub.ptr.rhs.cast = ptrtoint ptr %2 to i64
  %sub.ptr.sub = sub i64 %sub.ptr.lhs.cast, %sub.ptr.rhs.cast
  %sub.ptr.div = sdiv exact i64 %sub.ptr.sub, 424
  %cmp11.not = icmp sgt i64 %sub.ptr.div.i.i.i, %sub.ptr.div
  br i1 %cmp11.not, label %if.else, label %if.then12

if.then12:                                        ; preds = %if.then
  %sub.ptr.rhs.cast16 = ptrtoint ptr %add.ptr to i64
  %sub.ptr.sub17 = sub i64 %sub.ptr.rhs.cast, %sub.ptr.rhs.cast16
  %sub.ptr.div18 = sdiv exact i64 %sub.ptr.sub17, 424
  %cmp19 = icmp sgt i64 %sub.ptr.div.i.i.i, %sub.ptr.div18
  br i1 %cmp19, label %if.then20, label %if.then31

if.then20:                                        ; preds = %if.then12
  %add.ptr.i.i.i = getelementptr inbounds %"struct.benchmark::BenchmarkReporter::Run", ptr %__first.coerce, i64 %sub.ptr.div18
  call void @llvm.lifetime.start.p0(i64 8, ptr nonnull %__first2.addr.i.i)
  store ptr %2, ptr %__first2.addr.i.i, align 8, !tbaa !26
  call void @llvm.lifetime.start.p0(i64 8, ptr nonnull %__destruct_first.i.i) #26
  store ptr %2, ptr %__destruct_first.i.i, align 8, !tbaa !26
  call void @llvm.lifetime.start.p0(i64 32, ptr nonnull %__guard.i.i) #26
  store ptr %__end_cap_.i, ptr %__guard.i.i, align 8
  %agg.tmp7.sroa.4.0.__guard.sroa_idx.i.i = getelementptr inbounds i8, ptr %__guard.i.i, i64 8
  store ptr %__destruct_first.i.i, ptr %agg.tmp7.sroa.4.0.__guard.sroa_idx.i.i, align 8
  %agg.tmp7.sroa.5.0.__guard.sroa_idx.i.i = getelementptr inbounds i8, ptr %__guard.i.i, i64 16
  store ptr %__first2.addr.i.i, ptr %agg.tmp7.sroa.5.0.__guard.sroa_idx.i.i, align 8
  %__completed_.i.i.i.i = getelementptr inbounds %"struct.std::__1::__exception_guard_exceptions.82", ptr %__guard.i.i, i64 0, i32 1
  store i8 0, ptr %__completed_.i.i.i.i, align 8, !tbaa !85, !alias.scope !88
  %cmp.i.i.not11.i.i = icmp eq ptr %add.ptr.i.i.i, %__last.coerce
  br i1 %cmp.i.i.not11.i.i, label %if.end, label %while.body.i.i

while.body.i.i:                                   ; preds = %if.then20, %invoke.cont.i.i
  %3 = phi ptr [ %incdec.ptr.i.i, %invoke.cont.i.i ], [ %2, %if.then20 ]
  %__first1.sroa.0.012.i.i = phi ptr [ %incdec.ptr.i.i.i, %invoke.cont.i.i ], [ %add.ptr.i.i.i, %if.then20 ]
  invoke void @_ZN9benchmark17BenchmarkReporter3RunC2ERKS1_(ptr noundef nonnull align 8 dereferenceable(424) %3, ptr noundef nonnull align 8 dereferenceable(424) %__first1.sroa.0.012.i.i)
          to label %invoke.cont.i.i unwind label %lpad.i.i

invoke.cont.i.i:                                  ; preds = %while.body.i.i
  %incdec.ptr.i.i.i = getelementptr inbounds %"struct.benchmark::BenchmarkReporter::Run", ptr %__first1.sroa.0.012.i.i, i64 1
  %4 = load ptr, ptr %__first2.addr.i.i, align 8, !tbaa !26
  %incdec.ptr.i.i = getelementptr inbounds %"struct.benchmark::BenchmarkReporter::Run", ptr %4, i64 1
  store ptr %incdec.ptr.i.i, ptr %__first2.addr.i.i, align 8, !tbaa !26
  %cmp.i.i.not.i.i = icmp eq ptr %incdec.ptr.i.i.i, %__last.coerce
  br i1 %cmp.i.i.not.i.i, label %if.end, label %while.body.i.i, !llvm.loop !91

common.resume:                                    ; preds = %lpad.body, %lpad.i.i
  %common.resume.op = phi { ptr, i32 } [ %5, %lpad.i.i ], [ %eh.lpad-body, %lpad.body ]
  resume { ptr, i32 } %common.resume.op

lpad.i.i:                                         ; preds = %while.body.i.i
  %5 = landingpad { ptr, i32 }
          cleanup
  call void @_ZNSt3__128__exception_guard_exceptionsINS_29_AllocatorDestroyRangeReverseINS_9allocatorIN9benchmark17BenchmarkReporter3RunEEEPS5_EEED2B7v170000Ev(ptr noundef nonnull align 8 dereferenceable(25) %__guard.i.i) #26
  call void @llvm.lifetime.end.p0(i64 32, ptr nonnull %__guard.i.i) #26
  call void @llvm.lifetime.end.p0(i64 8, ptr nonnull %__destruct_first.i.i) #26
  store ptr %2, ptr %__end_, align 8, !tbaa !68
  br label %common.resume

if.end:                                           ; preds = %invoke.cont.i.i, %if.then20
  %6 = phi ptr [ %2, %if.then20 ], [ %incdec.ptr.i.i, %invoke.cont.i.i ]
  call void @llvm.lifetime.end.p0(i64 32, ptr nonnull %__guard.i.i) #26
  call void @llvm.lifetime.end.p0(i64 8, ptr nonnull %__destruct_first.i.i) #26
  call void @llvm.lifetime.end.p0(i64 8, ptr nonnull %__first2.addr.i.i)
  store ptr %6, ptr %__end_, align 8, !tbaa !68
  %cmp30 = icmp sgt i64 %sub.ptr.sub17, 0
  br i1 %cmp30, label %if.then31, label %if.end54

if.then31:                                        ; preds = %if.then12, %if.end
  %__m.sroa.0.092 = phi ptr [ %add.ptr.i.i.i, %if.end ], [ %__last.coerce, %if.then12 ]
  %add.ptr32 = getelementptr inbounds %"struct.benchmark::BenchmarkReporter::Run", ptr %add.ptr, i64 %sub.ptr.div.i.i.i
  call void @_ZNSt3__16vectorIN9benchmark17BenchmarkReporter3RunENS_9allocatorIS3_EEE12__move_rangeEPS3_S7_S7_(ptr noundef nonnull align 8 dereferenceable(24) %this, ptr noundef %add.ptr, ptr noundef %2, ptr noundef nonnull %add.ptr32)
  %cmp.not8.i.i.i.i.i = icmp eq ptr %__m.sroa.0.092, %__first.coerce
  br i1 %cmp.not8.i.i.i.i.i, label %if.end54, label %while.body.i.i.i.i.i

while.body.i.i.i.i.i:                             ; preds = %if.then31, %while.body.i.i.i.i.i
  %storemerge10.i.i.i.i.i = phi ptr [ %incdec.ptr2.i.i.i.i.i, %while.body.i.i.i.i.i ], [ %add.ptr, %if.then31 ]
  %__first.addr.09.i.i.i.i.i = phi ptr [ %incdec.ptr.i.i.i.i.i, %while.body.i.i.i.i.i ], [ %__first.coerce, %if.then31 ]
  %call.i.i.i.i.i = call noundef nonnull align 8 dereferenceable(424) ptr @_ZN9benchmark17BenchmarkReporter3RunaSERKS1_(ptr noundef nonnull align 8 dereferenceable(424) %storemerge10.i.i.i.i.i, ptr noundef nonnull align 8 dereferenceable(424) %__first.addr.09.i.i.i.i.i)
  %incdec.ptr.i.i.i.i.i = getelementptr inbounds %"struct.benchmark::BenchmarkReporter::Run", ptr %__first.addr.09.i.i.i.i.i, i64 1
  %incdec.ptr2.i.i.i.i.i = getelementptr inbounds %"struct.benchmark::BenchmarkReporter::Run", ptr %storemerge10.i.i.i.i.i, i64 1
  %cmp.not.i.i.i.i.i = icmp eq ptr %incdec.ptr.i.i.i.i.i, %__m.sroa.0.092
  br i1 %cmp.not.i.i.i.i.i, label %if.end54, label %while.body.i.i.i.i.i, !llvm.loop !92

if.else:                                          ; preds = %if.then
  call void @llvm.lifetime.start.p0(i64 40, ptr nonnull %__v) #26
  %sub.ptr.sub.i77 = sub i64 %sub.ptr.rhs.cast, %sub.ptr.rhs.cast.i
  %sub.ptr.div.i78 = sdiv exact i64 %sub.ptr.sub.i77, 424
  %add = add nsw i64 %sub.ptr.div.i78, %sub.ptr.div.i.i.i
  %cmp.i = icmp ugt i64 %add, 43506471871956489
  br i1 %cmp.i, label %if.then.i, label %_ZNKSt3__16vectorIN9benchmark17BenchmarkReporter3RunENS_9allocatorIS3_EEE11__recommendB7v170000Em.exit

if.then.i:                                        ; preds = %if.else
  tail call void @_ZNKSt3__16vectorIN9benchmark17BenchmarkReporter3RunENS_9allocatorIS3_EEE20__throw_length_errorB7v170000Ev(ptr noundef nonnull align 8 dereferenceable(24) %this) #27
  unreachable

_ZNKSt3__16vectorIN9benchmark17BenchmarkReporter3RunENS_9allocatorIS3_EEE11__recommendB7v170000Em.exit: ; preds = %if.else
  %sub.ptr.sub.i.i = sub i64 %sub.ptr.lhs.cast, %sub.ptr.rhs.cast.i
  %sub.ptr.div.i.i = sdiv exact i64 %sub.ptr.sub.i.i, 424
  %cmp3.not.i = icmp ult i64 %sub.ptr.div.i.i, 21753235935978244
  %mul.i = shl nuw nsw i64 %sub.ptr.div.i.i, 1
  %.sroa.speculated.i = tail call i64 @llvm.umax.i64(i64 %mul.i, i64 %add)
  %retval.0.i = select i1 %cmp3.not.i, i64 %.sroa.speculated.i, i64 43506471871956489
  %__end_cap_.i79 = getelementptr inbounds %"struct.std::__1::__split_buffer.79", ptr %__v, i64 0, i32 3
  %7 = getelementptr inbounds %"struct.std::__1::__split_buffer.79", ptr %__v, i64 0, i32 3, i32 1
  store ptr %__end_cap_.i, ptr %7, align 8, !tbaa !26
  %cmp.i80 = icmp eq i64 %retval.0.i, 0
  br i1 %cmp.i80, label %_ZNSt3__114__split_bufferIN9benchmark17BenchmarkReporter3RunERNS_9allocatorIS3_EEEC2EmmS6_.exit, label %if.else.i

if.else.i:                                        ; preds = %_ZNKSt3__16vectorIN9benchmark17BenchmarkReporter3RunENS_9allocatorIS3_EEE11__recommendB7v170000Em.exit
  %cmp.i.i.i = icmp ugt i64 %retval.0.i, 43506471871956489
  br i1 %cmp.i.i.i, label %if.then.i.i.i, label %_ZNSt3__119__allocate_at_leastB7v170000INS_9allocatorIN9benchmark17BenchmarkReporter3RunEEEEENS_19__allocation_resultINS_16allocator_traitsIT_E7pointerEEERS8_m.exit.i

if.then.i.i.i:                                    ; preds = %if.else.i
  tail call void @_ZSt28__throw_bad_array_new_lengthB7v170000v() #27
  unreachable

_ZNSt3__119__allocate_at_leastB7v170000INS_9allocatorIN9benchmark17BenchmarkReporter3RunEEEEENS_19__allocation_resultINS_16allocator_traitsIT_E7pointerEEERS8_m.exit.i: ; preds = %if.else.i
  %mul.i.i.i = mul nuw i64 %retval.0.i, 424
  %call.i.i.i.i.i81 = tail call noalias noundef nonnull ptr @_Znwm(i64 noundef %mul.i.i.i) #28
  br label %_ZNSt3__114__split_bufferIN9benchmark17BenchmarkReporter3RunERNS_9allocatorIS3_EEEC2EmmS6_.exit

_ZNSt3__114__split_bufferIN9benchmark17BenchmarkReporter3RunERNS_9allocatorIS3_EEEC2EmmS6_.exit: ; preds = %_ZNKSt3__16vectorIN9benchmark17BenchmarkReporter3RunENS_9allocatorIS3_EEE11__recommendB7v170000Em.exit, %_ZNSt3__119__allocate_at_leastB7v170000INS_9allocatorIN9benchmark17BenchmarkReporter3RunEEEEENS_19__allocation_resultINS_16allocator_traitsIT_E7pointerEEERS8_m.exit.i
  %storemerge.i = phi ptr [ %call.i.i.i.i.i81, %_ZNSt3__119__allocate_at_leastB7v170000INS_9allocatorIN9benchmark17BenchmarkReporter3RunEEEEENS_19__allocation_resultINS_16allocator_traitsIT_E7pointerEEERS8_m.exit.i ], [ null, %_ZNKSt3__16vectorIN9benchmark17BenchmarkReporter3RunENS_9allocatorIS3_EEE11__recommendB7v170000Em.exit ]
  store ptr %storemerge.i, ptr %__v, align 8, !tbaa !93
  %add.ptr.i = getelementptr inbounds %"struct.benchmark::BenchmarkReporter::Run", ptr %storemerge.i, i64 %sub.ptr.div.i
  %__end_.i82 = getelementptr inbounds %"struct.std::__1::__split_buffer.79", ptr %__v, i64 0, i32 2
  store ptr %add.ptr.i, ptr %__end_.i82, align 8, !tbaa !97
  %__begin_.i = getelementptr inbounds %"struct.std::__1::__split_buffer.79", ptr %__v, i64 0, i32 1
  store ptr %add.ptr.i, ptr %__begin_.i, align 8, !tbaa !98
  %add.ptr6.i = getelementptr inbounds %"struct.benchmark::BenchmarkReporter::Run", ptr %storemerge.i, i64 %retval.0.i
  store ptr %add.ptr6.i, ptr %__end_cap_.i79, align 8, !tbaa !26
  %add.ptr.i.i = getelementptr inbounds %"struct.benchmark::BenchmarkReporter::Run", ptr %add.ptr.i, i64 %sub.ptr.div.i.i.i
  %cmp.not23.i = icmp eq ptr %__last.coerce, %__first.coerce
  br i1 %cmp.not23.i, label %invoke.cont, label %for.body.i

for.body.i:                                       ; preds = %_ZNSt3__114__split_bufferIN9benchmark17BenchmarkReporter3RunERNS_9allocatorIS3_EEEC2EmmS6_.exit, %for.inc.i
  %__tx.sroa.0.025.i = phi ptr [ %incdec.ptr.i, %for.inc.i ], [ %add.ptr.i, %_ZNSt3__114__split_bufferIN9benchmark17BenchmarkReporter3RunERNS_9allocatorIS3_EEEC2EmmS6_.exit ]
  %__first.sroa.0.024.i = phi ptr [ %incdec.ptr.i.i84, %for.inc.i ], [ %__first.coerce, %_ZNSt3__114__split_bufferIN9benchmark17BenchmarkReporter3RunERNS_9allocatorIS3_EEEC2EmmS6_.exit ]
  invoke void @_ZN9benchmark17BenchmarkReporter3RunC2ERKS1_(ptr noundef nonnull align 8 dereferenceable(424) %__tx.sroa.0.025.i, ptr noundef nonnull align 8 dereferenceable(424) %__first.sroa.0.024.i)
          to label %for.inc.i unwind label %lpad.i

for.inc.i:                                        ; preds = %for.body.i
  %incdec.ptr.i = getelementptr inbounds %"struct.benchmark::BenchmarkReporter::Run", ptr %__tx.sroa.0.025.i, i64 1
  %incdec.ptr.i.i84 = getelementptr inbounds %"struct.benchmark::BenchmarkReporter::Run", ptr %__first.sroa.0.024.i, i64 1
  %cmp.not.i = icmp eq ptr %incdec.ptr.i, %add.ptr.i.i
  br i1 %cmp.not.i, label %invoke.cont, label %for.body.i, !llvm.loop !99

lpad.i:                                           ; preds = %for.body.i
  %8 = landingpad { ptr, i32 }
          cleanup
  store ptr %__tx.sroa.0.025.i, ptr %__end_.i82, align 8, !tbaa !26
  br label %lpad.body

invoke.cont:                                      ; preds = %for.inc.i, %_ZNSt3__114__split_bufferIN9benchmark17BenchmarkReporter3RunERNS_9allocatorIS3_EEEC2EmmS6_.exit
  %__tx.sroa.0.0.lcssa.i = phi ptr [ %add.ptr.i, %_ZNSt3__114__split_bufferIN9benchmark17BenchmarkReporter3RunERNS_9allocatorIS3_EEEC2EmmS6_.exit ], [ %add.ptr.i.i, %for.inc.i ]
  store ptr %__tx.sroa.0.0.lcssa.i, ptr %__end_.i82, align 8, !tbaa !26
  %call52 = invoke noundef ptr @_ZNSt3__16vectorIN9benchmark17BenchmarkReporter3RunENS_9allocatorIS3_EEE26__swap_out_circular_bufferERNS_14__split_bufferIS3_RS5_EEPS3_(ptr noundef nonnull align 8 dereferenceable(24) %this, ptr noundef nonnull align 8 dereferenceable(40) %__v, ptr noundef %add.ptr)
          to label %invoke.cont51 unwind label %lpad

invoke.cont51:                                    ; preds = %invoke.cont
  %9 = load ptr, ptr %__begin_.i, align 8, !tbaa !98
  %10 = load ptr, ptr %__end_.i82, align 8, !tbaa !97
  %cmp.not4.i.i = icmp eq ptr %10, %9
  br i1 %cmp.not4.i.i, label %_ZNSt3__114__split_bufferIN9benchmark17BenchmarkReporter3RunERNS_9allocatorIS3_EEE17__destruct_at_endB7v170000EPS3_.exit, label %while.body.i.i88

while.body.i.i88:                                 ; preds = %invoke.cont51, %_ZNSt3__116allocator_traitsINS_9allocatorIN9benchmark17BenchmarkReporter3RunEEEE7destroyB7v170000IS4_vEEvRS5_PT_.exit.i.i
  %11 = phi ptr [ %16, %_ZNSt3__116allocator_traitsINS_9allocatorIN9benchmark17BenchmarkReporter3RunEEEE7destroyB7v170000IS4_vEEvRS5_PT_.exit.i.i ], [ %10, %invoke.cont51 ]
  %incdec.ptr.i.i87 = getelementptr inbounds %"struct.benchmark::BenchmarkReporter::Run", ptr %11, i64 -1
  store ptr %incdec.ptr.i.i87, ptr %__end_.i82, align 8, !tbaa !97
  %counters.i.i.i.i.i = getelementptr %"struct.benchmark::BenchmarkReporter::Run", ptr %11, i64 -1, i32 23
  %__pair1_.i.i.i.i.i.i.i.i.i = getelementptr %"struct.benchmark::BenchmarkReporter::Run", ptr %11, i64 -1, i32 23, i32 0, i32 1
  %12 = load ptr, ptr %__pair1_.i.i.i.i.i.i.i.i.i, align 8, !tbaa !84
  call void @_ZNSt3__16__treeINS_12__value_typeINS_12basic_stringIcNS_11char_traitsIcEENS_9allocatorIcEEEEN9benchmark7CounterEEENS_19__map_value_compareIS7_SA_NS_4lessIS7_EELb1EEENS5_ISA_EEE7destroyEPNS_11__tree_nodeISA_PvEE(ptr noundef nonnull align 8 dereferenceable(24) %counters.i.i.i.i.i, ptr noundef %12) #26
  %error_message.i.i.i.i.i = getelementptr %"struct.benchmark::BenchmarkReporter::Run", ptr %11, i64 -1, i32 8
  %bf.load.i.i.i.i.i.i.i = load i8, ptr %error_message.i.i.i.i.i, align 8
  %bf.clear.i.i.i.i.i.i.i = and i8 %bf.load.i.i.i.i.i.i.i, 1
  %tobool.i.not.i.i.i.i.i.i = icmp eq i8 %bf.clear.i.i.i.i.i.i.i, 0
  br i1 %tobool.i.not.i.i.i.i.i.i, label %_ZNSt3__112basic_stringIcNS_11char_traitsIcEENS_9allocatorIcEEED2Ev.exit.i.i.i.i.i, label %if.then.i.i.i.i.i.i

if.then.i.i.i.i.i.i:                              ; preds = %while.body.i.i88
  %__data_.i.i.i.i.i.i.i = getelementptr %"struct.benchmark::BenchmarkReporter::Run", ptr %11, i64 -1, i32 8, i32 0, i32 0, i32 0, i32 0, i32 0, i32 2
  %13 = load ptr, ptr %__data_.i.i.i.i.i.i.i, align 8, !tbaa !13
  call void @_ZdlPv(ptr noundef %13) #25
  br label %_ZNSt3__112basic_stringIcNS_11char_traitsIcEENS_9allocatorIcEEED2Ev.exit.i.i.i.i.i

_ZNSt3__112basic_stringIcNS_11char_traitsIcEENS_9allocatorIcEEED2Ev.exit.i.i.i.i.i: ; preds = %if.then.i.i.i.i.i.i, %while.body.i.i88
  %report_label.i.i.i.i.i = getelementptr %"struct.benchmark::BenchmarkReporter::Run", ptr %11, i64 -1, i32 6
  %bf.load.i.i2.i.i.i.i.i = load i8, ptr %report_label.i.i.i.i.i, align 8
  %bf.clear.i.i3.i.i.i.i.i = and i8 %bf.load.i.i2.i.i.i.i.i, 1
  %tobool.i.not.i4.i.i.i.i.i = icmp eq i8 %bf.clear.i.i3.i.i.i.i.i, 0
  br i1 %tobool.i.not.i4.i.i.i.i.i, label %_ZNSt3__112basic_stringIcNS_11char_traitsIcEENS_9allocatorIcEEED2Ev.exit7.i.i.i.i.i, label %if.then.i6.i.i.i.i.i

if.then.i6.i.i.i.i.i:                             ; preds = %_ZNSt3__112basic_stringIcNS_11char_traitsIcEENS_9allocatorIcEEED2Ev.exit.i.i.i.i.i
  %__data_.i.i5.i.i.i.i.i = getelementptr %"struct.benchmark::BenchmarkReporter::Run", ptr %11, i64 -1, i32 6, i32 0, i32 0, i32 0, i32 0, i32 0, i32 2
  %14 = load ptr, ptr %__data_.i.i5.i.i.i.i.i, align 8, !tbaa !13
  call void @_ZdlPv(ptr noundef %14) #25
  br label %_ZNSt3__112basic_stringIcNS_11char_traitsIcEENS_9allocatorIcEEED2Ev.exit7.i.i.i.i.i

_ZNSt3__112basic_stringIcNS_11char_traitsIcEENS_9allocatorIcEEED2Ev.exit7.i.i.i.i.i: ; preds = %if.then.i6.i.i.i.i.i, %_ZNSt3__112basic_stringIcNS_11char_traitsIcEENS_9allocatorIcEEED2Ev.exit.i.i.i.i.i
  %aggregate_name.i.i.i.i.i = getelementptr %"struct.benchmark::BenchmarkReporter::Run", ptr %11, i64 -1, i32 4
  %bf.load.i.i8.i.i.i.i.i = load i8, ptr %aggregate_name.i.i.i.i.i, align 8
  %bf.clear.i.i9.i.i.i.i.i = and i8 %bf.load.i.i8.i.i.i.i.i, 1
  %tobool.i.not.i10.i.i.i.i.i = icmp eq i8 %bf.clear.i.i9.i.i.i.i.i, 0
  br i1 %tobool.i.not.i10.i.i.i.i.i, label %_ZNSt3__116allocator_traitsINS_9allocatorIN9benchmark17BenchmarkReporter3RunEEEE7destroyB7v170000IS4_vEEvRS5_PT_.exit.i.i, label %if.then.i12.i.i.i.i.i

if.then.i12.i.i.i.i.i:                            ; preds = %_ZNSt3__112basic_stringIcNS_11char_traitsIcEENS_9allocatorIcEEED2Ev.exit7.i.i.i.i.i
  %__data_.i.i11.i.i.i.i.i = getelementptr %"struct.benchmark::BenchmarkReporter::Run", ptr %11, i64 -1, i32 4, i32 0, i32 0, i32 0, i32 0, i32 0, i32 2
  %15 = load ptr, ptr %__data_.i.i11.i.i.i.i.i, align 8, !tbaa !13
  call void @_ZdlPv(ptr noundef %15) #25
  br label %_ZNSt3__116allocator_traitsINS_9allocatorIN9benchmark17BenchmarkReporter3RunEEEE7destroyB7v170000IS4_vEEvRS5_PT_.exit.i.i

_ZNSt3__116allocator_traitsINS_9allocatorIN9benchmark17BenchmarkReporter3RunEEEE7destroyB7v170000IS4_vEEvRS5_PT_.exit.i.i: ; preds = %if.then.i12.i.i.i.i.i, %_ZNSt3__112basic_stringIcNS_11char_traitsIcEENS_9allocatorIcEEED2Ev.exit7.i.i.i.i.i
  call void @_ZN9benchmark13BenchmarkNameD2Ev(ptr noundef nonnull align 8 dereferenceable(168) %incdec.ptr.i.i87) #26
  %16 = load ptr, ptr %__end_.i82, align 8, !tbaa !97
  %cmp.not.i.i = icmp eq ptr %16, %9
  br i1 %cmp.not.i.i, label %_ZNSt3__114__split_bufferIN9benchmark17BenchmarkReporter3RunERNS_9allocatorIS3_EEE17__destruct_at_endB7v170000EPS3_.exit, label %while.body.i.i88

_ZNSt3__114__split_bufferIN9benchmark17BenchmarkReporter3RunERNS_9allocatorIS3_EEE17__destruct_at_endB7v170000EPS3_.exit: ; preds = %_ZNSt3__116allocator_traitsINS_9allocatorIN9benchmark17BenchmarkReporter3RunEEEE7destroyB7v170000IS4_vEEvRS5_PT_.exit.i.i, %invoke.cont51
  %17 = load ptr, ptr %__v, align 8, !tbaa !93
  %tobool.not.i = icmp eq ptr %17, null
  br i1 %tobool.not.i, label %_ZNSt3__114__split_bufferIN9benchmark17BenchmarkReporter3RunERNS_9allocatorIS3_EEED2Ev.exit, label %if.then.i85

if.then.i85:                                      ; preds = %_ZNSt3__114__split_bufferIN9benchmark17BenchmarkReporter3RunERNS_9allocatorIS3_EEE17__destruct_at_endB7v170000EPS3_.exit
  call void @_ZdlPv(ptr noundef nonnull %17) #25
  br label %_ZNSt3__114__split_bufferIN9benchmark17BenchmarkReporter3RunERNS_9allocatorIS3_EEED2Ev.exit

_ZNSt3__114__split_bufferIN9benchmark17BenchmarkReporter3RunERNS_9allocatorIS3_EEED2Ev.exit: ; preds = %_ZNSt3__114__split_bufferIN9benchmark17BenchmarkReporter3RunERNS_9allocatorIS3_EEE17__destruct_at_endB7v170000EPS3_.exit, %if.then.i85
  call void @llvm.lifetime.end.p0(i64 40, ptr nonnull %__v) #26
  br label %if.end54

lpad:                                             ; preds = %invoke.cont
  %18 = landingpad { ptr, i32 }
          cleanup
  br label %lpad.body

lpad.body:                                        ; preds = %lpad.i, %lpad
  %eh.lpad-body = phi { ptr, i32 } [ %18, %lpad ], [ %8, %lpad.i ]
  call void @_ZNSt3__114__split_bufferIN9benchmark17BenchmarkReporter3RunERNS_9allocatorIS3_EEED2Ev(ptr noundef nonnull align 8 dereferenceable(40) %__v) #26
  call void @llvm.lifetime.end.p0(i64 40, ptr nonnull %__v) #26
  br label %common.resume

if.end54:                                         ; preds = %while.body.i.i.i.i.i, %if.then31, %if.end, %_ZNSt3__114__split_bufferIN9benchmark17BenchmarkReporter3RunERNS_9allocatorIS3_EEED2Ev.exit, %entry
  %__p.0 = phi ptr [ %call52, %_ZNSt3__114__split_bufferIN9benchmark17BenchmarkReporter3RunERNS_9allocatorIS3_EEED2Ev.exit ], [ %add.ptr, %entry ], [ %add.ptr, %if.end ], [ %add.ptr, %if.then31 ], [ %add.ptr, %while.body.i.i.i.i.i ]
  ret ptr %__p.0
}

declare void @_ZN9benchmark15ConsoleReporter10ReportRunsERKNSt3__16vectorINS_17BenchmarkReporter3RunENS1_9allocatorIS4_EEEE(ptr noundef nonnull align 8 dereferenceable(65), ptr noundef nonnull align 8 dereferenceable(24)) unnamed_addr #0

; Function Attrs: uwtable
define linkonce_odr hidden void @_ZNSt3__16vectorIN9benchmark17BenchmarkReporter3RunENS_9allocatorIS3_EEE12__move_rangeEPS3_S7_S7_(ptr noundef nonnull align 8 dereferenceable(24) %this, ptr noundef %__from_s, ptr noundef %__from_e, ptr noundef %__to) local_unnamed_addr #6 comdat align 2 personality ptr @__gxx_personality_v0 {
entry:
  %__end_ = getelementptr inbounds %"class.std::__1::vector.59", ptr %this, i64 0, i32 1
  %0 = load ptr, ptr %__end_, align 8, !tbaa !68
  %sub.ptr.lhs.cast = ptrtoint ptr %0 to i64
  %sub.ptr.rhs.cast = ptrtoint ptr %__to to i64
  %sub.ptr.sub = sub i64 %sub.ptr.lhs.cast, %sub.ptr.rhs.cast
  %sub.ptr.div = sdiv exact i64 %sub.ptr.sub, 424
  %add.ptr = getelementptr inbounds %"struct.benchmark::BenchmarkReporter::Run", ptr %__from_s, i64 %sub.ptr.div
  %cmp29 = icmp ult ptr %add.ptr, %__from_e
  br i1 %cmp29, label %for.body, label %for.cond.cleanup

for.cond.cleanup:                                 ; preds = %for.inc, %entry
  %__tx.sroa.6.0.lcssa = phi ptr [ %0, %entry ], [ %incdec.ptr7, %for.inc ]
  store ptr %__tx.sroa.6.0.lcssa, ptr %__end_, align 8, !tbaa !68
  %cmp.not9.i.i.i.i.i = icmp eq ptr %0, %__to
  br i1 %cmp.not9.i.i.i.i.i, label %_ZNSt3__113move_backwardB7v170000IPN9benchmark17BenchmarkReporter3RunES4_EET0_T_S6_S5_.exit, label %while.body.i.i.i.i.i

while.body.i.i.i.i.i:                             ; preds = %for.cond.cleanup, %while.body.i.i.i.i.i
  %__result.addr.011.i.i.i.i.i = phi ptr [ %incdec.ptr3.i.i.i.i.i, %while.body.i.i.i.i.i ], [ %0, %for.cond.cleanup ]
  %__last_iter.010.i.i.i.i.i = phi ptr [ %incdec.ptr.i.i.i.i.i, %while.body.i.i.i.i.i ], [ %add.ptr, %for.cond.cleanup ]
  %incdec.ptr.i.i.i.i.i = getelementptr inbounds %"struct.benchmark::BenchmarkReporter::Run", ptr %__last_iter.010.i.i.i.i.i, i64 -1
  %incdec.ptr3.i.i.i.i.i = getelementptr inbounds %"struct.benchmark::BenchmarkReporter::Run", ptr %__result.addr.011.i.i.i.i.i, i64 -1
  %call4.i.i.i.i.i = tail call noundef nonnull align 8 dereferenceable(424) ptr @_ZN9benchmark17BenchmarkReporter3RunaSEOS1_(ptr noundef nonnull align 8 dereferenceable(424) %incdec.ptr3.i.i.i.i.i, ptr noundef nonnull align 8 dereferenceable(424) %incdec.ptr.i.i.i.i.i) #26
  %cmp.not.i.i.i.i.i = icmp eq ptr %incdec.ptr.i.i.i.i.i, %__from_s
  br i1 %cmp.not.i.i.i.i.i, label %_ZNSt3__113move_backwardB7v170000IPN9benchmark17BenchmarkReporter3RunES4_EET0_T_S6_S5_.exit, label %while.body.i.i.i.i.i, !llvm.loop !100

_ZNSt3__113move_backwardB7v170000IPN9benchmark17BenchmarkReporter3RunES4_EET0_T_S6_S5_.exit: ; preds = %while.body.i.i.i.i.i, %for.cond.cleanup
  ret void

for.body:                                         ; preds = %entry, %for.inc
  %__i.031 = phi ptr [ %incdec.ptr, %for.inc ], [ %add.ptr, %entry ]
  %__tx.sroa.6.030 = phi ptr [ %incdec.ptr7, %for.inc ], [ %0, %entry ]
  tail call void @llvm.memcpy.p0.p0.i64(ptr noundef nonnull align 8 dereferenceable(24) %__tx.sroa.6.030, ptr noundef nonnull align 8 dereferenceable(24) %__i.031, i64 24, i1 false)
  tail call void @llvm.memset.p0.i64(ptr noundef nonnull align 8 dereferenceable(24) %__i.031, i8 0, i64 24, i1 false)
  %args.i.i.i.i = getelementptr inbounds %"struct.benchmark::BenchmarkName", ptr %__tx.sroa.6.030, i64 0, i32 1
  %args3.i.i.i.i = getelementptr inbounds %"struct.benchmark::BenchmarkName", ptr %__i.031, i64 0, i32 1
  tail call void @llvm.memcpy.p0.p0.i64(ptr noundef nonnull align 8 dereferenceable(24) %args.i.i.i.i, ptr noundef nonnull align 8 dereferenceable(24) %args3.i.i.i.i, i64 24, i1 false)
  tail call void @llvm.memset.p0.i64(ptr noundef nonnull align 8 dereferenceable(24) %args3.i.i.i.i, i8 0, i64 24, i1 false)
  %min_time.i.i.i.i = getelementptr inbounds %"struct.benchmark::BenchmarkName", ptr %__tx.sroa.6.030, i64 0, i32 2
  %min_time4.i.i.i.i = getelementptr inbounds %"struct.benchmark::BenchmarkName", ptr %__i.031, i64 0, i32 2
  tail call void @llvm.memcpy.p0.p0.i64(ptr noundef nonnull align 8 dereferenceable(24) %min_time.i.i.i.i, ptr noundef nonnull align 8 dereferenceable(24) %min_time4.i.i.i.i, i64 24, i1 false)
  tail call void @llvm.memset.p0.i64(ptr noundef nonnull align 8 dereferenceable(24) %min_time4.i.i.i.i, i8 0, i64 24, i1 false)
  %iterations.i.i.i.i = getelementptr inbounds %"struct.benchmark::BenchmarkName", ptr %__tx.sroa.6.030, i64 0, i32 3
  %iterations5.i.i.i.i = getelementptr inbounds %"struct.benchmark::BenchmarkName", ptr %__i.031, i64 0, i32 3
  tail call void @llvm.memcpy.p0.p0.i64(ptr noundef nonnull align 8 dereferenceable(24) %iterations.i.i.i.i, ptr noundef nonnull align 8 dereferenceable(24) %iterations5.i.i.i.i, i64 24, i1 false)
  tail call void @llvm.memset.p0.i64(ptr noundef nonnull align 8 dereferenceable(24) %iterations5.i.i.i.i, i8 0, i64 24, i1 false)
  %repetitions.i.i.i.i = getelementptr inbounds %"struct.benchmark::BenchmarkName", ptr %__tx.sroa.6.030, i64 0, i32 4
  %repetitions6.i.i.i.i = getelementptr inbounds %"struct.benchmark::BenchmarkName", ptr %__i.031, i64 0, i32 4
  tail call void @llvm.memcpy.p0.p0.i64(ptr noundef nonnull align 8 dereferenceable(24) %repetitions.i.i.i.i, ptr noundef nonnull align 8 dereferenceable(24) %repetitions6.i.i.i.i, i64 24, i1 false)
  tail call void @llvm.memset.p0.i64(ptr noundef nonnull align 8 dereferenceable(24) %repetitions6.i.i.i.i, i8 0, i64 24, i1 false)
  %time_type.i.i.i.i = getelementptr inbounds %"struct.benchmark::BenchmarkName", ptr %__tx.sroa.6.030, i64 0, i32 5
  %time_type7.i.i.i.i = getelementptr inbounds %"struct.benchmark::BenchmarkName", ptr %__i.031, i64 0, i32 5
  tail call void @llvm.memcpy.p0.p0.i64(ptr noundef nonnull align 8 dereferenceable(24) %time_type.i.i.i.i, ptr noundef nonnull align 8 dereferenceable(24) %time_type7.i.i.i.i, i64 24, i1 false)
  tail call void @llvm.memset.p0.i64(ptr noundef nonnull align 8 dereferenceable(24) %time_type7.i.i.i.i, i8 0, i64 24, i1 false)
  %threads.i.i.i.i = getelementptr inbounds %"struct.benchmark::BenchmarkName", ptr %__tx.sroa.6.030, i64 0, i32 6
  %threads8.i.i.i.i = getelementptr inbounds %"struct.benchmark::BenchmarkName", ptr %__i.031, i64 0, i32 6
  tail call void @llvm.memcpy.p0.p0.i64(ptr noundef nonnull align 8 dereferenceable(24) %threads.i.i.i.i, ptr noundef nonnull align 8 dereferenceable(24) %threads8.i.i.i.i, i64 24, i1 false)
  tail call void @llvm.memset.p0.i64(ptr noundef nonnull align 8 dereferenceable(24) %threads8.i.i.i.i, i8 0, i64 24, i1 false)
  %family_index.i.i.i = getelementptr inbounds %"struct.benchmark::BenchmarkReporter::Run", ptr %__tx.sroa.6.030, i64 0, i32 1
  %family_index3.i.i.i = getelementptr inbounds %"struct.benchmark::BenchmarkReporter::Run", ptr %__i.031, i64 0, i32 1
  tail call void @llvm.memcpy.p0.p0.i64(ptr noundef nonnull align 8 dereferenceable(20) %family_index.i.i.i, ptr noundef nonnull align 8 dereferenceable(20) %family_index3.i.i.i, i64 20, i1 false)
  %aggregate_name.i.i.i = getelementptr inbounds %"struct.benchmark::BenchmarkReporter::Run", ptr %__tx.sroa.6.030, i64 0, i32 4
  %aggregate_name4.i.i.i = getelementptr inbounds %"struct.benchmark::BenchmarkReporter::Run", ptr %__i.031, i64 0, i32 4
  tail call void @llvm.memcpy.p0.p0.i64(ptr noundef nonnull align 8 dereferenceable(24) %aggregate_name.i.i.i, ptr noundef nonnull align 8 dereferenceable(24) %aggregate_name4.i.i.i, i64 24, i1 false)
  tail call void @llvm.memset.p0.i64(ptr noundef nonnull align 8 dereferenceable(24) %aggregate_name4.i.i.i, i8 0, i64 24, i1 false)
  %aggregate_unit.i.i.i = getelementptr inbounds %"struct.benchmark::BenchmarkReporter::Run", ptr %__tx.sroa.6.030, i64 0, i32 5
  %aggregate_unit5.i.i.i = getelementptr inbounds %"struct.benchmark::BenchmarkReporter::Run", ptr %__i.031, i64 0, i32 5
  %1 = load i32, ptr %aggregate_unit5.i.i.i, align 8, !tbaa !101
  store i32 %1, ptr %aggregate_unit.i.i.i, align 8, !tbaa !101
  %report_label.i.i.i = getelementptr inbounds %"struct.benchmark::BenchmarkReporter::Run", ptr %__tx.sroa.6.030, i64 0, i32 6
  %report_label6.i.i.i = getelementptr inbounds %"struct.benchmark::BenchmarkReporter::Run", ptr %__i.031, i64 0, i32 6
  tail call void @llvm.memcpy.p0.p0.i64(ptr noundef nonnull align 8 dereferenceable(24) %report_label.i.i.i, ptr noundef nonnull align 8 dereferenceable(24) %report_label6.i.i.i, i64 24, i1 false)
  tail call void @llvm.memset.p0.i64(ptr noundef nonnull align 8 dereferenceable(24) %report_label6.i.i.i, i8 0, i64 24, i1 false)
  %error_occurred.i.i.i = getelementptr inbounds %"struct.benchmark::BenchmarkReporter::Run", ptr %__tx.sroa.6.030, i64 0, i32 7
  %error_occurred7.i.i.i = getelementptr inbounds %"struct.benchmark::BenchmarkReporter::Run", ptr %__i.031, i64 0, i32 7
  %2 = load i8, ptr %error_occurred7.i.i.i, align 8, !tbaa !75, !range !21, !noundef !22
  store i8 %2, ptr %error_occurred.i.i.i, align 8, !tbaa !75
  %error_message.i.i.i = getelementptr inbounds %"struct.benchmark::BenchmarkReporter::Run", ptr %__tx.sroa.6.030, i64 0, i32 8
  %error_message8.i.i.i = getelementptr inbounds %"struct.benchmark::BenchmarkReporter::Run", ptr %__i.031, i64 0, i32 8
  tail call void @llvm.memcpy.p0.p0.i64(ptr noundef nonnull align 8 dereferenceable(24) %error_message.i.i.i, ptr noundef nonnull align 8 dereferenceable(24) %error_message8.i.i.i, i64 24, i1 false)
  tail call void @llvm.memset.p0.i64(ptr noundef nonnull align 8 dereferenceable(24) %error_message8.i.i.i, i8 0, i64 24, i1 false)
  %iterations.i.i.i = getelementptr inbounds %"struct.benchmark::BenchmarkReporter::Run", ptr %__tx.sroa.6.030, i64 0, i32 9
  %iterations9.i.i.i = getelementptr inbounds %"struct.benchmark::BenchmarkReporter::Run", ptr %__i.031, i64 0, i32 9
  tail call void @llvm.memcpy.p0.p0.i64(ptr noundef nonnull align 8 dereferenceable(98) %iterations.i.i.i, ptr noundef nonnull align 8 dereferenceable(98) %iterations9.i.i.i, i64 98, i1 false)
  %counters.i.i.i = getelementptr inbounds %"struct.benchmark::BenchmarkReporter::Run", ptr %__tx.sroa.6.030, i64 0, i32 23
  %counters10.i.i.i = getelementptr inbounds %"struct.benchmark::BenchmarkReporter::Run", ptr %__i.031, i64 0, i32 23
  %3 = load ptr, ptr %counters10.i.i.i, align 8, !tbaa !26
  store ptr %3, ptr %counters.i.i.i, align 8, !tbaa !102
  %__pair1_.i.i.i.i.i = getelementptr inbounds %"struct.benchmark::BenchmarkReporter::Run", ptr %__tx.sroa.6.030, i64 0, i32 23, i32 0, i32 1
  %__pair1_3.i.i.i.i.i = getelementptr inbounds %"struct.benchmark::BenchmarkReporter::Run", ptr %__i.031, i64 0, i32 23, i32 0, i32 1
  %4 = load i64, ptr %__pair1_3.i.i.i.i.i, align 8
  store i64 %4, ptr %__pair1_.i.i.i.i.i, align 8
  %__pair3_.i.i.i.i.i = getelementptr inbounds %"struct.benchmark::BenchmarkReporter::Run", ptr %__tx.sroa.6.030, i64 0, i32 23, i32 0, i32 2
  %__pair3_4.i.i.i.i.i = getelementptr inbounds %"struct.benchmark::BenchmarkReporter::Run", ptr %__i.031, i64 0, i32 23, i32 0, i32 2
  %5 = load i64, ptr %__pair3_4.i.i.i.i.i, align 8
  store i64 %5, ptr %__pair3_.i.i.i.i.i, align 8
  %cmp.i.i.i.i.i = icmp eq i64 %5, 0
  br i1 %cmp.i.i.i.i.i, label %if.then.i.i.i.i.i, label %if.else.i.i.i.i.i

if.then.i.i.i.i.i:                                ; preds = %for.body
  store ptr %__pair1_.i.i.i.i.i, ptr %counters.i.i.i, align 8, !tbaa !26
  br label %for.inc

if.else.i.i.i.i.i:                                ; preds = %for.body
  %6 = inttoptr i64 %4 to ptr
  %__parent_.i.i.i.i.i = getelementptr inbounds %"class.std::__1::__tree_node_base", ptr %6, i64 0, i32 2
  store ptr %__pair1_.i.i.i.i.i, ptr %__parent_.i.i.i.i.i, align 8, !tbaa !103
  store ptr %__pair1_3.i.i.i.i.i, ptr %counters10.i.i.i, align 8, !tbaa !26
  tail call void @llvm.memset.p0.i64(ptr noundef nonnull align 8 dereferenceable(16) %__pair1_3.i.i.i.i.i, i8 0, i64 16, i1 false)
  br label %for.inc

for.inc:                                          ; preds = %if.else.i.i.i.i.i, %if.then.i.i.i.i.i
  %memory_result.i.i.i = getelementptr inbounds %"struct.benchmark::BenchmarkReporter::Run", ptr %__tx.sroa.6.030, i64 0, i32 24
  %memory_result11.i.i.i = getelementptr inbounds %"struct.benchmark::BenchmarkReporter::Run", ptr %__i.031, i64 0, i32 24
  tail call void @llvm.memcpy.p0.p0.i64(ptr noundef nonnull align 8 dereferenceable(16) %memory_result.i.i.i, ptr noundef nonnull align 8 dereferenceable(16) %memory_result11.i.i.i, i64 16, i1 false)
  %incdec.ptr = getelementptr inbounds %"struct.benchmark::BenchmarkReporter::Run", ptr %__i.031, i64 1
  %incdec.ptr7 = getelementptr inbounds %"struct.benchmark::BenchmarkReporter::Run", ptr %__tx.sroa.6.030, i64 1
  %cmp = icmp ult ptr %incdec.ptr, %__from_e
  br i1 %cmp, label %for.body, label %for.cond.cleanup, !llvm.loop !105
}

; Function Attrs: uwtable
define linkonce_odr hidden noundef ptr @_ZNSt3__16vectorIN9benchmark17BenchmarkReporter3RunENS_9allocatorIS3_EEE26__swap_out_circular_bufferERNS_14__split_bufferIS3_RS5_EEPS3_(ptr noundef nonnull align 8 dereferenceable(24) %this, ptr noundef nonnull align 8 dereferenceable(40) %__v, ptr noundef %__p) local_unnamed_addr #6 comdat align 2 personality ptr @__gxx_personality_v0 {
entry:
  %__begin_ = getelementptr inbounds %"struct.std::__1::__split_buffer.79", ptr %__v, i64 0, i32 1
  %0 = load ptr, ptr %__begin_, align 8, !tbaa !98
  %1 = load ptr, ptr %this, align 8, !tbaa !64
  %cmp.i.not16.i = icmp eq ptr %1, %__p
  br i1 %cmp.i.not16.i, label %_ZNSt3__142__uninitialized_allocator_move_if_noexceptB7v170000INS_9allocatorIN9benchmark17BenchmarkReporter3RunEEENS_16reverse_iteratorIPS4_EES8_S8_EET2_RT_T0_T1_S9_.exit, label %while.body.i

while.body.i:                                     ; preds = %entry, %invoke.cont3.i
  %2 = phi ptr [ %incdec.ptr.i.i.i.i.i, %invoke.cont3.i ], [ %0, %entry ]
  %__first1.sroa.1.017.i = phi ptr [ %incdec.ptr.i.i, %invoke.cont3.i ], [ %__p, %entry ]
  %incdec.ptr.i.i.i.i.i = getelementptr inbounds %"struct.benchmark::BenchmarkReporter::Run", ptr %2, i64 -1
  %incdec.ptr.i.i = getelementptr inbounds %"struct.benchmark::BenchmarkReporter::Run", ptr %__first1.sroa.1.017.i, i64 -1
  tail call void @llvm.memcpy.p0.p0.i64(ptr noundef nonnull align 8 dereferenceable(24) %incdec.ptr.i.i.i.i.i, ptr noundef nonnull align 8 dereferenceable(24) %incdec.ptr.i.i, i64 24, i1 false)
  tail call void @llvm.memset.p0.i64(ptr noundef nonnull align 8 dereferenceable(24) %incdec.ptr.i.i, i8 0, i64 24, i1 false)
  %args.i.i.i.i.i = getelementptr %"struct.benchmark::BenchmarkReporter::Run", ptr %2, i64 -1, i32 0, i32 1
  %args3.i.i.i.i.i = getelementptr %"struct.benchmark::BenchmarkReporter::Run", ptr %__first1.sroa.1.017.i, i64 -1, i32 0, i32 1
  tail call void @llvm.memcpy.p0.p0.i64(ptr noundef nonnull align 8 dereferenceable(24) %args.i.i.i.i.i, ptr noundef nonnull align 8 dereferenceable(24) %args3.i.i.i.i.i, i64 24, i1 false)
  tail call void @llvm.memset.p0.i64(ptr noundef nonnull align 8 dereferenceable(24) %args3.i.i.i.i.i, i8 0, i64 24, i1 false)
  %min_time.i.i.i.i.i = getelementptr %"struct.benchmark::BenchmarkReporter::Run", ptr %2, i64 -1, i32 0, i32 2
  %min_time4.i.i.i.i.i = getelementptr %"struct.benchmark::BenchmarkReporter::Run", ptr %__first1.sroa.1.017.i, i64 -1, i32 0, i32 2
  tail call void @llvm.memcpy.p0.p0.i64(ptr noundef nonnull align 8 dereferenceable(24) %min_time.i.i.i.i.i, ptr noundef nonnull align 8 dereferenceable(24) %min_time4.i.i.i.i.i, i64 24, i1 false)
  tail call void @llvm.memset.p0.i64(ptr noundef nonnull align 8 dereferenceable(24) %min_time4.i.i.i.i.i, i8 0, i64 24, i1 false)
  %iterations.i.i.i.i.i = getelementptr %"struct.benchmark::BenchmarkReporter::Run", ptr %2, i64 -1, i32 0, i32 3
  %iterations5.i.i.i.i.i = getelementptr %"struct.benchmark::BenchmarkReporter::Run", ptr %__first1.sroa.1.017.i, i64 -1, i32 0, i32 3
  tail call void @llvm.memcpy.p0.p0.i64(ptr noundef nonnull align 8 dereferenceable(24) %iterations.i.i.i.i.i, ptr noundef nonnull align 8 dereferenceable(24) %iterations5.i.i.i.i.i, i64 24, i1 false)
  tail call void @llvm.memset.p0.i64(ptr noundef nonnull align 8 dereferenceable(24) %iterations5.i.i.i.i.i, i8 0, i64 24, i1 false)
  %repetitions.i.i.i.i.i = getelementptr %"struct.benchmark::BenchmarkReporter::Run", ptr %2, i64 -1, i32 0, i32 4
  %repetitions6.i.i.i.i.i = getelementptr %"struct.benchmark::BenchmarkReporter::Run", ptr %__first1.sroa.1.017.i, i64 -1, i32 0, i32 4
  tail call void @llvm.memcpy.p0.p0.i64(ptr noundef nonnull align 8 dereferenceable(24) %repetitions.i.i.i.i.i, ptr noundef nonnull align 8 dereferenceable(24) %repetitions6.i.i.i.i.i, i64 24, i1 false)
  tail call void @llvm.memset.p0.i64(ptr noundef nonnull align 8 dereferenceable(24) %repetitions6.i.i.i.i.i, i8 0, i64 24, i1 false)
  %time_type.i.i.i.i.i = getelementptr %"struct.benchmark::BenchmarkReporter::Run", ptr %2, i64 -1, i32 0, i32 5
  %time_type7.i.i.i.i.i = getelementptr %"struct.benchmark::BenchmarkReporter::Run", ptr %__first1.sroa.1.017.i, i64 -1, i32 0, i32 5
  tail call void @llvm.memcpy.p0.p0.i64(ptr noundef nonnull align 8 dereferenceable(24) %time_type.i.i.i.i.i, ptr noundef nonnull align 8 dereferenceable(24) %time_type7.i.i.i.i.i, i64 24, i1 false)
  tail call void @llvm.memset.p0.i64(ptr noundef nonnull align 8 dereferenceable(24) %time_type7.i.i.i.i.i, i8 0, i64 24, i1 false)
  %threads.i.i.i.i.i = getelementptr %"struct.benchmark::BenchmarkReporter::Run", ptr %2, i64 -1, i32 0, i32 6
  %threads8.i.i.i.i.i = getelementptr %"struct.benchmark::BenchmarkReporter::Run", ptr %__first1.sroa.1.017.i, i64 -1, i32 0, i32 6
  tail call void @llvm.memcpy.p0.p0.i64(ptr noundef nonnull align 8 dereferenceable(24) %threads.i.i.i.i.i, ptr noundef nonnull align 8 dereferenceable(24) %threads8.i.i.i.i.i, i64 24, i1 false)
  tail call void @llvm.memset.p0.i64(ptr noundef nonnull align 8 dereferenceable(24) %threads8.i.i.i.i.i, i8 0, i64 24, i1 false)
  %family_index.i.i.i.i = getelementptr %"struct.benchmark::BenchmarkReporter::Run", ptr %2, i64 -1, i32 1
  %family_index3.i.i.i.i = getelementptr %"struct.benchmark::BenchmarkReporter::Run", ptr %__first1.sroa.1.017.i, i64 -1, i32 1
  tail call void @llvm.memcpy.p0.p0.i64(ptr noundef nonnull align 8 dereferenceable(20) %family_index.i.i.i.i, ptr noundef nonnull align 8 dereferenceable(20) %family_index3.i.i.i.i, i64 20, i1 false)
  %aggregate_name.i.i.i.i = getelementptr %"struct.benchmark::BenchmarkReporter::Run", ptr %2, i64 -1, i32 4
  %aggregate_name4.i.i.i.i = getelementptr %"struct.benchmark::BenchmarkReporter::Run", ptr %__first1.sroa.1.017.i, i64 -1, i32 4
  tail call void @llvm.memcpy.p0.p0.i64(ptr noundef nonnull align 8 dereferenceable(24) %aggregate_name.i.i.i.i, ptr noundef nonnull align 8 dereferenceable(24) %aggregate_name4.i.i.i.i, i64 24, i1 false)
  tail call void @llvm.memset.p0.i64(ptr noundef nonnull align 8 dereferenceable(24) %aggregate_name4.i.i.i.i, i8 0, i64 24, i1 false)
  %aggregate_unit.i.i.i.i = getelementptr %"struct.benchmark::BenchmarkReporter::Run", ptr %2, i64 -1, i32 5
  %aggregate_unit5.i.i.i.i = getelementptr %"struct.benchmark::BenchmarkReporter::Run", ptr %__first1.sroa.1.017.i, i64 -1, i32 5
  %3 = load i32, ptr %aggregate_unit5.i.i.i.i, align 8, !tbaa !101
  store i32 %3, ptr %aggregate_unit.i.i.i.i, align 8, !tbaa !101
  %report_label.i.i.i.i = getelementptr %"struct.benchmark::BenchmarkReporter::Run", ptr %2, i64 -1, i32 6
  %report_label6.i.i.i.i = getelementptr %"struct.benchmark::BenchmarkReporter::Run", ptr %__first1.sroa.1.017.i, i64 -1, i32 6
  tail call void @llvm.memcpy.p0.p0.i64(ptr noundef nonnull align 8 dereferenceable(24) %report_label.i.i.i.i, ptr noundef nonnull align 8 dereferenceable(24) %report_label6.i.i.i.i, i64 24, i1 false)
  tail call void @llvm.memset.p0.i64(ptr noundef nonnull align 8 dereferenceable(24) %report_label6.i.i.i.i, i8 0, i64 24, i1 false)
  %error_occurred.i.i.i.i = getelementptr %"struct.benchmark::BenchmarkReporter::Run", ptr %2, i64 -1, i32 7
  %error_occurred7.i.i.i.i = getelementptr %"struct.benchmark::BenchmarkReporter::Run", ptr %__first1.sroa.1.017.i, i64 -1, i32 7
  %4 = load i8, ptr %error_occurred7.i.i.i.i, align 8, !tbaa !75, !range !21, !noundef !22
  store i8 %4, ptr %error_occurred.i.i.i.i, align 8, !tbaa !75
  %error_message.i.i.i.i = getelementptr %"struct.benchmark::BenchmarkReporter::Run", ptr %2, i64 -1, i32 8
  %error_message8.i.i.i.i = getelementptr %"struct.benchmark::BenchmarkReporter::Run", ptr %__first1.sroa.1.017.i, i64 -1, i32 8
  tail call void @llvm.memcpy.p0.p0.i64(ptr noundef nonnull align 8 dereferenceable(24) %error_message.i.i.i.i, ptr noundef nonnull align 8 dereferenceable(24) %error_message8.i.i.i.i, i64 24, i1 false)
  tail call void @llvm.memset.p0.i64(ptr noundef nonnull align 8 dereferenceable(24) %error_message8.i.i.i.i, i8 0, i64 24, i1 false)
  %iterations.i.i.i.i = getelementptr %"struct.benchmark::BenchmarkReporter::Run", ptr %2, i64 -1, i32 9
  %iterations9.i.i.i.i = getelementptr %"struct.benchmark::BenchmarkReporter::Run", ptr %__first1.sroa.1.017.i, i64 -1, i32 9
  tail call void @llvm.memcpy.p0.p0.i64(ptr noundef nonnull align 8 dereferenceable(98) %iterations.i.i.i.i, ptr noundef nonnull align 8 dereferenceable(98) %iterations9.i.i.i.i, i64 98, i1 false)
  %counters.i.i.i.i = getelementptr %"struct.benchmark::BenchmarkReporter::Run", ptr %2, i64 -1, i32 23
  %counters10.i.i.i.i = getelementptr %"struct.benchmark::BenchmarkReporter::Run", ptr %__first1.sroa.1.017.i, i64 -1, i32 23
  %5 = load ptr, ptr %counters10.i.i.i.i, align 8, !tbaa !26
  store ptr %5, ptr %counters.i.i.i.i, align 8, !tbaa !102
  %__pair1_.i.i.i.i.i.i = getelementptr %"struct.benchmark::BenchmarkReporter::Run", ptr %2, i64 -1, i32 23, i32 0, i32 1
  %__pair1_3.i.i.i.i.i.i = getelementptr %"struct.benchmark::BenchmarkReporter::Run", ptr %__first1.sroa.1.017.i, i64 -1, i32 23, i32 0, i32 1
  %6 = load i64, ptr %__pair1_3.i.i.i.i.i.i, align 8
  store i64 %6, ptr %__pair1_.i.i.i.i.i.i, align 8
  %__pair3_.i.i.i.i.i.i = getelementptr %"struct.benchmark::BenchmarkReporter::Run", ptr %2, i64 -1, i32 23, i32 0, i32 2
  %__pair3_4.i.i.i.i.i.i = getelementptr %"struct.benchmark::BenchmarkReporter::Run", ptr %__first1.sroa.1.017.i, i64 -1, i32 23, i32 0, i32 2
  %7 = load i64, ptr %__pair3_4.i.i.i.i.i.i, align 8
  store i64 %7, ptr %__pair3_.i.i.i.i.i.i, align 8
  %cmp.i.i.i.i.i.i = icmp eq i64 %7, 0
  br i1 %cmp.i.i.i.i.i.i, label %if.then.i.i.i.i.i.i, label %if.else.i.i.i.i.i.i

if.then.i.i.i.i.i.i:                              ; preds = %while.body.i
  store ptr %__pair1_.i.i.i.i.i.i, ptr %counters.i.i.i.i, align 8, !tbaa !26
  br label %invoke.cont3.i

if.else.i.i.i.i.i.i:                              ; preds = %while.body.i
  %8 = inttoptr i64 %6 to ptr
  %__parent_.i.i.i.i.i.i = getelementptr inbounds %"class.std::__1::__tree_node_base", ptr %8, i64 0, i32 2
  store ptr %__pair1_.i.i.i.i.i.i, ptr %__parent_.i.i.i.i.i.i, align 8, !tbaa !103
  store ptr %__pair1_3.i.i.i.i.i.i, ptr %counters10.i.i.i.i, align 8, !tbaa !26
  tail call void @llvm.memset.p0.i64(ptr noundef nonnull align 8 dereferenceable(16) %__pair1_3.i.i.i.i.i.i, i8 0, i64 16, i1 false)
  br label %invoke.cont3.i

invoke.cont3.i:                                   ; preds = %if.else.i.i.i.i.i.i, %if.then.i.i.i.i.i.i
  %memory_result.i.i.i.i = getelementptr %"struct.benchmark::BenchmarkReporter::Run", ptr %2, i64 -1, i32 24
  %memory_result11.i.i.i.i = getelementptr %"struct.benchmark::BenchmarkReporter::Run", ptr %__first1.sroa.1.017.i, i64 -1, i32 24
  tail call void @llvm.memcpy.p0.p0.i64(ptr noundef nonnull align 8 dereferenceable(16) %memory_result.i.i.i.i, ptr noundef nonnull align 8 dereferenceable(16) %memory_result11.i.i.i.i, i64 16, i1 false)
  %cmp.i.not.i = icmp eq ptr %incdec.ptr.i.i, %1
  br i1 %cmp.i.not.i, label %_ZNSt3__142__uninitialized_allocator_move_if_noexceptB7v170000INS_9allocatorIN9benchmark17BenchmarkReporter3RunEEENS_16reverse_iteratorIPS4_EES8_S8_EET2_RT_T0_T1_S9_.exit, label %while.body.i, !llvm.loop !106

_ZNSt3__142__uninitialized_allocator_move_if_noexceptB7v170000INS_9allocatorIN9benchmark17BenchmarkReporter3RunEEENS_16reverse_iteratorIPS4_EES8_S8_EET2_RT_T0_T1_S9_.exit: ; preds = %invoke.cont3.i, %entry
  %retval.sroa.2.0.copyload.i = phi ptr [ %0, %entry ], [ %incdec.ptr.i.i.i.i.i, %invoke.cont3.i ]
  store ptr %retval.sroa.2.0.copyload.i, ptr %__begin_, align 8, !tbaa !98
  %__end_ = getelementptr inbounds %"class.std::__1::vector.59", ptr %this, i64 0, i32 1
  %9 = load ptr, ptr %__end_, align 8, !tbaa !68
  %__end_10 = getelementptr inbounds %"struct.std::__1::__split_buffer.79", ptr %__v, i64 0, i32 2
  %10 = load ptr, ptr %__end_10, align 8, !tbaa !97
  %cmp.not8.i = icmp eq ptr %9, %__p
  br i1 %cmp.not8.i, label %_ZNSt3__142__uninitialized_allocator_move_if_noexceptB7v170000INS_9allocatorIN9benchmark17BenchmarkReporter3RunEEEPS4_S6_S6_EET2_RT_T0_T1_S7_.exit, label %while.body.i69

while.body.i69:                                   ; preds = %_ZNSt3__142__uninitialized_allocator_move_if_noexceptB7v170000INS_9allocatorIN9benchmark17BenchmarkReporter3RunEEENS_16reverse_iteratorIPS4_EES8_S8_EET2_RT_T0_T1_S9_.exit, %invoke.cont.i
  %__first1.addr.010.i = phi ptr [ %incdec.ptr.i, %invoke.cont.i ], [ %__p, %_ZNSt3__142__uninitialized_allocator_move_if_noexceptB7v170000INS_9allocatorIN9benchmark17BenchmarkReporter3RunEEENS_16reverse_iteratorIPS4_EES8_S8_EET2_RT_T0_T1_S9_.exit ]
  %storemerge9.i = phi ptr [ %incdec.ptr1.i, %invoke.cont.i ], [ %10, %_ZNSt3__142__uninitialized_allocator_move_if_noexceptB7v170000INS_9allocatorIN9benchmark17BenchmarkReporter3RunEEENS_16reverse_iteratorIPS4_EES8_S8_EET2_RT_T0_T1_S9_.exit ]
  tail call void @llvm.memcpy.p0.p0.i64(ptr noundef nonnull align 8 dereferenceable(24) %storemerge9.i, ptr noundef nonnull align 8 dereferenceable(24) %__first1.addr.010.i, i64 24, i1 false)
  tail call void @llvm.memset.p0.i64(ptr noundef nonnull align 8 dereferenceable(24) %__first1.addr.010.i, i8 0, i64 24, i1 false)
  %args.i.i.i.i.i36 = getelementptr inbounds %"struct.benchmark::BenchmarkName", ptr %storemerge9.i, i64 0, i32 1
  %args3.i.i.i.i.i37 = getelementptr inbounds %"struct.benchmark::BenchmarkName", ptr %__first1.addr.010.i, i64 0, i32 1
  tail call void @llvm.memcpy.p0.p0.i64(ptr noundef nonnull align 8 dereferenceable(24) %args.i.i.i.i.i36, ptr noundef nonnull align 8 dereferenceable(24) %args3.i.i.i.i.i37, i64 24, i1 false)
  tail call void @llvm.memset.p0.i64(ptr noundef nonnull align 8 dereferenceable(24) %args3.i.i.i.i.i37, i8 0, i64 24, i1 false)
  %min_time.i.i.i.i.i38 = getelementptr inbounds %"struct.benchmark::BenchmarkName", ptr %storemerge9.i, i64 0, i32 2
  %min_time4.i.i.i.i.i39 = getelementptr inbounds %"struct.benchmark::BenchmarkName", ptr %__first1.addr.010.i, i64 0, i32 2
  tail call void @llvm.memcpy.p0.p0.i64(ptr noundef nonnull align 8 dereferenceable(24) %min_time.i.i.i.i.i38, ptr noundef nonnull align 8 dereferenceable(24) %min_time4.i.i.i.i.i39, i64 24, i1 false)
  tail call void @llvm.memset.p0.i64(ptr noundef nonnull align 8 dereferenceable(24) %min_time4.i.i.i.i.i39, i8 0, i64 24, i1 false)
  %iterations.i.i.i.i.i40 = getelementptr inbounds %"struct.benchmark::BenchmarkName", ptr %storemerge9.i, i64 0, i32 3
  %iterations5.i.i.i.i.i41 = getelementptr inbounds %"struct.benchmark::BenchmarkName", ptr %__first1.addr.010.i, i64 0, i32 3
  tail call void @llvm.memcpy.p0.p0.i64(ptr noundef nonnull align 8 dereferenceable(24) %iterations.i.i.i.i.i40, ptr noundef nonnull align 8 dereferenceable(24) %iterations5.i.i.i.i.i41, i64 24, i1 false)
  tail call void @llvm.memset.p0.i64(ptr noundef nonnull align 8 dereferenceable(24) %iterations5.i.i.i.i.i41, i8 0, i64 24, i1 false)
  %repetitions.i.i.i.i.i42 = getelementptr inbounds %"struct.benchmark::BenchmarkName", ptr %storemerge9.i, i64 0, i32 4
  %repetitions6.i.i.i.i.i43 = getelementptr inbounds %"struct.benchmark::BenchmarkName", ptr %__first1.addr.010.i, i64 0, i32 4
  tail call void @llvm.memcpy.p0.p0.i64(ptr noundef nonnull align 8 dereferenceable(24) %repetitions.i.i.i.i.i42, ptr noundef nonnull align 8 dereferenceable(24) %repetitions6.i.i.i.i.i43, i64 24, i1 false)
  tail call void @llvm.memset.p0.i64(ptr noundef nonnull align 8 dereferenceable(24) %repetitions6.i.i.i.i.i43, i8 0, i64 24, i1 false)
  %time_type.i.i.i.i.i44 = getelementptr inbounds %"struct.benchmark::BenchmarkName", ptr %storemerge9.i, i64 0, i32 5
  %time_type7.i.i.i.i.i45 = getelementptr inbounds %"struct.benchmark::BenchmarkName", ptr %__first1.addr.010.i, i64 0, i32 5
  tail call void @llvm.memcpy.p0.p0.i64(ptr noundef nonnull align 8 dereferenceable(24) %time_type.i.i.i.i.i44, ptr noundef nonnull align 8 dereferenceable(24) %time_type7.i.i.i.i.i45, i64 24, i1 false)
  tail call void @llvm.memset.p0.i64(ptr noundef nonnull align 8 dereferenceable(24) %time_type7.i.i.i.i.i45, i8 0, i64 24, i1 false)
  %threads.i.i.i.i.i46 = getelementptr inbounds %"struct.benchmark::BenchmarkName", ptr %storemerge9.i, i64 0, i32 6
  %threads8.i.i.i.i.i47 = getelementptr inbounds %"struct.benchmark::BenchmarkName", ptr %__first1.addr.010.i, i64 0, i32 6
  tail call void @llvm.memcpy.p0.p0.i64(ptr noundef nonnull align 8 dereferenceable(24) %threads.i.i.i.i.i46, ptr noundef nonnull align 8 dereferenceable(24) %threads8.i.i.i.i.i47, i64 24, i1 false)
  tail call void @llvm.memset.p0.i64(ptr noundef nonnull align 8 dereferenceable(24) %threads8.i.i.i.i.i47, i8 0, i64 24, i1 false)
  %family_index.i.i.i.i48 = getelementptr inbounds %"struct.benchmark::BenchmarkReporter::Run", ptr %storemerge9.i, i64 0, i32 1
  %family_index3.i.i.i.i49 = getelementptr inbounds %"struct.benchmark::BenchmarkReporter::Run", ptr %__first1.addr.010.i, i64 0, i32 1
  tail call void @llvm.memcpy.p0.p0.i64(ptr noundef nonnull align 8 dereferenceable(20) %family_index.i.i.i.i48, ptr noundef nonnull align 8 dereferenceable(20) %family_index3.i.i.i.i49, i64 20, i1 false)
  %aggregate_name.i.i.i.i50 = getelementptr inbounds %"struct.benchmark::BenchmarkReporter::Run", ptr %storemerge9.i, i64 0, i32 4
  %aggregate_name4.i.i.i.i51 = getelementptr inbounds %"struct.benchmark::BenchmarkReporter::Run", ptr %__first1.addr.010.i, i64 0, i32 4
  tail call void @llvm.memcpy.p0.p0.i64(ptr noundef nonnull align 8 dereferenceable(24) %aggregate_name.i.i.i.i50, ptr noundef nonnull align 8 dereferenceable(24) %aggregate_name4.i.i.i.i51, i64 24, i1 false)
  tail call void @llvm.memset.p0.i64(ptr noundef nonnull align 8 dereferenceable(24) %aggregate_name4.i.i.i.i51, i8 0, i64 24, i1 false)
  %aggregate_unit.i.i.i.i52 = getelementptr inbounds %"struct.benchmark::BenchmarkReporter::Run", ptr %storemerge9.i, i64 0, i32 5
  %aggregate_unit5.i.i.i.i53 = getelementptr inbounds %"struct.benchmark::BenchmarkReporter::Run", ptr %__first1.addr.010.i, i64 0, i32 5
  %11 = load i32, ptr %aggregate_unit5.i.i.i.i53, align 8, !tbaa !101
  store i32 %11, ptr %aggregate_unit.i.i.i.i52, align 8, !tbaa !101
  %report_label.i.i.i.i54 = getelementptr inbounds %"struct.benchmark::BenchmarkReporter::Run", ptr %storemerge9.i, i64 0, i32 6
  %report_label6.i.i.i.i55 = getelementptr inbounds %"struct.benchmark::BenchmarkReporter::Run", ptr %__first1.addr.010.i, i64 0, i32 6
  tail call void @llvm.memcpy.p0.p0.i64(ptr noundef nonnull align 8 dereferenceable(24) %report_label.i.i.i.i54, ptr noundef nonnull align 8 dereferenceable(24) %report_label6.i.i.i.i55, i64 24, i1 false)
  tail call void @llvm.memset.p0.i64(ptr noundef nonnull align 8 dereferenceable(24) %report_label6.i.i.i.i55, i8 0, i64 24, i1 false)
  %error_occurred.i.i.i.i56 = getelementptr inbounds %"struct.benchmark::BenchmarkReporter::Run", ptr %storemerge9.i, i64 0, i32 7
  %error_occurred7.i.i.i.i57 = getelementptr inbounds %"struct.benchmark::BenchmarkReporter::Run", ptr %__first1.addr.010.i, i64 0, i32 7
  %12 = load i8, ptr %error_occurred7.i.i.i.i57, align 8, !tbaa !75, !range !21, !noundef !22
  store i8 %12, ptr %error_occurred.i.i.i.i56, align 8, !tbaa !75
  %error_message.i.i.i.i58 = getelementptr inbounds %"struct.benchmark::BenchmarkReporter::Run", ptr %storemerge9.i, i64 0, i32 8
  %error_message8.i.i.i.i59 = getelementptr inbounds %"struct.benchmark::BenchmarkReporter::Run", ptr %__first1.addr.010.i, i64 0, i32 8
  tail call void @llvm.memcpy.p0.p0.i64(ptr noundef nonnull align 8 dereferenceable(24) %error_message.i.i.i.i58, ptr noundef nonnull align 8 dereferenceable(24) %error_message8.i.i.i.i59, i64 24, i1 false)
  tail call void @llvm.memset.p0.i64(ptr noundef nonnull align 8 dereferenceable(24) %error_message8.i.i.i.i59, i8 0, i64 24, i1 false)
  %iterations.i.i.i.i60 = getelementptr inbounds %"struct.benchmark::BenchmarkReporter::Run", ptr %storemerge9.i, i64 0, i32 9
  %iterations9.i.i.i.i61 = getelementptr inbounds %"struct.benchmark::BenchmarkReporter::Run", ptr %__first1.addr.010.i, i64 0, i32 9
  tail call void @llvm.memcpy.p0.p0.i64(ptr noundef nonnull align 8 dereferenceable(98) %iterations.i.i.i.i60, ptr noundef nonnull align 8 dereferenceable(98) %iterations9.i.i.i.i61, i64 98, i1 false)
  %counters.i.i.i.i62 = getelementptr inbounds %"struct.benchmark::BenchmarkReporter::Run", ptr %storemerge9.i, i64 0, i32 23
  %counters10.i.i.i.i63 = getelementptr inbounds %"struct.benchmark::BenchmarkReporter::Run", ptr %__first1.addr.010.i, i64 0, i32 23
  %13 = load ptr, ptr %counters10.i.i.i.i63, align 8, !tbaa !26
  store ptr %13, ptr %counters.i.i.i.i62, align 8, !tbaa !102
  %__pair1_.i.i.i.i.i.i64 = getelementptr inbounds %"struct.benchmark::BenchmarkReporter::Run", ptr %storemerge9.i, i64 0, i32 23, i32 0, i32 1
  %__pair1_3.i.i.i.i.i.i65 = getelementptr inbounds %"struct.benchmark::BenchmarkReporter::Run", ptr %__first1.addr.010.i, i64 0, i32 23, i32 0, i32 1
  %14 = load i64, ptr %__pair1_3.i.i.i.i.i.i65, align 8
  store i64 %14, ptr %__pair1_.i.i.i.i.i.i64, align 8
  %__pair3_.i.i.i.i.i.i66 = getelementptr inbounds %"struct.benchmark::BenchmarkReporter::Run", ptr %storemerge9.i, i64 0, i32 23, i32 0, i32 2
  %__pair3_4.i.i.i.i.i.i67 = getelementptr inbounds %"struct.benchmark::BenchmarkReporter::Run", ptr %__first1.addr.010.i, i64 0, i32 23, i32 0, i32 2
  %15 = load i64, ptr %__pair3_4.i.i.i.i.i.i67, align 8
  store i64 %15, ptr %__pair3_.i.i.i.i.i.i66, align 8
  %cmp.i.i.i.i.i.i68 = icmp eq i64 %15, 0
  br i1 %cmp.i.i.i.i.i.i68, label %if.then.i.i.i.i.i.i70, label %if.else.i.i.i.i.i.i72

if.then.i.i.i.i.i.i70:                            ; preds = %while.body.i69
  store ptr %__pair1_.i.i.i.i.i.i64, ptr %counters.i.i.i.i62, align 8, !tbaa !26
  br label %invoke.cont.i

if.else.i.i.i.i.i.i72:                            ; preds = %while.body.i69
  %16 = inttoptr i64 %14 to ptr
  %__parent_.i.i.i.i.i.i71 = getelementptr inbounds %"class.std::__1::__tree_node_base", ptr %16, i64 0, i32 2
  store ptr %__pair1_.i.i.i.i.i.i64, ptr %__parent_.i.i.i.i.i.i71, align 8, !tbaa !103
  store ptr %__pair1_3.i.i.i.i.i.i65, ptr %counters10.i.i.i.i63, align 8, !tbaa !26
  tail call void @llvm.memset.p0.i64(ptr noundef nonnull align 8 dereferenceable(16) %__pair1_3.i.i.i.i.i.i65, i8 0, i64 16, i1 false)
  br label %invoke.cont.i

invoke.cont.i:                                    ; preds = %if.else.i.i.i.i.i.i72, %if.then.i.i.i.i.i.i70
  %memory_result.i.i.i.i73 = getelementptr inbounds %"struct.benchmark::BenchmarkReporter::Run", ptr %storemerge9.i, i64 0, i32 24
  %memory_result11.i.i.i.i74 = getelementptr inbounds %"struct.benchmark::BenchmarkReporter::Run", ptr %__first1.addr.010.i, i64 0, i32 24
  tail call void @llvm.memcpy.p0.p0.i64(ptr noundef nonnull align 8 dereferenceable(16) %memory_result.i.i.i.i73, ptr noundef nonnull align 8 dereferenceable(16) %memory_result11.i.i.i.i74, i64 16, i1 false)
  %incdec.ptr.i = getelementptr inbounds %"struct.benchmark::BenchmarkReporter::Run", ptr %__first1.addr.010.i, i64 1
  %incdec.ptr1.i = getelementptr inbounds %"struct.benchmark::BenchmarkReporter::Run", ptr %storemerge9.i, i64 1
  %cmp.not.i = icmp eq ptr %incdec.ptr.i, %9
  br i1 %cmp.not.i, label %_ZNSt3__142__uninitialized_allocator_move_if_noexceptB7v170000INS_9allocatorIN9benchmark17BenchmarkReporter3RunEEEPS4_S6_S6_EET2_RT_T0_T1_S7_.exit.loopexit, label %while.body.i69, !llvm.loop !107

_ZNSt3__142__uninitialized_allocator_move_if_noexceptB7v170000INS_9allocatorIN9benchmark17BenchmarkReporter3RunEEEPS4_S6_S6_EET2_RT_T0_T1_S7_.exit.loopexit: ; preds = %invoke.cont.i
  %.pre = load ptr, ptr %__begin_, align 8, !tbaa !26
  br label %_ZNSt3__142__uninitialized_allocator_move_if_noexceptB7v170000INS_9allocatorIN9benchmark17BenchmarkReporter3RunEEEPS4_S6_S6_EET2_RT_T0_T1_S7_.exit

_ZNSt3__142__uninitialized_allocator_move_if_noexceptB7v170000INS_9allocatorIN9benchmark17BenchmarkReporter3RunEEEPS4_S6_S6_EET2_RT_T0_T1_S7_.exit: ; preds = %_ZNSt3__142__uninitialized_allocator_move_if_noexceptB7v170000INS_9allocatorIN9benchmark17BenchmarkReporter3RunEEEPS4_S6_S6_EET2_RT_T0_T1_S7_.exit.loopexit, %_ZNSt3__142__uninitialized_allocator_move_if_noexceptB7v170000INS_9allocatorIN9benchmark17BenchmarkReporter3RunEEENS_16reverse_iteratorIPS4_EES8_S8_EET2_RT_T0_T1_S9_.exit
  %17 = phi ptr [ %retval.sroa.2.0.copyload.i, %_ZNSt3__142__uninitialized_allocator_move_if_noexceptB7v170000INS_9allocatorIN9benchmark17BenchmarkReporter3RunEEENS_16reverse_iteratorIPS4_EES8_S8_EET2_RT_T0_T1_S9_.exit ], [ %.pre, %_ZNSt3__142__uninitialized_allocator_move_if_noexceptB7v170000INS_9allocatorIN9benchmark17BenchmarkReporter3RunEEEPS4_S6_S6_EET2_RT_T0_T1_S7_.exit.loopexit ]
  %storemerge.lcssa.i = phi ptr [ %10, %_ZNSt3__142__uninitialized_allocator_move_if_noexceptB7v170000INS_9allocatorIN9benchmark17BenchmarkReporter3RunEEENS_16reverse_iteratorIPS4_EES8_S8_EET2_RT_T0_T1_S9_.exit ], [ %incdec.ptr1.i, %_ZNSt3__142__uninitialized_allocator_move_if_noexceptB7v170000INS_9allocatorIN9benchmark17BenchmarkReporter3RunEEEPS4_S6_S6_EET2_RT_T0_T1_S7_.exit.loopexit ]
  store ptr %storemerge.lcssa.i, ptr %__end_10, align 8, !tbaa !97
  %18 = load ptr, ptr %this, align 8, !tbaa !26
  store ptr %17, ptr %this, align 8, !tbaa !26
  store ptr %18, ptr %__begin_, align 8, !tbaa !26
  %19 = load ptr, ptr %__end_, align 8, !tbaa !26
  %20 = load ptr, ptr %__end_10, align 8, !tbaa !26
  store ptr %20, ptr %__end_, align 8, !tbaa !26
  store ptr %19, ptr %__end_10, align 8, !tbaa !26
  %__end_cap_.i75 = getelementptr inbounds %"class.std::__1::vector.59", ptr %this, i64 0, i32 2
  %__end_cap_.i76 = getelementptr inbounds %"struct.std::__1::__split_buffer.79", ptr %__v, i64 0, i32 3
  %21 = load ptr, ptr %__end_cap_.i75, align 8, !tbaa !26
  %22 = load ptr, ptr %__end_cap_.i76, align 8, !tbaa !26
  store ptr %22, ptr %__end_cap_.i75, align 8, !tbaa !26
  store ptr %21, ptr %__end_cap_.i76, align 8, !tbaa !26
  %23 = load ptr, ptr %__begin_, align 8, !tbaa !98
  store ptr %23, ptr %__v, align 8, !tbaa !93
  ret ptr %0
}

; Function Attrs: nounwind uwtable
define linkonce_odr hidden void @_ZNSt3__114__split_bufferIN9benchmark17BenchmarkReporter3RunERNS_9allocatorIS3_EEED2Ev(ptr noundef nonnull align 8 dereferenceable(40) %this) unnamed_addr #1 comdat align 2 personality ptr @__gxx_personality_v0 {
entry:
  %__begin_.i = getelementptr inbounds %"struct.std::__1::__split_buffer.79", ptr %this, i64 0, i32 1
  %0 = load ptr, ptr %__begin_.i, align 8, !tbaa !98
  tail call void @_ZNSt3__114__split_bufferIN9benchmark17BenchmarkReporter3RunERNS_9allocatorIS3_EEE17__destruct_at_endB7v170000EPS3_(ptr noundef nonnull align 8 dereferenceable(40) %this, ptr noundef %0) #26
  %1 = load ptr, ptr %this, align 8, !tbaa !93
  %tobool.not = icmp eq ptr %1, null
  br i1 %tobool.not, label %if.end, label %if.then

if.then:                                          ; preds = %entry
  tail call void @_ZdlPv(ptr noundef nonnull %1) #25
  br label %if.end

if.end:                                           ; preds = %if.then, %entry
  ret void
}

; Function Attrs: nounwind uwtable
define linkonce_odr hidden void @_ZNSt3__128__exception_guard_exceptionsINS_29_AllocatorDestroyRangeReverseINS_9allocatorIN9benchmark17BenchmarkReporter3RunEEEPS5_EEED2B7v170000Ev(ptr noundef nonnull align 8 dereferenceable(25) %this) unnamed_addr #1 comdat align 2 personality ptr @__gxx_personality_v0 {
entry:
  %__completed_ = getelementptr inbounds %"struct.std::__1::__exception_guard_exceptions.82", ptr %this, i64 0, i32 1
  %0 = load i8, ptr %__completed_, align 8, !tbaa !85, !range !21, !noundef !22
  %tobool.not = icmp eq i8 %0, 0
  br i1 %tobool.not, label %if.then, label %if.end

if.then:                                          ; preds = %entry
  invoke void @_ZNKSt3__129_AllocatorDestroyRangeReverseINS_9allocatorIN9benchmark17BenchmarkReporter3RunEEEPS4_EclB7v170000Ev(ptr noundef nonnull align 8 dereferenceable(24) %this)
          to label %if.end unwind label %terminate.lpad

if.end:                                           ; preds = %if.then, %entry
  ret void

terminate.lpad:                                   ; preds = %if.then
  %1 = landingpad { ptr, i32 }
          catch ptr null
  %2 = extractvalue { ptr, i32 } %1, 0
  tail call void @__clang_call_terminate(ptr %2) #29
  unreachable
}

; Function Attrs: inlinehint uwtable
define linkonce_odr hidden void @_ZN9benchmark17BenchmarkReporter3RunC2ERKS1_(ptr noundef nonnull align 8 dereferenceable(424) %this, ptr noundef nonnull align 8 dereferenceable(424) %0) unnamed_addr #19 comdat align 2 personality ptr @__gxx_personality_v0 {
entry:
  tail call void @_ZN9benchmark13BenchmarkNameC2ERKS0_(ptr noundef nonnull align 8 dereferenceable(168) %this, ptr noundef nonnull align 8 dereferenceable(168) %0)
  %family_index = getelementptr inbounds %"struct.benchmark::BenchmarkReporter::Run", ptr %this, i64 0, i32 1
  %family_index3 = getelementptr inbounds %"struct.benchmark::BenchmarkReporter::Run", ptr %0, i64 0, i32 1
  tail call void @llvm.memcpy.p0.p0.i64(ptr noundef nonnull align 8 dereferenceable(20) %family_index, ptr noundef nonnull align 8 dereferenceable(20) %family_index3, i64 20, i1 false)
  %aggregate_name = getelementptr inbounds %"struct.benchmark::BenchmarkReporter::Run", ptr %this, i64 0, i32 4
  %aggregate_name4 = getelementptr inbounds %"struct.benchmark::BenchmarkReporter::Run", ptr %0, i64 0, i32 4
  invoke void @_ZNSt3__112basic_stringIcNS_11char_traitsIcEENS_9allocatorIcEEEC1ERKS5_(ptr noundef nonnull align 8 dereferenceable(24) %aggregate_name, ptr noundef nonnull align 8 dereferenceable(24) %aggregate_name4)
          to label %invoke.cont unwind label %lpad

invoke.cont:                                      ; preds = %entry
  %aggregate_unit = getelementptr inbounds %"struct.benchmark::BenchmarkReporter::Run", ptr %this, i64 0, i32 5
  %aggregate_unit5 = getelementptr inbounds %"struct.benchmark::BenchmarkReporter::Run", ptr %0, i64 0, i32 5
  %1 = load i32, ptr %aggregate_unit5, align 8, !tbaa !101
  store i32 %1, ptr %aggregate_unit, align 8, !tbaa !101
  %report_label = getelementptr inbounds %"struct.benchmark::BenchmarkReporter::Run", ptr %this, i64 0, i32 6
  %report_label6 = getelementptr inbounds %"struct.benchmark::BenchmarkReporter::Run", ptr %0, i64 0, i32 6
  invoke void @_ZNSt3__112basic_stringIcNS_11char_traitsIcEENS_9allocatorIcEEEC1ERKS5_(ptr noundef nonnull align 8 dereferenceable(24) %report_label, ptr noundef nonnull align 8 dereferenceable(24) %report_label6)
          to label %invoke.cont8 unwind label %lpad7

invoke.cont8:                                     ; preds = %invoke.cont
  %error_occurred = getelementptr inbounds %"struct.benchmark::BenchmarkReporter::Run", ptr %this, i64 0, i32 7
  %error_occurred9 = getelementptr inbounds %"struct.benchmark::BenchmarkReporter::Run", ptr %0, i64 0, i32 7
  %2 = load i8, ptr %error_occurred9, align 8, !tbaa !75, !range !21, !noundef !22
  store i8 %2, ptr %error_occurred, align 8, !tbaa !75
  %error_message = getelementptr inbounds %"struct.benchmark::BenchmarkReporter::Run", ptr %this, i64 0, i32 8
  %error_message10 = getelementptr inbounds %"struct.benchmark::BenchmarkReporter::Run", ptr %0, i64 0, i32 8
  invoke void @_ZNSt3__112basic_stringIcNS_11char_traitsIcEENS_9allocatorIcEEEC1ERKS5_(ptr noundef nonnull align 8 dereferenceable(24) %error_message, ptr noundef nonnull align 8 dereferenceable(24) %error_message10)
          to label %invoke.cont12 unwind label %lpad11

invoke.cont12:                                    ; preds = %invoke.cont8
  %iterations = getelementptr inbounds %"struct.benchmark::BenchmarkReporter::Run", ptr %this, i64 0, i32 9
  %iterations13 = getelementptr inbounds %"struct.benchmark::BenchmarkReporter::Run", ptr %0, i64 0, i32 9
  tail call void @llvm.memcpy.p0.p0.i64(ptr noundef nonnull align 8 dereferenceable(98) %iterations, ptr noundef nonnull align 8 dereferenceable(98) %iterations13, i64 98, i1 false)
  %counters = getelementptr inbounds %"struct.benchmark::BenchmarkReporter::Run", ptr %this, i64 0, i32 23
  %counters14 = getelementptr inbounds %"struct.benchmark::BenchmarkReporter::Run", ptr %0, i64 0, i32 23
  %__pair1_.i.i = getelementptr inbounds %"struct.benchmark::BenchmarkReporter::Run", ptr %this, i64 0, i32 23, i32 0, i32 1
  tail call void @llvm.memset.p0.i64(ptr noundef nonnull align 8 dereferenceable(16) %__pair1_.i.i, i8 0, i64 16, i1 false)
  store ptr %__pair1_.i.i, ptr %counters, align 8, !tbaa !26
  %3 = load ptr, ptr %counters14, align 8, !tbaa !26
  %__pair1_.i.i.i.i = getelementptr inbounds %"struct.benchmark::BenchmarkReporter::Run", ptr %0, i64 0, i32 23, i32 0, i32 1
  %cmp.i.i.i.not20.i.i = icmp eq ptr %3, %__pair1_.i.i.i.i
  br i1 %cmp.i.i.i.not20.i.i, label %invoke.cont16, label %for.body.i.i

for.body.i.i:                                     ; preds = %invoke.cont12, %_ZNSt3__120__map_const_iteratorINS_21__tree_const_iteratorINS_12__value_typeINS_12basic_stringIcNS_11char_traitsIcEENS_9allocatorIcEEEEN9benchmark7CounterEEEPNS_11__tree_nodeISB_PvEElEEEppB7v170000Ev.exit.i.i
  %__f.sroa.0.021.i.i = phi ptr [ %retval.0.i.i.i.i.i, %_ZNSt3__120__map_const_iteratorINS_21__tree_const_iteratorINS_12__value_typeINS_12basic_stringIcNS_11char_traitsIcEENS_9allocatorIcEEEEN9benchmark7CounterEEEPNS_11__tree_nodeISB_PvEElEEEppB7v170000Ev.exit.i.i ], [ %3, %invoke.cont12 ]
  %__value_.i.i.i.i = getelementptr inbounds %"class.std::__1::__tree_node", ptr %__f.sroa.0.021.i.i, i64 0, i32 1
  %call3.i.i.i15.i = invoke { ptr, i8 } @_ZNSt3__16__treeINS_12__value_typeINS_12basic_stringIcNS_11char_traitsIcEENS_9allocatorIcEEEEN9benchmark7CounterEEENS_19__map_value_compareIS7_SA_NS_4lessIS7_EELb1EEENS5_ISA_EEE30__emplace_hint_unique_key_argsIS7_JRKNS_4pairIKS7_S9_EEEEENSI_INS_15__tree_iteratorISA_PNS_11__tree_nodeISA_PvEElEEbEENS_21__tree_const_iteratorISA_SR_lEERKT_DpOT0_(ptr noundef nonnull align 8 dereferenceable(24) %counters, ptr nonnull %__pair1_.i.i, ptr noundef nonnull align 8 dereferenceable(24) %__value_.i.i.i.i, ptr noundef nonnull align 8 dereferenceable(40) %__value_.i.i.i.i)
          to label %call3.i.i.i.noexc.i unwind label %lpad.i

call3.i.i.i.noexc.i:                              ; preds = %for.body.i.i
  %__right_.i.i.i.i.i = getelementptr inbounds %"class.std::__1::__tree_node_base", ptr %__f.sroa.0.021.i.i, i64 0, i32 1
  %4 = load ptr, ptr %__right_.i.i.i.i.i, align 8, !tbaa !108
  %cmp1.not.i.i.i.i.i = icmp eq ptr %4, null
  br i1 %cmp1.not.i.i.i.i.i, label %while.cond.i.i.i.i.i, label %while.cond.i.i.i.i.i.i

while.cond.i.i.i.i.i.i:                           ; preds = %call3.i.i.i.noexc.i, %while.cond.i.i.i.i.i.i
  %__x.addr.0.i.i.i.i.i.i = phi ptr [ %5, %while.cond.i.i.i.i.i.i ], [ %4, %call3.i.i.i.noexc.i ]
  %5 = load ptr, ptr %__x.addr.0.i.i.i.i.i.i, align 8, !tbaa !84
  %cmp1.not.i.i.i.i.i.i = icmp eq ptr %5, null
  br i1 %cmp1.not.i.i.i.i.i.i, label %_ZNSt3__120__map_const_iteratorINS_21__tree_const_iteratorINS_12__value_typeINS_12basic_stringIcNS_11char_traitsIcEENS_9allocatorIcEEEEN9benchmark7CounterEEEPNS_11__tree_nodeISB_PvEElEEEppB7v170000Ev.exit.i.i, label %while.cond.i.i.i.i.i.i, !llvm.loop !109

while.cond.i.i.i.i.i:                             ; preds = %call3.i.i.i.noexc.i, %while.cond.i.i.i.i.i
  %__x.addr.0.i.i.i.i.i = phi ptr [ %6, %while.cond.i.i.i.i.i ], [ %__f.sroa.0.021.i.i, %call3.i.i.i.noexc.i ]
  %__parent_.i.i.i.i.i.i = getelementptr inbounds %"class.std::__1::__tree_node_base", ptr %__x.addr.0.i.i.i.i.i, i64 0, i32 2
  %6 = load ptr, ptr %__parent_.i.i.i.i.i.i, align 8, !tbaa !103
  %7 = load ptr, ptr %6, align 8, !tbaa !84
  %cmp.i10.i.i.i.i.i = icmp eq ptr %7, %__x.addr.0.i.i.i.i.i
  br i1 %cmp.i10.i.i.i.i.i, label %_ZNSt3__120__map_const_iteratorINS_21__tree_const_iteratorINS_12__value_typeINS_12basic_stringIcNS_11char_traitsIcEENS_9allocatorIcEEEEN9benchmark7CounterEEEPNS_11__tree_nodeISB_PvEElEEEppB7v170000Ev.exit.i.i, label %while.cond.i.i.i.i.i, !llvm.loop !110

_ZNSt3__120__map_const_iteratorINS_21__tree_const_iteratorINS_12__value_typeINS_12basic_stringIcNS_11char_traitsIcEENS_9allocatorIcEEEEN9benchmark7CounterEEEPNS_11__tree_nodeISB_PvEElEEEppB7v170000Ev.exit.i.i: ; preds = %while.cond.i.i.i.i.i.i, %while.cond.i.i.i.i.i
  %retval.0.i.i.i.i.i = phi ptr [ %6, %while.cond.i.i.i.i.i ], [ %__x.addr.0.i.i.i.i.i.i, %while.cond.i.i.i.i.i.i ]
  %cmp.i.i.i.not.i.i = icmp eq ptr %retval.0.i.i.i.i.i, %__pair1_.i.i.i.i
  br i1 %cmp.i.i.i.not.i.i, label %invoke.cont16, label %for.body.i.i, !llvm.loop !111

lpad.i:                                           ; preds = %for.body.i.i
  %8 = landingpad { ptr, i32 }
          cleanup
  %9 = load ptr, ptr %__pair1_.i.i, align 8, !tbaa !84
  tail call void @_ZNSt3__16__treeINS_12__value_typeINS_12basic_stringIcNS_11char_traitsIcEENS_9allocatorIcEEEEN9benchmark7CounterEEENS_19__map_value_compareIS7_SA_NS_4lessIS7_EELb1EEENS5_ISA_EEE7destroyEPNS_11__tree_nodeISA_PvEE(ptr noundef nonnull align 8 dereferenceable(24) %counters, ptr noundef %9) #26
  %bf.load.i.i = load i8, ptr %error_message, align 8
  %bf.clear.i.i = and i8 %bf.load.i.i, 1
  %tobool.i.not.i = icmp eq i8 %bf.clear.i.i, 0
  br i1 %tobool.i.not.i, label %ehcleanup, label %if.then.i

invoke.cont16:                                    ; preds = %_ZNSt3__120__map_const_iteratorINS_21__tree_const_iteratorINS_12__value_typeINS_12basic_stringIcNS_11char_traitsIcEENS_9allocatorIcEEEEN9benchmark7CounterEEEPNS_11__tree_nodeISB_PvEElEEEppB7v170000Ev.exit.i.i, %invoke.cont12
  %memory_result = getelementptr inbounds %"struct.benchmark::BenchmarkReporter::Run", ptr %this, i64 0, i32 24
  %memory_result17 = getelementptr inbounds %"struct.benchmark::BenchmarkReporter::Run", ptr %0, i64 0, i32 24
  tail call void @llvm.memcpy.p0.p0.i64(ptr noundef nonnull align 8 dereferenceable(16) %memory_result, ptr noundef nonnull align 8 dereferenceable(16) %memory_result17, i64 16, i1 false)
  ret void

lpad:                                             ; preds = %entry
  %10 = landingpad { ptr, i32 }
          cleanup
  br label %ehcleanup19

lpad7:                                            ; preds = %invoke.cont
  %11 = landingpad { ptr, i32 }
          cleanup
  br label %ehcleanup18

lpad11:                                           ; preds = %invoke.cont8
  %12 = landingpad { ptr, i32 }
          cleanup
  br label %ehcleanup

if.then.i:                                        ; preds = %lpad.i
  %__data_.i.i = getelementptr inbounds %"struct.benchmark::BenchmarkReporter::Run", ptr %this, i64 0, i32 8, i32 0, i32 0, i32 0, i32 0, i32 0, i32 2
  %13 = load ptr, ptr %__data_.i.i, align 8, !tbaa !13
  tail call void @_ZdlPv(ptr noundef %13) #25
  br label %ehcleanup

ehcleanup:                                        ; preds = %if.then.i, %lpad.i, %lpad11
  %.pn = phi { ptr, i32 } [ %12, %lpad11 ], [ %8, %lpad.i ], [ %8, %if.then.i ]
  %bf.load.i.i33 = load i8, ptr %report_label, align 8
  %bf.clear.i.i34 = and i8 %bf.load.i.i33, 1
  %tobool.i.not.i35 = icmp eq i8 %bf.clear.i.i34, 0
  br i1 %tobool.i.not.i35, label %ehcleanup18, label %if.then.i37

if.then.i37:                                      ; preds = %ehcleanup
  %__data_.i.i36 = getelementptr inbounds %"struct.benchmark::BenchmarkReporter::Run", ptr %this, i64 0, i32 6, i32 0, i32 0, i32 0, i32 0, i32 0, i32 2
  %14 = load ptr, ptr %__data_.i.i36, align 8, !tbaa !13
  tail call void @_ZdlPv(ptr noundef %14) #25
  br label %ehcleanup18

ehcleanup18:                                      ; preds = %if.then.i37, %ehcleanup, %lpad7
  %.pn.pn = phi { ptr, i32 } [ %11, %lpad7 ], [ %.pn, %ehcleanup ], [ %.pn, %if.then.i37 ]
  %bf.load.i.i39 = load i8, ptr %aggregate_name, align 8
  %bf.clear.i.i40 = and i8 %bf.load.i.i39, 1
  %tobool.i.not.i41 = icmp eq i8 %bf.clear.i.i40, 0
  br i1 %tobool.i.not.i41, label %ehcleanup19, label %if.then.i43

if.then.i43:                                      ; preds = %ehcleanup18
  %__data_.i.i42 = getelementptr inbounds %"struct.benchmark::BenchmarkReporter::Run", ptr %this, i64 0, i32 4, i32 0, i32 0, i32 0, i32 0, i32 0, i32 2
  %15 = load ptr, ptr %__data_.i.i42, align 8, !tbaa !13
  tail call void @_ZdlPv(ptr noundef %15) #25
  br label %ehcleanup19

ehcleanup19:                                      ; preds = %if.then.i43, %ehcleanup18, %lpad
  %.pn.pn.pn = phi { ptr, i32 } [ %10, %lpad ], [ %.pn.pn, %ehcleanup18 ], [ %.pn.pn, %if.then.i43 ]
  tail call void @_ZN9benchmark13BenchmarkNameD2Ev(ptr noundef nonnull align 8 dereferenceable(168) %this) #26
  resume { ptr, i32 } %.pn.pn.pn
}

; Function Attrs: inlinehint uwtable
define linkonce_odr hidden void @_ZN9benchmark13BenchmarkNameC2ERKS0_(ptr noundef nonnull align 8 dereferenceable(168) %this, ptr noundef nonnull align 8 dereferenceable(168) %0) unnamed_addr #19 comdat align 2 personality ptr @__gxx_personality_v0 {
entry:
  tail call void @_ZNSt3__112basic_stringIcNS_11char_traitsIcEENS_9allocatorIcEEEC1ERKS5_(ptr noundef nonnull align 8 dereferenceable(24) %this, ptr noundef nonnull align 8 dereferenceable(24) %0)
  %args = getelementptr inbounds %"struct.benchmark::BenchmarkName", ptr %this, i64 0, i32 1
  %args3 = getelementptr inbounds %"struct.benchmark::BenchmarkName", ptr %0, i64 0, i32 1
  invoke void @_ZNSt3__112basic_stringIcNS_11char_traitsIcEENS_9allocatorIcEEEC1ERKS5_(ptr noundef nonnull align 8 dereferenceable(24) %args, ptr noundef nonnull align 8 dereferenceable(24) %args3)
          to label %invoke.cont unwind label %lpad

invoke.cont:                                      ; preds = %entry
  %min_time = getelementptr inbounds %"struct.benchmark::BenchmarkName", ptr %this, i64 0, i32 2
  %min_time4 = getelementptr inbounds %"struct.benchmark::BenchmarkName", ptr %0, i64 0, i32 2
  invoke void @_ZNSt3__112basic_stringIcNS_11char_traitsIcEENS_9allocatorIcEEEC1ERKS5_(ptr noundef nonnull align 8 dereferenceable(24) %min_time, ptr noundef nonnull align 8 dereferenceable(24) %min_time4)
          to label %invoke.cont6 unwind label %lpad5

invoke.cont6:                                     ; preds = %invoke.cont
  %iterations = getelementptr inbounds %"struct.benchmark::BenchmarkName", ptr %this, i64 0, i32 3
  %iterations7 = getelementptr inbounds %"struct.benchmark::BenchmarkName", ptr %0, i64 0, i32 3
  invoke void @_ZNSt3__112basic_stringIcNS_11char_traitsIcEENS_9allocatorIcEEEC1ERKS5_(ptr noundef nonnull align 8 dereferenceable(24) %iterations, ptr noundef nonnull align 8 dereferenceable(24) %iterations7)
          to label %invoke.cont9 unwind label %lpad8

invoke.cont9:                                     ; preds = %invoke.cont6
  %repetitions = getelementptr inbounds %"struct.benchmark::BenchmarkName", ptr %this, i64 0, i32 4
  %repetitions10 = getelementptr inbounds %"struct.benchmark::BenchmarkName", ptr %0, i64 0, i32 4
  invoke void @_ZNSt3__112basic_stringIcNS_11char_traitsIcEENS_9allocatorIcEEEC1ERKS5_(ptr noundef nonnull align 8 dereferenceable(24) %repetitions, ptr noundef nonnull align 8 dereferenceable(24) %repetitions10)
          to label %invoke.cont12 unwind label %lpad11

invoke.cont12:                                    ; preds = %invoke.cont9
  %time_type = getelementptr inbounds %"struct.benchmark::BenchmarkName", ptr %this, i64 0, i32 5
  %time_type13 = getelementptr inbounds %"struct.benchmark::BenchmarkName", ptr %0, i64 0, i32 5
  invoke void @_ZNSt3__112basic_stringIcNS_11char_traitsIcEENS_9allocatorIcEEEC1ERKS5_(ptr noundef nonnull align 8 dereferenceable(24) %time_type, ptr noundef nonnull align 8 dereferenceable(24) %time_type13)
          to label %invoke.cont15 unwind label %lpad14

invoke.cont15:                                    ; preds = %invoke.cont12
  %threads = getelementptr inbounds %"struct.benchmark::BenchmarkName", ptr %this, i64 0, i32 6
  %threads16 = getelementptr inbounds %"struct.benchmark::BenchmarkName", ptr %0, i64 0, i32 6
  invoke void @_ZNSt3__112basic_stringIcNS_11char_traitsIcEENS_9allocatorIcEEEC1ERKS5_(ptr noundef nonnull align 8 dereferenceable(24) %threads, ptr noundef nonnull align 8 dereferenceable(24) %threads16)
          to label %invoke.cont18 unwind label %lpad17

invoke.cont18:                                    ; preds = %invoke.cont15
  ret void

lpad:                                             ; preds = %entry
  %1 = landingpad { ptr, i32 }
          cleanup
  br label %ehcleanup22

lpad5:                                            ; preds = %invoke.cont
  %2 = landingpad { ptr, i32 }
          cleanup
  br label %ehcleanup21

lpad8:                                            ; preds = %invoke.cont6
  %3 = landingpad { ptr, i32 }
          cleanup
  br label %ehcleanup20

lpad11:                                           ; preds = %invoke.cont9
  %4 = landingpad { ptr, i32 }
          cleanup
  br label %ehcleanup19

lpad14:                                           ; preds = %invoke.cont12
  %5 = landingpad { ptr, i32 }
          cleanup
  br label %ehcleanup

lpad17:                                           ; preds = %invoke.cont15
  %6 = landingpad { ptr, i32 }
          cleanup
  %bf.load.i.i = load i8, ptr %time_type, align 8
  %bf.clear.i.i = and i8 %bf.load.i.i, 1
  %tobool.i.not.i = icmp eq i8 %bf.clear.i.i, 0
  br i1 %tobool.i.not.i, label %ehcleanup, label %if.then.i

if.then.i:                                        ; preds = %lpad17
  %__data_.i.i = getelementptr inbounds %"struct.benchmark::BenchmarkName", ptr %this, i64 0, i32 5, i32 0, i32 0, i32 0, i32 0, i32 0, i32 2
  %7 = load ptr, ptr %__data_.i.i, align 8, !tbaa !13
  tail call void @_ZdlPv(ptr noundef %7) #25
  br label %ehcleanup

ehcleanup:                                        ; preds = %if.then.i, %lpad17, %lpad14
  %.pn = phi { ptr, i32 } [ %5, %lpad14 ], [ %6, %lpad17 ], [ %6, %if.then.i ]
  %bf.load.i.i35 = load i8, ptr %repetitions, align 8
  %bf.clear.i.i36 = and i8 %bf.load.i.i35, 1
  %tobool.i.not.i37 = icmp eq i8 %bf.clear.i.i36, 0
  br i1 %tobool.i.not.i37, label %ehcleanup19, label %if.then.i39

if.then.i39:                                      ; preds = %ehcleanup
  %__data_.i.i38 = getelementptr inbounds %"struct.benchmark::BenchmarkName", ptr %this, i64 0, i32 4, i32 0, i32 0, i32 0, i32 0, i32 0, i32 2
  %8 = load ptr, ptr %__data_.i.i38, align 8, !tbaa !13
  tail call void @_ZdlPv(ptr noundef %8) #25
  br label %ehcleanup19

ehcleanup19:                                      ; preds = %if.then.i39, %ehcleanup, %lpad11
  %.pn.pn = phi { ptr, i32 } [ %4, %lpad11 ], [ %.pn, %ehcleanup ], [ %.pn, %if.then.i39 ]
  %bf.load.i.i41 = load i8, ptr %iterations, align 8
  %bf.clear.i.i42 = and i8 %bf.load.i.i41, 1
  %tobool.i.not.i43 = icmp eq i8 %bf.clear.i.i42, 0
  br i1 %tobool.i.not.i43, label %ehcleanup20, label %if.then.i45

if.then.i45:                                      ; preds = %ehcleanup19
  %__data_.i.i44 = getelementptr inbounds %"struct.benchmark::BenchmarkName", ptr %this, i64 0, i32 3, i32 0, i32 0, i32 0, i32 0, i32 0, i32 2
  %9 = load ptr, ptr %__data_.i.i44, align 8, !tbaa !13
  tail call void @_ZdlPv(ptr noundef %9) #25
  br label %ehcleanup20

ehcleanup20:                                      ; preds = %if.then.i45, %ehcleanup19, %lpad8
  %.pn.pn.pn = phi { ptr, i32 } [ %3, %lpad8 ], [ %.pn.pn, %ehcleanup19 ], [ %.pn.pn, %if.then.i45 ]
  %bf.load.i.i47 = load i8, ptr %min_time, align 8
  %bf.clear.i.i48 = and i8 %bf.load.i.i47, 1
  %tobool.i.not.i49 = icmp eq i8 %bf.clear.i.i48, 0
  br i1 %tobool.i.not.i49, label %ehcleanup21, label %if.then.i51

if.then.i51:                                      ; preds = %ehcleanup20
  %__data_.i.i50 = getelementptr inbounds %"struct.benchmark::BenchmarkName", ptr %this, i64 0, i32 2, i32 0, i32 0, i32 0, i32 0, i32 0, i32 2
  %10 = load ptr, ptr %__data_.i.i50, align 8, !tbaa !13
  tail call void @_ZdlPv(ptr noundef %10) #25
  br label %ehcleanup21

ehcleanup21:                                      ; preds = %if.then.i51, %ehcleanup20, %lpad5
  %.pn.pn.pn.pn = phi { ptr, i32 } [ %2, %lpad5 ], [ %.pn.pn.pn, %ehcleanup20 ], [ %.pn.pn.pn, %if.then.i51 ]
  %bf.load.i.i53 = load i8, ptr %args, align 8
  %bf.clear.i.i54 = and i8 %bf.load.i.i53, 1
  %tobool.i.not.i55 = icmp eq i8 %bf.clear.i.i54, 0
  br i1 %tobool.i.not.i55, label %ehcleanup22, label %if.then.i57

if.then.i57:                                      ; preds = %ehcleanup21
  %__data_.i.i56 = getelementptr inbounds %"struct.benchmark::BenchmarkName", ptr %this, i64 0, i32 1, i32 0, i32 0, i32 0, i32 0, i32 0, i32 2
  %11 = load ptr, ptr %__data_.i.i56, align 8, !tbaa !13
  tail call void @_ZdlPv(ptr noundef %11) #25
  br label %ehcleanup22

ehcleanup22:                                      ; preds = %if.then.i57, %ehcleanup21, %lpad
  %.pn.pn.pn.pn.pn = phi { ptr, i32 } [ %1, %lpad ], [ %.pn.pn.pn.pn, %ehcleanup21 ], [ %.pn.pn.pn.pn, %if.then.i57 ]
  %bf.load.i.i59 = load i8, ptr %this, align 8
  %bf.clear.i.i60 = and i8 %bf.load.i.i59, 1
  %tobool.i.not.i61 = icmp eq i8 %bf.clear.i.i60, 0
  br i1 %tobool.i.not.i61, label %_ZNSt3__112basic_stringIcNS_11char_traitsIcEENS_9allocatorIcEEED2Ev.exit64, label %if.then.i63

if.then.i63:                                      ; preds = %ehcleanup22
  %__data_.i.i62 = getelementptr inbounds %"struct.std::__1::basic_string<char>::__long", ptr %this, i64 0, i32 2
  %12 = load ptr, ptr %__data_.i.i62, align 8, !tbaa !13
  tail call void @_ZdlPv(ptr noundef %12) #25
  br label %_ZNSt3__112basic_stringIcNS_11char_traitsIcEENS_9allocatorIcEEED2Ev.exit64

_ZNSt3__112basic_stringIcNS_11char_traitsIcEENS_9allocatorIcEEED2Ev.exit64: ; preds = %ehcleanup22, %if.then.i63
  resume { ptr, i32 } %.pn.pn.pn.pn.pn
}

; Function Attrs: inlinehint nounwind uwtable
define linkonce_odr hidden void @_ZN9benchmark13BenchmarkNameD2Ev(ptr noundef nonnull align 8 dereferenceable(168) %this) unnamed_addr #8 comdat align 2 personality ptr @__gxx_personality_v0 {
entry:
  %threads = getelementptr inbounds %"struct.benchmark::BenchmarkName", ptr %this, i64 0, i32 6
  %bf.load.i.i = load i8, ptr %threads, align 8
  %bf.clear.i.i = and i8 %bf.load.i.i, 1
  %tobool.i.not.i = icmp eq i8 %bf.clear.i.i, 0
  br i1 %tobool.i.not.i, label %_ZNSt3__112basic_stringIcNS_11char_traitsIcEENS_9allocatorIcEEED2Ev.exit, label %if.then.i

if.then.i:                                        ; preds = %entry
  %__data_.i.i = getelementptr inbounds %"struct.benchmark::BenchmarkName", ptr %this, i64 0, i32 6, i32 0, i32 0, i32 0, i32 0, i32 0, i32 2
  %0 = load ptr, ptr %__data_.i.i, align 8, !tbaa !13
  tail call void @_ZdlPv(ptr noundef %0) #25
  br label %_ZNSt3__112basic_stringIcNS_11char_traitsIcEENS_9allocatorIcEEED2Ev.exit

_ZNSt3__112basic_stringIcNS_11char_traitsIcEENS_9allocatorIcEEED2Ev.exit: ; preds = %entry, %if.then.i
  %time_type = getelementptr inbounds %"struct.benchmark::BenchmarkName", ptr %this, i64 0, i32 5
  %bf.load.i.i2 = load i8, ptr %time_type, align 8
  %bf.clear.i.i3 = and i8 %bf.load.i.i2, 1
  %tobool.i.not.i4 = icmp eq i8 %bf.clear.i.i3, 0
  br i1 %tobool.i.not.i4, label %_ZNSt3__112basic_stringIcNS_11char_traitsIcEENS_9allocatorIcEEED2Ev.exit7, label %if.then.i6

if.then.i6:                                       ; preds = %_ZNSt3__112basic_stringIcNS_11char_traitsIcEENS_9allocatorIcEEED2Ev.exit
  %__data_.i.i5 = getelementptr inbounds %"struct.benchmark::BenchmarkName", ptr %this, i64 0, i32 5, i32 0, i32 0, i32 0, i32 0, i32 0, i32 2
  %1 = load ptr, ptr %__data_.i.i5, align 8, !tbaa !13
  tail call void @_ZdlPv(ptr noundef %1) #25
  br label %_ZNSt3__112basic_stringIcNS_11char_traitsIcEENS_9allocatorIcEEED2Ev.exit7

_ZNSt3__112basic_stringIcNS_11char_traitsIcEENS_9allocatorIcEEED2Ev.exit7: ; preds = %_ZNSt3__112basic_stringIcNS_11char_traitsIcEENS_9allocatorIcEEED2Ev.exit, %if.then.i6
  %repetitions = getelementptr inbounds %"struct.benchmark::BenchmarkName", ptr %this, i64 0, i32 4
  %bf.load.i.i8 = load i8, ptr %repetitions, align 8
  %bf.clear.i.i9 = and i8 %bf.load.i.i8, 1
  %tobool.i.not.i10 = icmp eq i8 %bf.clear.i.i9, 0
  br i1 %tobool.i.not.i10, label %_ZNSt3__112basic_stringIcNS_11char_traitsIcEENS_9allocatorIcEEED2Ev.exit13, label %if.then.i12

if.then.i12:                                      ; preds = %_ZNSt3__112basic_stringIcNS_11char_traitsIcEENS_9allocatorIcEEED2Ev.exit7
  %__data_.i.i11 = getelementptr inbounds %"struct.benchmark::BenchmarkName", ptr %this, i64 0, i32 4, i32 0, i32 0, i32 0, i32 0, i32 0, i32 2
  %2 = load ptr, ptr %__data_.i.i11, align 8, !tbaa !13
  tail call void @_ZdlPv(ptr noundef %2) #25
  br label %_ZNSt3__112basic_stringIcNS_11char_traitsIcEENS_9allocatorIcEEED2Ev.exit13

_ZNSt3__112basic_stringIcNS_11char_traitsIcEENS_9allocatorIcEEED2Ev.exit13: ; preds = %_ZNSt3__112basic_stringIcNS_11char_traitsIcEENS_9allocatorIcEEED2Ev.exit7, %if.then.i12
  %iterations = getelementptr inbounds %"struct.benchmark::BenchmarkName", ptr %this, i64 0, i32 3
  %bf.load.i.i14 = load i8, ptr %iterations, align 8
  %bf.clear.i.i15 = and i8 %bf.load.i.i14, 1
  %tobool.i.not.i16 = icmp eq i8 %bf.clear.i.i15, 0
  br i1 %tobool.i.not.i16, label %_ZNSt3__112basic_stringIcNS_11char_traitsIcEENS_9allocatorIcEEED2Ev.exit19, label %if.then.i18

if.then.i18:                                      ; preds = %_ZNSt3__112basic_stringIcNS_11char_traitsIcEENS_9allocatorIcEEED2Ev.exit13
  %__data_.i.i17 = getelementptr inbounds %"struct.benchmark::BenchmarkName", ptr %this, i64 0, i32 3, i32 0, i32 0, i32 0, i32 0, i32 0, i32 2
  %3 = load ptr, ptr %__data_.i.i17, align 8, !tbaa !13
  tail call void @_ZdlPv(ptr noundef %3) #25
  br label %_ZNSt3__112basic_stringIcNS_11char_traitsIcEENS_9allocatorIcEEED2Ev.exit19

_ZNSt3__112basic_stringIcNS_11char_traitsIcEENS_9allocatorIcEEED2Ev.exit19: ; preds = %_ZNSt3__112basic_stringIcNS_11char_traitsIcEENS_9allocatorIcEEED2Ev.exit13, %if.then.i18
  %min_time = getelementptr inbounds %"struct.benchmark::BenchmarkName", ptr %this, i64 0, i32 2
  %bf.load.i.i20 = load i8, ptr %min_time, align 8
  %bf.clear.i.i21 = and i8 %bf.load.i.i20, 1
  %tobool.i.not.i22 = icmp eq i8 %bf.clear.i.i21, 0
  br i1 %tobool.i.not.i22, label %_ZNSt3__112basic_stringIcNS_11char_traitsIcEENS_9allocatorIcEEED2Ev.exit25, label %if.then.i24

if.then.i24:                                      ; preds = %_ZNSt3__112basic_stringIcNS_11char_traitsIcEENS_9allocatorIcEEED2Ev.exit19
  %__data_.i.i23 = getelementptr inbounds %"struct.benchmark::BenchmarkName", ptr %this, i64 0, i32 2, i32 0, i32 0, i32 0, i32 0, i32 0, i32 2
  %4 = load ptr, ptr %__data_.i.i23, align 8, !tbaa !13
  tail call void @_ZdlPv(ptr noundef %4) #25
  br label %_ZNSt3__112basic_stringIcNS_11char_traitsIcEENS_9allocatorIcEEED2Ev.exit25

_ZNSt3__112basic_stringIcNS_11char_traitsIcEENS_9allocatorIcEEED2Ev.exit25: ; preds = %_ZNSt3__112basic_stringIcNS_11char_traitsIcEENS_9allocatorIcEEED2Ev.exit19, %if.then.i24
  %args = getelementptr inbounds %"struct.benchmark::BenchmarkName", ptr %this, i64 0, i32 1
  %bf.load.i.i26 = load i8, ptr %args, align 8
  %bf.clear.i.i27 = and i8 %bf.load.i.i26, 1
  %tobool.i.not.i28 = icmp eq i8 %bf.clear.i.i27, 0
  br i1 %tobool.i.not.i28, label %_ZNSt3__112basic_stringIcNS_11char_traitsIcEENS_9allocatorIcEEED2Ev.exit31, label %if.then.i30

if.then.i30:                                      ; preds = %_ZNSt3__112basic_stringIcNS_11char_traitsIcEENS_9allocatorIcEEED2Ev.exit25
  %__data_.i.i29 = getelementptr inbounds %"struct.benchmark::BenchmarkName", ptr %this, i64 0, i32 1, i32 0, i32 0, i32 0, i32 0, i32 0, i32 2
  %5 = load ptr, ptr %__data_.i.i29, align 8, !tbaa !13
  tail call void @_ZdlPv(ptr noundef %5) #25
  br label %_ZNSt3__112basic_stringIcNS_11char_traitsIcEENS_9allocatorIcEEED2Ev.exit31

_ZNSt3__112basic_stringIcNS_11char_traitsIcEENS_9allocatorIcEEED2Ev.exit31: ; preds = %_ZNSt3__112basic_stringIcNS_11char_traitsIcEENS_9allocatorIcEEED2Ev.exit25, %if.then.i30
  %bf.load.i.i32 = load i8, ptr %this, align 8
  %bf.clear.i.i33 = and i8 %bf.load.i.i32, 1
  %tobool.i.not.i34 = icmp eq i8 %bf.clear.i.i33, 0
  br i1 %tobool.i.not.i34, label %_ZNSt3__112basic_stringIcNS_11char_traitsIcEENS_9allocatorIcEEED2Ev.exit37, label %if.then.i36

if.then.i36:                                      ; preds = %_ZNSt3__112basic_stringIcNS_11char_traitsIcEENS_9allocatorIcEEED2Ev.exit31
  %__data_.i.i35 = getelementptr inbounds %"struct.std::__1::basic_string<char>::__long", ptr %this, i64 0, i32 2
  %6 = load ptr, ptr %__data_.i.i35, align 8, !tbaa !13
  tail call void @_ZdlPv(ptr noundef %6) #25
  br label %_ZNSt3__112basic_stringIcNS_11char_traitsIcEENS_9allocatorIcEEED2Ev.exit37

_ZNSt3__112basic_stringIcNS_11char_traitsIcEENS_9allocatorIcEEED2Ev.exit37: ; preds = %_ZNSt3__112basic_stringIcNS_11char_traitsIcEENS_9allocatorIcEEED2Ev.exit31, %if.then.i36
  ret void
}

; Function Attrs: uwtable
define linkonce_odr hidden { ptr, i8 } @_ZNSt3__16__treeINS_12__value_typeINS_12basic_stringIcNS_11char_traitsIcEENS_9allocatorIcEEEEN9benchmark7CounterEEENS_19__map_value_compareIS7_SA_NS_4lessIS7_EELb1EEENS5_ISA_EEE30__emplace_hint_unique_key_argsIS7_JRKNS_4pairIKS7_S9_EEEEENSI_INS_15__tree_iteratorISA_PNS_11__tree_nodeISA_PvEElEEbEENS_21__tree_const_iteratorISA_SR_lEERKT_DpOT0_(ptr noundef nonnull align 8 dereferenceable(24) %this, ptr %__p.coerce, ptr noundef nonnull align 8 dereferenceable(24) %__k, ptr noundef nonnull align 8 dereferenceable(40) %__args) local_unnamed_addr #6 comdat align 2 personality ptr @__gxx_personality_v0 {
entry:
  %__parent = alloca ptr, align 8
  %__dummy = alloca ptr, align 8
  call void @llvm.lifetime.start.p0(i64 8, ptr nonnull %__parent) #26
  call void @llvm.lifetime.start.p0(i64 8, ptr nonnull %__dummy) #26
  %call = call noundef nonnull align 8 dereferenceable(8) ptr @_ZNSt3__16__treeINS_12__value_typeINS_12basic_stringIcNS_11char_traitsIcEENS_9allocatorIcEEEEN9benchmark7CounterEEENS_19__map_value_compareIS7_SA_NS_4lessIS7_EELb1EEENS5_ISA_EEE12__find_equalIS7_EERPNS_16__tree_node_baseIPvEENS_21__tree_const_iteratorISA_PNS_11__tree_nodeISA_SJ_EElEERPNS_15__tree_end_nodeISL_EESM_RKT_(ptr noundef nonnull align 8 dereferenceable(24) %this, ptr %__p.coerce, ptr noundef nonnull align 8 dereferenceable(8) %__parent, ptr noundef nonnull align 8 dereferenceable(8) %__dummy, ptr noundef nonnull align 8 dereferenceable(24) %__k)
  %0 = load ptr, ptr %call, align 8, !tbaa !26
  %cmp = icmp eq ptr %0, null
  br i1 %cmp, label %if.then, label %if.end

if.then:                                          ; preds = %entry
  %call.i.i.i.i.i = call noalias noundef nonnull dereferenceable(72) ptr @_Znwm(i64 noundef 72) #28, !noalias !112
  %__value_.i = getelementptr inbounds %"class.std::__1::__tree_node", ptr %call.i.i.i.i.i, i64 0, i32 1
  invoke void @_ZNSt3__112basic_stringIcNS_11char_traitsIcEENS_9allocatorIcEEEC1ERKS5_(ptr noundef nonnull align 8 dereferenceable(24) %__value_.i, ptr noundef nonnull align 8 dereferenceable(24) %__args)
          to label %_ZNSt3__16__treeINS_12__value_typeINS_12basic_stringIcNS_11char_traitsIcEENS_9allocatorIcEEEEN9benchmark7CounterEEENS_19__map_value_compareIS7_SA_NS_4lessIS7_EELb1EEENS5_ISA_EEE16__construct_nodeIJRKNS_4pairIKS7_S9_EEEEENS_10unique_ptrINS_11__tree_nodeISA_PvEENS_22__tree_node_destructorINS5_ISQ_EEEEEEDpOT_.exit unwind label %_ZNSt3__110unique_ptrINS_11__tree_nodeINS_12__value_typeINS_12basic_stringIcNS_11char_traitsIcEENS_9allocatorIcEEEEN9benchmark7CounterEEEPvEENS_22__tree_node_destructorINS6_ISD_EEEEED2B7v170000Ev.exit20, !noalias !112

_ZNSt3__110unique_ptrINS_11__tree_nodeINS_12__value_typeINS_12basic_stringIcNS_11char_traitsIcEENS_9allocatorIcEEEEN9benchmark7CounterEEEPvEENS_22__tree_node_destructorINS6_ISD_EEEEED2B7v170000Ev.exit20: ; preds = %if.then
  %1 = landingpad { ptr, i32 }
          cleanup
  call void @_ZdlPv(ptr noundef nonnull %call.i.i.i.i.i) #25
  resume { ptr, i32 } %1

_ZNSt3__16__treeINS_12__value_typeINS_12basic_stringIcNS_11char_traitsIcEENS_9allocatorIcEEEEN9benchmark7CounterEEENS_19__map_value_compareIS7_SA_NS_4lessIS7_EELb1EEENS5_ISA_EEE16__construct_nodeIJRKNS_4pairIKS7_S9_EEEEENS_10unique_ptrINS_11__tree_nodeISA_PvEENS_22__tree_node_destructorINS5_ISQ_EEEEEEDpOT_.exit: ; preds = %if.then
  %second.i.i.i.i = getelementptr inbounds %"class.std::__1::__tree_node", ptr %call.i.i.i.i.i, i64 0, i32 1, i32 0, i32 1
  %second3.i.i.i.i = getelementptr inbounds %"struct.std::__1::pair", ptr %__args, i64 0, i32 1
  call void @llvm.memcpy.p0.p0.i64(ptr noundef nonnull align 8 dereferenceable(16) %second.i.i.i.i, ptr noundef nonnull align 8 dereferenceable(16) %second3.i.i.i.i, i64 16, i1 false), !tbaa.struct !115, !noalias !112
  %2 = load ptr, ptr %__parent, align 8, !tbaa !26
  %__parent_.i = getelementptr inbounds %"class.std::__1::__tree_node_base", ptr %call.i.i.i.i.i, i64 0, i32 2
  call void @llvm.memset.p0.i64(ptr noundef nonnull align 8 dereferenceable(16) %call.i.i.i.i.i, i8 0, i64 16, i1 false)
  store ptr %2, ptr %__parent_.i, align 8, !tbaa !103
  store ptr %call.i.i.i.i.i, ptr %call, align 8, !tbaa !26
  %3 = load ptr, ptr %this, align 8, !tbaa !26
  %4 = load ptr, ptr %3, align 8, !tbaa !84
  %cmp.not.i = icmp eq ptr %4, null
  br i1 %cmp.not.i, label %_ZNSt3__110unique_ptrINS_11__tree_nodeINS_12__value_typeINS_12basic_stringIcNS_11char_traitsIcEENS_9allocatorIcEEEEN9benchmark7CounterEEEPvEENS_22__tree_node_destructorINS6_ISD_EEEEED2B7v170000Ev.exit, label %if.then.i

if.then.i:                                        ; preds = %_ZNSt3__16__treeINS_12__value_typeINS_12basic_stringIcNS_11char_traitsIcEENS_9allocatorIcEEEEN9benchmark7CounterEEENS_19__map_value_compareIS7_SA_NS_4lessIS7_EELb1EEENS5_ISA_EEE16__construct_nodeIJRKNS_4pairIKS7_S9_EEEEENS_10unique_ptrINS_11__tree_nodeISA_PvEENS_22__tree_node_destructorINS5_ISQ_EEEEEEDpOT_.exit
  store ptr %4, ptr %this, align 8, !tbaa !26
  %.pre.i = load ptr, ptr %call, align 8, !tbaa !26
  br label %_ZNSt3__110unique_ptrINS_11__tree_nodeINS_12__value_typeINS_12basic_stringIcNS_11char_traitsIcEENS_9allocatorIcEEEEN9benchmark7CounterEEEPvEENS_22__tree_node_destructorINS6_ISD_EEEEED2B7v170000Ev.exit

_ZNSt3__110unique_ptrINS_11__tree_nodeINS_12__value_typeINS_12basic_stringIcNS_11char_traitsIcEENS_9allocatorIcEEEEN9benchmark7CounterEEEPvEENS_22__tree_node_destructorINS6_ISD_EEEEED2B7v170000Ev.exit: ; preds = %if.then.i, %_ZNSt3__16__treeINS_12__value_typeINS_12basic_stringIcNS_11char_traitsIcEENS_9allocatorIcEEEEN9benchmark7CounterEEENS_19__map_value_compareIS7_SA_NS_4lessIS7_EELb1EEENS5_ISA_EEE16__construct_nodeIJRKNS_4pairIKS7_S9_EEEEENS_10unique_ptrINS_11__tree_nodeISA_PvEENS_22__tree_node_destructorINS5_ISQ_EEEEEEDpOT_.exit
  %5 = phi ptr [ %.pre.i, %if.then.i ], [ %call.i.i.i.i.i, %_ZNSt3__16__treeINS_12__value_typeINS_12basic_stringIcNS_11char_traitsIcEENS_9allocatorIcEEEEN9benchmark7CounterEEENS_19__map_value_compareIS7_SA_NS_4lessIS7_EELb1EEENS5_ISA_EEE16__construct_nodeIJRKNS_4pairIKS7_S9_EEEEENS_10unique_ptrINS_11__tree_nodeISA_PvEENS_22__tree_node_destructorINS5_ISQ_EEEEEEDpOT_.exit ]
  %__pair1_.i.i7 = getelementptr inbounds %"class.std::__1::__tree", ptr %this, i64 0, i32 1
  %6 = load ptr, ptr %__pair1_.i.i7, align 8, !tbaa !84
  call void @_ZNSt3__127__tree_balance_after_insertB7v170000IPNS_16__tree_node_baseIPvEEEEvT_S5_(ptr noundef %6, ptr noundef %5) #26
  %__pair3_.i.i = getelementptr inbounds %"class.std::__1::__tree", ptr %this, i64 0, i32 2
  %7 = load i64, ptr %__pair3_.i.i, align 8, !tbaa !24
  %inc.i = add i64 %7, 1
  store i64 %inc.i, ptr %__pair3_.i.i, align 8, !tbaa !24
  br label %if.end

if.end:                                           ; preds = %_ZNSt3__110unique_ptrINS_11__tree_nodeINS_12__value_typeINS_12basic_stringIcNS_11char_traitsIcEENS_9allocatorIcEEEEN9benchmark7CounterEEEPvEENS_22__tree_node_destructorINS6_ISD_EEEEED2B7v170000Ev.exit, %entry
  %__inserted.0 = phi i8 [ 1, %_ZNSt3__110unique_ptrINS_11__tree_nodeINS_12__value_typeINS_12basic_stringIcNS_11char_traitsIcEENS_9allocatorIcEEEEN9benchmark7CounterEEEPvEENS_22__tree_node_destructorINS6_ISD_EEEEED2B7v170000Ev.exit ], [ 0, %entry ]
  %__r.0 = phi ptr [ %call.i.i.i.i.i, %_ZNSt3__110unique_ptrINS_11__tree_nodeINS_12__value_typeINS_12basic_stringIcNS_11char_traitsIcEENS_9allocatorIcEEEEN9benchmark7CounterEEEPvEENS_22__tree_node_destructorINS6_ISD_EEEEED2B7v170000Ev.exit ], [ %0, %entry ]
  call void @llvm.lifetime.end.p0(i64 8, ptr nonnull %__dummy) #26
  call void @llvm.lifetime.end.p0(i64 8, ptr nonnull %__parent) #26
  %.fca.0.insert = insertvalue { ptr, i8 } poison, ptr %__r.0, 0
  %.fca.1.insert = insertvalue { ptr, i8 } %.fca.0.insert, i8 %__inserted.0, 1
  ret { ptr, i8 } %.fca.1.insert
}

; Function Attrs: uwtable
define linkonce_odr hidden noundef nonnull align 8 dereferenceable(8) ptr @_ZNSt3__16__treeINS_12__value_typeINS_12basic_stringIcNS_11char_traitsIcEENS_9allocatorIcEEEEN9benchmark7CounterEEENS_19__map_value_compareIS7_SA_NS_4lessIS7_EELb1EEENS5_ISA_EEE12__find_equalIS7_EERPNS_16__tree_node_baseIPvEENS_21__tree_const_iteratorISA_PNS_11__tree_nodeISA_SJ_EElEERPNS_15__tree_end_nodeISL_EESM_RKT_(ptr noundef nonnull align 8 dereferenceable(24) %this, ptr %__hint.coerce, ptr noundef nonnull align 8 dereferenceable(8) %__parent, ptr noundef nonnull align 8 dereferenceable(8) %__dummy, ptr noundef nonnull align 8 dereferenceable(24) %__v) local_unnamed_addr #6 comdat align 2 personality ptr @__gxx_personality_v0 {
entry:
  %__pair1_.i.i = getelementptr inbounds %"class.std::__1::__tree", ptr %this, i64 0, i32 1
  %cmp.i = icmp eq ptr %__pair1_.i.i, %__hint.coerce
  br i1 %cmp.i, label %if.then, label %lor.rhs

lor.rhs:                                          ; preds = %entry
  %__value_.i = getelementptr inbounds %"class.std::__1::__tree_node", ptr %__hint.coerce, i64 0, i32 1
  %bf.load.i.i.i.i.i.i.i.i = load i8, ptr %__value_.i, align 8
  %bf.clear.i.i.i.i.i.i.i.i = and i8 %bf.load.i.i.i.i.i.i.i.i, 1
  %tobool.i.not.i.i.i.i.i.i.i = icmp eq i8 %bf.clear.i.i.i.i.i.i.i.i, 0
  %__size_.i.i.i.i.i.i.i = getelementptr inbounds %"class.std::__1::__tree_node", ptr %__hint.coerce, i64 0, i32 1, i32 0, i32 0, i32 0, i32 0, i32 0, i32 0, i32 0, i32 1
  %0 = load i64, ptr %__size_.i.i.i.i.i.i.i, align 8
  %bf.lshr.i.i.i.i.i.i.i = lshr i8 %bf.load.i.i.i.i.i.i.i.i, 1
  %conv.i.i.i.i.i.i.i = zext i8 %bf.lshr.i.i.i.i.i.i.i to i64
  %cond.i.i.i.i.i.i = select i1 %tobool.i.not.i.i.i.i.i.i.i, i64 %conv.i.i.i.i.i.i.i, i64 %0
  %bf.load.i.i.i.i.i.i.i = load i8, ptr %__v, align 8
  %bf.clear.i.i.i.i.i.i.i = and i8 %bf.load.i.i.i.i.i.i.i, 1
  %tobool.i.not.i.i.i.i.i.i = icmp eq i8 %bf.clear.i.i.i.i.i.i.i, 0
  %__size_.i.i.i3.i.i.i.i = getelementptr inbounds %"struct.std::__1::basic_string<char>::__long", ptr %__v, i64 0, i32 1
  %1 = load i64, ptr %__size_.i.i.i3.i.i.i.i, align 8
  %bf.lshr.i.i.i4.i.i.i.i = lshr i8 %bf.load.i.i.i.i.i.i.i, 1
  %conv.i.i.i5.i.i.i.i = zext i8 %bf.lshr.i.i.i4.i.i.i.i to i64
  %cond.i.i6.i.i.i.i = select i1 %tobool.i.not.i.i.i.i.i.i, i64 %conv.i.i.i5.i.i.i.i, i64 %1
  %cmp.i.i.i.i.i.i.i.i = icmp ult i64 %cond.i.i.i.i.i.i, %cond.i.i6.i.i.i.i
  %.sroa.speculated.i.i.i.i.i = tail call i64 @llvm.umin.i64(i64 %cond.i.i.i.i.i.i, i64 %cond.i.i6.i.i.i.i)
  %cmp.i.i.i.i.i.i = icmp eq i64 %.sroa.speculated.i.i.i.i.i, 0
  br i1 %cmp.i.i.i.i.i.i, label %if.end.i.i.i.i.i, label %_ZNSt3__111char_traitsIcE7compareEPKcS3_m.exit.i.i.i.i.i

_ZNSt3__111char_traitsIcE7compareEPKcS3_m.exit.i.i.i.i.i: ; preds = %lor.rhs
  %__data_.i4.i.i.i.i.i.i.i = getelementptr inbounds i8, ptr %__hint.coerce, i64 33
  %__data_.i.i.i.i.i.i.i.i = getelementptr inbounds %"class.std::__1::__tree_node", ptr %__hint.coerce, i64 0, i32 1, i32 0, i32 0, i32 0, i32 0, i32 0, i32 0, i32 0, i32 2
  %2 = load ptr, ptr %__data_.i.i.i.i.i.i.i.i, align 8
  %cond.i.i.i.i.i.i.i = select i1 %tobool.i.not.i.i.i.i.i.i.i, ptr %__data_.i4.i.i.i.i.i.i.i, ptr %2
  %__data_.i4.i.i.i7.i.i.i.i = getelementptr inbounds %"struct.std::__1::basic_string<char>::__short", ptr %__v, i64 0, i32 2
  %__data_.i.i.i.i8.i.i.i.i = getelementptr inbounds %"struct.std::__1::basic_string<char>::__long", ptr %__v, i64 0, i32 2
  %3 = load ptr, ptr %__data_.i.i.i.i8.i.i.i.i, align 8
  %cond.i.i.i9.i.i.i.i = select i1 %tobool.i.not.i.i.i.i.i.i, ptr %__data_.i4.i.i.i7.i.i.i.i, ptr %3
  %call.i.i.i.i.i.i.i = tail call i32 @memcmp(ptr noundef %cond.i.i.i9.i.i.i.i, ptr noundef %cond.i.i.i.i.i.i.i, i64 noundef %.sroa.speculated.i.i.i.i.i) #26
  %cmp.not.i.i.i.i.i = icmp eq i32 %call.i.i.i.i.i.i.i, 0
  br i1 %cmp.not.i.i.i.i.i, label %if.end.i.i.i.i.i.thread, label %_ZNKSt3__119__map_value_compareINS_12basic_stringIcNS_11char_traitsIcEENS_9allocatorIcEEEENS_12__value_typeIS6_N9benchmark7CounterEEENS_4lessIS6_EELb1EEclB7v170000ERKS6_RKSA_.exit

if.end.i.i.i.i.i:                                 ; preds = %lor.rhs
  %cmp7.i.i.i.i.i = icmp ult i64 %cond.i.i6.i.i.i.i, %cond.i.i.i.i.i.i
  br i1 %cmp7.i.i.i.i.i, label %if.then, label %if.end.i.i.i.i.i145

if.end.i.i.i.i.i.thread:                          ; preds = %_ZNSt3__111char_traitsIcE7compareEPKcS3_m.exit.i.i.i.i.i
  %cmp7.i.i.i.i.i212 = icmp ult i64 %cond.i.i6.i.i.i.i, %cond.i.i.i.i.i.i
  br i1 %cmp7.i.i.i.i.i212, label %if.then, label %_ZNSt3__111char_traitsIcE7compareEPKcS3_m.exit.i.i.i.i.i141

_ZNKSt3__119__map_value_compareINS_12basic_stringIcNS_11char_traitsIcEENS_9allocatorIcEEEENS_12__value_typeIS6_N9benchmark7CounterEEENS_4lessIS6_EELb1EEclB7v170000ERKS6_RKSA_.exit: ; preds = %_ZNSt3__111char_traitsIcE7compareEPKcS3_m.exit.i.i.i.i.i
  %cmp.i.i.i = icmp slt i32 %call.i.i.i.i.i.i.i, 0
  br i1 %cmp.i.i.i, label %if.then, label %_ZNSt3__111char_traitsIcE7compareEPKcS3_m.exit.i.i.i.i.i141

if.then:                                          ; preds = %if.end.i.i.i.i.i.thread, %if.end.i.i.i.i.i, %entry, %_ZNKSt3__119__map_value_compareINS_12basic_stringIcNS_11char_traitsIcEENS_9allocatorIcEEEENS_12__value_typeIS6_N9benchmark7CounterEEENS_4lessIS6_EELb1EEclB7v170000ERKS6_RKSA_.exit
  %4 = load ptr, ptr %this, align 8, !tbaa !26
  %cmp.i79 = icmp eq ptr %4, %__hint.coerce
  %.pre = load ptr, ptr %__hint.coerce, align 8, !tbaa !84
  br i1 %cmp.i79, label %if.then20, label %lor.rhs14

lor.rhs14:                                        ; preds = %if.then
  %cmp1.not.i.i = icmp eq ptr %.pre, null
  br i1 %cmp1.not.i.i, label %while.cond.i.i, label %while.cond.i.i.i

while.cond.i.i.i:                                 ; preds = %lor.rhs14, %while.cond.i.i.i
  %__x.addr.0.i.i.i = phi ptr [ %5, %while.cond.i.i.i ], [ %.pre, %lor.rhs14 ]
  %__right_.i.i.i = getelementptr inbounds %"class.std::__1::__tree_node_base", ptr %__x.addr.0.i.i.i, i64 0, i32 1
  %5 = load ptr, ptr %__right_.i.i.i, align 8, !tbaa !108
  %cmp1.not.i.i.i = icmp eq ptr %5, null
  br i1 %cmp1.not.i.i.i, label %_ZNSt3__121__tree_const_iteratorINS_12__value_typeINS_12basic_stringIcNS_11char_traitsIcEENS_9allocatorIcEEEEN9benchmark7CounterEEEPNS_11__tree_nodeISA_PvEElEmmB7v170000Ev.exit, label %while.cond.i.i.i, !llvm.loop !121

while.cond.i.i:                                   ; preds = %lor.rhs14, %while.cond.i.i
  %__xx.0.i.i = phi ptr [ %6, %while.cond.i.i ], [ %__hint.coerce, %lor.rhs14 ]
  %__parent_.i.i.i = getelementptr inbounds %"class.std::__1::__tree_node_base", ptr %__xx.0.i.i, i64 0, i32 2
  %6 = load ptr, ptr %__parent_.i.i.i, align 8, !tbaa !103
  %7 = load ptr, ptr %6, align 8, !tbaa !84
  %cmp.i12.i.i = icmp eq ptr %7, %__xx.0.i.i
  br i1 %cmp.i12.i.i, label %while.cond.i.i, label %_ZNSt3__121__tree_const_iteratorINS_12__value_typeINS_12basic_stringIcNS_11char_traitsIcEENS_9allocatorIcEEEEN9benchmark7CounterEEEPNS_11__tree_nodeISA_PvEElEmmB7v170000Ev.exit, !llvm.loop !122

_ZNSt3__121__tree_const_iteratorINS_12__value_typeINS_12basic_stringIcNS_11char_traitsIcEENS_9allocatorIcEEEEN9benchmark7CounterEEEPNS_11__tree_nodeISA_PvEElEmmB7v170000Ev.exit: ; preds = %while.cond.i.i.i, %while.cond.i.i
  %retval.0.i.i = phi ptr [ %6, %while.cond.i.i ], [ %__x.addr.0.i.i.i, %while.cond.i.i.i ]
  %__value_.i81 = getelementptr inbounds %"class.std::__1::__tree_node", ptr %retval.0.i.i, i64 0, i32 1
  %bf.load.i.i.i.i.i.i.i.i82 = load i8, ptr %__v, align 8
  %bf.clear.i.i.i.i.i.i.i.i83 = and i8 %bf.load.i.i.i.i.i.i.i.i82, 1
  %tobool.i.not.i.i.i.i.i.i.i84 = icmp eq i8 %bf.clear.i.i.i.i.i.i.i.i83, 0
  %__size_.i.i.i.i.i.i.i85 = getelementptr inbounds %"struct.std::__1::basic_string<char>::__long", ptr %__v, i64 0, i32 1
  %8 = load i64, ptr %__size_.i.i.i.i.i.i.i85, align 8
  %bf.lshr.i.i.i.i.i.i.i86 = lshr i8 %bf.load.i.i.i.i.i.i.i.i82, 1
  %conv.i.i.i.i.i.i.i87 = zext i8 %bf.lshr.i.i.i.i.i.i.i86 to i64
  %cond.i.i.i.i.i.i88 = select i1 %tobool.i.not.i.i.i.i.i.i.i84, i64 %conv.i.i.i.i.i.i.i87, i64 %8
  %bf.load.i.i.i.i.i.i.i89 = load i8, ptr %__value_.i81, align 8
  %bf.clear.i.i.i.i.i.i.i90 = and i8 %bf.load.i.i.i.i.i.i.i89, 1
  %tobool.i.not.i.i.i.i.i.i91 = icmp eq i8 %bf.clear.i.i.i.i.i.i.i90, 0
  %__size_.i.i.i3.i.i.i.i92 = getelementptr inbounds %"class.std::__1::__tree_node", ptr %retval.0.i.i, i64 0, i32 1, i32 0, i32 0, i32 0, i32 0, i32 0, i32 0, i32 0, i32 1
  %9 = load i64, ptr %__size_.i.i.i3.i.i.i.i92, align 8
  %bf.lshr.i.i.i4.i.i.i.i93 = lshr i8 %bf.load.i.i.i.i.i.i.i89, 1
  %conv.i.i.i5.i.i.i.i94 = zext i8 %bf.lshr.i.i.i4.i.i.i.i93 to i64
  %cond.i.i6.i.i.i.i95 = select i1 %tobool.i.not.i.i.i.i.i.i91, i64 %conv.i.i.i5.i.i.i.i94, i64 %9
  %.sroa.speculated.i.i.i.i.i97 = tail call i64 @llvm.umin.i64(i64 %cond.i.i.i.i.i.i88, i64 %cond.i.i6.i.i.i.i95)
  %cmp.i.i.i.i.i.i98 = icmp eq i64 %.sroa.speculated.i.i.i.i.i97, 0
  br i1 %cmp.i.i.i.i.i.i98, label %if.end.i.i.i.i.i111, label %_ZNSt3__111char_traitsIcE7compareEPKcS3_m.exit.i.i.i.i.i107

_ZNSt3__111char_traitsIcE7compareEPKcS3_m.exit.i.i.i.i.i107: ; preds = %_ZNSt3__121__tree_const_iteratorINS_12__value_typeINS_12basic_stringIcNS_11char_traitsIcEENS_9allocatorIcEEEEN9benchmark7CounterEEEPNS_11__tree_nodeISA_PvEElEmmB7v170000Ev.exit
  %__data_.i4.i.i.i.i.i.i.i99 = getelementptr inbounds %"struct.std::__1::basic_string<char>::__short", ptr %__v, i64 0, i32 2
  %__data_.i.i.i.i.i.i.i.i100 = getelementptr inbounds %"struct.std::__1::basic_string<char>::__long", ptr %__v, i64 0, i32 2
  %10 = load ptr, ptr %__data_.i.i.i.i.i.i.i.i100, align 8
  %cond.i.i.i.i.i.i.i101 = select i1 %tobool.i.not.i.i.i.i.i.i.i84, ptr %__data_.i4.i.i.i.i.i.i.i99, ptr %10
  %__data_.i4.i.i.i7.i.i.i.i102 = getelementptr inbounds i8, ptr %retval.0.i.i, i64 33
  %__data_.i.i.i.i8.i.i.i.i103 = getelementptr inbounds %"class.std::__1::__tree_node", ptr %retval.0.i.i, i64 0, i32 1, i32 0, i32 0, i32 0, i32 0, i32 0, i32 0, i32 0, i32 2
  %11 = load ptr, ptr %__data_.i.i.i.i8.i.i.i.i103, align 8
  %cond.i.i.i9.i.i.i.i104 = select i1 %tobool.i.not.i.i.i.i.i.i91, ptr %__data_.i4.i.i.i7.i.i.i.i102, ptr %11
  %call.i.i.i.i.i.i.i105 = tail call i32 @memcmp(ptr noundef %cond.i.i.i9.i.i.i.i104, ptr noundef %cond.i.i.i.i.i.i.i101, i64 noundef %.sroa.speculated.i.i.i.i.i97) #26
  %cmp.not.i.i.i.i.i106 = icmp eq i32 %call.i.i.i.i.i.i.i105, 0
  br i1 %cmp.not.i.i.i.i.i106, label %if.end.i.i.i.i.i111, label %_ZNKSt3__119__map_value_compareINS_12basic_stringIcNS_11char_traitsIcEENS_9allocatorIcEEEENS_12__value_typeIS6_N9benchmark7CounterEEENS_4lessIS6_EELb1EEclB7v170000ERKSA_RKS6_.exit

if.end.i.i.i.i.i111:                              ; preds = %_ZNSt3__111char_traitsIcE7compareEPKcS3_m.exit.i.i.i.i.i107, %_ZNSt3__121__tree_const_iteratorINS_12__value_typeINS_12basic_stringIcNS_11char_traitsIcEENS_9allocatorIcEEEEN9benchmark7CounterEEEPNS_11__tree_nodeISA_PvEElEmmB7v170000Ev.exit
  %cmp7.i.i.i.i.i108 = icmp ult i64 %cond.i.i6.i.i.i.i95, %cond.i.i.i.i.i.i88
  br i1 %cmp7.i.i.i.i.i108, label %if.then20, label %if.end

_ZNKSt3__119__map_value_compareINS_12basic_stringIcNS_11char_traitsIcEENS_9allocatorIcEEEENS_12__value_typeIS6_N9benchmark7CounterEEENS_4lessIS6_EELb1EEclB7v170000ERKSA_RKS6_.exit: ; preds = %_ZNSt3__111char_traitsIcE7compareEPKcS3_m.exit.i.i.i.i.i107
  %cmp.i.i.i113 = icmp slt i32 %call.i.i.i.i.i.i.i105, 0
  br i1 %cmp.i.i.i113, label %if.then20, label %if.end

if.then20:                                        ; preds = %if.then, %if.end.i.i.i.i.i111, %_ZNKSt3__119__map_value_compareINS_12basic_stringIcNS_11char_traitsIcEENS_9allocatorIcEEEENS_12__value_typeIS6_N9benchmark7CounterEEENS_4lessIS6_EELb1EEclB7v170000ERKSA_RKS6_.exit
  %__prior.sroa.0.0 = phi ptr [ %retval.0.i.i, %_ZNKSt3__119__map_value_compareINS_12basic_stringIcNS_11char_traitsIcEENS_9allocatorIcEEEENS_12__value_typeIS6_N9benchmark7CounterEEENS_4lessIS6_EELb1EEclB7v170000ERKSA_RKS6_.exit ], [ %retval.0.i.i, %if.end.i.i.i.i.i111 ], [ %__hint.coerce, %if.then ]
  %cmp = icmp eq ptr %.pre, null
  br i1 %cmp, label %if.then21, label %if.else

if.then21:                                        ; preds = %if.then20
  store ptr %__hint.coerce, ptr %__parent, align 8, !tbaa !26
  br label %return

if.else:                                          ; preds = %if.then20
  store ptr %__prior.sroa.0.0, ptr %__parent, align 8, !tbaa !26
  %__right_ = getelementptr inbounds %"class.std::__1::__tree_node_base", ptr %__prior.sroa.0.0, i64 0, i32 1
  br label %return

if.end:                                           ; preds = %if.end.i.i.i.i.i111, %_ZNKSt3__119__map_value_compareINS_12basic_stringIcNS_11char_traitsIcEENS_9allocatorIcEEEENS_12__value_typeIS6_N9benchmark7CounterEEENS_4lessIS6_EELb1EEclB7v170000ERKSA_RKS6_.exit
  %call26 = tail call noundef nonnull align 8 dereferenceable(8) ptr @_ZNSt3__16__treeINS_12__value_typeINS_12basic_stringIcNS_11char_traitsIcEENS_9allocatorIcEEEEN9benchmark7CounterEEENS_19__map_value_compareIS7_SA_NS_4lessIS7_EELb1EEENS5_ISA_EEE12__find_equalIS7_EERPNS_16__tree_node_baseIPvEERPNS_15__tree_end_nodeISL_EERKT_(ptr noundef nonnull align 8 dereferenceable(24) %this, ptr noundef nonnull align 8 dereferenceable(8) %__parent, ptr noundef nonnull align 8 dereferenceable(24) %__v)
  br label %return

_ZNSt3__111char_traitsIcE7compareEPKcS3_m.exit.i.i.i.i.i141: ; preds = %_ZNKSt3__119__map_value_compareINS_12basic_stringIcNS_11char_traitsIcEENS_9allocatorIcEEEENS_12__value_typeIS6_N9benchmark7CounterEEENS_4lessIS6_EELb1EEclB7v170000ERKS6_RKSA_.exit, %if.end.i.i.i.i.i.thread
  %call.i.i.i.i.i.i.i139 = tail call i32 @memcmp(ptr noundef %cond.i.i.i.i.i.i.i, ptr noundef %cond.i.i.i9.i.i.i.i, i64 noundef %.sroa.speculated.i.i.i.i.i) #26
  %cmp.not.i.i.i.i.i140 = icmp eq i32 %call.i.i.i.i.i.i.i139, 0
  br i1 %cmp.not.i.i.i.i.i140, label %if.end.i.i.i.i.i145, label %_ZNKSt3__119__map_value_compareINS_12basic_stringIcNS_11char_traitsIcEENS_9allocatorIcEEEENS_12__value_typeIS6_N9benchmark7CounterEEENS_4lessIS6_EELb1EEclB7v170000ERKSA_RKS6_.exit148

if.end.i.i.i.i.i145:                              ; preds = %if.end.i.i.i.i.i, %_ZNSt3__111char_traitsIcE7compareEPKcS3_m.exit.i.i.i.i.i141
  br i1 %cmp.i.i.i.i.i.i.i.i, label %if.then31, label %if.end62

_ZNKSt3__119__map_value_compareINS_12basic_stringIcNS_11char_traitsIcEENS_9allocatorIcEEEENS_12__value_typeIS6_N9benchmark7CounterEEENS_4lessIS6_EELb1EEclB7v170000ERKSA_RKS6_.exit148: ; preds = %_ZNSt3__111char_traitsIcE7compareEPKcS3_m.exit.i.i.i.i.i141
  %cmp.i.i.i147 = icmp slt i32 %call.i.i.i.i.i.i.i139, 0
  br i1 %cmp.i.i.i147, label %if.then31, label %if.end62

if.then31:                                        ; preds = %if.end.i.i.i.i.i145, %_ZNKSt3__119__map_value_compareINS_12basic_stringIcNS_11char_traitsIcEENS_9allocatorIcEEEENS_12__value_typeIS6_N9benchmark7CounterEEENS_4lessIS6_EELb1EEclB7v170000ERKSA_RKS6_.exit148
  %__right_.i.i.i.i.i = getelementptr inbounds %"class.std::__1::__tree_node_base", ptr %__hint.coerce, i64 0, i32 1
  %12 = load ptr, ptr %__right_.i.i.i.i.i, align 8, !tbaa !108
  %cmp1.not.i.i.i.i.i = icmp eq ptr %12, null
  br i1 %cmp1.not.i.i.i.i.i, label %while.cond.i.i.i.i.i, label %while.cond.i.i.i.i.i.i

while.cond.i.i.i.i.i.i:                           ; preds = %if.then31, %while.cond.i.i.i.i.i.i
  %__x.addr.0.i.i.i.i.i.i = phi ptr [ %13, %while.cond.i.i.i.i.i.i ], [ %12, %if.then31 ]
  %13 = load ptr, ptr %__x.addr.0.i.i.i.i.i.i, align 8, !tbaa !84
  %cmp1.not.i.i.i.i.i.i = icmp eq ptr %13, null
  br i1 %cmp1.not.i.i.i.i.i.i, label %_ZNSt3__121__tree_const_iteratorINS_12__value_typeINS_12basic_stringIcNS_11char_traitsIcEENS_9allocatorIcEEEEN9benchmark7CounterEEEPNS_11__tree_nodeISA_PvEElEppB7v170000Ev.exit.i.i.i, label %while.cond.i.i.i.i.i.i, !llvm.loop !109

while.cond.i.i.i.i.i:                             ; preds = %if.then31, %while.cond.i.i.i.i.i
  %__x.addr.0.i.i.i.i.i = phi ptr [ %14, %while.cond.i.i.i.i.i ], [ %__hint.coerce, %if.then31 ]
  %__parent_.i.i.i.i.i.i = getelementptr inbounds %"class.std::__1::__tree_node_base", ptr %__x.addr.0.i.i.i.i.i, i64 0, i32 2
  %14 = load ptr, ptr %__parent_.i.i.i.i.i.i, align 8, !tbaa !103
  %15 = load ptr, ptr %14, align 8, !tbaa !84
  %cmp.i10.i.i.i.i.i = icmp eq ptr %15, %__x.addr.0.i.i.i.i.i
