; ModuleID = '/local/mnt2/workspace2/mnadeem/llvm/llvm-test-suite/MicroBenchmarks/libs/benchmark/test/user_counters_test.cc'
source_filename = "/local/mnt2/workspace2/mnadeem/llvm/llvm-test-suite/MicroBenchmarks/libs/benchmark/test/user_counters_test.cc"
target datalayout = "e-m:e-p270:32:32-p271:32:32-p272:64:64-i64:64-f80:128-n8:16:32:64-S128"
target triple = "x86_64-unknown-linux-gnu"

%"class.benchmark::internal::LogType" = type { ptr }
%"class.std::__1::basic_ostream" = type { ptr, %"class.std::__1::basic_ios.base" }
%"class.std::__1::basic_ios.base" = type <{ %"class.std::__1::ios_base", ptr, i32 }>
%"class.std::__1::ios_base" = type { ptr, i32, i64, i64, i32, i32, ptr, ptr, ptr, ptr, i64, i64, ptr, i64, i64, ptr, i64, i64 }
%"class.std::__1::locale::id" = type <{ %"struct.std::__1::once_flag", i32, [4 x i8] }>
%"struct.std::__1::once_flag" = type { i64 }
%"class.std::__1::basic_string" = type { %"class.std::__1::__compressed_pair" }
%"class.std::__1::__compressed_pair" = type { %"struct.std::__1::__compressed_pair_elem" }
%"struct.std::__1::__compressed_pair_elem" = type { %"struct.std::__1::basic_string<char>::__rep" }
%"struct.std::__1::basic_string<char>::__rep" = type { %union.anon }
%union.anon = type { %"struct.std::__1::basic_string<char>::__long" }
%"struct.std::__1::basic_string<char>::__long" = type { %struct.anon, i64, ptr }
%struct.anon = type { i64 }
%"class.benchmark::State" = type { i64, i64, i64, i8, i8, i8, %"class.std::__1::vector", i64, %"class.std::__1::map", i32, i32, ptr, ptr, ptr }
%"class.std::__1::vector" = type { ptr, ptr, %"class.std::__1::__compressed_pair.3" }
%"class.std::__1::__compressed_pair.3" = type { %"struct.std::__1::__compressed_pair_elem.4" }
%"struct.std::__1::__compressed_pair_elem.4" = type { ptr }
%"class.std::__1::map" = type { %"class.std::__1::__tree" }
%"class.std::__1::__tree" = type { ptr, %"class.std::__1::__compressed_pair.9", %"class.std::__1::__compressed_pair.15" }
%"class.std::__1::__compressed_pair.9" = type { %"struct.std::__1::__compressed_pair_elem.10" }
%"struct.std::__1::__compressed_pair_elem.10" = type { %"class.std::__1::__tree_end_node" }
%"class.std::__1::__tree_end_node" = type { ptr }
%"class.std::__1::__compressed_pair.15" = type { %"struct.std::__1::__compressed_pair_elem.16" }
%"struct.std::__1::__compressed_pair_elem.16" = type { i64 }
%"struct.std::__1::basic_string<char>::__short" = type { %struct.anon.0, [0 x i8], [23 x i8] }
%struct.anon.0 = type { i8 }
%"class.std::__1::__tree_node" = type { %"class.std::__1::__tree_node_base.base", %"struct.std::__1::__value_type" }
%"class.std::__1::__tree_node_base.base" = type <{ %"class.std::__1::__tree_end_node", ptr, ptr, i8 }>
%"struct.std::__1::__value_type" = type { %"struct.std::__1::pair.64" }
%"struct.std::__1::pair.64" = type { %"class.std::__1::basic_string", %"class.benchmark::Counter" }
%"class.benchmark::Counter" = type { double, i32, i32 }
%"class.std::__1::__tree_node_base" = type <{ %"class.std::__1::__tree_end_node", ptr, ptr, i8, [7 x i8] }>
%"class.benchmark::internal::CheckHandler" = type { ptr }
%"class.std::__1::locale" = type { ptr }
%"class.std::__1::basic_stringstream" = type { %"class.std::__1::basic_iostream.base", %"class.std::__1::basic_stringbuf", %"class.std::__1::basic_ios.base" }
%"class.std::__1::basic_iostream.base" = type { %"class.std::__1::basic_istream.base", %"class.std::__1::basic_ostream.base" }
%"class.std::__1::basic_istream.base" = type { ptr, i64 }
%"class.std::__1::basic_ostream.base" = type { ptr }
%"class.std::__1::basic_stringbuf" = type <{ %"class.std::__1::basic_streambuf", %"class.std::__1::basic_string", ptr, i32, [4 x i8] }>
%"class.std::__1::basic_streambuf" = type { ptr, %"class.std::__1::locale", ptr, ptr, ptr, ptr, ptr, ptr }
%"class.std::__1::basic_istream" = type { ptr, i64, %"class.std::__1::basic_ios.base" }
%"class.std::__1::basic_ostream<char>::sentry" = type { i8, ptr }
%"class.std::__1::basic_ios" = type <{ %"class.std::__1::ios_base", ptr, i32, [4 x i8] }>
%"class.std::__1::__function::__func" = type { %"class.std::__1::__function::__base", %"class.std::__1::__function::__alloc_func" }
%"class.std::__1::__function::__base" = type { ptr }
%"class.std::__1::__function::__alloc_func" = type { %"class.std::__1::__compressed_pair.78" }
%"class.std::__1::__compressed_pair.78" = type { %"struct.std::__1::__compressed_pair_elem.79" }
%"struct.std::__1::__compressed_pair_elem.79" = type { ptr }
%"class.std::type_info" = type { ptr, ptr }
%struct.Results = type { %"class.std::__1::basic_string", %"class.std::__1::map.53" }
%"class.std::__1::map.53" = type { %"class.std::__1::__tree.54" }
%"class.std::__1::__tree.54" = type { ptr, %"class.std::__1::__compressed_pair.55", %"class.std::__1::__compressed_pair.60" }
%"class.std::__1::__compressed_pair.55" = type { %"struct.std::__1::__compressed_pair_elem.10" }
%"class.std::__1::__compressed_pair.60" = type { %"struct.std::__1::__compressed_pair_elem.16" }
%"class.std::__1::__tree_node.102" = type { %"class.std::__1::__tree_node_base.base", %"struct.std::__1::__value_type.103" }
%"struct.std::__1::__value_type.103" = type { %"struct.std::__1::pair.101" }
%"struct.std::__1::pair.101" = type { %"class.std::__1::basic_string", %"class.std::__1::basic_string" }
%"class.std::__1::function" = type { %"class.std::__1::__function::__value_func" }
%"class.std::__1::__function::__value_func" = type { %"struct.std::__1::aligned_storage<24>::type", ptr, [8 x i8] }
%"struct.std::__1::aligned_storage<24>::type" = type { [32 x i8] }
%struct.TestCase = type { %"class.std::__1::basic_string", i32, %"class.std::__1::basic_string", %"class.std::__1::shared_ptr" }
%"class.std::__1::shared_ptr" = type { ptr, ptr }
%"class.std::__1::__shared_count" = type { ptr, i64 }
%"class.benchmark::internal::FunctionBenchmark" = type { %"class.benchmark::internal::Benchmark", ptr }
%"class.benchmark::internal::Benchmark" = type { ptr, %"class.std::__1::basic_string", i32, %"class.std::__1::vector.18", %"class.std::__1::vector.25", i32, i8, i32, double, i64, i32, i8, i8, i8, i32, ptr, %"class.std::__1::vector.32", %"class.std::__1::vector.46", ptr, ptr }
%"class.std::__1::vector.18" = type { ptr, ptr, %"class.std::__1::__compressed_pair.19" }
%"class.std::__1::__compressed_pair.19" = type { %"struct.std::__1::__compressed_pair_elem.20" }
%"struct.std::__1::__compressed_pair_elem.20" = type { ptr }
%"class.std::__1::vector.25" = type { ptr, ptr, %"class.std::__1::__compressed_pair.26" }
%"class.std::__1::__compressed_pair.26" = type { %"struct.std::__1::__compressed_pair_elem.27" }
%"struct.std::__1::__compressed_pair_elem.27" = type { ptr }
%"class.std::__1::vector.32" = type { ptr, ptr, %"class.std::__1::__compressed_pair.40" }
%"class.std::__1::__compressed_pair.40" = type { %"struct.std::__1::__compressed_pair_elem.41" }
%"struct.std::__1::__compressed_pair_elem.41" = type { ptr }
%"class.std::__1::vector.46" = type { ptr, ptr, %"class.std::__1::__compressed_pair.47" }
%"class.std::__1::__compressed_pair.47" = type { %"struct.std::__1::__compressed_pair_elem.48" }
%"struct.std::__1::__compressed_pair_elem.48" = type { ptr }

$_ZN9benchmark8internal12CheckHandlerC2EPKcS3_S3_i = comdat any

$_ZN9benchmark8internal12CheckHandlerD2Ev = comdat any

$__clang_call_terminate = comdat any

$_ZNK7Results5GetAsIdEET_PKc = comdat any

$_ZNSt3__124__put_character_sequenceB7v170000IcNS_11char_traitsIcEEEERNS_13basic_ostreamIT_T0_EES7_PKS4_m = comdat any

$_ZNSt3__116__pad_and_outputB7v170000IcNS_11char_traitsIcEEEENS_19ostreambuf_iteratorIT_T0_EES6_PKS4_S8_S8_RNS_8ios_baseES4_ = comdat any

$_ZNKSt3__112basic_stringIcNS_11char_traitsIcEENS_9allocatorIcEEE20__throw_length_errorB7v170000Ev = comdat any

$_ZNSt3__120__throw_length_errorB7v170000EPKc = comdat any

$_ZNSt12length_errorC2B7v170000EPKc = comdat any

$_ZN9benchmark8internal16CallAbortHandlerEv = comdat any

$_ZNSt3__16__treeINS_12__value_typeINS_12basic_stringIcNS_11char_traitsIcEENS_9allocatorIcEEEEN9benchmark7CounterEEENS_19__map_value_compareIS7_SA_NS_4lessIS7_EELb1EEENS5_ISA_EEE12__find_equalIS7_EERPNS_16__tree_node_baseIPvEERPNS_15__tree_end_nodeISL_EERKT_ = comdat any

$_ZNSt3__127__tree_balance_after_insertB7v170000IPNS_16__tree_node_baseIPvEEEEvT_S5_ = comdat any

$_ZNSt3__110__function6__baseIFvRK7ResultsEED2Ev = comdat any

$_ZNSt3__110__function6__funcIPFvRK7ResultsENS_9allocatorIS6_EES5_ED0Ev = comdat any

$_ZNKSt3__110__function6__funcIPFvRK7ResultsENS_9allocatorIS6_EES5_E7__cloneEv = comdat any

$_ZNKSt3__110__function6__funcIPFvRK7ResultsENS_9allocatorIS6_EES5_E7__cloneEPNS0_6__baseIS5_EE = comdat any

$_ZNSt3__110__function6__funcIPFvRK7ResultsENS_9allocatorIS6_EES5_E7destroyEv = comdat any

$_ZNSt3__110__function6__funcIPFvRK7ResultsENS_9allocatorIS6_EES5_E18destroy_deallocateEv = comdat any

$_ZNSt3__110__function6__funcIPFvRK7ResultsENS_9allocatorIS6_EES5_EclES4_ = comdat any

$_ZNKSt3__110__function6__funcIPFvRK7ResultsENS_9allocatorIS6_EES5_E6targetERKSt9type_info = comdat any

$_ZNKSt3__110__function6__funcIPFvRK7ResultsENS_9allocatorIS6_EES5_E11target_typeEv = comdat any

$_ZNK7Results3GetEPKc = comdat any

$_ZNSt3__118basic_stringstreamIcNS_11char_traitsIcEENS_9allocatorIcEEED1Ev = comdat any

$_ZNKSt3__16__treeINS_12__value_typeINS_12basic_stringIcNS_11char_traitsIcEENS_9allocatorIcEEEES7_EENS_19__map_value_compareIS7_S8_NS_4lessIS7_EELb1EEENS5_IS8_EEE4findIS7_EENS_21__tree_const_iteratorIS8_PNS_11__tree_nodeIS8_PvEElEERKT_ = comdat any

$_ZNSt3__118basic_stringstreamIcNS_11char_traitsIcEENS_9allocatorIcEEED0Ev = comdat any

$_ZThn16_NSt3__118basic_stringstreamIcNS_11char_traitsIcEENS_9allocatorIcEEED1Ev = comdat any

$_ZThn16_NSt3__118basic_stringstreamIcNS_11char_traitsIcEENS_9allocatorIcEEED0Ev = comdat any

$_ZTv0_n24_NSt3__118basic_stringstreamIcNS_11char_traitsIcEENS_9allocatorIcEEED1Ev = comdat any

$_ZTv0_n24_NSt3__118basic_stringstreamIcNS_11char_traitsIcEENS_9allocatorIcEEED0Ev = comdat any

$_ZNSt3__115basic_stringbufIcNS_11char_traitsIcEENS_9allocatorIcEEED2Ev = comdat any

$_ZNSt3__115basic_stringbufIcNS_11char_traitsIcEENS_9allocatorIcEEED0Ev = comdat any

$_ZNSt3__115basic_stringbufIcNS_11char_traitsIcEENS_9allocatorIcEEE7seekoffExNS_8ios_base7seekdirEj = comdat any

$_ZNSt3__115basic_stringbufIcNS_11char_traitsIcEENS_9allocatorIcEEE7seekposENS_4fposI11__mbstate_tEEj = comdat any

$_ZNSt3__115basic_stringbufIcNS_11char_traitsIcEENS_9allocatorIcEEE9underflowEv = comdat any

$_ZNSt3__115basic_stringbufIcNS_11char_traitsIcEENS_9allocatorIcEEE9pbackfailEi = comdat any

$_ZNSt3__115basic_stringbufIcNS_11char_traitsIcEENS_9allocatorIcEEE8overflowEi = comdat any

$_ZZN9benchmark8internal18GetNullLogInstanceEvE3log = comdat any

$_ZGVZN9benchmark8internal18GetNullLogInstanceEvE3log = comdat any

$_ZZN9benchmark8internal19GetErrorLogInstanceEvE3log = comdat any

$_ZGVZN9benchmark8internal19GetErrorLogInstanceEvE3log = comdat any

$_ZTVNSt3__110__function6__funcIPFvRK7ResultsENS_9allocatorIS6_EES5_EE = comdat any

$_ZTSNSt3__110__function6__funcIPFvRK7ResultsENS_9allocatorIS6_EES5_EE = comdat any

$_ZTSNSt3__110__function6__baseIFvRK7ResultsEEE = comdat any

$_ZTINSt3__110__function6__baseIFvRK7ResultsEEE = comdat any

$_ZTINSt3__110__function6__funcIPFvRK7ResultsENS_9allocatorIS6_EES5_EE = comdat any

$_ZTSPFvRK7ResultsE = comdat any

$_ZTSFvRK7ResultsE = comdat any

$_ZTIFvRK7ResultsE = comdat any

$_ZTIPFvRK7ResultsE = comdat any

$_ZTVNSt3__118basic_stringstreamIcNS_11char_traitsIcEENS_9allocatorIcEEEE = comdat any

$_ZTTNSt3__118basic_stringstreamIcNS_11char_traitsIcEENS_9allocatorIcEEEE = comdat any

$_ZTCNSt3__118basic_stringstreamIcNS_11char_traitsIcEENS_9allocatorIcEEEE0_NS_14basic_iostreamIcS2_EE = comdat any

$_ZTCNSt3__118basic_stringstreamIcNS_11char_traitsIcEENS_9allocatorIcEEEE0_NS_13basic_istreamIcS2_EE = comdat any

$_ZTCNSt3__118basic_stringstreamIcNS_11char_traitsIcEENS_9allocatorIcEEEE16_NS_13basic_ostreamIcS2_EE = comdat any

$_ZTSNSt3__118basic_stringstreamIcNS_11char_traitsIcEENS_9allocatorIcEEEE = comdat any

$_ZTINSt3__118basic_stringstreamIcNS_11char_traitsIcEENS_9allocatorIcEEEE = comdat any

$_ZTVNSt3__115basic_stringbufIcNS_11char_traitsIcEENS_9allocatorIcEEEE = comdat any

$_ZTSNSt3__115basic_stringbufIcNS_11char_traitsIcEENS_9allocatorIcEEEE = comdat any

$_ZTINSt3__115basic_stringbufIcNS_11char_traitsIcEENS_9allocatorIcEEEE = comdat any

@dummy16 = hidden local_unnamed_addr global i32 0, align 4
@.str = private unnamed_addr constant [7 x i8] c"^[-]+$\00", align 1
@.str.2 = private unnamed_addr constant [57 x i8] c"^Benchmark %s Time %s CPU %s Iterations UserCounters...$\00", align 1
@dummy17 = hidden local_unnamed_addr global i32 0, align 4
@.str.4 = private unnamed_addr constant [24 x i8] c"%csv_header,\22bar\22,\22foo\22\00", align 1
@.str.5 = private unnamed_addr constant [4 x i8] c"foo\00", align 1
@.str.6 = private unnamed_addr constant [4 x i8] c"bar\00", align 1
@_ZL27benchmark_uniq_2_benchmark_ = internal unnamed_addr global ptr null, align 8
@.str.8 = private unnamed_addr constant [19 x i8] c"BM_Counters_Simple\00", align 1
@dummy33 = hidden local_unnamed_addr global i32 0, align 4
@.str.10 = private unnamed_addr constant [63 x i8] c"^BM_Counters_Simple %console_report bar=%hrfloat foo=%hrfloat$\00", align 1
@dummy48 = hidden local_unnamed_addr global i32 0, align 4
@.str.12 = private unnamed_addr constant [31 x i8] c"\22name\22: \22BM_Counters_Simple\22,$\00", align 1
@.str.13 = private unnamed_addr constant [20 x i8] c"\22family_index\22: 0,$\00", align 1
@.str.14 = private unnamed_addr constant [33 x i8] c"\22per_family_instance_index\22: 0,$\00", align 1
@.str.15 = private unnamed_addr constant [35 x i8] c"\22run_name\22: \22BM_Counters_Simple\22,$\00", align 1
@.str.16 = private unnamed_addr constant [26 x i8] c"\22run_type\22: \22iteration\22,$\00", align 1
@.str.17 = private unnamed_addr constant [19 x i8] c"\22repetitions\22: 1,$\00", align 1
@.str.18 = private unnamed_addr constant [24 x i8] c"\22repetition_index\22: 0,$\00", align 1
@.str.19 = private unnamed_addr constant [15 x i8] c"\22threads\22: 1,$\00", align 1
@.str.20 = private unnamed_addr constant [21 x i8] c"\22iterations\22: %int,$\00", align 1
@.str.21 = private unnamed_addr constant [22 x i8] c"\22real_time\22: %float,$\00", align 1
@.str.22 = private unnamed_addr constant [21 x i8] c"\22cpu_time\22: %float,$\00", align 1
@.str.23 = private unnamed_addr constant [20 x i8] c"\22time_unit\22: \22ns\22,$\00", align 1
@.str.24 = private unnamed_addr constant [16 x i8] c"\22bar\22: %float,$\00", align 1
@.str.25 = private unnamed_addr constant [15 x i8] c"\22foo\22: %float$\00", align 1
@.str.26 = private unnamed_addr constant [2 x i8] c"}\00", align 1
@dummy49 = hidden local_unnamed_addr global i32 0, align 4
@.str.28 = private unnamed_addr constant [49 x i8] c"^\22BM_Counters_Simple\22,%csv_report,%float,%float$\00", align 1
@.str.29 = private unnamed_addr constant [40 x i8] c"(e.GetCounterAs< int >(\22foo\22)) == ((1))\00", align 1
@.str.30 = private unnamed_addr constant [110 x i8] c"/local/mnt2/workspace2/mnadeem/llvm/llvm-test-suite/MicroBenchmarks/libs/benchmark/test/user_counters_test.cc\00", align 1
@__func__._Z11CheckSimpleRK7Results = private unnamed_addr constant [12 x i8] c"CheckSimple\00", align 1
@.str.31 = private unnamed_addr constant [2 x i8] c"\0A\00", align 1
@.str.32 = private unnamed_addr constant [2 x i8] c":\00", align 1
@.str.33 = private unnamed_addr constant [3 x i8] c": \00", align 1
@.str.34 = private unnamed_addr constant [3 x i8] c":\0A\00", align 1
@.str.35 = private unnamed_addr constant [11 x i8] c"expected (\00", align 1
@.str.36 = private unnamed_addr constant [4 x i8] c"int\00", align 1
@.str.37 = private unnamed_addr constant [2 x i8] c")\00", align 1
@.str.38 = private unnamed_addr constant [2 x i8] c"=\00", align 1
@.str.39 = private unnamed_addr constant [14 x i8] c" to be EQ to \00", align 1
@.str.40 = private unnamed_addr constant [85 x i8] c"std::fabs((e.GetCounterAs< double >(\22bar\22)) - ((2. * its))) < ((0.001) * (2. * its))\00", align 1
@.str.41 = private unnamed_addr constant [7 x i8] c"double\00", align 1
@.str.42 = private unnamed_addr constant [19 x i8] c"with tolerance of \00", align 1
@.str.43 = private unnamed_addr constant [3 x i8] c" (\00", align 1
@.str.44 = private unnamed_addr constant [5 x i8] c"%), \00", align 1
@.str.45 = private unnamed_addr constant [15 x i8] c"but delta was \00", align 1
@.str.46 = private unnamed_addr constant [3 x i8] c"%)\00", align 1
@dummy58 = hidden local_unnamed_addr global i64 0, align 8
@_ZN12_GLOBAL__N_110num_calls1E = internal unnamed_addr global i32 0, align 4
@_ZL27benchmark_uniq_3_benchmark_ = internal unnamed_addr global ptr null, align 8
@.str.49 = private unnamed_addr constant [34 x i8] c"BM_Counters_WithBytesAndItemsPSec\00", align 1
@dummy80 = hidden local_unnamed_addr global i32 0, align 4
@.str.51 = private unnamed_addr constant [134 x i8] c"^BM_Counters_WithBytesAndItemsPSec %console_report bar=%hrfloat bytes_per_second=%hrfloat/s foo=%hrfloat items_per_second=%hrfloat/s$\00", align 1
@dummy98 = hidden local_unnamed_addr global i32 0, align 4
@.str.53 = private unnamed_addr constant [46 x i8] c"\22name\22: \22BM_Counters_WithBytesAndItemsPSec\22,$\00", align 1
@.str.54 = private unnamed_addr constant [20 x i8] c"\22family_index\22: 1,$\00", align 1
@.str.55 = private unnamed_addr constant [50 x i8] c"\22run_name\22: \22BM_Counters_WithBytesAndItemsPSec\22,$\00", align 1
@.str.56 = private unnamed_addr constant [29 x i8] c"\22bytes_per_second\22: %float,$\00", align 1
@.str.57 = private unnamed_addr constant [16 x i8] c"\22foo\22: %float,$\00", align 1
@.str.58 = private unnamed_addr constant [28 x i8] c"\22items_per_second\22: %float$\00", align 1
@dummy100 = hidden local_unnamed_addr global i32 0, align 4
@.str.60 = private unnamed_addr constant [76 x i8] c"^\22BM_Counters_WithBytesAndItemsPSec\22,%csv_bytes_items_report,%float,%float$\00", align 1
@__func__._Z22CheckBytesAndItemsPSecRK7Results = private unnamed_addr constant [23 x i8] c"CheckBytesAndItemsPSec\00", align 1
@.str.61 = private unnamed_addr constant [49 x i8] c"(e.GetCounterAs< int >(\22bar\22)) == ((num_calls1))\00", align 1
@.str.62 = private unnamed_addr constant [17 x i8] c"bytes_per_second\00", align 1
@.str.63 = private unnamed_addr constant [91 x i8] c"std::fabs((e.GetAs< double >(\22bytes_per_second\22)) - ((364. / t))) < ((0.001) * (364. / t))\00", align 1
@.str.64 = private unnamed_addr constant [17 x i8] c"items_per_second\00", align 1
@.str.65 = private unnamed_addr constant [91 x i8] c"std::fabs((e.GetAs< double >(\22items_per_second\22)) - ((150. / t))) < ((0.001) * (150. / t))\00", align 1
@dummy112 = hidden local_unnamed_addr global i64 0, align 8
@_ZL27benchmark_uniq_4_benchmark_ = internal unnamed_addr global ptr null, align 8
@.str.68 = private unnamed_addr constant [17 x i8] c"BM_Counters_Rate\00", align 1
@dummy130 = hidden local_unnamed_addr global i32 0, align 4
@.str.70 = private unnamed_addr constant [65 x i8] c"^BM_Counters_Rate %console_report bar=%hrfloat/s foo=%hrfloat/s$\00", align 1
@dummy145 = hidden local_unnamed_addr global i32 0, align 4
@.str.72 = private unnamed_addr constant [29 x i8] c"\22name\22: \22BM_Counters_Rate\22,$\00", align 1
@.str.73 = private unnamed_addr constant [20 x i8] c"\22family_index\22: 2,$\00", align 1
@.str.74 = private unnamed_addr constant [33 x i8] c"\22run_name\22: \22BM_Counters_Rate\22,$\00", align 1
@dummy146 = hidden local_unnamed_addr global i32 0, align 4
@.str.76 = private unnamed_addr constant [47 x i8] c"^\22BM_Counters_Rate\22,%csv_report,%float,%float$\00", align 1
@.str.77 = private unnamed_addr constant [81 x i8] c"std::fabs((e.GetCounterAs< double >(\22foo\22)) - ((1. / t))) < ((0.001) * (1. / t))\00", align 1
@__func__._Z9CheckRateRK7Results = private unnamed_addr constant [10 x i8] c"CheckRate\00", align 1
@.str.78 = private unnamed_addr constant [81 x i8] c"std::fabs((e.GetCounterAs< double >(\22bar\22)) - ((2. / t))) < ((0.001) * (2. / t))\00", align 1
@dummy155 = hidden local_unnamed_addr global i64 0, align 8
@_ZL27benchmark_uniq_5_benchmark_ = internal unnamed_addr global ptr null, align 8
@.str.81 = private unnamed_addr constant [10 x i8] c"BM_Invert\00", align 1
@dummy172 = hidden local_unnamed_addr global i32 0, align 4
@.str.83 = private unnamed_addr constant [56 x i8] c"^BM_Invert %console_report bar=%hrfloatu foo=%hrfloatk$\00", align 1
@dummy187 = hidden local_unnamed_addr global i32 0, align 4
@.str.85 = private unnamed_addr constant [22 x i8] c"\22name\22: \22BM_Invert\22,$\00", align 1
@.str.86 = private unnamed_addr constant [20 x i8] c"\22family_index\22: 3,$\00", align 1
@.str.87 = private unnamed_addr constant [26 x i8] c"\22run_name\22: \22BM_Invert\22,$\00", align 1
@dummy188 = hidden local_unnamed_addr global i32 0, align 4
@.str.89 = private unnamed_addr constant [40 x i8] c"^\22BM_Invert\22,%csv_report,%float,%float$\00", align 1
@.str.90 = private unnamed_addr constant [80 x i8] c"std::fabs((e.GetCounterAs< double >(\22foo\22)) - ((10000))) < ((0.0001) * (10000))\00", align 1
@__func__._Z11CheckInvertRK7Results = private unnamed_addr constant [12 x i8] c"CheckInvert\00", align 1
@.str.91 = private unnamed_addr constant [82 x i8] c"std::fabs((e.GetCounterAs< double >(\22bar\22)) - ((0.0001))) < ((0.0001) * (0.0001))\00", align 1
@dummy195 = hidden local_unnamed_addr global i64 0, align 8
@_ZL27benchmark_uniq_6_benchmark_ = internal unnamed_addr global ptr null, align 8
@.str.94 = private unnamed_addr constant [25 x i8] c"BM_Counters_InvertedRate\00", align 1
@dummy215 = hidden local_unnamed_addr global i32 0, align 4
@.str.96 = private unnamed_addr constant [71 x i8] c"^BM_Counters_InvertedRate %console_report bar=%hrfloats foo=%hrfloats$\00", align 1
@dummy231 = hidden local_unnamed_addr global i32 0, align 4
@.str.98 = private unnamed_addr constant [37 x i8] c"\22name\22: \22BM_Counters_InvertedRate\22,$\00", align 1
@.str.99 = private unnamed_addr constant [20 x i8] c"\22family_index\22: 4,$\00", align 1
@.str.100 = private unnamed_addr constant [41 x i8] c"\22run_name\22: \22BM_Counters_InvertedRate\22,$\00", align 1
@dummy233 = hidden local_unnamed_addr global i32 0, align 4
@.str.102 = private unnamed_addr constant [55 x i8] c"^\22BM_Counters_InvertedRate\22,%csv_report,%float,%float$\00", align 1
@.str.103 = private unnamed_addr constant [71 x i8] c"std::fabs((e.GetCounterAs< double >(\22foo\22)) - ((t))) < ((0.001) * (t))\00", align 1
@__func__._Z17CheckInvertedRateRK7Results = private unnamed_addr constant [18 x i8] c"CheckInvertedRate\00", align 1
@.str.104 = private unnamed_addr constant [89 x i8] c"std::fabs((e.GetCounterAs< double >(\22bar\22)) - ((t / 8192.0))) < ((0.001) * (t / 8192.0))\00", align 1
@dummy242 = hidden local_unnamed_addr global i64 0, align 8
@_ZL27benchmark_uniq_7_benchmark_ = internal unnamed_addr global ptr null, align 8
@.str.107 = private unnamed_addr constant [20 x i8] c"BM_Counters_Threads\00", align 1
@dummy256 = hidden local_unnamed_addr global i32 0, align 4
@.str.109 = private unnamed_addr constant [77 x i8] c"^BM_Counters_Threads/threads:%int %console_report bar=%hrfloat foo=%hrfloat$\00", align 1
@dummy272 = hidden local_unnamed_addr global i32 0, align 4
@.str.111 = private unnamed_addr constant [45 x i8] c"\22name\22: \22BM_Counters_Threads/threads:%int\22,$\00", align 1
@.str.112 = private unnamed_addr constant [20 x i8] c"\22family_index\22: 5,$\00", align 1
@.str.113 = private unnamed_addr constant [49 x i8] c"\22run_name\22: \22BM_Counters_Threads/threads:%int\22,$\00", align 1
@dummy275 = hidden local_unnamed_addr global i32 0, align 4
@.str.115 = private unnamed_addr constant [63 x i8] c"^\22BM_Counters_Threads/threads:%int\22,%csv_report,%float,%float$\00", align 1
@.str.116 = private unnamed_addr constant [53 x i8] c"(e.GetCounterAs< int >(\22foo\22)) == ((e.NumThreads()))\00", align 1
@__func__._Z12CheckThreadsRK7Results = private unnamed_addr constant [13 x i8] c"CheckThreads\00", align 1
@.str.117 = private unnamed_addr constant [57 x i8] c"(e.GetCounterAs< int >(\22bar\22)) == ((2 * e.NumThreads()))\00", align 1
@dummy282 = hidden local_unnamed_addr global i64 0, align 8
@.str.119 = private unnamed_addr constant [33 x i8] c"BM_Counters_Threads/threads:%int\00", align 1
@_ZL27benchmark_uniq_8_benchmark_ = internal unnamed_addr global ptr null, align 8
@.str.121 = private unnamed_addr constant [23 x i8] c"BM_Counters_AvgThreads\00", align 1
@dummy297 = hidden local_unnamed_addr global i32 0, align 4
@.str.123 = private unnamed_addr constant [80 x i8] c"^BM_Counters_AvgThreads/threads:%int %console_report bar=%hrfloat foo=%hrfloat$\00", align 1
@dummy313 = hidden local_unnamed_addr global i32 0, align 4
@.str.125 = private unnamed_addr constant [48 x i8] c"\22name\22: \22BM_Counters_AvgThreads/threads:%int\22,$\00", align 1
@.str.126 = private unnamed_addr constant [20 x i8] c"\22family_index\22: 6,$\00", align 1
@.str.127 = private unnamed_addr constant [52 x i8] c"\22run_name\22: \22BM_Counters_AvgThreads/threads:%int\22,$\00", align 1
@dummy316 = hidden local_unnamed_addr global i32 0, align 4
@.str.129 = private unnamed_addr constant [66 x i8] c"^\22BM_Counters_AvgThreads/threads:%int\22,%csv_report,%float,%float$\00", align 1
@__func__._Z15CheckAvgThreadsRK7Results = private unnamed_addr constant [16 x i8] c"CheckAvgThreads\00", align 1
@.str.130 = private unnamed_addr constant [40 x i8] c"(e.GetCounterAs< int >(\22bar\22)) == ((2))\00", align 1
@dummy324 = hidden local_unnamed_addr global i64 0, align 8
@.str.132 = private unnamed_addr constant [36 x i8] c"BM_Counters_AvgThreads/threads:%int\00", align 1
@_ZL27benchmark_uniq_9_benchmark_ = internal unnamed_addr global ptr null, align 8
@.str.134 = private unnamed_addr constant [27 x i8] c"BM_Counters_AvgThreadsRate\00", align 1
@dummy341 = hidden local_unnamed_addr global i32 0, align 4
@.str.136 = private unnamed_addr constant [88 x i8] c"^BM_Counters_AvgThreadsRate/threads:%int %console_report bar=%hrfloat/s foo=%hrfloat/s$\00", align 1
@dummy358 = hidden local_unnamed_addr global i32 0, align 4
@.str.138 = private unnamed_addr constant [52 x i8] c"\22name\22: \22BM_Counters_AvgThreadsRate/threads:%int\22,$\00", align 1
@.str.139 = private unnamed_addr constant [20 x i8] c"\22family_index\22: 7,$\00", align 1
@.str.140 = private unnamed_addr constant [56 x i8] c"\22run_name\22: \22BM_Counters_AvgThreadsRate/threads:%int\22,$\00", align 1
@dummy360 = hidden local_unnamed_addr global i32 0, align 4
@.str.142 = private unnamed_addr constant [70 x i8] c"^\22BM_Counters_AvgThreadsRate/threads:%int\22,%csv_report,%float,%float$\00", align 1
@.str.143 = private unnamed_addr constant [117 x i8] c"std::fabs((e.GetCounterAs< double >(\22foo\22)) - ((1. / e.DurationCPUTime()))) < ((0.001) * (1. / e.DurationCPUTime()))\00", align 1
@__func__._Z19CheckAvgThreadsRateRK7Results = private unnamed_addr constant [20 x i8] c"CheckAvgThreadsRate\00", align 1
@.str.144 = private unnamed_addr constant [117 x i8] c"std::fabs((e.GetCounterAs< double >(\22bar\22)) - ((2. / e.DurationCPUTime()))) < ((0.001) * (2. / e.DurationCPUTime()))\00", align 1
@dummy368 = hidden local_unnamed_addr global i64 0, align 8
@.str.146 = private unnamed_addr constant [40 x i8] c"BM_Counters_AvgThreadsRate/threads:%int\00", align 1
@_ZL28benchmark_uniq_10_benchmark_ = internal unnamed_addr global ptr null, align 8
@.str.148 = private unnamed_addr constant [31 x i8] c"BM_Counters_IterationInvariant\00", align 1
@dummy383 = hidden local_unnamed_addr global i32 0, align 4
@.str.150 = private unnamed_addr constant [75 x i8] c"^BM_Counters_IterationInvariant %console_report bar=%hrfloat foo=%hrfloat$\00", align 1
@dummy399 = hidden local_unnamed_addr global i32 0, align 4
@.str.152 = private unnamed_addr constant [43 x i8] c"\22name\22: \22BM_Counters_IterationInvariant\22,$\00", align 1
@.str.153 = private unnamed_addr constant [20 x i8] c"\22family_index\22: 8,$\00", align 1
@.str.154 = private unnamed_addr constant [47 x i8] c"\22run_name\22: \22BM_Counters_IterationInvariant\22,$\00", align 1
@dummy401 = hidden local_unnamed_addr global i32 0, align 4
@.str.156 = private unnamed_addr constant [61 x i8] c"^\22BM_Counters_IterationInvariant\22,%csv_report,%float,%float$\00", align 1
@.str.157 = private unnamed_addr constant [75 x i8] c"std::fabs((e.GetCounterAs< double >(\22foo\22)) - ((its))) < ((0.001) * (its))\00", align 1
@__func__._Z23CheckIterationInvariantRK7Results = private unnamed_addr constant [24 x i8] c"CheckIterationInvariant\00", align 1
@dummy411 = hidden local_unnamed_addr global i64 0, align 8
@_ZL28benchmark_uniq_11_benchmark_ = internal unnamed_addr global ptr null, align 8
@.str.160 = private unnamed_addr constant [38 x i8] c"BM_Counters_kIsIterationInvariantRate\00", align 1
@dummy430 = hidden local_unnamed_addr global i32 0, align 4
@.str.162 = private unnamed_addr constant [86 x i8] c"^BM_Counters_kIsIterationInvariantRate %console_report bar=%hrfloat/s foo=%hrfloat/s$\00", align 1
@dummy447 = hidden local_unnamed_addr global i32 0, align 4
@.str.164 = private unnamed_addr constant [50 x i8] c"\22name\22: \22BM_Counters_kIsIterationInvariantRate\22,$\00", align 1
@.str.165 = private unnamed_addr constant [20 x i8] c"\22family_index\22: 9,$\00", align 1
@.str.166 = private unnamed_addr constant [54 x i8] c"\22run_name\22: \22BM_Counters_kIsIterationInvariantRate\22,$\00", align 1
@dummy449 = hidden local_unnamed_addr global i32 0, align 4
@.str.168 = private unnamed_addr constant [68 x i8] c"^\22BM_Counters_kIsIterationInvariantRate\22,%csv_report,%float,%float$\00", align 1
@.str.169 = private unnamed_addr constant [93 x i8] c"std::fabs((e.GetCounterAs< double >(\22foo\22)) - ((its * 1. / t))) < ((0.001) * (its * 1. / t))\00", align 1
@__func__._Z29CheckIsIterationInvariantRateRK7Results = private unnamed_addr constant [30 x i8] c"CheckIsIterationInvariantRate\00", align 1
@.str.170 = private unnamed_addr constant [93 x i8] c"std::fabs((e.GetCounterAs< double >(\22bar\22)) - ((its * 2. / t))) < ((0.001) * (its * 2. / t))\00", align 1
@dummy460 = hidden local_unnamed_addr global i64 0, align 8
@_ZL28benchmark_uniq_12_benchmark_ = internal unnamed_addr global ptr null, align 8
@.str.173 = private unnamed_addr constant [26 x i8] c"BM_Counters_AvgIterations\00", align 1
@dummy475 = hidden local_unnamed_addr global i32 0, align 4
@.str.175 = private unnamed_addr constant [70 x i8] c"^BM_Counters_AvgIterations %console_report bar=%hrfloat foo=%hrfloat$\00", align 1
@dummy491 = hidden local_unnamed_addr global i32 0, align 4
@.str.177 = private unnamed_addr constant [38 x i8] c"\22name\22: \22BM_Counters_AvgIterations\22,$\00", align 1
@.str.178 = private unnamed_addr constant [21 x i8] c"\22family_index\22: 10,$\00", align 1
@.str.179 = private unnamed_addr constant [42 x i8] c"\22run_name\22: \22BM_Counters_AvgIterations\22,$\00", align 1
@dummy493 = hidden local_unnamed_addr global i32 0, align 4
@.str.181 = private unnamed_addr constant [56 x i8] c"^\22BM_Counters_AvgIterations\22,%csv_report,%float,%float$\00", align 1
@.str.182 = private unnamed_addr constant [85 x i8] c"std::fabs((e.GetCounterAs< double >(\22foo\22)) - ((1. / its))) < ((0.001) * (1. / its))\00", align 1
@__func__._Z18CheckAvgIterationsRK7Results = private unnamed_addr constant [19 x i8] c"CheckAvgIterations\00", align 1
@.str.183 = private unnamed_addr constant [85 x i8] c"std::fabs((e.GetCounterAs< double >(\22bar\22)) - ((2. / its))) < ((0.001) * (2. / its))\00", align 1
@dummy502 = hidden local_unnamed_addr global i64 0, align 8
@_ZL28benchmark_uniq_13_benchmark_ = internal unnamed_addr global ptr null, align 8
@.str.186 = private unnamed_addr constant [31 x i8] c"BM_Counters_kAvgIterationsRate\00", align 1
@dummy520 = hidden local_unnamed_addr global i32 0, align 4
@.str.188 = private unnamed_addr constant [79 x i8] c"^BM_Counters_kAvgIterationsRate %console_report bar=%hrfloat/s foo=%hrfloat/s$\00", align 1
@dummy536 = hidden local_unnamed_addr global i32 0, align 4
@.str.190 = private unnamed_addr constant [43 x i8] c"\22name\22: \22BM_Counters_kAvgIterationsRate\22,$\00", align 1
@.str.191 = private unnamed_addr constant [21 x i8] c"\22family_index\22: 11,$\00", align 1
@.str.192 = private unnamed_addr constant [47 x i8] c"\22run_name\22: \22BM_Counters_kAvgIterationsRate\22,$\00", align 1
@dummy538 = hidden local_unnamed_addr global i32 0, align 4
@.str.194 = private unnamed_addr constant [61 x i8] c"^\22BM_Counters_kAvgIterationsRate\22,%csv_report,%float,%float$\00", align 1
@.str.195 = private unnamed_addr constant [93 x i8] c"std::fabs((e.GetCounterAs< double >(\22foo\22)) - ((1. / its / t))) < ((0.001) * (1. / its / t))\00", align 1
@__func__._Z22CheckAvgIterationsRateRK7Results = private unnamed_addr constant [23 x i8] c"CheckAvgIterationsRate\00", align 1
@.str.196 = private unnamed_addr constant [93 x i8] c"std::fabs((e.GetCounterAs< double >(\22bar\22)) - ((2. / its / t))) < ((0.001) * (2. / its / t))\00", align 1
@dummy549 = hidden local_unnamed_addr global i64 0, align 8
@_ZTVN9benchmark8internal17FunctionBenchmarkE = external unnamed_addr constant { [5 x ptr] }, align 8
@_ZZN9benchmark8internal18GetNullLogInstanceEvE3log = linkonce_odr hidden local_unnamed_addr global %"class.benchmark::internal::LogType" zeroinitializer, comdat, align 8
@_ZGVZN9benchmark8internal18GetNullLogInstanceEvE3log = linkonce_odr hidden global i64 0, comdat, align 8
@.str.200 = private unnamed_addr constant [10 x i8] c": Check `\00", align 1
@.str.201 = private unnamed_addr constant [11 x i8] c"' failed. \00", align 1
@_ZZN9benchmark8internal19GetErrorLogInstanceEvE3log = linkonce_odr hidden global %"class.benchmark::internal::LogType" zeroinitializer, comdat, align 8
@_ZGVZN9benchmark8internal19GetErrorLogInstanceEvE3log = linkonce_odr hidden global i64 0, comdat, align 8
@_ZNSt3__14clogE = external global %"class.std::__1::basic_ostream", align 8
@.str.202 = private unnamed_addr constant [13 x i8] c"basic_string\00", align 1
@_ZTISt12length_error = external constant ptr
@_ZTVSt12length_error = external unnamed_addr constant { [5 x ptr] }, align 8
@_ZNSt3__15ctypeIcE2idE = external global %"class.std::__1::locale::id", align 8
@_ZTVNSt3__110__function6__funcIPFvRK7ResultsENS_9allocatorIS6_EES5_EE = linkonce_odr hidden unnamed_addr constant { [11 x ptr] } { [11 x ptr] [ptr null, ptr @_ZTINSt3__110__function6__funcIPFvRK7ResultsENS_9allocatorIS6_EES5_EE, ptr @_ZNSt3__110__function6__baseIFvRK7ResultsEED2Ev, ptr @_ZNSt3__110__function6__funcIPFvRK7ResultsENS_9allocatorIS6_EES5_ED0Ev, ptr @_ZNKSt3__110__function6__funcIPFvRK7ResultsENS_9allocatorIS6_EES5_E7__cloneEv, ptr @_ZNKSt3__110__function6__funcIPFvRK7ResultsENS_9allocatorIS6_EES5_E7__cloneEPNS0_6__baseIS5_EE, ptr @_ZNSt3__110__function6__funcIPFvRK7ResultsENS_9allocatorIS6_EES5_E7destroyEv, ptr @_ZNSt3__110__function6__funcIPFvRK7ResultsENS_9allocatorIS6_EES5_E18destroy_deallocateEv, ptr @_ZNSt3__110__function6__funcIPFvRK7ResultsENS_9allocatorIS6_EES5_EclES4_, ptr @_ZNKSt3__110__function6__funcIPFvRK7ResultsENS_9allocatorIS6_EES5_E6targetERKSt9type_info, ptr @_ZNKSt3__110__function6__funcIPFvRK7ResultsENS_9allocatorIS6_EES5_E11target_typeEv] }, comdat, align 8
@_ZTVN10__cxxabiv120__si_class_type_infoE = external global ptr
@_ZTSNSt3__110__function6__funcIPFvRK7ResultsENS_9allocatorIS6_EES5_EE = linkonce_odr hidden constant [66 x i8] c"NSt3__110__function6__funcIPFvRK7ResultsENS_9allocatorIS6_EES5_EE\00", comdat, align 1
@_ZTVN10__cxxabiv117__class_type_infoE = external global ptr
@_ZTSNSt3__110__function6__baseIFvRK7ResultsEEE = linkonce_odr hidden constant [43 x i8] c"NSt3__110__function6__baseIFvRK7ResultsEEE\00", comdat, align 1
@_ZTINSt3__110__function6__baseIFvRK7ResultsEEE = linkonce_odr hidden constant { ptr, ptr } { ptr getelementptr inbounds (ptr, ptr @_ZTVN10__cxxabiv117__class_type_infoE, i64 2), ptr @_ZTSNSt3__110__function6__baseIFvRK7ResultsEEE }, comdat, align 8
@_ZTINSt3__110__function6__funcIPFvRK7ResultsENS_9allocatorIS6_EES5_EE = linkonce_odr hidden constant { ptr, ptr, ptr } { ptr getelementptr inbounds (ptr, ptr @_ZTVN10__cxxabiv120__si_class_type_infoE, i64 2), ptr @_ZTSNSt3__110__function6__funcIPFvRK7ResultsENS_9allocatorIS6_EES5_EE, ptr @_ZTINSt3__110__function6__baseIFvRK7ResultsEEE }, comdat, align 8
@_ZTVN10__cxxabiv119__pointer_type_infoE = external global ptr
@_ZTSPFvRK7ResultsE = linkonce_odr hidden constant [15 x i8] c"PFvRK7ResultsE\00", comdat, align 1
@_ZTVN10__cxxabiv120__function_type_infoE = external global ptr
@_ZTSFvRK7ResultsE = linkonce_odr hidden constant [14 x i8] c"FvRK7ResultsE\00", comdat, align 1
@_ZTIFvRK7ResultsE = linkonce_odr hidden constant { ptr, ptr } { ptr getelementptr inbounds (ptr, ptr @_ZTVN10__cxxabiv120__function_type_infoE, i64 2), ptr @_ZTSFvRK7ResultsE }, comdat, align 8
@_ZTIPFvRK7ResultsE = linkonce_odr hidden constant { ptr, ptr, i32, ptr } { ptr getelementptr inbounds (ptr, ptr @_ZTVN10__cxxabiv119__pointer_type_infoE, i64 2), ptr @_ZTSPFvRK7ResultsE, i32 0, ptr @_ZTIFvRK7ResultsE }, comdat, align 8
@.str.203 = private unnamed_addr constant [30 x i8] c"sv != nullptr && !sv->empty()\00", align 1
@.str.204 = private unnamed_addr constant [102 x i8] c"/local/mnt2/workspace2/mnadeem/llvm/llvm-test-suite/MicroBenchmarks/libs/benchmark/test/output_test.h\00", align 1
@__func__._ZNK7Results5GetAsIdEET_PKc = private unnamed_addr constant [6 x i8] c"GetAs\00", align 1
@.str.205 = private unnamed_addr constant [11 x i8] c"!ss.fail()\00", align 1
@_ZTVNSt3__118basic_stringstreamIcNS_11char_traitsIcEENS_9allocatorIcEEEE = linkonce_odr dso_local unnamed_addr constant { [5 x ptr], [5 x ptr], [5 x ptr] } { [5 x ptr] [ptr inttoptr (i64 128 to ptr), ptr null, ptr @_ZTINSt3__118basic_stringstreamIcNS_11char_traitsIcEENS_9allocatorIcEEEE, ptr @_ZNSt3__118basic_stringstreamIcNS_11char_traitsIcEENS_9allocatorIcEEED1Ev, ptr @_ZNSt3__118basic_stringstreamIcNS_11char_traitsIcEENS_9allocatorIcEEED0Ev], [5 x ptr] [ptr inttoptr (i64 112 to ptr), ptr inttoptr (i64 -16 to ptr), ptr @_ZTINSt3__118basic_stringstreamIcNS_11char_traitsIcEENS_9allocatorIcEEEE, ptr @_ZThn16_NSt3__118basic_stringstreamIcNS_11char_traitsIcEENS_9allocatorIcEEED1Ev, ptr @_ZThn16_NSt3__118basic_stringstreamIcNS_11char_traitsIcEENS_9allocatorIcEEED0Ev], [5 x ptr] [ptr inttoptr (i64 -128 to ptr), ptr inttoptr (i64 -128 to ptr), ptr @_ZTINSt3__118basic_stringstreamIcNS_11char_traitsIcEENS_9allocatorIcEEEE, ptr @_ZTv0_n24_NSt3__118basic_stringstreamIcNS_11char_traitsIcEENS_9allocatorIcEEED1Ev, ptr @_ZTv0_n24_NSt3__118basic_stringstreamIcNS_11char_traitsIcEENS_9allocatorIcEEED0Ev] }, comdat, align 8
@_ZTTNSt3__118basic_stringstreamIcNS_11char_traitsIcEENS_9allocatorIcEEEE = linkonce_odr dso_local unnamed_addr constant [10 x ptr] [ptr getelementptr inbounds ({ [5 x ptr], [5 x ptr], [5 x ptr] }, ptr @_ZTVNSt3__118basic_stringstreamIcNS_11char_traitsIcEENS_9allocatorIcEEEE, i32 0, inrange i32 0, i32 3), ptr getelementptr inbounds ({ [5 x ptr], [5 x ptr], [5 x ptr] }, ptr @_ZTCNSt3__118basic_stringstreamIcNS_11char_traitsIcEENS_9allocatorIcEEEE0_NS_14basic_iostreamIcS2_EE, i32 0, inrange i32 0, i32 3), ptr getelementptr inbounds ({ [5 x ptr], [5 x ptr] }, ptr @_ZTCNSt3__118basic_stringstreamIcNS_11char_traitsIcEENS_9allocatorIcEEEE0_NS_13basic_istreamIcS2_EE, i32 0, inrange i32 0, i32 3), ptr getelementptr inbounds ({ [5 x ptr], [5 x ptr] }, ptr @_ZTCNSt3__118basic_stringstreamIcNS_11char_traitsIcEENS_9allocatorIcEEEE0_NS_13basic_istreamIcS2_EE, i32 0, inrange i32 1, i32 3), ptr getelementptr inbounds ({ [5 x ptr], [5 x ptr] }, ptr @_ZTCNSt3__118basic_stringstreamIcNS_11char_traitsIcEENS_9allocatorIcEEEE16_NS_13basic_ostreamIcS2_EE, i32 0, inrange i32 0, i32 3), ptr getelementptr inbounds ({ [5 x ptr], [5 x ptr] }, ptr @_ZTCNSt3__118basic_stringstreamIcNS_11char_traitsIcEENS_9allocatorIcEEEE16_NS_13basic_ostreamIcS2_EE, i32 0, inrange i32 1, i32 3), ptr getelementptr inbounds ({ [5 x ptr], [5 x ptr], [5 x ptr] }, ptr @_ZTCNSt3__118basic_stringstreamIcNS_11char_traitsIcEENS_9allocatorIcEEEE0_NS_14basic_iostreamIcS2_EE, i32 0, inrange i32 2, i32 3), ptr getelementptr inbounds ({ [5 x ptr], [5 x ptr], [5 x ptr] }, ptr @_ZTCNSt3__118basic_stringstreamIcNS_11char_traitsIcEENS_9allocatorIcEEEE0_NS_14basic_iostreamIcS2_EE, i32 0, inrange i32 1, i32 3), ptr getelementptr inbounds ({ [5 x ptr], [5 x ptr], [5 x ptr] }, ptr @_ZTVNSt3__118basic_stringstreamIcNS_11char_traitsIcEENS_9allocatorIcEEEE, i32 0, inrange i32 2, i32 3), ptr getelementptr inbounds ({ [5 x ptr], [5 x ptr], [5 x ptr] }, ptr @_ZTVNSt3__118basic_stringstreamIcNS_11char_traitsIcEENS_9allocatorIcEEEE, i32 0, inrange i32 1, i32 3)], comdat, align 8
@_ZTCNSt3__118basic_stringstreamIcNS_11char_traitsIcEENS_9allocatorIcEEEE0_NS_14basic_iostreamIcS2_EE = linkonce_odr dso_local unnamed_addr constant { [5 x ptr], [5 x ptr], [5 x ptr] } { [5 x ptr] [ptr inttoptr (i64 128 to ptr), ptr null, ptr @_ZTINSt3__114basic_iostreamIcNS_11char_traitsIcEEEE, ptr @_ZNSt3__114basic_iostreamIcNS_11char_traitsIcEEED1Ev, ptr @_ZNSt3__114basic_iostreamIcNS_11char_traitsIcEEED0Ev], [5 x ptr] [ptr inttoptr (i64 112 to ptr), ptr inttoptr (i64 -16 to ptr), ptr @_ZTINSt3__114basic_iostreamIcNS_11char_traitsIcEEEE, ptr @_ZThn16_NSt3__114basic_iostreamIcNS_11char_traitsIcEEED1Ev, ptr @_ZThn16_NSt3__114basic_iostreamIcNS_11char_traitsIcEEED0Ev], [5 x ptr] [ptr inttoptr (i64 -128 to ptr), ptr inttoptr (i64 -128 to ptr), ptr @_ZTINSt3__114basic_iostreamIcNS_11char_traitsIcEEEE, ptr @_ZTv0_n24_NSt3__114basic_iostreamIcNS_11char_traitsIcEEED1Ev, ptr @_ZTv0_n24_NSt3__114basic_iostreamIcNS_11char_traitsIcEEED0Ev] }, comdat, align 8
@_ZTINSt3__114basic_iostreamIcNS_11char_traitsIcEEEE = external constant ptr
@_ZTCNSt3__118basic_stringstreamIcNS_11char_traitsIcEENS_9allocatorIcEEEE0_NS_13basic_istreamIcS2_EE = linkonce_odr dso_local unnamed_addr constant { [5 x ptr], [5 x ptr] } { [5 x ptr] [ptr inttoptr (i64 128 to ptr), ptr null, ptr @_ZTINSt3__113basic_istreamIcNS_11char_traitsIcEEEE, ptr @_ZNSt3__113basic_istreamIcNS_11char_traitsIcEEED1Ev, ptr @_ZNSt3__113basic_istreamIcNS_11char_traitsIcEEED0Ev], [5 x ptr] [ptr inttoptr (i64 -128 to ptr), ptr inttoptr (i64 -128 to ptr), ptr @_ZTINSt3__113basic_istreamIcNS_11char_traitsIcEEEE, ptr @_ZTv0_n24_NSt3__113basic_istreamIcNS_11char_traitsIcEEED1Ev, ptr @_ZTv0_n24_NSt3__113basic_istreamIcNS_11char_traitsIcEEED0Ev] }, comdat, align 8
@_ZTINSt3__113basic_istreamIcNS_11char_traitsIcEEEE = external constant ptr
@_ZTCNSt3__118basic_stringstreamIcNS_11char_traitsIcEENS_9allocatorIcEEEE16_NS_13basic_ostreamIcS2_EE = linkonce_odr dso_local unnamed_addr constant { [5 x ptr], [5 x ptr] } { [5 x ptr] [ptr inttoptr (i64 112 to ptr), ptr null, ptr @_ZTINSt3__113basic_ostreamIcNS_11char_traitsIcEEEE, ptr @_ZNSt3__113basic_ostreamIcNS_11char_traitsIcEEED1Ev, ptr @_ZNSt3__113basic_ostreamIcNS_11char_traitsIcEEED0Ev], [5 x ptr] [ptr inttoptr (i64 -112 to ptr), ptr inttoptr (i64 -112 to ptr), ptr @_ZTINSt3__113basic_ostreamIcNS_11char_traitsIcEEEE, ptr @_ZTv0_n24_NSt3__113basic_ostreamIcNS_11char_traitsIcEEED1Ev, ptr @_ZTv0_n24_NSt3__113basic_ostreamIcNS_11char_traitsIcEEED0Ev] }, comdat, align 8
@_ZTINSt3__113basic_ostreamIcNS_11char_traitsIcEEEE = external constant ptr
@_ZTSNSt3__118basic_stringstreamIcNS_11char_traitsIcEENS_9allocatorIcEEEE = linkonce_odr dso_local constant [69 x i8] c"NSt3__118basic_stringstreamIcNS_11char_traitsIcEENS_9allocatorIcEEEE\00", comdat, align 1
@_ZTINSt3__118basic_stringstreamIcNS_11char_traitsIcEENS_9allocatorIcEEEE = linkonce_odr dso_local constant { ptr, ptr, ptr } { ptr getelementptr inbounds (ptr, ptr @_ZTVN10__cxxabiv120__si_class_type_infoE, i64 2), ptr @_ZTSNSt3__118basic_stringstreamIcNS_11char_traitsIcEENS_9allocatorIcEEEE, ptr @_ZTINSt3__114basic_iostreamIcNS_11char_traitsIcEEEE }, comdat, align 8
@_ZTVNSt3__115basic_stringbufIcNS_11char_traitsIcEENS_9allocatorIcEEEE = linkonce_odr dso_local unnamed_addr constant { [16 x ptr] } { [16 x ptr] [ptr null, ptr @_ZTINSt3__115basic_stringbufIcNS_11char_traitsIcEENS_9allocatorIcEEEE, ptr @_ZNSt3__115basic_stringbufIcNS_11char_traitsIcEENS_9allocatorIcEEED2Ev, ptr @_ZNSt3__115basic_stringbufIcNS_11char_traitsIcEENS_9allocatorIcEEED0Ev, ptr @_ZNSt3__115basic_streambufIcNS_11char_traitsIcEEE5imbueERKNS_6localeE, ptr @_ZNSt3__115basic_streambufIcNS_11char_traitsIcEEE6setbufEPcl, ptr @_ZNSt3__115basic_stringbufIcNS_11char_traitsIcEENS_9allocatorIcEEE7seekoffExNS_8ios_base7seekdirEj, ptr @_ZNSt3__115basic_stringbufIcNS_11char_traitsIcEENS_9allocatorIcEEE7seekposENS_4fposI11__mbstate_tEEj, ptr @_ZNSt3__115basic_streambufIcNS_11char_traitsIcEEE4syncEv, ptr @_ZNSt3__115basic_streambufIcNS_11char_traitsIcEEE9showmanycEv, ptr @_ZNSt3__115basic_streambufIcNS_11char_traitsIcEEE6xsgetnEPcl, ptr @_ZNSt3__115basic_stringbufIcNS_11char_traitsIcEENS_9allocatorIcEEE9underflowEv, ptr @_ZNSt3__115basic_streambufIcNS_11char_traitsIcEEE5uflowEv, ptr @_ZNSt3__115basic_stringbufIcNS_11char_traitsIcEENS_9allocatorIcEEE9pbackfailEi, ptr @_ZNSt3__115basic_streambufIcNS_11char_traitsIcEEE6xsputnEPKcl, ptr @_ZNSt3__115basic_stringbufIcNS_11char_traitsIcEENS_9allocatorIcEEE8overflowEi] }, comdat, align 8
@_ZTSNSt3__115basic_stringbufIcNS_11char_traitsIcEENS_9allocatorIcEEEE = linkonce_odr dso_local constant [66 x i8] c"NSt3__115basic_stringbufIcNS_11char_traitsIcEENS_9allocatorIcEEEE\00", comdat, align 1
@_ZTINSt3__115basic_streambufIcNS_11char_traitsIcEEEE = external constant ptr
@_ZTINSt3__115basic_stringbufIcNS_11char_traitsIcEENS_9allocatorIcEEEE = linkonce_odr dso_local constant { ptr, ptr, ptr } { ptr getelementptr inbounds (ptr, ptr @_ZTVN10__cxxabiv120__si_class_type_infoE, i64 2), ptr @_ZTSNSt3__115basic_stringbufIcNS_11char_traitsIcEENS_9allocatorIcEEEE, ptr @_ZTINSt3__115basic_streambufIcNS_11char_traitsIcEEEE }, comdat, align 8
@llvm.global_ctors = appending global [1 x { i32, ptr, ptr }] [{ i32, ptr, ptr } { i32 65535, ptr @_GLOBAL__sub_I_user_counters_test.cc, ptr null }]

declare noundef i32 @_ZN9benchmark8internal17InitializeStreamsEv() local_unnamed_addr #0

declare noundef i32 @_Z8AddCases10TestCaseIDSt16initializer_listI8TestCaseE(i32 noundef, ptr, i64) local_unnamed_addr #0

; Function Attrs: mustprogress nocallback nofree nosync nounwind willreturn memory(argmem: readwrite)
declare void @llvm.lifetime.start.p0(i64 immarg, ptr nocapture) #1

declare i32 @__gxx_personality_v0(...)

declare void @_ZN8TestCaseC1ENSt3__112basic_stringIcNS0_11char_traitsIcEENS0_9allocatorIcEEEEi(ptr noundef nonnull align 8 dereferenceable(72), ptr noundef, i32 noundef) unnamed_addr #0

; Function Attrs: mustprogress nocallback nofree nosync nounwind willreturn memory(argmem: readwrite)
declare void @llvm.lifetime.end.p0(i64 immarg, ptr nocapture) #1

; Function Attrs: uwtable
define hidden void @_Z18BM_Counters_SimpleRN9benchmark5StateE(ptr noundef nonnull align 8 dereferenceable(120) %state) #2 personality ptr @__gxx_personality_v0 {
entry:
  %__parent.i.i49 = alloca ptr, align 8
  %__parent.i.i = alloca ptr, align 8
  %ref.tmp4 = alloca %"class.std::__1::basic_string", align 8
  %ref.tmp9 = alloca %"class.std::__1::basic_string", align 8
  %max_iterations.i.i = getelementptr inbounds %"class.benchmark::State", ptr %state, i64 0, i32 2
  tail call void @_ZN9benchmark5State16StartKeepRunningEv(ptr noundef nonnull align 8 dereferenceable(120) %state)
  tail call void @_ZN9benchmark5State17FinishKeepRunningEv(ptr noundef nonnull align 8 dereferenceable(120) %state)
  %counters = getelementptr inbounds %"class.benchmark::State", ptr %state, i64 0, i32 8
  call void @llvm.lifetime.start.p0(i64 24, ptr nonnull %ref.tmp4) #23
  store i8 6, ptr %ref.tmp4, align 8
  %__data_.i.i.i = getelementptr inbounds %"struct.std::__1::basic_string<char>::__short", ptr %ref.tmp4, i64 0, i32 2
  %cmp.i24.i.i = icmp ugt ptr %__data_.i.i.i, @.str.5
  %add.ptr.i.i.i = getelementptr inbounds %"struct.std::__1::basic_string<char>::__short", ptr %ref.tmp4, i64 0, i32 2, i64 3
  %cmp1.i.i.i = icmp ule ptr %add.ptr.i.i.i, @.str.5
  %0 = or i1 %cmp.i24.i.i, %cmp1.i.i.i
  call void @llvm.assume(i1 %0)
  call void @llvm.memcpy.p0.p0.i64(ptr noundef nonnull align 1 dereferenceable(3) %__data_.i.i.i, ptr noundef nonnull align 1 dereferenceable(3) @.str.5, i64 3, i1 false)
  store i8 0, ptr %add.ptr.i.i.i, align 4, !tbaa !5
  call void @llvm.lifetime.start.p0(i64 8, ptr nonnull %__parent.i.i) #23
  %call.i.i25 = invoke noundef nonnull align 8 dereferenceable(8) ptr @_ZNSt3__16__treeINS_12__value_typeINS_12basic_stringIcNS_11char_traitsIcEENS_9allocatorIcEEEEN9benchmark7CounterEEENS_19__map_value_compareIS7_SA_NS_4lessIS7_EELb1EEENS5_ISA_EEE12__find_equalIS7_EERPNS_16__tree_node_baseIPvEERPNS_15__tree_end_nodeISL_EERKT_(ptr noundef nonnull align 8 dereferenceable(24) %counters, ptr noundef nonnull align 8 dereferenceable(8) %__parent.i.i, ptr noundef nonnull align 8 dereferenceable(24) %ref.tmp4)
          to label %call.i.i.noexc unwind label %lpad

call.i.i.noexc:                                   ; preds = %entry
  %1 = load ptr, ptr %call.i.i25, align 8, !tbaa !8
  %cmp.i.i23 = icmp eq ptr %1, null
  br i1 %cmp.i.i23, label %if.then.i.i24, label %invoke.cont

if.then.i.i24:                                    ; preds = %call.i.i.noexc
  %call.i.i.i.i.i.i.i26 = invoke noalias noundef nonnull dereferenceable(72) ptr @_Znwm(i64 noundef 72) #24
          to label %call.i.i.i.i.i.i.i.noexc unwind label %lpad

call.i.i.i.i.i.i.i.noexc:                         ; preds = %if.then.i.i24
  %__value_.i.i.i = getelementptr inbounds %"class.std::__1::__tree_node", ptr %call.i.i.i.i.i.i.i26, i64 0, i32 1
  call void @llvm.memcpy.p0.p0.i64(ptr noundef nonnull align 8 dereferenceable(24) %__value_.i.i.i, ptr noundef nonnull align 8 dereferenceable(24) %ref.tmp4, i64 24, i1 false), !noalias !10
  call void @llvm.memset.p0.i64(ptr noundef nonnull align 8 dereferenceable(24) %ref.tmp4, i8 0, i64 24, i1 false), !noalias !10
  %second.i.i.i.i.i.i.i = getelementptr inbounds %"class.std::__1::__tree_node", ptr %call.i.i.i.i.i.i.i26, i64 0, i32 1, i32 0, i32 1
  store double 0.000000e+00, ptr %second.i.i.i.i.i.i.i, align 8, !tbaa !13, !noalias !10
  %flags.i.i.i.i.i.i.i.i = getelementptr inbounds %"class.std::__1::__tree_node", ptr %call.i.i.i.i.i.i.i26, i64 0, i32 1, i32 0, i32 1, i32 1
  store i32 0, ptr %flags.i.i.i.i.i.i.i.i, align 8, !tbaa !18, !noalias !10
  %oneK.i.i.i.i.i.i.i.i = getelementptr inbounds %"class.std::__1::__tree_node", ptr %call.i.i.i.i.i.i.i26, i64 0, i32 1, i32 0, i32 1, i32 2
  store i32 1000, ptr %oneK.i.i.i.i.i.i.i.i, align 4, !tbaa !19, !noalias !10
  %2 = load ptr, ptr %__parent.i.i, align 8, !tbaa !8
  %__parent_.i.i.i = getelementptr inbounds %"class.std::__1::__tree_node_base", ptr %call.i.i.i.i.i.i.i26, i64 0, i32 2
  call void @llvm.memset.p0.i64(ptr noundef nonnull align 8 dereferenceable(16) %call.i.i.i.i.i.i.i26, i8 0, i64 16, i1 false)
  store ptr %2, ptr %__parent_.i.i.i, align 8, !tbaa !20
  store ptr %call.i.i.i.i.i.i.i26, ptr %call.i.i25, align 8, !tbaa !8
  %3 = load ptr, ptr %counters, align 8, !tbaa !8
  %4 = load ptr, ptr %3, align 8, !tbaa !24
  %cmp.not.i.i.i = icmp eq ptr %4, null
  br i1 %cmp.not.i.i.i, label %_ZNSt3__110unique_ptrINS_11__tree_nodeINS_12__value_typeINS_12basic_stringIcNS_11char_traitsIcEENS_9allocatorIcEEEEN9benchmark7CounterEEEPvEENS_22__tree_node_destructorINS6_ISD_EEEEED2B7v170000Ev.exit.i.i, label %if.then.i.i.i

if.then.i.i.i:                                    ; preds = %call.i.i.i.i.i.i.i.noexc
  store ptr %4, ptr %counters, align 8, !tbaa !8
  %.pre.i.i.i = load ptr, ptr %call.i.i25, align 8, !tbaa !8
  br label %_ZNSt3__110unique_ptrINS_11__tree_nodeINS_12__value_typeINS_12basic_stringIcNS_11char_traitsIcEENS_9allocatorIcEEEEN9benchmark7CounterEEEPvEENS_22__tree_node_destructorINS6_ISD_EEEEED2B7v170000Ev.exit.i.i

_ZNSt3__110unique_ptrINS_11__tree_nodeINS_12__value_typeINS_12basic_stringIcNS_11char_traitsIcEENS_9allocatorIcEEEEN9benchmark7CounterEEEPvEENS_22__tree_node_destructorINS6_ISD_EEEEED2B7v170000Ev.exit.i.i: ; preds = %if.then.i.i.i, %call.i.i.i.i.i.i.i.noexc
  %5 = phi ptr [ %.pre.i.i.i, %if.then.i.i.i ], [ %call.i.i.i.i.i.i.i26, %call.i.i.i.i.i.i.i.noexc ]
  %__pair1_.i.i10.i.i = getelementptr inbounds %"class.benchmark::State", ptr %state, i64 0, i32 8, i32 0, i32 1
  %6 = load ptr, ptr %__pair1_.i.i10.i.i, align 8, !tbaa !24
  call void @_ZNSt3__127__tree_balance_after_insertB7v170000IPNS_16__tree_node_baseIPvEEEEvT_S5_(ptr noundef %6, ptr noundef %5) #23
  %__pair3_.i.i.i.i = getelementptr inbounds %"class.benchmark::State", ptr %state, i64 0, i32 8, i32 0, i32 2
  %7 = load i64, ptr %__pair3_.i.i.i.i, align 8, !tbaa !25
  %inc.i.i.i = add i64 %7, 1
  store i64 %inc.i.i.i, ptr %__pair3_.i.i.i.i, align 8, !tbaa !25
  br label %invoke.cont

invoke.cont:                                      ; preds = %_ZNSt3__110unique_ptrINS_11__tree_nodeINS_12__value_typeINS_12basic_stringIcNS_11char_traitsIcEENS_9allocatorIcEEEEN9benchmark7CounterEEEPvEENS_22__tree_node_destructorINS6_ISD_EEEEED2B7v170000Ev.exit.i.i, %call.i.i.noexc
  %__r.0.i.i = phi ptr [ %call.i.i.i.i.i.i.i26, %_ZNSt3__110unique_ptrINS_11__tree_nodeINS_12__value_typeINS_12basic_stringIcNS_11char_traitsIcEENS_9allocatorIcEEEEN9benchmark7CounterEEEPvEENS_22__tree_node_destructorINS6_ISD_EEEEED2B7v170000Ev.exit.i.i ], [ %1, %call.i.i.noexc ]
  call void @llvm.lifetime.end.p0(i64 8, ptr nonnull %__parent.i.i) #23
  %second.i = getelementptr inbounds %"class.std::__1::__tree_node", ptr %__r.0.i.i, i64 0, i32 1, i32 0, i32 1
  store double 1.000000e+00, ptr %second.i, align 8, !tbaa.struct !27
  %ref.tmp.sroa.5.0.second.i.sroa_idx = getelementptr inbounds %"class.std::__1::__tree_node", ptr %__r.0.i.i, i64 0, i32 1, i32 0, i32 1, i32 1
  store i32 0, ptr %ref.tmp.sroa.5.0.second.i.sroa_idx, align 8, !tbaa.struct !31
  %ref.tmp.sroa.6.0.second.i.sroa_idx = getelementptr inbounds %"class.std::__1::__tree_node", ptr %__r.0.i.i, i64 0, i32 1, i32 0, i32 1, i32 2
  store i32 1000, ptr %ref.tmp.sroa.6.0.second.i.sroa_idx, align 4, !tbaa.struct !32
  %bf.load.i.i = load i8, ptr %ref.tmp4, align 8
  %bf.clear.i.i = and i8 %bf.load.i.i, 1
  %tobool.i.not.i = icmp eq i8 %bf.clear.i.i, 0
  br i1 %tobool.i.not.i, label %_ZNSt3__112basic_stringIcNS_11char_traitsIcEENS_9allocatorIcEEED2Ev.exit, label %if.then.i

if.then.i:                                        ; preds = %invoke.cont
  %__data_.i.i = getelementptr inbounds %"struct.std::__1::basic_string<char>::__long", ptr %ref.tmp4, i64 0, i32 2
  %8 = load ptr, ptr %__data_.i.i, align 8, !tbaa !5
  call void @_ZdlPv(ptr noundef %8) #25
  br label %_ZNSt3__112basic_stringIcNS_11char_traitsIcEENS_9allocatorIcEEED2Ev.exit

_ZNSt3__112basic_stringIcNS_11char_traitsIcEENS_9allocatorIcEEED2Ev.exit: ; preds = %invoke.cont, %if.then.i
  call void @llvm.lifetime.end.p0(i64 24, ptr nonnull %ref.tmp4) #23
  %started_.i = getelementptr inbounds %"class.benchmark::State", ptr %state, i64 0, i32 3
  %9 = load i8, ptr %started_.i, align 8, !tbaa !33, !range !45, !noundef !46
  %tobool.not.i = icmp eq i8 %9, 0
  br i1 %tobool.not.i, label %_ZNK9benchmark5State10iterationsEv.exit, label %if.end.i20, !prof !47

if.end.i20:                                       ; preds = %_ZNSt3__112basic_stringIcNS_11char_traitsIcEENS_9allocatorIcEEED2Ev.exit
  %10 = load i64, ptr %max_iterations.i.i, align 8, !tbaa !48
  %11 = load i64, ptr %state, align 8, !tbaa !49
  %sub.i = sub i64 %10, %11
  %batch_leftover_.i = getelementptr inbounds %"class.benchmark::State", ptr %state, i64 0, i32 1
  %12 = load i64, ptr %batch_leftover_.i, align 8, !tbaa !50
  %add.i = add i64 %sub.i, %12
  %13 = uitofp i64 %add.i to double
  %14 = fmul double %13, 2.000000e+00
  br label %_ZNK9benchmark5State10iterationsEv.exit

_ZNK9benchmark5State10iterationsEv.exit:          ; preds = %_ZNSt3__112basic_stringIcNS_11char_traitsIcEENS_9allocatorIcEEED2Ev.exit, %if.end.i20
  %retval.0.i = phi double [ %14, %if.end.i20 ], [ 0.000000e+00, %_ZNSt3__112basic_stringIcNS_11char_traitsIcEENS_9allocatorIcEEED2Ev.exit ]
  call void @llvm.lifetime.start.p0(i64 24, ptr nonnull %ref.tmp9) #23
  store i8 6, ptr %ref.tmp9, align 8
  %__data_.i.i.i35 = getelementptr inbounds %"struct.std::__1::basic_string<char>::__short", ptr %ref.tmp9, i64 0, i32 2
  %cmp.i24.i.i45 = icmp ugt ptr %__data_.i.i.i35, @.str.6
  %add.ptr.i.i.i46 = getelementptr inbounds %"struct.std::__1::basic_string<char>::__short", ptr %ref.tmp9, i64 0, i32 2, i64 3
  %cmp1.i.i.i47 = icmp ule ptr %add.ptr.i.i.i46, @.str.6
  %15 = or i1 %cmp.i24.i.i45, %cmp1.i.i.i47
  call void @llvm.assume(i1 %15)
  call void @llvm.memcpy.p0.p0.i64(ptr noundef nonnull align 1 dereferenceable(3) %__data_.i.i.i35, ptr noundef nonnull align 1 dereferenceable(3) @.str.6, i64 3, i1 false)
  store i8 0, ptr %add.ptr.i.i.i46, align 4, !tbaa !5
  call void @llvm.lifetime.start.p0(i64 8, ptr nonnull %__parent.i.i49) #23
  %call.i.i67 = invoke noundef nonnull align 8 dereferenceable(8) ptr @_ZNSt3__16__treeINS_12__value_typeINS_12basic_stringIcNS_11char_traitsIcEENS_9allocatorIcEEEEN9benchmark7CounterEEENS_19__map_value_compareIS7_SA_NS_4lessIS7_EELb1EEENS5_ISA_EEE12__find_equalIS7_EERPNS_16__tree_node_baseIPvEERPNS_15__tree_end_nodeISL_EERKT_(ptr noundef nonnull align 8 dereferenceable(24) %counters, ptr noundef nonnull align 8 dereferenceable(8) %__parent.i.i49, ptr noundef nonnull align 8 dereferenceable(24) %ref.tmp9)
          to label %call.i.i.noexc66 unwind label %lpad10

call.i.i.noexc66:                                 ; preds = %_ZNK9benchmark5State10iterationsEv.exit
  %16 = load ptr, ptr %call.i.i67, align 8, !tbaa !8
  %cmp.i.i50 = icmp eq ptr %16, null
  br i1 %cmp.i.i50, label %if.then.i.i57, label %invoke.cont11

if.then.i.i57:                                    ; preds = %call.i.i.noexc66
  %call.i.i.i.i.i.i.i69 = invoke noalias noundef nonnull dereferenceable(72) ptr @_Znwm(i64 noundef 72) #24
          to label %call.i.i.i.i.i.i.i.noexc68 unwind label %lpad10

call.i.i.i.i.i.i.i.noexc68:                       ; preds = %if.then.i.i57
  %__value_.i.i.i51 = getelementptr inbounds %"class.std::__1::__tree_node", ptr %call.i.i.i.i.i.i.i69, i64 0, i32 1
  call void @llvm.memcpy.p0.p0.i64(ptr noundef nonnull align 8 dereferenceable(24) %__value_.i.i.i51, ptr noundef nonnull align 8 dereferenceable(24) %ref.tmp9, i64 24, i1 false), !noalias !51
  call void @llvm.memset.p0.i64(ptr noundef nonnull align 8 dereferenceable(24) %ref.tmp9, i8 0, i64 24, i1 false), !noalias !51
  %second.i.i.i.i.i.i.i52 = getelementptr inbounds %"class.std::__1::__tree_node", ptr %call.i.i.i.i.i.i.i69, i64 0, i32 1, i32 0, i32 1
  store double 0.000000e+00, ptr %second.i.i.i.i.i.i.i52, align 8, !tbaa !13, !noalias !51
  %flags.i.i.i.i.i.i.i.i53 = getelementptr inbounds %"class.std::__1::__tree_node", ptr %call.i.i.i.i.i.i.i69, i64 0, i32 1, i32 0, i32 1, i32 1
  store i32 0, ptr %flags.i.i.i.i.i.i.i.i53, align 8, !tbaa !18, !noalias !51
  %oneK.i.i.i.i.i.i.i.i54 = getelementptr inbounds %"class.std::__1::__tree_node", ptr %call.i.i.i.i.i.i.i69, i64 0, i32 1, i32 0, i32 1, i32 2
  store i32 1000, ptr %oneK.i.i.i.i.i.i.i.i54, align 4, !tbaa !19, !noalias !51
  %17 = load ptr, ptr %__parent.i.i49, align 8, !tbaa !8
  %__parent_.i.i.i55 = getelementptr inbounds %"class.std::__1::__tree_node_base", ptr %call.i.i.i.i.i.i.i69, i64 0, i32 2
  call void @llvm.memset.p0.i64(ptr noundef nonnull align 8 dereferenceable(16) %call.i.i.i.i.i.i.i69, i8 0, i64 16, i1 false)
  store ptr %17, ptr %__parent_.i.i.i55, align 8, !tbaa !20
  store ptr %call.i.i.i.i.i.i.i69, ptr %call.i.i67, align 8, !tbaa !8
  %18 = load ptr, ptr %counters, align 8, !tbaa !8
  %19 = load ptr, ptr %18, align 8, !tbaa !24
  %cmp.not.i.i.i56 = icmp eq ptr %19, null
  br i1 %cmp.not.i.i.i56, label %_ZNSt3__110unique_ptrINS_11__tree_nodeINS_12__value_typeINS_12basic_stringIcNS_11char_traitsIcEENS_9allocatorIcEEEEN9benchmark7CounterEEEPvEENS_22__tree_node_destructorINS6_ISD_EEEEED2B7v170000Ev.exit.i.i63, label %if.then.i.i.i59

if.then.i.i.i59:                                  ; preds = %call.i.i.i.i.i.i.i.noexc68
  store ptr %19, ptr %counters, align 8, !tbaa !8
  %.pre.i.i.i58 = load ptr, ptr %call.i.i67, align 8, !tbaa !8
  br label %_ZNSt3__110unique_ptrINS_11__tree_nodeINS_12__value_typeINS_12basic_stringIcNS_11char_traitsIcEENS_9allocatorIcEEEEN9benchmark7CounterEEEPvEENS_22__tree_node_destructorINS6_ISD_EEEEED2B7v170000Ev.exit.i.i63

_ZNSt3__110unique_ptrINS_11__tree_nodeINS_12__value_typeINS_12basic_stringIcNS_11char_traitsIcEENS_9allocatorIcEEEEN9benchmark7CounterEEEPvEENS_22__tree_node_destructorINS6_ISD_EEEEED2B7v170000Ev.exit.i.i63: ; preds = %if.then.i.i.i59, %call.i.i.i.i.i.i.i.noexc68
  %20 = phi ptr [ %.pre.i.i.i58, %if.then.i.i.i59 ], [ %call.i.i.i.i.i.i.i69, %call.i.i.i.i.i.i.i.noexc68 ]
  %__pair1_.i.i10.i.i60 = getelementptr inbounds %"class.benchmark::State", ptr %state, i64 0, i32 8, i32 0, i32 1
  %21 = load ptr, ptr %__pair1_.i.i10.i.i60, align 8, !tbaa !24
  call void @_ZNSt3__127__tree_balance_after_insertB7v170000IPNS_16__tree_node_baseIPvEEEEvT_S5_(ptr noundef %21, ptr noundef %20) #23
  %__pair3_.i.i.i.i61 = getelementptr inbounds %"class.benchmark::State", ptr %state, i64 0, i32 8, i32 0, i32 2
  %22 = load i64, ptr %__pair3_.i.i.i.i61, align 8, !tbaa !25
  %inc.i.i.i62 = add i64 %22, 1
  store i64 %inc.i.i.i62, ptr %__pair3_.i.i.i.i61, align 8, !tbaa !25
  br label %invoke.cont11

invoke.cont11:                                    ; preds = %_ZNSt3__110unique_ptrINS_11__tree_nodeINS_12__value_typeINS_12basic_stringIcNS_11char_traitsIcEENS_9allocatorIcEEEEN9benchmark7CounterEEEPvEENS_22__tree_node_destructorINS6_ISD_EEEEED2B7v170000Ev.exit.i.i63, %call.i.i.noexc66
  %__r.0.i.i64 = phi ptr [ %call.i.i.i.i.i.i.i69, %_ZNSt3__110unique_ptrINS_11__tree_nodeINS_12__value_typeINS_12basic_stringIcNS_11char_traitsIcEENS_9allocatorIcEEEEN9benchmark7CounterEEEPvEENS_22__tree_node_destructorINS6_ISD_EEEEED2B7v170000Ev.exit.i.i63 ], [ %16, %call.i.i.noexc66 ]
  call void @llvm.lifetime.end.p0(i64 8, ptr nonnull %__parent.i.i49) #23
  %second.i65 = getelementptr inbounds %"class.std::__1::__tree_node", ptr %__r.0.i.i64, i64 0, i32 1, i32 0, i32 1
  store double %retval.0.i, ptr %second.i65, align 8, !tbaa.struct !27
  %ref.tmp6.sroa.5.0.second.i65.sroa_idx = getelementptr inbounds %"class.std::__1::__tree_node", ptr %__r.0.i.i64, i64 0, i32 1, i32 0, i32 1, i32 1
  store i32 0, ptr %ref.tmp6.sroa.5.0.second.i65.sroa_idx, align 8, !tbaa.struct !31
  %ref.tmp6.sroa.6.0.second.i65.sroa_idx = getelementptr inbounds %"class.std::__1::__tree_node", ptr %__r.0.i.i64, i64 0, i32 1, i32 0, i32 1, i32 2
  store i32 1000, ptr %ref.tmp6.sroa.6.0.second.i65.sroa_idx, align 4, !tbaa.struct !32
  %bf.load.i.i71 = load i8, ptr %ref.tmp9, align 8
  %bf.clear.i.i72 = and i8 %bf.load.i.i71, 1
  %tobool.i.not.i73 = icmp eq i8 %bf.clear.i.i72, 0
  br i1 %tobool.i.not.i73, label %_ZNSt3__112basic_stringIcNS_11char_traitsIcEENS_9allocatorIcEEED2Ev.exit77, label %if.then.i75

if.then.i75:                                      ; preds = %invoke.cont11
  %__data_.i.i74 = getelementptr inbounds %"struct.std::__1::basic_string<char>::__long", ptr %ref.tmp9, i64 0, i32 2
  %23 = load ptr, ptr %__data_.i.i74, align 8, !tbaa !5
  call void @_ZdlPv(ptr noundef %23) #25
  br label %_ZNSt3__112basic_stringIcNS_11char_traitsIcEENS_9allocatorIcEEED2Ev.exit77

_ZNSt3__112basic_stringIcNS_11char_traitsIcEENS_9allocatorIcEEED2Ev.exit77: ; preds = %invoke.cont11, %if.then.i75
  call void @llvm.lifetime.end.p0(i64 24, ptr nonnull %ref.tmp9) #23
  ret void

lpad:                                             ; preds = %if.then.i.i24, %entry
  %24 = landingpad { ptr, i32 }
          cleanup
  %bf.load.i.i78 = load i8, ptr %ref.tmp4, align 8
  %bf.clear.i.i79 = and i8 %bf.load.i.i78, 1
  %tobool.i.not.i80 = icmp eq i8 %bf.clear.i.i79, 0
  br i1 %tobool.i.not.i80, label %_ZNSt3__112basic_stringIcNS_11char_traitsIcEENS_9allocatorIcEEED2Ev.exit84, label %if.then.i82

if.then.i82:                                      ; preds = %lpad
  %__data_.i.i81 = getelementptr inbounds %"struct.std::__1::basic_string<char>::__long", ptr %ref.tmp4, i64 0, i32 2
  %25 = load ptr, ptr %__data_.i.i81, align 8, !tbaa !5
  call void @_ZdlPv(ptr noundef %25) #25
  br label %_ZNSt3__112basic_stringIcNS_11char_traitsIcEENS_9allocatorIcEEED2Ev.exit84

_ZNSt3__112basic_stringIcNS_11char_traitsIcEENS_9allocatorIcEEED2Ev.exit84: ; preds = %lpad, %if.then.i82
  call void @llvm.lifetime.end.p0(i64 24, ptr nonnull %ref.tmp4) #23
  br label %eh.resume

lpad10:                                           ; preds = %if.then.i.i57, %_ZNK9benchmark5State10iterationsEv.exit
  %26 = landingpad { ptr, i32 }
          cleanup
  %bf.load.i.i85 = load i8, ptr %ref.tmp9, align 8
  %bf.clear.i.i86 = and i8 %bf.load.i.i85, 1
  %tobool.i.not.i87 = icmp eq i8 %bf.clear.i.i86, 0
  br i1 %tobool.i.not.i87, label %_ZNSt3__112basic_stringIcNS_11char_traitsIcEENS_9allocatorIcEEED2Ev.exit91, label %if.then.i89

if.then.i89:                                      ; preds = %lpad10
  %__data_.i.i88 = getelementptr inbounds %"struct.std::__1::basic_string<char>::__long", ptr %ref.tmp9, i64 0, i32 2
  %27 = load ptr, ptr %__data_.i.i88, align 8, !tbaa !5
  call void @_ZdlPv(ptr noundef %27) #25
  br label %_ZNSt3__112basic_stringIcNS_11char_traitsIcEENS_9allocatorIcEEED2Ev.exit91

_ZNSt3__112basic_stringIcNS_11char_traitsIcEENS_9allocatorIcEEED2Ev.exit91: ; preds = %lpad10, %if.then.i89
  call void @llvm.lifetime.end.p0(i64 24, ptr nonnull %ref.tmp9) #23
  br label %eh.resume

eh.resume:                                        ; preds = %_ZNSt3__112basic_stringIcNS_11char_traitsIcEENS_9allocatorIcEEED2Ev.exit91, %_ZNSt3__112basic_stringIcNS_11char_traitsIcEENS_9allocatorIcEEED2Ev.exit84
  %.pn = phi { ptr, i32 } [ %26, %_ZNSt3__112basic_stringIcNS_11char_traitsIcEENS_9allocatorIcEEED2Ev.exit91 ], [ %24, %_ZNSt3__112basic_stringIcNS_11char_traitsIcEENS_9allocatorIcEEED2Ev.exit84 ]
  resume { ptr, i32 } %.pn
}

; Function Attrs: mustprogress nocallback nofree nounwind willreturn memory(argmem: readwrite)
declare void @llvm.memcpy.p0.p0.i64(ptr noalias nocapture writeonly, ptr noalias nocapture readonly, i64, i1 immarg) #3

declare noundef ptr @_ZN9benchmark8internal25RegisterBenchmarkInternalEPNS0_9BenchmarkE(ptr noundef) local_unnamed_addr #0

; Function Attrs: nobuiltin allocsize(0)
declare noundef nonnull ptr @_Znwm(i64 noundef) local_unnamed_addr #4

; Function Attrs: nobuiltin nounwind
declare void @_ZdlPv(ptr noundef) local_unnamed_addr #5

; Function Attrs: uwtable
define hidden void @_Z11CheckSimpleRK7Results(ptr noundef nonnull align 8 dereferenceable(48) %e) #2 personality ptr @__gxx_personality_v0 {
entry:
  %ref.tmp = alloca %"class.benchmark::internal::CheckHandler", align 8
  %ref.tmp75 = alloca %"class.benchmark::internal::CheckHandler", align 8
  %call = tail call noundef double @_ZNK7Results13NumIterationsEv(ptr noundef nonnull align 8 dereferenceable(48) %e)
  %call.i = tail call noundef double @_ZNK7Results5GetAsIdEET_PKc(ptr noundef nonnull align 8 dereferenceable(48) %e, ptr noundef nonnull @.str.5)
  %conv.i = fptosi double %call.i to i32
  %cmp.not = icmp eq i32 %conv.i, 1
  br i1 %cmp.not, label %cond.true, label %cond.false

cond.true:                                        ; preds = %entry
  %0 = load atomic i8, ptr @_ZGVZN9benchmark8internal18GetNullLogInstanceEvE3log acquire, align 8
  %guard.uninitialized.i = icmp eq i8 %0, 0
  br i1 %guard.uninitialized.i, label %init.check.i, label %cond.end, !prof !54

init.check.i:                                     ; preds = %cond.true
  %1 = tail call i32 @__cxa_guard_acquire(ptr nonnull @_ZGVZN9benchmark8internal18GetNullLogInstanceEvE3log) #23
  %tobool.not.i = icmp eq i32 %1, 0
  br i1 %tobool.not.i, label %cond.end, label %init.i

init.i:                                           ; preds = %init.check.i
  store ptr null, ptr @_ZZN9benchmark8internal18GetNullLogInstanceEvE3log, align 8, !tbaa !55
  tail call void @__cxa_guard_release(ptr nonnull @_ZGVZN9benchmark8internal18GetNullLogInstanceEvE3log) #23
  br label %cond.end

cond.false:                                       ; preds = %entry
  call void @llvm.lifetime.start.p0(i64 8, ptr nonnull %ref.tmp) #23
  call void @_ZN9benchmark8internal12CheckHandlerC2EPKcS3_S3_i(ptr noundef nonnull align 8 dereferenceable(8) %ref.tmp, ptr noundef nonnull @.str.29, ptr noundef nonnull @.str.30, ptr noundef nonnull @__func__._Z11CheckSimpleRK7Results, i32 noundef 54)
  %2 = load ptr, ptr %ref.tmp, align 8, !tbaa !57
  br label %cond.end

cond.end:                                         ; preds = %init.i, %init.check.i, %cond.true, %cond.false
  %cond-lvalue = phi ptr [ %2, %cond.false ], [ @_ZZN9benchmark8internal18GetNullLogInstanceEvE3log, %cond.true ], [ @_ZZN9benchmark8internal18GetNullLogInstanceEvE3log, %init.check.i ], [ @_ZZN9benchmark8internal18GetNullLogInstanceEvE3log, %init.i ]
  %3 = load ptr, ptr %cond-lvalue, align 8, !tbaa !55
  %tobool.not.i247 = icmp eq ptr %3, null
  br i1 %tobool.not.i247, label %invoke.cont39, label %if.then.i

if.then.i:                                        ; preds = %cond.end
  %call1.i.i248 = invoke noundef nonnull align 8 dereferenceable(8) ptr @_ZNSt3__124__put_character_sequenceB7v170000IcNS_11char_traitsIcEEEERNS_13basic_ostreamIT_T0_EES7_PKS4_m(ptr noundef nonnull align 8 dereferenceable(8) %3, ptr noundef nonnull @.str.31, i64 noundef 1)
          to label %invoke.cont5 unwind label %lpad

invoke.cont5:                                     ; preds = %if.then.i
  %.pr = load ptr, ptr %cond-lvalue, align 8, !tbaa !55
  %tobool.not.i249 = icmp eq ptr %.pr, null
  br i1 %tobool.not.i249, label %invoke.cont39, label %if.then.i251

if.then.i251:                                     ; preds = %invoke.cont5
  %call1.i.i253 = invoke noundef nonnull align 8 dereferenceable(8) ptr @_ZNSt3__124__put_character_sequenceB7v170000IcNS_11char_traitsIcEEEERNS_13basic_ostreamIT_T0_EES7_PKS4_m(ptr noundef nonnull align 8 dereferenceable(8) %.pr, ptr noundef nonnull @.str.30, i64 noundef 109)
          to label %invoke.cont7 unwind label %lpad

invoke.cont7:                                     ; preds = %if.then.i251
  %.pr567 = load ptr, ptr %cond-lvalue, align 8, !tbaa !55
  %tobool.not.i254 = icmp eq ptr %.pr567, null
  br i1 %tobool.not.i254, label %invoke.cont39, label %if.then.i256

if.then.i256:                                     ; preds = %invoke.cont7
  %call1.i.i258 = invoke noundef nonnull align 8 dereferenceable(8) ptr @_ZNSt3__124__put_character_sequenceB7v170000IcNS_11char_traitsIcEEEERNS_13basic_ostreamIT_T0_EES7_PKS4_m(ptr noundef nonnull align 8 dereferenceable(8) %.pr567, ptr noundef nonnull @.str.32, i64 noundef 1)
          to label %invoke.cont9 unwind label %lpad

invoke.cont9:                                     ; preds = %if.then.i256
  %.pr569.pr = load ptr, ptr %cond-lvalue, align 8, !tbaa !55
  %tobool.not.i260 = icmp eq ptr %.pr569.pr, null
  br i1 %tobool.not.i260, label %invoke.cont39, label %if.then.i262

if.then.i262:                                     ; preds = %invoke.cont9
  %call.i261263 = invoke noundef nonnull align 8 dereferenceable(8) ptr @_ZNSt3__113basic_ostreamIcNS_11char_traitsIcEEElsEi(ptr noundef nonnull align 8 dereferenceable(8) %.pr569.pr, i32 noundef 54)
          to label %invoke.cont13 unwind label %lpad12

invoke.cont13:                                    ; preds = %if.then.i262
  %.pr571 = load ptr, ptr %cond-lvalue, align 8, !tbaa !55
  %tobool.not.i264 = icmp eq ptr %.pr571, null
  br i1 %tobool.not.i264, label %invoke.cont39, label %if.then.i266

if.then.i266:                                     ; preds = %invoke.cont13
  %call1.i.i268 = invoke noundef nonnull align 8 dereferenceable(8) ptr @_ZNSt3__124__put_character_sequenceB7v170000IcNS_11char_traitsIcEEEERNS_13basic_ostreamIT_T0_EES7_PKS4_m(ptr noundef nonnull align 8 dereferenceable(8) %.pr571, ptr noundef nonnull @.str.33, i64 noundef 2)
          to label %invoke.cont15 unwind label %lpad12

invoke.cont15:                                    ; preds = %if.then.i266
  %.pr573.pr.pr = load ptr, ptr %cond-lvalue, align 8, !tbaa !55
  %tobool.not.i269 = icmp eq ptr %.pr573.pr.pr, null
  br i1 %tobool.not.i269, label %invoke.cont39, label %if.then.i270

if.then.i270:                                     ; preds = %invoke.cont15
  %bf.load.i.i.i.i.i = load i8, ptr %e, align 8
  %bf.clear.i.i.i.i.i = and i8 %bf.load.i.i.i.i.i, 1
  %tobool.i.not.i.i.i.i = icmp eq i8 %bf.clear.i.i.i.i.i, 0
  %__data_.i.i.i.i.i = getelementptr inbounds %"struct.std::__1::basic_string<char>::__long", ptr %e, i64 0, i32 2
  %4 = load ptr, ptr %__data_.i.i.i.i.i, align 8
  %__data_.i4.i.i.i.i = getelementptr inbounds %"struct.std::__1::basic_string<char>::__short", ptr %e, i64 0, i32 2
  %cond.i.i.i.i = select i1 %tobool.i.not.i.i.i.i, ptr %__data_.i4.i.i.i.i, ptr %4
  %__size_.i.i.i.i = getelementptr inbounds %"struct.std::__1::basic_string<char>::__long", ptr %e, i64 0, i32 1
  %5 = load i64, ptr %__size_.i.i.i.i, align 8
  %bf.lshr.i.i.i.i = lshr i8 %bf.load.i.i.i.i.i, 1
  %conv.i.i.i.i = zext i8 %bf.lshr.i.i.i.i to i64
  %cond.i.i.i = select i1 %tobool.i.not.i.i.i.i, i64 %conv.i.i.i.i, i64 %5
  %call2.i.i271 = invoke noundef nonnull align 8 dereferenceable(8) ptr @_ZNSt3__124__put_character_sequenceB7v170000IcNS_11char_traitsIcEEEERNS_13basic_ostreamIT_T0_EES7_PKS4_m(ptr noundef nonnull align 8 dereferenceable(8) %.pr573.pr.pr, ptr noundef %cond.i.i.i.i, i64 noundef %cond.i.i.i)
          to label %invoke.cont17 unwind label %lpad12

invoke.cont17:                                    ; preds = %if.then.i270
  %.pr575 = load ptr, ptr %cond-lvalue, align 8, !tbaa !55
  %tobool.not.i272 = icmp eq ptr %.pr575, null
  br i1 %tobool.not.i272, label %invoke.cont39, label %if.then.i274

if.then.i274:                                     ; preds = %invoke.cont17
  %call1.i.i276 = invoke noundef nonnull align 8 dereferenceable(8) ptr @_ZNSt3__124__put_character_sequenceB7v170000IcNS_11char_traitsIcEEEERNS_13basic_ostreamIT_T0_EES7_PKS4_m(ptr noundef nonnull align 8 dereferenceable(8) %.pr575, ptr noundef nonnull @.str.34, i64 noundef 2)
          to label %invoke.cont19 unwind label %lpad12

invoke.cont19:                                    ; preds = %if.then.i274
  %.pr577.pr.pr = load ptr, ptr %cond-lvalue, align 8, !tbaa !55
  %tobool.not.i278 = icmp eq ptr %.pr577.pr.pr, null
  br i1 %tobool.not.i278, label %invoke.cont39, label %if.then.i280

if.then.i280:                                     ; preds = %invoke.cont19
  %call1.i.i282 = invoke noundef nonnull align 8 dereferenceable(8) ptr @_ZNSt3__124__put_character_sequenceB7v170000IcNS_11char_traitsIcEEEERNS_13basic_ostreamIT_T0_EES7_PKS4_m(ptr noundef nonnull align 8 dereferenceable(8) %.pr577.pr.pr, ptr noundef nonnull @.str.30, i64 noundef 109)
          to label %invoke.cont21 unwind label %lpad12

invoke.cont21:                                    ; preds = %if.then.i280
  %.pr579 = load ptr, ptr %cond-lvalue, align 8, !tbaa !55
  %tobool.not.i284 = icmp eq ptr %.pr579, null
  br i1 %tobool.not.i284, label %invoke.cont39, label %if.then.i286

if.then.i286:                                     ; preds = %invoke.cont21
  %call1.i.i288 = invoke noundef nonnull align 8 dereferenceable(8) ptr @_ZNSt3__124__put_character_sequenceB7v170000IcNS_11char_traitsIcEEEERNS_13basic_ostreamIT_T0_EES7_PKS4_m(ptr noundef nonnull align 8 dereferenceable(8) %.pr579, ptr noundef nonnull @.str.32, i64 noundef 1)
          to label %invoke.cont23 unwind label %lpad12

invoke.cont23:                                    ; preds = %if.then.i286
  %.pr581.pr.pr.pr = load ptr, ptr %cond-lvalue, align 8, !tbaa !55
  %tobool.not.i290 = icmp eq ptr %.pr581.pr.pr.pr, null
  br i1 %tobool.not.i290, label %invoke.cont39, label %if.then.i292

if.then.i292:                                     ; preds = %invoke.cont23
  %call.i291293 = invoke noundef nonnull align 8 dereferenceable(8) ptr @_ZNSt3__113basic_ostreamIcNS_11char_traitsIcEEElsEi(ptr noundef nonnull align 8 dereferenceable(8) %.pr581.pr.pr.pr, i32 noundef 54)
          to label %invoke.cont27 unwind label %lpad26

invoke.cont27:                                    ; preds = %if.then.i292
  %.pr583 = load ptr, ptr %cond-lvalue, align 8, !tbaa !55
  %tobool.not.i295 = icmp eq ptr %.pr583, null
  br i1 %tobool.not.i295, label %invoke.cont39, label %if.then.i297

if.then.i297:                                     ; preds = %invoke.cont27
  %call1.i.i299 = invoke noundef nonnull align 8 dereferenceable(8) ptr @_ZNSt3__124__put_character_sequenceB7v170000IcNS_11char_traitsIcEEEERNS_13basic_ostreamIT_T0_EES7_PKS4_m(ptr noundef nonnull align 8 dereferenceable(8) %.pr583, ptr noundef nonnull @.str.33, i64 noundef 2)
          to label %invoke.cont29 unwind label %lpad26

invoke.cont29:                                    ; preds = %if.then.i297
  %.pr585.pr.pr.pr = load ptr, ptr %cond-lvalue, align 8, !tbaa !55
  %tobool.not.i301 = icmp eq ptr %.pr585.pr.pr.pr, null
  br i1 %tobool.not.i301, label %invoke.cont39, label %if.then.i303

if.then.i303:                                     ; preds = %invoke.cont29
  %call1.i.i305 = invoke noundef nonnull align 8 dereferenceable(8) ptr @_ZNSt3__124__put_character_sequenceB7v170000IcNS_11char_traitsIcEEEERNS_13basic_ostreamIT_T0_EES7_PKS4_m(ptr noundef nonnull align 8 dereferenceable(8) %.pr585.pr.pr.pr, ptr noundef nonnull @.str.35, i64 noundef 10)
          to label %invoke.cont31 unwind label %lpad26

invoke.cont31:                                    ; preds = %if.then.i303
  %.pr587 = load ptr, ptr %cond-lvalue, align 8, !tbaa !55
  %tobool.not.i306 = icmp eq ptr %.pr587, null
  br i1 %tobool.not.i306, label %invoke.cont39, label %if.then.i308

if.then.i308:                                     ; preds = %invoke.cont31
  %call1.i.i310 = invoke noundef nonnull align 8 dereferenceable(8) ptr @_ZNSt3__124__put_character_sequenceB7v170000IcNS_11char_traitsIcEEEERNS_13basic_ostreamIT_T0_EES7_PKS4_m(ptr noundef nonnull align 8 dereferenceable(8) %.pr587, ptr noundef nonnull @.str.36, i64 noundef 3)
          to label %invoke.cont33 unwind label %lpad26

invoke.cont33:                                    ; preds = %if.then.i308
  %.pr589.pr.pr.pr = load ptr, ptr %cond-lvalue, align 8, !tbaa !55
  %tobool.not.i311 = icmp eq ptr %.pr589.pr.pr.pr, null
  br i1 %tobool.not.i311, label %invoke.cont39, label %if.then.i313

if.then.i313:                                     ; preds = %invoke.cont33
  %call1.i.i315 = invoke noundef nonnull align 8 dereferenceable(8) ptr @_ZNSt3__124__put_character_sequenceB7v170000IcNS_11char_traitsIcEEEERNS_13basic_ostreamIT_T0_EES7_PKS4_m(ptr noundef nonnull align 8 dereferenceable(8) %.pr589.pr.pr.pr, ptr noundef nonnull @.str.37, i64 noundef 1)
          to label %invoke.cont35 unwind label %lpad26

invoke.cont35:                                    ; preds = %if.then.i313
  %.pr591 = load ptr, ptr %cond-lvalue, align 8, !tbaa !55
  %tobool.not.i317 = icmp eq ptr %.pr591, null
  br i1 %tobool.not.i317, label %invoke.cont39, label %if.then.i319

if.then.i319:                                     ; preds = %invoke.cont35
  %call1.i.i321 = invoke noundef nonnull align 8 dereferenceable(8) ptr @_ZNSt3__124__put_character_sequenceB7v170000IcNS_11char_traitsIcEEEERNS_13basic_ostreamIT_T0_EES7_PKS4_m(ptr noundef nonnull align 8 dereferenceable(8) %.pr591, ptr noundef nonnull @.str.5, i64 noundef 3)
          to label %invoke.cont37 unwind label %lpad26

invoke.cont37:                                    ; preds = %if.then.i319
  %.pr593.pr.pr.pr = load ptr, ptr %cond-lvalue, align 8, !tbaa !55
  %tobool.not.i323 = icmp eq ptr %.pr593.pr.pr.pr, null
  br i1 %tobool.not.i323, label %invoke.cont39, label %if.then.i325

if.then.i325:                                     ; preds = %invoke.cont37
  %call1.i.i327 = invoke noundef nonnull align 8 dereferenceable(8) ptr @_ZNSt3__124__put_character_sequenceB7v170000IcNS_11char_traitsIcEEEERNS_13basic_ostreamIT_T0_EES7_PKS4_m(ptr noundef nonnull align 8 dereferenceable(8) %.pr593.pr.pr.pr, ptr noundef nonnull @.str.38, i64 noundef 1)
          to label %invoke.cont39 unwind label %lpad26

invoke.cont39:                                    ; preds = %invoke.cont19, %invoke.cont17, %invoke.cont15, %invoke.cont13, %invoke.cont9, %invoke.cont7, %invoke.cont5, %cond.end, %invoke.cont27, %invoke.cont29, %invoke.cont21, %invoke.cont23, %invoke.cont33, %invoke.cont31, %invoke.cont35, %invoke.cont37, %if.then.i325
  %call.i329331 = invoke noundef double @_ZNK7Results5GetAsIdEET_PKc(ptr noundef nonnull align 8 dereferenceable(48) %e, ptr noundef nonnull @.str.5)
          to label %invoke.cont43 unwind label %lpad42

invoke.cont43:                                    ; preds = %invoke.cont39
  %6 = load ptr, ptr %cond-lvalue, align 8, !tbaa !55
  %tobool.not.i332 = icmp eq ptr %6, null
  br i1 %tobool.not.i332, label %invoke.cont53, label %if.then.i334

if.then.i334:                                     ; preds = %invoke.cont43
  %conv.i330 = fptosi double %call.i329331 to i32
  %call.i333335 = invoke noundef nonnull align 8 dereferenceable(8) ptr @_ZNSt3__113basic_ostreamIcNS_11char_traitsIcEEElsEi(ptr noundef nonnull align 8 dereferenceable(8) %6, i32 noundef %conv.i330)
          to label %invoke.cont45 unwind label %lpad42

invoke.cont45:                                    ; preds = %if.then.i334
  %.pr595 = load ptr, ptr %cond-lvalue, align 8, !tbaa !55
  %tobool.not.i337 = icmp eq ptr %.pr595, null
  br i1 %tobool.not.i337, label %invoke.cont53, label %if.then.i339

if.then.i339:                                     ; preds = %invoke.cont45
  %call1.i.i341 = invoke noundef nonnull align 8 dereferenceable(8) ptr @_ZNSt3__124__put_character_sequenceB7v170000IcNS_11char_traitsIcEEEERNS_13basic_ostreamIT_T0_EES7_PKS4_m(ptr noundef nonnull align 8 dereferenceable(8) %.pr595, ptr noundef nonnull @.str.39, i64 noundef 13)
          to label %invoke.cont47 unwind label %lpad42

invoke.cont47:                                    ; preds = %if.then.i339
  %.pr597 = load ptr, ptr %cond-lvalue, align 8, !tbaa !55
  %tobool.not.i342 = icmp eq ptr %.pr597, null
  br i1 %tobool.not.i342, label %invoke.cont53, label %if.then.i344

if.then.i344:                                     ; preds = %invoke.cont47
  %call.i343345 = invoke noundef nonnull align 8 dereferenceable(8) ptr @_ZNSt3__113basic_ostreamIcNS_11char_traitsIcEEElsEi(ptr noundef nonnull align 8 dereferenceable(8) %.pr597, i32 noundef 1)
          to label %invoke.cont51 unwind label %lpad50

invoke.cont51:                                    ; preds = %if.then.i344
  %.pr599.pr = load ptr, ptr %cond-lvalue, align 8, !tbaa !55
  %tobool.not.i347 = icmp eq ptr %.pr599.pr, null
  br i1 %tobool.not.i347, label %invoke.cont53, label %if.then.i349

if.then.i349:                                     ; preds = %invoke.cont51
  %call1.i.i351 = invoke noundef nonnull align 8 dereferenceable(8) ptr @_ZNSt3__124__put_character_sequenceB7v170000IcNS_11char_traitsIcEEEERNS_13basic_ostreamIT_T0_EES7_PKS4_m(ptr noundef nonnull align 8 dereferenceable(8) %.pr599.pr, ptr noundef nonnull @.str.31, i64 noundef 1)
          to label %invoke.cont53 unwind label %lpad50

invoke.cont53:                                    ; preds = %invoke.cont45, %invoke.cont43, %invoke.cont47, %invoke.cont51, %if.then.i349
  br i1 %cmp.not, label %cleanup.done64, label %cleanup.action

cleanup.action:                                   ; preds = %invoke.cont53
  call void @_ZN9benchmark8internal12CheckHandlerD2Ev(ptr noundef nonnull align 8 dereferenceable(8) %ref.tmp) #26
  unreachable

lpad:                                             ; preds = %if.then.i256, %if.then.i251, %if.then.i
  %7 = landingpad { ptr, i32 }
          cleanup
  br label %ehcleanup57

lpad12:                                           ; preds = %if.then.i286, %if.then.i280, %if.then.i274, %if.then.i270, %if.then.i266, %if.then.i262
  %8 = landingpad { ptr, i32 }
          cleanup
  br label %ehcleanup57

lpad26:                                           ; preds = %if.then.i325, %if.then.i319, %if.then.i313, %if.then.i308, %if.then.i303, %if.then.i297, %if.then.i292
  %9 = landingpad { ptr, i32 }
          cleanup
  br label %ehcleanup57

lpad42:                                           ; preds = %if.then.i339, %if.then.i334, %invoke.cont39
  %10 = landingpad { ptr, i32 }
          cleanup
  br label %ehcleanup57

lpad50:                                           ; preds = %if.then.i349, %if.then.i344
  %11 = landingpad { ptr, i32 }
          cleanup
  br label %ehcleanup57

cleanup.done64:                                   ; preds = %invoke.cont53
  %call.i353 = call noundef double @_ZNK7Results5GetAsIdEET_PKc(ptr noundef nonnull align 8 dereferenceable(48) %e, ptr noundef nonnull @.str.6)
  %12 = call double @llvm.fmuladd.f64(double %call, double -2.000000e+00, double %call.i353)
  %13 = call double @llvm.fabs.f64(double %12)
  %mul = fmul double %call, 2.000000e+00
  %mul70 = fmul double %mul, 1.000000e-03
  %cmp71 = fcmp uge double %13, %mul70
  br i1 %cmp71, label %cond.false74, label %cond.true72

cond.true72:                                      ; preds = %cleanup.done64
  %14 = load atomic i8, ptr @_ZGVZN9benchmark8internal18GetNullLogInstanceEvE3log acquire, align 8
  %guard.uninitialized.i354 = icmp eq i8 %14, 0
  br i1 %guard.uninitialized.i354, label %init.check.i356, label %cond.end81, !prof !54

init.check.i356:                                  ; preds = %cond.true72
  %15 = call i32 @__cxa_guard_acquire(ptr nonnull @_ZGVZN9benchmark8internal18GetNullLogInstanceEvE3log) #23
  %tobool.not.i355 = icmp eq i32 %15, 0
  br i1 %tobool.not.i355, label %cond.end81, label %init.i357

init.i357:                                        ; preds = %init.check.i356
  store ptr null, ptr @_ZZN9benchmark8internal18GetNullLogInstanceEvE3log, align 8, !tbaa !55
  call void @__cxa_guard_release(ptr nonnull @_ZGVZN9benchmark8internal18GetNullLogInstanceEvE3log) #23
  br label %cond.end81

cond.false74:                                     ; preds = %cleanup.done64
  call void @llvm.lifetime.start.p0(i64 8, ptr nonnull %ref.tmp75) #23
  call void @_ZN9benchmark8internal12CheckHandlerC2EPKcS3_S3_i(ptr noundef nonnull align 8 dereferenceable(8) %ref.tmp75, ptr noundef nonnull @.str.40, ptr noundef nonnull @.str.30, ptr noundef nonnull @__func__._Z11CheckSimpleRK7Results, i32 noundef 56)
  %16 = load ptr, ptr %ref.tmp75, align 8, !tbaa !57
  br label %cond.end81

cond.end81:                                       ; preds = %init.i357, %init.check.i356, %cond.true72, %cond.false74
  %cond-lvalue82 = phi ptr [ %16, %cond.false74 ], [ @_ZZN9benchmark8internal18GetNullLogInstanceEvE3log, %cond.true72 ], [ @_ZZN9benchmark8internal18GetNullLogInstanceEvE3log, %init.check.i356 ], [ @_ZZN9benchmark8internal18GetNullLogInstanceEvE3log, %init.i357 ]
  %17 = load ptr, ptr %cond-lvalue82, align 8, !tbaa !55
  %tobool.not.i359 = icmp eq ptr %17, null
  br i1 %tobool.not.i359, label %invoke.cont118, label %if.then.i361

if.then.i361:                                     ; preds = %cond.end81
  %call1.i.i363 = invoke noundef nonnull align 8 dereferenceable(8) ptr @_ZNSt3__124__put_character_sequenceB7v170000IcNS_11char_traitsIcEEEERNS_13basic_ostreamIT_T0_EES7_PKS4_m(ptr noundef nonnull align 8 dereferenceable(8) %17, ptr noundef nonnull @.str.31, i64 noundef 1)
          to label %invoke.cont83 unwind label %lpad78

invoke.cont83:                                    ; preds = %if.then.i361
  %.pr601 = load ptr, ptr %cond-lvalue82, align 8, !tbaa !55
  %tobool.not.i365 = icmp eq ptr %.pr601, null
  br i1 %tobool.not.i365, label %invoke.cont118, label %if.then.i367

if.then.i367:                                     ; preds = %invoke.cont83
  %call1.i.i369 = invoke noundef nonnull align 8 dereferenceable(8) ptr @_ZNSt3__124__put_character_sequenceB7v170000IcNS_11char_traitsIcEEEERNS_13basic_ostreamIT_T0_EES7_PKS4_m(ptr noundef nonnull align 8 dereferenceable(8) %.pr601, ptr noundef nonnull @.str.30, i64 noundef 109)
          to label %invoke.cont85 unwind label %lpad78

invoke.cont85:                                    ; preds = %if.then.i367
  %.pr603 = load ptr, ptr %cond-lvalue82, align 8, !tbaa !55
  %tobool.not.i371 = icmp eq ptr %.pr603, null
  br i1 %tobool.not.i371, label %invoke.cont118, label %if.then.i373

if.then.i373:                                     ; preds = %invoke.cont85
  %call1.i.i375 = invoke noundef nonnull align 8 dereferenceable(8) ptr @_ZNSt3__124__put_character_sequenceB7v170000IcNS_11char_traitsIcEEEERNS_13basic_ostreamIT_T0_EES7_PKS4_m(ptr noundef nonnull align 8 dereferenceable(8) %.pr603, ptr noundef nonnull @.str.32, i64 noundef 1)
          to label %invoke.cont87 unwind label %lpad78

invoke.cont87:                                    ; preds = %if.then.i373
  %.pr605.pr = load ptr, ptr %cond-lvalue82, align 8, !tbaa !55
  %tobool.not.i377 = icmp eq ptr %.pr605.pr, null
  br i1 %tobool.not.i377, label %invoke.cont118, label %if.then.i379

if.then.i379:                                     ; preds = %invoke.cont87
  %call.i378380 = invoke noundef nonnull align 8 dereferenceable(8) ptr @_ZNSt3__113basic_ostreamIcNS_11char_traitsIcEEElsEi(ptr noundef nonnull align 8 dereferenceable(8) %.pr605.pr, i32 noundef 56)
          to label %invoke.cont91 unwind label %lpad90

invoke.cont91:                                    ; preds = %if.then.i379
  %.pr607 = load ptr, ptr %cond-lvalue82, align 8, !tbaa !55
  %tobool.not.i382 = icmp eq ptr %.pr607, null
  br i1 %tobool.not.i382, label %invoke.cont118, label %if.then.i384

if.then.i384:                                     ; preds = %invoke.cont91
  %call1.i.i386 = invoke noundef nonnull align 8 dereferenceable(8) ptr @_ZNSt3__124__put_character_sequenceB7v170000IcNS_11char_traitsIcEEEERNS_13basic_ostreamIT_T0_EES7_PKS4_m(ptr noundef nonnull align 8 dereferenceable(8) %.pr607, ptr noundef nonnull @.str.33, i64 noundef 2)
          to label %invoke.cont93 unwind label %lpad90

invoke.cont93:                                    ; preds = %if.then.i384
  %.pr609.pr.pr = load ptr, ptr %cond-lvalue82, align 8, !tbaa !55
  %tobool.not.i388 = icmp eq ptr %.pr609.pr.pr, null
  br i1 %tobool.not.i388, label %invoke.cont118, label %if.then.i399

if.then.i399:                                     ; preds = %invoke.cont93
  %bf.load.i.i.i.i.i389 = load i8, ptr %e, align 8
  %bf.clear.i.i.i.i.i390 = and i8 %bf.load.i.i.i.i.i389, 1
  %tobool.i.not.i.i.i.i391 = icmp eq i8 %bf.clear.i.i.i.i.i390, 0
  %__data_.i.i.i.i.i392 = getelementptr inbounds %"struct.std::__1::basic_string<char>::__long", ptr %e, i64 0, i32 2
  %18 = load ptr, ptr %__data_.i.i.i.i.i392, align 8
  %__data_.i4.i.i.i.i393 = getelementptr inbounds %"struct.std::__1::basic_string<char>::__short", ptr %e, i64 0, i32 2
  %cond.i.i.i.i394 = select i1 %tobool.i.not.i.i.i.i391, ptr %__data_.i4.i.i.i.i393, ptr %18
  %__size_.i.i.i.i395 = getelementptr inbounds %"struct.std::__1::basic_string<char>::__long", ptr %e, i64 0, i32 1
  %19 = load i64, ptr %__size_.i.i.i.i395, align 8
  %bf.lshr.i.i.i.i396 = lshr i8 %bf.load.i.i.i.i.i389, 1
  %conv.i.i.i.i397 = zext i8 %bf.lshr.i.i.i.i396 to i64
  %cond.i.i.i398 = select i1 %tobool.i.not.i.i.i.i391, i64 %conv.i.i.i.i397, i64 %19
  %call2.i.i401 = invoke noundef nonnull align 8 dereferenceable(8) ptr @_ZNSt3__124__put_character_sequenceB7v170000IcNS_11char_traitsIcEEEERNS_13basic_ostreamIT_T0_EES7_PKS4_m(ptr noundef nonnull align 8 dereferenceable(8) %.pr609.pr.pr, ptr noundef %cond.i.i.i.i394, i64 noundef %cond.i.i.i398)
          to label %invoke.cont96 unwind label %lpad90

invoke.cont96:                                    ; preds = %if.then.i399
  %.pr611 = load ptr, ptr %cond-lvalue82, align 8, !tbaa !55
  %tobool.not.i403 = icmp eq ptr %.pr611, null
  br i1 %tobool.not.i403, label %invoke.cont118, label %if.then.i405

if.then.i405:                                     ; preds = %invoke.cont96
  %call1.i.i407 = invoke noundef nonnull align 8 dereferenceable(8) ptr @_ZNSt3__124__put_character_sequenceB7v170000IcNS_11char_traitsIcEEEERNS_13basic_ostreamIT_T0_EES7_PKS4_m(ptr noundef nonnull align 8 dereferenceable(8) %.pr611, ptr noundef nonnull @.str.34, i64 noundef 2)
          to label %invoke.cont98 unwind label %lpad90

invoke.cont98:                                    ; preds = %if.then.i405
  %.pr613.pr.pr = load ptr, ptr %cond-lvalue82, align 8, !tbaa !55
  %tobool.not.i409 = icmp eq ptr %.pr613.pr.pr, null
  br i1 %tobool.not.i409, label %invoke.cont118, label %if.then.i411

if.then.i411:                                     ; preds = %invoke.cont98
  %call1.i.i413 = invoke noundef nonnull align 8 dereferenceable(8) ptr @_ZNSt3__124__put_character_sequenceB7v170000IcNS_11char_traitsIcEEEERNS_13basic_ostreamIT_T0_EES7_PKS4_m(ptr noundef nonnull align 8 dereferenceable(8) %.pr613.pr.pr, ptr noundef nonnull @.str.30, i64 noundef 109)
          to label %invoke.cont100 unwind label %lpad90

invoke.cont100:                                   ; preds = %if.then.i411
  %.pr615 = load ptr, ptr %cond-lvalue82, align 8, !tbaa !55
  %tobool.not.i415 = icmp eq ptr %.pr615, null
  br i1 %tobool.not.i415, label %invoke.cont118, label %if.then.i417

if.then.i417:                                     ; preds = %invoke.cont100
  %call1.i.i419 = invoke noundef nonnull align 8 dereferenceable(8) ptr @_ZNSt3__124__put_character_sequenceB7v170000IcNS_11char_traitsIcEEEERNS_13basic_ostreamIT_T0_EES7_PKS4_m(ptr noundef nonnull align 8 dereferenceable(8) %.pr615, ptr noundef nonnull @.str.32, i64 noundef 1)
          to label %invoke.cont102 unwind label %lpad90

invoke.cont102:                                   ; preds = %if.then.i417
  %.pr617.pr.pr.pr = load ptr, ptr %cond-lvalue82, align 8, !tbaa !55
  %tobool.not.i421 = icmp eq ptr %.pr617.pr.pr.pr, null
  br i1 %tobool.not.i421, label %invoke.cont118, label %if.then.i423

if.then.i423:                                     ; preds = %invoke.cont102
  %call.i422424 = invoke noundef nonnull align 8 dereferenceable(8) ptr @_ZNSt3__113basic_ostreamIcNS_11char_traitsIcEEElsEi(ptr noundef nonnull align 8 dereferenceable(8) %.pr617.pr.pr.pr, i32 noundef 56)
          to label %invoke.cont106 unwind label %lpad105

invoke.cont106:                                   ; preds = %if.then.i423
  %.pr619 = load ptr, ptr %cond-lvalue82, align 8, !tbaa !55
  %tobool.not.i426 = icmp eq ptr %.pr619, null
  br i1 %tobool.not.i426, label %invoke.cont118, label %if.then.i428

if.then.i428:                                     ; preds = %invoke.cont106
  %call1.i.i430 = invoke noundef nonnull align 8 dereferenceable(8) ptr @_ZNSt3__124__put_character_sequenceB7v170000IcNS_11char_traitsIcEEEERNS_13basic_ostreamIT_T0_EES7_PKS4_m(ptr noundef nonnull align 8 dereferenceable(8) %.pr619, ptr noundef nonnull @.str.33, i64 noundef 2)
          to label %invoke.cont108 unwind label %lpad105

invoke.cont108:                                   ; preds = %if.then.i428
  %.pr621.pr.pr.pr = load ptr, ptr %cond-lvalue82, align 8, !tbaa !55
  %tobool.not.i432 = icmp eq ptr %.pr621.pr.pr.pr, null
  br i1 %tobool.not.i432, label %invoke.cont118, label %if.then.i434

if.then.i434:                                     ; preds = %invoke.cont108
  %call1.i.i436 = invoke noundef nonnull align 8 dereferenceable(8) ptr @_ZNSt3__124__put_character_sequenceB7v170000IcNS_11char_traitsIcEEEERNS_13basic_ostreamIT_T0_EES7_PKS4_m(ptr noundef nonnull align 8 dereferenceable(8) %.pr621.pr.pr.pr, ptr noundef nonnull @.str.35, i64 noundef 10)
          to label %invoke.cont110 unwind label %lpad105

invoke.cont110:                                   ; preds = %if.then.i434
  %.pr623 = load ptr, ptr %cond-lvalue82, align 8, !tbaa !55
  %tobool.not.i438 = icmp eq ptr %.pr623, null
  br i1 %tobool.not.i438, label %invoke.cont118, label %if.then.i440

if.then.i440:                                     ; preds = %invoke.cont110
  %call1.i.i442 = invoke noundef nonnull align 8 dereferenceable(8) ptr @_ZNSt3__124__put_character_sequenceB7v170000IcNS_11char_traitsIcEEEERNS_13basic_ostreamIT_T0_EES7_PKS4_m(ptr noundef nonnull align 8 dereferenceable(8) %.pr623, ptr noundef nonnull @.str.41, i64 noundef 6)
          to label %invoke.cont112 unwind label %lpad105

invoke.cont112:                                   ; preds = %if.then.i440
  %.pr625.pr.pr.pr = load ptr, ptr %cond-lvalue82, align 8, !tbaa !55
  %tobool.not.i443 = icmp eq ptr %.pr625.pr.pr.pr, null
  br i1 %tobool.not.i443, label %invoke.cont118, label %if.then.i445

if.then.i445:                                     ; preds = %invoke.cont112
  %call1.i.i447 = invoke noundef nonnull align 8 dereferenceable(8) ptr @_ZNSt3__124__put_character_sequenceB7v170000IcNS_11char_traitsIcEEEERNS_13basic_ostreamIT_T0_EES7_PKS4_m(ptr noundef nonnull align 8 dereferenceable(8) %.pr625.pr.pr.pr, ptr noundef nonnull @.str.37, i64 noundef 1)
          to label %invoke.cont114 unwind label %lpad105

invoke.cont114:                                   ; preds = %if.then.i445
  %.pr627 = load ptr, ptr %cond-lvalue82, align 8, !tbaa !55
  %tobool.not.i449 = icmp eq ptr %.pr627, null
  br i1 %tobool.not.i449, label %invoke.cont118, label %if.then.i451

if.then.i451:                                     ; preds = %invoke.cont114
  %call1.i.i453 = invoke noundef nonnull align 8 dereferenceable(8) ptr @_ZNSt3__124__put_character_sequenceB7v170000IcNS_11char_traitsIcEEEERNS_13basic_ostreamIT_T0_EES7_PKS4_m(ptr noundef nonnull align 8 dereferenceable(8) %.pr627, ptr noundef nonnull @.str.6, i64 noundef 3)
          to label %invoke.cont116 unwind label %lpad105

invoke.cont116:                                   ; preds = %if.then.i451
  %.pr629.pr.pr.pr = load ptr, ptr %cond-lvalue82, align 8, !tbaa !55
  %tobool.not.i455 = icmp eq ptr %.pr629.pr.pr.pr, null
  br i1 %tobool.not.i455, label %invoke.cont118, label %if.then.i457

if.then.i457:                                     ; preds = %invoke.cont116
  %call1.i.i459 = invoke noundef nonnull align 8 dereferenceable(8) ptr @_ZNSt3__124__put_character_sequenceB7v170000IcNS_11char_traitsIcEEEERNS_13basic_ostreamIT_T0_EES7_PKS4_m(ptr noundef nonnull align 8 dereferenceable(8) %.pr629.pr.pr.pr, ptr noundef nonnull @.str.38, i64 noundef 1)
          to label %invoke.cont118 unwind label %lpad105

invoke.cont118:                                   ; preds = %invoke.cont98, %invoke.cont96, %invoke.cont93, %invoke.cont91, %invoke.cont87, %invoke.cont85, %invoke.cont83, %cond.end81, %invoke.cont106, %invoke.cont108, %invoke.cont100, %invoke.cont102, %invoke.cont112, %invoke.cont110, %invoke.cont114, %invoke.cont116, %if.then.i457
  %call.i461462 = invoke noundef double @_ZNK7Results5GetAsIdEET_PKc(ptr noundef nonnull align 8 dereferenceable(48) %e, ptr noundef nonnull @.str.6)
          to label %invoke.cont122 unwind label %lpad121

invoke.cont122:                                   ; preds = %invoke.cont118
  %20 = load ptr, ptr %cond-lvalue82, align 8, !tbaa !55
  %tobool.not.i463 = icmp eq ptr %20, null
  br i1 %tobool.not.i463, label %invoke.cont161, label %if.then.i465

if.then.i465:                                     ; preds = %invoke.cont122
  %call.i464466 = invoke noundef nonnull align 8 dereferenceable(8) ptr @_ZNSt3__113basic_ostreamIcNS_11char_traitsIcEEElsEd(ptr noundef nonnull align 8 dereferenceable(8) %20, double noundef %call.i461462)
          to label %invoke.cont124 unwind label %lpad121

invoke.cont124:                                   ; preds = %if.then.i465
  %.pr631 = load ptr, ptr %cond-lvalue82, align 8, !tbaa !55
  %tobool.not.i467 = icmp eq ptr %.pr631, null
  br i1 %tobool.not.i467, label %invoke.cont161, label %if.then.i469

if.then.i469:                                     ; preds = %invoke.cont124
  %call1.i.i471 = invoke noundef nonnull align 8 dereferenceable(8) ptr @_ZNSt3__124__put_character_sequenceB7v170000IcNS_11char_traitsIcEEEERNS_13basic_ostreamIT_T0_EES7_PKS4_m(ptr noundef nonnull align 8 dereferenceable(8) %.pr631, ptr noundef nonnull @.str.39, i64 noundef 13)
          to label %invoke.cont126 unwind label %lpad121

invoke.cont126:                                   ; preds = %if.then.i469
  %.pr633 = load ptr, ptr %cond-lvalue82, align 8, !tbaa !55
  %tobool.not.i473 = icmp eq ptr %.pr633, null
  br i1 %tobool.not.i473, label %invoke.cont161, label %if.then.i475

if.then.i475:                                     ; preds = %invoke.cont126
  %call.i474476 = invoke noundef nonnull align 8 dereferenceable(8) ptr @_ZNSt3__113basic_ostreamIcNS_11char_traitsIcEEElsEd(ptr noundef nonnull align 8 dereferenceable(8) %.pr633, double noundef %mul)
          to label %invoke.cont131 unwind label %lpad130

invoke.cont131:                                   ; preds = %if.then.i475
  %.pr635.pr = load ptr, ptr %cond-lvalue82, align 8, !tbaa !55
  %tobool.not.i478 = icmp eq ptr %.pr635.pr, null
  br i1 %tobool.not.i478, label %invoke.cont161, label %if.then.i480

if.then.i480:                                     ; preds = %invoke.cont131
  %call1.i.i482 = invoke noundef nonnull align 8 dereferenceable(8) ptr @_ZNSt3__124__put_character_sequenceB7v170000IcNS_11char_traitsIcEEEERNS_13basic_ostreamIT_T0_EES7_PKS4_m(ptr noundef nonnull align 8 dereferenceable(8) %.pr635.pr, ptr noundef nonnull @.str.31, i64 noundef 1)
          to label %invoke.cont133 unwind label %lpad130

invoke.cont133:                                   ; preds = %if.then.i480
  %.pr637 = load ptr, ptr %cond-lvalue82, align 8, !tbaa !55
  %tobool.not.i484 = icmp eq ptr %.pr637, null
  br i1 %tobool.not.i484, label %invoke.cont161, label %if.then.i486

if.then.i486:                                     ; preds = %invoke.cont133
  %call1.i.i488 = invoke noundef nonnull align 8 dereferenceable(8) ptr @_ZNSt3__124__put_character_sequenceB7v170000IcNS_11char_traitsIcEEEERNS_13basic_ostreamIT_T0_EES7_PKS4_m(ptr noundef nonnull align 8 dereferenceable(8) %.pr637, ptr noundef nonnull @.str.30, i64 noundef 109)
          to label %invoke.cont135 unwind label %lpad130

invoke.cont135:                                   ; preds = %if.then.i486
  %.pr639.pr.pr = load ptr, ptr %cond-lvalue82, align 8, !tbaa !55
  %tobool.not.i490 = icmp eq ptr %.pr639.pr.pr, null
  br i1 %tobool.not.i490, label %invoke.cont161, label %if.then.i492

if.then.i492:                                     ; preds = %invoke.cont135
  %call1.i.i494 = invoke noundef nonnull align 8 dereferenceable(8) ptr @_ZNSt3__124__put_character_sequenceB7v170000IcNS_11char_traitsIcEEEERNS_13basic_ostreamIT_T0_EES7_PKS4_m(ptr noundef nonnull align 8 dereferenceable(8) %.pr639.pr.pr, ptr noundef nonnull @.str.32, i64 noundef 1)
          to label %invoke.cont137 unwind label %lpad130

invoke.cont137:                                   ; preds = %if.then.i492
  %.pr641 = load ptr, ptr %cond-lvalue82, align 8, !tbaa !55
  %tobool.not.i496 = icmp eq ptr %.pr641, null
  br i1 %tobool.not.i496, label %invoke.cont161, label %if.then.i498

if.then.i498:                                     ; preds = %invoke.cont137
  %call.i497499 = invoke noundef nonnull align 8 dereferenceable(8) ptr @_ZNSt3__113basic_ostreamIcNS_11char_traitsIcEEElsEi(ptr noundef nonnull align 8 dereferenceable(8) %.pr641, i32 noundef 56)
          to label %invoke.cont141 unwind label %lpad140

invoke.cont141:                                   ; preds = %if.then.i498
  %.pr643.pr.pr = load ptr, ptr %cond-lvalue82, align 8, !tbaa !55
  %tobool.not.i501 = icmp eq ptr %.pr643.pr.pr, null
  br i1 %tobool.not.i501, label %invoke.cont161, label %if.then.i503

if.then.i503:                                     ; preds = %invoke.cont141
  %call1.i.i505 = invoke noundef nonnull align 8 dereferenceable(8) ptr @_ZNSt3__124__put_character_sequenceB7v170000IcNS_11char_traitsIcEEEERNS_13basic_ostreamIT_T0_EES7_PKS4_m(ptr noundef nonnull align 8 dereferenceable(8) %.pr643.pr.pr, ptr noundef nonnull @.str.33, i64 noundef 2)
          to label %invoke.cont143 unwind label %lpad140

invoke.cont143:                                   ; preds = %if.then.i503
  %.pr645 = load ptr, ptr %cond-lvalue82, align 8, !tbaa !55
  %tobool.not.i507 = icmp eq ptr %.pr645, null
  br i1 %tobool.not.i507, label %invoke.cont161, label %if.then.i509

if.then.i509:                                     ; preds = %invoke.cont143
  %call1.i.i511 = invoke noundef nonnull align 8 dereferenceable(8) ptr @_ZNSt3__124__put_character_sequenceB7v170000IcNS_11char_traitsIcEEEERNS_13basic_ostreamIT_T0_EES7_PKS4_m(ptr noundef nonnull align 8 dereferenceable(8) %.pr645, ptr noundef nonnull @.str.42, i64 noundef 18)
          to label %invoke.cont145 unwind label %lpad140

invoke.cont145:                                   ; preds = %if.then.i509
  %.pr647.pr.pr.pr = load ptr, ptr %cond-lvalue82, align 8, !tbaa !55
  %tobool.not.i512 = icmp eq ptr %.pr647.pr.pr.pr, null
  br i1 %tobool.not.i512, label %invoke.cont161, label %if.then.i514

if.then.i514:                                     ; preds = %invoke.cont145
  %call.i513515 = invoke noundef nonnull align 8 dereferenceable(8) ptr @_ZNSt3__113basic_ostreamIcNS_11char_traitsIcEEElsEd(ptr noundef nonnull align 8 dereferenceable(8) %.pr647.pr.pr.pr, double noundef %mul70)
          to label %invoke.cont151 unwind label %lpad150

invoke.cont151:                                   ; preds = %if.then.i514
  %.pr649 = load ptr, ptr %cond-lvalue82, align 8, !tbaa !55
  %tobool.not.i517 = icmp eq ptr %.pr649, null
  br i1 %tobool.not.i517, label %invoke.cont161, label %if.then.i519

if.then.i519:                                     ; preds = %invoke.cont151
  %call1.i.i521 = invoke noundef nonnull align 8 dereferenceable(8) ptr @_ZNSt3__124__put_character_sequenceB7v170000IcNS_11char_traitsIcEEEERNS_13basic_ostreamIT_T0_EES7_PKS4_m(ptr noundef nonnull align 8 dereferenceable(8) %.pr649, ptr noundef nonnull @.str.43, i64 noundef 2)
          to label %invoke.cont153 unwind label %lpad150

invoke.cont153:                                   ; preds = %if.then.i519
  %.pr651.pr.pr.pr = load ptr, ptr %cond-lvalue82, align 8, !tbaa !55
  %tobool.not.i523 = icmp eq ptr %.pr651.pr.pr.pr, null
  br i1 %tobool.not.i523, label %invoke.cont161, label %if.then.i525

if.then.i525:                                     ; preds = %invoke.cont153
  %call.i524526 = invoke noundef nonnull align 8 dereferenceable(8) ptr @_ZNSt3__113basic_ostreamIcNS_11char_traitsIcEEElsEd(ptr noundef nonnull align 8 dereferenceable(8) %.pr651.pr.pr.pr, double noundef 1.000000e-01)
          to label %invoke.cont157 unwind label %lpad156

invoke.cont157:                                   ; preds = %if.then.i525
  %.pr653 = load ptr, ptr %cond-lvalue82, align 8, !tbaa !55
  %tobool.not.i528 = icmp eq ptr %.pr653, null
  br i1 %tobool.not.i528, label %invoke.cont161, label %if.then.i530

if.then.i530:                                     ; preds = %invoke.cont157
  %call1.i.i532 = invoke noundef nonnull align 8 dereferenceable(8) ptr @_ZNSt3__124__put_character_sequenceB7v170000IcNS_11char_traitsIcEEEERNS_13basic_ostreamIT_T0_EES7_PKS4_m(ptr noundef nonnull align 8 dereferenceable(8) %.pr653, ptr noundef nonnull @.str.44, i64 noundef 4)
          to label %invoke.cont159 unwind label %lpad156

invoke.cont159:                                   ; preds = %if.then.i530
  %.pr655.pr.pr.pr = load ptr, ptr %cond-lvalue82, align 8, !tbaa !55
  %tobool.not.i533 = icmp eq ptr %.pr655.pr.pr.pr, null
  br i1 %tobool.not.i533, label %invoke.cont161, label %if.then.i535

if.then.i535:                                     ; preds = %invoke.cont159
  %call1.i.i537 = invoke noundef nonnull align 8 dereferenceable(8) ptr @_ZNSt3__124__put_character_sequenceB7v170000IcNS_11char_traitsIcEEEERNS_13basic_ostreamIT_T0_EES7_PKS4_m(ptr noundef nonnull align 8 dereferenceable(8) %.pr655.pr.pr.pr, ptr noundef nonnull @.str.45, i64 noundef 14)
          to label %invoke.cont161 unwind label %lpad156

invoke.cont161:                                   ; preds = %invoke.cont135, %invoke.cont133, %invoke.cont131, %invoke.cont126, %invoke.cont124, %invoke.cont122, %invoke.cont143, %invoke.cont145, %invoke.cont137, %invoke.cont141, %invoke.cont153, %invoke.cont151, %invoke.cont157, %invoke.cont159, %if.then.i535
  %call.i538539 = invoke noundef double @_ZNK7Results5GetAsIdEET_PKc(ptr noundef nonnull align 8 dereferenceable(48) %e, ptr noundef nonnull @.str.6)
          to label %invoke.cont165 unwind label %lpad164

invoke.cont165:                                   ; preds = %invoke.cont161
  %21 = load ptr, ptr %cond-lvalue82, align 8, !tbaa !55
  %tobool.not.i541 = icmp eq ptr %21, null
  br i1 %tobool.not.i541, label %invoke.cont170, label %if.then.i543

if.then.i543:                                     ; preds = %invoke.cont165
  %22 = call double @llvm.fmuladd.f64(double %call, double -2.000000e+00, double %call.i538539)
  %call.i542544 = invoke noundef nonnull align 8 dereferenceable(8) ptr @_ZNSt3__113basic_ostreamIcNS_11char_traitsIcEEElsEd(ptr noundef nonnull align 8 dereferenceable(8) %21, double noundef %22)
          to label %invoke.cont168 unwind label %lpad164

invoke.cont168:                                   ; preds = %if.then.i543
  %.pr657 = load ptr, ptr %cond-lvalue82, align 8, !tbaa !55
  %tobool.not.i546 = icmp eq ptr %.pr657, null
  br i1 %tobool.not.i546, label %invoke.cont170, label %if.then.i548

if.then.i548:                                     ; preds = %invoke.cont168
  %call1.i.i550 = invoke noundef nonnull align 8 dereferenceable(8) ptr @_ZNSt3__124__put_character_sequenceB7v170000IcNS_11char_traitsIcEEEERNS_13basic_ostreamIT_T0_EES7_PKS4_m(ptr noundef nonnull align 8 dereferenceable(8) %.pr657, ptr noundef nonnull @.str.43, i64 noundef 2)
          to label %invoke.cont170 unwind label %lpad164

invoke.cont170:                                   ; preds = %invoke.cont165, %invoke.cont168, %if.then.i548
  %call.i552553 = invoke noundef double @_ZNK7Results5GetAsIdEET_PKc(ptr noundef nonnull align 8 dereferenceable(48) %e, ptr noundef nonnull @.str.6)
          to label %invoke.cont174 unwind label %lpad173

invoke.cont174:                                   ; preds = %invoke.cont170
  %23 = load ptr, ptr %cond-lvalue82, align 8, !tbaa !55
  %tobool.not.i555 = icmp eq ptr %23, null
  br i1 %tobool.not.i555, label %invoke.cont188, label %if.then.i557

if.then.i557:                                     ; preds = %invoke.cont174
  %24 = call double @llvm.fmuladd.f64(double %call, double -2.000000e+00, double %call.i552553)
  %cmp178 = fcmp ogt double %mul, 1.000000e-05
  %cmp180 = fcmp olt double %mul, -1.000000e-05
  %or.cond = or i1 %cmp178, %cmp180
  %cond = select i1 %or.cond, double %mul, double 1.000000e-05
  %div = fdiv double %24, %cond
  %mul185 = fmul double %div, 1.000000e+02
  %call.i556558 = invoke noundef nonnull align 8 dereferenceable(8) ptr @_ZNSt3__113basic_ostreamIcNS_11char_traitsIcEEElsEd(ptr noundef nonnull align 8 dereferenceable(8) %23, double noundef %mul185)
          to label %invoke.cont186 unwind label %lpad173

invoke.cont186:                                   ; preds = %if.then.i557
  %.pr659 = load ptr, ptr %cond-lvalue82, align 8, !tbaa !55
  %tobool.not.i560 = icmp eq ptr %.pr659, null
  br i1 %tobool.not.i560, label %invoke.cont188, label %if.then.i562

if.then.i562:                                     ; preds = %invoke.cont186
  %call1.i.i564 = invoke noundef nonnull align 8 dereferenceable(8) ptr @_ZNSt3__124__put_character_sequenceB7v170000IcNS_11char_traitsIcEEEERNS_13basic_ostreamIT_T0_EES7_PKS4_m(ptr noundef nonnull align 8 dereferenceable(8) %.pr659, ptr noundef nonnull @.str.46, i64 noundef 2)
          to label %invoke.cont188 unwind label %lpad173

invoke.cont188:                                   ; preds = %invoke.cont174, %invoke.cont186, %if.then.i562
  br i1 %cmp71, label %cleanup.action200, label %cleanup.done209

cleanup.action200:                                ; preds = %invoke.cont188
  call void @_ZN9benchmark8internal12CheckHandlerD2Ev(ptr noundef nonnull align 8 dereferenceable(8) %ref.tmp75) #26
  unreachable

ehcleanup57:                                      ; preds = %lpad12, %lpad42, %lpad50, %lpad26, %lpad
  %.pn.pn.pn.pn = phi { ptr, i32 } [ %7, %lpad ], [ %8, %lpad12 ], [ %9, %lpad26 ], [ %11, %lpad50 ], [ %10, %lpad42 ]
  br i1 %cmp.not, label %ehcleanup214, label %cleanup.action204.invoke

lpad78:                                           ; preds = %if.then.i373, %if.then.i367, %if.then.i361
  %25 = landingpad { ptr, i32 }
          cleanup
  br label %ehcleanup202

lpad90:                                           ; preds = %if.then.i417, %if.then.i411, %if.then.i405, %if.then.i399, %if.then.i384, %if.then.i379
  %26 = landingpad { ptr, i32 }
          cleanup
  br label %ehcleanup202

lpad105:                                          ; preds = %if.then.i457, %if.then.i451, %if.then.i445, %if.then.i440, %if.then.i434, %if.then.i428, %if.then.i423
  %27 = landingpad { ptr, i32 }
          cleanup
  br label %ehcleanup202

lpad121:                                          ; preds = %if.then.i469, %if.then.i465, %invoke.cont118
  %28 = landingpad { ptr, i32 }
          cleanup
  br label %ehcleanup202

lpad130:                                          ; preds = %if.then.i492, %if.then.i486, %if.then.i480, %if.then.i475
  %29 = landingpad { ptr, i32 }
          cleanup
  br label %ehcleanup202

lpad140:                                          ; preds = %if.then.i509, %if.then.i503, %if.then.i498
  %30 = landingpad { ptr, i32 }
          cleanup
  br label %ehcleanup202

lpad150:                                          ; preds = %if.then.i519, %if.then.i514
  %31 = landingpad { ptr, i32 }
          cleanup
  br label %ehcleanup202

lpad156:                                          ; preds = %if.then.i535, %if.then.i530, %if.then.i525
  %32 = landingpad { ptr, i32 }
          cleanup
  br label %ehcleanup202

lpad164:                                          ; preds = %if.then.i548, %if.then.i543, %invoke.cont161
  %33 = landingpad { ptr, i32 }
          cleanup
  br label %ehcleanup202

lpad173:                                          ; preds = %if.then.i562, %if.then.i557, %invoke.cont170
  %34 = landingpad { ptr, i32 }
          cleanup
  br label %ehcleanup202

cleanup.done209:                                  ; preds = %invoke.cont188
  ret void

ehcleanup202:                                     ; preds = %lpad90, %lpad121, %lpad140, %lpad156, %lpad173, %lpad164, %lpad150, %lpad130, %lpad105, %lpad78
  %.pn236.pn.pn.pn.pn.pn.pn.pn.pn = phi { ptr, i32 } [ %25, %lpad78 ], [ %26, %lpad90 ], [ %27, %lpad105 ], [ %28, %lpad121 ], [ %29, %lpad130 ], [ %30, %lpad140 ], [ %31, %lpad150 ], [ %32, %lpad156 ], [ %34, %lpad173 ], [ %33, %lpad164 ]
  br i1 %cmp71, label %cleanup.action204.invoke, label %ehcleanup214

cleanup.action204.invoke:                         ; preds = %ehcleanup202, %ehcleanup57
  %35 = phi ptr [ %ref.tmp, %ehcleanup57 ], [ %ref.tmp75, %ehcleanup202 ]
  invoke void @_ZN9benchmark8internal12CheckHandlerD2Ev(ptr noundef nonnull align 8 dereferenceable(8) %35) #26
          to label %cleanup.action204.cont unwind label %terminate.lpad

cleanup.action204.cont:                           ; preds = %cleanup.action204.invoke
  unreachable

ehcleanup214:                                     ; preds = %ehcleanup202, %ehcleanup57
  %.pn236.pn.pn.pn.pn.pn.pn.pn.pn.pn = phi { ptr, i32 } [ %.pn.pn.pn.pn, %ehcleanup57 ], [ %.pn236.pn.pn.pn.pn.pn.pn.pn.pn, %ehcleanup202 ]
  resume { ptr, i32 } %.pn236.pn.pn.pn.pn.pn.pn.pn.pn.pn

terminate.lpad:                                   ; preds = %cleanup.action204.invoke
  %36 = landingpad { ptr, i32 }
          catch ptr null
  %37 = extractvalue { ptr, i32 } %36, 0
  call void @__clang_call_terminate(ptr %37) #27
  unreachable
}

declare noundef double @_ZNK7Results13NumIterationsEv(ptr noundef nonnull align 8 dereferenceable(48)) local_unnamed_addr #0

; Function Attrs: uwtable
define linkonce_odr hidden void @_ZN9benchmark8internal12CheckHandlerC2EPKcS3_S3_i(ptr noundef nonnull align 8 dereferenceable(8) %this, ptr noundef %check, ptr noundef %file, ptr noundef %func, i32 noundef %line) unnamed_addr #2 comdat align 2 personality ptr @__gxx_personality_v0 {
entry:
  %0 = load atomic i8, ptr @_ZGVZN9benchmark8internal19GetErrorLogInstanceEvE3log acquire, align 8
  %guard.uninitialized.i = icmp eq i8 %0, 0
  br i1 %guard.uninitialized.i, label %init.check.i, label %_ZN9benchmark8internal19GetErrorLogInstanceEv.exit, !prof !54

init.check.i:                                     ; preds = %entry
  %1 = tail call i32 @__cxa_guard_acquire(ptr nonnull @_ZGVZN9benchmark8internal19GetErrorLogInstanceEvE3log) #23
  %tobool.not.i = icmp eq i32 %1, 0
  br i1 %tobool.not.i, label %_ZN9benchmark8internal19GetErrorLogInstanceEv.exit, label %init.i

init.i:                                           ; preds = %init.check.i
  store ptr @_ZNSt3__14clogE, ptr @_ZZN9benchmark8internal19GetErrorLogInstanceEvE3log, align 8, !tbaa !55
  tail call void @__cxa_guard_release(ptr nonnull @_ZGVZN9benchmark8internal19GetErrorLogInstanceEvE3log) #23
  br label %_ZN9benchmark8internal19GetErrorLogInstanceEv.exit

_ZN9benchmark8internal19GetErrorLogInstanceEv.exit: ; preds = %entry, %init.check.i, %init.i
  store ptr @_ZZN9benchmark8internal19GetErrorLogInstanceEvE3log, ptr %this, align 8, !tbaa !8
  %2 = load ptr, ptr @_ZZN9benchmark8internal19GetErrorLogInstanceEvE3log, align 8, !tbaa !55
  %tobool.not.i11 = icmp eq ptr %2, null
  br i1 %tobool.not.i11, label %_ZN9benchmark8internallsIA11_cEERNS0_7LogTypeES4_RKT_.exit, label %_ZN9benchmark8internallsIPKcEERNS0_7LogTypeES5_RKT_.exit

_ZN9benchmark8internallsIPKcEERNS0_7LogTypeES5_RKT_.exit: ; preds = %_ZN9benchmark8internal19GetErrorLogInstanceEv.exit
  %call.i.i.i.i = tail call i64 @strlen(ptr noundef nonnull dereferenceable(1) %file) #23
  %call1.i.i = tail call noundef nonnull align 8 dereferenceable(8) ptr @_ZNSt3__124__put_character_sequenceB7v170000IcNS_11char_traitsIcEEEERNS_13basic_ostreamIT_T0_EES7_PKS4_m(ptr noundef nonnull align 8 dereferenceable(8) %2, ptr noundef %file, i64 noundef %call.i.i.i.i)
  %.pr = load ptr, ptr @_ZZN9benchmark8internal19GetErrorLogInstanceEvE3log, align 8, !tbaa !55
  %tobool.not.i12 = icmp eq ptr %.pr, null
  br i1 %tobool.not.i12, label %_ZN9benchmark8internallsIA11_cEERNS0_7LogTypeES4_RKT_.exit, label %_ZN9benchmark8internallsIA2_cEERNS0_7LogTypeES4_RKT_.exit

_ZN9benchmark8internallsIA2_cEERNS0_7LogTypeES4_RKT_.exit: ; preds = %_ZN9benchmark8internallsIPKcEERNS0_7LogTypeES5_RKT_.exit
  %call1.i.i14 = tail call noundef nonnull align 8 dereferenceable(8) ptr @_ZNSt3__124__put_character_sequenceB7v170000IcNS_11char_traitsIcEEEERNS_13basic_ostreamIT_T0_EES7_PKS4_m(ptr noundef nonnull align 8 dereferenceable(8) %.pr, ptr noundef nonnull @.str.32, i64 noundef 1)
  %.pr41 = load ptr, ptr @_ZZN9benchmark8internal19GetErrorLogInstanceEvE3log, align 8, !tbaa !55
  %tobool.not.i16 = icmp eq ptr %.pr41, null
  br i1 %tobool.not.i16, label %_ZN9benchmark8internallsIA11_cEERNS0_7LogTypeES4_RKT_.exit, label %_ZN9benchmark8internallsIiEERNS0_7LogTypeES3_RKT_.exit

_ZN9benchmark8internallsIiEERNS0_7LogTypeES3_RKT_.exit: ; preds = %_ZN9benchmark8internallsIA2_cEERNS0_7LogTypeES4_RKT_.exit
  %call.i = tail call noundef nonnull align 8 dereferenceable(8) ptr @_ZNSt3__113basic_ostreamIcNS_11char_traitsIcEEElsEi(ptr noundef nonnull align 8 dereferenceable(8) %.pr41, i32 noundef %line)
  %.pr43.pr = load ptr, ptr @_ZZN9benchmark8internal19GetErrorLogInstanceEvE3log, align 8, !tbaa !55
  %tobool.not.i18 = icmp eq ptr %.pr43.pr, null
  br i1 %tobool.not.i18, label %_ZN9benchmark8internallsIA11_cEERNS0_7LogTypeES4_RKT_.exit, label %_ZN9benchmark8internallsIA3_cEERNS0_7LogTypeES4_RKT_.exit

_ZN9benchmark8internallsIA3_cEERNS0_7LogTypeES4_RKT_.exit: ; preds = %_ZN9benchmark8internallsIiEERNS0_7LogTypeES3_RKT_.exit
  %call1.i.i20 = tail call noundef nonnull align 8 dereferenceable(8) ptr @_ZNSt3__124__put_character_sequenceB7v170000IcNS_11char_traitsIcEEEERNS_13basic_ostreamIT_T0_EES7_PKS4_m(ptr noundef nonnull align 8 dereferenceable(8) %.pr43.pr, ptr noundef nonnull @.str.33, i64 noundef 2)
  %.pr45 = load ptr, ptr @_ZZN9benchmark8internal19GetErrorLogInstanceEvE3log, align 8, !tbaa !55
  %tobool.not.i22 = icmp eq ptr %.pr45, null
  br i1 %tobool.not.i22, label %_ZN9benchmark8internallsIA11_cEERNS0_7LogTypeES4_RKT_.exit, label %_ZN9benchmark8internallsIPKcEERNS0_7LogTypeES5_RKT_.exit26

_ZN9benchmark8internallsIPKcEERNS0_7LogTypeES5_RKT_.exit26: ; preds = %_ZN9benchmark8internallsIA3_cEERNS0_7LogTypeES4_RKT_.exit
  %call.i.i.i.i23 = tail call i64 @strlen(ptr noundef nonnull dereferenceable(1) %func) #23
  %call1.i.i24 = tail call noundef nonnull align 8 dereferenceable(8) ptr @_ZNSt3__124__put_character_sequenceB7v170000IcNS_11char_traitsIcEEEERNS_13basic_ostreamIT_T0_EES7_PKS4_m(ptr noundef nonnull align 8 dereferenceable(8) %.pr45, ptr noundef %func, i64 noundef %call.i.i.i.i23)
  %.pr47.pr.pr = load ptr, ptr @_ZZN9benchmark8internal19GetErrorLogInstanceEvE3log, align 8, !tbaa !55
  %tobool.not.i27 = icmp eq ptr %.pr47.pr.pr, null
  br i1 %tobool.not.i27, label %_ZN9benchmark8internallsIA11_cEERNS0_7LogTypeES4_RKT_.exit, label %_ZN9benchmark8internallsIA10_cEERNS0_7LogTypeES4_RKT_.exit

_ZN9benchmark8internallsIA10_cEERNS0_7LogTypeES4_RKT_.exit: ; preds = %_ZN9benchmark8internallsIPKcEERNS0_7LogTypeES5_RKT_.exit26
  %call1.i.i29 = tail call noundef nonnull align 8 dereferenceable(8) ptr @_ZNSt3__124__put_character_sequenceB7v170000IcNS_11char_traitsIcEEEERNS_13basic_ostreamIT_T0_EES7_PKS4_m(ptr noundef nonnull align 8 dereferenceable(8) %.pr47.pr.pr, ptr noundef nonnull @.str.200, i64 noundef 9)
  %.pr49 = load ptr, ptr @_ZZN9benchmark8internal19GetErrorLogInstanceEvE3log, align 8, !tbaa !55
  %tobool.not.i31 = icmp eq ptr %.pr49, null
  br i1 %tobool.not.i31, label %_ZN9benchmark8internallsIA11_cEERNS0_7LogTypeES4_RKT_.exit, label %_ZN9benchmark8internallsIPKcEERNS0_7LogTypeES5_RKT_.exit35

_ZN9benchmark8internallsIPKcEERNS0_7LogTypeES5_RKT_.exit35: ; preds = %_ZN9benchmark8internallsIA10_cEERNS0_7LogTypeES4_RKT_.exit
  %call.i.i.i.i32 = tail call i64 @strlen(ptr noundef nonnull dereferenceable(1) %check) #23
  %call1.i.i33 = tail call noundef nonnull align 8 dereferenceable(8) ptr @_ZNSt3__124__put_character_sequenceB7v170000IcNS_11char_traitsIcEEEERNS_13basic_ostreamIT_T0_EES7_PKS4_m(ptr noundef nonnull align 8 dereferenceable(8) %.pr49, ptr noundef %check, i64 noundef %call.i.i.i.i32)
  %.pr51.pr.pr = load ptr, ptr @_ZZN9benchmark8internal19GetErrorLogInstanceEvE3log, align 8, !tbaa !55
  %tobool.not.i36 = icmp eq ptr %.pr51.pr.pr, null
  br i1 %tobool.not.i36, label %_ZN9benchmark8internallsIA11_cEERNS0_7LogTypeES4_RKT_.exit, label %if.then.i39

if.then.i39:                                      ; preds = %_ZN9benchmark8internallsIPKcEERNS0_7LogTypeES5_RKT_.exit35
  %call1.i.i38 = tail call noundef nonnull align 8 dereferenceable(8) ptr @_ZNSt3__124__put_character_sequenceB7v170000IcNS_11char_traitsIcEEEERNS_13basic_ostreamIT_T0_EES7_PKS4_m(ptr noundef nonnull align 8 dereferenceable(8) %.pr51.pr.pr, ptr noundef nonnull @.str.201, i64 noundef 10)
  br label %_ZN9benchmark8internallsIA11_cEERNS0_7LogTypeES4_RKT_.exit

_ZN9benchmark8internallsIA11_cEERNS0_7LogTypeES4_RKT_.exit: ; preds = %_ZN9benchmark8internallsIA2_cEERNS0_7LogTypeES4_RKT_.exit, %_ZN9benchmark8internallsIiEERNS0_7LogTypeES3_RKT_.exit, %_ZN9benchmark8internal19GetErrorLogInstanceEv.exit, %_ZN9benchmark8internallsIPKcEERNS0_7LogTypeES5_RKT_.exit, %_ZN9benchmark8internallsIPKcEERNS0_7LogTypeES5_RKT_.exit26, %_ZN9benchmark8internallsIA3_cEERNS0_7LogTypeES4_RKT_.exit, %_ZN9benchmark8internallsIA10_cEERNS0_7LogTypeES4_RKT_.exit, %_ZN9benchmark8internallsIPKcEERNS0_7LogTypeES5_RKT_.exit35, %if.then.i39
  ret void
}

; Function Attrs: noreturn uwtable
define linkonce_odr hidden void @_ZN9benchmark8internal12CheckHandlerD2Ev(ptr noundef nonnull align 8 dereferenceable(8) %this) unnamed_addr #6 comdat align 2 personality ptr @__gxx_personality_v0 {
entry:
  %ref.tmp.i.i = alloca %"class.std::__1::locale", align 8
  %0 = load ptr, ptr %this, align 8, !tbaa !57
  %1 = load ptr, ptr %0, align 8, !tbaa !55
  %tobool.not.i = icmp eq ptr %1, null
  br i1 %tobool.not.i, label %_ZN9benchmark8internallsERNS0_7LogTypeEPFRNSt3__113basic_ostreamIcNS3_11char_traitsIcEEEES8_E.exit, label %if.then.i

if.then.i:                                        ; preds = %entry
  %vtable.i = load ptr, ptr %1, align 8, !tbaa !59
  %vbase.offset.ptr.i = getelementptr i8, ptr %vtable.i, i64 -24
  %vbase.offset.i = load i64, ptr %vbase.offset.ptr.i, align 8
  %add.ptr.i = getelementptr inbounds i8, ptr %1, i64 %vbase.offset.i
  call void @llvm.lifetime.start.p0(i64 8, ptr nonnull %ref.tmp.i.i) #23
  call void @_ZNKSt3__18ios_base6getlocEv(ptr nonnull sret(%"class.std::__1::locale") align 8 %ref.tmp.i.i, ptr noundef nonnull align 8 dereferenceable(136) %add.ptr.i)
  %call.i5.i.i = invoke noundef ptr @_ZNKSt3__16locale9use_facetERNS0_2idE(ptr noundef nonnull align 8 dereferenceable(8) %ref.tmp.i.i, ptr noundef nonnull align 8 dereferenceable(12) @_ZNSt3__15ctypeIcE2idE)
          to label %invoke.cont.i.i unwind label %lpad.i.i

invoke.cont.i.i:                                  ; preds = %if.then.i
  %vtable.i.i.i = load ptr, ptr %call.i5.i.i, align 8, !tbaa !59
  %vfn.i.i.i = getelementptr inbounds ptr, ptr %vtable.i.i.i, i64 7
  %2 = load ptr, ptr %vfn.i.i.i, align 8
  %call.i6.i.i = invoke noundef signext i8 %2(ptr noundef nonnull align 8 dereferenceable(25) %call.i5.i.i, i8 noundef signext 10)
          to label %_ZNSt3__14endlB7v170000IcNS_11char_traitsIcEEEERNS_13basic_ostreamIT_T0_EES7_.exit unwind label %lpad.i.i

lpad.i.i:                                         ; preds = %invoke.cont.i.i, %if.then.i
  %3 = landingpad { ptr, i32 }
          cleanup
  call void @_ZNSt3__16localeD1Ev(ptr noundef nonnull align 8 dereferenceable(8) %ref.tmp.i.i) #23
  call void @llvm.lifetime.end.p0(i64 8, ptr nonnull %ref.tmp.i.i) #23
  resume { ptr, i32 } %3

_ZNSt3__14endlB7v170000IcNS_11char_traitsIcEEEERNS_13basic_ostreamIT_T0_EES7_.exit: ; preds = %invoke.cont.i.i
  call void @_ZNSt3__16localeD1Ev(ptr noundef nonnull align 8 dereferenceable(8) %ref.tmp.i.i) #23
  call void @llvm.lifetime.end.p0(i64 8, ptr nonnull %ref.tmp.i.i) #23
  %call1.i = call noundef nonnull align 8 dereferenceable(8) ptr @_ZNSt3__113basic_ostreamIcNS_11char_traitsIcEEE3putEc(ptr noundef nonnull align 8 dereferenceable(8) %1, i8 noundef signext %call.i6.i.i)
  %call2.i = call noundef nonnull align 8 dereferenceable(8) ptr @_ZNSt3__113basic_ostreamIcNS_11char_traitsIcEEE5flushEv(ptr noundef nonnull align 8 dereferenceable(8) %1)
  br label %_ZN9benchmark8internallsERNS0_7LogTypeEPFRNSt3__113basic_ostreamIcNS3_11char_traitsIcEEEES8_E.exit

_ZN9benchmark8internallsERNS0_7LogTypeEPFRNSt3__113basic_ostreamIcNS3_11char_traitsIcEEEES8_E.exit: ; preds = %entry, %_ZNSt3__14endlB7v170000IcNS_11char_traitsIcEEEERNS_13basic_ostreamIT_T0_EES7_.exit
  call void @_ZN9benchmark8internal16CallAbortHandlerEv() #26
  unreachable
}

; Function Attrs: noinline noreturn nounwind
define linkonce_odr hidden void @__clang_call_terminate(ptr noundef %0) local_unnamed_addr #7 comdat {
  %2 = tail call ptr @__cxa_begin_catch(ptr %0) #23
  tail call void @_ZSt9terminatev() #27
  unreachable
}

declare ptr @__cxa_begin_catch(ptr) local_unnamed_addr

declare void @_ZSt9terminatev() local_unnamed_addr

; Function Attrs: mustprogress nocallback nofree nosync nounwind speculatable willreturn memory(none)
declare double @llvm.fmuladd.f64(double, double, double) #8

; Function Attrs: mustprogress nocallback nofree nosync nounwind speculatable willreturn memory(none)
declare double @llvm.fabs.f64(double) #8

declare noundef i64 @_Z10AddCheckerPKcRKNSt3__18functionIFvRK7ResultsEEE(ptr noundef, ptr noundef nonnull align 16 dereferenceable(48)) local_unnamed_addr #0

; Function Attrs: uwtable
define hidden void @_Z33BM_Counters_WithBytesAndItemsPSecRN9benchmark5StateE(ptr noundef nonnull align 8 dereferenceable(120) %state) #2 personality ptr @__gxx_personality_v0 {
entry:
  %__parent.i.i96 = alloca ptr, align 8
  %__parent.i.i = alloca ptr, align 8
  %__parent.i.i.i26 = alloca ptr, align 8
  %ref.tmp2.i27 = alloca %"class.std::__1::basic_string", align 8
  %__parent.i.i.i = alloca ptr, align 8
  %ref.tmp2.i = alloca %"class.std::__1::basic_string", align 8
  %ref.tmp6 = alloca %"class.std::__1::basic_string", align 8
  %ref.tmp10 = alloca %"class.std::__1::basic_string", align 8
  %error_occurred_.i.i = getelementptr inbounds %"class.benchmark::State", ptr %state, i64 0, i32 5
  %0 = load i8, ptr %error_occurred_.i.i, align 2, !tbaa !61, !range !45, !noundef !46
  %tobool.not.i.i = icmp ne i8 %0, 0
  %max_iterations.i.i = getelementptr inbounds %"class.benchmark::State", ptr %state, i64 0, i32 2
  %1 = load i64, ptr %max_iterations.i.i, align 8
  tail call void @_ZN9benchmark5State16StartKeepRunningEv(ptr noundef nonnull align 8 dereferenceable(120) %state)
  %cmp.not.i.not140142 = icmp eq i64 %1, 0
  %cmp.not.i.not140 = select i1 %tobool.not.i.i, i1 true, i1 %cmp.not.i.not140142
  br i1 %cmp.not.i.not140, label %for.cond.cleanup, label %for.body.lr.ph, !prof !47

for.body.lr.ph:                                   ; preds = %entry
  %started_.i = getelementptr inbounds %"class.benchmark::State", ptr %state, i64 0, i32 3
  %batch_leftover_.i = getelementptr inbounds %"class.benchmark::State", ptr %state, i64 0, i32 1
  br label %for.body

for.cond.cleanup:                                 ; preds = %_ZN9benchmark5State13StateIteratorppEv.exit, %entry
  tail call void @_ZN9benchmark5State17FinishKeepRunningEv(ptr noundef nonnull align 8 dereferenceable(120) %state)
  %counters = getelementptr inbounds %"class.benchmark::State", ptr %state, i64 0, i32 8
  call void @llvm.lifetime.start.p0(i64 24, ptr nonnull %ref.tmp6) #23
  store i8 6, ptr %ref.tmp6, align 8
  %__data_.i.i.i69 = getelementptr inbounds %"struct.std::__1::basic_string<char>::__short", ptr %ref.tmp6, i64 0, i32 2
  %cmp.i24.i.i = icmp ugt ptr %__data_.i.i.i69, @.str.5
  %add.ptr.i.i.i = getelementptr inbounds %"struct.std::__1::basic_string<char>::__short", ptr %ref.tmp6, i64 0, i32 2, i64 3
  %cmp1.i.i.i = icmp ule ptr %add.ptr.i.i.i, @.str.5
  %2 = or i1 %cmp.i24.i.i, %cmp1.i.i.i
  call void @llvm.assume(i1 %2)
  call void @llvm.memcpy.p0.p0.i64(ptr noundef nonnull align 1 dereferenceable(3) %__data_.i.i.i69, ptr noundef nonnull align 1 dereferenceable(3) @.str.5, i64 3, i1 false)
  store i8 0, ptr %add.ptr.i.i.i, align 4, !tbaa !5
  call void @llvm.lifetime.start.p0(i64 8, ptr nonnull %__parent.i.i) #23
  %call.i.i72 = invoke noundef nonnull align 8 dereferenceable(8) ptr @_ZNSt3__16__treeINS_12__value_typeINS_12basic_stringIcNS_11char_traitsIcEENS_9allocatorIcEEEEN9benchmark7CounterEEENS_19__map_value_compareIS7_SA_NS_4lessIS7_EELb1EEENS5_ISA_EEE12__find_equalIS7_EERPNS_16__tree_node_baseIPvEERPNS_15__tree_end_nodeISL_EERKT_(ptr noundef nonnull align 8 dereferenceable(24) %counters, ptr noundef nonnull align 8 dereferenceable(8) %__parent.i.i, ptr noundef nonnull align 8 dereferenceable(24) %ref.tmp6)
          to label %call.i.i.noexc unwind label %lpad

call.i.i.noexc:                                   ; preds = %for.cond.cleanup
  %3 = load ptr, ptr %call.i.i72, align 8, !tbaa !8
  %cmp.i.i70 = icmp eq ptr %3, null
  br i1 %cmp.i.i70, label %if.then.i.i71, label %invoke.cont

if.then.i.i71:                                    ; preds = %call.i.i.noexc
  %call.i.i.i.i.i.i.i73 = invoke noalias noundef nonnull dereferenceable(72) ptr @_Znwm(i64 noundef 72) #24
          to label %call.i.i.i.i.i.i.i.noexc unwind label %lpad

call.i.i.i.i.i.i.i.noexc:                         ; preds = %if.then.i.i71
  %__value_.i.i.i = getelementptr inbounds %"class.std::__1::__tree_node", ptr %call.i.i.i.i.i.i.i73, i64 0, i32 1
  call void @llvm.memcpy.p0.p0.i64(ptr noundef nonnull align 8 dereferenceable(24) %__value_.i.i.i, ptr noundef nonnull align 8 dereferenceable(24) %ref.tmp6, i64 24, i1 false), !noalias !62
  call void @llvm.memset.p0.i64(ptr noundef nonnull align 8 dereferenceable(24) %ref.tmp6, i8 0, i64 24, i1 false), !noalias !62
  %second.i.i.i.i.i.i.i = getelementptr inbounds %"class.std::__1::__tree_node", ptr %call.i.i.i.i.i.i.i73, i64 0, i32 1, i32 0, i32 1
  store double 0.000000e+00, ptr %second.i.i.i.i.i.i.i, align 8, !tbaa !13, !noalias !62
  %flags.i.i.i.i.i.i.i.i = getelementptr inbounds %"class.std::__1::__tree_node", ptr %call.i.i.i.i.i.i.i73, i64 0, i32 1, i32 0, i32 1, i32 1
  store i32 0, ptr %flags.i.i.i.i.i.i.i.i, align 8, !tbaa !18, !noalias !62
  %oneK.i.i.i.i.i.i.i.i = getelementptr inbounds %"class.std::__1::__tree_node", ptr %call.i.i.i.i.i.i.i73, i64 0, i32 1, i32 0, i32 1, i32 2
  store i32 1000, ptr %oneK.i.i.i.i.i.i.i.i, align 4, !tbaa !19, !noalias !62
  %4 = load ptr, ptr %__parent.i.i, align 8, !tbaa !8
  %__parent_.i.i.i = getelementptr inbounds %"class.std::__1::__tree_node_base", ptr %call.i.i.i.i.i.i.i73, i64 0, i32 2
  call void @llvm.memset.p0.i64(ptr noundef nonnull align 8 dereferenceable(16) %call.i.i.i.i.i.i.i73, i8 0, i64 16, i1 false)
  store ptr %4, ptr %__parent_.i.i.i, align 8, !tbaa !20
  store ptr %call.i.i.i.i.i.i.i73, ptr %call.i.i72, align 8, !tbaa !8
  %5 = load ptr, ptr %counters, align 8, !tbaa !8
  %6 = load ptr, ptr %5, align 8, !tbaa !24
  %cmp.not.i.i.i = icmp eq ptr %6, null
  br i1 %cmp.not.i.i.i, label %_ZNSt3__110unique_ptrINS_11__tree_nodeINS_12__value_typeINS_12basic_stringIcNS_11char_traitsIcEENS_9allocatorIcEEEEN9benchmark7CounterEEEPvEENS_22__tree_node_destructorINS6_ISD_EEEEED2B7v170000Ev.exit.i.i, label %if.then.i.i.i

if.then.i.i.i:                                    ; preds = %call.i.i.i.i.i.i.i.noexc
  store ptr %6, ptr %counters, align 8, !tbaa !8
  %.pre.i.i.i = load ptr, ptr %call.i.i72, align 8, !tbaa !8
  br label %_ZNSt3__110unique_ptrINS_11__tree_nodeINS_12__value_typeINS_12basic_stringIcNS_11char_traitsIcEENS_9allocatorIcEEEEN9benchmark7CounterEEEPvEENS_22__tree_node_destructorINS6_ISD_EEEEED2B7v170000Ev.exit.i.i

_ZNSt3__110unique_ptrINS_11__tree_nodeINS_12__value_typeINS_12basic_stringIcNS_11char_traitsIcEENS_9allocatorIcEEEEN9benchmark7CounterEEEPvEENS_22__tree_node_destructorINS6_ISD_EEEEED2B7v170000Ev.exit.i.i: ; preds = %if.then.i.i.i, %call.i.i.i.i.i.i.i.noexc
  %7 = phi ptr [ %.pre.i.i.i, %if.then.i.i.i ], [ %call.i.i.i.i.i.i.i73, %call.i.i.i.i.i.i.i.noexc ]
  %__pair1_.i.i10.i.i = getelementptr inbounds %"class.benchmark::State", ptr %state, i64 0, i32 8, i32 0, i32 1
  %8 = load ptr, ptr %__pair1_.i.i10.i.i, align 8, !tbaa !24
  call void @_ZNSt3__127__tree_balance_after_insertB7v170000IPNS_16__tree_node_baseIPvEEEEvT_S5_(ptr noundef %8, ptr noundef %7) #23
  %__pair3_.i.i.i.i = getelementptr inbounds %"class.benchmark::State", ptr %state, i64 0, i32 8, i32 0, i32 2
  %9 = load i64, ptr %__pair3_.i.i.i.i, align 8, !tbaa !25
  %inc.i.i.i = add i64 %9, 1
  store i64 %inc.i.i.i, ptr %__pair3_.i.i.i.i, align 8, !tbaa !25
  br label %invoke.cont

for.body:                                         ; preds = %for.body.lr.ph, %_ZN9benchmark5State13StateIteratorppEv.exit
  %__begin1.sroa.0.0141 = phi i64 [ %1, %for.body.lr.ph ], [ %dec.i, %_ZN9benchmark5State13StateIteratorppEv.exit ]
  %10 = load i8, ptr %started_.i, align 8, !tbaa !33, !range !45, !noundef !46
  %tobool.not.i = icmp eq i8 %10, 0
  br i1 %tobool.not.i, label %_ZN9benchmark5State13StateIteratorppEv.exit, label %if.end.i22, !prof !47

if.end.i22:                                       ; preds = %for.body
  %11 = load i64, ptr %max_iterations.i.i, align 8, !tbaa !48
  %12 = load i64, ptr %state, align 8, !tbaa !49
  %sub.i = sub i64 %11, %12
  %13 = load i64, ptr %batch_leftover_.i, align 8, !tbaa !50
  %add.i = add i64 %sub.i, %13
  br label %_ZN9benchmark5State13StateIteratorppEv.exit

_ZN9benchmark5State13StateIteratorppEv.exit:      ; preds = %if.end.i22, %for.body
  %retval.0.i = phi i64 [ %add.i, %if.end.i22 ], [ 0, %for.body ]
  tail call void asm sideeffect "", "r|m,~{memory},~{dirflag},~{fpsr},~{flags}"(i64 %retval.0.i) #23, !srcloc !65
  %dec.i = add i64 %__begin1.sroa.0.0141, -1
  %cmp.not.i.not = icmp eq i64 %dec.i, 0
  br i1 %cmp.not.i.not, label %for.cond.cleanup, label %for.body, !prof !47

invoke.cont:                                      ; preds = %_ZNSt3__110unique_ptrINS_11__tree_nodeINS_12__value_typeINS_12basic_stringIcNS_11char_traitsIcEENS_9allocatorIcEEEEN9benchmark7CounterEEEPvEENS_22__tree_node_destructorINS6_ISD_EEEEED2B7v170000Ev.exit.i.i, %call.i.i.noexc
  %__r.0.i.i = phi ptr [ %call.i.i.i.i.i.i.i73, %_ZNSt3__110unique_ptrINS_11__tree_nodeINS_12__value_typeINS_12basic_stringIcNS_11char_traitsIcEENS_9allocatorIcEEEEN9benchmark7CounterEEEPvEENS_22__tree_node_destructorINS6_ISD_EEEEED2B7v170000Ev.exit.i.i ], [ %3, %call.i.i.noexc ]
  call void @llvm.lifetime.end.p0(i64 8, ptr nonnull %__parent.i.i) #23
  %second.i = getelementptr inbounds %"class.std::__1::__tree_node", ptr %__r.0.i.i, i64 0, i32 1, i32 0, i32 1
  store double 1.000000e+00, ptr %second.i, align 8, !tbaa.struct !27
  %ref.tmp5.sroa.5.0.second.i.sroa_idx = getelementptr inbounds %"class.std::__1::__tree_node", ptr %__r.0.i.i, i64 0, i32 1, i32 0, i32 1, i32 1
  store i32 0, ptr %ref.tmp5.sroa.5.0.second.i.sroa_idx, align 8, !tbaa.struct !31
  %ref.tmp5.sroa.6.0.second.i.sroa_idx = getelementptr inbounds %"class.std::__1::__tree_node", ptr %__r.0.i.i, i64 0, i32 1, i32 0, i32 1, i32 2
  store i32 1000, ptr %ref.tmp5.sroa.6.0.second.i.sroa_idx, align 4, !tbaa.struct !32
  %bf.load.i.i = load i8, ptr %ref.tmp6, align 8
  %bf.clear.i.i = and i8 %bf.load.i.i, 1
  %tobool.i.not.i = icmp eq i8 %bf.clear.i.i, 0
  br i1 %tobool.i.not.i, label %_ZNSt3__112basic_stringIcNS_11char_traitsIcEENS_9allocatorIcEEED2Ev.exit, label %if.then.i

if.then.i:                                        ; preds = %invoke.cont
  %__data_.i.i = getelementptr inbounds %"struct.std::__1::basic_string<char>::__long", ptr %ref.tmp6, i64 0, i32 2
  %14 = load ptr, ptr %__data_.i.i, align 8, !tbaa !5
  call void @_ZdlPv(ptr noundef %14) #25
  br label %_ZNSt3__112basic_stringIcNS_11char_traitsIcEENS_9allocatorIcEEED2Ev.exit

_ZNSt3__112basic_stringIcNS_11char_traitsIcEENS_9allocatorIcEEED2Ev.exit: ; preds = %invoke.cont, %if.then.i
  call void @llvm.lifetime.end.p0(i64 24, ptr nonnull %ref.tmp6) #23
  %15 = load i32, ptr @_ZN12_GLOBAL__N_110num_calls1E, align 4, !tbaa !66
  %inc = add nsw i32 %15, 1
  store i32 %inc, ptr @_ZN12_GLOBAL__N_110num_calls1E, align 4, !tbaa !66
  %conv = sitofp i32 %inc to double
  call void @llvm.lifetime.start.p0(i64 24, ptr nonnull %ref.tmp10) #23
  store i8 6, ptr %ref.tmp10, align 8
  %__data_.i.i.i82 = getelementptr inbounds %"struct.std::__1::basic_string<char>::__short", ptr %ref.tmp10, i64 0, i32 2
  %cmp.i24.i.i92 = icmp ugt ptr %__data_.i.i.i82, @.str.6
  %add.ptr.i.i.i93 = getelementptr inbounds %"struct.std::__1::basic_string<char>::__short", ptr %ref.tmp10, i64 0, i32 2, i64 3
  %cmp1.i.i.i94 = icmp ule ptr %add.ptr.i.i.i93, @.str.6
  %16 = or i1 %cmp.i24.i.i92, %cmp1.i.i.i94
  call void @llvm.assume(i1 %16)
  call void @llvm.memcpy.p0.p0.i64(ptr noundef nonnull align 1 dereferenceable(3) %__data_.i.i.i82, ptr noundef nonnull align 1 dereferenceable(3) @.str.6, i64 3, i1 false)
  store i8 0, ptr %add.ptr.i.i.i93, align 4, !tbaa !5
  call void @llvm.lifetime.start.p0(i64 8, ptr nonnull %__parent.i.i96) #23
  %call.i.i114 = invoke noundef nonnull align 8 dereferenceable(8) ptr @_ZNSt3__16__treeINS_12__value_typeINS_12basic_stringIcNS_11char_traitsIcEENS_9allocatorIcEEEEN9benchmark7CounterEEENS_19__map_value_compareIS7_SA_NS_4lessIS7_EELb1EEENS5_ISA_EEE12__find_equalIS7_EERPNS_16__tree_node_baseIPvEERPNS_15__tree_end_nodeISL_EERKT_(ptr noundef nonnull align 8 dereferenceable(24) %counters, ptr noundef nonnull align 8 dereferenceable(8) %__parent.i.i96, ptr noundef nonnull align 8 dereferenceable(24) %ref.tmp10)
          to label %call.i.i.noexc113 unwind label %lpad11

call.i.i.noexc113:                                ; preds = %_ZNSt3__112basic_stringIcNS_11char_traitsIcEENS_9allocatorIcEEED2Ev.exit
  %17 = load ptr, ptr %call.i.i114, align 8, !tbaa !8
  %cmp.i.i97 = icmp eq ptr %17, null
  br i1 %cmp.i.i97, label %if.then.i.i104, label %invoke.cont12

if.then.i.i104:                                   ; preds = %call.i.i.noexc113
  %call.i.i.i.i.i.i.i116 = invoke noalias noundef nonnull dereferenceable(72) ptr @_Znwm(i64 noundef 72) #24
          to label %call.i.i.i.i.i.i.i.noexc115 unwind label %lpad11

call.i.i.i.i.i.i.i.noexc115:                      ; preds = %if.then.i.i104
  %__value_.i.i.i98 = getelementptr inbounds %"class.std::__1::__tree_node", ptr %call.i.i.i.i.i.i.i116, i64 0, i32 1
  call void @llvm.memcpy.p0.p0.i64(ptr noundef nonnull align 8 dereferenceable(24) %__value_.i.i.i98, ptr noundef nonnull align 8 dereferenceable(24) %ref.tmp10, i64 24, i1 false), !noalias !67
  call void @llvm.memset.p0.i64(ptr noundef nonnull align 8 dereferenceable(24) %ref.tmp10, i8 0, i64 24, i1 false), !noalias !67
  %second.i.i.i.i.i.i.i99 = getelementptr inbounds %"class.std::__1::__tree_node", ptr %call.i.i.i.i.i.i.i116, i64 0, i32 1, i32 0, i32 1
  store double 0.000000e+00, ptr %second.i.i.i.i.i.i.i99, align 8, !tbaa !13, !noalias !67
  %flags.i.i.i.i.i.i.i.i100 = getelementptr inbounds %"class.std::__1::__tree_node", ptr %call.i.i.i.i.i.i.i116, i64 0, i32 1, i32 0, i32 1, i32 1
  store i32 0, ptr %flags.i.i.i.i.i.i.i.i100, align 8, !tbaa !18, !noalias !67
  %oneK.i.i.i.i.i.i.i.i101 = getelementptr inbounds %"class.std::__1::__tree_node", ptr %call.i.i.i.i.i.i.i116, i64 0, i32 1, i32 0, i32 1, i32 2
  store i32 1000, ptr %oneK.i.i.i.i.i.i.i.i101, align 4, !tbaa !19, !noalias !67
  %18 = load ptr, ptr %__parent.i.i96, align 8, !tbaa !8
  %__parent_.i.i.i102 = getelementptr inbounds %"class.std::__1::__tree_node_base", ptr %call.i.i.i.i.i.i.i116, i64 0, i32 2
  call void @llvm.memset.p0.i64(ptr noundef nonnull align 8 dereferenceable(16) %call.i.i.i.i.i.i.i116, i8 0, i64 16, i1 false)
  store ptr %18, ptr %__parent_.i.i.i102, align 8, !tbaa !20
  store ptr %call.i.i.i.i.i.i.i116, ptr %call.i.i114, align 8, !tbaa !8
  %19 = load ptr, ptr %counters, align 8, !tbaa !8
  %20 = load ptr, ptr %19, align 8, !tbaa !24
  %cmp.not.i.i.i103 = icmp eq ptr %20, null
  br i1 %cmp.not.i.i.i103, label %_ZNSt3__110unique_ptrINS_11__tree_nodeINS_12__value_typeINS_12basic_stringIcNS_11char_traitsIcEENS_9allocatorIcEEEEN9benchmark7CounterEEEPvEENS_22__tree_node_destructorINS6_ISD_EEEEED2B7v170000Ev.exit.i.i110, label %if.then.i.i.i106

if.then.i.i.i106:                                 ; preds = %call.i.i.i.i.i.i.i.noexc115
  store ptr %20, ptr %counters, align 8, !tbaa !8
  %.pre.i.i.i105 = load ptr, ptr %call.i.i114, align 8, !tbaa !8
  br label %_ZNSt3__110unique_ptrINS_11__tree_nodeINS_12__value_typeINS_12basic_stringIcNS_11char_traitsIcEENS_9allocatorIcEEEEN9benchmark7CounterEEEPvEENS_22__tree_node_destructorINS6_ISD_EEEEED2B7v170000Ev.exit.i.i110

_ZNSt3__110unique_ptrINS_11__tree_nodeINS_12__value_typeINS_12basic_stringIcNS_11char_traitsIcEENS_9allocatorIcEEEEN9benchmark7CounterEEEPvEENS_22__tree_node_destructorINS6_ISD_EEEEED2B7v170000Ev.exit.i.i110: ; preds = %if.then.i.i.i106, %call.i.i.i.i.i.i.i.noexc115
  %21 = phi ptr [ %.pre.i.i.i105, %if.then.i.i.i106 ], [ %call.i.i.i.i.i.i.i116, %call.i.i.i.i.i.i.i.noexc115 ]
  %__pair1_.i.i10.i.i107 = getelementptr inbounds %"class.benchmark::State", ptr %state, i64 0, i32 8, i32 0, i32 1
  %22 = load ptr, ptr %__pair1_.i.i10.i.i107, align 8, !tbaa !24
  call void @_ZNSt3__127__tree_balance_after_insertB7v170000IPNS_16__tree_node_baseIPvEEEEvT_S5_(ptr noundef %22, ptr noundef %21) #23
  %__pair3_.i.i.i.i108 = getelementptr inbounds %"class.benchmark::State", ptr %state, i64 0, i32 8, i32 0, i32 2
  %23 = load i64, ptr %__pair3_.i.i.i.i108, align 8, !tbaa !25
  %inc.i.i.i109 = add i64 %23, 1
  store i64 %inc.i.i.i109, ptr %__pair3_.i.i.i.i108, align 8, !tbaa !25
  br label %invoke.cont12

invoke.cont12:                                    ; preds = %_ZNSt3__110unique_ptrINS_11__tree_nodeINS_12__value_typeINS_12basic_stringIcNS_11char_traitsIcEENS_9allocatorIcEEEEN9benchmark7CounterEEEPvEENS_22__tree_node_destructorINS6_ISD_EEEEED2B7v170000Ev.exit.i.i110, %call.i.i.noexc113
  %__r.0.i.i111 = phi ptr [ %call.i.i.i.i.i.i.i116, %_ZNSt3__110unique_ptrINS_11__tree_nodeINS_12__value_typeINS_12basic_stringIcNS_11char_traitsIcEENS_9allocatorIcEEEEN9benchmark7CounterEEEPvEENS_22__tree_node_destructorINS6_ISD_EEEEED2B7v170000Ev.exit.i.i110 ], [ %17, %call.i.i.noexc113 ]
  call void @llvm.lifetime.end.p0(i64 8, ptr nonnull %__parent.i.i96) #23
  %second.i112 = getelementptr inbounds %"class.std::__1::__tree_node", ptr %__r.0.i.i111, i64 0, i32 1, i32 0, i32 1
  store double %conv, ptr %second.i112, align 8, !tbaa.struct !27
  %ref.tmp8.sroa.5.0.second.i112.sroa_idx = getelementptr inbounds %"class.std::__1::__tree_node", ptr %__r.0.i.i111, i64 0, i32 1, i32 0, i32 1, i32 1
  store i32 0, ptr %ref.tmp8.sroa.5.0.second.i112.sroa_idx, align 8, !tbaa.struct !31
  %ref.tmp8.sroa.6.0.second.i112.sroa_idx = getelementptr inbounds %"class.std::__1::__tree_node", ptr %__r.0.i.i111, i64 0, i32 1, i32 0, i32 1, i32 2
  store i32 1000, ptr %ref.tmp8.sroa.6.0.second.i112.sroa_idx, align 4, !tbaa.struct !32
  %bf.load.i.i118 = load i8, ptr %ref.tmp10, align 8
  %bf.clear.i.i119 = and i8 %bf.load.i.i118, 1
  %tobool.i.not.i120 = icmp eq i8 %bf.clear.i.i119, 0
  br i1 %tobool.i.not.i120, label %_ZNSt3__112basic_stringIcNS_11char_traitsIcEENS_9allocatorIcEEED2Ev.exit124, label %if.then.i122

if.then.i122:                                     ; preds = %invoke.cont12
  %__data_.i.i121 = getelementptr inbounds %"struct.std::__1::basic_string<char>::__long", ptr %ref.tmp10, i64 0, i32 2
  %24 = load ptr, ptr %__data_.i.i121, align 8, !tbaa !5
  call void @_ZdlPv(ptr noundef %24) #25
  br label %_ZNSt3__112basic_stringIcNS_11char_traitsIcEENS_9allocatorIcEEED2Ev.exit124

_ZNSt3__112basic_stringIcNS_11char_traitsIcEENS_9allocatorIcEEED2Ev.exit124: ; preds = %invoke.cont12, %if.then.i122
  call void @llvm.lifetime.end.p0(i64 24, ptr nonnull %ref.tmp10) #23
  call void @llvm.lifetime.start.p0(i64 24, ptr nonnull %ref.tmp2.i) #23
  store i8 32, ptr %ref.tmp2.i, align 8
  %__data_.i.i.i.i = getelementptr inbounds %"struct.std::__1::basic_string<char>::__short", ptr %ref.tmp2.i, i64 0, i32 2
  %cmp.i24.i.i.i = icmp ugt ptr %__data_.i.i.i.i, @.str.62
  %add.ptr.i.i.i.i = getelementptr inbounds %"struct.std::__1::basic_string<char>::__short", ptr %ref.tmp2.i, i64 0, i32 2, i64 16
  %cmp1.i.i.i.i = icmp ule ptr %add.ptr.i.i.i.i, @.str.62
  %25 = or i1 %cmp.i24.i.i.i, %cmp1.i.i.i.i
  call void @llvm.assume(i1 %25)
  call void @llvm.memcpy.p0.p0.i64(ptr noundef nonnull align 1 dereferenceable(16) %__data_.i.i.i.i, ptr noundef nonnull align 1 dereferenceable(16) @.str.62, i64 16, i1 false)
  store i8 0, ptr %add.ptr.i.i.i.i, align 1, !tbaa !5
  call void @llvm.lifetime.start.p0(i64 8, ptr nonnull %__parent.i.i.i) #23
  %call.i.i6.i = invoke noundef nonnull align 8 dereferenceable(8) ptr @_ZNSt3__16__treeINS_12__value_typeINS_12basic_stringIcNS_11char_traitsIcEENS_9allocatorIcEEEEN9benchmark7CounterEEENS_19__map_value_compareIS7_SA_NS_4lessIS7_EELb1EEENS5_ISA_EEE12__find_equalIS7_EERPNS_16__tree_node_baseIPvEERPNS_15__tree_end_nodeISL_EERKT_(ptr noundef nonnull align 8 dereferenceable(24) %counters, ptr noundef nonnull align 8 dereferenceable(8) %__parent.i.i.i, ptr noundef nonnull align 8 dereferenceable(24) %ref.tmp2.i)
          to label %call.i.i.noexc.i unwind label %lpad.i

call.i.i.noexc.i:                                 ; preds = %_ZNSt3__112basic_stringIcNS_11char_traitsIcEENS_9allocatorIcEEED2Ev.exit124
  %26 = load ptr, ptr %call.i.i6.i, align 8, !tbaa !8
  %cmp.i.i4.i = icmp eq ptr %26, null
  br i1 %cmp.i.i4.i, label %if.then.i.i5.i, label %invoke.cont.i

if.then.i.i5.i:                                   ; preds = %call.i.i.noexc.i
  %call.i.i.i.i.i.i.i7.i = invoke noalias noundef nonnull dereferenceable(72) ptr @_Znwm(i64 noundef 72) #24
          to label %call.i.i.i.i.i.i.i.noexc.i unwind label %lpad.i

call.i.i.i.i.i.i.i.noexc.i:                       ; preds = %if.then.i.i5.i
  %__value_.i.i.i.i = getelementptr inbounds %"class.std::__1::__tree_node", ptr %call.i.i.i.i.i.i.i7.i, i64 0, i32 1
  call void @llvm.memcpy.p0.p0.i64(ptr noundef nonnull align 8 dereferenceable(24) %__value_.i.i.i.i, ptr noundef nonnull align 8 dereferenceable(24) %ref.tmp2.i, i64 24, i1 false), !noalias !70
  call void @llvm.memset.p0.i64(ptr noundef nonnull align 8 dereferenceable(24) %ref.tmp2.i, i8 0, i64 24, i1 false), !noalias !70
  %second.i.i.i.i.i.i.i.i = getelementptr inbounds %"class.std::__1::__tree_node", ptr %call.i.i.i.i.i.i.i7.i, i64 0, i32 1, i32 0, i32 1
  store double 0.000000e+00, ptr %second.i.i.i.i.i.i.i.i, align 8, !tbaa !13, !noalias !70
  %flags.i.i.i.i.i.i.i.i.i = getelementptr inbounds %"class.std::__1::__tree_node", ptr %call.i.i.i.i.i.i.i7.i, i64 0, i32 1, i32 0, i32 1, i32 1
  store i32 0, ptr %flags.i.i.i.i.i.i.i.i.i, align 8, !tbaa !18, !noalias !70
  %oneK.i.i.i.i.i.i.i.i.i = getelementptr inbounds %"class.std::__1::__tree_node", ptr %call.i.i.i.i.i.i.i7.i, i64 0, i32 1, i32 0, i32 1, i32 2
  store i32 1000, ptr %oneK.i.i.i.i.i.i.i.i.i, align 4, !tbaa !19, !noalias !70
  %27 = load ptr, ptr %__parent.i.i.i, align 8, !tbaa !8
  %__parent_.i.i.i.i = getelementptr inbounds %"class.std::__1::__tree_node_base", ptr %call.i.i.i.i.i.i.i7.i, i64 0, i32 2
  call void @llvm.memset.p0.i64(ptr noundef nonnull align 8 dereferenceable(16) %call.i.i.i.i.i.i.i7.i, i8 0, i64 16, i1 false)
  store ptr %27, ptr %__parent_.i.i.i.i, align 8, !tbaa !20
  store ptr %call.i.i.i.i.i.i.i7.i, ptr %call.i.i6.i, align 8, !tbaa !8
  %28 = load ptr, ptr %counters, align 8, !tbaa !8
  %29 = load ptr, ptr %28, align 8, !tbaa !24
  %cmp.not.i.i.i.i = icmp eq ptr %29, null
  br i1 %cmp.not.i.i.i.i, label %_ZNSt3__110unique_ptrINS_11__tree_nodeINS_12__value_typeINS_12basic_stringIcNS_11char_traitsIcEENS_9allocatorIcEEEEN9benchmark7CounterEEEPvEENS_22__tree_node_destructorINS6_ISD_EEEEED2B7v170000Ev.exit.i.i.i, label %if.then.i.i.i.i

if.then.i.i.i.i:                                  ; preds = %call.i.i.i.i.i.i.i.noexc.i
  store ptr %29, ptr %counters, align 8, !tbaa !8
  %.pre.i.i.i.i = load ptr, ptr %call.i.i6.i, align 8, !tbaa !8
  br label %_ZNSt3__110unique_ptrINS_11__tree_nodeINS_12__value_typeINS_12basic_stringIcNS_11char_traitsIcEENS_9allocatorIcEEEEN9benchmark7CounterEEEPvEENS_22__tree_node_destructorINS6_ISD_EEEEED2B7v170000Ev.exit.i.i.i

_ZNSt3__110unique_ptrINS_11__tree_nodeINS_12__value_typeINS_12basic_stringIcNS_11char_traitsIcEENS_9allocatorIcEEEEN9benchmark7CounterEEEPvEENS_22__tree_node_destructorINS6_ISD_EEEEED2B7v170000Ev.exit.i.i.i: ; preds = %if.then.i.i.i.i, %call.i.i.i.i.i.i.i.noexc.i
  %30 = phi ptr [ %.pre.i.i.i.i, %if.then.i.i.i.i ], [ %call.i.i.i.i.i.i.i7.i, %call.i.i.i.i.i.i.i.noexc.i ]
  %__pair1_.i.i10.i.i.i = getelementptr inbounds %"class.benchmark::State", ptr %state, i64 0, i32 8, i32 0, i32 1
  %31 = load ptr, ptr %__pair1_.i.i10.i.i.i, align 8, !tbaa !24
  call void @_ZNSt3__127__tree_balance_after_insertB7v170000IPNS_16__tree_node_baseIPvEEEEvT_S5_(ptr noundef %31, ptr noundef %30) #23
  %__pair3_.i.i.i.i.i = getelementptr inbounds %"class.benchmark::State", ptr %state, i64 0, i32 8, i32 0, i32 2
  %32 = load i64, ptr %__pair3_.i.i.i.i.i, align 8, !tbaa !25
  %inc.i.i.i.i = add i64 %32, 1
  store i64 %inc.i.i.i.i, ptr %__pair3_.i.i.i.i.i, align 8, !tbaa !25
  br label %invoke.cont.i

invoke.cont.i:                                    ; preds = %_ZNSt3__110unique_ptrINS_11__tree_nodeINS_12__value_typeINS_12basic_stringIcNS_11char_traitsIcEENS_9allocatorIcEEEEN9benchmark7CounterEEEPvEENS_22__tree_node_destructorINS6_ISD_EEEEED2B7v170000Ev.exit.i.i.i, %call.i.i.noexc.i
  %__r.0.i.i.i = phi ptr [ %call.i.i.i.i.i.i.i7.i, %_ZNSt3__110unique_ptrINS_11__tree_nodeINS_12__value_typeINS_12basic_stringIcNS_11char_traitsIcEENS_9allocatorIcEEEEN9benchmark7CounterEEEPvEENS_22__tree_node_destructorINS6_ISD_EEEEED2B7v170000Ev.exit.i.i.i ], [ %26, %call.i.i.noexc.i ]
  call void @llvm.lifetime.end.p0(i64 8, ptr nonnull %__parent.i.i.i) #23
  %second.i.i = getelementptr inbounds %"class.std::__1::__tree_node", ptr %__r.0.i.i.i, i64 0, i32 1, i32 0, i32 1
  store double 3.640000e+02, ptr %second.i.i, align 8, !tbaa.struct !27
  %ref.tmp.sroa.5.0.second.i.sroa_idx.i = getelementptr inbounds %"class.std::__1::__tree_node", ptr %__r.0.i.i.i, i64 0, i32 1, i32 0, i32 1, i32 1
  store i32 1, ptr %ref.tmp.sroa.5.0.second.i.sroa_idx.i, align 8, !tbaa.struct !31
  %ref.tmp.sroa.6.0.second.i.sroa_idx.i = getelementptr inbounds %"class.std::__1::__tree_node", ptr %__r.0.i.i.i, i64 0, i32 1, i32 0, i32 1, i32 2
  store i32 1024, ptr %ref.tmp.sroa.6.0.second.i.sroa_idx.i, align 4, !tbaa.struct !32
  %bf.load.i.i.i = load i8, ptr %ref.tmp2.i, align 8
  %bf.clear.i.i.i = and i8 %bf.load.i.i.i, 1
  %tobool.i.not.i.i = icmp eq i8 %bf.clear.i.i.i, 0
  br i1 %tobool.i.not.i.i, label %_ZN9benchmark5State17SetBytesProcessedEl.exit, label %if.then.i.i

if.then.i.i:                                      ; preds = %invoke.cont.i
  %__data_.i.i.i = getelementptr inbounds %"struct.std::__1::basic_string<char>::__long", ptr %ref.tmp2.i, i64 0, i32 2
  %33 = load ptr, ptr %__data_.i.i.i, align 8, !tbaa !5
  call void @_ZdlPv(ptr noundef %33) #25
  br label %_ZN9benchmark5State17SetBytesProcessedEl.exit

lpad.i:                                           ; preds = %if.then.i.i5.i, %_ZNSt3__112basic_stringIcNS_11char_traitsIcEENS_9allocatorIcEEED2Ev.exit124
  %34 = landingpad { ptr, i32 }
          cleanup
  %bf.load.i.i8.i = load i8, ptr %ref.tmp2.i, align 8
  %bf.clear.i.i9.i = and i8 %bf.load.i.i8.i, 1
  %tobool.i.not.i10.i = icmp eq i8 %bf.clear.i.i9.i, 0
  br i1 %tobool.i.not.i10.i, label %_ZNSt3__112basic_stringIcNS_11char_traitsIcEENS_9allocatorIcEEED2Ev.exit13.i, label %if.then.i12.i

if.then.i12.i:                                    ; preds = %lpad.i
  %__data_.i.i11.i = getelementptr inbounds %"struct.std::__1::basic_string<char>::__long", ptr %ref.tmp2.i, i64 0, i32 2
  %35 = load ptr, ptr %__data_.i.i11.i, align 8, !tbaa !5
  call void @_ZdlPv(ptr noundef %35) #25
  br label %_ZNSt3__112basic_stringIcNS_11char_traitsIcEENS_9allocatorIcEEED2Ev.exit13.i

common.resume:                                    ; preds = %_ZNSt3__112basic_stringIcNS_11char_traitsIcEENS_9allocatorIcEEED2Ev.exit131, %_ZNSt3__112basic_stringIcNS_11char_traitsIcEENS_9allocatorIcEEED2Ev.exit138, %_ZNSt3__112basic_stringIcNS_11char_traitsIcEENS_9allocatorIcEEED2Ev.exit13.i67, %_ZNSt3__112basic_stringIcNS_11char_traitsIcEENS_9allocatorIcEEED2Ev.exit13.i
  %common.resume.op = phi { ptr, i32 } [ %34, %_ZNSt3__112basic_stringIcNS_11char_traitsIcEENS_9allocatorIcEEED2Ev.exit13.i ], [ %45, %_ZNSt3__112basic_stringIcNS_11char_traitsIcEENS_9allocatorIcEEED2Ev.exit13.i67 ], [ %49, %_ZNSt3__112basic_stringIcNS_11char_traitsIcEENS_9allocatorIcEEED2Ev.exit138 ], [ %47, %_ZNSt3__112basic_stringIcNS_11char_traitsIcEENS_9allocatorIcEEED2Ev.exit131 ]
  resume { ptr, i32 } %common.resume.op

_ZNSt3__112basic_stringIcNS_11char_traitsIcEENS_9allocatorIcEEED2Ev.exit13.i: ; preds = %if.then.i12.i, %lpad.i
  call void @llvm.lifetime.end.p0(i64 24, ptr nonnull %ref.tmp2.i) #23
  br label %common.resume

_ZN9benchmark5State17SetBytesProcessedEl.exit:    ; preds = %invoke.cont.i, %if.then.i.i
  call void @llvm.lifetime.end.p0(i64 24, ptr nonnull %ref.tmp2.i) #23
  call void @llvm.lifetime.start.p0(i64 24, ptr nonnull %ref.tmp2.i27) #23
  store i8 32, ptr %ref.tmp2.i27, align 8
  %__data_.i.i.i.i29 = getelementptr inbounds %"struct.std::__1::basic_string<char>::__short", ptr %ref.tmp2.i27, i64 0, i32 2
  %cmp.i24.i.i.i30 = icmp ugt ptr %__data_.i.i.i.i29, @.str.64
  %add.ptr.i.i.i.i31 = getelementptr inbounds %"struct.std::__1::basic_string<char>::__short", ptr %ref.tmp2.i27, i64 0, i32 2, i64 16
  %cmp1.i.i.i.i32 = icmp ule ptr %add.ptr.i.i.i.i31, @.str.64
  %36 = or i1 %cmp.i24.i.i.i30, %cmp1.i.i.i.i32
  call void @llvm.assume(i1 %36)
  call void @llvm.memcpy.p0.p0.i64(ptr noundef nonnull align 1 dereferenceable(16) %__data_.i.i.i.i29, ptr noundef nonnull align 1 dereferenceable(16) @.str.64, i64 16, i1 false)
  store i8 0, ptr %add.ptr.i.i.i.i31, align 1, !tbaa !5
  call void @llvm.lifetime.start.p0(i64 8, ptr nonnull %__parent.i.i.i26) #23
  %call.i.i6.i33 = invoke noundef nonnull align 8 dereferenceable(8) ptr @_ZNSt3__16__treeINS_12__value_typeINS_12basic_stringIcNS_11char_traitsIcEENS_9allocatorIcEEEEN9benchmark7CounterEEENS_19__map_value_compareIS7_SA_NS_4lessIS7_EELb1EEENS5_ISA_EEE12__find_equalIS7_EERPNS_16__tree_node_baseIPvEERPNS_15__tree_end_nodeISL_EERKT_(ptr noundef nonnull align 8 dereferenceable(24) %counters, ptr noundef nonnull align 8 dereferenceable(8) %__parent.i.i.i26, ptr noundef nonnull align 8 dereferenceable(24) %ref.tmp2.i27)
          to label %call.i.i.noexc.i35 unwind label %lpad.i64

call.i.i.noexc.i35:                               ; preds = %_ZN9benchmark5State17SetBytesProcessedEl.exit
  %37 = load ptr, ptr %call.i.i6.i33, align 8, !tbaa !8
  %cmp.i.i4.i34 = icmp eq ptr %37, null
  br i1 %cmp.i.i4.i34, label %if.then.i.i5.i37, label %invoke.cont.i58

if.then.i.i5.i37:                                 ; preds = %call.i.i.noexc.i35
  %call.i.i.i.i.i.i.i7.i36 = invoke noalias noundef nonnull dereferenceable(72) ptr @_Znwm(i64 noundef 72) #24
          to label %call.i.i.i.i.i.i.i.noexc.i44 unwind label %lpad.i64

call.i.i.i.i.i.i.i.noexc.i44:                     ; preds = %if.then.i.i5.i37
  %__value_.i.i.i.i38 = getelementptr inbounds %"class.std::__1::__tree_node", ptr %call.i.i.i.i.i.i.i7.i36, i64 0, i32 1
  call void @llvm.memcpy.p0.p0.i64(ptr noundef nonnull align 8 dereferenceable(24) %__value_.i.i.i.i38, ptr noundef nonnull align 8 dereferenceable(24) %ref.tmp2.i27, i64 24, i1 false), !noalias !73
  call void @llvm.memset.p0.i64(ptr noundef nonnull align 8 dereferenceable(24) %ref.tmp2.i27, i8 0, i64 24, i1 false), !noalias !73
  %second.i.i.i.i.i.i.i.i39 = getelementptr inbounds %"class.std::__1::__tree_node", ptr %call.i.i.i.i.i.i.i7.i36, i64 0, i32 1, i32 0, i32 1
  store double 0.000000e+00, ptr %second.i.i.i.i.i.i.i.i39, align 8, !tbaa !13, !noalias !73
  %flags.i.i.i.i.i.i.i.i.i40 = getelementptr inbounds %"class.std::__1::__tree_node", ptr %call.i.i.i.i.i.i.i7.i36, i64 0, i32 1, i32 0, i32 1, i32 1
  store i32 0, ptr %flags.i.i.i.i.i.i.i.i.i40, align 8, !tbaa !18, !noalias !73
  %oneK.i.i.i.i.i.i.i.i.i41 = getelementptr inbounds %"class.std::__1::__tree_node", ptr %call.i.i.i.i.i.i.i7.i36, i64 0, i32 1, i32 0, i32 1, i32 2
  store i32 1000, ptr %oneK.i.i.i.i.i.i.i.i.i41, align 4, !tbaa !19, !noalias !73
  %38 = load ptr, ptr %__parent.i.i.i26, align 8, !tbaa !8
  %__parent_.i.i.i.i42 = getelementptr inbounds %"class.std::__1::__tree_node_base", ptr %call.i.i.i.i.i.i.i7.i36, i64 0, i32 2
  call void @llvm.memset.p0.i64(ptr noundef nonnull align 8 dereferenceable(16) %call.i.i.i.i.i.i.i7.i36, i8 0, i64 16, i1 false)
  store ptr %38, ptr %__parent_.i.i.i.i42, align 8, !tbaa !20
  store ptr %call.i.i.i.i.i.i.i7.i36, ptr %call.i.i6.i33, align 8, !tbaa !8
  %39 = load ptr, ptr %counters, align 8, !tbaa !8
  %40 = load ptr, ptr %39, align 8, !tbaa !24
  %cmp.not.i.i.i.i43 = icmp eq ptr %40, null
  br i1 %cmp.not.i.i.i.i43, label %_ZNSt3__110unique_ptrINS_11__tree_nodeINS_12__value_typeINS_12basic_stringIcNS_11char_traitsIcEENS_9allocatorIcEEEEN9benchmark7CounterEEEPvEENS_22__tree_node_destructorINS6_ISD_EEEEED2B7v170000Ev.exit.i.i.i50, label %if.then.i.i.i.i46

if.then.i.i.i.i46:                                ; preds = %call.i.i.i.i.i.i.i.noexc.i44
  store ptr %40, ptr %counters, align 8, !tbaa !8
  %.pre.i.i.i.i45 = load ptr, ptr %call.i.i6.i33, align 8, !tbaa !8
  br label %_ZNSt3__110unique_ptrINS_11__tree_nodeINS_12__value_typeINS_12basic_stringIcNS_11char_traitsIcEENS_9allocatorIcEEEEN9benchmark7CounterEEEPvEENS_22__tree_node_destructorINS6_ISD_EEEEED2B7v170000Ev.exit.i.i.i50

_ZNSt3__110unique_ptrINS_11__tree_nodeINS_12__value_typeINS_12basic_stringIcNS_11char_traitsIcEENS_9allocatorIcEEEEN9benchmark7CounterEEEPvEENS_22__tree_node_destructorINS6_ISD_EEEEED2B7v170000Ev.exit.i.i.i50: ; preds = %if.then.i.i.i.i46, %call.i.i.i.i.i.i.i.noexc.i44
  %41 = phi ptr [ %.pre.i.i.i.i45, %if.then.i.i.i.i46 ], [ %call.i.i.i.i.i.i.i7.i36, %call.i.i.i.i.i.i.i.noexc.i44 ]
  %__pair1_.i.i10.i.i.i47 = getelementptr inbounds %"class.benchmark::State", ptr %state, i64 0, i32 8, i32 0, i32 1
  %42 = load ptr, ptr %__pair1_.i.i10.i.i.i47, align 8, !tbaa !24
  call void @_ZNSt3__127__tree_balance_after_insertB7v170000IPNS_16__tree_node_baseIPvEEEEvT_S5_(ptr noundef %42, ptr noundef %41) #23
  %__pair3_.i.i.i.i.i48 = getelementptr inbounds %"class.benchmark::State", ptr %state, i64 0, i32 8, i32 0, i32 2
  %43 = load i64, ptr %__pair3_.i.i.i.i.i48, align 8, !tbaa !25
  %inc.i.i.i.i49 = add i64 %43, 1
  store i64 %inc.i.i.i.i49, ptr %__pair3_.i.i.i.i.i48, align 8, !tbaa !25
  br label %invoke.cont.i58

invoke.cont.i58:                                  ; preds = %_ZNSt3__110unique_ptrINS_11__tree_nodeINS_12__value_typeINS_12basic_stringIcNS_11char_traitsIcEENS_9allocatorIcEEEEN9benchmark7CounterEEEPvEENS_22__tree_node_destructorINS6_ISD_EEEEED2B7v170000Ev.exit.i.i.i50, %call.i.i.noexc.i35
  %__r.0.i.i.i51 = phi ptr [ %call.i.i.i.i.i.i.i7.i36, %_ZNSt3__110unique_ptrINS_11__tree_nodeINS_12__value_typeINS_12basic_stringIcNS_11char_traitsIcEENS_9allocatorIcEEEEN9benchmark7CounterEEEPvEENS_22__tree_node_destructorINS6_ISD_EEEEED2B7v170000Ev.exit.i.i.i50 ], [ %37, %call.i.i.noexc.i35 ]
  call void @llvm.lifetime.end.p0(i64 8, ptr nonnull %__parent.i.i.i26) #23
  %second.i.i52 = getelementptr inbounds %"class.std::__1::__tree_node", ptr %__r.0.i.i.i51, i64 0, i32 1, i32 0, i32 1
  store double 1.500000e+02, ptr %second.i.i52, align 8, !tbaa.struct !27
  %ref.tmp.sroa.5.0.second.i.sroa_idx.i53 = getelementptr inbounds %"class.std::__1::__tree_node", ptr %__r.0.i.i.i51, i64 0, i32 1, i32 0, i32 1, i32 1
  store i32 1, ptr %ref.tmp.sroa.5.0.second.i.sroa_idx.i53, align 8, !tbaa.struct !31
  %ref.tmp.sroa.6.0.second.i.sroa_idx.i54 = getelementptr inbounds %"class.std::__1::__tree_node", ptr %__r.0.i.i.i51, i64 0, i32 1, i32 0, i32 1, i32 2
  store i32 1000, ptr %ref.tmp.sroa.6.0.second.i.sroa_idx.i54, align 4, !tbaa.struct !32
  %bf.load.i.i.i55 = load i8, ptr %ref.tmp2.i27, align 8
  %bf.clear.i.i.i56 = and i8 %bf.load.i.i.i55, 1
  %tobool.i.not.i.i57 = icmp eq i8 %bf.clear.i.i.i56, 0
  br i1 %tobool.i.not.i.i57, label %_ZN9benchmark5State17SetItemsProcessedEl.exit, label %if.then.i.i60

if.then.i.i60:                                    ; preds = %invoke.cont.i58
  %__data_.i.i.i59 = getelementptr inbounds %"struct.std::__1::basic_string<char>::__long", ptr %ref.tmp2.i27, i64 0, i32 2
  %44 = load ptr, ptr %__data_.i.i.i59, align 8, !tbaa !5
  call void @_ZdlPv(ptr noundef %44) #25
  br label %_ZN9benchmark5State17SetItemsProcessedEl.exit

lpad.i64:                                         ; preds = %if.then.i.i5.i37, %_ZN9benchmark5State17SetBytesProcessedEl.exit
  %45 = landingpad { ptr, i32 }
          cleanup
  %bf.load.i.i8.i61 = load i8, ptr %ref.tmp2.i27, align 8
  %bf.clear.i.i9.i62 = and i8 %bf.load.i.i8.i61, 1
  %tobool.i.not.i10.i63 = icmp eq i8 %bf.clear.i.i9.i62, 0
  br i1 %tobool.i.not.i10.i63, label %_ZNSt3__112basic_stringIcNS_11char_traitsIcEENS_9allocatorIcEEED2Ev.exit13.i67, label %if.then.i12.i66

if.then.i12.i66:                                  ; preds = %lpad.i64
  %__data_.i.i11.i65 = getelementptr inbounds %"struct.std::__1::basic_string<char>::__long", ptr %ref.tmp2.i27, i64 0, i32 2
  %46 = load ptr, ptr %__data_.i.i11.i65, align 8, !tbaa !5
  call void @_ZdlPv(ptr noundef %46) #25
  br label %_ZNSt3__112basic_stringIcNS_11char_traitsIcEENS_9allocatorIcEEED2Ev.exit13.i67

_ZNSt3__112basic_stringIcNS_11char_traitsIcEENS_9allocatorIcEEED2Ev.exit13.i67: ; preds = %if.then.i12.i66, %lpad.i64
  call void @llvm.lifetime.end.p0(i64 24, ptr nonnull %ref.tmp2.i27) #23
  br label %common.resume

_ZN9benchmark5State17SetItemsProcessedEl.exit:    ; preds = %invoke.cont.i58, %if.then.i.i60
  call void @llvm.lifetime.end.p0(i64 24, ptr nonnull %ref.tmp2.i27) #23
  ret void

lpad:                                             ; preds = %if.then.i.i71, %for.cond.cleanup
  %47 = landingpad { ptr, i32 }
          cleanup
  %bf.load.i.i125 = load i8, ptr %ref.tmp6, align 8
  %bf.clear.i.i126 = and i8 %bf.load.i.i125, 1
  %tobool.i.not.i127 = icmp eq i8 %bf.clear.i.i126, 0
  br i1 %tobool.i.not.i127, label %_ZNSt3__112basic_stringIcNS_11char_traitsIcEENS_9allocatorIcEEED2Ev.exit131, label %if.then.i129

if.then.i129:                                     ; preds = %lpad
  %__data_.i.i128 = getelementptr inbounds %"struct.std::__1::basic_string<char>::__long", ptr %ref.tmp6, i64 0, i32 2
  %48 = load ptr, ptr %__data_.i.i128, align 8, !tbaa !5
  call void @_ZdlPv(ptr noundef %48) #25
  br label %_ZNSt3__112basic_stringIcNS_11char_traitsIcEENS_9allocatorIcEEED2Ev.exit131

_ZNSt3__112basic_stringIcNS_11char_traitsIcEENS_9allocatorIcEEED2Ev.exit131: ; preds = %lpad, %if.then.i129
  call void @llvm.lifetime.end.p0(i64 24, ptr nonnull %ref.tmp6) #23
  br label %common.resume

lpad11:                                           ; preds = %if.then.i.i104, %_ZNSt3__112basic_stringIcNS_11char_traitsIcEENS_9allocatorIcEEED2Ev.exit
  %49 = landingpad { ptr, i32 }
          cleanup
  %bf.load.i.i132 = load i8, ptr %ref.tmp10, align 8
  %bf.clear.i.i133 = and i8 %bf.load.i.i132, 1
  %tobool.i.not.i134 = icmp eq i8 %bf.clear.i.i133, 0
  br i1 %tobool.i.not.i134, label %_ZNSt3__112basic_stringIcNS_11char_traitsIcEENS_9allocatorIcEEED2Ev.exit138, label %if.then.i136

if.then.i136:                                     ; preds = %lpad11
  %__data_.i.i135 = getelementptr inbounds %"struct.std::__1::basic_string<char>::__long", ptr %ref.tmp10, i64 0, i32 2
  %50 = load ptr, ptr %__data_.i.i135, align 8, !tbaa !5
  call void @_ZdlPv(ptr noundef %50) #25
  br label %_ZNSt3__112basic_stringIcNS_11char_traitsIcEENS_9allocatorIcEEED2Ev.exit138

_ZNSt3__112basic_stringIcNS_11char_traitsIcEENS_9allocatorIcEEED2Ev.exit138: ; preds = %lpad11, %if.then.i136
  call void @llvm.lifetime.end.p0(i64 24, ptr nonnull %ref.tmp10) #23
  br label %common.resume
}

; Function Attrs: uwtable
define hidden void @_Z22CheckBytesAndItemsPSecRK7Results(ptr noundef nonnull align 8 dereferenceable(48) %e) #2 personality ptr @__gxx_personality_v0 {
entry:
  %ref.tmp = alloca %"class.benchmark::internal::CheckHandler", align 8
  %ref.tmp74 = alloca %"class.benchmark::internal::CheckHandler", align 8
  %ref.tmp155 = alloca %"class.benchmark::internal::CheckHandler", align 8
  %ref.tmp306 = alloca %"class.benchmark::internal::CheckHandler", align 8
  %call.i = tail call noundef double @_ZNK7Results13NumIterationsEv(ptr noundef nonnull align 8 dereferenceable(48) %e)
  %call2.i = tail call noundef double @_ZNK7Results7GetTimeENS_13BenchmarkTimeE(ptr noundef nonnull align 8 dereferenceable(48) %e, i32 noundef 0)
  %mul.i = fmul double %call.i, %call2.i
  %call.i515 = tail call noundef double @_ZNK7Results5GetAsIdEET_PKc(ptr noundef nonnull align 8 dereferenceable(48) %e, ptr noundef nonnull @.str.5)
  %conv.i = fptosi double %call.i515 to i32
  %cmp.not = icmp eq i32 %conv.i, 1
  br i1 %cmp.not, label %cond.true, label %cond.false

cond.true:                                        ; preds = %entry
  %0 = load atomic i8, ptr @_ZGVZN9benchmark8internal18GetNullLogInstanceEvE3log acquire, align 8
  %guard.uninitialized.i = icmp eq i8 %0, 0
  br i1 %guard.uninitialized.i, label %init.check.i, label %cond.end, !prof !54

init.check.i:                                     ; preds = %cond.true
  %1 = tail call i32 @__cxa_guard_acquire(ptr nonnull @_ZGVZN9benchmark8internal18GetNullLogInstanceEvE3log) #23
  %tobool.not.i = icmp eq i32 %1, 0
  br i1 %tobool.not.i, label %cond.end, label %init.i

init.i:                                           ; preds = %init.check.i
  store ptr null, ptr @_ZZN9benchmark8internal18GetNullLogInstanceEvE3log, align 8, !tbaa !55
  tail call void @__cxa_guard_release(ptr nonnull @_ZGVZN9benchmark8internal18GetNullLogInstanceEvE3log) #23
  br label %cond.end

cond.false:                                       ; preds = %entry
  call void @llvm.lifetime.start.p0(i64 8, ptr nonnull %ref.tmp) #23
  call void @_ZN9benchmark8internal12CheckHandlerC2EPKcS3_S3_i(ptr noundef nonnull align 8 dereferenceable(8) %ref.tmp, ptr noundef nonnull @.str.29, ptr noundef nonnull @.str.30, ptr noundef nonnull @__func__._Z22CheckBytesAndItemsPSecRK7Results, i32 noundef 105)
  %2 = load ptr, ptr %ref.tmp, align 8, !tbaa !57
  br label %cond.end

cond.end:                                         ; preds = %init.i, %init.check.i, %cond.true, %cond.false
  %cond-lvalue = phi ptr [ %2, %cond.false ], [ @_ZZN9benchmark8internal18GetNullLogInstanceEvE3log, %cond.true ], [ @_ZZN9benchmark8internal18GetNullLogInstanceEvE3log, %init.check.i ], [ @_ZZN9benchmark8internal18GetNullLogInstanceEvE3log, %init.i ]
  %3 = load ptr, ptr %cond-lvalue, align 8, !tbaa !55
  %tobool.not.i516 = icmp eq ptr %3, null
  br i1 %tobool.not.i516, label %invoke.cont39, label %if.then.i

if.then.i:                                        ; preds = %cond.end
  %call1.i.i517 = invoke noundef nonnull align 8 dereferenceable(8) ptr @_ZNSt3__124__put_character_sequenceB7v170000IcNS_11char_traitsIcEEEERNS_13basic_ostreamIT_T0_EES7_PKS4_m(ptr noundef nonnull align 8 dereferenceable(8) %3, ptr noundef nonnull @.str.31, i64 noundef 1)
          to label %invoke.cont5 unwind label %lpad

invoke.cont5:                                     ; preds = %if.then.i
  %.pr = load ptr, ptr %cond-lvalue, align 8, !tbaa !55
  %tobool.not.i518 = icmp eq ptr %.pr, null
  br i1 %tobool.not.i518, label %invoke.cont39, label %if.then.i520

if.then.i520:                                     ; preds = %invoke.cont5
  %call1.i.i522 = invoke noundef nonnull align 8 dereferenceable(8) ptr @_ZNSt3__124__put_character_sequenceB7v170000IcNS_11char_traitsIcEEEERNS_13basic_ostreamIT_T0_EES7_PKS4_m(ptr noundef nonnull align 8 dereferenceable(8) %.pr, ptr noundef nonnull @.str.30, i64 noundef 109)
          to label %invoke.cont7 unwind label %lpad

invoke.cont7:                                     ; preds = %if.then.i520
  %.pr1171 = load ptr, ptr %cond-lvalue, align 8, !tbaa !55
  %tobool.not.i523 = icmp eq ptr %.pr1171, null
  br i1 %tobool.not.i523, label %invoke.cont39, label %if.then.i525

if.then.i525:                                     ; preds = %invoke.cont7
  %call1.i.i527 = invoke noundef nonnull align 8 dereferenceable(8) ptr @_ZNSt3__124__put_character_sequenceB7v170000IcNS_11char_traitsIcEEEERNS_13basic_ostreamIT_T0_EES7_PKS4_m(ptr noundef nonnull align 8 dereferenceable(8) %.pr1171, ptr noundef nonnull @.str.32, i64 noundef 1)
          to label %invoke.cont9 unwind label %lpad

invoke.cont9:                                     ; preds = %if.then.i525
  %.pr1173.pr = load ptr, ptr %cond-lvalue, align 8, !tbaa !55
  %tobool.not.i529 = icmp eq ptr %.pr1173.pr, null
  br i1 %tobool.not.i529, label %invoke.cont39, label %if.then.i531

if.then.i531:                                     ; preds = %invoke.cont9
  %call.i530532 = invoke noundef nonnull align 8 dereferenceable(8) ptr @_ZNSt3__113basic_ostreamIcNS_11char_traitsIcEEElsEi(ptr noundef nonnull align 8 dereferenceable(8) %.pr1173.pr, i32 noundef 105)
          to label %invoke.cont13 unwind label %lpad12

invoke.cont13:                                    ; preds = %if.then.i531
  %.pr1175 = load ptr, ptr %cond-lvalue, align 8, !tbaa !55
  %tobool.not.i533 = icmp eq ptr %.pr1175, null
  br i1 %tobool.not.i533, label %invoke.cont39, label %if.then.i535

if.then.i535:                                     ; preds = %invoke.cont13
  %call1.i.i537 = invoke noundef nonnull align 8 dereferenceable(8) ptr @_ZNSt3__124__put_character_sequenceB7v170000IcNS_11char_traitsIcEEEERNS_13basic_ostreamIT_T0_EES7_PKS4_m(ptr noundef nonnull align 8 dereferenceable(8) %.pr1175, ptr noundef nonnull @.str.33, i64 noundef 2)
          to label %invoke.cont15 unwind label %lpad12

invoke.cont15:                                    ; preds = %if.then.i535
  %.pr1177.pr.pr = load ptr, ptr %cond-lvalue, align 8, !tbaa !55
  %tobool.not.i538 = icmp eq ptr %.pr1177.pr.pr, null
  br i1 %tobool.not.i538, label %invoke.cont39, label %if.then.i539

if.then.i539:                                     ; preds = %invoke.cont15
  %bf.load.i.i.i.i.i = load i8, ptr %e, align 8
  %bf.clear.i.i.i.i.i = and i8 %bf.load.i.i.i.i.i, 1
  %tobool.i.not.i.i.i.i = icmp eq i8 %bf.clear.i.i.i.i.i, 0
  %__data_.i.i.i.i.i = getelementptr inbounds %"struct.std::__1::basic_string<char>::__long", ptr %e, i64 0, i32 2
  %4 = load ptr, ptr %__data_.i.i.i.i.i, align 8
  %__data_.i4.i.i.i.i = getelementptr inbounds %"struct.std::__1::basic_string<char>::__short", ptr %e, i64 0, i32 2
  %cond.i.i.i.i = select i1 %tobool.i.not.i.i.i.i, ptr %__data_.i4.i.i.i.i, ptr %4
  %__size_.i.i.i.i = getelementptr inbounds %"struct.std::__1::basic_string<char>::__long", ptr %e, i64 0, i32 1
  %5 = load i64, ptr %__size_.i.i.i.i, align 8
  %bf.lshr.i.i.i.i = lshr i8 %bf.load.i.i.i.i.i, 1
  %conv.i.i.i.i = zext i8 %bf.lshr.i.i.i.i to i64
  %cond.i.i.i = select i1 %tobool.i.not.i.i.i.i, i64 %conv.i.i.i.i, i64 %5
  %call2.i.i540 = invoke noundef nonnull align 8 dereferenceable(8) ptr @_ZNSt3__124__put_character_sequenceB7v170000IcNS_11char_traitsIcEEEERNS_13basic_ostreamIT_T0_EES7_PKS4_m(ptr noundef nonnull align 8 dereferenceable(8) %.pr1177.pr.pr, ptr noundef %cond.i.i.i.i, i64 noundef %cond.i.i.i)
          to label %invoke.cont17 unwind label %lpad12

invoke.cont17:                                    ; preds = %if.then.i539
  %.pr1179 = load ptr, ptr %cond-lvalue, align 8, !tbaa !55
  %tobool.not.i541 = icmp eq ptr %.pr1179, null
  br i1 %tobool.not.i541, label %invoke.cont39, label %if.then.i543

if.then.i543:                                     ; preds = %invoke.cont17
  %call1.i.i545 = invoke noundef nonnull align 8 dereferenceable(8) ptr @_ZNSt3__124__put_character_sequenceB7v170000IcNS_11char_traitsIcEEEERNS_13basic_ostreamIT_T0_EES7_PKS4_m(ptr noundef nonnull align 8 dereferenceable(8) %.pr1179, ptr noundef nonnull @.str.34, i64 noundef 2)
          to label %invoke.cont19 unwind label %lpad12

invoke.cont19:                                    ; preds = %if.then.i543
  %.pr1181.pr.pr = load ptr, ptr %cond-lvalue, align 8, !tbaa !55
  %tobool.not.i547 = icmp eq ptr %.pr1181.pr.pr, null
  br i1 %tobool.not.i547, label %invoke.cont39, label %if.then.i549

if.then.i549:                                     ; preds = %invoke.cont19
  %call1.i.i551 = invoke noundef nonnull align 8 dereferenceable(8) ptr @_ZNSt3__124__put_character_sequenceB7v170000IcNS_11char_traitsIcEEEERNS_13basic_ostreamIT_T0_EES7_PKS4_m(ptr noundef nonnull align 8 dereferenceable(8) %.pr1181.pr.pr, ptr noundef nonnull @.str.30, i64 noundef 109)
          to label %invoke.cont21 unwind label %lpad12

invoke.cont21:                                    ; preds = %if.then.i549
  %.pr1183 = load ptr, ptr %cond-lvalue, align 8, !tbaa !55
  %tobool.not.i553 = icmp eq ptr %.pr1183, null
  br i1 %tobool.not.i553, label %invoke.cont39, label %if.then.i555

if.then.i555:                                     ; preds = %invoke.cont21
  %call1.i.i557 = invoke noundef nonnull align 8 dereferenceable(8) ptr @_ZNSt3__124__put_character_sequenceB7v170000IcNS_11char_traitsIcEEEERNS_13basic_ostreamIT_T0_EES7_PKS4_m(ptr noundef nonnull align 8 dereferenceable(8) %.pr1183, ptr noundef nonnull @.str.32, i64 noundef 1)
          to label %invoke.cont23 unwind label %lpad12

invoke.cont23:                                    ; preds = %if.then.i555
  %.pr1185.pr.pr.pr = load ptr, ptr %cond-lvalue, align 8, !tbaa !55
  %tobool.not.i559 = icmp eq ptr %.pr1185.pr.pr.pr, null
  br i1 %tobool.not.i559, label %invoke.cont39, label %if.then.i561

if.then.i561:                                     ; preds = %invoke.cont23
  %call.i560562 = invoke noundef nonnull align 8 dereferenceable(8) ptr @_ZNSt3__113basic_ostreamIcNS_11char_traitsIcEEElsEi(ptr noundef nonnull align 8 dereferenceable(8) %.pr1185.pr.pr.pr, i32 noundef 105)
          to label %invoke.cont27 unwind label %lpad26

invoke.cont27:                                    ; preds = %if.then.i561
  %.pr1187 = load ptr, ptr %cond-lvalue, align 8, !tbaa !55
  %tobool.not.i564 = icmp eq ptr %.pr1187, null
  br i1 %tobool.not.i564, label %invoke.cont39, label %if.then.i566

if.then.i566:                                     ; preds = %invoke.cont27
  %call1.i.i568 = invoke noundef nonnull align 8 dereferenceable(8) ptr @_ZNSt3__124__put_character_sequenceB7v170000IcNS_11char_traitsIcEEEERNS_13basic_ostreamIT_T0_EES7_PKS4_m(ptr noundef nonnull align 8 dereferenceable(8) %.pr1187, ptr noundef nonnull @.str.33, i64 noundef 2)
          to label %invoke.cont29 unwind label %lpad26

invoke.cont29:                                    ; preds = %if.then.i566
  %.pr1189.pr.pr.pr = load ptr, ptr %cond-lvalue, align 8, !tbaa !55
  %tobool.not.i570 = icmp eq ptr %.pr1189.pr.pr.pr, null
  br i1 %tobool.not.i570, label %invoke.cont39, label %if.then.i572

if.then.i572:                                     ; preds = %invoke.cont29
  %call1.i.i574 = invoke noundef nonnull align 8 dereferenceable(8) ptr @_ZNSt3__124__put_character_sequenceB7v170000IcNS_11char_traitsIcEEEERNS_13basic_ostreamIT_T0_EES7_PKS4_m(ptr noundef nonnull align 8 dereferenceable(8) %.pr1189.pr.pr.pr, ptr noundef nonnull @.str.35, i64 noundef 10)
          to label %invoke.cont31 unwind label %lpad26

invoke.cont31:                                    ; preds = %if.then.i572
  %.pr1191 = load ptr, ptr %cond-lvalue, align 8, !tbaa !55
  %tobool.not.i575 = icmp eq ptr %.pr1191, null
  br i1 %tobool.not.i575, label %invoke.cont39, label %if.then.i577

if.then.i577:                                     ; preds = %invoke.cont31
  %call1.i.i579 = invoke noundef nonnull align 8 dereferenceable(8) ptr @_ZNSt3__124__put_character_sequenceB7v170000IcNS_11char_traitsIcEEEERNS_13basic_ostreamIT_T0_EES7_PKS4_m(ptr noundef nonnull align 8 dereferenceable(8) %.pr1191, ptr noundef nonnull @.str.36, i64 noundef 3)
          to label %invoke.cont33 unwind label %lpad26

invoke.cont33:                                    ; preds = %if.then.i577
  %.pr1193.pr.pr.pr = load ptr, ptr %cond-lvalue, align 8, !tbaa !55
  %tobool.not.i580 = icmp eq ptr %.pr1193.pr.pr.pr, null
  br i1 %tobool.not.i580, label %invoke.cont39, label %if.then.i582

if.then.i582:                                     ; preds = %invoke.cont33
  %call1.i.i584 = invoke noundef nonnull align 8 dereferenceable(8) ptr @_ZNSt3__124__put_character_sequenceB7v170000IcNS_11char_traitsIcEEEERNS_13basic_ostreamIT_T0_EES7_PKS4_m(ptr noundef nonnull align 8 dereferenceable(8) %.pr1193.pr.pr.pr, ptr noundef nonnull @.str.37, i64 noundef 1)
          to label %invoke.cont35 unwind label %lpad26

invoke.cont35:                                    ; preds = %if.then.i582
  %.pr1195 = load ptr, ptr %cond-lvalue, align 8, !tbaa !55
  %tobool.not.i586 = icmp eq ptr %.pr1195, null
  br i1 %tobool.not.i586, label %invoke.cont39, label %if.then.i588

if.then.i588:                                     ; preds = %invoke.cont35
  %call1.i.i590 = invoke noundef nonnull align 8 dereferenceable(8) ptr @_ZNSt3__124__put_character_sequenceB7v170000IcNS_11char_traitsIcEEEERNS_13basic_ostreamIT_T0_EES7_PKS4_m(ptr noundef nonnull align 8 dereferenceable(8) %.pr1195, ptr noundef nonnull @.str.5, i64 noundef 3)
          to label %invoke.cont37 unwind label %lpad26

invoke.cont37:                                    ; preds = %if.then.i588
  %.pr1197.pr.pr.pr = load ptr, ptr %cond-lvalue, align 8, !tbaa !55
  %tobool.not.i592 = icmp eq ptr %.pr1197.pr.pr.pr, null
  br i1 %tobool.not.i592, label %invoke.cont39, label %if.then.i594

if.then.i594:                                     ; preds = %invoke.cont37
  %call1.i.i596 = invoke noundef nonnull align 8 dereferenceable(8) ptr @_ZNSt3__124__put_character_sequenceB7v170000IcNS_11char_traitsIcEEEERNS_13basic_ostreamIT_T0_EES7_PKS4_m(ptr noundef nonnull align 8 dereferenceable(8) %.pr1197.pr.pr.pr, ptr noundef nonnull @.str.38, i64 noundef 1)
          to label %invoke.cont39 unwind label %lpad26

invoke.cont39:                                    ; preds = %invoke.cont19, %invoke.cont17, %invoke.cont15, %invoke.cont13, %invoke.cont9, %invoke.cont7, %invoke.cont5, %cond.end, %invoke.cont27, %invoke.cont29, %invoke.cont21, %invoke.cont23, %invoke.cont33, %invoke.cont31, %invoke.cont35, %invoke.cont37, %if.then.i594
  %call.i598600 = invoke noundef double @_ZNK7Results5GetAsIdEET_PKc(ptr noundef nonnull align 8 dereferenceable(48) %e, ptr noundef nonnull @.str.5)
          to label %invoke.cont43 unwind label %lpad42

invoke.cont43:                                    ; preds = %invoke.cont39
  %6 = load ptr, ptr %cond-lvalue, align 8, !tbaa !55
  %tobool.not.i601 = icmp eq ptr %6, null
  br i1 %tobool.not.i601, label %invoke.cont53, label %if.then.i603

if.then.i603:                                     ; preds = %invoke.cont43
  %conv.i599 = fptosi double %call.i598600 to i32
  %call.i602604 = invoke noundef nonnull align 8 dereferenceable(8) ptr @_ZNSt3__113basic_ostreamIcNS_11char_traitsIcEEElsEi(ptr noundef nonnull align 8 dereferenceable(8) %6, i32 noundef %conv.i599)
          to label %invoke.cont45 unwind label %lpad42

invoke.cont45:                                    ; preds = %if.then.i603
  %.pr1199 = load ptr, ptr %cond-lvalue, align 8, !tbaa !55
  %tobool.not.i606 = icmp eq ptr %.pr1199, null
  br i1 %tobool.not.i606, label %invoke.cont53, label %if.then.i608

if.then.i608:                                     ; preds = %invoke.cont45
  %call1.i.i610 = invoke noundef nonnull align 8 dereferenceable(8) ptr @_ZNSt3__124__put_character_sequenceB7v170000IcNS_11char_traitsIcEEEERNS_13basic_ostreamIT_T0_EES7_PKS4_m(ptr noundef nonnull align 8 dereferenceable(8) %.pr1199, ptr noundef nonnull @.str.39, i64 noundef 13)
          to label %invoke.cont47 unwind label %lpad42

invoke.cont47:                                    ; preds = %if.then.i608
  %.pr1201 = load ptr, ptr %cond-lvalue, align 8, !tbaa !55
  %tobool.not.i611 = icmp eq ptr %.pr1201, null
  br i1 %tobool.not.i611, label %invoke.cont53, label %if.then.i613

if.then.i613:                                     ; preds = %invoke.cont47
  %call.i612614 = invoke noundef nonnull align 8 dereferenceable(8) ptr @_ZNSt3__113basic_ostreamIcNS_11char_traitsIcEEElsEi(ptr noundef nonnull align 8 dereferenceable(8) %.pr1201, i32 noundef 1)
          to label %invoke.cont51 unwind label %lpad50

invoke.cont51:                                    ; preds = %if.then.i613
  %.pr1203.pr = load ptr, ptr %cond-lvalue, align 8, !tbaa !55
  %tobool.not.i616 = icmp eq ptr %.pr1203.pr, null
  br i1 %tobool.not.i616, label %invoke.cont53, label %if.then.i618

if.then.i618:                                     ; preds = %invoke.cont51
  %call1.i.i620 = invoke noundef nonnull align 8 dereferenceable(8) ptr @_ZNSt3__124__put_character_sequenceB7v170000IcNS_11char_traitsIcEEEERNS_13basic_ostreamIT_T0_EES7_PKS4_m(ptr noundef nonnull align 8 dereferenceable(8) %.pr1203.pr, ptr noundef nonnull @.str.31, i64 noundef 1)
          to label %invoke.cont53 unwind label %lpad50

invoke.cont53:                                    ; preds = %invoke.cont45, %invoke.cont43, %invoke.cont47, %invoke.cont51, %if.then.i618
  br i1 %cmp.not, label %cleanup.done64, label %cleanup.action

cleanup.action:                                   ; preds = %invoke.cont53
  call void @_ZN9benchmark8internal12CheckHandlerD2Ev(ptr noundef nonnull align 8 dereferenceable(8) %ref.tmp) #26
  unreachable

lpad:                                             ; preds = %if.then.i525, %if.then.i520, %if.then.i
  %7 = landingpad { ptr, i32 }
          cleanup
  br label %ehcleanup57

lpad12:                                           ; preds = %if.then.i555, %if.then.i549, %if.then.i543, %if.then.i539, %if.then.i535, %if.then.i531
  %8 = landingpad { ptr, i32 }
          cleanup
  br label %ehcleanup57

lpad26:                                           ; preds = %if.then.i594, %if.then.i588, %if.then.i582, %if.then.i577, %if.then.i572, %if.then.i566, %if.then.i561
  %9 = landingpad { ptr, i32 }
          cleanup
  br label %ehcleanup57

lpad42:                                           ; preds = %if.then.i608, %if.then.i603, %invoke.cont39
  %10 = landingpad { ptr, i32 }
          cleanup
  br label %ehcleanup57

lpad50:                                           ; preds = %if.then.i618, %if.then.i613
  %11 = landingpad { ptr, i32 }
          cleanup
  br label %ehcleanup57

cleanup.done64:                                   ; preds = %invoke.cont53
  %call.i622 = call noundef double @_ZNK7Results5GetAsIdEET_PKc(ptr noundef nonnull align 8 dereferenceable(48) %e, ptr noundef nonnull @.str.6)
  %conv.i623 = fptosi double %call.i622 to i32
  %12 = load i32, ptr @_ZN12_GLOBAL__N_110num_calls1E, align 4, !tbaa !66
  %cmp70.not = icmp eq i32 %12, %conv.i623
  br i1 %cmp70.not, label %cond.true71, label %cond.false73

cond.true71:                                      ; preds = %cleanup.done64
  %13 = load atomic i8, ptr @_ZGVZN9benchmark8internal18GetNullLogInstanceEvE3log acquire, align 8
  %guard.uninitialized.i624 = icmp eq i8 %13, 0
  br i1 %guard.uninitialized.i624, label %init.check.i626, label %cond.end80, !prof !54

init.check.i626:                                  ; preds = %cond.true71
  %14 = call i32 @__cxa_guard_acquire(ptr nonnull @_ZGVZN9benchmark8internal18GetNullLogInstanceEvE3log) #23
  %tobool.not.i625 = icmp eq i32 %14, 0
  br i1 %tobool.not.i625, label %cond.end80, label %init.i627

init.i627:                                        ; preds = %init.check.i626
  store ptr null, ptr @_ZZN9benchmark8internal18GetNullLogInstanceEvE3log, align 8, !tbaa !55
  call void @__cxa_guard_release(ptr nonnull @_ZGVZN9benchmark8internal18GetNullLogInstanceEvE3log) #23
  br label %cond.end80

cond.false73:                                     ; preds = %cleanup.done64
  call void @llvm.lifetime.start.p0(i64 8, ptr nonnull %ref.tmp74) #23
  call void @_ZN9benchmark8internal12CheckHandlerC2EPKcS3_S3_i(ptr noundef nonnull align 8 dereferenceable(8) %ref.tmp74, ptr noundef nonnull @.str.61, ptr noundef nonnull @.str.30, ptr noundef nonnull @__func__._Z22CheckBytesAndItemsPSecRK7Results, i32 noundef 106)
  %15 = load ptr, ptr %ref.tmp74, align 8, !tbaa !57
  br label %cond.end80

cond.end80:                                       ; preds = %init.i627, %init.check.i626, %cond.true71, %cond.false73
  %cond-lvalue81 = phi ptr [ %15, %cond.false73 ], [ @_ZZN9benchmark8internal18GetNullLogInstanceEvE3log, %cond.true71 ], [ @_ZZN9benchmark8internal18GetNullLogInstanceEvE3log, %init.check.i626 ], [ @_ZZN9benchmark8internal18GetNullLogInstanceEvE3log, %init.i627 ]
  %16 = load ptr, ptr %cond-lvalue81, align 8, !tbaa !55
  %tobool.not.i629 = icmp eq ptr %16, null
  br i1 %tobool.not.i629, label %invoke.cont117, label %if.then.i631

if.then.i631:                                     ; preds = %cond.end80
  %call1.i.i633 = invoke noundef nonnull align 8 dereferenceable(8) ptr @_ZNSt3__124__put_character_sequenceB7v170000IcNS_11char_traitsIcEEEERNS_13basic_ostreamIT_T0_EES7_PKS4_m(ptr noundef nonnull align 8 dereferenceable(8) %16, ptr noundef nonnull @.str.31, i64 noundef 1)
          to label %invoke.cont82 unwind label %lpad77

invoke.cont82:                                    ; preds = %if.then.i631
  %.pr1205 = load ptr, ptr %cond-lvalue81, align 8, !tbaa !55
  %tobool.not.i635 = icmp eq ptr %.pr1205, null
  br i1 %tobool.not.i635, label %invoke.cont117, label %if.then.i637

if.then.i637:                                     ; preds = %invoke.cont82
  %call1.i.i639 = invoke noundef nonnull align 8 dereferenceable(8) ptr @_ZNSt3__124__put_character_sequenceB7v170000IcNS_11char_traitsIcEEEERNS_13basic_ostreamIT_T0_EES7_PKS4_m(ptr noundef nonnull align 8 dereferenceable(8) %.pr1205, ptr noundef nonnull @.str.30, i64 noundef 109)
          to label %invoke.cont84 unwind label %lpad77

invoke.cont84:                                    ; preds = %if.then.i637
  %.pr1207 = load ptr, ptr %cond-lvalue81, align 8, !tbaa !55
  %tobool.not.i641 = icmp eq ptr %.pr1207, null
  br i1 %tobool.not.i641, label %invoke.cont117, label %if.then.i643

if.then.i643:                                     ; preds = %invoke.cont84
  %call1.i.i645 = invoke noundef nonnull align 8 dereferenceable(8) ptr @_ZNSt3__124__put_character_sequenceB7v170000IcNS_11char_traitsIcEEEERNS_13basic_ostreamIT_T0_EES7_PKS4_m(ptr noundef nonnull align 8 dereferenceable(8) %.pr1207, ptr noundef nonnull @.str.32, i64 noundef 1)
          to label %invoke.cont86 unwind label %lpad77

invoke.cont86:                                    ; preds = %if.then.i643
  %.pr1209.pr = load ptr, ptr %cond-lvalue81, align 8, !tbaa !55
  %tobool.not.i647 = icmp eq ptr %.pr1209.pr, null
  br i1 %tobool.not.i647, label %invoke.cont117, label %if.then.i649

if.then.i649:                                     ; preds = %invoke.cont86
  %call.i648650 = invoke noundef nonnull align 8 dereferenceable(8) ptr @_ZNSt3__113basic_ostreamIcNS_11char_traitsIcEEElsEi(ptr noundef nonnull align 8 dereferenceable(8) %.pr1209.pr, i32 noundef 106)
          to label %invoke.cont90 unwind label %lpad89

invoke.cont90:                                    ; preds = %if.then.i649
  %.pr1211 = load ptr, ptr %cond-lvalue81, align 8, !tbaa !55
  %tobool.not.i652 = icmp eq ptr %.pr1211, null
  br i1 %tobool.not.i652, label %invoke.cont117, label %if.then.i654

if.then.i654:                                     ; preds = %invoke.cont90
  %call1.i.i656 = invoke noundef nonnull align 8 dereferenceable(8) ptr @_ZNSt3__124__put_character_sequenceB7v170000IcNS_11char_traitsIcEEEERNS_13basic_ostreamIT_T0_EES7_PKS4_m(ptr noundef nonnull align 8 dereferenceable(8) %.pr1211, ptr noundef nonnull @.str.33, i64 noundef 2)
          to label %invoke.cont92 unwind label %lpad89

invoke.cont92:                                    ; preds = %if.then.i654
  %.pr1213.pr.pr = load ptr, ptr %cond-lvalue81, align 8, !tbaa !55
  %tobool.not.i658 = icmp eq ptr %.pr1213.pr.pr, null
  br i1 %tobool.not.i658, label %invoke.cont117, label %if.then.i669

if.then.i669:                                     ; preds = %invoke.cont92
  %bf.load.i.i.i.i.i659 = load i8, ptr %e, align 8
  %bf.clear.i.i.i.i.i660 = and i8 %bf.load.i.i.i.i.i659, 1
  %tobool.i.not.i.i.i.i661 = icmp eq i8 %bf.clear.i.i.i.i.i660, 0
  %__data_.i.i.i.i.i662 = getelementptr inbounds %"struct.std::__1::basic_string<char>::__long", ptr %e, i64 0, i32 2
  %17 = load ptr, ptr %__data_.i.i.i.i.i662, align 8
  %__data_.i4.i.i.i.i663 = getelementptr inbounds %"struct.std::__1::basic_string<char>::__short", ptr %e, i64 0, i32 2
  %cond.i.i.i.i664 = select i1 %tobool.i.not.i.i.i.i661, ptr %__data_.i4.i.i.i.i663, ptr %17
  %__size_.i.i.i.i665 = getelementptr inbounds %"struct.std::__1::basic_string<char>::__long", ptr %e, i64 0, i32 1
  %18 = load i64, ptr %__size_.i.i.i.i665, align 8
  %bf.lshr.i.i.i.i666 = lshr i8 %bf.load.i.i.i.i.i659, 1
  %conv.i.i.i.i667 = zext i8 %bf.lshr.i.i.i.i666 to i64
  %cond.i.i.i668 = select i1 %tobool.i.not.i.i.i.i661, i64 %conv.i.i.i.i667, i64 %18
  %call2.i.i671 = invoke noundef nonnull align 8 dereferenceable(8) ptr @_ZNSt3__124__put_character_sequenceB7v170000IcNS_11char_traitsIcEEEERNS_13basic_ostreamIT_T0_EES7_PKS4_m(ptr noundef nonnull align 8 dereferenceable(8) %.pr1213.pr.pr, ptr noundef %cond.i.i.i.i664, i64 noundef %cond.i.i.i668)
          to label %invoke.cont95 unwind label %lpad89

invoke.cont95:                                    ; preds = %if.then.i669
  %.pr1215 = load ptr, ptr %cond-lvalue81, align 8, !tbaa !55
  %tobool.not.i673 = icmp eq ptr %.pr1215, null
  br i1 %tobool.not.i673, label %invoke.cont117, label %if.then.i675

if.then.i675:                                     ; preds = %invoke.cont95
  %call1.i.i677 = invoke noundef nonnull align 8 dereferenceable(8) ptr @_ZNSt3__124__put_character_sequenceB7v170000IcNS_11char_traitsIcEEEERNS_13basic_ostreamIT_T0_EES7_PKS4_m(ptr noundef nonnull align 8 dereferenceable(8) %.pr1215, ptr noundef nonnull @.str.34, i64 noundef 2)
          to label %invoke.cont97 unwind label %lpad89

invoke.cont97:                                    ; preds = %if.then.i675
  %.pr1217.pr.pr = load ptr, ptr %cond-lvalue81, align 8, !tbaa !55
  %tobool.not.i679 = icmp eq ptr %.pr1217.pr.pr, null
  br i1 %tobool.not.i679, label %invoke.cont117, label %if.then.i681

if.then.i681:                                     ; preds = %invoke.cont97
  %call1.i.i683 = invoke noundef nonnull align 8 dereferenceable(8) ptr @_ZNSt3__124__put_character_sequenceB7v170000IcNS_11char_traitsIcEEEERNS_13basic_ostreamIT_T0_EES7_PKS4_m(ptr noundef nonnull align 8 dereferenceable(8) %.pr1217.pr.pr, ptr noundef nonnull @.str.30, i64 noundef 109)
          to label %invoke.cont99 unwind label %lpad89

invoke.cont99:                                    ; preds = %if.then.i681
  %.pr1219 = load ptr, ptr %cond-lvalue81, align 8, !tbaa !55
  %tobool.not.i685 = icmp eq ptr %.pr1219, null
  br i1 %tobool.not.i685, label %invoke.cont117, label %if.then.i687

if.then.i687:                                     ; preds = %invoke.cont99
  %call1.i.i689 = invoke noundef nonnull align 8 dereferenceable(8) ptr @_ZNSt3__124__put_character_sequenceB7v170000IcNS_11char_traitsIcEEEERNS_13basic_ostreamIT_T0_EES7_PKS4_m(ptr noundef nonnull align 8 dereferenceable(8) %.pr1219, ptr noundef nonnull @.str.32, i64 noundef 1)
          to label %invoke.cont101 unwind label %lpad89

invoke.cont101:                                   ; preds = %if.then.i687
  %.pr1221.pr.pr.pr = load ptr, ptr %cond-lvalue81, align 8, !tbaa !55
  %tobool.not.i691 = icmp eq ptr %.pr1221.pr.pr.pr, null
  br i1 %tobool.not.i691, label %invoke.cont117, label %if.then.i693

if.then.i693:                                     ; preds = %invoke.cont101
  %call.i692694 = invoke noundef nonnull align 8 dereferenceable(8) ptr @_ZNSt3__113basic_ostreamIcNS_11char_traitsIcEEElsEi(ptr noundef nonnull align 8 dereferenceable(8) %.pr1221.pr.pr.pr, i32 noundef 106)
          to label %invoke.cont105 unwind label %lpad104

invoke.cont105:                                   ; preds = %if.then.i693
  %.pr1223 = load ptr, ptr %cond-lvalue81, align 8, !tbaa !55
  %tobool.not.i696 = icmp eq ptr %.pr1223, null
  br i1 %tobool.not.i696, label %invoke.cont117, label %if.then.i698

if.then.i698:                                     ; preds = %invoke.cont105
  %call1.i.i700 = invoke noundef nonnull align 8 dereferenceable(8) ptr @_ZNSt3__124__put_character_sequenceB7v170000IcNS_11char_traitsIcEEEERNS_13basic_ostreamIT_T0_EES7_PKS4_m(ptr noundef nonnull align 8 dereferenceable(8) %.pr1223, ptr noundef nonnull @.str.33, i64 noundef 2)
          to label %invoke.cont107 unwind label %lpad104

invoke.cont107:                                   ; preds = %if.then.i698
  %.pr1225.pr.pr.pr = load ptr, ptr %cond-lvalue81, align 8, !tbaa !55
  %tobool.not.i702 = icmp eq ptr %.pr1225.pr.pr.pr, null
  br i1 %tobool.not.i702, label %invoke.cont117, label %if.then.i704

if.then.i704:                                     ; preds = %invoke.cont107
  %call1.i.i706 = invoke noundef nonnull align 8 dereferenceable(8) ptr @_ZNSt3__124__put_character_sequenceB7v170000IcNS_11char_traitsIcEEEERNS_13basic_ostreamIT_T0_EES7_PKS4_m(ptr noundef nonnull align 8 dereferenceable(8) %.pr1225.pr.pr.pr, ptr noundef nonnull @.str.35, i64 noundef 10)
          to label %invoke.cont109 unwind label %lpad104

invoke.cont109:                                   ; preds = %if.then.i704
  %.pr1227 = load ptr, ptr %cond-lvalue81, align 8, !tbaa !55
  %tobool.not.i708 = icmp eq ptr %.pr1227, null
  br i1 %tobool.not.i708, label %invoke.cont117, label %if.then.i710

if.then.i710:                                     ; preds = %invoke.cont109
  %call1.i.i712 = invoke noundef nonnull align 8 dereferenceable(8) ptr @_ZNSt3__124__put_character_sequenceB7v170000IcNS_11char_traitsIcEEEERNS_13basic_ostreamIT_T0_EES7_PKS4_m(ptr noundef nonnull align 8 dereferenceable(8) %.pr1227, ptr noundef nonnull @.str.36, i64 noundef 3)
          to label %invoke.cont111 unwind label %lpad104

invoke.cont111:                                   ; preds = %if.then.i710
  %.pr1229.pr.pr.pr = load ptr, ptr %cond-lvalue81, align 8, !tbaa !55
  %tobool.not.i714 = icmp eq ptr %.pr1229.pr.pr.pr, null
  br i1 %tobool.not.i714, label %invoke.cont117, label %if.then.i716

if.then.i716:                                     ; preds = %invoke.cont111
  %call1.i.i718 = invoke noundef nonnull align 8 dereferenceable(8) ptr @_ZNSt3__124__put_character_sequenceB7v170000IcNS_11char_traitsIcEEEERNS_13basic_ostreamIT_T0_EES7_PKS4_m(ptr noundef nonnull align 8 dereferenceable(8) %.pr1229.pr.pr.pr, ptr noundef nonnull @.str.37, i64 noundef 1)
          to label %invoke.cont113 unwind label %lpad104

invoke.cont113:                                   ; preds = %if.then.i716
  %.pr1231 = load ptr, ptr %cond-lvalue81, align 8, !tbaa !55
  %tobool.not.i720 = icmp eq ptr %.pr1231, null
  br i1 %tobool.not.i720, label %invoke.cont117, label %if.then.i722

if.then.i722:                                     ; preds = %invoke.cont113
  %call1.i.i724 = invoke noundef nonnull align 8 dereferenceable(8) ptr @_ZNSt3__124__put_character_sequenceB7v170000IcNS_11char_traitsIcEEEERNS_13basic_ostreamIT_T0_EES7_PKS4_m(ptr noundef nonnull align 8 dereferenceable(8) %.pr1231, ptr noundef nonnull @.str.6, i64 noundef 3)
          to label %invoke.cont115 unwind label %lpad104

invoke.cont115:                                   ; preds = %if.then.i722
  %.pr1233.pr.pr.pr = load ptr, ptr %cond-lvalue81, align 8, !tbaa !55
  %tobool.not.i726 = icmp eq ptr %.pr1233.pr.pr.pr, null
  br i1 %tobool.not.i726, label %invoke.cont117, label %if.then.i728

if.then.i728:                                     ; preds = %invoke.cont115
  %call1.i.i730 = invoke noundef nonnull align 8 dereferenceable(8) ptr @_ZNSt3__124__put_character_sequenceB7v170000IcNS_11char_traitsIcEEEERNS_13basic_ostreamIT_T0_EES7_PKS4_m(ptr noundef nonnull align 8 dereferenceable(8) %.pr1233.pr.pr.pr, ptr noundef nonnull @.str.38, i64 noundef 1)
          to label %invoke.cont117 unwind label %lpad104

invoke.cont117:                                   ; preds = %invoke.cont97, %invoke.cont95, %invoke.cont92, %invoke.cont90, %invoke.cont86, %invoke.cont84, %invoke.cont82, %cond.end80, %invoke.cont105, %invoke.cont107, %invoke.cont99, %invoke.cont101, %invoke.cont111, %invoke.cont109, %invoke.cont113, %invoke.cont115, %if.then.i728
  %call.i732734 = invoke noundef double @_ZNK7Results5GetAsIdEET_PKc(ptr noundef nonnull align 8 dereferenceable(48) %e, ptr noundef nonnull @.str.6)
          to label %invoke.cont121 unwind label %lpad120

invoke.cont121:                                   ; preds = %invoke.cont117
  %19 = load ptr, ptr %cond-lvalue81, align 8, !tbaa !55
  %tobool.not.i736 = icmp eq ptr %19, null
  br i1 %tobool.not.i736, label %invoke.cont129, label %if.then.i738

if.then.i738:                                     ; preds = %invoke.cont121
  %conv.i733 = fptosi double %call.i732734 to i32
  %call.i737739 = invoke noundef nonnull align 8 dereferenceable(8) ptr @_ZNSt3__113basic_ostreamIcNS_11char_traitsIcEEElsEi(ptr noundef nonnull align 8 dereferenceable(8) %19, i32 noundef %conv.i733)
          to label %invoke.cont123 unwind label %lpad120

invoke.cont123:                                   ; preds = %if.then.i738
  %.pr1235 = load ptr, ptr %cond-lvalue81, align 8, !tbaa !55
  %tobool.not.i741 = icmp eq ptr %.pr1235, null
  br i1 %tobool.not.i741, label %invoke.cont129, label %if.then.i743

if.then.i743:                                     ; preds = %invoke.cont123
  %call1.i.i745 = invoke noundef nonnull align 8 dereferenceable(8) ptr @_ZNSt3__124__put_character_sequenceB7v170000IcNS_11char_traitsIcEEEERNS_13basic_ostreamIT_T0_EES7_PKS4_m(ptr noundef nonnull align 8 dereferenceable(8) %.pr1235, ptr noundef nonnull @.str.39, i64 noundef 13)
          to label %invoke.cont125 unwind label %lpad120

invoke.cont125:                                   ; preds = %if.then.i743
  %.pr1237 = load ptr, ptr %cond-lvalue81, align 8, !tbaa !55
  %tobool.not.i747 = icmp eq ptr %.pr1237, null
  br i1 %tobool.not.i747, label %invoke.cont129, label %if.then.i749

if.then.i749:                                     ; preds = %invoke.cont125
  %20 = load i32, ptr @_ZN12_GLOBAL__N_110num_calls1E, align 4, !tbaa !66
  %call.i748750 = invoke noundef nonnull align 8 dereferenceable(8) ptr @_ZNSt3__113basic_ostreamIcNS_11char_traitsIcEEElsEi(ptr noundef nonnull align 8 dereferenceable(8) %.pr1237, i32 noundef %20)
          to label %invoke.cont127 unwind label %lpad120

invoke.cont127:                                   ; preds = %if.then.i749
  %.pr1239.pr = load ptr, ptr %cond-lvalue81, align 8, !tbaa !55
  %tobool.not.i752 = icmp eq ptr %.pr1239.pr, null
  br i1 %tobool.not.i752, label %invoke.cont129, label %if.then.i754

if.then.i754:                                     ; preds = %invoke.cont127
  %call1.i.i756 = invoke noundef nonnull align 8 dereferenceable(8) ptr @_ZNSt3__124__put_character_sequenceB7v170000IcNS_11char_traitsIcEEEERNS_13basic_ostreamIT_T0_EES7_PKS4_m(ptr noundef nonnull align 8 dereferenceable(8) %.pr1239.pr, ptr noundef nonnull @.str.31, i64 noundef 1)
          to label %invoke.cont129 unwind label %lpad120

invoke.cont129:                                   ; preds = %invoke.cont123, %invoke.cont121, %invoke.cont125, %invoke.cont127, %if.then.i754
  br i1 %cmp70.not, label %cleanup.done144, label %cleanup.action135

cleanup.action135:                                ; preds = %invoke.cont129
  call void @_ZN9benchmark8internal12CheckHandlerD2Ev(ptr noundef nonnull align 8 dereferenceable(8) %ref.tmp74) #26
  unreachable

ehcleanup57:                                      ; preds = %lpad12, %lpad42, %lpad50, %lpad26, %lpad
  %.pn.pn.pn.pn = phi { ptr, i32 } [ %7, %lpad ], [ %8, %lpad12 ], [ %9, %lpad26 ], [ %11, %lpad50 ], [ %10, %lpad42 ]
  br i1 %cmp.not, label %ehcleanup450, label %cleanup.action440.invoke

lpad77:                                           ; preds = %if.then.i643, %if.then.i637, %if.then.i631
  %21 = landingpad { ptr, i32 }
          cleanup
  br label %ehcleanup137

lpad89:                                           ; preds = %if.then.i687, %if.then.i681, %if.then.i675, %if.then.i669, %if.then.i654, %if.then.i649
  %22 = landingpad { ptr, i32 }
          cleanup
  br label %ehcleanup137

lpad104:                                          ; preds = %if.then.i728, %if.then.i722, %if.then.i716, %if.then.i710, %if.then.i704, %if.then.i698, %if.then.i693
  %23 = landingpad { ptr, i32 }
          cleanup
  br label %ehcleanup137

lpad120:                                          ; preds = %if.then.i754, %if.then.i749, %if.then.i743, %if.then.i738, %invoke.cont117
  %24 = landingpad { ptr, i32 }
          cleanup
  br label %ehcleanup137

cleanup.done144:                                  ; preds = %invoke.cont129
  %call149 = call noundef double @_ZNK7Results5GetAsIdEET_PKc(ptr noundef nonnull align 8 dereferenceable(48) %e, ptr noundef nonnull @.str.62)
  %div = fdiv double 3.640000e+02, %mul.i
  %sub = fsub double %call149, %div
  %25 = call double @llvm.fabs.f64(double %sub)
  %mul = fmul double %div, 1.000000e-03
  %cmp151 = fcmp uge double %25, %mul
  br i1 %cmp151, label %cond.false154, label %cond.true152

cond.true152:                                     ; preds = %cleanup.done144
  %26 = load atomic i8, ptr @_ZGVZN9benchmark8internal18GetNullLogInstanceEvE3log acquire, align 8
  %guard.uninitialized.i758 = icmp eq i8 %26, 0
  br i1 %guard.uninitialized.i758, label %init.check.i760, label %cond.end161, !prof !54

init.check.i760:                                  ; preds = %cond.true152
  %27 = call i32 @__cxa_guard_acquire(ptr nonnull @_ZGVZN9benchmark8internal18GetNullLogInstanceEvE3log) #23
  %tobool.not.i759 = icmp eq i32 %27, 0
  br i1 %tobool.not.i759, label %cond.end161, label %init.i761

init.i761:                                        ; preds = %init.check.i760
  store ptr null, ptr @_ZZN9benchmark8internal18GetNullLogInstanceEvE3log, align 8, !tbaa !55
  call void @__cxa_guard_release(ptr nonnull @_ZGVZN9benchmark8internal18GetNullLogInstanceEvE3log) #23
  br label %cond.end161

cond.false154:                                    ; preds = %cleanup.done144
  call void @llvm.lifetime.start.p0(i64 8, ptr nonnull %ref.tmp155) #23
  call void @_ZN9benchmark8internal12CheckHandlerC2EPKcS3_S3_i(ptr noundef nonnull align 8 dereferenceable(8) %ref.tmp155, ptr noundef nonnull @.str.63, ptr noundef nonnull @.str.30, ptr noundef nonnull @__func__._Z22CheckBytesAndItemsPSecRK7Results, i32 noundef 108)
  %28 = load ptr, ptr %ref.tmp155, align 8, !tbaa !57
  br label %cond.end161

cond.end161:                                      ; preds = %init.i761, %init.check.i760, %cond.true152, %cond.false154
  %cond-lvalue162 = phi ptr [ %28, %cond.false154 ], [ @_ZZN9benchmark8internal18GetNullLogInstanceEvE3log, %cond.true152 ], [ @_ZZN9benchmark8internal18GetNullLogInstanceEvE3log, %init.check.i760 ], [ @_ZZN9benchmark8internal18GetNullLogInstanceEvE3log, %init.i761 ]
  %29 = load ptr, ptr %cond-lvalue162, align 8, !tbaa !55
  %tobool.not.i763 = icmp eq ptr %29, null
  br i1 %tobool.not.i763, label %invoke.cont198, label %if.then.i765

if.then.i765:                                     ; preds = %cond.end161
  %call1.i.i767 = invoke noundef nonnull align 8 dereferenceable(8) ptr @_ZNSt3__124__put_character_sequenceB7v170000IcNS_11char_traitsIcEEEERNS_13basic_ostreamIT_T0_EES7_PKS4_m(ptr noundef nonnull align 8 dereferenceable(8) %29, ptr noundef nonnull @.str.31, i64 noundef 1)
          to label %invoke.cont163 unwind label %lpad158

invoke.cont163:                                   ; preds = %if.then.i765
  %.pr1241 = load ptr, ptr %cond-lvalue162, align 8, !tbaa !55
  %tobool.not.i769 = icmp eq ptr %.pr1241, null
  br i1 %tobool.not.i769, label %invoke.cont198, label %if.then.i771

if.then.i771:                                     ; preds = %invoke.cont163
  %call1.i.i773 = invoke noundef nonnull align 8 dereferenceable(8) ptr @_ZNSt3__124__put_character_sequenceB7v170000IcNS_11char_traitsIcEEEERNS_13basic_ostreamIT_T0_EES7_PKS4_m(ptr noundef nonnull align 8 dereferenceable(8) %.pr1241, ptr noundef nonnull @.str.30, i64 noundef 109)
          to label %invoke.cont165 unwind label %lpad158

invoke.cont165:                                   ; preds = %if.then.i771
  %.pr1243 = load ptr, ptr %cond-lvalue162, align 8, !tbaa !55
  %tobool.not.i775 = icmp eq ptr %.pr1243, null
  br i1 %tobool.not.i775, label %invoke.cont198, label %if.then.i777

if.then.i777:                                     ; preds = %invoke.cont165
  %call1.i.i779 = invoke noundef nonnull align 8 dereferenceable(8) ptr @_ZNSt3__124__put_character_sequenceB7v170000IcNS_11char_traitsIcEEEERNS_13basic_ostreamIT_T0_EES7_PKS4_m(ptr noundef nonnull align 8 dereferenceable(8) %.pr1243, ptr noundef nonnull @.str.32, i64 noundef 1)
          to label %invoke.cont167 unwind label %lpad158

invoke.cont167:                                   ; preds = %if.then.i777
  %.pr1245.pr = load ptr, ptr %cond-lvalue162, align 8, !tbaa !55
  %tobool.not.i781 = icmp eq ptr %.pr1245.pr, null
  br i1 %tobool.not.i781, label %invoke.cont198, label %if.then.i783

if.then.i783:                                     ; preds = %invoke.cont167
  %call.i782784 = invoke noundef nonnull align 8 dereferenceable(8) ptr @_ZNSt3__113basic_ostreamIcNS_11char_traitsIcEEElsEi(ptr noundef nonnull align 8 dereferenceable(8) %.pr1245.pr, i32 noundef 108)
          to label %invoke.cont171 unwind label %lpad170

invoke.cont171:                                   ; preds = %if.then.i783
  %.pr1247 = load ptr, ptr %cond-lvalue162, align 8, !tbaa !55
  %tobool.not.i786 = icmp eq ptr %.pr1247, null
  br i1 %tobool.not.i786, label %invoke.cont198, label %if.then.i788

if.then.i788:                                     ; preds = %invoke.cont171
  %call1.i.i790 = invoke noundef nonnull align 8 dereferenceable(8) ptr @_ZNSt3__124__put_character_sequenceB7v170000IcNS_11char_traitsIcEEEERNS_13basic_ostreamIT_T0_EES7_PKS4_m(ptr noundef nonnull align 8 dereferenceable(8) %.pr1247, ptr noundef nonnull @.str.33, i64 noundef 2)
          to label %invoke.cont173 unwind label %lpad170

invoke.cont173:                                   ; preds = %if.then.i788
  %.pr1249.pr.pr = load ptr, ptr %cond-lvalue162, align 8, !tbaa !55
  %tobool.not.i792 = icmp eq ptr %.pr1249.pr.pr, null
  br i1 %tobool.not.i792, label %invoke.cont198, label %if.then.i803

if.then.i803:                                     ; preds = %invoke.cont173
  %bf.load.i.i.i.i.i793 = load i8, ptr %e, align 8
  %bf.clear.i.i.i.i.i794 = and i8 %bf.load.i.i.i.i.i793, 1
  %tobool.i.not.i.i.i.i795 = icmp eq i8 %bf.clear.i.i.i.i.i794, 0
  %__data_.i.i.i.i.i796 = getelementptr inbounds %"struct.std::__1::basic_string<char>::__long", ptr %e, i64 0, i32 2
  %30 = load ptr, ptr %__data_.i.i.i.i.i796, align 8
  %__data_.i4.i.i.i.i797 = getelementptr inbounds %"struct.std::__1::basic_string<char>::__short", ptr %e, i64 0, i32 2
  %cond.i.i.i.i798 = select i1 %tobool.i.not.i.i.i.i795, ptr %__data_.i4.i.i.i.i797, ptr %30
  %__size_.i.i.i.i799 = getelementptr inbounds %"struct.std::__1::basic_string<char>::__long", ptr %e, i64 0, i32 1
  %31 = load i64, ptr %__size_.i.i.i.i799, align 8
  %bf.lshr.i.i.i.i800 = lshr i8 %bf.load.i.i.i.i.i793, 1
  %conv.i.i.i.i801 = zext i8 %bf.lshr.i.i.i.i800 to i64
  %cond.i.i.i802 = select i1 %tobool.i.not.i.i.i.i795, i64 %conv.i.i.i.i801, i64 %31
  %call2.i.i805 = invoke noundef nonnull align 8 dereferenceable(8) ptr @_ZNSt3__124__put_character_sequenceB7v170000IcNS_11char_traitsIcEEEERNS_13basic_ostreamIT_T0_EES7_PKS4_m(ptr noundef nonnull align 8 dereferenceable(8) %.pr1249.pr.pr, ptr noundef %cond.i.i.i.i798, i64 noundef %cond.i.i.i802)
          to label %invoke.cont176 unwind label %lpad170

invoke.cont176:                                   ; preds = %if.then.i803
  %.pr1251 = load ptr, ptr %cond-lvalue162, align 8, !tbaa !55
  %tobool.not.i807 = icmp eq ptr %.pr1251, null
  br i1 %tobool.not.i807, label %invoke.cont198, label %if.then.i809

if.then.i809:                                     ; preds = %invoke.cont176
  %call1.i.i811 = invoke noundef nonnull align 8 dereferenceable(8) ptr @_ZNSt3__124__put_character_sequenceB7v170000IcNS_11char_traitsIcEEEERNS_13basic_ostreamIT_T0_EES7_PKS4_m(ptr noundef nonnull align 8 dereferenceable(8) %.pr1251, ptr noundef nonnull @.str.34, i64 noundef 2)
          to label %invoke.cont178 unwind label %lpad170

invoke.cont178:                                   ; preds = %if.then.i809
  %.pr1253.pr.pr = load ptr, ptr %cond-lvalue162, align 8, !tbaa !55
  %tobool.not.i813 = icmp eq ptr %.pr1253.pr.pr, null
  br i1 %tobool.not.i813, label %invoke.cont198, label %if.then.i815

if.then.i815:                                     ; preds = %invoke.cont178
  %call1.i.i817 = invoke noundef nonnull align 8 dereferenceable(8) ptr @_ZNSt3__124__put_character_sequenceB7v170000IcNS_11char_traitsIcEEEERNS_13basic_ostreamIT_T0_EES7_PKS4_m(ptr noundef nonnull align 8 dereferenceable(8) %.pr1253.pr.pr, ptr noundef nonnull @.str.30, i64 noundef 109)
          to label %invoke.cont180 unwind label %lpad170

invoke.cont180:                                   ; preds = %if.then.i815
  %.pr1255 = load ptr, ptr %cond-lvalue162, align 8, !tbaa !55
  %tobool.not.i819 = icmp eq ptr %.pr1255, null
  br i1 %tobool.not.i819, label %invoke.cont198, label %if.then.i821

if.then.i821:                                     ; preds = %invoke.cont180
  %call1.i.i823 = invoke noundef nonnull align 8 dereferenceable(8) ptr @_ZNSt3__124__put_character_sequenceB7v170000IcNS_11char_traitsIcEEEERNS_13basic_ostreamIT_T0_EES7_PKS4_m(ptr noundef nonnull align 8 dereferenceable(8) %.pr1255, ptr noundef nonnull @.str.32, i64 noundef 1)
          to label %invoke.cont182 unwind label %lpad170

invoke.cont182:                                   ; preds = %if.then.i821
  %.pr1257.pr.pr.pr = load ptr, ptr %cond-lvalue162, align 8, !tbaa !55
  %tobool.not.i825 = icmp eq ptr %.pr1257.pr.pr.pr, null
  br i1 %tobool.not.i825, label %invoke.cont198, label %if.then.i827

if.then.i827:                                     ; preds = %invoke.cont182
  %call.i826828 = invoke noundef nonnull align 8 dereferenceable(8) ptr @_ZNSt3__113basic_ostreamIcNS_11char_traitsIcEEElsEi(ptr noundef nonnull align 8 dereferenceable(8) %.pr1257.pr.pr.pr, i32 noundef 108)
          to label %invoke.cont186 unwind label %lpad185

invoke.cont186:                                   ; preds = %if.then.i827
  %.pr1259 = load ptr, ptr %cond-lvalue162, align 8, !tbaa !55
  %tobool.not.i830 = icmp eq ptr %.pr1259, null
  br i1 %tobool.not.i830, label %invoke.cont198, label %if.then.i832

if.then.i832:                                     ; preds = %invoke.cont186
  %call1.i.i834 = invoke noundef nonnull align 8 dereferenceable(8) ptr @_ZNSt3__124__put_character_sequenceB7v170000IcNS_11char_traitsIcEEEERNS_13basic_ostreamIT_T0_EES7_PKS4_m(ptr noundef nonnull align 8 dereferenceable(8) %.pr1259, ptr noundef nonnull @.str.33, i64 noundef 2)
          to label %invoke.cont188 unwind label %lpad185

invoke.cont188:                                   ; preds = %if.then.i832
  %.pr1261.pr.pr.pr = load ptr, ptr %cond-lvalue162, align 8, !tbaa !55
  %tobool.not.i836 = icmp eq ptr %.pr1261.pr.pr.pr, null
  br i1 %tobool.not.i836, label %invoke.cont198, label %if.then.i838

if.then.i838:                                     ; preds = %invoke.cont188
  %call1.i.i840 = invoke noundef nonnull align 8 dereferenceable(8) ptr @_ZNSt3__124__put_character_sequenceB7v170000IcNS_11char_traitsIcEEEERNS_13basic_ostreamIT_T0_EES7_PKS4_m(ptr noundef nonnull align 8 dereferenceable(8) %.pr1261.pr.pr.pr, ptr noundef nonnull @.str.35, i64 noundef 10)
          to label %invoke.cont190 unwind label %lpad185

invoke.cont190:                                   ; preds = %if.then.i838
  %.pr1263 = load ptr, ptr %cond-lvalue162, align 8, !tbaa !55
  %tobool.not.i842 = icmp eq ptr %.pr1263, null
  br i1 %tobool.not.i842, label %invoke.cont198, label %if.then.i844

if.then.i844:                                     ; preds = %invoke.cont190
  %call1.i.i846 = invoke noundef nonnull align 8 dereferenceable(8) ptr @_ZNSt3__124__put_character_sequenceB7v170000IcNS_11char_traitsIcEEEERNS_13basic_ostreamIT_T0_EES7_PKS4_m(ptr noundef nonnull align 8 dereferenceable(8) %.pr1263, ptr noundef nonnull @.str.41, i64 noundef 6)
          to label %invoke.cont192 unwind label %lpad185

invoke.cont192:                                   ; preds = %if.then.i844
  %.pr1265.pr.pr.pr = load ptr, ptr %cond-lvalue162, align 8, !tbaa !55
  %tobool.not.i847 = icmp eq ptr %.pr1265.pr.pr.pr, null
  br i1 %tobool.not.i847, label %invoke.cont198, label %if.then.i849

if.then.i849:                                     ; preds = %invoke.cont192
  %call1.i.i851 = invoke noundef nonnull align 8 dereferenceable(8) ptr @_ZNSt3__124__put_character_sequenceB7v170000IcNS_11char_traitsIcEEEERNS_13basic_ostreamIT_T0_EES7_PKS4_m(ptr noundef nonnull align 8 dereferenceable(8) %.pr1265.pr.pr.pr, ptr noundef nonnull @.str.37, i64 noundef 1)
          to label %invoke.cont194 unwind label %lpad185

invoke.cont194:                                   ; preds = %if.then.i849
  %.pr1267 = load ptr, ptr %cond-lvalue162, align 8, !tbaa !55
  %tobool.not.i853 = icmp eq ptr %.pr1267, null
  br i1 %tobool.not.i853, label %invoke.cont198, label %if.then.i855

if.then.i855:                                     ; preds = %invoke.cont194
  %call1.i.i857 = invoke noundef nonnull align 8 dereferenceable(8) ptr @_ZNSt3__124__put_character_sequenceB7v170000IcNS_11char_traitsIcEEEERNS_13basic_ostreamIT_T0_EES7_PKS4_m(ptr noundef nonnull align 8 dereferenceable(8) %.pr1267, ptr noundef nonnull @.str.62, i64 noundef 16)
          to label %invoke.cont196 unwind label %lpad185

invoke.cont196:                                   ; preds = %if.then.i855
  %.pr1269.pr.pr.pr = load ptr, ptr %cond-lvalue162, align 8, !tbaa !55
  %tobool.not.i858 = icmp eq ptr %.pr1269.pr.pr.pr, null
  br i1 %tobool.not.i858, label %invoke.cont198, label %if.then.i860

if.then.i860:                                     ; preds = %invoke.cont196
  %call1.i.i862 = invoke noundef nonnull align 8 dereferenceable(8) ptr @_ZNSt3__124__put_character_sequenceB7v170000IcNS_11char_traitsIcEEEERNS_13basic_ostreamIT_T0_EES7_PKS4_m(ptr noundef nonnull align 8 dereferenceable(8) %.pr1269.pr.pr.pr, ptr noundef nonnull @.str.38, i64 noundef 1)
          to label %invoke.cont198 unwind label %lpad185

invoke.cont198:                                   ; preds = %invoke.cont178, %invoke.cont176, %invoke.cont173, %invoke.cont171, %invoke.cont167, %invoke.cont165, %invoke.cont163, %cond.end161, %invoke.cont186, %invoke.cont188, %invoke.cont180, %invoke.cont182, %invoke.cont192, %invoke.cont190, %invoke.cont194, %invoke.cont196, %if.then.i860
  %call203 = invoke noundef double @_ZNK7Results5GetAsIdEET_PKc(ptr noundef nonnull align 8 dereferenceable(48) %e, ptr noundef nonnull @.str.62)
          to label %invoke.cont202 unwind label %lpad201

invoke.cont202:                                   ; preds = %invoke.cont198
  %32 = load ptr, ptr %cond-lvalue162, align 8, !tbaa !55
  %tobool.not.i864 = icmp eq ptr %32, null
  br i1 %tobool.not.i864, label %invoke.cont241, label %if.then.i866

if.then.i866:                                     ; preds = %invoke.cont202
  %call.i865867 = invoke noundef nonnull align 8 dereferenceable(8) ptr @_ZNSt3__113basic_ostreamIcNS_11char_traitsIcEEElsEd(ptr noundef nonnull align 8 dereferenceable(8) %32, double noundef %call203)
          to label %invoke.cont204 unwind label %lpad201

invoke.cont204:                                   ; preds = %if.then.i866
  %.pr1271 = load ptr, ptr %cond-lvalue162, align 8, !tbaa !55
  %tobool.not.i868 = icmp eq ptr %.pr1271, null
  br i1 %tobool.not.i868, label %invoke.cont241, label %if.then.i870

if.then.i870:                                     ; preds = %invoke.cont204
  %call1.i.i872 = invoke noundef nonnull align 8 dereferenceable(8) ptr @_ZNSt3__124__put_character_sequenceB7v170000IcNS_11char_traitsIcEEEERNS_13basic_ostreamIT_T0_EES7_PKS4_m(ptr noundef nonnull align 8 dereferenceable(8) %.pr1271, ptr noundef nonnull @.str.39, i64 noundef 13)
          to label %invoke.cont206 unwind label %lpad201

invoke.cont206:                                   ; preds = %if.then.i870
  %.pr1273 = load ptr, ptr %cond-lvalue162, align 8, !tbaa !55
  %tobool.not.i874 = icmp eq ptr %.pr1273, null
  br i1 %tobool.not.i874, label %invoke.cont241, label %if.then.i876

if.then.i876:                                     ; preds = %invoke.cont206
  %call.i875877 = invoke noundef nonnull align 8 dereferenceable(8) ptr @_ZNSt3__113basic_ostreamIcNS_11char_traitsIcEEElsEd(ptr noundef nonnull align 8 dereferenceable(8) %.pr1273, double noundef %div)
          to label %invoke.cont211 unwind label %lpad210

invoke.cont211:                                   ; preds = %if.then.i876
  %.pr1275.pr = load ptr, ptr %cond-lvalue162, align 8, !tbaa !55
  %tobool.not.i879 = icmp eq ptr %.pr1275.pr, null
  br i1 %tobool.not.i879, label %invoke.cont241, label %if.then.i881

if.then.i881:                                     ; preds = %invoke.cont211
  %call1.i.i883 = invoke noundef nonnull align 8 dereferenceable(8) ptr @_ZNSt3__124__put_character_sequenceB7v170000IcNS_11char_traitsIcEEEERNS_13basic_ostreamIT_T0_EES7_PKS4_m(ptr noundef nonnull align 8 dereferenceable(8) %.pr1275.pr, ptr noundef nonnull @.str.31, i64 noundef 1)
          to label %invoke.cont213 unwind label %lpad210

invoke.cont213:                                   ; preds = %if.then.i881
  %.pr1277 = load ptr, ptr %cond-lvalue162, align 8, !tbaa !55
  %tobool.not.i885 = icmp eq ptr %.pr1277, null
  br i1 %tobool.not.i885, label %invoke.cont241, label %if.then.i887

if.then.i887:                                     ; preds = %invoke.cont213
  %call1.i.i889 = invoke noundef nonnull align 8 dereferenceable(8) ptr @_ZNSt3__124__put_character_sequenceB7v170000IcNS_11char_traitsIcEEEERNS_13basic_ostreamIT_T0_EES7_PKS4_m(ptr noundef nonnull align 8 dereferenceable(8) %.pr1277, ptr noundef nonnull @.str.30, i64 noundef 109)
          to label %invoke.cont215 unwind label %lpad210

invoke.cont215:                                   ; preds = %if.then.i887
  %.pr1279.pr.pr = load ptr, ptr %cond-lvalue162, align 8, !tbaa !55
  %tobool.not.i891 = icmp eq ptr %.pr1279.pr.pr, null
  br i1 %tobool.not.i891, label %invoke.cont241, label %if.then.i893

if.then.i893:                                     ; preds = %invoke.cont215
  %call1.i.i895 = invoke noundef nonnull align 8 dereferenceable(8) ptr @_ZNSt3__124__put_character_sequenceB7v170000IcNS_11char_traitsIcEEEERNS_13basic_ostreamIT_T0_EES7_PKS4_m(ptr noundef nonnull align 8 dereferenceable(8) %.pr1279.pr.pr, ptr noundef nonnull @.str.32, i64 noundef 1)
          to label %invoke.cont217 unwind label %lpad210

invoke.cont217:                                   ; preds = %if.then.i893
  %.pr1281 = load ptr, ptr %cond-lvalue162, align 8, !tbaa !55
  %tobool.not.i897 = icmp eq ptr %.pr1281, null
  br i1 %tobool.not.i897, label %invoke.cont241, label %if.then.i899

if.then.i899:                                     ; preds = %invoke.cont217
  %call.i898900 = invoke noundef nonnull align 8 dereferenceable(8) ptr @_ZNSt3__113basic_ostreamIcNS_11char_traitsIcEEElsEi(ptr noundef nonnull align 8 dereferenceable(8) %.pr1281, i32 noundef 108)
          to label %invoke.cont221 unwind label %lpad220

invoke.cont221:                                   ; preds = %if.then.i899
  %.pr1283.pr.pr = load ptr, ptr %cond-lvalue162, align 8, !tbaa !55
  %tobool.not.i902 = icmp eq ptr %.pr1283.pr.pr, null
  br i1 %tobool.not.i902, label %invoke.cont241, label %if.then.i904

if.then.i904:                                     ; preds = %invoke.cont221
  %call1.i.i906 = invoke noundef nonnull align 8 dereferenceable(8) ptr @_ZNSt3__124__put_character_sequenceB7v170000IcNS_11char_traitsIcEEEERNS_13basic_ostreamIT_T0_EES7_PKS4_m(ptr noundef nonnull align 8 dereferenceable(8) %.pr1283.pr.pr, ptr noundef nonnull @.str.33, i64 noundef 2)
          to label %invoke.cont223 unwind label %lpad220

invoke.cont223:                                   ; preds = %if.then.i904
  %.pr1285 = load ptr, ptr %cond-lvalue162, align 8, !tbaa !55
  %tobool.not.i908 = icmp eq ptr %.pr1285, null
  br i1 %tobool.not.i908, label %invoke.cont241, label %if.then.i910

if.then.i910:                                     ; preds = %invoke.cont223
  %call1.i.i912 = invoke noundef nonnull align 8 dereferenceable(8) ptr @_ZNSt3__124__put_character_sequenceB7v170000IcNS_11char_traitsIcEEEERNS_13basic_ostreamIT_T0_EES7_PKS4_m(ptr noundef nonnull align 8 dereferenceable(8) %.pr1285, ptr noundef nonnull @.str.42, i64 noundef 18)
          to label %invoke.cont225 unwind label %lpad220

invoke.cont225:                                   ; preds = %if.then.i910
  %.pr1287.pr.pr.pr = load ptr, ptr %cond-lvalue162, align 8, !tbaa !55
  %tobool.not.i913 = icmp eq ptr %.pr1287.pr.pr.pr, null
  br i1 %tobool.not.i913, label %invoke.cont241, label %if.then.i915

if.then.i915:                                     ; preds = %invoke.cont225
  %call.i914916 = invoke noundef nonnull align 8 dereferenceable(8) ptr @_ZNSt3__113basic_ostreamIcNS_11char_traitsIcEEElsEd(ptr noundef nonnull align 8 dereferenceable(8) %.pr1287.pr.pr.pr, double noundef %mul)
          to label %invoke.cont231 unwind label %lpad230

invoke.cont231:                                   ; preds = %if.then.i915
  %.pr1289 = load ptr, ptr %cond-lvalue162, align 8, !tbaa !55
  %tobool.not.i918 = icmp eq ptr %.pr1289, null
  br i1 %tobool.not.i918, label %invoke.cont241, label %if.then.i920

if.then.i920:                                     ; preds = %invoke.cont231
  %call1.i.i922 = invoke noundef nonnull align 8 dereferenceable(8) ptr @_ZNSt3__124__put_character_sequenceB7v170000IcNS_11char_traitsIcEEEERNS_13basic_ostreamIT_T0_EES7_PKS4_m(ptr noundef nonnull align 8 dereferenceable(8) %.pr1289, ptr noundef nonnull @.str.43, i64 noundef 2)
          to label %invoke.cont233 unwind label %lpad230

invoke.cont233:                                   ; preds = %if.then.i920
  %.pr1291.pr.pr.pr = load ptr, ptr %cond-lvalue162, align 8, !tbaa !55
  %tobool.not.i924 = icmp eq ptr %.pr1291.pr.pr.pr, null
  br i1 %tobool.not.i924, label %invoke.cont241, label %if.then.i926

if.then.i926:                                     ; preds = %invoke.cont233
  %call.i925927 = invoke noundef nonnull align 8 dereferenceable(8) ptr @_ZNSt3__113basic_ostreamIcNS_11char_traitsIcEEElsEd(ptr noundef nonnull align 8 dereferenceable(8) %.pr1291.pr.pr.pr, double noundef 1.000000e-01)
          to label %invoke.cont237 unwind label %lpad236

invoke.cont237:                                   ; preds = %if.then.i926
  %.pr1293 = load ptr, ptr %cond-lvalue162, align 8, !tbaa !55
  %tobool.not.i929 = icmp eq ptr %.pr1293, null
  br i1 %tobool.not.i929, label %invoke.cont241, label %if.then.i931

if.then.i931:                                     ; preds = %invoke.cont237
  %call1.i.i933 = invoke noundef nonnull align 8 dereferenceable(8) ptr @_ZNSt3__124__put_character_sequenceB7v170000IcNS_11char_traitsIcEEEERNS_13basic_ostreamIT_T0_EES7_PKS4_m(ptr noundef nonnull align 8 dereferenceable(8) %.pr1293, ptr noundef nonnull @.str.44, i64 noundef 4)
          to label %invoke.cont239 unwind label %lpad236

invoke.cont239:                                   ; preds = %if.then.i931
  %.pr1295.pr.pr.pr = load ptr, ptr %cond-lvalue162, align 8, !tbaa !55
  %tobool.not.i934 = icmp eq ptr %.pr1295.pr.pr.pr, null
  br i1 %tobool.not.i934, label %invoke.cont241, label %if.then.i936

if.then.i936:                                     ; preds = %invoke.cont239
  %call1.i.i938 = invoke noundef nonnull align 8 dereferenceable(8) ptr @_ZNSt3__124__put_character_sequenceB7v170000IcNS_11char_traitsIcEEEERNS_13basic_ostreamIT_T0_EES7_PKS4_m(ptr noundef nonnull align 8 dereferenceable(8) %.pr1295.pr.pr.pr, ptr noundef nonnull @.str.45, i64 noundef 14)
          to label %invoke.cont241 unwind label %lpad236

invoke.cont241:                                   ; preds = %invoke.cont215, %invoke.cont213, %invoke.cont211, %invoke.cont206, %invoke.cont204, %invoke.cont202, %invoke.cont223, %invoke.cont225, %invoke.cont217, %invoke.cont221, %invoke.cont233, %invoke.cont231, %invoke.cont237, %invoke.cont239, %if.then.i936
  %call246 = invoke noundef double @_ZNK7Results5GetAsIdEET_PKc(ptr noundef nonnull align 8 dereferenceable(48) %e, ptr noundef nonnull @.str.62)
          to label %invoke.cont245 unwind label %lpad244

invoke.cont245:                                   ; preds = %invoke.cont241
  %33 = load ptr, ptr %cond-lvalue162, align 8, !tbaa !55
  %tobool.not.i939 = icmp eq ptr %33, null
  br i1 %tobool.not.i939, label %invoke.cont251, label %if.then.i941

if.then.i941:                                     ; preds = %invoke.cont245
  %sub248 = fsub double %call246, %div
  %call.i940942 = invoke noundef nonnull align 8 dereferenceable(8) ptr @_ZNSt3__113basic_ostreamIcNS_11char_traitsIcEEElsEd(ptr noundef nonnull align 8 dereferenceable(8) %33, double noundef %sub248)
          to label %invoke.cont249 unwind label %lpad244

invoke.cont249:                                   ; preds = %if.then.i941
  %.pr1297 = load ptr, ptr %cond-lvalue162, align 8, !tbaa !55
  %tobool.not.i944 = icmp eq ptr %.pr1297, null
  br i1 %tobool.not.i944, label %invoke.cont251, label %if.then.i946

if.then.i946:                                     ; preds = %invoke.cont249
  %call1.i.i948 = invoke noundef nonnull align 8 dereferenceable(8) ptr @_ZNSt3__124__put_character_sequenceB7v170000IcNS_11char_traitsIcEEEERNS_13basic_ostreamIT_T0_EES7_PKS4_m(ptr noundef nonnull align 8 dereferenceable(8) %.pr1297, ptr noundef nonnull @.str.43, i64 noundef 2)
          to label %invoke.cont251 unwind label %lpad244

invoke.cont251:                                   ; preds = %invoke.cont245, %invoke.cont249, %if.then.i946
  %call256 = invoke noundef double @_ZNK7Results5GetAsIdEET_PKc(ptr noundef nonnull align 8 dereferenceable(48) %e, ptr noundef nonnull @.str.62)
          to label %invoke.cont255 unwind label %lpad254

invoke.cont255:                                   ; preds = %invoke.cont251
  %34 = load ptr, ptr %cond-lvalue162, align 8, !tbaa !55
  %tobool.not.i950 = icmp eq ptr %34, null
  br i1 %tobool.not.i950, label %invoke.cont271, label %if.then.i952

if.then.i952:                                     ; preds = %invoke.cont255
  %sub258 = fsub double %call256, %div
  %cmp260 = fcmp ogt double %div, 1.000000e-05
  %cmp262 = fcmp olt double %div, -1.000000e-05
  %or.cond = or i1 %cmp260, %cmp262
  %cond = select i1 %or.cond, double %div, double 1.000000e-05
  %div267 = fdiv double %sub258, %cond
  %mul268 = fmul double %div267, 1.000000e+02
  %call.i951953 = invoke noundef nonnull align 8 dereferenceable(8) ptr @_ZNSt3__113basic_ostreamIcNS_11char_traitsIcEEElsEd(ptr noundef nonnull align 8 dereferenceable(8) %34, double noundef %mul268)
          to label %invoke.cont269 unwind label %lpad254

invoke.cont269:                                   ; preds = %if.then.i952
  %.pr1299 = load ptr, ptr %cond-lvalue162, align 8, !tbaa !55
  %tobool.not.i955 = icmp eq ptr %.pr1299, null
  br i1 %tobool.not.i955, label %invoke.cont271, label %if.then.i957

if.then.i957:                                     ; preds = %invoke.cont269
  %call1.i.i959 = invoke noundef nonnull align 8 dereferenceable(8) ptr @_ZNSt3__124__put_character_sequenceB7v170000IcNS_11char_traitsIcEEEERNS_13basic_ostreamIT_T0_EES7_PKS4_m(ptr noundef nonnull align 8 dereferenceable(8) %.pr1299, ptr noundef nonnull @.str.46, i64 noundef 2)
          to label %invoke.cont271 unwind label %lpad254

invoke.cont271:                                   ; preds = %invoke.cont255, %invoke.cont269, %if.then.i957
  br i1 %cmp151, label %cleanup.action283, label %cleanup.done292

cleanup.action283:                                ; preds = %invoke.cont271
  call void @_ZN9benchmark8internal12CheckHandlerD2Ev(ptr noundef nonnull align 8 dereferenceable(8) %ref.tmp155) #26
  unreachable

ehcleanup137:                                     ; preds = %lpad89, %lpad120, %lpad104, %lpad77
  %.pn489.pn.pn = phi { ptr, i32 } [ %21, %lpad77 ], [ %22, %lpad89 ], [ %24, %lpad120 ], [ %23, %lpad104 ]
  br i1 %cmp70.not, label %ehcleanup450, label %cleanup.action440.invoke

lpad158:                                          ; preds = %if.then.i777, %if.then.i771, %if.then.i765
  %35 = landingpad { ptr, i32 }
          cleanup
  br label %ehcleanup285

lpad170:                                          ; preds = %if.then.i821, %if.then.i815, %if.then.i809, %if.then.i803, %if.then.i788, %if.then.i783
  %36 = landingpad { ptr, i32 }
          cleanup
  br label %ehcleanup285

lpad185:                                          ; preds = %if.then.i860, %if.then.i855, %if.then.i849, %if.then.i844, %if.then.i838, %if.then.i832, %if.then.i827
  %37 = landingpad { ptr, i32 }
          cleanup
  br label %ehcleanup285

lpad201:                                          ; preds = %if.then.i870, %if.then.i866, %invoke.cont198
  %38 = landingpad { ptr, i32 }
          cleanup
  br label %ehcleanup285

lpad210:                                          ; preds = %if.then.i893, %if.then.i887, %if.then.i881, %if.then.i876
  %39 = landingpad { ptr, i32 }
          cleanup
  br label %ehcleanup285

lpad220:                                          ; preds = %if.then.i910, %if.then.i904, %if.then.i899
  %40 = landingpad { ptr, i32 }
          cleanup
  br label %ehcleanup285

lpad230:                                          ; preds = %if.then.i920, %if.then.i915
  %41 = landingpad { ptr, i32 }
          cleanup
  br label %ehcleanup285

lpad236:                                          ; preds = %if.then.i936, %if.then.i931, %if.then.i926
  %42 = landingpad { ptr, i32 }
          cleanup
  br label %ehcleanup285

lpad244:                                          ; preds = %if.then.i946, %if.then.i941, %invoke.cont241
  %43 = landingpad { ptr, i32 }
          cleanup
  br label %ehcleanup285

lpad254:                                          ; preds = %if.then.i957, %if.then.i952, %invoke.cont251
  %44 = landingpad { ptr, i32 }
          cleanup
  br label %ehcleanup285

cleanup.done292:                                  ; preds = %invoke.cont271
  %call297 = call noundef double @_ZNK7Results5GetAsIdEET_PKc(ptr noundef nonnull align 8 dereferenceable(48) %e, ptr noundef nonnull @.str.64)
  %div298 = fdiv double 1.500000e+02, %mul.i
  %sub299 = fsub double %call297, %div298
  %45 = call double @llvm.fabs.f64(double %sub299)
  %mul301 = fmul double %div298, 1.000000e-03
  %cmp302 = fcmp uge double %45, %mul301
  br i1 %cmp302, label %cond.false305, label %cond.true303

cond.true303:                                     ; preds = %cleanup.done292
  %46 = load atomic i8, ptr @_ZGVZN9benchmark8internal18GetNullLogInstanceEvE3log acquire, align 8
  %guard.uninitialized.i961 = icmp eq i8 %46, 0
  br i1 %guard.uninitialized.i961, label %init.check.i963, label %cond.end312, !prof !54

init.check.i963:                                  ; preds = %cond.true303
  %47 = call i32 @__cxa_guard_acquire(ptr nonnull @_ZGVZN9benchmark8internal18GetNullLogInstanceEvE3log) #23
  %tobool.not.i962 = icmp eq i32 %47, 0
  br i1 %tobool.not.i962, label %cond.end312, label %init.i964

init.i964:                                        ; preds = %init.check.i963
  store ptr null, ptr @_ZZN9benchmark8internal18GetNullLogInstanceEvE3log, align 8, !tbaa !55
  call void @__cxa_guard_release(ptr nonnull @_ZGVZN9benchmark8internal18GetNullLogInstanceEvE3log) #23
  br label %cond.end312

cond.false305:                                    ; preds = %cleanup.done292
  call void @llvm.lifetime.start.p0(i64 8, ptr nonnull %ref.tmp306) #23
  call void @_ZN9benchmark8internal12CheckHandlerC2EPKcS3_S3_i(ptr noundef nonnull align 8 dereferenceable(8) %ref.tmp306, ptr noundef nonnull @.str.65, ptr noundef nonnull @.str.30, ptr noundef nonnull @__func__._Z22CheckBytesAndItemsPSecRK7Results, i32 noundef 109)
  %48 = load ptr, ptr %ref.tmp306, align 8, !tbaa !57
  br label %cond.end312

cond.end312:                                      ; preds = %init.i964, %init.check.i963, %cond.true303, %cond.false305
  %cond-lvalue313 = phi ptr [ %48, %cond.false305 ], [ @_ZZN9benchmark8internal18GetNullLogInstanceEvE3log, %cond.true303 ], [ @_ZZN9benchmark8internal18GetNullLogInstanceEvE3log, %init.check.i963 ], [ @_ZZN9benchmark8internal18GetNullLogInstanceEvE3log, %init.i964 ]
  %49 = load ptr, ptr %cond-lvalue313, align 8, !tbaa !55
  %tobool.not.i966 = icmp eq ptr %49, null
  br i1 %tobool.not.i966, label %invoke.cont349, label %if.then.i968

if.then.i968:                                     ; preds = %cond.end312
  %call1.i.i970 = invoke noundef nonnull align 8 dereferenceable(8) ptr @_ZNSt3__124__put_character_sequenceB7v170000IcNS_11char_traitsIcEEEERNS_13basic_ostreamIT_T0_EES7_PKS4_m(ptr noundef nonnull align 8 dereferenceable(8) %49, ptr noundef nonnull @.str.31, i64 noundef 1)
          to label %invoke.cont314 unwind label %lpad309

invoke.cont314:                                   ; preds = %if.then.i968
  %.pr1301 = load ptr, ptr %cond-lvalue313, align 8, !tbaa !55
  %tobool.not.i972 = icmp eq ptr %.pr1301, null
  br i1 %tobool.not.i972, label %invoke.cont349, label %if.then.i974

if.then.i974:                                     ; preds = %invoke.cont314
  %call1.i.i976 = invoke noundef nonnull align 8 dereferenceable(8) ptr @_ZNSt3__124__put_character_sequenceB7v170000IcNS_11char_traitsIcEEEERNS_13basic_ostreamIT_T0_EES7_PKS4_m(ptr noundef nonnull align 8 dereferenceable(8) %.pr1301, ptr noundef nonnull @.str.30, i64 noundef 109)
          to label %invoke.cont316 unwind label %lpad309

invoke.cont316:                                   ; preds = %if.then.i974
  %.pr1303 = load ptr, ptr %cond-lvalue313, align 8, !tbaa !55
  %tobool.not.i978 = icmp eq ptr %.pr1303, null
  br i1 %tobool.not.i978, label %invoke.cont349, label %if.then.i980

if.then.i980:                                     ; preds = %invoke.cont316
  %call1.i.i982 = invoke noundef nonnull align 8 dereferenceable(8) ptr @_ZNSt3__124__put_character_sequenceB7v170000IcNS_11char_traitsIcEEEERNS_13basic_ostreamIT_T0_EES7_PKS4_m(ptr noundef nonnull align 8 dereferenceable(8) %.pr1303, ptr noundef nonnull @.str.32, i64 noundef 1)
          to label %invoke.cont318 unwind label %lpad309

invoke.cont318:                                   ; preds = %if.then.i980
  %.pr1305.pr = load ptr, ptr %cond-lvalue313, align 8, !tbaa !55
  %tobool.not.i984 = icmp eq ptr %.pr1305.pr, null
  br i1 %tobool.not.i984, label %invoke.cont349, label %if.then.i986

if.then.i986:                                     ; preds = %invoke.cont318
  %call.i985987 = invoke noundef nonnull align 8 dereferenceable(8) ptr @_ZNSt3__113basic_ostreamIcNS_11char_traitsIcEEElsEi(ptr noundef nonnull align 8 dereferenceable(8) %.pr1305.pr, i32 noundef 109)
          to label %invoke.cont322 unwind label %lpad321

invoke.cont322:                                   ; preds = %if.then.i986
  %.pr1307 = load ptr, ptr %cond-lvalue313, align 8, !tbaa !55
  %tobool.not.i989 = icmp eq ptr %.pr1307, null
  br i1 %tobool.not.i989, label %invoke.cont349, label %if.then.i991

if.then.i991:                                     ; preds = %invoke.cont322
  %call1.i.i993 = invoke noundef nonnull align 8 dereferenceable(8) ptr @_ZNSt3__124__put_character_sequenceB7v170000IcNS_11char_traitsIcEEEERNS_13basic_ostreamIT_T0_EES7_PKS4_m(ptr noundef nonnull align 8 dereferenceable(8) %.pr1307, ptr noundef nonnull @.str.33, i64 noundef 2)
          to label %invoke.cont324 unwind label %lpad321

invoke.cont324:                                   ; preds = %if.then.i991
  %.pr1309.pr.pr = load ptr, ptr %cond-lvalue313, align 8, !tbaa !55
  %tobool.not.i995 = icmp eq ptr %.pr1309.pr.pr, null
  br i1 %tobool.not.i995, label %invoke.cont349, label %if.then.i1006

if.then.i1006:                                    ; preds = %invoke.cont324
  %bf.load.i.i.i.i.i996 = load i8, ptr %e, align 8
  %bf.clear.i.i.i.i.i997 = and i8 %bf.load.i.i.i.i.i996, 1
  %tobool.i.not.i.i.i.i998 = icmp eq i8 %bf.clear.i.i.i.i.i997, 0
  %__data_.i.i.i.i.i999 = getelementptr inbounds %"struct.std::__1::basic_string<char>::__long", ptr %e, i64 0, i32 2
  %50 = load ptr, ptr %__data_.i.i.i.i.i999, align 8
  %__data_.i4.i.i.i.i1000 = getelementptr inbounds %"struct.std::__1::basic_string<char>::__short", ptr %e, i64 0, i32 2
  %cond.i.i.i.i1001 = select i1 %tobool.i.not.i.i.i.i998, ptr %__data_.i4.i.i.i.i1000, ptr %50
  %__size_.i.i.i.i1002 = getelementptr inbounds %"struct.std::__1::basic_string<char>::__long", ptr %e, i64 0, i32 1
  %51 = load i64, ptr %__size_.i.i.i.i1002, align 8
  %bf.lshr.i.i.i.i1003 = lshr i8 %bf.load.i.i.i.i.i996, 1
  %conv.i.i.i.i1004 = zext i8 %bf.lshr.i.i.i.i1003 to i64
  %cond.i.i.i1005 = select i1 %tobool.i.not.i.i.i.i998, i64 %conv.i.i.i.i1004, i64 %51
  %call2.i.i1008 = invoke noundef nonnull align 8 dereferenceable(8) ptr @_ZNSt3__124__put_character_sequenceB7v170000IcNS_11char_traitsIcEEEERNS_13basic_ostreamIT_T0_EES7_PKS4_m(ptr noundef nonnull align 8 dereferenceable(8) %.pr1309.pr.pr, ptr noundef %cond.i.i.i.i1001, i64 noundef %cond.i.i.i1005)
          to label %invoke.cont327 unwind label %lpad321

invoke.cont327:                                   ; preds = %if.then.i1006
  %.pr1311 = load ptr, ptr %cond-lvalue313, align 8, !tbaa !55
  %tobool.not.i1010 = icmp eq ptr %.pr1311, null
  br i1 %tobool.not.i1010, label %invoke.cont349, label %if.then.i1012

if.then.i1012:                                    ; preds = %invoke.cont327
  %call1.i.i1014 = invoke noundef nonnull align 8 dereferenceable(8) ptr @_ZNSt3__124__put_character_sequenceB7v170000IcNS_11char_traitsIcEEEERNS_13basic_ostreamIT_T0_EES7_PKS4_m(ptr noundef nonnull align 8 dereferenceable(8) %.pr1311, ptr noundef nonnull @.str.34, i64 noundef 2)
          to label %invoke.cont329 unwind label %lpad321

invoke.cont329:                                   ; preds = %if.then.i1012
  %.pr1313.pr.pr = load ptr, ptr %cond-lvalue313, align 8, !tbaa !55
  %tobool.not.i1016 = icmp eq ptr %.pr1313.pr.pr, null
  br i1 %tobool.not.i1016, label %invoke.cont349, label %if.then.i1018

if.then.i1018:                                    ; preds = %invoke.cont329
  %call1.i.i1020 = invoke noundef nonnull align 8 dereferenceable(8) ptr @_ZNSt3__124__put_character_sequenceB7v170000IcNS_11char_traitsIcEEEERNS_13basic_ostreamIT_T0_EES7_PKS4_m(ptr noundef nonnull align 8 dereferenceable(8) %.pr1313.pr.pr, ptr noundef nonnull @.str.30, i64 noundef 109)
          to label %invoke.cont331 unwind label %lpad321

invoke.cont331:                                   ; preds = %if.then.i1018
  %.pr1315 = load ptr, ptr %cond-lvalue313, align 8, !tbaa !55
  %tobool.not.i1022 = icmp eq ptr %.pr1315, null
  br i1 %tobool.not.i1022, label %invoke.cont349, label %if.then.i1024

if.then.i1024:                                    ; preds = %invoke.cont331
  %call1.i.i1026 = invoke noundef nonnull align 8 dereferenceable(8) ptr @_ZNSt3__124__put_character_sequenceB7v170000IcNS_11char_traitsIcEEEERNS_13basic_ostreamIT_T0_EES7_PKS4_m(ptr noundef nonnull align 8 dereferenceable(8) %.pr1315, ptr noundef nonnull @.str.32, i64 noundef 1)
          to label %invoke.cont333 unwind label %lpad321

invoke.cont333:                                   ; preds = %if.then.i1024
  %.pr1317.pr.pr.pr = load ptr, ptr %cond-lvalue313, align 8, !tbaa !55
  %tobool.not.i1028 = icmp eq ptr %.pr1317.pr.pr.pr, null
  br i1 %tobool.not.i1028, label %invoke.cont349, label %if.then.i1030

if.then.i1030:                                    ; preds = %invoke.cont333
  %call.i10291031 = invoke noundef nonnull align 8 dereferenceable(8) ptr @_ZNSt3__113basic_ostreamIcNS_11char_traitsIcEEElsEi(ptr noundef nonnull align 8 dereferenceable(8) %.pr1317.pr.pr.pr, i32 noundef 109)
          to label %invoke.cont337 unwind label %lpad336

invoke.cont337:                                   ; preds = %if.then.i1030
  %.pr1319 = load ptr, ptr %cond-lvalue313, align 8, !tbaa !55
  %tobool.not.i1033 = icmp eq ptr %.pr1319, null
  br i1 %tobool.not.i1033, label %invoke.cont349, label %if.then.i1035

if.then.i1035:                                    ; preds = %invoke.cont337
  %call1.i.i1037 = invoke noundef nonnull align 8 dereferenceable(8) ptr @_ZNSt3__124__put_character_sequenceB7v170000IcNS_11char_traitsIcEEEERNS_13basic_ostreamIT_T0_EES7_PKS4_m(ptr noundef nonnull align 8 dereferenceable(8) %.pr1319, ptr noundef nonnull @.str.33, i64 noundef 2)
          to label %invoke.cont339 unwind label %lpad336

invoke.cont339:                                   ; preds = %if.then.i1035
  %.pr1321.pr.pr.pr = load ptr, ptr %cond-lvalue313, align 8, !tbaa !55
  %tobool.not.i1039 = icmp eq ptr %.pr1321.pr.pr.pr, null
  br i1 %tobool.not.i1039, label %invoke.cont349, label %if.then.i1041

if.then.i1041:                                    ; preds = %invoke.cont339
  %call1.i.i1043 = invoke noundef nonnull align 8 dereferenceable(8) ptr @_ZNSt3__124__put_character_sequenceB7v170000IcNS_11char_traitsIcEEEERNS_13basic_ostreamIT_T0_EES7_PKS4_m(ptr noundef nonnull align 8 dereferenceable(8) %.pr1321.pr.pr.pr, ptr noundef nonnull @.str.35, i64 noundef 10)
          to label %invoke.cont341 unwind label %lpad336

invoke.cont341:                                   ; preds = %if.then.i1041
  %.pr1323 = load ptr, ptr %cond-lvalue313, align 8, !tbaa !55
  %tobool.not.i1045 = icmp eq ptr %.pr1323, null
  br i1 %tobool.not.i1045, label %invoke.cont349, label %if.then.i1047

if.then.i1047:                                    ; preds = %invoke.cont341
  %call1.i.i1049 = invoke noundef nonnull align 8 dereferenceable(8) ptr @_ZNSt3__124__put_character_sequenceB7v170000IcNS_11char_traitsIcEEEERNS_13basic_ostreamIT_T0_EES7_PKS4_m(ptr noundef nonnull align 8 dereferenceable(8) %.pr1323, ptr noundef nonnull @.str.41, i64 noundef 6)
          to label %invoke.cont343 unwind label %lpad336

invoke.cont343:                                   ; preds = %if.then.i1047
  %.pr1325.pr.pr.pr = load ptr, ptr %cond-lvalue313, align 8, !tbaa !55
  %tobool.not.i1051 = icmp eq ptr %.pr1325.pr.pr.pr, null
  br i1 %tobool.not.i1051, label %invoke.cont349, label %if.then.i1053

if.then.i1053:                                    ; preds = %invoke.cont343
  %call1.i.i1055 = invoke noundef nonnull align 8 dereferenceable(8) ptr @_ZNSt3__124__put_character_sequenceB7v170000IcNS_11char_traitsIcEEEERNS_13basic_ostreamIT_T0_EES7_PKS4_m(ptr noundef nonnull align 8 dereferenceable(8) %.pr1325.pr.pr.pr, ptr noundef nonnull @.str.37, i64 noundef 1)
          to label %invoke.cont345 unwind label %lpad336

invoke.cont345:                                   ; preds = %if.then.i1053
  %.pr1327 = load ptr, ptr %cond-lvalue313, align 8, !tbaa !55
  %tobool.not.i1057 = icmp eq ptr %.pr1327, null
  br i1 %tobool.not.i1057, label %invoke.cont349, label %if.then.i1059

if.then.i1059:                                    ; preds = %invoke.cont345
  %call1.i.i1061 = invoke noundef nonnull align 8 dereferenceable(8) ptr @_ZNSt3__124__put_character_sequenceB7v170000IcNS_11char_traitsIcEEEERNS_13basic_ostreamIT_T0_EES7_PKS4_m(ptr noundef nonnull align 8 dereferenceable(8) %.pr1327, ptr noundef nonnull @.str.64, i64 noundef 16)
          to label %invoke.cont347 unwind label %lpad336

invoke.cont347:                                   ; preds = %if.then.i1059
  %.pr1329.pr.pr.pr = load ptr, ptr %cond-lvalue313, align 8, !tbaa !55
  %tobool.not.i1063 = icmp eq ptr %.pr1329.pr.pr.pr, null
  br i1 %tobool.not.i1063, label %invoke.cont349, label %if.then.i1065

if.then.i1065:                                    ; preds = %invoke.cont347
  %call1.i.i1067 = invoke noundef nonnull align 8 dereferenceable(8) ptr @_ZNSt3__124__put_character_sequenceB7v170000IcNS_11char_traitsIcEEEERNS_13basic_ostreamIT_T0_EES7_PKS4_m(ptr noundef nonnull align 8 dereferenceable(8) %.pr1329.pr.pr.pr, ptr noundef nonnull @.str.38, i64 noundef 1)
          to label %invoke.cont349 unwind label %lpad336

invoke.cont349:                                   ; preds = %invoke.cont329, %invoke.cont327, %invoke.cont324, %invoke.cont322, %invoke.cont318, %invoke.cont316, %invoke.cont314, %cond.end312, %invoke.cont337, %invoke.cont339, %invoke.cont331, %invoke.cont333, %invoke.cont343, %invoke.cont341, %invoke.cont345, %invoke.cont347, %if.then.i1065
  %call354 = invoke noundef double @_ZNK7Results5GetAsIdEET_PKc(ptr noundef nonnull align 8 dereferenceable(48) %e, ptr noundef nonnull @.str.64)
          to label %invoke.cont353 unwind label %lpad352

invoke.cont353:                                   ; preds = %invoke.cont349
  %52 = load ptr, ptr %cond-lvalue313, align 8, !tbaa !55
  %tobool.not.i1069 = icmp eq ptr %52, null
  br i1 %tobool.not.i1069, label %invoke.cont392, label %if.then.i1071

if.then.i1071:                                    ; preds = %invoke.cont353
  %call.i10701072 = invoke noundef nonnull align 8 dereferenceable(8) ptr @_ZNSt3__113basic_ostreamIcNS_11char_traitsIcEEElsEd(ptr noundef nonnull align 8 dereferenceable(8) %52, double noundef %call354)
          to label %invoke.cont355 unwind label %lpad352

invoke.cont355:                                   ; preds = %if.then.i1071
  %.pr1331 = load ptr, ptr %cond-lvalue313, align 8, !tbaa !55
  %tobool.not.i1074 = icmp eq ptr %.pr1331, null
  br i1 %tobool.not.i1074, label %invoke.cont392, label %if.then.i1076

if.then.i1076:                                    ; preds = %invoke.cont355
  %call1.i.i1078 = invoke noundef nonnull align 8 dereferenceable(8) ptr @_ZNSt3__124__put_character_sequenceB7v170000IcNS_11char_traitsIcEEEERNS_13basic_ostreamIT_T0_EES7_PKS4_m(ptr noundef nonnull align 8 dereferenceable(8) %.pr1331, ptr noundef nonnull @.str.39, i64 noundef 13)
          to label %invoke.cont357 unwind label %lpad352

invoke.cont357:                                   ; preds = %if.then.i1076
  %.pr1333 = load ptr, ptr %cond-lvalue313, align 8, !tbaa !55
  %tobool.not.i1080 = icmp eq ptr %.pr1333, null
  br i1 %tobool.not.i1080, label %invoke.cont392, label %if.then.i1082

if.then.i1082:                                    ; preds = %invoke.cont357
  %call.i10811083 = invoke noundef nonnull align 8 dereferenceable(8) ptr @_ZNSt3__113basic_ostreamIcNS_11char_traitsIcEEElsEd(ptr noundef nonnull align 8 dereferenceable(8) %.pr1333, double noundef %div298)
          to label %invoke.cont362 unwind label %lpad361

invoke.cont362:                                   ; preds = %if.then.i1082
