; ModuleID = '/local/mnt2/workspace2/mnadeem/llvm/llvm-test-suite/MicroBenchmarks/libs/benchmark/test/complexity_test.cc'
source_filename = "/local/mnt2/workspace2/mnadeem/llvm/llvm-test-suite/MicroBenchmarks/libs/benchmark/test/complexity_test.cc"
target datalayout = "e-m:e-p270:32:32-p271:32:32-p272:64:64-i64:64-f80:128-n8:16:32:64-S128"
target triple = "x86_64-unknown-linux-gnu"

%"class.std::__1::basic_string" = type { %"class.std::__1::__compressed_pair.10" }
%"class.std::__1::__compressed_pair.10" = type { %"struct.std::__1::__compressed_pair_elem.11" }
%"struct.std::__1::__compressed_pair_elem.11" = type { %"struct.std::__1::basic_string<char>::__rep" }
%"struct.std::__1::basic_string<char>::__rep" = type { %union.anon }
%union.anon = type { %"struct.std::__1::basic_string<char>::__long" }
%"struct.std::__1::basic_string<char>::__long" = type { %struct.anon, i64, ptr }
%struct.anon = type { i64 }
%"class.benchmark::State" = type { i64, i64, i64, i8, i8, i8, %"class.std::__1::vector", i64, %"class.std::__1::map", i32, i32, ptr, ptr, ptr }
%"class.std::__1::vector" = type { ptr, ptr, %"class.std::__1::__compressed_pair" }
%"class.std::__1::__compressed_pair" = type { %"struct.std::__1::__compressed_pair_elem" }
%"struct.std::__1::__compressed_pair_elem" = type { ptr }
%"class.std::__1::map" = type { %"class.std::__1::__tree" }
%"class.std::__1::__tree" = type { ptr, %"class.std::__1::__compressed_pair.1", %"class.std::__1::__compressed_pair.7" }
%"class.std::__1::__compressed_pair.1" = type { %"struct.std::__1::__compressed_pair_elem.2" }
%"struct.std::__1::__compressed_pair_elem.2" = type { %"class.std::__1::__tree_end_node" }
%"class.std::__1::__tree_end_node" = type { ptr }
%"class.std::__1::__compressed_pair.7" = type { %"struct.std::__1::__compressed_pair_elem.8" }
%"struct.std::__1::__compressed_pair_elem.8" = type { i64 }
%"struct.std::__1::pair.66" = type { %"class.std::__1::basic_string", %"class.std::__1::basic_string" }
%struct.TestCase = type { %"class.std::__1::basic_string", i32, %"class.std::__1::basic_string", %"class.std::__1::shared_ptr" }
%"class.std::__1::shared_ptr" = type { ptr, ptr }
%"struct.std::__1::basic_string<char>::__short" = type { %struct.anon.12, [0 x i8], [23 x i8] }
%struct.anon.12 = type { i8 }
%"class.std::__1::__shared_count" = type { ptr, i64 }
%"class.std::__1::vector.45" = type { ptr, ptr, %"class.std::__1::__compressed_pair.46" }
%"class.std::__1::__compressed_pair.46" = type { %"struct.std::__1::__compressed_pair_elem.47" }
%"struct.std::__1::__compressed_pair_elem.47" = type { ptr }
%"struct.std::__1::__less" = type { i8 }
%"class.std::__1::vector.58" = type { ptr, ptr, %"class.std::__1::__compressed_pair.59" }
%"class.std::__1::__compressed_pair.59" = type { %"struct.std::__1::__compressed_pair_elem.60" }
%"struct.std::__1::__compressed_pair_elem.60" = type { ptr }
%"class.benchmark::internal::FunctionBenchmark" = type { %"class.benchmark::internal::Benchmark", ptr }
%"class.benchmark::internal::Benchmark" = type { ptr, %"class.std::__1::basic_string", i32, %"class.std::__1::vector.17", %"class.std::__1::vector.24", i32, i8, i32, double, i64, i32, i8, i8, i8, i32, ptr, %"class.std::__1::vector.31", %"class.std::__1::vector.45", ptr, ptr }
%"class.std::__1::vector.17" = type { ptr, ptr, %"class.std::__1::__compressed_pair.18" }
%"class.std::__1::__compressed_pair.18" = type { %"struct.std::__1::__compressed_pair_elem.19" }
%"struct.std::__1::__compressed_pair_elem.19" = type { ptr }
%"class.std::__1::vector.24" = type { ptr, ptr, %"class.std::__1::__compressed_pair.25" }
%"class.std::__1::__compressed_pair.25" = type { %"struct.std::__1::__compressed_pair_elem.26" }
%"struct.std::__1::__compressed_pair_elem.26" = type { ptr }
%"class.std::__1::vector.31" = type { ptr, ptr, %"class.std::__1::__compressed_pair.39" }
%"class.std::__1::__compressed_pair.39" = type { %"struct.std::__1::__compressed_pair_elem.40" }
%"struct.std::__1::__compressed_pair_elem.40" = type { ptr }
%"struct.std::__1::pair" = type { i64, i64 }

$_ZNSt3__14pairINS_12basic_stringIcNS_11char_traitsIcEENS_9allocatorIcEEEES6_EC2B7v170000IRA5_KcRA13_S9_LPv0EEEOT_OT0_ = comdat any

$_ZNSt3__14pairINS_12basic_stringIcNS_11char_traitsIcEENS_9allocatorIcEEEES6_ED2Ev = comdat any

$_ZN8TestCaseD2Ev = comdat any

$_ZNKSt3__112basic_stringIcNS_11char_traitsIcEENS_9allocatorIcEEE20__throw_length_errorB7v170000Ev = comdat any

$_ZNSt3__120__throw_length_errorB7v170000EPKc = comdat any

$_ZNSt12length_errorC2B7v170000EPKc = comdat any

$_ZSt28__throw_bad_array_new_lengthB7v170000v = comdat any

$_ZNKSt3__16vectorIiNS_9allocatorIiEEE20__throw_length_errorB7v170000Ev = comdat any

@_ZL27benchmark_uniq_2_benchmark_ = internal unnamed_addr global ptr null, align 8
@.str = private unnamed_addr constant [17 x i8] c"BM_Complexity_O1\00", align 1
@_ZL27benchmark_uniq_3_benchmark_ = internal unnamed_addr global ptr null, align 8
@_ZL27benchmark_uniq_4_benchmark_ = internal unnamed_addr global ptr null, align 8
@one_test_name = hidden local_unnamed_addr global ptr @.str, align 8
@.str.4 = private unnamed_addr constant [22 x i8] c"BM_Complexity_O1_BigO\00", align 1
@big_o_1_test_name = hidden local_unnamed_addr global ptr @.str.4, align 8
@.str.5 = private unnamed_addr constant [21 x i8] c"BM_Complexity_O1_RMS\00", align 1
@rms_o_1_test_name = hidden local_unnamed_addr global ptr @.str.5, align 8
@.str.6 = private unnamed_addr constant [11 x i8] c"\\([0-9]+\\)\00", align 1
@enum_big_o_1 = hidden local_unnamed_addr global ptr @.str.6, align 8
@.str.7 = private unnamed_addr constant [19 x i8] c"(\\([0-9]+\\))|(lgN)\00", align 1
@auto_big_o_1 = hidden local_unnamed_addr global ptr @.str.7, align 8
@.str.8 = private unnamed_addr constant [7 x i8] c"f\\(N\\)\00", align 1
@lambda_big_o_1 = hidden local_unnamed_addr global ptr @.str.8, align 8
@dummy96 = hidden local_unnamed_addr global i32 0, align 4
@dummy100 = hidden local_unnamed_addr global i32 0, align 4
@dummy104 = hidden local_unnamed_addr global i32 0, align 4
@_ZL27benchmark_uniq_5_benchmark_ = internal unnamed_addr global ptr null, align 8
@.str.13 = private unnamed_addr constant [18 x i8] c"BM_Complexity_O_N\00", align 1
@_ZL27benchmark_uniq_6_benchmark_ = internal unnamed_addr global ptr null, align 8
@_ZL27benchmark_uniq_7_benchmark_ = internal unnamed_addr global ptr null, align 8
@n_test_name = hidden local_unnamed_addr global ptr @.str.13, align 8
@.str.16 = private unnamed_addr constant [23 x i8] c"BM_Complexity_O_N_BigO\00", align 1
@big_o_n_test_name = hidden local_unnamed_addr global ptr @.str.16, align 8
@.str.17 = private unnamed_addr constant [22 x i8] c"BM_Complexity_O_N_RMS\00", align 1
@rms_o_n_test_name = hidden local_unnamed_addr global ptr @.str.17, align 8
@.str.18 = private unnamed_addr constant [2 x i8] c"N\00", align 1
@enum_auto_big_o_n = hidden local_unnamed_addr global ptr @.str.18, align 8
@lambda_big_o_n = hidden local_unnamed_addr global ptr @.str.8, align 8
@dummy151 = hidden local_unnamed_addr global i32 0, align 4
@dummy155 = hidden local_unnamed_addr global i32 0, align 4
@_ZL27benchmark_uniq_8_benchmark_ = internal unnamed_addr global ptr null, align 8
@.str.22 = private unnamed_addr constant [24 x i8] c"BM_Complexity_O_N_log_N\00", align 1
@_ZL27benchmark_uniq_9_benchmark_ = internal unnamed_addr global ptr null, align 8
@_ZL28benchmark_uniq_10_benchmark_ = internal unnamed_addr global ptr null, align 8
@n_lg_n_test_name = hidden local_unnamed_addr global ptr @.str.22, align 8
@.str.25 = private unnamed_addr constant [29 x i8] c"BM_Complexity_O_N_log_N_BigO\00", align 1
@big_o_n_lg_n_test_name = hidden local_unnamed_addr global ptr @.str.25, align 8
@.str.26 = private unnamed_addr constant [28 x i8] c"BM_Complexity_O_N_log_N_RMS\00", align 1
@rms_o_n_lg_n_test_name = hidden local_unnamed_addr global ptr @.str.26, align 8
@.str.27 = private unnamed_addr constant [5 x i8] c"NlgN\00", align 1
@enum_auto_big_o_n_lg_n = hidden local_unnamed_addr global ptr @.str.27, align 8
@lambda_big_o_n_lg_n = hidden local_unnamed_addr global ptr @.str.8, align 8
@dummy193 = hidden local_unnamed_addr global i32 0, align 4
@dummy198 = hidden local_unnamed_addr global i32 0, align 4
@_ZL41benchmark_uniq_11BM_ComplexityCaptureArgs = internal unnamed_addr global ptr null, align 8
@.str.31 = private unnamed_addr constant [38 x i8] c"BM_ComplexityCaptureArgs/capture_test\00", align 1
@_ZL23complexity_capture_name = internal global %"class.std::__1::basic_string" zeroinitializer, align 8
@__dso_handle = external hidden global i8
@dummy220 = hidden local_unnamed_addr global i32 0, align 4
@.str.34 = private unnamed_addr constant [6 x i8] c"_BigO\00", align 1
@.str.35 = private unnamed_addr constant [5 x i8] c"_RMS\00", align 1
@.str.37 = private unnamed_addr constant [113 x i8] c"/local/mnt2/workspace2/mnadeem/llvm/llvm-test-suite/MicroBenchmarks/libs/benchmark/include/benchmark/benchmark.h\00", align 1
@.str.38 = private unnamed_addr constant [20 x i8] c"range_.size() > pos\00", align 1
@__PRETTY_FUNCTION__._ZNK9benchmark5State5rangeEm = private unnamed_addr constant [51 x i8] c"int64_t benchmark::State::range(std::size_t) const\00", align 1
@_ZTVN9benchmark8internal17FunctionBenchmarkE = external unnamed_addr constant { [5 x ptr] }, align 8
@.str.39 = private unnamed_addr constant [6 x i8] c"%name\00", align 1
@.str.40 = private unnamed_addr constant [11 x i8] c"%bigo_name\00", align 1
@.str.41 = private unnamed_addr constant [10 x i8] c"%rms_name\00", align 1
@.str.42 = private unnamed_addr constant [10 x i8] c"%bigo_str\00", align 1
@.str.43 = private unnamed_addr constant [13 x i8] c"[ ]* %float \00", align 1
@.str.44 = private unnamed_addr constant [6 x i8] c"%bigo\00", align 1
@.str.45 = private unnamed_addr constant [5 x i8] c"%rms\00", align 1
@.str.46 = private unnamed_addr constant [13 x i8] c"[ ]*[0-9]+ %\00", align 1
@.str.47 = private unnamed_addr constant [37 x i8] c"^%bigo_name %bigo_str %bigo_str[ ]*$\00", align 1
@.str.48 = private unnamed_addr constant [12 x i8] c"^%bigo_name\00", align 1
@.str.49 = private unnamed_addr constant [26 x i8] c"^%rms_name %rms %rms[ ]*$\00", align 1
@.str.50 = private unnamed_addr constant [23 x i8] c"\22name\22: \22%bigo_name\22,$\00", align 1
@.str.51 = private unnamed_addr constant [17 x i8] c"\22family_index\22: \00", align 1
@.str.52 = private unnamed_addr constant [3 x i8] c",$\00", align 1
@.str.53 = private unnamed_addr constant [33 x i8] c"\22per_family_instance_index\22: 0,$\00", align 1
@.str.54 = private unnamed_addr constant [22 x i8] c"\22run_name\22: \22%name\22,$\00", align 1
@.str.55 = private unnamed_addr constant [26 x i8] c"\22run_type\22: \22aggregate\22,$\00", align 1
@.str.56 = private unnamed_addr constant [22 x i8] c"\22repetitions\22: %int,$\00", align 1
@.str.57 = private unnamed_addr constant [15 x i8] c"\22threads\22: 1,$\00", align 1
@.str.58 = private unnamed_addr constant [27 x i8] c"\22aggregate_name\22: \22BigO\22,$\00", align 1
@.str.59 = private unnamed_addr constant [27 x i8] c"\22aggregate_unit\22: \22time\22,$\00", align 1
@.str.60 = private unnamed_addr constant [28 x i8] c"\22cpu_coefficient\22: %float,$\00", align 1
@.str.61 = private unnamed_addr constant [29 x i8] c"\22real_coefficient\22: %float,$\00", align 1
@.str.62 = private unnamed_addr constant [19 x i8] c"\22big_o\22: \22%bigo\22,$\00", align 1
@.str.63 = private unnamed_addr constant [19 x i8] c"\22time_unit\22: \22ns\22$\00", align 1
@.str.64 = private unnamed_addr constant [2 x i8] c"}\00", align 1
@.str.65 = private unnamed_addr constant [22 x i8] c"\22name\22: \22%rms_name\22,$\00", align 1
@.str.66 = private unnamed_addr constant [26 x i8] c"\22aggregate_name\22: \22RMS\22,$\00", align 1
@.str.67 = private unnamed_addr constant [33 x i8] c"\22aggregate_unit\22: \22percentage\22,$\00", align 1
@.str.68 = private unnamed_addr constant [15 x i8] c"\22rms\22: %float$\00", align 1
@.str.69 = private unnamed_addr constant [41 x i8] c"^\22%bigo_name\22,,%float,%float,%bigo,,,,,$\00", align 1
@.str.70 = private unnamed_addr constant [14 x i8] c"^\22%bigo_name\22\00", align 1
@.str.71 = private unnamed_addr constant [35 x i8] c"^\22%rms_name\22,,%float,%float,,,,,,$\00", align 1
@.str.72 = private unnamed_addr constant [13 x i8] c"basic_string\00", align 1
@_ZTISt12length_error = external constant ptr
@_ZTVSt12length_error = external unnamed_addr constant { [5 x ptr] }, align 8
@_ZTISt20bad_array_new_length = external constant ptr
@.str.73 = private unnamed_addr constant [7 x i8] c"vector\00", align 1
@llvm.global_ctors = appending global [1 x { i32, ptr, ptr }] [{ i32, ptr, ptr } { i32 65535, ptr @_GLOBAL__sub_I_complexity_test.cc, ptr null }]

declare noundef i32 @_ZN9benchmark8internal17InitializeStreamsEv() local_unnamed_addr #0

; Function Attrs: uwtable
define hidden void @_Z16BM_Complexity_O1RN9benchmark5StateE(ptr noundef nonnull align 8 dereferenceable(120) %state) #1 {
entry:
  %i = alloca i32, align 4
  %error_occurred_.i.i = getelementptr inbounds %"class.benchmark::State", ptr %state, i64 0, i32 5
  %0 = load i8, ptr %error_occurred_.i.i, align 2, !tbaa !5, !range !23, !noundef !24
  %tobool.not.i.i = icmp ne i8 %0, 0
  %max_iterations.i.i = getelementptr inbounds %"class.benchmark::State", ptr %state, i64 0, i32 2
  %1 = load i64, ptr %max_iterations.i.i, align 8
  tail call void @_ZN9benchmark5State16StartKeepRunningEv(ptr noundef nonnull align 8 dereferenceable(120) %state)
  %cmp.not.i.not1618 = icmp eq i64 %1, 0
  %cmp.not.i.not16 = select i1 %tobool.not.i.i, i1 true, i1 %cmp.not.i.not1618
  br i1 %cmp.not.i.not16, label %for.cond.cleanup, label %for.body, !prof !25

for.cond.cleanup:                                 ; preds = %_ZN9benchmark5State13StateIteratorppEv.exit, %entry
  call void @_ZN9benchmark5State17FinishKeepRunningEv(ptr noundef nonnull align 8 dereferenceable(120) %state)
  %range_.i = getelementptr inbounds %"class.benchmark::State", ptr %state, i64 0, i32 6
  %__end_.i.i = getelementptr inbounds %"class.benchmark::State", ptr %state, i64 0, i32 6, i32 1
  %2 = load ptr, ptr %__end_.i.i, align 8, !tbaa !26
  %3 = load ptr, ptr %range_.i, align 8, !tbaa !27
  %cmp.i.not = icmp eq ptr %2, %3
  br i1 %cmp.i.not, label %cond.false.i, label %_ZNK9benchmark5State5rangeEm.exit

cond.false.i:                                     ; preds = %for.cond.cleanup
  call void @__assert_fail(ptr noundef nonnull @.str.38, ptr noundef nonnull @.str.37, i32 noundef 762, ptr noundef nonnull @__PRETTY_FUNCTION__._ZNK9benchmark5State5rangeEm) #22
  unreachable

_ZNK9benchmark5State5rangeEm.exit:                ; preds = %for.cond.cleanup
  %4 = load i64, ptr %3, align 8, !tbaa !28
  %complexity_n_.i = getelementptr inbounds %"class.benchmark::State", ptr %state, i64 0, i32 7
  store i64 %4, ptr %complexity_n_.i, align 8, !tbaa !29
  ret void

for.body:                                         ; preds = %entry, %_ZN9benchmark5State13StateIteratorppEv.exit
  %__begin1.sroa.0.017 = phi i64 [ %dec.i, %_ZN9benchmark5State13StateIteratorppEv.exit ], [ %1, %entry ]
  call void @llvm.lifetime.start.p0(i64 4, ptr nonnull %i) #23
  store i32 0, ptr %i, align 4, !tbaa !30
  br label %for.body5

_ZN9benchmark5State13StateIteratorppEv.exit:      ; preds = %for.body5
  call void @llvm.lifetime.end.p0(i64 4, ptr nonnull %i) #23
  %dec.i = add i64 %__begin1.sroa.0.017, -1
  %cmp.not.i.not = icmp eq i64 %dec.i, 0
  br i1 %cmp.not.i.not, label %for.cond.cleanup, label %for.body, !prof !25

for.body5:                                        ; preds = %for.body, %for.body5
  call void asm sideeffect "", "r|m,~{memory},~{dirflag},~{fpsr},~{flags}"(ptr nonnull %i) #23, !srcloc !31
  %5 = load i32, ptr %i, align 4, !tbaa !30
  %inc = add nsw i32 %5, 1
  store i32 %inc, ptr %i, align 4, !tbaa !30
  %cmp = icmp slt i32 %5, 1023
  br i1 %cmp, label %for.body5, label %_ZN9benchmark5State13StateIteratorppEv.exit, !llvm.loop !32
}

; Function Attrs: mustprogress nocallback nofree nosync nounwind willreturn memory(argmem: readwrite)
declare void @llvm.lifetime.start.p0(i64 immarg, ptr nocapture) #2

; Function Attrs: mustprogress nocallback nofree nosync nounwind willreturn memory(argmem: readwrite)
declare void @llvm.lifetime.end.p0(i64 immarg, ptr nocapture) #2

declare noundef ptr @_ZN9benchmark8internal25RegisterBenchmarkInternalEPNS0_9BenchmarkE(ptr noundef) local_unnamed_addr #0

; Function Attrs: nobuiltin allocsize(0)
declare noundef nonnull ptr @_Znwm(i64 noundef) local_unnamed_addr #3

declare i32 @__gxx_personality_v0(...)

; Function Attrs: nobuiltin nounwind
declare void @_ZdlPv(ptr noundef) local_unnamed_addr #4

declare noundef ptr @_ZN9benchmark8internal9Benchmark5RangeEll(ptr noundef nonnull align 8 dereferenceable(208), i64 noundef, i64 noundef) local_unnamed_addr #0

declare noundef ptr @_ZN9benchmark8internal9Benchmark10ComplexityENS_4BigOE(ptr noundef nonnull align 8 dereferenceable(208), i32 noundef) local_unnamed_addr #0

declare noundef ptr @_ZN9benchmark8internal9Benchmark10ComplexityEPFdmE(ptr noundef nonnull align 8 dereferenceable(208), ptr noundef) local_unnamed_addr #0

; Function Attrs: uwtable
define internal fastcc void @_ZN12_GLOBAL__N_117AddComplexityTestERKNSt3__112basic_stringIcNS0_11char_traitsIcEENS0_9allocatorIcEEEES8_S8_S8_i(ptr noundef nonnull align 8 dereferenceable(24) %test_name, ptr noundef nonnull align 8 dereferenceable(24) %big_o_test_name, ptr noundef nonnull align 8 dereferenceable(24) %rms_test_name, ptr noundef nonnull align 8 dereferenceable(24) %big_o, i32 noundef %family_index) unnamed_addr #1 personality ptr @__gxx_personality_v0 {
entry:
  %ref.tmp = alloca [6 x %"struct.std::__1::pair.66"], align 8
  %ref.tmp5 = alloca %"class.std::__1::basic_string", align 8
  %ref.tmp32 = alloca [3 x %struct.TestCase], align 8
  %agg.tmp35 = alloca %"class.std::__1::basic_string", align 8
  %agg.tmp41 = alloca %"class.std::__1::basic_string", align 8
  %agg.tmp46 = alloca %"class.std::__1::basic_string", align 8
  %ref.tmp85 = alloca [25 x %struct.TestCase], align 8
  %agg.tmp88 = alloca %"class.std::__1::basic_string", align 8
  %agg.tmp94 = alloca %"class.std::__1::basic_string", align 8
  %ref.tmp95 = alloca %"class.std::__1::basic_string", align 8
  %ref.tmp96 = alloca %"class.std::__1::basic_string", align 8
  %agg.tmp106 = alloca %"class.std::__1::basic_string", align 8
  %agg.tmp111 = alloca %"class.std::__1::basic_string", align 8
  %agg.tmp116 = alloca %"class.std::__1::basic_string", align 8
  %agg.tmp121 = alloca %"class.std::__1::basic_string", align 8
  %agg.tmp126 = alloca %"class.std::__1::basic_string", align 8
  %agg.tmp131 = alloca %"class.std::__1::basic_string", align 8
  %agg.tmp136 = alloca %"class.std::__1::basic_string", align 8
  %agg.tmp141 = alloca %"class.std::__1::basic_string", align 8
  %agg.tmp146 = alloca %"class.std::__1::basic_string", align 8
  %agg.tmp151 = alloca %"class.std::__1::basic_string", align 8
  %agg.tmp156 = alloca %"class.std::__1::basic_string", align 8
  %agg.tmp161 = alloca %"class.std::__1::basic_string", align 8
  %agg.tmp166 = alloca %"class.std::__1::basic_string", align 8
  %agg.tmp171 = alloca %"class.std::__1::basic_string", align 8
  %ref.tmp172 = alloca %"class.std::__1::basic_string", align 8
  %ref.tmp173 = alloca %"class.std::__1::basic_string", align 8
  %agg.tmp183 = alloca %"class.std::__1::basic_string", align 8
  %agg.tmp188 = alloca %"class.std::__1::basic_string", align 8
  %agg.tmp193 = alloca %"class.std::__1::basic_string", align 8
  %agg.tmp198 = alloca %"class.std::__1::basic_string", align 8
  %agg.tmp203 = alloca %"class.std::__1::basic_string", align 8
  %agg.tmp208 = alloca %"class.std::__1::basic_string", align 8
  %agg.tmp213 = alloca %"class.std::__1::basic_string", align 8
  %agg.tmp218 = alloca %"class.std::__1::basic_string", align 8
  %agg.tmp223 = alloca %"class.std::__1::basic_string", align 8
  %ref.tmp292 = alloca [3 x %struct.TestCase], align 8
  %agg.tmp295 = alloca %"class.std::__1::basic_string", align 8
  %agg.tmp301 = alloca %"class.std::__1::basic_string", align 8
  %agg.tmp306 = alloca %"class.std::__1::basic_string", align 8
  call void @llvm.lifetime.start.p0(i64 288, ptr nonnull %ref.tmp) #23
  store i8 10, ptr %ref.tmp, align 8
  %__data_.i.i.i.i = getelementptr inbounds %"struct.std::__1::basic_string<char>::__short", ptr %ref.tmp, i64 0, i32 2
  %cmp.i24.i.i.i = icmp ugt ptr %__data_.i.i.i.i, @.str.39
  %add.ptr.i.i.i.i = getelementptr inbounds %"struct.std::__1::basic_string<char>::__short", ptr %ref.tmp, i64 0, i32 2, i64 5
  %cmp1.i.i.i.i = icmp ule ptr %add.ptr.i.i.i.i, @.str.39
  %0 = or i1 %cmp.i24.i.i.i, %cmp1.i.i.i.i
  call void @llvm.assume(i1 %0)
  call void @llvm.memcpy.p0.p0.i64(ptr noundef nonnull align 1 dereferenceable(5) %__data_.i.i.i.i, ptr noundef nonnull align 1 dereferenceable(5) @.str.39, i64 5, i1 false)
  store i8 0, ptr %add.ptr.i.i.i.i, align 2, !tbaa !34
  %second.i = getelementptr inbounds %"struct.std::__1::pair.66", ptr %ref.tmp, i64 0, i32 1
  invoke void @_ZNSt3__112basic_stringIcNS_11char_traitsIcEENS_9allocatorIcEEEC1ERKS5_(ptr noundef nonnull align 8 dereferenceable(24) %second.i, ptr noundef nonnull align 8 dereferenceable(24) %test_name)
          to label %invoke.cont unwind label %lpad.i

lpad.i:                                           ; preds = %entry
  %1 = landingpad { ptr, i32 }
          cleanup
  %bf.load.i.i.i = load i8, ptr %ref.tmp, align 8
  %bf.clear.i.i.i = and i8 %bf.load.i.i.i, 1
  %tobool.i.not.i.i = icmp eq i8 %bf.clear.i.i.i, 0
  br i1 %tobool.i.not.i.i, label %cleanup.done, label %if.then.i.i

if.then.i.i:                                      ; preds = %lpad.i
  %__data_.i.i.i = getelementptr inbounds %"struct.std::__1::basic_string<char>::__long", ptr %ref.tmp, i64 0, i32 2
  %2 = load ptr, ptr %__data_.i.i.i, align 8, !tbaa !34
  call void @_ZdlPv(ptr noundef %2) #24
  br label %cleanup.done

invoke.cont:                                      ; preds = %entry
  %arrayinit.element = getelementptr inbounds %"struct.std::__1::pair.66", ptr %ref.tmp, i64 1
  store i8 20, ptr %arrayinit.element, align 8
  %__data_.i.i.i.i405 = getelementptr inbounds i8, ptr %ref.tmp, i64 49
  %cmp.i24.i.i.i414 = icmp ugt ptr %__data_.i.i.i.i405, @.str.40
  %add.ptr.i.i.i.i415 = getelementptr inbounds i8, ptr %ref.tmp, i64 59
  %cmp1.i.i.i.i416 = icmp ule ptr %add.ptr.i.i.i.i415, @.str.40
  %3 = or i1 %cmp.i24.i.i.i414, %cmp1.i.i.i.i416
  call void @llvm.assume(i1 %3)
  call void @llvm.memcpy.p0.p0.i64(ptr noundef nonnull align 1 dereferenceable(10) %__data_.i.i.i.i405, ptr noundef nonnull align 1 dereferenceable(10) @.str.40, i64 10, i1 false)
  store i8 0, ptr %add.ptr.i.i.i.i415, align 1, !tbaa !34
  %second.i417 = getelementptr inbounds %"struct.std::__1::pair.66", ptr %ref.tmp, i64 1, i32 1
  invoke void @_ZNSt3__112basic_stringIcNS_11char_traitsIcEENS_9allocatorIcEEEC1ERKS5_(ptr noundef nonnull align 8 dereferenceable(24) %second.i417, ptr noundef nonnull align 8 dereferenceable(24) %big_o_test_name)
          to label %invoke.cont1 unwind label %lpad.i422

lpad.i422:                                        ; preds = %invoke.cont
  %4 = landingpad { ptr, i32 }
          cleanup
  %bf.load.i.i.i419 = load i8, ptr %arrayinit.element, align 8
  %bf.clear.i.i.i420 = and i8 %bf.load.i.i.i419, 1
  %tobool.i.not.i.i421 = icmp eq i8 %bf.clear.i.i.i420, 0
  br i1 %tobool.i.not.i.i421, label %arraydestroy.body25.preheader, label %if.then.i.i424

if.then.i.i424:                                   ; preds = %lpad.i422
  %__data_.i.i.i423 = getelementptr inbounds %"struct.std::__1::pair.66", ptr %ref.tmp, i64 1, i32 0, i32 0, i32 0, i32 0, i32 0, i32 0, i32 2
  %5 = load ptr, ptr %__data_.i.i.i423, align 8, !tbaa !34
  call void @_ZdlPv(ptr noundef %5) #24
  br label %arraydestroy.body25.preheader

invoke.cont1:                                     ; preds = %invoke.cont
  %arrayinit.element2 = getelementptr inbounds %"struct.std::__1::pair.66", ptr %ref.tmp, i64 2
  store i8 18, ptr %arrayinit.element2, align 8
  %__data_.i.i.i.i439 = getelementptr inbounds i8, ptr %ref.tmp, i64 97
  %cmp.i24.i.i.i448 = icmp ugt ptr %__data_.i.i.i.i439, @.str.41
  %add.ptr.i.i.i.i449 = getelementptr inbounds i8, ptr %ref.tmp, i64 106
  %cmp1.i.i.i.i450 = icmp ule ptr %add.ptr.i.i.i.i449, @.str.41
  %6 = or i1 %cmp.i24.i.i.i448, %cmp1.i.i.i.i450
  call void @llvm.assume(i1 %6)
  call void @llvm.memcpy.p0.p0.i64(ptr noundef nonnull align 1 dereferenceable(9) %__data_.i.i.i.i439, ptr noundef nonnull align 1 dereferenceable(9) @.str.41, i64 9, i1 false)
  store i8 0, ptr %add.ptr.i.i.i.i449, align 2, !tbaa !34
  %second.i451 = getelementptr inbounds %"struct.std::__1::pair.66", ptr %ref.tmp, i64 2, i32 1
  invoke void @_ZNSt3__112basic_stringIcNS_11char_traitsIcEENS_9allocatorIcEEEC1ERKS5_(ptr noundef nonnull align 8 dereferenceable(24) %second.i451, ptr noundef nonnull align 8 dereferenceable(24) %rms_test_name)
          to label %invoke.cont3 unwind label %lpad.i456

lpad.i456:                                        ; preds = %invoke.cont1
  %7 = landingpad { ptr, i32 }
          cleanup
  %bf.load.i.i.i453 = load i8, ptr %arrayinit.element2, align 8
  %bf.clear.i.i.i454 = and i8 %bf.load.i.i.i453, 1
  %tobool.i.not.i.i455 = icmp eq i8 %bf.clear.i.i.i454, 0
  br i1 %tobool.i.not.i.i455, label %arraydestroy.body25.preheader, label %if.then.i.i458

if.then.i.i458:                                   ; preds = %lpad.i456
  %__data_.i.i.i457 = getelementptr inbounds %"struct.std::__1::pair.66", ptr %ref.tmp, i64 2, i32 0, i32 0, i32 0, i32 0, i32 0, i32 0, i32 2
  %8 = load ptr, ptr %__data_.i.i.i457, align 8, !tbaa !34
  call void @_ZdlPv(ptr noundef %8) #24
  br label %arraydestroy.body25.preheader

invoke.cont3:                                     ; preds = %invoke.cont1
  %arrayinit.element4 = getelementptr inbounds %"struct.std::__1::pair.66", ptr %ref.tmp, i64 3
  call void @llvm.lifetime.start.p0(i64 24, ptr nonnull %ref.tmp5) #23
  invoke void @_ZNSt3__1plIcNS_11char_traitsIcEENS_9allocatorIcEEEENS_12basic_stringIT_T0_T1_EEPKS6_RKS9_(ptr nonnull sret(%"class.std::__1::basic_string") align 8 %ref.tmp5, ptr noundef nonnull @.str.43, ptr noundef nonnull align 8 dereferenceable(24) %big_o)
          to label %if.then3.i.i.i474 unwind label %ehcleanup24.thread1692

if.then3.i.i.i474:                                ; preds = %invoke.cont3
  store i8 18, ptr %arrayinit.element4, align 8
  %__data_.i.i.i.i473 = getelementptr inbounds i8, ptr %ref.tmp, i64 145
  %cmp.i24.i.i.i482 = icmp ugt ptr %__data_.i.i.i.i473, @.str.42
  %add.ptr.i.i.i.i483 = getelementptr inbounds i8, ptr %ref.tmp, i64 154
  %cmp1.i.i.i.i484 = icmp ule ptr %add.ptr.i.i.i.i483, @.str.42
  %9 = or i1 %cmp.i24.i.i.i482, %cmp1.i.i.i.i484
  call void @llvm.assume(i1 %9)
  call void @llvm.memcpy.p0.p0.i64(ptr noundef nonnull align 1 dereferenceable(9) %__data_.i.i.i.i473, ptr noundef nonnull align 1 dereferenceable(9) @.str.42, i64 9, i1 false)
  store i8 0, ptr %add.ptr.i.i.i.i483, align 2, !tbaa !34
  %second.i485 = getelementptr inbounds %"struct.std::__1::pair.66", ptr %ref.tmp, i64 3, i32 1
  call void @llvm.memcpy.p0.p0.i64(ptr noundef nonnull align 8 dereferenceable(24) %second.i485, ptr noundef nonnull align 8 dereferenceable(24) %ref.tmp5, i64 24, i1 false)
  call void @llvm.memset.p0.i64(ptr noundef nonnull align 8 dereferenceable(24) %ref.tmp5, i8 0, i64 24, i1 false)
  %arrayinit.element10 = getelementptr inbounds %"struct.std::__1::pair.66", ptr %ref.tmp, i64 4
  store i8 10, ptr %arrayinit.element10, align 8
  %__data_.i.i.i.i497 = getelementptr inbounds i8, ptr %ref.tmp, i64 193
  %cmp.i24.i.i.i506 = icmp ugt ptr %__data_.i.i.i.i497, @.str.44
  %add.ptr.i.i.i.i507 = getelementptr inbounds i8, ptr %ref.tmp, i64 198
  %cmp1.i.i.i.i508 = icmp ule ptr %add.ptr.i.i.i.i507, @.str.44
  %10 = or i1 %cmp.i24.i.i.i506, %cmp1.i.i.i.i508
  call void @llvm.assume(i1 %10)
  call void @llvm.memcpy.p0.p0.i64(ptr noundef nonnull align 1 dereferenceable(5) %__data_.i.i.i.i497, ptr noundef nonnull align 1 dereferenceable(5) @.str.44, i64 5, i1 false)
  store i8 0, ptr %add.ptr.i.i.i.i507, align 2, !tbaa !34
  %second.i509 = getelementptr inbounds %"struct.std::__1::pair.66", ptr %ref.tmp, i64 4, i32 1
  invoke void @_ZNSt3__112basic_stringIcNS_11char_traitsIcEENS_9allocatorIcEEEC1ERKS5_(ptr noundef nonnull align 8 dereferenceable(24) %second.i509, ptr noundef nonnull align 8 dereferenceable(24) %big_o)
          to label %invoke.cont11 unwind label %lpad.i514

lpad.i514:                                        ; preds = %if.then3.i.i.i474
  %11 = landingpad { ptr, i32 }
          cleanup
  %bf.load.i.i.i511 = load i8, ptr %arrayinit.element10, align 8
  %bf.clear.i.i.i512 = and i8 %bf.load.i.i.i511, 1
  %tobool.i.not.i.i513 = icmp eq i8 %bf.clear.i.i.i512, 0
  br i1 %tobool.i.not.i.i513, label %ehcleanup, label %if.then.i.i516

if.then.i.i516:                                   ; preds = %lpad.i514
  %__data_.i.i.i515 = getelementptr inbounds %"struct.std::__1::pair.66", ptr %ref.tmp, i64 4, i32 0, i32 0, i32 0, i32 0, i32 0, i32 0, i32 2
  %12 = load ptr, ptr %__data_.i.i.i515, align 8, !tbaa !34
  call void @_ZdlPv(ptr noundef %12) #24
  br label %ehcleanup

invoke.cont11:                                    ; preds = %if.then3.i.i.i474
  %arrayinit.element12 = getelementptr inbounds %"struct.std::__1::pair.66", ptr %ref.tmp, i64 5
  invoke void @_ZNSt3__14pairINS_12basic_stringIcNS_11char_traitsIcEENS_9allocatorIcEEEES6_EC2B7v170000IRA5_KcRA13_S9_LPv0EEEOT_OT0_(ptr noundef nonnull align 8 dereferenceable(48) %arrayinit.element12, ptr noundef nonnull align 1 dereferenceable(5) @.str.45, ptr noundef nonnull align 1 dereferenceable(13) @.str.46)
          to label %invoke.cont13 unwind label %lpad8

invoke.cont13:                                    ; preds = %invoke.cont11
  %call = invoke noundef i32 @_Z16SetSubstitutionsSt16initializer_listINSt3__14pairINS0_12basic_stringIcNS0_11char_traitsIcEENS0_9allocatorIcEEEES7_EEE(ptr nonnull %ref.tmp, i64 6)
          to label %invoke.cont15 unwind label %lpad14

invoke.cont15:                                    ; preds = %invoke.cont13
  %arraydestroy.element = getelementptr inbounds %"struct.std::__1::pair.66", ptr %ref.tmp, i64 5
  %second.i523 = getelementptr inbounds %"struct.std::__1::pair.66", ptr %ref.tmp, i64 5, i32 1
  %bf.load.i.i.i524 = load i8, ptr %second.i523, align 8
  %bf.clear.i.i.i525 = and i8 %bf.load.i.i.i524, 1
  %tobool.i.not.i.i526 = icmp eq i8 %bf.clear.i.i.i525, 0
  br i1 %tobool.i.not.i.i526, label %_ZNSt3__112basic_stringIcNS_11char_traitsIcEENS_9allocatorIcEEED2Ev.exit.i529, label %if.then.i.i528

if.then.i.i528:                                   ; preds = %invoke.cont15
  %__data_.i.i.i527 = getelementptr inbounds %"struct.std::__1::pair.66", ptr %ref.tmp, i64 5, i32 1, i32 0, i32 0, i32 0, i32 0, i32 0, i32 2
  %13 = load ptr, ptr %__data_.i.i.i527, align 8, !tbaa !34
  call void @_ZdlPv(ptr noundef %13) #24
  br label %_ZNSt3__112basic_stringIcNS_11char_traitsIcEENS_9allocatorIcEEED2Ev.exit.i529

_ZNSt3__112basic_stringIcNS_11char_traitsIcEENS_9allocatorIcEEED2Ev.exit.i529: ; preds = %if.then.i.i528, %invoke.cont15
  %bf.load.i.i2.i = load i8, ptr %arraydestroy.element, align 8
  %bf.clear.i.i3.i = and i8 %bf.load.i.i2.i, 1
  %tobool.i.not.i4.i = icmp eq i8 %bf.clear.i.i3.i, 0
  br i1 %tobool.i.not.i4.i, label %_ZNSt3__14pairINS_12basic_stringIcNS_11char_traitsIcEENS_9allocatorIcEEEES6_ED2Ev.exit, label %if.then.i6.i

if.then.i6.i:                                     ; preds = %_ZNSt3__112basic_stringIcNS_11char_traitsIcEENS_9allocatorIcEEED2Ev.exit.i529
  %__data_.i.i5.i = getelementptr inbounds %"struct.std::__1::pair.66", ptr %ref.tmp, i64 5, i32 0, i32 0, i32 0, i32 0, i32 0, i32 0, i32 2
  %14 = load ptr, ptr %__data_.i.i5.i, align 8, !tbaa !34
  call void @_ZdlPv(ptr noundef %14) #24
  br label %_ZNSt3__14pairINS_12basic_stringIcNS_11char_traitsIcEENS_9allocatorIcEEEES6_ED2Ev.exit

_ZNSt3__14pairINS_12basic_stringIcNS_11char_traitsIcEENS_9allocatorIcEEEES6_ED2Ev.exit: ; preds = %_ZNSt3__112basic_stringIcNS_11char_traitsIcEENS_9allocatorIcEEED2Ev.exit.i529, %if.then.i6.i
  %arraydestroy.element.1 = getelementptr inbounds %"struct.std::__1::pair.66", ptr %ref.tmp, i64 4
  %second.i523.1 = getelementptr inbounds %"struct.std::__1::pair.66", ptr %ref.tmp, i64 4, i32 1
  %bf.load.i.i.i524.1 = load i8, ptr %second.i523.1, align 8
  %bf.clear.i.i.i525.1 = and i8 %bf.load.i.i.i524.1, 1
  %tobool.i.not.i.i526.1 = icmp eq i8 %bf.clear.i.i.i525.1, 0
  br i1 %tobool.i.not.i.i526.1, label %_ZNSt3__112basic_stringIcNS_11char_traitsIcEENS_9allocatorIcEEED2Ev.exit.i529.1, label %if.then.i.i528.1

if.then.i.i528.1:                                 ; preds = %_ZNSt3__14pairINS_12basic_stringIcNS_11char_traitsIcEENS_9allocatorIcEEEES6_ED2Ev.exit
  %__data_.i.i.i527.1 = getelementptr inbounds %"struct.std::__1::pair.66", ptr %ref.tmp, i64 4, i32 1, i32 0, i32 0, i32 0, i32 0, i32 0, i32 2
  %15 = load ptr, ptr %__data_.i.i.i527.1, align 8, !tbaa !34
  call void @_ZdlPv(ptr noundef %15) #24
  br label %_ZNSt3__112basic_stringIcNS_11char_traitsIcEENS_9allocatorIcEEED2Ev.exit.i529.1

_ZNSt3__112basic_stringIcNS_11char_traitsIcEENS_9allocatorIcEEED2Ev.exit.i529.1: ; preds = %if.then.i.i528.1, %_ZNSt3__14pairINS_12basic_stringIcNS_11char_traitsIcEENS_9allocatorIcEEEES6_ED2Ev.exit
  %bf.load.i.i2.i.1 = load i8, ptr %arraydestroy.element.1, align 8
  %bf.clear.i.i3.i.1 = and i8 %bf.load.i.i2.i.1, 1
  %tobool.i.not.i4.i.1 = icmp eq i8 %bf.clear.i.i3.i.1, 0
  br i1 %tobool.i.not.i4.i.1, label %_ZNSt3__14pairINS_12basic_stringIcNS_11char_traitsIcEENS_9allocatorIcEEEES6_ED2Ev.exit.1, label %if.then.i6.i.1

if.then.i6.i.1:                                   ; preds = %_ZNSt3__112basic_stringIcNS_11char_traitsIcEENS_9allocatorIcEEED2Ev.exit.i529.1
  %__data_.i.i5.i.1 = getelementptr inbounds %"struct.std::__1::pair.66", ptr %ref.tmp, i64 4, i32 0, i32 0, i32 0, i32 0, i32 0, i32 0, i32 2
  %16 = load ptr, ptr %__data_.i.i5.i.1, align 8, !tbaa !34
  call void @_ZdlPv(ptr noundef %16) #24
  br label %_ZNSt3__14pairINS_12basic_stringIcNS_11char_traitsIcEENS_9allocatorIcEEEES6_ED2Ev.exit.1

_ZNSt3__14pairINS_12basic_stringIcNS_11char_traitsIcEENS_9allocatorIcEEEES6_ED2Ev.exit.1: ; preds = %if.then.i6.i.1, %_ZNSt3__112basic_stringIcNS_11char_traitsIcEENS_9allocatorIcEEED2Ev.exit.i529.1
  %arraydestroy.element.2 = getelementptr inbounds %"struct.std::__1::pair.66", ptr %ref.tmp, i64 3
  %second.i523.2 = getelementptr inbounds %"struct.std::__1::pair.66", ptr %ref.tmp, i64 3, i32 1
  %bf.load.i.i.i524.2 = load i8, ptr %second.i523.2, align 8
  %bf.clear.i.i.i525.2 = and i8 %bf.load.i.i.i524.2, 1
  %tobool.i.not.i.i526.2 = icmp eq i8 %bf.clear.i.i.i525.2, 0
  br i1 %tobool.i.not.i.i526.2, label %_ZNSt3__112basic_stringIcNS_11char_traitsIcEENS_9allocatorIcEEED2Ev.exit.i529.2, label %if.then.i.i528.2

if.then.i.i528.2:                                 ; preds = %_ZNSt3__14pairINS_12basic_stringIcNS_11char_traitsIcEENS_9allocatorIcEEEES6_ED2Ev.exit.1
  %__data_.i.i.i527.2 = getelementptr inbounds %"struct.std::__1::pair.66", ptr %ref.tmp, i64 3, i32 1, i32 0, i32 0, i32 0, i32 0, i32 0, i32 2
  %17 = load ptr, ptr %__data_.i.i.i527.2, align 8, !tbaa !34
  call void @_ZdlPv(ptr noundef %17) #24
  br label %_ZNSt3__112basic_stringIcNS_11char_traitsIcEENS_9allocatorIcEEED2Ev.exit.i529.2

_ZNSt3__112basic_stringIcNS_11char_traitsIcEENS_9allocatorIcEEED2Ev.exit.i529.2: ; preds = %if.then.i.i528.2, %_ZNSt3__14pairINS_12basic_stringIcNS_11char_traitsIcEENS_9allocatorIcEEEES6_ED2Ev.exit.1
  %bf.load.i.i2.i.2 = load i8, ptr %arraydestroy.element.2, align 8
  %bf.clear.i.i3.i.2 = and i8 %bf.load.i.i2.i.2, 1
  %tobool.i.not.i4.i.2 = icmp eq i8 %bf.clear.i.i3.i.2, 0
  br i1 %tobool.i.not.i4.i.2, label %_ZNSt3__14pairINS_12basic_stringIcNS_11char_traitsIcEENS_9allocatorIcEEEES6_ED2Ev.exit.2, label %if.then.i6.i.2

if.then.i6.i.2:                                   ; preds = %_ZNSt3__112basic_stringIcNS_11char_traitsIcEENS_9allocatorIcEEED2Ev.exit.i529.2
  %__data_.i.i5.i.2 = getelementptr inbounds %"struct.std::__1::pair.66", ptr %ref.tmp, i64 3, i32 0, i32 0, i32 0, i32 0, i32 0, i32 0, i32 2
  %18 = load ptr, ptr %__data_.i.i5.i.2, align 8, !tbaa !34
  call void @_ZdlPv(ptr noundef %18) #24
  br label %_ZNSt3__14pairINS_12basic_stringIcNS_11char_traitsIcEENS_9allocatorIcEEEES6_ED2Ev.exit.2

_ZNSt3__14pairINS_12basic_stringIcNS_11char_traitsIcEENS_9allocatorIcEEEES6_ED2Ev.exit.2: ; preds = %if.then.i6.i.2, %_ZNSt3__112basic_stringIcNS_11char_traitsIcEENS_9allocatorIcEEED2Ev.exit.i529.2
  %arraydestroy.element.3 = getelementptr inbounds %"struct.std::__1::pair.66", ptr %ref.tmp, i64 2
  %second.i523.3 = getelementptr inbounds %"struct.std::__1::pair.66", ptr %ref.tmp, i64 2, i32 1
  %bf.load.i.i.i524.3 = load i8, ptr %second.i523.3, align 8
  %bf.clear.i.i.i525.3 = and i8 %bf.load.i.i.i524.3, 1
  %tobool.i.not.i.i526.3 = icmp eq i8 %bf.clear.i.i.i525.3, 0
  br i1 %tobool.i.not.i.i526.3, label %_ZNSt3__112basic_stringIcNS_11char_traitsIcEENS_9allocatorIcEEED2Ev.exit.i529.3, label %if.then.i.i528.3

if.then.i.i528.3:                                 ; preds = %_ZNSt3__14pairINS_12basic_stringIcNS_11char_traitsIcEENS_9allocatorIcEEEES6_ED2Ev.exit.2
  %__data_.i.i.i527.3 = getelementptr inbounds %"struct.std::__1::pair.66", ptr %ref.tmp, i64 2, i32 1, i32 0, i32 0, i32 0, i32 0, i32 0, i32 2
  %19 = load ptr, ptr %__data_.i.i.i527.3, align 8, !tbaa !34
  call void @_ZdlPv(ptr noundef %19) #24
  br label %_ZNSt3__112basic_stringIcNS_11char_traitsIcEENS_9allocatorIcEEED2Ev.exit.i529.3

_ZNSt3__112basic_stringIcNS_11char_traitsIcEENS_9allocatorIcEEED2Ev.exit.i529.3: ; preds = %if.then.i.i528.3, %_ZNSt3__14pairINS_12basic_stringIcNS_11char_traitsIcEENS_9allocatorIcEEEES6_ED2Ev.exit.2
  %bf.load.i.i2.i.3 = load i8, ptr %arraydestroy.element.3, align 8
  %bf.clear.i.i3.i.3 = and i8 %bf.load.i.i2.i.3, 1
  %tobool.i.not.i4.i.3 = icmp eq i8 %bf.clear.i.i3.i.3, 0
  br i1 %tobool.i.not.i4.i.3, label %_ZNSt3__14pairINS_12basic_stringIcNS_11char_traitsIcEENS_9allocatorIcEEEES6_ED2Ev.exit.3, label %if.then.i6.i.3

if.then.i6.i.3:                                   ; preds = %_ZNSt3__112basic_stringIcNS_11char_traitsIcEENS_9allocatorIcEEED2Ev.exit.i529.3
  %__data_.i.i5.i.3 = getelementptr inbounds %"struct.std::__1::pair.66", ptr %ref.tmp, i64 2, i32 0, i32 0, i32 0, i32 0, i32 0, i32 0, i32 2
  %20 = load ptr, ptr %__data_.i.i5.i.3, align 8, !tbaa !34
  call void @_ZdlPv(ptr noundef %20) #24
  br label %_ZNSt3__14pairINS_12basic_stringIcNS_11char_traitsIcEENS_9allocatorIcEEEES6_ED2Ev.exit.3

_ZNSt3__14pairINS_12basic_stringIcNS_11char_traitsIcEENS_9allocatorIcEEEES6_ED2Ev.exit.3: ; preds = %if.then.i6.i.3, %_ZNSt3__112basic_stringIcNS_11char_traitsIcEENS_9allocatorIcEEED2Ev.exit.i529.3
  %arraydestroy.element.4 = getelementptr inbounds %"struct.std::__1::pair.66", ptr %ref.tmp, i64 1
  %second.i523.4 = getelementptr inbounds %"struct.std::__1::pair.66", ptr %ref.tmp, i64 1, i32 1
  %bf.load.i.i.i524.4 = load i8, ptr %second.i523.4, align 8
  %bf.clear.i.i.i525.4 = and i8 %bf.load.i.i.i524.4, 1
  %tobool.i.not.i.i526.4 = icmp eq i8 %bf.clear.i.i.i525.4, 0
  br i1 %tobool.i.not.i.i526.4, label %_ZNSt3__112basic_stringIcNS_11char_traitsIcEENS_9allocatorIcEEED2Ev.exit.i529.4, label %if.then.i.i528.4

if.then.i.i528.4:                                 ; preds = %_ZNSt3__14pairINS_12basic_stringIcNS_11char_traitsIcEENS_9allocatorIcEEEES6_ED2Ev.exit.3
  %__data_.i.i.i527.4 = getelementptr inbounds %"struct.std::__1::pair.66", ptr %ref.tmp, i64 1, i32 1, i32 0, i32 0, i32 0, i32 0, i32 0, i32 2
  %21 = load ptr, ptr %__data_.i.i.i527.4, align 8, !tbaa !34
  call void @_ZdlPv(ptr noundef %21) #24
  br label %_ZNSt3__112basic_stringIcNS_11char_traitsIcEENS_9allocatorIcEEED2Ev.exit.i529.4

_ZNSt3__112basic_stringIcNS_11char_traitsIcEENS_9allocatorIcEEED2Ev.exit.i529.4: ; preds = %if.then.i.i528.4, %_ZNSt3__14pairINS_12basic_stringIcNS_11char_traitsIcEENS_9allocatorIcEEEES6_ED2Ev.exit.3
  %bf.load.i.i2.i.4 = load i8, ptr %arraydestroy.element.4, align 8
  %bf.clear.i.i3.i.4 = and i8 %bf.load.i.i2.i.4, 1
  %tobool.i.not.i4.i.4 = icmp eq i8 %bf.clear.i.i3.i.4, 0
  br i1 %tobool.i.not.i4.i.4, label %_ZNSt3__14pairINS_12basic_stringIcNS_11char_traitsIcEENS_9allocatorIcEEEES6_ED2Ev.exit.4, label %if.then.i6.i.4

if.then.i6.i.4:                                   ; preds = %_ZNSt3__112basic_stringIcNS_11char_traitsIcEENS_9allocatorIcEEED2Ev.exit.i529.4
  %__data_.i.i5.i.4 = getelementptr inbounds %"struct.std::__1::pair.66", ptr %ref.tmp, i64 1, i32 0, i32 0, i32 0, i32 0, i32 0, i32 0, i32 2
  %22 = load ptr, ptr %__data_.i.i5.i.4, align 8, !tbaa !34
  call void @_ZdlPv(ptr noundef %22) #24
  br label %_ZNSt3__14pairINS_12basic_stringIcNS_11char_traitsIcEENS_9allocatorIcEEEES6_ED2Ev.exit.4

_ZNSt3__14pairINS_12basic_stringIcNS_11char_traitsIcEENS_9allocatorIcEEEES6_ED2Ev.exit.4: ; preds = %if.then.i6.i.4, %_ZNSt3__112basic_stringIcNS_11char_traitsIcEENS_9allocatorIcEEED2Ev.exit.i529.4
  %second.i523.5 = getelementptr inbounds %"struct.std::__1::pair.66", ptr %ref.tmp, i64 0, i32 1
  %bf.load.i.i.i524.5 = load i8, ptr %second.i523.5, align 8
  %bf.clear.i.i.i525.5 = and i8 %bf.load.i.i.i524.5, 1
  %tobool.i.not.i.i526.5 = icmp eq i8 %bf.clear.i.i.i525.5, 0
  br i1 %tobool.i.not.i.i526.5, label %_ZNSt3__112basic_stringIcNS_11char_traitsIcEENS_9allocatorIcEEED2Ev.exit.i529.5, label %if.then.i.i528.5

if.then.i.i528.5:                                 ; preds = %_ZNSt3__14pairINS_12basic_stringIcNS_11char_traitsIcEENS_9allocatorIcEEEES6_ED2Ev.exit.4
  %__data_.i.i.i527.5 = getelementptr inbounds %"struct.std::__1::pair.66", ptr %ref.tmp, i64 0, i32 1, i32 0, i32 0, i32 0, i32 0, i32 0, i32 2
  %23 = load ptr, ptr %__data_.i.i.i527.5, align 8, !tbaa !34
  call void @_ZdlPv(ptr noundef %23) #24
  br label %_ZNSt3__112basic_stringIcNS_11char_traitsIcEENS_9allocatorIcEEED2Ev.exit.i529.5

_ZNSt3__112basic_stringIcNS_11char_traitsIcEENS_9allocatorIcEEED2Ev.exit.i529.5: ; preds = %if.then.i.i528.5, %_ZNSt3__14pairINS_12basic_stringIcNS_11char_traitsIcEENS_9allocatorIcEEEES6_ED2Ev.exit.4
  %bf.load.i.i2.i.5 = load i8, ptr %ref.tmp, align 8
  %bf.clear.i.i3.i.5 = and i8 %bf.load.i.i2.i.5, 1
  %tobool.i.not.i4.i.5 = icmp eq i8 %bf.clear.i.i3.i.5, 0
  br i1 %tobool.i.not.i4.i.5, label %_ZNSt3__14pairINS_12basic_stringIcNS_11char_traitsIcEENS_9allocatorIcEEEES6_ED2Ev.exit.5, label %if.then.i6.i.5

if.then.i6.i.5:                                   ; preds = %_ZNSt3__112basic_stringIcNS_11char_traitsIcEENS_9allocatorIcEEED2Ev.exit.i529.5
  %__data_.i.i5.i.5 = getelementptr inbounds %"struct.std::__1::pair.66", ptr %ref.tmp, i64 0, i32 0, i32 0, i32 0, i32 0, i32 0, i32 0, i32 2
  %24 = load ptr, ptr %__data_.i.i5.i.5, align 8, !tbaa !34
  call void @_ZdlPv(ptr noundef %24) #24
  br label %_ZNSt3__14pairINS_12basic_stringIcNS_11char_traitsIcEENS_9allocatorIcEEEES6_ED2Ev.exit.5

_ZNSt3__14pairINS_12basic_stringIcNS_11char_traitsIcEENS_9allocatorIcEEEES6_ED2Ev.exit.5: ; preds = %if.then.i6.i.5, %_ZNSt3__112basic_stringIcNS_11char_traitsIcEENS_9allocatorIcEEED2Ev.exit.i529.5
  %bf.load.i.i = load i8, ptr %ref.tmp5, align 8
  %bf.clear.i.i = and i8 %bf.load.i.i, 1
  %tobool.i.not.i = icmp eq i8 %bf.clear.i.i, 0
  br i1 %tobool.i.not.i, label %_ZNSt3__112basic_stringIcNS_11char_traitsIcEENS_9allocatorIcEEED2Ev.exit, label %if.then.i

if.then.i:                                        ; preds = %_ZNSt3__14pairINS_12basic_stringIcNS_11char_traitsIcEENS_9allocatorIcEEEES6_ED2Ev.exit.5
  %__data_.i.i = getelementptr inbounds %"struct.std::__1::basic_string<char>::__long", ptr %ref.tmp5, i64 0, i32 2
  %25 = load ptr, ptr %__data_.i.i, align 8, !tbaa !34
  call void @_ZdlPv(ptr noundef %25) #24
  br label %_ZNSt3__112basic_stringIcNS_11char_traitsIcEENS_9allocatorIcEEED2Ev.exit

_ZNSt3__112basic_stringIcNS_11char_traitsIcEENS_9allocatorIcEEED2Ev.exit: ; preds = %_ZNSt3__14pairINS_12basic_stringIcNS_11char_traitsIcEENS_9allocatorIcEEEES6_ED2Ev.exit.5, %if.then.i
  call void @llvm.lifetime.end.p0(i64 24, ptr nonnull %ref.tmp5) #23
  call void @llvm.lifetime.end.p0(i64 288, ptr nonnull %ref.tmp) #23
  call void @llvm.lifetime.start.p0(i64 216, ptr nonnull %ref.tmp32) #23
  %call.i.i.i.i.i.i534 = invoke noalias noundef nonnull dereferenceable(48) ptr @_Znwm(i64 noundef 48) #25
          to label %call.i.i.i.i.i.i.noexc unwind label %ehcleanup73.thread

call.i.i.i.i.i.i.noexc:                           ; preds = %_ZNSt3__112basic_stringIcNS_11char_traitsIcEENS_9allocatorIcEEED2Ev.exit
  %__data_.i23.i.i = getelementptr inbounds %"struct.std::__1::basic_string<char>::__long", ptr %agg.tmp35, i64 0, i32 2
  store ptr %call.i.i.i.i.i.i534, ptr %__data_.i23.i.i, align 8, !tbaa !34
  store i64 49, ptr %agg.tmp35, align 8
  %__size_.i.i.i = getelementptr inbounds %"struct.std::__1::basic_string<char>::__long", ptr %agg.tmp35, i64 0, i32 1
  store i64 36, ptr %__size_.i.i.i, align 8, !tbaa !34
  %cmp.i24.i.i = icmp ugt ptr %call.i.i.i.i.i.i534, @.str.47
  %add.ptr.i.i.i = getelementptr inbounds i8, ptr %call.i.i.i.i.i.i534, i64 36
  %cmp1.i.i.i = icmp ule ptr %add.ptr.i.i.i, @.str.47
  %26 = or i1 %cmp.i24.i.i, %cmp1.i.i.i
  call void @llvm.assume(i1 %26)
  call void @llvm.memcpy.p0.p0.i64(ptr noundef nonnull align 1 dereferenceable(36) %call.i.i.i.i.i.i534, ptr noundef nonnull align 1 dereferenceable(36) @.str.47, i64 36, i1 false)
  store i8 0, ptr %add.ptr.i.i.i, align 1, !tbaa !34
  invoke void @_ZN8TestCaseC1ENSt3__112basic_stringIcNS0_11char_traitsIcEENS0_9allocatorIcEEEEi(ptr noundef nonnull align 8 dereferenceable(72) %ref.tmp32, ptr noundef nonnull %agg.tmp35, i32 noundef 0)
          to label %invoke.cont39 unwind label %lpad38

invoke.cont39:                                    ; preds = %call.i.i.i.i.i.i.noexc
  %arrayinit.element40 = getelementptr inbounds %struct.TestCase, ptr %ref.tmp32, i64 1
  store i8 22, ptr %agg.tmp41, align 8
  %__data_.i.i.i542 = getelementptr inbounds %"struct.std::__1::basic_string<char>::__short", ptr %agg.tmp41, i64 0, i32 2
  %cmp.i24.i.i551 = icmp ugt ptr %__data_.i.i.i542, @.str.48
  %add.ptr.i.i.i552 = getelementptr inbounds %"struct.std::__1::basic_string<char>::__short", ptr %agg.tmp41, i64 0, i32 2, i64 11
  %cmp1.i.i.i553 = icmp ule ptr %add.ptr.i.i.i552, @.str.48
  %27 = or i1 %cmp.i24.i.i551, %cmp1.i.i.i553
  call void @llvm.assume(i1 %27)
  call void @llvm.memcpy.p0.p0.i64(ptr noundef nonnull align 1 dereferenceable(11) %__data_.i.i.i542, ptr noundef nonnull align 1 dereferenceable(11) @.str.48, i64 11, i1 false)
  store i8 0, ptr %add.ptr.i.i.i552, align 4, !tbaa !34
  invoke void @_ZN8TestCaseC1ENSt3__112basic_stringIcNS0_11char_traitsIcEENS0_9allocatorIcEEEEi(ptr noundef nonnull align 8 dereferenceable(72) %arrayinit.element40, ptr noundef nonnull %agg.tmp41, i32 noundef 2)
          to label %invoke.cont44 unwind label %lpad43

invoke.cont44:                                    ; preds = %invoke.cont39
  %arrayinit.element45 = getelementptr inbounds %struct.TestCase, ptr %ref.tmp32, i64 2
  %call.i.i.i.i.i.i579 = invoke noalias noundef nonnull dereferenceable(32) ptr @_Znwm(i64 noundef 32) #25
          to label %call.i.i.i.i.i.i.noexc578 unwind label %lpad43

call.i.i.i.i.i.i.noexc578:                        ; preds = %invoke.cont44
  %__data_.i23.i.i569 = getelementptr inbounds %"struct.std::__1::basic_string<char>::__long", ptr %agg.tmp46, i64 0, i32 2
  store ptr %call.i.i.i.i.i.i579, ptr %__data_.i23.i.i569, align 8, !tbaa !34
  store i64 33, ptr %agg.tmp46, align 8
  %__size_.i.i.i571 = getelementptr inbounds %"struct.std::__1::basic_string<char>::__long", ptr %agg.tmp46, i64 0, i32 1
  store i64 25, ptr %__size_.i.i.i571, align 8, !tbaa !34
  %cmp.i24.i.i574 = icmp ugt ptr %call.i.i.i.i.i.i579, @.str.49
  %add.ptr.i.i.i575 = getelementptr inbounds i8, ptr %call.i.i.i.i.i.i579, i64 25
  %cmp1.i.i.i576 = icmp ule ptr %add.ptr.i.i.i575, @.str.49
  %28 = or i1 %cmp.i24.i.i574, %cmp1.i.i.i576
  call void @llvm.assume(i1 %28)
  call void @llvm.memcpy.p0.p0.i64(ptr noundef nonnull align 1 dereferenceable(25) %call.i.i.i.i.i.i579, ptr noundef nonnull align 1 dereferenceable(25) @.str.49, i64 25, i1 false)
  store i8 0, ptr %add.ptr.i.i.i575, align 1, !tbaa !34
  invoke void @_ZN8TestCaseC1ENSt3__112basic_stringIcNS0_11char_traitsIcEENS0_9allocatorIcEEEEi(ptr noundef nonnull align 8 dereferenceable(72) %arrayinit.element45, ptr noundef nonnull %agg.tmp46, i32 noundef 1)
          to label %invoke.cont49 unwind label %lpad48

invoke.cont49:                                    ; preds = %call.i.i.i.i.i.i.noexc578
  %call56 = invoke noundef i32 @_Z8AddCases10TestCaseIDSt16initializer_listI8TestCaseE(i32 noundef 0, ptr nonnull %ref.tmp32, i64 3)
          to label %invoke.cont55 unwind label %lpad54

invoke.cont55:                                    ; preds = %invoke.cont49
  %arraydestroy.element60 = getelementptr inbounds %struct.TestCase, ptr %ref.tmp32, i64 2
  %__cntrl_.i.i = getelementptr inbounds %struct.TestCase, ptr %ref.tmp32, i64 2, i32 3, i32 1
  %29 = load ptr, ptr %__cntrl_.i.i, align 8, !tbaa !35
  %tobool.not.i.i = icmp eq ptr %29, null
  br i1 %tobool.not.i.i, label %_ZNSt3__110shared_ptrIN9benchmark5RegexEED2B7v170000Ev.exit.i, label %if.then.i.i582

if.then.i.i582:                                   ; preds = %invoke.cont55
  %__shared_owners_.i.i.i.i = getelementptr inbounds %"class.std::__1::__shared_count", ptr %29, i64 0, i32 1
  %30 = atomicrmw add ptr %__shared_owners_.i.i.i.i, i64 -1 acq_rel, align 8
  %cmp.i.i.i.i581 = icmp eq i64 %30, 0
  br i1 %cmp.i.i.i.i581, label %if.then.i.i.i583, label %_ZNSt3__110shared_ptrIN9benchmark5RegexEED2B7v170000Ev.exit.i

if.then.i.i.i583:                                 ; preds = %if.then.i.i582
  %vtable.i.i.i.i = load ptr, ptr %29, align 8, !tbaa !37
  %vfn.i.i.i.i = getelementptr inbounds ptr, ptr %vtable.i.i.i.i, i64 2
  %31 = load ptr, ptr %vfn.i.i.i.i, align 8
  call void %31(ptr noundef nonnull align 8 dereferenceable(16) %29) #23
  call void @_ZNSt3__119__shared_weak_count14__release_weakEv(ptr noundef nonnull align 8 dereferenceable(24) %29) #23
  br label %_ZNSt3__110shared_ptrIN9benchmark5RegexEED2B7v170000Ev.exit.i

_ZNSt3__110shared_ptrIN9benchmark5RegexEED2B7v170000Ev.exit.i: ; preds = %if.then.i.i.i583, %if.then.i.i582, %invoke.cont55
  %substituted_regex.i = getelementptr inbounds %struct.TestCase, ptr %ref.tmp32, i64 2, i32 2
  %bf.load.i.i.i584 = load i8, ptr %substituted_regex.i, align 8
  %bf.clear.i.i.i585 = and i8 %bf.load.i.i.i584, 1
  %tobool.i.not.i.i586 = icmp eq i8 %bf.clear.i.i.i585, 0
  br i1 %tobool.i.not.i.i586, label %_ZNSt3__112basic_stringIcNS_11char_traitsIcEENS_9allocatorIcEEED2Ev.exit.i588, label %if.then.i2.i

if.then.i2.i:                                     ; preds = %_ZNSt3__110shared_ptrIN9benchmark5RegexEED2B7v170000Ev.exit.i
  %__data_.i.i.i587 = getelementptr inbounds %struct.TestCase, ptr %ref.tmp32, i64 2, i32 2, i32 0, i32 0, i32 0, i32 0, i32 0, i32 2
  %32 = load ptr, ptr %__data_.i.i.i587, align 8, !tbaa !34
  call void @_ZdlPv(ptr noundef %32) #24
  br label %_ZNSt3__112basic_stringIcNS_11char_traitsIcEENS_9allocatorIcEEED2Ev.exit.i588

_ZNSt3__112basic_stringIcNS_11char_traitsIcEENS_9allocatorIcEEED2Ev.exit.i588: ; preds = %if.then.i2.i, %_ZNSt3__110shared_ptrIN9benchmark5RegexEED2B7v170000Ev.exit.i
  %bf.load.i.i3.i = load i8, ptr %arraydestroy.element60, align 8
  %bf.clear.i.i4.i = and i8 %bf.load.i.i3.i, 1
  %tobool.i.not.i5.i = icmp eq i8 %bf.clear.i.i4.i, 0
  br i1 %tobool.i.not.i5.i, label %_ZN8TestCaseD2Ev.exit, label %if.then.i7.i

if.then.i7.i:                                     ; preds = %_ZNSt3__112basic_stringIcNS_11char_traitsIcEENS_9allocatorIcEEED2Ev.exit.i588
  %__data_.i.i6.i = getelementptr inbounds %struct.TestCase, ptr %ref.tmp32, i64 2, i32 0, i32 0, i32 0, i32 0, i32 0, i32 0, i32 2
  %33 = load ptr, ptr %__data_.i.i6.i, align 8, !tbaa !34
  call void @_ZdlPv(ptr noundef %33) #24
  br label %_ZN8TestCaseD2Ev.exit

_ZN8TestCaseD2Ev.exit:                            ; preds = %_ZNSt3__112basic_stringIcNS_11char_traitsIcEENS_9allocatorIcEEED2Ev.exit.i588, %if.then.i7.i
  %arraydestroy.element60.1 = getelementptr inbounds %struct.TestCase, ptr %ref.tmp32, i64 1
  %__cntrl_.i.i.1 = getelementptr inbounds %struct.TestCase, ptr %ref.tmp32, i64 1, i32 3, i32 1
  %34 = load ptr, ptr %__cntrl_.i.i.1, align 8, !tbaa !35
  %tobool.not.i.i.1 = icmp eq ptr %34, null
  br i1 %tobool.not.i.i.1, label %_ZNSt3__110shared_ptrIN9benchmark5RegexEED2B7v170000Ev.exit.i.1, label %if.then.i.i582.1

if.then.i.i582.1:                                 ; preds = %_ZN8TestCaseD2Ev.exit
  %__shared_owners_.i.i.i.i.1 = getelementptr inbounds %"class.std::__1::__shared_count", ptr %34, i64 0, i32 1
  %35 = atomicrmw add ptr %__shared_owners_.i.i.i.i.1, i64 -1 acq_rel, align 8
  %cmp.i.i.i.i581.1 = icmp eq i64 %35, 0
  br i1 %cmp.i.i.i.i581.1, label %if.then.i.i.i583.1, label %_ZNSt3__110shared_ptrIN9benchmark5RegexEED2B7v170000Ev.exit.i.1

if.then.i.i.i583.1:                               ; preds = %if.then.i.i582.1
  %vtable.i.i.i.i.1 = load ptr, ptr %34, align 8, !tbaa !37
  %vfn.i.i.i.i.1 = getelementptr inbounds ptr, ptr %vtable.i.i.i.i.1, i64 2
  %36 = load ptr, ptr %vfn.i.i.i.i.1, align 8
  call void %36(ptr noundef nonnull align 8 dereferenceable(16) %34) #23
  call void @_ZNSt3__119__shared_weak_count14__release_weakEv(ptr noundef nonnull align 8 dereferenceable(24) %34) #23
  br label %_ZNSt3__110shared_ptrIN9benchmark5RegexEED2B7v170000Ev.exit.i.1

_ZNSt3__110shared_ptrIN9benchmark5RegexEED2B7v170000Ev.exit.i.1: ; preds = %if.then.i.i.i583.1, %if.then.i.i582.1, %_ZN8TestCaseD2Ev.exit
  %substituted_regex.i.1 = getelementptr inbounds %struct.TestCase, ptr %ref.tmp32, i64 1, i32 2
  %bf.load.i.i.i584.1 = load i8, ptr %substituted_regex.i.1, align 8
  %bf.clear.i.i.i585.1 = and i8 %bf.load.i.i.i584.1, 1
  %tobool.i.not.i.i586.1 = icmp eq i8 %bf.clear.i.i.i585.1, 0
  br i1 %tobool.i.not.i.i586.1, label %_ZNSt3__112basic_stringIcNS_11char_traitsIcEENS_9allocatorIcEEED2Ev.exit.i588.1, label %if.then.i2.i.1

if.then.i2.i.1:                                   ; preds = %_ZNSt3__110shared_ptrIN9benchmark5RegexEED2B7v170000Ev.exit.i.1
  %__data_.i.i.i587.1 = getelementptr inbounds %struct.TestCase, ptr %ref.tmp32, i64 1, i32 2, i32 0, i32 0, i32 0, i32 0, i32 0, i32 2
  %37 = load ptr, ptr %__data_.i.i.i587.1, align 8, !tbaa !34
  call void @_ZdlPv(ptr noundef %37) #24
  br label %_ZNSt3__112basic_stringIcNS_11char_traitsIcEENS_9allocatorIcEEED2Ev.exit.i588.1

_ZNSt3__112basic_stringIcNS_11char_traitsIcEENS_9allocatorIcEEED2Ev.exit.i588.1: ; preds = %if.then.i2.i.1, %_ZNSt3__110shared_ptrIN9benchmark5RegexEED2B7v170000Ev.exit.i.1
  %bf.load.i.i3.i.1 = load i8, ptr %arraydestroy.element60.1, align 8
  %bf.clear.i.i4.i.1 = and i8 %bf.load.i.i3.i.1, 1
  %tobool.i.not.i5.i.1 = icmp eq i8 %bf.clear.i.i4.i.1, 0
  br i1 %tobool.i.not.i5.i.1, label %_ZN8TestCaseD2Ev.exit.1, label %if.then.i7.i.1

if.then.i7.i.1:                                   ; preds = %_ZNSt3__112basic_stringIcNS_11char_traitsIcEENS_9allocatorIcEEED2Ev.exit.i588.1
  %__data_.i.i6.i.1 = getelementptr inbounds %struct.TestCase, ptr %ref.tmp32, i64 1, i32 0, i32 0, i32 0, i32 0, i32 0, i32 0, i32 2
  %38 = load ptr, ptr %__data_.i.i6.i.1, align 8, !tbaa !34
  call void @_ZdlPv(ptr noundef %38) #24
  br label %_ZN8TestCaseD2Ev.exit.1

_ZN8TestCaseD2Ev.exit.1:                          ; preds = %if.then.i7.i.1, %_ZNSt3__112basic_stringIcNS_11char_traitsIcEENS_9allocatorIcEEED2Ev.exit.i588.1
  %__cntrl_.i.i.2 = getelementptr inbounds %struct.TestCase, ptr %ref.tmp32, i64 0, i32 3, i32 1
  %39 = load ptr, ptr %__cntrl_.i.i.2, align 8, !tbaa !35
  %tobool.not.i.i.2 = icmp eq ptr %39, null
  br i1 %tobool.not.i.i.2, label %_ZNSt3__110shared_ptrIN9benchmark5RegexEED2B7v170000Ev.exit.i.2, label %if.then.i.i582.2

if.then.i.i582.2:                                 ; preds = %_ZN8TestCaseD2Ev.exit.1
  %__shared_owners_.i.i.i.i.2 = getelementptr inbounds %"class.std::__1::__shared_count", ptr %39, i64 0, i32 1
  %40 = atomicrmw add ptr %__shared_owners_.i.i.i.i.2, i64 -1 acq_rel, align 8
  %cmp.i.i.i.i581.2 = icmp eq i64 %40, 0
  br i1 %cmp.i.i.i.i581.2, label %if.then.i.i.i583.2, label %_ZNSt3__110shared_ptrIN9benchmark5RegexEED2B7v170000Ev.exit.i.2

if.then.i.i.i583.2:                               ; preds = %if.then.i.i582.2
  %vtable.i.i.i.i.2 = load ptr, ptr %39, align 8, !tbaa !37
  %vfn.i.i.i.i.2 = getelementptr inbounds ptr, ptr %vtable.i.i.i.i.2, i64 2
  %41 = load ptr, ptr %vfn.i.i.i.i.2, align 8
  call void %41(ptr noundef nonnull align 8 dereferenceable(16) %39) #23
  call void @_ZNSt3__119__shared_weak_count14__release_weakEv(ptr noundef nonnull align 8 dereferenceable(24) %39) #23
  br label %_ZNSt3__110shared_ptrIN9benchmark5RegexEED2B7v170000Ev.exit.i.2

_ZNSt3__110shared_ptrIN9benchmark5RegexEED2B7v170000Ev.exit.i.2: ; preds = %if.then.i.i.i583.2, %if.then.i.i582.2, %_ZN8TestCaseD2Ev.exit.1
  %substituted_regex.i.2 = getelementptr inbounds %struct.TestCase, ptr %ref.tmp32, i64 0, i32 2
  %bf.load.i.i.i584.2 = load i8, ptr %substituted_regex.i.2, align 8
  %bf.clear.i.i.i585.2 = and i8 %bf.load.i.i.i584.2, 1
  %tobool.i.not.i.i586.2 = icmp eq i8 %bf.clear.i.i.i585.2, 0
  br i1 %tobool.i.not.i.i586.2, label %_ZNSt3__112basic_stringIcNS_11char_traitsIcEENS_9allocatorIcEEED2Ev.exit.i588.2, label %if.then.i2.i.2

if.then.i2.i.2:                                   ; preds = %_ZNSt3__110shared_ptrIN9benchmark5RegexEED2B7v170000Ev.exit.i.2
  %__data_.i.i.i587.2 = getelementptr inbounds %struct.TestCase, ptr %ref.tmp32, i64 0, i32 2, i32 0, i32 0, i32 0, i32 0, i32 0, i32 2
  %42 = load ptr, ptr %__data_.i.i.i587.2, align 8, !tbaa !34
  call void @_ZdlPv(ptr noundef %42) #24
  br label %_ZNSt3__112basic_stringIcNS_11char_traitsIcEENS_9allocatorIcEEED2Ev.exit.i588.2

_ZNSt3__112basic_stringIcNS_11char_traitsIcEENS_9allocatorIcEEED2Ev.exit.i588.2: ; preds = %if.then.i2.i.2, %_ZNSt3__110shared_ptrIN9benchmark5RegexEED2B7v170000Ev.exit.i.2
  %bf.load.i.i3.i.2 = load i8, ptr %ref.tmp32, align 8
  %bf.clear.i.i4.i.2 = and i8 %bf.load.i.i3.i.2, 1
  %tobool.i.not.i5.i.2 = icmp eq i8 %bf.clear.i.i4.i.2, 0
  br i1 %tobool.i.not.i5.i.2, label %_ZN8TestCaseD2Ev.exit.2, label %if.then.i7.i.2

if.then.i7.i.2:                                   ; preds = %_ZNSt3__112basic_stringIcNS_11char_traitsIcEENS_9allocatorIcEEED2Ev.exit.i588.2
  %__data_.i.i6.i.2 = getelementptr inbounds %struct.TestCase, ptr %ref.tmp32, i64 0, i32 0, i32 0, i32 0, i32 0, i32 0, i32 0, i32 2
  %43 = load ptr, ptr %__data_.i.i6.i.2, align 8, !tbaa !34
  call void @_ZdlPv(ptr noundef %43) #24
  br label %_ZN8TestCaseD2Ev.exit.2

_ZN8TestCaseD2Ev.exit.2:                          ; preds = %if.then.i7.i.2, %_ZNSt3__112basic_stringIcNS_11char_traitsIcEENS_9allocatorIcEEED2Ev.exit.i588.2
  %bf.load.i.i589 = load i8, ptr %agg.tmp46, align 8
  %bf.clear.i.i590 = and i8 %bf.load.i.i589, 1
  %tobool.i.not.i591 = icmp eq i8 %bf.clear.i.i590, 0
  br i1 %tobool.i.not.i591, label %_ZNSt3__112basic_stringIcNS_11char_traitsIcEENS_9allocatorIcEEED2Ev.exit594, label %if.then.i593

if.then.i593:                                     ; preds = %_ZN8TestCaseD2Ev.exit.2
  %44 = load ptr, ptr %__data_.i23.i.i569, align 8, !tbaa !34
  call void @_ZdlPv(ptr noundef %44) #24
  br label %_ZNSt3__112basic_stringIcNS_11char_traitsIcEENS_9allocatorIcEEED2Ev.exit594

_ZNSt3__112basic_stringIcNS_11char_traitsIcEENS_9allocatorIcEEED2Ev.exit594: ; preds = %_ZN8TestCaseD2Ev.exit.2, %if.then.i593
  %bf.load.i.i595 = load i8, ptr %agg.tmp41, align 8
  %bf.clear.i.i596 = and i8 %bf.load.i.i595, 1
  %tobool.i.not.i597 = icmp eq i8 %bf.clear.i.i596, 0
  br i1 %tobool.i.not.i597, label %_ZNSt3__112basic_stringIcNS_11char_traitsIcEENS_9allocatorIcEEED2Ev.exit600, label %if.then.i599

if.then.i599:                                     ; preds = %_ZNSt3__112basic_stringIcNS_11char_traitsIcEENS_9allocatorIcEEED2Ev.exit594
  %__data_.i.i598 = getelementptr inbounds %"struct.std::__1::basic_string<char>::__long", ptr %agg.tmp41, i64 0, i32 2
  %45 = load ptr, ptr %__data_.i.i598, align 8, !tbaa !34
  call void @_ZdlPv(ptr noundef %45) #24
  br label %_ZNSt3__112basic_stringIcNS_11char_traitsIcEENS_9allocatorIcEEED2Ev.exit600

_ZNSt3__112basic_stringIcNS_11char_traitsIcEENS_9allocatorIcEEED2Ev.exit600: ; preds = %_ZNSt3__112basic_stringIcNS_11char_traitsIcEENS_9allocatorIcEEED2Ev.exit594, %if.then.i599
  %bf.load.i.i601 = load i8, ptr %agg.tmp35, align 8
  %bf.clear.i.i602 = and i8 %bf.load.i.i601, 1
  %tobool.i.not.i603 = icmp eq i8 %bf.clear.i.i602, 0
  br i1 %tobool.i.not.i603, label %_ZNSt3__112basic_stringIcNS_11char_traitsIcEENS_9allocatorIcEEED2Ev.exit606, label %if.then.i605

if.then.i605:                                     ; preds = %_ZNSt3__112basic_stringIcNS_11char_traitsIcEENS_9allocatorIcEEED2Ev.exit600
  %46 = load ptr, ptr %__data_.i23.i.i, align 8, !tbaa !34
  call void @_ZdlPv(ptr noundef %46) #24
  br label %_ZNSt3__112basic_stringIcNS_11char_traitsIcEENS_9allocatorIcEEED2Ev.exit606

_ZNSt3__112basic_stringIcNS_11char_traitsIcEENS_9allocatorIcEEED2Ev.exit606: ; preds = %_ZNSt3__112basic_stringIcNS_11char_traitsIcEENS_9allocatorIcEEED2Ev.exit600, %if.then.i605
  call void @llvm.lifetime.end.p0(i64 216, ptr nonnull %ref.tmp32) #23
  call void @llvm.lifetime.start.p0(i64 1800, ptr nonnull %ref.tmp85) #23
  store i8 44, ptr %agg.tmp88, align 8
  %__data_.i.i.i614 = getelementptr inbounds %"struct.std::__1::basic_string<char>::__short", ptr %agg.tmp88, i64 0, i32 2
  %cmp.i24.i.i623 = icmp ugt ptr %__data_.i.i.i614, @.str.50
  %add.ptr.i.i.i624 = getelementptr inbounds %"struct.std::__1::basic_string<char>::__short", ptr %agg.tmp88, i64 0, i32 2, i64 22
  %cmp1.i.i.i625 = icmp ule ptr %add.ptr.i.i.i624, @.str.50
  %47 = or i1 %cmp.i24.i.i623, %cmp1.i.i.i625
  call void @llvm.assume(i1 %47)
  call void @llvm.memcpy.p0.p0.i64(ptr noundef nonnull align 1 dereferenceable(22) %__data_.i.i.i614, ptr noundef nonnull align 1 dereferenceable(22) @.str.50, i64 22, i1 false)
  store i8 0, ptr %add.ptr.i.i.i624, align 1, !tbaa !34
  invoke void @_ZN8TestCaseC1ENSt3__112basic_stringIcNS0_11char_traitsIcEENS0_9allocatorIcEEEEi(ptr noundef nonnull align 8 dereferenceable(72) %ref.tmp85, ptr noundef nonnull %agg.tmp88, i32 noundef 0)
          to label %invoke.cont92 unwind label %lpad91

invoke.cont92:                                    ; preds = %_ZNSt3__112basic_stringIcNS_11char_traitsIcEENS_9allocatorIcEEED2Ev.exit606
  %arrayinit.element93 = getelementptr inbounds %struct.TestCase, ptr %ref.tmp85, i64 1
  call void @llvm.lifetime.start.p0(i64 24, ptr nonnull %ref.tmp95) #23
  call void @llvm.lifetime.start.p0(i64 24, ptr nonnull %ref.tmp96) #23
  invoke void @_ZNSt3__19to_stringEi(ptr nonnull sret(%"class.std::__1::basic_string") align 8 %ref.tmp96, i32 noundef %family_index)
          to label %invoke.cont98 unwind label %lpad97

invoke.cont98:                                    ; preds = %invoke.cont92
  %call.i630 = invoke noundef nonnull align 8 dereferenceable(24) ptr @_ZNSt3__112basic_stringIcNS_11char_traitsIcEENS_9allocatorIcEEE6insertEmPKc(ptr noundef nonnull align 8 dereferenceable(24) %ref.tmp96, i64 noundef 0, ptr noundef nonnull @.str.51)
          to label %invoke.cont100 unwind label %lpad99

invoke.cont100:                                   ; preds = %invoke.cont98
  call void @llvm.memcpy.p0.p0.i64(ptr noundef nonnull align 8 dereferenceable(24) %ref.tmp95, ptr noundef nonnull align 8 dereferenceable(24) %call.i630, i64 24, i1 false)
  call void @llvm.memset.p0.i64(ptr noundef nonnull align 8 dereferenceable(24) %call.i630, i8 0, i64 24, i1 false), !noalias !39
  %call.i631 = invoke noundef nonnull align 8 dereferenceable(24) ptr @_ZNSt3__112basic_stringIcNS_11char_traitsIcEENS_9allocatorIcEEE6appendEPKc(ptr noundef nonnull align 8 dereferenceable(24) %ref.tmp95, ptr noundef nonnull @.str.52)
          to label %invoke.cont102 unwind label %lpad101

invoke.cont102:                                   ; preds = %invoke.cont100
  call void @llvm.memcpy.p0.p0.i64(ptr noundef nonnull align 8 dereferenceable(24) %agg.tmp94, ptr noundef nonnull align 8 dereferenceable(24) %call.i631, i64 24, i1 false)
  call void @llvm.memset.p0.i64(ptr noundef nonnull align 8 dereferenceable(24) %call.i631, i8 0, i64 24, i1 false), !noalias !42
  invoke void @_ZN8TestCaseC1ENSt3__112basic_stringIcNS0_11char_traitsIcEENS0_9allocatorIcEEEEi(ptr noundef nonnull align 8 dereferenceable(72) %arrayinit.element93, ptr noundef nonnull %agg.tmp94, i32 noundef 1)
          to label %invoke.cont104 unwind label %lpad103

invoke.cont104:                                   ; preds = %invoke.cont102
  %arrayinit.element105 = getelementptr inbounds %struct.TestCase, ptr %ref.tmp85, i64 2
  %call.i.i.i.i.i.i653 = invoke noalias noundef nonnull dereferenceable(48) ptr @_Znwm(i64 noundef 48) #25
          to label %call.i.i.i.i.i.i.noexc652 unwind label %lpad103

call.i.i.i.i.i.i.noexc652:                        ; preds = %invoke.cont104
  %__data_.i23.i.i643 = getelementptr inbounds %"struct.std::__1::basic_string<char>::__long", ptr %agg.tmp106, i64 0, i32 2
  store ptr %call.i.i.i.i.i.i653, ptr %__data_.i23.i.i643, align 8, !tbaa !34
  store i64 49, ptr %agg.tmp106, align 8
  %__size_.i.i.i645 = getelementptr inbounds %"struct.std::__1::basic_string<char>::__long", ptr %agg.tmp106, i64 0, i32 1
  store i64 32, ptr %__size_.i.i.i645, align 8, !tbaa !34
  %cmp.i24.i.i648 = icmp ugt ptr %call.i.i.i.i.i.i653, @.str.53
  %add.ptr.i.i.i649 = getelementptr inbounds i8, ptr %call.i.i.i.i.i.i653, i64 32
  %cmp1.i.i.i650 = icmp ule ptr %add.ptr.i.i.i649, @.str.53
  %48 = or i1 %cmp.i24.i.i648, %cmp1.i.i.i650
  call void @llvm.assume(i1 %48)
  call void @llvm.memcpy.p0.p0.i64(ptr noundef nonnull align 1 dereferenceable(32) %call.i.i.i.i.i.i653, ptr noundef nonnull align 1 dereferenceable(32) @.str.53, i64 32, i1 false)
  store i8 0, ptr %add.ptr.i.i.i649, align 1, !tbaa !34
  invoke void @_ZN8TestCaseC1ENSt3__112basic_stringIcNS0_11char_traitsIcEENS0_9allocatorIcEEEEi(ptr noundef nonnull align 8 dereferenceable(72) %arrayinit.element105, ptr noundef nonnull %agg.tmp106, i32 noundef 1)
          to label %invoke.cont109 unwind label %lpad108

invoke.cont109:                                   ; preds = %call.i.i.i.i.i.i.noexc652
  %arrayinit.element110 = getelementptr inbounds %struct.TestCase, ptr %ref.tmp85, i64 3
  store i8 42, ptr %agg.tmp111, align 8
  %__data_.i.i.i662 = getelementptr inbounds %"struct.std::__1::basic_string<char>::__short", ptr %agg.tmp111, i64 0, i32 2
  %cmp.i24.i.i671 = icmp ugt ptr %__data_.i.i.i662, @.str.54
  %add.ptr.i.i.i672 = getelementptr inbounds %"struct.std::__1::basic_string<char>::__short", ptr %agg.tmp111, i64 0, i32 2, i64 21
  %cmp1.i.i.i673 = icmp ule ptr %add.ptr.i.i.i672, @.str.54
  %49 = or i1 %cmp.i24.i.i671, %cmp1.i.i.i673
  call void @llvm.assume(i1 %49)
  call void @llvm.memcpy.p0.p0.i64(ptr noundef nonnull align 1 dereferenceable(21) %__data_.i.i.i662, ptr noundef nonnull align 1 dereferenceable(21) @.str.54, i64 21, i1 false)
  store i8 0, ptr %add.ptr.i.i.i672, align 2, !tbaa !34
  invoke void @_ZN8TestCaseC1ENSt3__112basic_stringIcNS0_11char_traitsIcEENS0_9allocatorIcEEEEi(ptr noundef nonnull align 8 dereferenceable(72) %arrayinit.element110, ptr noundef nonnull %agg.tmp111, i32 noundef 1)
          to label %invoke.cont114 unwind label %lpad113

invoke.cont114:                                   ; preds = %invoke.cont109
  %arrayinit.element115 = getelementptr inbounds %struct.TestCase, ptr %ref.tmp85, i64 4
  %call.i.i.i.i.i.i699 = invoke noalias noundef nonnull dereferenceable(32) ptr @_Znwm(i64 noundef 32) #25
          to label %call.i.i.i.i.i.i.noexc698 unwind label %lpad113

call.i.i.i.i.i.i.noexc698:                        ; preds = %invoke.cont114
  %__data_.i23.i.i689 = getelementptr inbounds %"struct.std::__1::basic_string<char>::__long", ptr %agg.tmp116, i64 0, i32 2
  store ptr %call.i.i.i.i.i.i699, ptr %__data_.i23.i.i689, align 8, !tbaa !34
  store i64 33, ptr %agg.tmp116, align 8
  %__size_.i.i.i691 = getelementptr inbounds %"struct.std::__1::basic_string<char>::__long", ptr %agg.tmp116, i64 0, i32 1
  store i64 25, ptr %__size_.i.i.i691, align 8, !tbaa !34
  %cmp.i24.i.i694 = icmp ugt ptr %call.i.i.i.i.i.i699, @.str.55
  %add.ptr.i.i.i695 = getelementptr inbounds i8, ptr %call.i.i.i.i.i.i699, i64 25
  %cmp1.i.i.i696 = icmp ule ptr %add.ptr.i.i.i695, @.str.55
  %50 = or i1 %cmp.i24.i.i694, %cmp1.i.i.i696
  call void @llvm.assume(i1 %50)
  call void @llvm.memcpy.p0.p0.i64(ptr noundef nonnull align 1 dereferenceable(25) %call.i.i.i.i.i.i699, ptr noundef nonnull align 1 dereferenceable(25) @.str.55, i64 25, i1 false)
  store i8 0, ptr %add.ptr.i.i.i695, align 1, !tbaa !34
  invoke void @_ZN8TestCaseC1ENSt3__112basic_stringIcNS0_11char_traitsIcEENS0_9allocatorIcEEEEi(ptr noundef nonnull align 8 dereferenceable(72) %arrayinit.element115, ptr noundef nonnull %agg.tmp116, i32 noundef 1)
          to label %invoke.cont119 unwind label %lpad118

invoke.cont119:                                   ; preds = %call.i.i.i.i.i.i.noexc698
  %arrayinit.element120 = getelementptr inbounds %struct.TestCase, ptr %ref.tmp85, i64 5
  store i8 42, ptr %agg.tmp121, align 8
  %__data_.i.i.i708 = getelementptr inbounds %"struct.std::__1::basic_string<char>::__short", ptr %agg.tmp121, i64 0, i32 2
  %cmp.i24.i.i717 = icmp ugt ptr %__data_.i.i.i708, @.str.56
  %add.ptr.i.i.i718 = getelementptr inbounds %"struct.std::__1::basic_string<char>::__short", ptr %agg.tmp121, i64 0, i32 2, i64 21
  %cmp1.i.i.i719 = icmp ule ptr %add.ptr.i.i.i718, @.str.56
  %51 = or i1 %cmp.i24.i.i717, %cmp1.i.i.i719
  call void @llvm.assume(i1 %51)
  call void @llvm.memcpy.p0.p0.i64(ptr noundef nonnull align 1 dereferenceable(21) %__data_.i.i.i708, ptr noundef nonnull align 1 dereferenceable(21) @.str.56, i64 21, i1 false)
  store i8 0, ptr %add.ptr.i.i.i718, align 2, !tbaa !34
  invoke void @_ZN8TestCaseC1ENSt3__112basic_stringIcNS0_11char_traitsIcEENS0_9allocatorIcEEEEi(ptr noundef nonnull align 8 dereferenceable(72) %arrayinit.element120, ptr noundef nonnull %agg.tmp121, i32 noundef 1)
          to label %invoke.cont124 unwind label %lpad123

invoke.cont124:                                   ; preds = %invoke.cont119
  %arrayinit.element125 = getelementptr inbounds %struct.TestCase, ptr %ref.tmp85, i64 6
  store i8 28, ptr %agg.tmp126, align 8
  %__data_.i.i.i731 = getelementptr inbounds %"struct.std::__1::basic_string<char>::__short", ptr %agg.tmp126, i64 0, i32 2
  %cmp.i24.i.i740 = icmp ugt ptr %__data_.i.i.i731, @.str.57
  %add.ptr.i.i.i741 = getelementptr inbounds %"struct.std::__1::basic_string<char>::__short", ptr %agg.tmp126, i64 0, i32 2, i64 14
  %cmp1.i.i.i742 = icmp ule ptr %add.ptr.i.i.i741, @.str.57
  %52 = or i1 %cmp.i24.i.i740, %cmp1.i.i.i742
  call void @llvm.assume(i1 %52)
  call void @llvm.memcpy.p0.p0.i64(ptr noundef nonnull align 1 dereferenceable(14) %__data_.i.i.i731, ptr noundef nonnull align 1 dereferenceable(14) @.str.57, i64 14, i1 false)
  store i8 0, ptr %add.ptr.i.i.i741, align 1, !tbaa !34
  invoke void @_ZN8TestCaseC1ENSt3__112basic_stringIcNS0_11char_traitsIcEENS0_9allocatorIcEEEEi(ptr noundef nonnull align 8 dereferenceable(72) %arrayinit.element125, ptr noundef nonnull %agg.tmp126, i32 noundef 1)
          to label %invoke.cont129 unwind label %lpad128

invoke.cont129:                                   ; preds = %invoke.cont124
  %arrayinit.element130 = getelementptr inbounds %struct.TestCase, ptr %ref.tmp85, i64 7
  %call.i.i.i.i.i.i768 = invoke noalias noundef nonnull dereferenceable(32) ptr @_Znwm(i64 noundef 32) #25
          to label %call.i.i.i.i.i.i.noexc767 unwind label %lpad128

call.i.i.i.i.i.i.noexc767:                        ; preds = %invoke.cont129
  %__data_.i23.i.i758 = getelementptr inbounds %"struct.std::__1::basic_string<char>::__long", ptr %agg.tmp131, i64 0, i32 2
  store ptr %call.i.i.i.i.i.i768, ptr %__data_.i23.i.i758, align 8, !tbaa !34
  store i64 33, ptr %agg.tmp131, align 8
  %__size_.i.i.i760 = getelementptr inbounds %"struct.std::__1::basic_string<char>::__long", ptr %agg.tmp131, i64 0, i32 1
  store i64 26, ptr %__size_.i.i.i760, align 8, !tbaa !34
  %cmp.i24.i.i763 = icmp ugt ptr %call.i.i.i.i.i.i768, @.str.58
  %add.ptr.i.i.i764 = getelementptr inbounds i8, ptr %call.i.i.i.i.i.i768, i64 26
  %cmp1.i.i.i765 = icmp ule ptr %add.ptr.i.i.i764, @.str.58
  %53 = or i1 %cmp.i24.i.i763, %cmp1.i.i.i765
  call void @llvm.assume(i1 %53)
  call void @llvm.memcpy.p0.p0.i64(ptr noundef nonnull align 1 dereferenceable(26) %call.i.i.i.i.i.i768, ptr noundef nonnull align 1 dereferenceable(26) @.str.58, i64 26, i1 false)
  store i8 0, ptr %add.ptr.i.i.i764, align 1, !tbaa !34
  invoke void @_ZN8TestCaseC1ENSt3__112basic_stringIcNS0_11char_traitsIcEENS0_9allocatorIcEEEEi(ptr noundef nonnull align 8 dereferenceable(72) %arrayinit.element130, ptr noundef nonnull %agg.tmp131, i32 noundef 1)
          to label %invoke.cont134 unwind label %lpad133

invoke.cont134:                                   ; preds = %call.i.i.i.i.i.i.noexc767
  %arrayinit.element135 = getelementptr inbounds %struct.TestCase, ptr %ref.tmp85, i64 8
  %call.i.i.i.i.i.i791 = invoke noalias noundef nonnull dereferenceable(32) ptr @_Znwm(i64 noundef 32) #25
          to label %call.i.i.i.i.i.i.noexc790 unwind label %lpad133

call.i.i.i.i.i.i.noexc790:                        ; preds = %invoke.cont134
  %__data_.i23.i.i781 = getelementptr inbounds %"struct.std::__1::basic_string<char>::__long", ptr %agg.tmp136, i64 0, i32 2
  store ptr %call.i.i.i.i.i.i791, ptr %__data_.i23.i.i781, align 8, !tbaa !34
  store i64 33, ptr %agg.tmp136, align 8
  %__size_.i.i.i783 = getelementptr inbounds %"struct.std::__1::basic_string<char>::__long", ptr %agg.tmp136, i64 0, i32 1
  store i64 26, ptr %__size_.i.i.i783, align 8, !tbaa !34
  %cmp.i24.i.i786 = icmp ugt ptr %call.i.i.i.i.i.i791, @.str.59
  %add.ptr.i.i.i787 = getelementptr inbounds i8, ptr %call.i.i.i.i.i.i791, i64 26
  %cmp1.i.i.i788 = icmp ule ptr %add.ptr.i.i.i787, @.str.59
  %54 = or i1 %cmp.i24.i.i786, %cmp1.i.i.i788
  call void @llvm.assume(i1 %54)
  call void @llvm.memcpy.p0.p0.i64(ptr noundef nonnull align 1 dereferenceable(26) %call.i.i.i.i.i.i791, ptr noundef nonnull align 1 dereferenceable(26) @.str.59, i64 26, i1 false)
  store i8 0, ptr %add.ptr.i.i.i787, align 1, !tbaa !34
  invoke void @_ZN8TestCaseC1ENSt3__112basic_stringIcNS0_11char_traitsIcEENS0_9allocatorIcEEEEi(ptr noundef nonnull align 8 dereferenceable(72) %arrayinit.element135, ptr noundef nonnull %agg.tmp136, i32 noundef 1)
          to label %invoke.cont139 unwind label %lpad138

invoke.cont139:                                   ; preds = %call.i.i.i.i.i.i.noexc790
  %arrayinit.element140 = getelementptr inbounds %struct.TestCase, ptr %ref.tmp85, i64 9
  %call.i.i.i.i.i.i814 = invoke noalias noundef nonnull dereferenceable(32) ptr @_Znwm(i64 noundef 32) #25
          to label %call.i.i.i.i.i.i.noexc813 unwind label %lpad138

call.i.i.i.i.i.i.noexc813:                        ; preds = %invoke.cont139
  %__data_.i23.i.i804 = getelementptr inbounds %"struct.std::__1::basic_string<char>::__long", ptr %agg.tmp141, i64 0, i32 2
  store ptr %call.i.i.i.i.i.i814, ptr %__data_.i23.i.i804, align 8, !tbaa !34
  store i64 33, ptr %agg.tmp141, align 8
  %__size_.i.i.i806 = getelementptr inbounds %"struct.std::__1::basic_string<char>::__long", ptr %agg.tmp141, i64 0, i32 1
  store i64 27, ptr %__size_.i.i.i806, align 8, !tbaa !34
  %cmp.i24.i.i809 = icmp ugt ptr %call.i.i.i.i.i.i814, @.str.60
  %add.ptr.i.i.i810 = getelementptr inbounds i8, ptr %call.i.i.i.i.i.i814, i64 27
  %cmp1.i.i.i811 = icmp ule ptr %add.ptr.i.i.i810, @.str.60
  %55 = or i1 %cmp.i24.i.i809, %cmp1.i.i.i811
  call void @llvm.assume(i1 %55)
  call void @llvm.memcpy.p0.p0.i64(ptr noundef nonnull align 1 dereferenceable(27) %call.i.i.i.i.i.i814, ptr noundef nonnull align 1 dereferenceable(27) @.str.60, i64 27, i1 false)
  store i8 0, ptr %add.ptr.i.i.i810, align 1, !tbaa !34
  invoke void @_ZN8TestCaseC1ENSt3__112basic_stringIcNS0_11char_traitsIcEENS0_9allocatorIcEEEEi(ptr noundef nonnull align 8 dereferenceable(72) %arrayinit.element140, ptr noundef nonnull %agg.tmp141, i32 noundef 1)
          to label %invoke.cont144 unwind label %lpad143

invoke.cont144:                                   ; preds = %call.i.i.i.i.i.i.noexc813
  %arrayinit.element145 = getelementptr inbounds %struct.TestCase, ptr %ref.tmp85, i64 10
  %call.i.i.i.i.i.i837 = invoke noalias noundef nonnull dereferenceable(32) ptr @_Znwm(i64 noundef 32) #25
          to label %call.i.i.i.i.i.i.noexc836 unwind label %lpad143

call.i.i.i.i.i.i.noexc836:                        ; preds = %invoke.cont144
  %__data_.i23.i.i827 = getelementptr inbounds %"struct.std::__1::basic_string<char>::__long", ptr %agg.tmp146, i64 0, i32 2
  store ptr %call.i.i.i.i.i.i837, ptr %__data_.i23.i.i827, align 8, !tbaa !34
  store i64 33, ptr %agg.tmp146, align 8
  %__size_.i.i.i829 = getelementptr inbounds %"struct.std::__1::basic_string<char>::__long", ptr %agg.tmp146, i64 0, i32 1
  store i64 28, ptr %__size_.i.i.i829, align 8, !tbaa !34
  %cmp.i24.i.i832 = icmp ugt ptr %call.i.i.i.i.i.i837, @.str.61
  %add.ptr.i.i.i833 = getelementptr inbounds i8, ptr %call.i.i.i.i.i.i837, i64 28
  %cmp1.i.i.i834 = icmp ule ptr %add.ptr.i.i.i833, @.str.61
  %56 = or i1 %cmp.i24.i.i832, %cmp1.i.i.i834
  call void @llvm.assume(i1 %56)
  call void @llvm.memcpy.p0.p0.i64(ptr noundef nonnull align 1 dereferenceable(28) %call.i.i.i.i.i.i837, ptr noundef nonnull align 1 dereferenceable(28) @.str.61, i64 28, i1 false)
  store i8 0, ptr %add.ptr.i.i.i833, align 1, !tbaa !34
  invoke void @_ZN8TestCaseC1ENSt3__112basic_stringIcNS0_11char_traitsIcEENS0_9allocatorIcEEEEi(ptr noundef nonnull align 8 dereferenceable(72) %arrayinit.element145, ptr noundef nonnull %agg.tmp146, i32 noundef 1)
          to label %invoke.cont149 unwind label %lpad148

invoke.cont149:                                   ; preds = %call.i.i.i.i.i.i.noexc836
  %arrayinit.element150 = getelementptr inbounds %struct.TestCase, ptr %ref.tmp85, i64 11
  store i8 36, ptr %agg.tmp151, align 8
  %__data_.i.i.i846 = getelementptr inbounds %"struct.std::__1::basic_string<char>::__short", ptr %agg.tmp151, i64 0, i32 2
  %cmp.i24.i.i855 = icmp ugt ptr %__data_.i.i.i846, @.str.62
  %add.ptr.i.i.i856 = getelementptr inbounds %"struct.std::__1::basic_string<char>::__short", ptr %agg.tmp151, i64 0, i32 2, i64 18
  %cmp1.i.i.i857 = icmp ule ptr %add.ptr.i.i.i856, @.str.62
  %57 = or i1 %cmp.i24.i.i855, %cmp1.i.i.i857
  call void @llvm.assume(i1 %57)
  call void @llvm.memcpy.p0.p0.i64(ptr noundef nonnull align 1 dereferenceable(18) %__data_.i.i.i846, ptr noundef nonnull align 1 dereferenceable(18) @.str.62, i64 18, i1 false)
  store i8 0, ptr %add.ptr.i.i.i856, align 1, !tbaa !34
  invoke void @_ZN8TestCaseC1ENSt3__112basic_stringIcNS0_11char_traitsIcEENS0_9allocatorIcEEEEi(ptr noundef nonnull align 8 dereferenceable(72) %arrayinit.element150, ptr noundef nonnull %agg.tmp151, i32 noundef 1)
          to label %invoke.cont154 unwind label %lpad153

invoke.cont154:                                   ; preds = %invoke.cont149
  %arrayinit.element155 = getelementptr inbounds %struct.TestCase, ptr %ref.tmp85, i64 12
  store i8 36, ptr %agg.tmp156, align 8
  %__data_.i.i.i869 = getelementptr inbounds %"struct.std::__1::basic_string<char>::__short", ptr %agg.tmp156, i64 0, i32 2
  %cmp.i24.i.i878 = icmp ugt ptr %__data_.i.i.i869, @.str.63
  %add.ptr.i.i.i879 = getelementptr inbounds %"struct.std::__1::basic_string<char>::__short", ptr %agg.tmp156, i64 0, i32 2, i64 18
  %cmp1.i.i.i880 = icmp ule ptr %add.ptr.i.i.i879, @.str.63
  %58 = or i1 %cmp.i24.i.i878, %cmp1.i.i.i880
  call void @llvm.assume(i1 %58)
  call void @llvm.memcpy.p0.p0.i64(ptr noundef nonnull align 1 dereferenceable(18) %__data_.i.i.i869, ptr noundef nonnull align 1 dereferenceable(18) @.str.63, i64 18, i1 false)
  store i8 0, ptr %add.ptr.i.i.i879, align 1, !tbaa !34
  invoke void @_ZN8TestCaseC1ENSt3__112basic_stringIcNS0_11char_traitsIcEENS0_9allocatorIcEEEEi(ptr noundef nonnull align 8 dereferenceable(72) %arrayinit.element155, ptr noundef nonnull %agg.tmp156, i32 noundef 1)
          to label %invoke.cont159 unwind label %lpad158

invoke.cont159:                                   ; preds = %invoke.cont154
  %arrayinit.element160 = getelementptr inbounds %struct.TestCase, ptr %ref.tmp85, i64 13
  store i8 2, ptr %agg.tmp161, align 8
  %__data_.i.i.i892 = getelementptr inbounds %"struct.std::__1::basic_string<char>::__short", ptr %agg.tmp161, i64 0, i32 2
  %cmp.i24.i.i901 = icmp ugt ptr %__data_.i.i.i892, @.str.64
  %add.ptr.i.i.i902 = getelementptr inbounds %"struct.std::__1::basic_string<char>::__short", ptr %agg.tmp161, i64 0, i32 2, i64 1
  %cmp1.i.i.i903 = icmp ule ptr %add.ptr.i.i.i902, @.str.64
  %59 = or i1 %cmp.i24.i.i901, %cmp1.i.i.i903
  call void @llvm.assume(i1 %59)
  store i8 125, ptr %__data_.i.i.i892, align 1
  store i8 0, ptr %add.ptr.i.i.i902, align 2, !tbaa !34
  invoke void @_ZN8TestCaseC1ENSt3__112basic_stringIcNS0_11char_traitsIcEENS0_9allocatorIcEEEEi(ptr noundef nonnull align 8 dereferenceable(72) %arrayinit.element160, ptr noundef nonnull %agg.tmp161, i32 noundef 1)
          to label %invoke.cont164 unwind label %lpad163

invoke.cont164:                                   ; preds = %invoke.cont159
  %arrayinit.element165 = getelementptr inbounds %struct.TestCase, ptr %ref.tmp85, i64 14
  store i8 42, ptr %agg.tmp166, align 8
  %__data_.i.i.i915 = getelementptr inbounds %"struct.std::__1::basic_string<char>::__short", ptr %agg.tmp166, i64 0, i32 2
  %cmp.i24.i.i924 = icmp ugt ptr %__data_.i.i.i915, @.str.65
  %add.ptr.i.i.i925 = getelementptr inbounds %"struct.std::__1::basic_string<char>::__short", ptr %agg.tmp166, i64 0, i32 2, i64 21
  %cmp1.i.i.i926 = icmp ule ptr %add.ptr.i.i.i925, @.str.65
  %60 = or i1 %cmp.i24.i.i924, %cmp1.i.i.i926
  call void @llvm.assume(i1 %60)
  call void @llvm.memcpy.p0.p0.i64(ptr noundef nonnull align 1 dereferenceable(21) %__data_.i.i.i915, ptr noundef nonnull align 1 dereferenceable(21) @.str.65, i64 21, i1 false)
  store i8 0, ptr %add.ptr.i.i.i925, align 2, !tbaa !34
  invoke void @_ZN8TestCaseC1ENSt3__112basic_stringIcNS0_11char_traitsIcEENS0_9allocatorIcEEEEi(ptr noundef nonnull align 8 dereferenceable(72) %arrayinit.element165, ptr noundef nonnull %agg.tmp166, i32 noundef 0)
          to label %invoke.cont169 unwind label %lpad168

invoke.cont169:                                   ; preds = %invoke.cont164
  %arrayinit.element170 = getelementptr inbounds %struct.TestCase, ptr %ref.tmp85, i64 15
  call void @llvm.lifetime.start.p0(i64 24, ptr nonnull %ref.tmp172) #23
  call void @llvm.lifetime.start.p0(i64 24, ptr nonnull %ref.tmp173) #23
  invoke void @_ZNSt3__19to_stringEi(ptr nonnull sret(%"class.std::__1::basic_string") align 8 %ref.tmp173, i32 noundef %family_index)
          to label %invoke.cont175 unwind label %lpad174

invoke.cont175:                                   ; preds = %invoke.cont169
  %call.i931 = invoke noundef nonnull align 8 dereferenceable(24) ptr @_ZNSt3__112basic_stringIcNS_11char_traitsIcEENS_9allocatorIcEEE6insertEmPKc(ptr noundef nonnull align 8 dereferenceable(24) %ref.tmp173, i64 noundef 0, ptr noundef nonnull @.str.51)
          to label %invoke.cont177 unwind label %lpad176

invoke.cont177:                                   ; preds = %invoke.cont175
  call void @llvm.memcpy.p0.p0.i64(ptr noundef nonnull align 8 dereferenceable(24) %ref.tmp172, ptr noundef nonnull align 8 dereferenceable(24) %call.i931, i64 24, i1 false)
  call void @llvm.memset.p0.i64(ptr noundef nonnull align 8 dereferenceable(24) %call.i931, i8 0, i64 24, i1 false), !noalias !45
  %call.i933 = invoke noundef nonnull align 8 dereferenceable(24) ptr @_ZNSt3__112basic_stringIcNS_11char_traitsIcEENS_9allocatorIcEEE6appendEPKc(ptr noundef nonnull align 8 dereferenceable(24) %ref.tmp172, ptr noundef nonnull @.str.52)
          to label %invoke.cont179 unwind label %lpad178

invoke.cont179:                                   ; preds = %invoke.cont177
  call void @llvm.memcpy.p0.p0.i64(ptr noundef nonnull align 8 dereferenceable(24) %agg.tmp171, ptr noundef nonnull align 8 dereferenceable(24) %call.i933, i64 24, i1 false)
  call void @llvm.memset.p0.i64(ptr noundef nonnull align 8 dereferenceable(24) %call.i933, i8 0, i64 24, i1 false), !noalias !48
  invoke void @_ZN8TestCaseC1ENSt3__112basic_stringIcNS0_11char_traitsIcEENS0_9allocatorIcEEEEi(ptr noundef nonnull align 8 dereferenceable(72) %arrayinit.element170, ptr noundef nonnull %agg.tmp171, i32 noundef 1)
          to label %invoke.cont181 unwind label %lpad180

invoke.cont181:                                   ; preds = %invoke.cont179
  %arrayinit.element182 = getelementptr inbounds %struct.TestCase, ptr %ref.tmp85, i64 16
  %call.i.i.i.i.i.i956 = invoke noalias noundef nonnull dereferenceable(48) ptr @_Znwm(i64 noundef 48) #25
          to label %call.i.i.i.i.i.i.noexc955 unwind label %lpad180

call.i.i.i.i.i.i.noexc955:                        ; preds = %invoke.cont181
  %__data_.i23.i.i946 = getelementptr inbounds %"struct.std::__1::basic_string<char>::__long", ptr %agg.tmp183, i64 0, i32 2
  store ptr %call.i.i.i.i.i.i956, ptr %__data_.i23.i.i946, align 8, !tbaa !34
  store i64 49, ptr %agg.tmp183, align 8
  %__size_.i.i.i948 = getelementptr inbounds %"struct.std::__1::basic_string<char>::__long", ptr %agg.tmp183, i64 0, i32 1
  store i64 32, ptr %__size_.i.i.i948, align 8, !tbaa !34
  %cmp.i24.i.i951 = icmp ugt ptr %call.i.i.i.i.i.i956, @.str.53
  %add.ptr.i.i.i952 = getelementptr inbounds i8, ptr %call.i.i.i.i.i.i956, i64 32
  %cmp1.i.i.i953 = icmp ule ptr %add.ptr.i.i.i952, @.str.53
  %61 = or i1 %cmp.i24.i.i951, %cmp1.i.i.i953
  call void @llvm.assume(i1 %61)
  call void @llvm.memcpy.p0.p0.i64(ptr noundef nonnull align 1 dereferenceable(32) %call.i.i.i.i.i.i956, ptr noundef nonnull align 1 dereferenceable(32) @.str.53, i64 32, i1 false)
  store i8 0, ptr %add.ptr.i.i.i952, align 1, !tbaa !34
  invoke void @_ZN8TestCaseC1ENSt3__112basic_stringIcNS0_11char_traitsIcEENS0_9allocatorIcEEEEi(ptr noundef nonnull align 8 dereferenceable(72) %arrayinit.element182, ptr noundef nonnull %agg.tmp183, i32 noundef 1)
          to label %invoke.cont186 unwind label %lpad185

invoke.cont186:                                   ; preds = %call.i.i.i.i.i.i.noexc955
  %arrayinit.element187 = getelementptr inbounds %struct.TestCase, ptr %ref.tmp85, i64 17
  store i8 42, ptr %agg.tmp188, align 8
  %__data_.i.i.i965 = getelementptr inbounds %"struct.std::__1::basic_string<char>::__short", ptr %agg.tmp188, i64 0, i32 2
  %cmp.i24.i.i974 = icmp ugt ptr %__data_.i.i.i965, @.str.54
  %add.ptr.i.i.i975 = getelementptr inbounds %"struct.std::__1::basic_string<char>::__short", ptr %agg.tmp188, i64 0, i32 2, i64 21
  %cmp1.i.i.i976 = icmp ule ptr %add.ptr.i.i.i975, @.str.54
  %62 = or i1 %cmp.i24.i.i974, %cmp1.i.i.i976
  call void @llvm.assume(i1 %62)
  call void @llvm.memcpy.p0.p0.i64(ptr noundef nonnull align 1 dereferenceable(21) %__data_.i.i.i965, ptr noundef nonnull align 1 dereferenceable(21) @.str.54, i64 21, i1 false)
  store i8 0, ptr %add.ptr.i.i.i975, align 2, !tbaa !34
  invoke void @_ZN8TestCaseC1ENSt3__112basic_stringIcNS0_11char_traitsIcEENS0_9allocatorIcEEEEi(ptr noundef nonnull align 8 dereferenceable(72) %arrayinit.element187, ptr noundef nonnull %agg.tmp188, i32 noundef 1)
          to label %invoke.cont191 unwind label %lpad190

invoke.cont191:                                   ; preds = %invoke.cont186
  %arrayinit.element192 = getelementptr inbounds %struct.TestCase, ptr %ref.tmp85, i64 18
  %call.i.i.i.i.i.i1002 = invoke noalias noundef nonnull dereferenceable(32) ptr @_Znwm(i64 noundef 32) #25
          to label %call.i.i.i.i.i.i.noexc1001 unwind label %lpad190

call.i.i.i.i.i.i.noexc1001:                       ; preds = %invoke.cont191
  %__data_.i23.i.i992 = getelementptr inbounds %"struct.std::__1::basic_string<char>::__long", ptr %agg.tmp193, i64 0, i32 2
  store ptr %call.i.i.i.i.i.i1002, ptr %__data_.i23.i.i992, align 8, !tbaa !34
  store i64 33, ptr %agg.tmp193, align 8
  %__size_.i.i.i994 = getelementptr inbounds %"struct.std::__1::basic_string<char>::__long", ptr %agg.tmp193, i64 0, i32 1
  store i64 25, ptr %__size_.i.i.i994, align 8, !tbaa !34
  %cmp.i24.i.i997 = icmp ugt ptr %call.i.i.i.i.i.i1002, @.str.55
  %add.ptr.i.i.i998 = getelementptr inbounds i8, ptr %call.i.i.i.i.i.i1002, i64 25
  %cmp1.i.i.i999 = icmp ule ptr %add.ptr.i.i.i998, @.str.55
  %63 = or i1 %cmp.i24.i.i997, %cmp1.i.i.i999
  call void @llvm.assume(i1 %63)
  call void @llvm.memcpy.p0.p0.i64(ptr noundef nonnull align 1 dereferenceable(25) %call.i.i.i.i.i.i1002, ptr noundef nonnull align 1 dereferenceable(25) @.str.55, i64 25, i1 false)
  store i8 0, ptr %add.ptr.i.i.i998, align 1, !tbaa !34
  invoke void @_ZN8TestCaseC1ENSt3__112basic_stringIcNS0_11char_traitsIcEENS0_9allocatorIcEEEEi(ptr noundef nonnull align 8 dereferenceable(72) %arrayinit.element192, ptr noundef nonnull %agg.tmp193, i32 noundef 1)
          to label %invoke.cont196 unwind label %lpad195

invoke.cont196:                                   ; preds = %call.i.i.i.i.i.i.noexc1001
  %arrayinit.element197 = getelementptr inbounds %struct.TestCase, ptr %ref.tmp85, i64 19
  store i8 42, ptr %agg.tmp198, align 8
  %__data_.i.i.i1011 = getelementptr inbounds %"struct.std::__1::basic_string<char>::__short", ptr %agg.tmp198, i64 0, i32 2
  %cmp.i24.i.i1020 = icmp ugt ptr %__data_.i.i.i1011, @.str.56
  %add.ptr.i.i.i1021 = getelementptr inbounds %"struct.std::__1::basic_string<char>::__short", ptr %agg.tmp198, i64 0, i32 2, i64 21
  %cmp1.i.i.i1022 = icmp ule ptr %add.ptr.i.i.i1021, @.str.56
  %64 = or i1 %cmp.i24.i.i1020, %cmp1.i.i.i1022
  call void @llvm.assume(i1 %64)
  call void @llvm.memcpy.p0.p0.i64(ptr noundef nonnull align 1 dereferenceable(21) %__data_.i.i.i1011, ptr noundef nonnull align 1 dereferenceable(21) @.str.56, i64 21, i1 false)
  store i8 0, ptr %add.ptr.i.i.i1021, align 2, !tbaa !34
  invoke void @_ZN8TestCaseC1ENSt3__112basic_stringIcNS0_11char_traitsIcEENS0_9allocatorIcEEEEi(ptr noundef nonnull align 8 dereferenceable(72) %arrayinit.element197, ptr noundef nonnull %agg.tmp198, i32 noundef 1)
          to label %invoke.cont201 unwind label %lpad200

invoke.cont201:                                   ; preds = %invoke.cont196
  %arrayinit.element202 = getelementptr inbounds %struct.TestCase, ptr %ref.tmp85, i64 20
  store i8 28, ptr %agg.tmp203, align 8
  %__data_.i.i.i1034 = getelementptr inbounds %"struct.std::__1::basic_string<char>::__short", ptr %agg.tmp203, i64 0, i32 2
  %cmp.i24.i.i1043 = icmp ugt ptr %__data_.i.i.i1034, @.str.57
  %add.ptr.i.i.i1044 = getelementptr inbounds %"struct.std::__1::basic_string<char>::__short", ptr %agg.tmp203, i64 0, i32 2, i64 14
  %cmp1.i.i.i1045 = icmp ule ptr %add.ptr.i.i.i1044, @.str.57
  %65 = or i1 %cmp.i24.i.i1043, %cmp1.i.i.i1045
  call void @llvm.assume(i1 %65)
  call void @llvm.memcpy.p0.p0.i64(ptr noundef nonnull align 1 dereferenceable(14) %__data_.i.i.i1034, ptr noundef nonnull align 1 dereferenceable(14) @.str.57, i64 14, i1 false)
  store i8 0, ptr %add.ptr.i.i.i1044, align 1, !tbaa !34
  invoke void @_ZN8TestCaseC1ENSt3__112basic_stringIcNS0_11char_traitsIcEENS0_9allocatorIcEEEEi(ptr noundef nonnull align 8 dereferenceable(72) %arrayinit.element202, ptr noundef nonnull %agg.tmp203, i32 noundef 1)
          to label %invoke.cont206 unwind label %lpad205

invoke.cont206:                                   ; preds = %invoke.cont201
  %arrayinit.element207 = getelementptr inbounds %struct.TestCase, ptr %ref.tmp85, i64 21
  %call.i.i.i.i.i.i1071 = invoke noalias noundef nonnull dereferenceable(32) ptr @_Znwm(i64 noundef 32) #25
          to label %call.i.i.i.i.i.i.noexc1070 unwind label %lpad205

call.i.i.i.i.i.i.noexc1070:                       ; preds = %invoke.cont206
  %__data_.i23.i.i1061 = getelementptr inbounds %"struct.std::__1::basic_string<char>::__long", ptr %agg.tmp208, i64 0, i32 2
  store ptr %call.i.i.i.i.i.i1071, ptr %__data_.i23.i.i1061, align 8, !tbaa !34
  store i64 33, ptr %agg.tmp208, align 8
  %__size_.i.i.i1063 = getelementptr inbounds %"struct.std::__1::basic_string<char>::__long", ptr %agg.tmp208, i64 0, i32 1
  store i64 25, ptr %__size_.i.i.i1063, align 8, !tbaa !34
  %cmp.i24.i.i1066 = icmp ugt ptr %call.i.i.i.i.i.i1071, @.str.66
  %add.ptr.i.i.i1067 = getelementptr inbounds i8, ptr %call.i.i.i.i.i.i1071, i64 25
  %cmp1.i.i.i1068 = icmp ule ptr %add.ptr.i.i.i1067, @.str.66
  %66 = or i1 %cmp.i24.i.i1066, %cmp1.i.i.i1068
  call void @llvm.assume(i1 %66)
  call void @llvm.memcpy.p0.p0.i64(ptr noundef nonnull align 1 dereferenceable(25) %call.i.i.i.i.i.i1071, ptr noundef nonnull align 1 dereferenceable(25) @.str.66, i64 25, i1 false)
  store i8 0, ptr %add.ptr.i.i.i1067, align 1, !tbaa !34
  invoke void @_ZN8TestCaseC1ENSt3__112basic_stringIcNS0_11char_traitsIcEENS0_9allocatorIcEEEEi(ptr noundef nonnull align 8 dereferenceable(72) %arrayinit.element207, ptr noundef nonnull %agg.tmp208, i32 noundef 1)
          to label %invoke.cont211 unwind label %lpad210

invoke.cont211:                                   ; preds = %call.i.i.i.i.i.i.noexc1070
  %arrayinit.element212 = getelementptr inbounds %struct.TestCase, ptr %ref.tmp85, i64 22
  %call.i.i.i.i.i.i1094 = invoke noalias noundef nonnull dereferenceable(48) ptr @_Znwm(i64 noundef 48) #25
          to label %call.i.i.i.i.i.i.noexc1093 unwind label %lpad210

call.i.i.i.i.i.i.noexc1093:                       ; preds = %invoke.cont211
  %__data_.i23.i.i1084 = getelementptr inbounds %"struct.std::__1::basic_string<char>::__long", ptr %agg.tmp213, i64 0, i32 2
  store ptr %call.i.i.i.i.i.i1094, ptr %__data_.i23.i.i1084, align 8, !tbaa !34
  store i64 49, ptr %agg.tmp213, align 8
  %__size_.i.i.i1086 = getelementptr inbounds %"struct.std::__1::basic_string<char>::__long", ptr %agg.tmp213, i64 0, i32 1
  store i64 32, ptr %__size_.i.i.i1086, align 8, !tbaa !34
  %cmp.i24.i.i1089 = icmp ugt ptr %call.i.i.i.i.i.i1094, @.str.67
  %add.ptr.i.i.i1090 = getelementptr inbounds i8, ptr %call.i.i.i.i.i.i1094, i64 32
  %cmp1.i.i.i1091 = icmp ule ptr %add.ptr.i.i.i1090, @.str.67
  %67 = or i1 %cmp.i24.i.i1089, %cmp1.i.i.i1091
  call void @llvm.assume(i1 %67)
  call void @llvm.memcpy.p0.p0.i64(ptr noundef nonnull align 1 dereferenceable(32) %call.i.i.i.i.i.i1094, ptr noundef nonnull align 1 dereferenceable(32) @.str.67, i64 32, i1 false)
  store i8 0, ptr %add.ptr.i.i.i1090, align 1, !tbaa !34
  invoke void @_ZN8TestCaseC1ENSt3__112basic_stringIcNS0_11char_traitsIcEENS0_9allocatorIcEEEEi(ptr noundef nonnull align 8 dereferenceable(72) %arrayinit.element212, ptr noundef nonnull %agg.tmp213, i32 noundef 1)
          to label %invoke.cont216 unwind label %lpad215

invoke.cont216:                                   ; preds = %call.i.i.i.i.i.i.noexc1093
  %arrayinit.element217 = getelementptr inbounds %struct.TestCase, ptr %ref.tmp85, i64 23
  store i8 28, ptr %agg.tmp218, align 8
  %__data_.i.i.i1103 = getelementptr inbounds %"struct.std::__1::basic_string<char>::__short", ptr %agg.tmp218, i64 0, i32 2
  %cmp.i24.i.i1112 = icmp ugt ptr %__data_.i.i.i1103, @.str.68
  %add.ptr.i.i.i1113 = getelementptr inbounds %"struct.std::__1::basic_string<char>::__short", ptr %agg.tmp218, i64 0, i32 2, i64 14
  %cmp1.i.i.i1114 = icmp ule ptr %add.ptr.i.i.i1113, @.str.68
  %68 = or i1 %cmp.i24.i.i1112, %cmp1.i.i.i1114
  call void @llvm.assume(i1 %68)
  call void @llvm.memcpy.p0.p0.i64(ptr noundef nonnull align 1 dereferenceable(14) %__data_.i.i.i1103, ptr noundef nonnull align 1 dereferenceable(14) @.str.68, i64 14, i1 false)
  store i8 0, ptr %add.ptr.i.i.i1113, align 1, !tbaa !34
  invoke void @_ZN8TestCaseC1ENSt3__112basic_stringIcNS0_11char_traitsIcEENS0_9allocatorIcEEEEi(ptr noundef nonnull align 8 dereferenceable(72) %arrayinit.element217, ptr noundef nonnull %agg.tmp218, i32 noundef 1)
          to label %invoke.cont221 unwind label %lpad220

invoke.cont221:                                   ; preds = %invoke.cont216
  %arrayinit.element222 = getelementptr inbounds %struct.TestCase, ptr %ref.tmp85, i64 24
  store i8 2, ptr %agg.tmp223, align 8
  %__data_.i.i.i1126 = getelementptr inbounds %"struct.std::__1::basic_string<char>::__short", ptr %agg.tmp223, i64 0, i32 2
  %cmp.i24.i.i1135 = icmp ugt ptr %__data_.i.i.i1126, @.str.64
  %add.ptr.i.i.i1136 = getelementptr inbounds %"struct.std::__1::basic_string<char>::__short", ptr %agg.tmp223, i64 0, i32 2, i64 1
  %cmp1.i.i.i1137 = icmp ule ptr %add.ptr.i.i.i1136, @.str.64
  %69 = or i1 %cmp.i24.i.i1135, %cmp1.i.i.i1137
  call void @llvm.assume(i1 %69)
  store i8 125, ptr %__data_.i.i.i1126, align 1
  store i8 0, ptr %add.ptr.i.i.i1136, align 2, !tbaa !34
  invoke void @_ZN8TestCaseC1ENSt3__112basic_stringIcNS0_11char_traitsIcEENS0_9allocatorIcEEEEi(ptr noundef nonnull align 8 dereferenceable(72) %arrayinit.element222, ptr noundef nonnull %agg.tmp223, i32 noundef 1)
          to label %invoke.cont226 unwind label %lpad225

invoke.cont226:                                   ; preds = %invoke.cont221
  %call233 = invoke noundef i32 @_Z8AddCases10TestCaseIDSt16initializer_listI8TestCaseE(i32 noundef 2, ptr nonnull %ref.tmp85, i64 25)
          to label %invoke.cont232 unwind label %lpad231

invoke.cont232:                                   ; preds = %invoke.cont226
  %70 = getelementptr inbounds %struct.TestCase, ptr %ref.tmp85, i64 25
  br label %arraydestroy.body235

arraydestroy.body235:                             ; preds = %_ZN8TestCaseD2Ev.exit1163, %invoke.cont232
  %arraydestroy.elementPast236 = phi ptr [ %70, %invoke.cont232 ], [ %arraydestroy.element237, %_ZN8TestCaseD2Ev.exit1163 ]
  %arraydestroy.element237 = getelementptr inbounds %struct.TestCase, ptr %arraydestroy.elementPast236, i64 -1
  %__cntrl_.i.i1142 = getelementptr %struct.TestCase, ptr %arraydestroy.elementPast236, i64 -1, i32 3, i32 1
  %71 = load ptr, ptr %__cntrl_.i.i1142, align 8, !tbaa !35
  %tobool.not.i.i1143 = icmp eq ptr %71, null
  br i1 %tobool.not.i.i1143, label %_ZNSt3__110shared_ptrIN9benchmark5RegexEED2B7v170000Ev.exit.i1154, label %if.then.i.i1146

if.then.i.i1146:                                  ; preds = %arraydestroy.body235
  %__shared_owners_.i.i.i.i1144 = getelementptr inbounds %"class.std::__1::__shared_count", ptr %71, i64 0, i32 1
  %72 = atomicrmw add ptr %__shared_owners_.i.i.i.i1144, i64 -1 acq_rel, align 8
  %cmp.i.i.i.i1145 = icmp eq i64 %72, 0
  br i1 %cmp.i.i.i.i1145, label %if.then.i.i.i1149, label %_ZNSt3__110shared_ptrIN9benchmark5RegexEED2B7v170000Ev.exit.i1154

if.then.i.i.i1149:                                ; preds = %if.then.i.i1146
  %vtable.i.i.i.i1147 = load ptr, ptr %71, align 8, !tbaa !37
  %vfn.i.i.i.i1148 = getelementptr inbounds ptr, ptr %vtable.i.i.i.i1147, i64 2
  %73 = load ptr, ptr %vfn.i.i.i.i1148, align 8
  call void %73(ptr noundef nonnull align 8 dereferenceable(16) %71) #23
  call void @_ZNSt3__119__shared_weak_count14__release_weakEv(ptr noundef nonnull align 8 dereferenceable(24) %71) #23
  br label %_ZNSt3__110shared_ptrIN9benchmark5RegexEED2B7v170000Ev.exit.i1154

_ZNSt3__110shared_ptrIN9benchmark5RegexEED2B7v170000Ev.exit.i1154: ; preds = %if.then.i.i.i1149, %if.then.i.i1146, %arraydestroy.body235
  %substituted_regex.i1150 = getelementptr %struct.TestCase, ptr %arraydestroy.elementPast236, i64 -1, i32 2
  %bf.load.i.i.i1151 = load i8, ptr %substituted_regex.i1150, align 8
  %bf.clear.i.i.i1152 = and i8 %bf.load.i.i.i1151, 1
  %tobool.i.not.i.i1153 = icmp eq i8 %bf.clear.i.i.i1152, 0
  br i1 %tobool.i.not.i.i1153, label %_ZNSt3__112basic_stringIcNS_11char_traitsIcEENS_9allocatorIcEEED2Ev.exit.i1160, label %if.then.i2.i1156

if.then.i2.i1156:                                 ; preds = %_ZNSt3__110shared_ptrIN9benchmark5RegexEED2B7v170000Ev.exit.i1154
  %__data_.i.i.i1155 = getelementptr %struct.TestCase, ptr %arraydestroy.elementPast236, i64 -1, i32 2, i32 0, i32 0, i32 0, i32 0, i32 0, i32 2
  %74 = load ptr, ptr %__data_.i.i.i1155, align 8, !tbaa !34
  call void @_ZdlPv(ptr noundef %74) #24
  br label %_ZNSt3__112basic_stringIcNS_11char_traitsIcEENS_9allocatorIcEEED2Ev.exit.i1160

_ZNSt3__112basic_stringIcNS_11char_traitsIcEENS_9allocatorIcEEED2Ev.exit.i1160: ; preds = %if.then.i2.i1156, %_ZNSt3__110shared_ptrIN9benchmark5RegexEED2B7v170000Ev.exit.i1154
  %bf.load.i.i3.i1157 = load i8, ptr %arraydestroy.element237, align 8
  %bf.clear.i.i4.i1158 = and i8 %bf.load.i.i3.i1157, 1
  %tobool.i.not.i5.i1159 = icmp eq i8 %bf.clear.i.i4.i1158, 0
  br i1 %tobool.i.not.i5.i1159, label %_ZN8TestCaseD2Ev.exit1163, label %if.then.i7.i1162

if.then.i7.i1162:                                 ; preds = %_ZNSt3__112basic_stringIcNS_11char_traitsIcEENS_9allocatorIcEEED2Ev.exit.i1160
  %__data_.i.i6.i1161 = getelementptr %struct.TestCase, ptr %arraydestroy.elementPast236, i64 -1, i32 0, i32 0, i32 0, i32 0, i32 0, i32 0, i32 2
  %75 = load ptr, ptr %__data_.i.i6.i1161, align 8, !tbaa !34
  call void @_ZdlPv(ptr noundef %75) #24
  br label %_ZN8TestCaseD2Ev.exit1163

_ZN8TestCaseD2Ev.exit1163:                        ; preds = %_ZNSt3__112basic_stringIcNS_11char_traitsIcEENS_9allocatorIcEEED2Ev.exit.i1160, %if.then.i7.i1162
  %arraydestroy.done238 = icmp eq ptr %arraydestroy.element237, %ref.tmp85
  br i1 %arraydestroy.done238, label %arraydestroy.done239, label %arraydestroy.body235

arraydestroy.done239:                             ; preds = %_ZN8TestCaseD2Ev.exit1163
  %bf.load.i.i1164 = load i8, ptr %agg.tmp223, align 8
  %bf.clear.i.i1165 = and i8 %bf.load.i.i1164, 1
  %tobool.i.not.i1166 = icmp eq i8 %bf.clear.i.i1165, 0
  br i1 %tobool.i.not.i1166, label %_ZNSt3__112basic_stringIcNS_11char_traitsIcEENS_9allocatorIcEEED2Ev.exit1169, label %if.then.i1168

if.then.i1168:                                    ; preds = %arraydestroy.done239
  %__data_.i.i1167 = getelementptr inbounds %"struct.std::__1::basic_string<char>::__long", ptr %agg.tmp223, i64 0, i32 2
  %76 = load ptr, ptr %__data_.i.i1167, align 8, !tbaa !34
  call void @_ZdlPv(ptr noundef %76) #24
  br label %_ZNSt3__112basic_stringIcNS_11char_traitsIcEENS_9allocatorIcEEED2Ev.exit1169

_ZNSt3__112basic_stringIcNS_11char_traitsIcEENS_9allocatorIcEEED2Ev.exit1169: ; preds = %arraydestroy.done239, %if.then.i1168
  %bf.load.i.i1170 = load i8, ptr %agg.tmp218, align 8
  %bf.clear.i.i1171 = and i8 %bf.load.i.i1170, 1
  %tobool.i.not.i1172 = icmp eq i8 %bf.clear.i.i1171, 0
  br i1 %tobool.i.not.i1172, label %_ZNSt3__112basic_stringIcNS_11char_traitsIcEENS_9allocatorIcEEED2Ev.exit1175, label %if.then.i1174

if.then.i1174:                                    ; preds = %_ZNSt3__112basic_stringIcNS_11char_traitsIcEENS_9allocatorIcEEED2Ev.exit1169
  %__data_.i.i1173 = getelementptr inbounds %"struct.std::__1::basic_string<char>::__long", ptr %agg.tmp218, i64 0, i32 2
  %77 = load ptr, ptr %__data_.i.i1173, align 8, !tbaa !34
  call void @_ZdlPv(ptr noundef %77) #24
  br label %_ZNSt3__112basic_stringIcNS_11char_traitsIcEENS_9allocatorIcEEED2Ev.exit1175

_ZNSt3__112basic_stringIcNS_11char_traitsIcEENS_9allocatorIcEEED2Ev.exit1175: ; preds = %_ZNSt3__112basic_stringIcNS_11char_traitsIcEENS_9allocatorIcEEED2Ev.exit1169, %if.then.i1174
  %bf.load.i.i1176 = load i8, ptr %agg.tmp213, align 8
  %bf.clear.i.i1177 = and i8 %bf.load.i.i1176, 1
  %tobool.i.not.i1178 = icmp eq i8 %bf.clear.i.i1177, 0
  br i1 %tobool.i.not.i1178, label %_ZNSt3__112basic_stringIcNS_11char_traitsIcEENS_9allocatorIcEEED2Ev.exit1181, label %if.then.i1180

if.then.i1180:                                    ; preds = %_ZNSt3__112basic_stringIcNS_11char_traitsIcEENS_9allocatorIcEEED2Ev.exit1175
  %78 = load ptr, ptr %__data_.i23.i.i1084, align 8, !tbaa !34
  call void @_ZdlPv(ptr noundef %78) #24
  br label %_ZNSt3__112basic_stringIcNS_11char_traitsIcEENS_9allocatorIcEEED2Ev.exit1181

_ZNSt3__112basic_stringIcNS_11char_traitsIcEENS_9allocatorIcEEED2Ev.exit1181: ; preds = %_ZNSt3__112basic_stringIcNS_11char_traitsIcEENS_9allocatorIcEEED2Ev.exit1175, %if.then.i1180
  %bf.load.i.i1182 = load i8, ptr %agg.tmp208, align 8
  %bf.clear.i.i1183 = and i8 %bf.load.i.i1182, 1
  %tobool.i.not.i1184 = icmp eq i8 %bf.clear.i.i1183, 0
  br i1 %tobool.i.not.i1184, label %_ZNSt3__112basic_stringIcNS_11char_traitsIcEENS_9allocatorIcEEED2Ev.exit1187, label %if.then.i1186

if.then.i1186:                                    ; preds = %_ZNSt3__112basic_stringIcNS_11char_traitsIcEENS_9allocatorIcEEED2Ev.exit1181
  %79 = load ptr, ptr %__data_.i23.i.i1061, align 8, !tbaa !34
  call void @_ZdlPv(ptr noundef %79) #24
  br label %_ZNSt3__112basic_stringIcNS_11char_traitsIcEENS_9allocatorIcEEED2Ev.exit1187

_ZNSt3__112basic_stringIcNS_11char_traitsIcEENS_9allocatorIcEEED2Ev.exit1187: ; preds = %_ZNSt3__112basic_stringIcNS_11char_traitsIcEENS_9allocatorIcEEED2Ev.exit1181, %if.then.i1186
  %bf.load.i.i1188 = load i8, ptr %agg.tmp203, align 8
  %bf.clear.i.i1189 = and i8 %bf.load.i.i1188, 1
  %tobool.i.not.i1190 = icmp eq i8 %bf.clear.i.i1189, 0
  br i1 %tobool.i.not.i1190, label %_ZNSt3__112basic_stringIcNS_11char_traitsIcEENS_9allocatorIcEEED2Ev.exit1193, label %if.then.i1192

if.then.i1192:                                    ; preds = %_ZNSt3__112basic_stringIcNS_11char_traitsIcEENS_9allocatorIcEEED2Ev.exit1187
  %__data_.i.i1191 = getelementptr inbounds %"struct.std::__1::basic_string<char>::__long", ptr %agg.tmp203, i64 0, i32 2
  %80 = load ptr, ptr %__data_.i.i1191, align 8, !tbaa !34
  call void @_ZdlPv(ptr noundef %80) #24
  br label %_ZNSt3__112basic_stringIcNS_11char_traitsIcEENS_9allocatorIcEEED2Ev.exit1193

_ZNSt3__112basic_stringIcNS_11char_traitsIcEENS_9allocatorIcEEED2Ev.exit1193: ; preds = %_ZNSt3__112basic_stringIcNS_11char_traitsIcEENS_9allocatorIcEEED2Ev.exit1187, %if.then.i1192
  %bf.load.i.i1194 = load i8, ptr %agg.tmp198, align 8
  %bf.clear.i.i1195 = and i8 %bf.load.i.i1194, 1
  %tobool.i.not.i1196 = icmp eq i8 %bf.clear.i.i1195, 0
  br i1 %tobool.i.not.i1196, label %_ZNSt3__112basic_stringIcNS_11char_traitsIcEENS_9allocatorIcEEED2Ev.exit1199, label %if.then.i1198

if.then.i1198:                                    ; preds = %_ZNSt3__112basic_stringIcNS_11char_traitsIcEENS_9allocatorIcEEED2Ev.exit1193
  %__data_.i.i1197 = getelementptr inbounds %"struct.std::__1::basic_string<char>::__long", ptr %agg.tmp198, i64 0, i32 2
  %81 = load ptr, ptr %__data_.i.i1197, align 8, !tbaa !34
  call void @_ZdlPv(ptr noundef %81) #24
  br label %_ZNSt3__112basic_stringIcNS_11char_traitsIcEENS_9allocatorIcEEED2Ev.exit1199

_ZNSt3__112basic_stringIcNS_11char_traitsIcEENS_9allocatorIcEEED2Ev.exit1199: ; preds = %_ZNSt3__112basic_stringIcNS_11char_traitsIcEENS_9allocatorIcEEED2Ev.exit1193, %if.then.i1198
  %bf.load.i.i1200 = load i8, ptr %agg.tmp193, align 8
  %bf.clear.i.i1201 = and i8 %bf.load.i.i1200, 1
  %tobool.i.not.i1202 = icmp eq i8 %bf.clear.i.i1201, 0
  br i1 %tobool.i.not.i1202, label %_ZNSt3__112basic_stringIcNS_11char_traitsIcEENS_9allocatorIcEEED2Ev.exit1205, label %if.then.i1204

if.then.i1204:                                    ; preds = %_ZNSt3__112basic_stringIcNS_11char_traitsIcEENS_9allocatorIcEEED2Ev.exit1199
  %82 = load ptr, ptr %__data_.i23.i.i992, align 8, !tbaa !34
  call void @_ZdlPv(ptr noundef %82) #24
  br label %_ZNSt3__112basic_stringIcNS_11char_traitsIcEENS_9allocatorIcEEED2Ev.exit1205

_ZNSt3__112basic_stringIcNS_11char_traitsIcEENS_9allocatorIcEEED2Ev.exit1205: ; preds = %_ZNSt3__112basic_stringIcNS_11char_traitsIcEENS_9allocatorIcEEED2Ev.exit1199, %if.then.i1204
  %bf.load.i.i1206 = load i8, ptr %agg.tmp188, align 8
  %bf.clear.i.i1207 = and i8 %bf.load.i.i1206, 1
  %tobool.i.not.i1208 = icmp eq i8 %bf.clear.i.i1207, 0
  br i1 %tobool.i.not.i1208, label %_ZNSt3__112basic_stringIcNS_11char_traitsIcEENS_9allocatorIcEEED2Ev.exit1211, label %if.then.i1210

if.then.i1210:                                    ; preds = %_ZNSt3__112basic_stringIcNS_11char_traitsIcEENS_9allocatorIcEEED2Ev.exit1205
  %__data_.i.i1209 = getelementptr inbounds %"struct.std::__1::basic_string<char>::__long", ptr %agg.tmp188, i64 0, i32 2
  %83 = load ptr, ptr %__data_.i.i1209, align 8, !tbaa !34
  call void @_ZdlPv(ptr noundef %83) #24
  br label %_ZNSt3__112basic_stringIcNS_11char_traitsIcEENS_9allocatorIcEEED2Ev.exit1211

_ZNSt3__112basic_stringIcNS_11char_traitsIcEENS_9allocatorIcEEED2Ev.exit1211: ; preds = %_ZNSt3__112basic_stringIcNS_11char_traitsIcEENS_9allocatorIcEEED2Ev.exit1205, %if.then.i1210
  %bf.load.i.i1212 = load i8, ptr %agg.tmp183, align 8
  %bf.clear.i.i1213 = and i8 %bf.load.i.i1212, 1
  %tobool.i.not.i1214 = icmp eq i8 %bf.clear.i.i1213, 0
  br i1 %tobool.i.not.i1214, label %_ZNSt3__112basic_stringIcNS_11char_traitsIcEENS_9allocatorIcEEED2Ev.exit1217, label %if.then.i1216

if.then.i1216:                                    ; preds = %_ZNSt3__112basic_stringIcNS_11char_traitsIcEENS_9allocatorIcEEED2Ev.exit1211
  %84 = load ptr, ptr %__data_.i23.i.i946, align 8, !tbaa !34
  call void @_ZdlPv(ptr noundef %84) #24
  br label %_ZNSt3__112basic_stringIcNS_11char_traitsIcEENS_9allocatorIcEEED2Ev.exit1217

_ZNSt3__112basic_stringIcNS_11char_traitsIcEENS_9allocatorIcEEED2Ev.exit1217: ; preds = %_ZNSt3__112basic_stringIcNS_11char_traitsIcEENS_9allocatorIcEEED2Ev.exit1211, %if.then.i1216
  %bf.load.i.i1218 = load i8, ptr %agg.tmp171, align 8
  %bf.clear.i.i1219 = and i8 %bf.load.i.i1218, 1
  %tobool.i.not.i1220 = icmp eq i8 %bf.clear.i.i1219, 0
  br i1 %tobool.i.not.i1220, label %_ZNSt3__112basic_stringIcNS_11char_traitsIcEENS_9allocatorIcEEED2Ev.exit1223, label %if.then.i1222

if.then.i1222:                                    ; preds = %_ZNSt3__112basic_stringIcNS_11char_traitsIcEENS_9allocatorIcEEED2Ev.exit1217
  %__data_.i.i1221 = getelementptr inbounds %"struct.std::__1::basic_string<char>::__long", ptr %agg.tmp171, i64 0, i32 2
  %85 = load ptr, ptr %__data_.i.i1221, align 8, !tbaa !34
  call void @_ZdlPv(ptr noundef %85) #24
  br label %_ZNSt3__112basic_stringIcNS_11char_traitsIcEENS_9allocatorIcEEED2Ev.exit1223

_ZNSt3__112basic_stringIcNS_11char_traitsIcEENS_9allocatorIcEEED2Ev.exit1223: ; preds = %_ZNSt3__112basic_stringIcNS_11char_traitsIcEENS_9allocatorIcEEED2Ev.exit1217, %if.then.i1222
  %bf.load.i.i1224 = load i8, ptr %ref.tmp172, align 8
  %bf.clear.i.i1225 = and i8 %bf.load.i.i1224, 1
  %tobool.i.not.i1226 = icmp eq i8 %bf.clear.i.i1225, 0
  br i1 %tobool.i.not.i1226, label %_ZNSt3__112basic_stringIcNS_11char_traitsIcEENS_9allocatorIcEEED2Ev.exit1229, label %if.then.i1228

if.then.i1228:                                    ; preds = %_ZNSt3__112basic_stringIcNS_11char_traitsIcEENS_9allocatorIcEEED2Ev.exit1223
  %__data_.i.i1227 = getelementptr inbounds %"struct.std::__1::basic_string<char>::__long", ptr %ref.tmp172, i64 0, i32 2
  %86 = load ptr, ptr %__data_.i.i1227, align 8, !tbaa !34
  call void @_ZdlPv(ptr noundef %86) #24
  br label %_ZNSt3__112basic_stringIcNS_11char_traitsIcEENS_9allocatorIcEEED2Ev.exit1229

_ZNSt3__112basic_stringIcNS_11char_traitsIcEENS_9allocatorIcEEED2Ev.exit1229: ; preds = %_ZNSt3__112basic_stringIcNS_11char_traitsIcEENS_9allocatorIcEEED2Ev.exit1223, %if.then.i1228
  %bf.load.i.i1230 = load i8, ptr %ref.tmp173, align 8
  %bf.clear.i.i1231 = and i8 %bf.load.i.i1230, 1
  %tobool.i.not.i1232 = icmp eq i8 %bf.clear.i.i1231, 0
  br i1 %tobool.i.not.i1232, label %_ZNSt3__112basic_stringIcNS_11char_traitsIcEENS_9allocatorIcEEED2Ev.exit1235, label %if.then.i1234

if.then.i1234:                                    ; preds = %_ZNSt3__112basic_stringIcNS_11char_traitsIcEENS_9allocatorIcEEED2Ev.exit1229
  %__data_.i.i1233 = getelementptr inbounds %"struct.std::__1::basic_string<char>::__long", ptr %ref.tmp173, i64 0, i32 2
  %87 = load ptr, ptr %__data_.i.i1233, align 8, !tbaa !34
  call void @_ZdlPv(ptr noundef %87) #24
  br label %_ZNSt3__112basic_stringIcNS_11char_traitsIcEENS_9allocatorIcEEED2Ev.exit1235

_ZNSt3__112basic_stringIcNS_11char_traitsIcEENS_9allocatorIcEEED2Ev.exit1235: ; preds = %_ZNSt3__112basic_stringIcNS_11char_traitsIcEENS_9allocatorIcEEED2Ev.exit1229, %if.then.i1234
  call void @llvm.lifetime.end.p0(i64 24, ptr nonnull %ref.tmp173) #23
  call void @llvm.lifetime.end.p0(i64 24, ptr nonnull %ref.tmp172) #23
  %bf.load.i.i1236 = load i8, ptr %agg.tmp166, align 8
  %bf.clear.i.i1237 = and i8 %bf.load.i.i1236, 1
  %tobool.i.not.i1238 = icmp eq i8 %bf.clear.i.i1237, 0
  br i1 %tobool.i.not.i1238, label %_ZNSt3__112basic_stringIcNS_11char_traitsIcEENS_9allocatorIcEEED2Ev.exit1241, label %if.then.i1240

if.then.i1240:                                    ; preds = %_ZNSt3__112basic_stringIcNS_11char_traitsIcEENS_9allocatorIcEEED2Ev.exit1235
  %__data_.i.i1239 = getelementptr inbounds %"struct.std::__1::basic_string<char>::__long", ptr %agg.tmp166, i64 0, i32 2
  %88 = load ptr, ptr %__data_.i.i1239, align 8, !tbaa !34
  call void @_ZdlPv(ptr noundef %88) #24
  br label %_ZNSt3__112basic_stringIcNS_11char_traitsIcEENS_9allocatorIcEEED2Ev.exit1241

_ZNSt3__112basic_stringIcNS_11char_traitsIcEENS_9allocatorIcEEED2Ev.exit1241: ; preds = %_ZNSt3__112basic_stringIcNS_11char_traitsIcEENS_9allocatorIcEEED2Ev.exit1235, %if.then.i1240
  %bf.load.i.i1242 = load i8, ptr %agg.tmp161, align 8
  %bf.clear.i.i1243 = and i8 %bf.load.i.i1242, 1
  %tobool.i.not.i1244 = icmp eq i8 %bf.clear.i.i1243, 0
  br i1 %tobool.i.not.i1244, label %_ZNSt3__112basic_stringIcNS_11char_traitsIcEENS_9allocatorIcEEED2Ev.exit1247, label %if.then.i1246

if.then.i1246:                                    ; preds = %_ZNSt3__112basic_stringIcNS_11char_traitsIcEENS_9allocatorIcEEED2Ev.exit1241
  %__data_.i.i1245 = getelementptr inbounds %"struct.std::__1::basic_string<char>::__long", ptr %agg.tmp161, i64 0, i32 2
  %89 = load ptr, ptr %__data_.i.i1245, align 8, !tbaa !34
  call void @_ZdlPv(ptr noundef %89) #24
  br label %_ZNSt3__112basic_stringIcNS_11char_traitsIcEENS_9allocatorIcEEED2Ev.exit1247

_ZNSt3__112basic_stringIcNS_11char_traitsIcEENS_9allocatorIcEEED2Ev.exit1247: ; preds = %_ZNSt3__112basic_stringIcNS_11char_traitsIcEENS_9allocatorIcEEED2Ev.exit1241, %if.then.i1246
  %bf.load.i.i1248 = load i8, ptr %agg.tmp156, align 8
  %bf.clear.i.i1249 = and i8 %bf.load.i.i1248, 1
  %tobool.i.not.i1250 = icmp eq i8 %bf.clear.i.i1249, 0
  br i1 %tobool.i.not.i1250, label %_ZNSt3__112basic_stringIcNS_11char_traitsIcEENS_9allocatorIcEEED2Ev.exit1253, label %if.then.i1252

if.then.i1252:                                    ; preds = %_ZNSt3__112basic_stringIcNS_11char_traitsIcEENS_9allocatorIcEEED2Ev.exit1247
  %__data_.i.i1251 = getelementptr inbounds %"struct.std::__1::basic_string<char>::__long", ptr %agg.tmp156, i64 0, i32 2
  %90 = load ptr, ptr %__data_.i.i1251, align 8, !tbaa !34
  call void @_ZdlPv(ptr noundef %90) #24
  br label %_ZNSt3__112basic_stringIcNS_11char_traitsIcEENS_9allocatorIcEEED2Ev.exit1253

_ZNSt3__112basic_stringIcNS_11char_traitsIcEENS_9allocatorIcEEED2Ev.exit1253: ; preds = %_ZNSt3__112basic_stringIcNS_11char_traitsIcEENS_9allocatorIcEEED2Ev.exit1247, %if.then.i1252
  %bf.load.i.i1254 = load i8, ptr %agg.tmp151, align 8
  %bf.clear.i.i1255 = and i8 %bf.load.i.i1254, 1
  %tobool.i.not.i1256 = icmp eq i8 %bf.clear.i.i1255, 0
  br i1 %tobool.i.not.i1256, label %_ZNSt3__112basic_stringIcNS_11char_traitsIcEENS_9allocatorIcEEED2Ev.exit1259, label %if.then.i1258

if.then.i1258:                                    ; preds = %_ZNSt3__112basic_stringIcNS_11char_traitsIcEENS_9allocatorIcEEED2Ev.exit1253
  %__data_.i.i1257 = getelementptr inbounds %"struct.std::__1::basic_string<char>::__long", ptr %agg.tmp151, i64 0, i32 2
  %91 = load ptr, ptr %__data_.i.i1257, align 8, !tbaa !34
  call void @_ZdlPv(ptr noundef %91) #24
  br label %_ZNSt3__112basic_stringIcNS_11char_traitsIcEENS_9allocatorIcEEED2Ev.exit1259

_ZNSt3__112basic_stringIcNS_11char_traitsIcEENS_9allocatorIcEEED2Ev.exit1259: ; preds = %_ZNSt3__112basic_stringIcNS_11char_traitsIcEENS_9allocatorIcEEED2Ev.exit1253, %if.then.i1258
  %bf.load.i.i1260 = load i8, ptr %agg.tmp146, align 8
  %bf.clear.i.i1261 = and i8 %bf.load.i.i1260, 1
  %tobool.i.not.i1262 = icmp eq i8 %bf.clear.i.i1261, 0
  br i1 %tobool.i.not.i1262, label %_ZNSt3__112basic_stringIcNS_11char_traitsIcEENS_9allocatorIcEEED2Ev.exit1265, label %if.then.i1264

if.then.i1264:                                    ; preds = %_ZNSt3__112basic_stringIcNS_11char_traitsIcEENS_9allocatorIcEEED2Ev.exit1259
  %92 = load ptr, ptr %__data_.i23.i.i827, align 8, !tbaa !34
  call void @_ZdlPv(ptr noundef %92) #24
  br label %_ZNSt3__112basic_stringIcNS_11char_traitsIcEENS_9allocatorIcEEED2Ev.exit1265

_ZNSt3__112basic_stringIcNS_11char_traitsIcEENS_9allocatorIcEEED2Ev.exit1265: ; preds = %_ZNSt3__112basic_stringIcNS_11char_traitsIcEENS_9allocatorIcEEED2Ev.exit1259, %if.then.i1264
  %bf.load.i.i1266 = load i8, ptr %agg.tmp141, align 8
  %bf.clear.i.i1267 = and i8 %bf.load.i.i1266, 1
  %tobool.i.not.i1268 = icmp eq i8 %bf.clear.i.i1267, 0
  br i1 %tobool.i.not.i1268, label %_ZNSt3__112basic_stringIcNS_11char_traitsIcEENS_9allocatorIcEEED2Ev.exit1271, label %if.then.i1270

if.then.i1270:                                    ; preds = %_ZNSt3__112basic_stringIcNS_11char_traitsIcEENS_9allocatorIcEEED2Ev.exit1265
  %93 = load ptr, ptr %__data_.i23.i.i804, align 8, !tbaa !34
  call void @_ZdlPv(ptr noundef %93) #24
  br label %_ZNSt3__112basic_stringIcNS_11char_traitsIcEENS_9allocatorIcEEED2Ev.exit1271

_ZNSt3__112basic_stringIcNS_11char_traitsIcEENS_9allocatorIcEEED2Ev.exit1271: ; preds = %_ZNSt3__112basic_stringIcNS_11char_traitsIcEENS_9allocatorIcEEED2Ev.exit1265, %if.then.i1270
  %bf.load.i.i1272 = load i8, ptr %agg.tmp136, align 8
  %bf.clear.i.i1273 = and i8 %bf.load.i.i1272, 1
  %tobool.i.not.i1274 = icmp eq i8 %bf.clear.i.i1273, 0
  br i1 %tobool.i.not.i1274, label %_ZNSt3__112basic_stringIcNS_11char_traitsIcEENS_9allocatorIcEEED2Ev.exit1277, label %if.then.i1276

if.then.i1276:                                    ; preds = %_ZNSt3__112basic_stringIcNS_11char_traitsIcEENS_9allocatorIcEEED2Ev.exit1271
  %94 = load ptr, ptr %__data_.i23.i.i781, align 8, !tbaa !34
  call void @_ZdlPv(ptr noundef %94) #24
  br label %_ZNSt3__112basic_stringIcNS_11char_traitsIcEENS_9allocatorIcEEED2Ev.exit1277

_ZNSt3__112basic_stringIcNS_11char_traitsIcEENS_9allocatorIcEEED2Ev.exit1277: ; preds = %_ZNSt3__112basic_stringIcNS_11char_traitsIcEENS_9allocatorIcEEED2Ev.exit1271, %if.then.i1276
  %bf.load.i.i1278 = load i8, ptr %agg.tmp131, align 8
  %bf.clear.i.i1279 = and i8 %bf.load.i.i1278, 1
  %tobool.i.not.i1280 = icmp eq i8 %bf.clear.i.i1279, 0
  br i1 %tobool.i.not.i1280, label %_ZNSt3__112basic_stringIcNS_11char_traitsIcEENS_9allocatorIcEEED2Ev.exit1283, label %if.then.i1282

if.then.i1282:                                    ; preds = %_ZNSt3__112basic_stringIcNS_11char_traitsIcEENS_9allocatorIcEEED2Ev.exit1277
  %95 = load ptr, ptr %__data_.i23.i.i758, align 8, !tbaa !34
  call void @_ZdlPv(ptr noundef %95) #24
  br label %_ZNSt3__112basic_stringIcNS_11char_traitsIcEENS_9allocatorIcEEED2Ev.exit1283

_ZNSt3__112basic_stringIcNS_11char_traitsIcEENS_9allocatorIcEEED2Ev.exit1283: ; preds = %_ZNSt3__112basic_stringIcNS_11char_traitsIcEENS_9allocatorIcEEED2Ev.exit1277, %if.then.i1282
  %bf.load.i.i1284 = load i8, ptr %agg.tmp126, align 8
  %bf.clear.i.i1285 = and i8 %bf.load.i.i1284, 1
  %tobool.i.not.i1286 = icmp eq i8 %bf.clear.i.i1285, 0
  br i1 %tobool.i.not.i1286, label %_ZNSt3__112basic_stringIcNS_11char_traitsIcEENS_9allocatorIcEEED2Ev.exit1289, label %if.then.i1288

if.then.i1288:                                    ; preds = %_ZNSt3__112basic_stringIcNS_11char_traitsIcEENS_9allocatorIcEEED2Ev.exit1283
  %__data_.i.i1287 = getelementptr inbounds %"struct.std::__1::basic_string<char>::__long", ptr %agg.tmp126, i64 0, i32 2
  %96 = load ptr, ptr %__data_.i.i1287, align 8, !tbaa !34
  call void @_ZdlPv(ptr noundef %96) #24
  br label %_ZNSt3__112basic_stringIcNS_11char_traitsIcEENS_9allocatorIcEEED2Ev.exit1289

_ZNSt3__112basic_stringIcNS_11char_traitsIcEENS_9allocatorIcEEED2Ev.exit1289: ; preds = %_ZNSt3__112basic_stringIcNS_11char_traitsIcEENS_9allocatorIcEEED2Ev.exit1283, %if.then.i1288
  %bf.load.i.i1290 = load i8, ptr %agg.tmp121, align 8
  %bf.clear.i.i1291 = and i8 %bf.load.i.i1290, 1
  %tobool.i.not.i1292 = icmp eq i8 %bf.clear.i.i1291, 0
  br i1 %tobool.i.not.i1292, label %_ZNSt3__112basic_stringIcNS_11char_traitsIcEENS_9allocatorIcEEED2Ev.exit1295, label %if.then.i1294

if.then.i1294:                                    ; preds = %_ZNSt3__112basic_stringIcNS_11char_traitsIcEENS_9allocatorIcEEED2Ev.exit1289
  %__data_.i.i1293 = getelementptr inbounds %"struct.std::__1::basic_string<char>::__long", ptr %agg.tmp121, i64 0, i32 2
  %97 = load ptr, ptr %__data_.i.i1293, align 8, !tbaa !34
  call void @_ZdlPv(ptr noundef %97) #24
  br label %_ZNSt3__112basic_stringIcNS_11char_traitsIcEENS_9allocatorIcEEED2Ev.exit1295

_ZNSt3__112basic_stringIcNS_11char_traitsIcEENS_9allocatorIcEEED2Ev.exit1295: ; preds = %_ZNSt3__112basic_stringIcNS_11char_traitsIcEENS_9allocatorIcEEED2Ev.exit1289, %if.then.i1294
  %bf.load.i.i1296 = load i8, ptr %agg.tmp116, align 8
  %bf.clear.i.i1297 = and i8 %bf.load.i.i1296, 1
  %tobool.i.not.i1298 = icmp eq i8 %bf.clear.i.i1297, 0
  br i1 %tobool.i.not.i1298, label %_ZNSt3__112basic_stringIcNS_11char_traitsIcEENS_9allocatorIcEEED2Ev.exit1301, label %if.then.i1300

if.then.i1300:                                    ; preds = %_ZNSt3__112basic_stringIcNS_11char_traitsIcEENS_9allocatorIcEEED2Ev.exit1295
  %98 = load ptr, ptr %__data_.i23.i.i689, align 8, !tbaa !34
  call void @_ZdlPv(ptr noundef %98) #24
  br label %_ZNSt3__112basic_stringIcNS_11char_traitsIcEENS_9allocatorIcEEED2Ev.exit1301

_ZNSt3__112basic_stringIcNS_11char_traitsIcEENS_9allocatorIcEEED2Ev.exit1301: ; preds = %_ZNSt3__112basic_stringIcNS_11char_traitsIcEENS_9allocatorIcEEED2Ev.exit1295, %if.then.i1300
  %bf.load.i.i1302 = load i8, ptr %agg.tmp111, align 8
  %bf.clear.i.i1303 = and i8 %bf.load.i.i1302, 1
  %tobool.i.not.i1304 = icmp eq i8 %bf.clear.i.i1303, 0
  br i1 %tobool.i.not.i1304, label %_ZNSt3__112basic_stringIcNS_11char_traitsIcEENS_9allocatorIcEEED2Ev.exit1307, label %if.then.i1306

if.then.i1306:                                    ; preds = %_ZNSt3__112basic_stringIcNS_11char_traitsIcEENS_9allocatorIcEEED2Ev.exit1301
  %__data_.i.i1305 = getelementptr inbounds %"struct.std::__1::basic_string<char>::__long", ptr %agg.tmp111, i64 0, i32 2
  %99 = load ptr, ptr %__data_.i.i1305, align 8, !tbaa !34
  call void @_ZdlPv(ptr noundef %99) #24
  br label %_ZNSt3__112basic_stringIcNS_11char_traitsIcEENS_9allocatorIcEEED2Ev.exit1307

_ZNSt3__112basic_stringIcNS_11char_traitsIcEENS_9allocatorIcEEED2Ev.exit1307: ; preds = %_ZNSt3__112basic_stringIcNS_11char_traitsIcEENS_9allocatorIcEEED2Ev.exit1301, %if.then.i1306
  %bf.load.i.i1308 = load i8, ptr %agg.tmp106, align 8
  %bf.clear.i.i1309 = and i8 %bf.load.i.i1308, 1
  %tobool.i.not.i1310 = icmp eq i8 %bf.clear.i.i1309, 0
  br i1 %tobool.i.not.i1310, label %_ZNSt3__112basic_stringIcNS_11char_traitsIcEENS_9allocatorIcEEED2Ev.exit1313, label %if.then.i1312

if.then.i1312:                                    ; preds = %_ZNSt3__112basic_stringIcNS_11char_traitsIcEENS_9allocatorIcEEED2Ev.exit1307
  %100 = load ptr, ptr %__data_.i23.i.i643, align 8, !tbaa !34
  call void @_ZdlPv(ptr noundef %100) #24
  br label %_ZNSt3__112basic_stringIcNS_11char_traitsIcEENS_9allocatorIcEEED2Ev.exit1313

_ZNSt3__112basic_stringIcNS_11char_traitsIcEENS_9allocatorIcEEED2Ev.exit1313: ; preds = %_ZNSt3__112basic_stringIcNS_11char_traitsIcEENS_9allocatorIcEEED2Ev.exit1307, %if.then.i1312
  %bf.load.i.i1314 = load i8, ptr %agg.tmp94, align 8
  %bf.clear.i.i1315 = and i8 %bf.load.i.i1314, 1
  %tobool.i.not.i1316 = icmp eq i8 %bf.clear.i.i1315, 0
  br i1 %tobool.i.not.i1316, label %_ZNSt3__112basic_stringIcNS_11char_traitsIcEENS_9allocatorIcEEED2Ev.exit1319, label %if.then.i1318

if.then.i1318:                                    ; preds = %_ZNSt3__112basic_stringIcNS_11char_traitsIcEENS_9allocatorIcEEED2Ev.exit1313
  %__data_.i.i1317 = getelementptr inbounds %"struct.std::__1::basic_string<char>::__long", ptr %agg.tmp94, i64 0, i32 2
  %101 = load ptr, ptr %__data_.i.i1317, align 8, !tbaa !34
  call void @_ZdlPv(ptr noundef %101) #24
  br label %_ZNSt3__112basic_stringIcNS_11char_traitsIcEENS_9allocatorIcEEED2Ev.exit1319

_ZNSt3__112basic_stringIcNS_11char_traitsIcEENS_9allocatorIcEEED2Ev.exit1319: ; preds = %_ZNSt3__112basic_stringIcNS_11char_traitsIcEENS_9allocatorIcEEED2Ev.exit1313, %if.then.i1318
  %bf.load.i.i1320 = load i8, ptr %ref.tmp95, align 8
  %bf.clear.i.i1321 = and i8 %bf.load.i.i1320, 1
  %tobool.i.not.i1322 = icmp eq i8 %bf.clear.i.i1321, 0
  br i1 %tobool.i.not.i1322, label %_ZNSt3__112basic_stringIcNS_11char_traitsIcEENS_9allocatorIcEEED2Ev.exit1325, label %if.then.i1324

if.then.i1324:                                    ; preds = %_ZNSt3__112basic_stringIcNS_11char_traitsIcEENS_9allocatorIcEEED2Ev.exit1319
  %__data_.i.i1323 = getelementptr inbounds %"struct.std::__1::basic_string<char>::__long", ptr %ref.tmp95, i64 0, i32 2
  %102 = load ptr, ptr %__data_.i.i1323, align 8, !tbaa !34
  call void @_ZdlPv(ptr noundef %102) #24
  br label %_ZNSt3__112basic_stringIcNS_11char_traitsIcEENS_9allocatorIcEEED2Ev.exit1325

_ZNSt3__112basic_stringIcNS_11char_traitsIcEENS_9allocatorIcEEED2Ev.exit1325: ; preds = %_ZNSt3__112basic_stringIcNS_11char_traitsIcEENS_9allocatorIcEEED2Ev.exit1319, %if.then.i1324
  %bf.load.i.i1326 = load i8, ptr %ref.tmp96, align 8
  %bf.clear.i.i1327 = and i8 %bf.load.i.i1326, 1
  %tobool.i.not.i1328 = icmp eq i8 %bf.clear.i.i1327, 0
  br i1 %tobool.i.not.i1328, label %_ZNSt3__112basic_stringIcNS_11char_traitsIcEENS_9allocatorIcEEED2Ev.exit1331, label %if.then.i1330

if.then.i1330:                                    ; preds = %_ZNSt3__112basic_stringIcNS_11char_traitsIcEENS_9allocatorIcEEED2Ev.exit1325
  %__data_.i.i1329 = getelementptr inbounds %"struct.std::__1::basic_string<char>::__long", ptr %ref.tmp96, i64 0, i32 2
  %103 = load ptr, ptr %__data_.i.i1329, align 8, !tbaa !34
  call void @_ZdlPv(ptr noundef %103) #24
  br label %_ZNSt3__112basic_stringIcNS_11char_traitsIcEENS_9allocatorIcEEED2Ev.exit1331

_ZNSt3__112basic_stringIcNS_11char_traitsIcEENS_9allocatorIcEEED2Ev.exit1331: ; preds = %_ZNSt3__112basic_stringIcNS_11char_traitsIcEENS_9allocatorIcEEED2Ev.exit1325, %if.then.i1330
  call void @llvm.lifetime.end.p0(i64 24, ptr nonnull %ref.tmp96) #23
  call void @llvm.lifetime.end.p0(i64 24, ptr nonnull %ref.tmp95) #23
  %bf.load.i.i1332 = load i8, ptr %agg.tmp88, align 8
  %bf.clear.i.i1333 = and i8 %bf.load.i.i1332, 1
  %tobool.i.not.i1334 = icmp eq i8 %bf.clear.i.i1333, 0
  br i1 %tobool.i.not.i1334, label %_ZNSt3__112basic_stringIcNS_11char_traitsIcEENS_9allocatorIcEEED2Ev.exit1337, label %if.then.i1336

if.then.i1336:                                    ; preds = %_ZNSt3__112basic_stringIcNS_11char_traitsIcEENS_9allocatorIcEEED2Ev.exit1331
  %__data_.i.i1335 = getelementptr inbounds %"struct.std::__1::basic_string<char>::__long", ptr %agg.tmp88, i64 0, i32 2
  %104 = load ptr, ptr %__data_.i.i1335, align 8, !tbaa !34
  call void @_ZdlPv(ptr noundef %104) #24
  br label %_ZNSt3__112basic_stringIcNS_11char_traitsIcEENS_9allocatorIcEEED2Ev.exit1337

_ZNSt3__112basic_stringIcNS_11char_traitsIcEENS_9allocatorIcEEED2Ev.exit1337: ; preds = %_ZNSt3__112basic_stringIcNS_11char_traitsIcEENS_9allocatorIcEEED2Ev.exit1331, %if.then.i1336
  call void @llvm.lifetime.end.p0(i64 1800, ptr nonnull %ref.tmp85) #23
  call void @llvm.lifetime.start.p0(i64 216, ptr nonnull %ref.tmp292) #23
  %call.i.i.i.i.i.i1359 = invoke noalias noundef nonnull dereferenceable(48) ptr @_Znwm(i64 noundef 48) #25
          to label %call.i.i.i.i.i.i.noexc1358 unwind label %ehcleanup333.thread

call.i.i.i.i.i.i.noexc1358:                       ; preds = %_ZNSt3__112basic_stringIcNS_11char_traitsIcEENS_9allocatorIcEEED2Ev.exit1337
  %__data_.i23.i.i1349 = getelementptr inbounds %"struct.std::__1::basic_string<char>::__long", ptr %agg.tmp295, i64 0, i32 2
  store ptr %call.i.i.i.i.i.i1359, ptr %__data_.i23.i.i1349, align 8, !tbaa !34
  store i64 49, ptr %agg.tmp295, align 8
  %__size_.i.i.i1351 = getelementptr inbounds %"struct.std::__1::basic_string<char>::__long", ptr %agg.tmp295, i64 0, i32 1
  store i64 40, ptr %__size_.i.i.i1351, align 8, !tbaa !34
  %cmp.i24.i.i1354 = icmp ugt ptr %call.i.i.i.i.i.i1359, @.str.69
  %add.ptr.i.i.i1355 = getelementptr inbounds i8, ptr %call.i.i.i.i.i.i1359, i64 40
  %cmp1.i.i.i1356 = icmp ule ptr %add.ptr.i.i.i1355, @.str.69
  %105 = or i1 %cmp.i24.i.i1354, %cmp1.i.i.i1356
  call void @llvm.assume(i1 %105)
  call void @llvm.memcpy.p0.p0.i64(ptr noundef nonnull align 1 dereferenceable(40) %call.i.i.i.i.i.i1359, ptr noundef nonnull align 1 dereferenceable(40) @.str.69, i64 40, i1 false)
  store i8 0, ptr %add.ptr.i.i.i1355, align 1, !tbaa !34
  invoke void @_ZN8TestCaseC1ENSt3__112basic_stringIcNS0_11char_traitsIcEENS0_9allocatorIcEEEEi(ptr noundef nonnull align 8 dereferenceable(72) %ref.tmp292, ptr noundef nonnull %agg.tmp295, i32 noundef 0)
          to label %invoke.cont299 unwind label %lpad298

invoke.cont299:                                   ; preds = %call.i.i.i.i.i.i.noexc1358
  %arrayinit.element300 = getelementptr inbounds %struct.TestCase, ptr %ref.tmp292, i64 1
  store i8 26, ptr %agg.tmp301, align 8
  %__data_.i.i.i1368 = getelementptr inbounds %"struct.std::__1::basic_string<char>::__short", ptr %agg.tmp301, i64 0, i32 2
  %cmp.i24.i.i1377 = icmp ugt ptr %__data_.i.i.i1368, @.str.70
  %add.ptr.i.i.i1378 = getelementptr inbounds %"struct.std::__1::basic_string<char>::__short", ptr %agg.tmp301, i64 0, i32 2, i64 13
  %cmp1.i.i.i1379 = icmp ule ptr %add.ptr.i.i.i1378, @.str.70
  %106 = or i1 %cmp.i24.i.i1377, %cmp1.i.i.i1379
  call void @llvm.assume(i1 %106)
  call void @llvm.memcpy.p0.p0.i64(ptr noundef nonnull align 1 dereferenceable(13) %__data_.i.i.i1368, ptr noundef nonnull align 1 dereferenceable(13) @.str.70, i64 13, i1 false)
  store i8 0, ptr %add.ptr.i.i.i1378, align 2, !tbaa !34
  invoke void @_ZN8TestCaseC1ENSt3__112basic_stringIcNS0_11char_traitsIcEENS0_9allocatorIcEEEEi(ptr noundef nonnull align 8 dereferenceable(72) %arrayinit.element300, ptr noundef nonnull %agg.tmp301, i32 noundef 2)
          to label %invoke.cont304 unwind label %lpad303

invoke.cont304:                                   ; preds = %invoke.cont299
  %arrayinit.element305 = getelementptr inbounds %struct.TestCase, ptr %ref.tmp292, i64 2
  %call.i.i.i.i.i.i1405 = invoke noalias noundef nonnull dereferenceable(48) ptr @_Znwm(i64 noundef 48) #25
          to label %call.i.i.i.i.i.i.noexc1404 unwind label %lpad303

call.i.i.i.i.i.i.noexc1404:                       ; preds = %invoke.cont304
  %__data_.i23.i.i1395 = getelementptr inbounds %"struct.std::__1::basic_string<char>::__long", ptr %agg.tmp306, i64 0, i32 2
  store ptr %call.i.i.i.i.i.i1405, ptr %__data_.i23.i.i1395, align 8, !tbaa !34
  store i64 49, ptr %agg.tmp306, align 8
  %__size_.i.i.i1397 = getelementptr inbounds %"struct.std::__1::basic_string<char>::__long", ptr %agg.tmp306, i64 0, i32 1
  store i64 34, ptr %__size_.i.i.i1397, align 8, !tbaa !34
  %cmp.i24.i.i1400 = icmp ugt ptr %call.i.i.i.i.i.i1405, @.str.71
  %add.ptr.i.i.i1401 = getelementptr inbounds i8, ptr %call.i.i.i.i.i.i1405, i64 34
  %cmp1.i.i.i1402 = icmp ule ptr %add.ptr.i.i.i1401, @.str.71
  %107 = or i1 %cmp.i24.i.i1400, %cmp1.i.i.i1402
  call void @llvm.assume(i1 %107)
  call void @llvm.memcpy.p0.p0.i64(ptr noundef nonnull align 1 dereferenceable(34) %call.i.i.i.i.i.i1405, ptr noundef nonnull align 1 dereferenceable(34) @.str.71, i64 34, i1 false)
  store i8 0, ptr %add.ptr.i.i.i1401, align 1, !tbaa !34
  invoke void @_ZN8TestCaseC1ENSt3__112basic_stringIcNS0_11char_traitsIcEENS0_9allocatorIcEEEEi(ptr noundef nonnull align 8 dereferenceable(72) %arrayinit.element305, ptr noundef nonnull %agg.tmp306, i32 noundef 1)
          to label %invoke.cont309 unwind label %lpad308

invoke.cont309:                                   ; preds = %call.i.i.i.i.i.i.noexc1404
  %call316 = invoke noundef i32 @_Z8AddCases10TestCaseIDSt16initializer_listI8TestCaseE(i32 noundef 4, ptr nonnull %ref.tmp292, i64 3)
          to label %invoke.cont315 unwind label %lpad314

invoke.cont315:                                   ; preds = %invoke.cont309
  %arraydestroy.element320 = getelementptr inbounds %struct.TestCase, ptr %ref.tmp292, i64 2
  %__cntrl_.i.i1407 = getelementptr inbounds %struct.TestCase, ptr %ref.tmp292, i64 2, i32 3, i32 1
  %108 = load ptr, ptr %__cntrl_.i.i1407, align 8, !tbaa !35
  %tobool.not.i.i1408 = icmp eq ptr %108, null
  br i1 %tobool.not.i.i1408, label %_ZNSt3__110shared_ptrIN9benchmark5RegexEED2B7v170000Ev.exit.i1419, label %if.then.i.i1411

if.then.i.i1411:                                  ; preds = %invoke.cont315
  %__shared_owners_.i.i.i.i1409 = getelementptr inbounds %"class.std::__1::__shared_count", ptr %108, i64 0, i32 1
  %109 = atomicrmw add ptr %__shared_owners_.i.i.i.i1409, i64 -1 acq_rel, align 8
  %cmp.i.i.i.i1410 = icmp eq i64 %109, 0
  br i1 %cmp.i.i.i.i1410, label %if.then.i.i.i1414, label %_ZNSt3__110shared_ptrIN9benchmark5RegexEED2B7v170000Ev.exit.i1419

if.then.i.i.i1414:                                ; preds = %if.then.i.i1411
  %vtable.i.i.i.i1412 = load ptr, ptr %108, align 8, !tbaa !37
  %vfn.i.i.i.i1413 = getelementptr inbounds ptr, ptr %vtable.i.i.i.i1412, i64 2
  %110 = load ptr, ptr %vfn.i.i.i.i1413, align 8
  call void %110(ptr noundef nonnull align 8 dereferenceable(16) %108) #23
  call void @_ZNSt3__119__shared_weak_count14__release_weakEv(ptr noundef nonnull align 8 dereferenceable(24) %108) #23
  br label %_ZNSt3__110shared_ptrIN9benchmark5RegexEED2B7v170000Ev.exit.i1419

_ZNSt3__110shared_ptrIN9benchmark5RegexEED2B7v170000Ev.exit.i1419: ; preds = %if.then.i.i.i1414, %if.then.i.i1411, %invoke.cont315
  %substituted_regex.i1415 = getelementptr inbounds %struct.TestCase, ptr %ref.tmp292, i64 2, i32 2
  %bf.load.i.i.i1416 = load i8, ptr %substituted_regex.i1415, align 8
  %bf.clear.i.i.i1417 = and i8 %bf.load.i.i.i1416, 1
  %tobool.i.not.i.i1418 = icmp eq i8 %bf.clear.i.i.i1417, 0
  br i1 %tobool.i.not.i.i1418, label %_ZNSt3__112basic_stringIcNS_11char_traitsIcEENS_9allocatorIcEEED2Ev.exit.i1425, label %if.then.i2.i1421

if.then.i2.i1421:                                 ; preds = %_ZNSt3__110shared_ptrIN9benchmark5RegexEED2B7v170000Ev.exit.i1419
  %__data_.i.i.i1420 = getelementptr inbounds %struct.TestCase, ptr %ref.tmp292, i64 2, i32 2, i32 0, i32 0, i32 0, i32 0, i32 0, i32 2
  %111 = load ptr, ptr %__data_.i.i.i1420, align 8, !tbaa !34
  call void @_ZdlPv(ptr noundef %111) #24
  br label %_ZNSt3__112basic_stringIcNS_11char_traitsIcEENS_9allocatorIcEEED2Ev.exit.i1425

_ZNSt3__112basic_stringIcNS_11char_traitsIcEENS_9allocatorIcEEED2Ev.exit.i1425: ; preds = %if.then.i2.i1421, %_ZNSt3__110shared_ptrIN9benchmark5RegexEED2B7v170000Ev.exit.i1419
  %bf.load.i.i3.i1422 = load i8, ptr %arraydestroy.element320, align 8
  %bf.clear.i.i4.i1423 = and i8 %bf.load.i.i3.i1422, 1
  %tobool.i.not.i5.i1424 = icmp eq i8 %bf.clear.i.i4.i1423, 0
  br i1 %tobool.i.not.i5.i1424, label %_ZN8TestCaseD2Ev.exit1428, label %if.then.i7.i1427

if.then.i7.i1427:                                 ; preds = %_ZNSt3__112basic_stringIcNS_11char_traitsIcEENS_9allocatorIcEEED2Ev.exit.i1425
  %__data_.i.i6.i1426 = getelementptr inbounds %struct.TestCase, ptr %ref.tmp292, i64 2, i32 0, i32 0, i32 0, i32 0, i32 0, i32 0, i32 2
  %112 = load ptr, ptr %__data_.i.i6.i1426, align 8, !tbaa !34
  call void @_ZdlPv(ptr noundef %112) #24
  br label %_ZN8TestCaseD2Ev.exit1428

_ZN8TestCaseD2Ev.exit1428:                        ; preds = %_ZNSt3__112basic_stringIcNS_11char_traitsIcEENS_9allocatorIcEEED2Ev.exit.i1425, %if.then.i7.i1427
  %arraydestroy.element320.1 = getelementptr inbounds %struct.TestCase, ptr %ref.tmp292, i64 1
  %__cntrl_.i.i1407.1 = getelementptr inbounds %struct.TestCase, ptr %ref.tmp292, i64 1, i32 3, i32 1
  %113 = load ptr, ptr %__cntrl_.i.i1407.1, align 8, !tbaa !35
  %tobool.not.i.i1408.1 = icmp eq ptr %113, null
  br i1 %tobool.not.i.i1408.1, label %_ZNSt3__110shared_ptrIN9benchmark5RegexEED2B7v170000Ev.exit.i1419.1, label %if.then.i.i1411.1

if.then.i.i1411.1:                                ; preds = %_ZN8TestCaseD2Ev.exit1428
  %__shared_owners_.i.i.i.i1409.1 = getelementptr inbounds %"class.std::__1::__shared_count", ptr %113, i64 0, i32 1
  %114 = atomicrmw add ptr %__shared_owners_.i.i.i.i1409.1, i64 -1 acq_rel, align 8
  %cmp.i.i.i.i1410.1 = icmp eq i64 %114, 0
  br i1 %cmp.i.i.i.i1410.1, label %if.then.i.i.i1414.1, label %_ZNSt3__110shared_ptrIN9benchmark5RegexEED2B7v170000Ev.exit.i1419.1

if.then.i.i.i1414.1:                              ; preds = %if.then.i.i1411.1
  %vtable.i.i.i.i1412.1 = load ptr, ptr %113, align 8, !tbaa !37
  %vfn.i.i.i.i1413.1 = getelementptr inbounds ptr, ptr %vtable.i.i.i.i1412.1, i64 2
  %115 = load ptr, ptr %vfn.i.i.i.i1413.1, align 8
  call void %115(ptr noundef nonnull align 8 dereferenceable(16) %113) #23
  call void @_ZNSt3__119__shared_weak_count14__release_weakEv(ptr noundef nonnull align 8 dereferenceable(24) %113) #23
  br label %_ZNSt3__110shared_ptrIN9benchmark5RegexEED2B7v170000Ev.exit.i1419.1

_ZNSt3__110shared_ptrIN9benchmark5RegexEED2B7v170000Ev.exit.i1419.1: ; preds = %if.then.i.i.i1414.1, %if.then.i.i1411.1, %_ZN8TestCaseD2Ev.exit1428
  %substituted_regex.i1415.1 = getelementptr inbounds %struct.TestCase, ptr %ref.tmp292, i64 1, i32 2
  %bf.load.i.i.i1416.1 = load i8, ptr %substituted_regex.i1415.1, align 8
  %bf.clear.i.i.i1417.1 = and i8 %bf.load.i.i.i1416.1, 1
  %tobool.i.not.i.i1418.1 = icmp eq i8 %bf.clear.i.i.i1417.1, 0
  br i1 %tobool.i.not.i.i1418.1, label %_ZNSt3__112basic_stringIcNS_11char_traitsIcEENS_9allocatorIcEEED2Ev.exit.i1425.1, label %if.then.i2.i1421.1

if.then.i2.i1421.1:                               ; preds = %_ZNSt3__110shared_ptrIN9benchmark5RegexEED2B7v170000Ev.exit.i1419.1
  %__data_.i.i.i1420.1 = getelementptr inbounds %struct.TestCase, ptr %ref.tmp292, i64 1, i32 2, i32 0, i32 0, i32 0, i32 0, i32 0, i32 2
  %116 = load ptr, ptr %__data_.i.i.i1420.1, align 8, !tbaa !34
  call void @_ZdlPv(ptr noundef %116) #24
  br label %_ZNSt3__112basic_stringIcNS_11char_traitsIcEENS_9allocatorIcEEED2Ev.exit.i1425.1

_ZNSt3__112basic_stringIcNS_11char_traitsIcEENS_9allocatorIcEEED2Ev.exit.i1425.1: ; preds = %if.then.i2.i1421.1, %_ZNSt3__110shared_ptrIN9benchmark5RegexEED2B7v170000Ev.exit.i1419.1
  %bf.load.i.i3.i1422.1 = load i8, ptr %arraydestroy.element320.1, align 8
  %bf.clear.i.i4.i1423.1 = and i8 %bf.load.i.i3.i1422.1, 1
  %tobool.i.not.i5.i1424.1 = icmp eq i8 %bf.clear.i.i4.i1423.1, 0
  br i1 %tobool.i.not.i5.i1424.1, label %_ZN8TestCaseD2Ev.exit1428.1, label %if.then.i7.i1427.1

if.then.i7.i1427.1:                               ; preds = %_ZNSt3__112basic_stringIcNS_11char_traitsIcEENS_9allocatorIcEEED2Ev.exit.i1425.1
  %__data_.i.i6.i1426.1 = getelementptr inbounds %struct.TestCase, ptr %ref.tmp292, i64 1, i32 0, i32 0, i32 0, i32 0, i32 0, i32 0, i32 2
  %117 = load ptr, ptr %__data_.i.i6.i1426.1, align 8, !tbaa !34
  call void @_ZdlPv(ptr noundef %117) #24
  br label %_ZN8TestCaseD2Ev.exit1428.1

_ZN8TestCaseD2Ev.exit1428.1:                      ; preds = %if.then.i7.i1427.1, %_ZNSt3__112basic_stringIcNS_11char_traitsIcEENS_9allocatorIcEEED2Ev.exit.i1425.1
  %__cntrl_.i.i1407.2 = getelementptr inbounds %struct.TestCase, ptr %ref.tmp292, i64 0, i32 3, i32 1
  %118 = load ptr, ptr %__cntrl_.i.i1407.2, align 8, !tbaa !35
  %tobool.not.i.i1408.2 = icmp eq ptr %118, null
  br i1 %tobool.not.i.i1408.2, label %_ZNSt3__110shared_ptrIN9benchmark5RegexEED2B7v170000Ev.exit.i1419.2, label %if.then.i.i1411.2

if.then.i.i1411.2:                                ; preds = %_ZN8TestCaseD2Ev.exit1428.1
  %__shared_owners_.i.i.i.i1409.2 = getelementptr inbounds %"class.std::__1::__shared_count", ptr %118, i64 0, i32 1
  %119 = atomicrmw add ptr %__shared_owners_.i.i.i.i1409.2, i64 -1 acq_rel, align 8
  %cmp.i.i.i.i1410.2 = icmp eq i64 %119, 0
  br i1 %cmp.i.i.i.i1410.2, label %if.then.i.i.i1414.2, label %_ZNSt3__110shared_ptrIN9benchmark5RegexEED2B7v170000Ev.exit.i1419.2

if.then.i.i.i1414.2:                              ; preds = %if.then.i.i1411.2
  %vtable.i.i.i.i1412.2 = load ptr, ptr %118, align 8, !tbaa !37
  %vfn.i.i.i.i1413.2 = getelementptr inbounds ptr, ptr %vtable.i.i.i.i1412.2, i64 2
  %120 = load ptr, ptr %vfn.i.i.i.i1413.2, align 8
  call void %120(ptr noundef nonnull align 8 dereferenceable(16) %118) #23
  call void @_ZNSt3__119__shared_weak_count14__release_weakEv(ptr noundef nonnull align 8 dereferenceable(24) %118) #23
  br label %_ZNSt3__110shared_ptrIN9benchmark5RegexEED2B7v170000Ev.exit.i1419.2

_ZNSt3__110shared_ptrIN9benchmark5RegexEED2B7v170000Ev.exit.i1419.2: ; preds = %if.then.i.i.i1414.2, %if.then.i.i1411.2, %_ZN8TestCaseD2Ev.exit1428.1
  %substituted_regex.i1415.2 = getelementptr inbounds %struct.TestCase, ptr %ref.tmp292, i64 0, i32 2
  %bf.load.i.i.i1416.2 = load i8, ptr %substituted_regex.i1415.2, align 8
  %bf.clear.i.i.i1417.2 = and i8 %bf.load.i.i.i1416.2, 1
  %tobool.i.not.i.i1418.2 = icmp eq i8 %bf.clear.i.i.i1417.2, 0
  br i1 %tobool.i.not.i.i1418.2, label %_ZNSt3__112basic_stringIcNS_11char_traitsIcEENS_9allocatorIcEEED2Ev.exit.i1425.2, label %if.then.i2.i1421.2

if.then.i2.i1421.2:                               ; preds = %_ZNSt3__110shared_ptrIN9benchmark5RegexEED2B7v170000Ev.exit.i1419.2
  %__data_.i.i.i1420.2 = getelementptr inbounds %struct.TestCase, ptr %ref.tmp292, i64 0, i32 2, i32 0, i32 0, i32 0, i32 0, i32 0, i32 2
  %121 = load ptr, ptr %__data_.i.i.i1420.2, align 8, !tbaa !34
  call void @_ZdlPv(ptr noundef %121) #24
  br label %_ZNSt3__112basic_stringIcNS_11char_traitsIcEENS_9allocatorIcEEED2Ev.exit.i1425.2

_ZNSt3__112basic_stringIcNS_11char_traitsIcEENS_9allocatorIcEEED2Ev.exit.i1425.2: ; preds = %if.then.i2.i1421.2, %_ZNSt3__110shared_ptrIN9benchmark5RegexEED2B7v170000Ev.exit.i1419.2
  %bf.load.i.i3.i1422.2 = load i8, ptr %ref.tmp292, align 8
  %bf.clear.i.i4.i1423.2 = and i8 %bf.load.i.i3.i1422.2, 1
  %tobool.i.not.i5.i1424.2 = icmp eq i8 %bf.clear.i.i4.i1423.2, 0
  br i1 %tobool.i.not.i5.i1424.2, label %_ZN8TestCaseD2Ev.exit1428.2, label %if.then.i7.i1427.2

if.then.i7.i1427.2:                               ; preds = %_ZNSt3__112basic_stringIcNS_11char_traitsIcEENS_9allocatorIcEEED2Ev.exit.i1425.2
  %__data_.i.i6.i1426.2 = getelementptr inbounds %struct.TestCase, ptr %ref.tmp292, i64 0, i32 0, i32 0, i32 0, i32 0, i32 0, i32 0, i32 2
  %122 = load ptr, ptr %__data_.i.i6.i1426.2, align 8, !tbaa !34
  call void @_ZdlPv(ptr noundef %122) #24
  br label %_ZN8TestCaseD2Ev.exit1428.2

_ZN8TestCaseD2Ev.exit1428.2:                      ; preds = %if.then.i7.i1427.2, %_ZNSt3__112basic_stringIcNS_11char_traitsIcEENS_9allocatorIcEEED2Ev.exit.i1425.2
  %bf.load.i.i1429 = load i8, ptr %agg.tmp306, align 8
  %bf.clear.i.i1430 = and i8 %bf.load.i.i1429, 1
  %tobool.i.not.i1431 = icmp eq i8 %bf.clear.i.i1430, 0
  br i1 %tobool.i.not.i1431, label %_ZNSt3__112basic_stringIcNS_11char_traitsIcEENS_9allocatorIcEEED2Ev.exit1434, label %if.then.i1433

if.then.i1433:                                    ; preds = %_ZN8TestCaseD2Ev.exit1428.2
  %123 = load ptr, ptr %__data_.i23.i.i1395, align 8, !tbaa !34
  call void @_ZdlPv(ptr noundef %123) #24
  br label %_ZNSt3__112basic_stringIcNS_11char_traitsIcEENS_9allocatorIcEEED2Ev.exit1434

_ZNSt3__112basic_stringIcNS_11char_traitsIcEENS_9allocatorIcEEED2Ev.exit1434: ; preds = %_ZN8TestCaseD2Ev.exit1428.2, %if.then.i1433
  %bf.load.i.i1435 = load i8, ptr %agg.tmp301, align 8
  %bf.clear.i.i1436 = and i8 %bf.load.i.i1435, 1
  %tobool.i.not.i1437 = icmp eq i8 %bf.clear.i.i1436, 0
  br i1 %tobool.i.not.i1437, label %_ZNSt3__112basic_stringIcNS_11char_traitsIcEENS_9allocatorIcEEED2Ev.exit1440, label %if.then.i1439

if.then.i1439:                                    ; preds = %_ZNSt3__112basic_stringIcNS_11char_traitsIcEENS_9allocatorIcEEED2Ev.exit1434
  %__data_.i.i1438 = getelementptr inbounds %"struct.std::__1::basic_string<char>::__long", ptr %agg.tmp301, i64 0, i32 2
  %124 = load ptr, ptr %__data_.i.i1438, align 8, !tbaa !34
  call void @_ZdlPv(ptr noundef %124) #24
  br label %_ZNSt3__112basic_stringIcNS_11char_traitsIcEENS_9allocatorIcEEED2Ev.exit1440

_ZNSt3__112basic_stringIcNS_11char_traitsIcEENS_9allocatorIcEEED2Ev.exit1440: ; preds = %_ZNSt3__112basic_stringIcNS_11char_traitsIcEENS_9allocatorIcEEED2Ev.exit1434, %if.then.i1439
  %bf.load.i.i1441 = load i8, ptr %agg.tmp295, align 8
  %bf.clear.i.i1442 = and i8 %bf.load.i.i1441, 1
  %tobool.i.not.i1443 = icmp eq i8 %bf.clear.i.i1442, 0
  br i1 %tobool.i.not.i1443, label %_ZNSt3__112basic_stringIcNS_11char_traitsIcEENS_9allocatorIcEEED2Ev.exit1446, label %if.then.i1445

if.then.i1445:                                    ; preds = %_ZNSt3__112basic_stringIcNS_11char_traitsIcEENS_9allocatorIcEEED2Ev.exit1440
  %125 = load ptr, ptr %__data_.i23.i.i1349, align 8, !tbaa !34
  call void @_ZdlPv(ptr noundef %125) #24
  br label %_ZNSt3__112basic_stringIcNS_11char_traitsIcEENS_9allocatorIcEEED2Ev.exit1446

_ZNSt3__112basic_stringIcNS_11char_traitsIcEENS_9allocatorIcEEED2Ev.exit1446: ; preds = %_ZNSt3__112basic_stringIcNS_11char_traitsIcEENS_9allocatorIcEEED2Ev.exit1440, %if.then.i1445
  call void @llvm.lifetime.end.p0(i64 216, ptr nonnull %ref.tmp292) #23
  ret void

ehcleanup24.thread1692:                           ; preds = %invoke.cont3
  %126 = landingpad { ptr, i32 }
          cleanup
  call void @llvm.lifetime.end.p0(i64 24, ptr nonnull %ref.tmp5) #23
  br label %arraydestroy.body25.preheader

lpad8:                                            ; preds = %invoke.cont11
  %127 = landingpad { ptr, i32 }
          cleanup
  br label %ehcleanup

lpad14:                                           ; preds = %invoke.cont13
  %128 = landingpad { ptr, i32 }
          cleanup
  %arraydestroy.element20 = getelementptr inbounds %"struct.std::__1::pair.66", ptr %ref.tmp, i64 5
  call void @_ZNSt3__14pairINS_12basic_stringIcNS_11char_traitsIcEENS_9allocatorIcEEEES6_ED2Ev(ptr noundef nonnull align 8 dereferenceable(48) %arraydestroy.element20) #23
  %arraydestroy.element20.1 = getelementptr inbounds %"struct.std::__1::pair.66", ptr %ref.tmp, i64 4
  call void @_ZNSt3__14pairINS_12basic_stringIcNS_11char_traitsIcEENS_9allocatorIcEEEES6_ED2Ev(ptr noundef nonnull align 8 dereferenceable(48) %arraydestroy.element20.1) #23
  %arraydestroy.element20.2 = getelementptr inbounds %"struct.std::__1::pair.66", ptr %ref.tmp, i64 3
  call void @_ZNSt3__14pairINS_12basic_stringIcNS_11char_traitsIcEENS_9allocatorIcEEEES6_ED2Ev(ptr noundef nonnull align 8 dereferenceable(48) %arraydestroy.element20.2) #23
  %arraydestroy.element20.3 = getelementptr inbounds %"struct.std::__1::pair.66", ptr %ref.tmp, i64 2
  call void @_ZNSt3__14pairINS_12basic_stringIcNS_11char_traitsIcEENS_9allocatorIcEEEES6_ED2Ev(ptr noundef nonnull align 8 dereferenceable(48) %arraydestroy.element20.3) #23
  %arraydestroy.element20.4 = getelementptr inbounds %"struct.std::__1::pair.66", ptr %ref.tmp, i64 1
  call void @_ZNSt3__14pairINS_12basic_stringIcNS_11char_traitsIcEENS_9allocatorIcEEEES6_ED2Ev(ptr noundef nonnull align 8 dereferenceable(48) %arraydestroy.element20.4) #23
  call void @_ZNSt3__14pairINS_12basic_stringIcNS_11char_traitsIcEENS_9allocatorIcEEEES6_ED2Ev(ptr noundef nonnull align 8 dereferenceable(48) %ref.tmp) #23
  br label %ehcleanup

ehcleanup:                                        ; preds = %lpad14, %lpad8, %if.then.i.i516, %lpad.i514
  %cleanup.isactive.0 = phi i1 [ true, %lpad.i514 ], [ true, %if.then.i.i516 ], [ true, %lpad8 ], [ false, %lpad14 ]
  %.pn = phi { ptr, i32 } [ %11, %lpad.i514 ], [ %11, %if.then.i.i516 ], [ %127, %lpad8 ], [ %128, %lpad14 ]
  %arrayinit.endOfInit.2 = phi ptr [ %arrayinit.element10, %lpad.i514 ], [ %arrayinit.element10, %if.then.i.i516 ], [ %arrayinit.element12, %lpad8 ], [ %arrayinit.element12, %lpad14 ]
  %bf.load.i.i1447 = load i8, ptr %ref.tmp5, align 8
  %bf.clear.i.i1448 = and i8 %bf.load.i.i1447, 1
  %tobool.i.not.i1449 = icmp eq i8 %bf.clear.i.i1448, 0
  br i1 %tobool.i.not.i1449, label %ehcleanup24, label %if.then.i1451

if.then.i1451:                                    ; preds = %ehcleanup
  %__data_.i.i1450 = getelementptr inbounds %"struct.std::__1::basic_string<char>::__long", ptr %ref.tmp5, i64 0, i32 2
  %129 = load ptr, ptr %__data_.i.i1450, align 8, !tbaa !34
  call void @_ZdlPv(ptr noundef %129) #24
  call void @llvm.lifetime.end.p0(i64 24, ptr nonnull %ref.tmp5) #23
  br i1 %cleanup.isactive.0, label %arraydestroy.body25.preheader, label %cleanup.done

ehcleanup24:                                      ; preds = %ehcleanup
  call void @llvm.lifetime.end.p0(i64 24, ptr nonnull %ref.tmp5) #23
  br i1 %cleanup.isactive.0, label %arraydestroy.body25.preheader, label %cleanup.done

arraydestroy.body25.preheader:                    ; preds = %if.then.i.i458, %lpad.i456, %lpad.i422, %if.then.i.i424, %if.then.i1451, %ehcleanup24.thread1692, %ehcleanup24
  %arrayinit.endOfInit.41691 = phi ptr [ %arrayinit.endOfInit.2, %ehcleanup24 ], [ %arrayinit.element4, %ehcleanup24.thread1692 ], [ %arrayinit.endOfInit.2, %if.then.i1451 ], [ %arrayinit.element2, %if.then.i.i458 ], [ %arrayinit.element2, %lpad.i456 ], [ %arrayinit.element, %lpad.i422 ], [ %arrayinit.element, %if.then.i.i424 ]
  %.pn.pn.pn1690 = phi { ptr, i32 } [ %.pn, %ehcleanup24 ], [ %126, %ehcleanup24.thread1692 ], [ %.pn, %if.then.i1451 ], [ %7, %if.then.i.i458 ], [ %7, %lpad.i456 ], [ %4, %lpad.i422 ], [ %4, %if.then.i.i424 ]
  br label %arraydestroy.body25

arraydestroy.body25:                              ; preds = %arraydestroy.body25.preheader, %arraydestroy.body25
  %arraydestroy.elementPast26 = phi ptr [ %arraydestroy.element27, %arraydestroy.body25 ], [ %arrayinit.endOfInit.41691, %arraydestroy.body25.preheader ]
  %arraydestroy.element27 = getelementptr inbounds %"struct.std::__1::pair.66", ptr %arraydestroy.elementPast26, i64 -1
  call void @_ZNSt3__14pairINS_12basic_stringIcNS_11char_traitsIcEENS_9allocatorIcEEEES6_ED2Ev(ptr noundef nonnull align 8 dereferenceable(48) %arraydestroy.element27) #23
  %arraydestroy.done28 = icmp eq ptr %arraydestroy.element27, %ref.tmp
  br i1 %arraydestroy.done28, label %cleanup.done, label %arraydestroy.body25

cleanup.done:                                     ; preds = %arraydestroy.body25, %if.then.i1451, %lpad.i, %if.then.i.i, %ehcleanup24
  %.pn.pn.pn1668 = phi { ptr, i32 } [ %.pn, %ehcleanup24 ], [ %1, %if.then.i.i ], [ %1, %lpad.i ], [ %.pn, %if.then.i1451 ], [ %.pn.pn.pn1690, %arraydestroy.body25 ]
  call void @llvm.lifetime.end.p0(i64 288, ptr nonnull %ref.tmp) #23
  br label %eh.resume

ehcleanup73.thread:                               ; preds = %_ZNSt3__112basic_stringIcNS_11char_traitsIcEENS_9allocatorIcEEED2Ev.exit
  %130 = landingpad { ptr, i32 }
          cleanup
  br label %cleanup.done82

lpad38:                                           ; preds = %call.i.i.i.i.i.i.noexc
  %131 = landingpad { ptr, i32 }
          cleanup
  br label %ehcleanup72

lpad43:                                           ; preds = %invoke.cont44, %invoke.cont39
  %arrayinit.endOfInit34.1 = phi ptr [ %arrayinit.element40, %invoke.cont39 ], [ %arrayinit.element45, %invoke.cont44 ]
  %132 = landingpad { ptr, i32 }
          cleanup
  br label %ehcleanup71

lpad48:                                           ; preds = %call.i.i.i.i.i.i.noexc578
  %133 = landingpad { ptr, i32 }
          cleanup
  br label %ehcleanup70

lpad54:                                           ; preds = %invoke.cont49
  %134 = landingpad { ptr, i32 }
          cleanup
  %arraydestroy.element67 = getelementptr inbounds %struct.TestCase, ptr %ref.tmp32, i64 2
  call void @_ZN8TestCaseD2Ev(ptr noundef nonnull align 8 dereferenceable(72) %arraydestroy.element67) #23
  %arraydestroy.element67.1 = getelementptr inbounds %struct.TestCase, ptr %ref.tmp32, i64 1
  call void @_ZN8TestCaseD2Ev(ptr noundef nonnull align 8 dereferenceable(72) %arraydestroy.element67.1) #23
  call void @_ZN8TestCaseD2Ev(ptr noundef nonnull align 8 dereferenceable(72) %ref.tmp32) #23
  br label %ehcleanup70

ehcleanup70:                                      ; preds = %lpad54, %lpad48
  %cleanup.isactive50.0 = phi i1 [ true, %lpad48 ], [ false, %lpad54 ]
  %.pn353 = phi { ptr, i32 } [ %133, %lpad48 ], [ %134, %lpad54 ]
  %bf.load.i.i1453 = load i8, ptr %agg.tmp46, align 8
  %bf.clear.i.i1454 = and i8 %bf.load.i.i1453, 1
  %tobool.i.not.i1455 = icmp eq i8 %bf.clear.i.i1454, 0
  br i1 %tobool.i.not.i1455, label %ehcleanup71, label %if.then.i1457

if.then.i1457:                                    ; preds = %ehcleanup70
  %135 = load ptr, ptr %__data_.i23.i.i569, align 8, !tbaa !34
  call void @_ZdlPv(ptr noundef %135) #24
  br label %ehcleanup71

ehcleanup71:                                      ; preds = %if.then.i1457, %ehcleanup70, %lpad43
  %arrayinit.endOfInit34.2 = phi ptr [ %arrayinit.endOfInit34.1, %lpad43 ], [ %arrayinit.element45, %ehcleanup70 ], [ %arrayinit.element45, %if.then.i1457 ]
  %cleanup.isactive50.1 = phi i1 [ true, %lpad43 ], [ %cleanup.isactive50.0, %ehcleanup70 ], [ %cleanup.isactive50.0, %if.then.i1457 ]
  %.pn353.pn = phi { ptr, i32 } [ %132, %lpad43 ], [ %.pn353, %ehcleanup70 ], [ %.pn353, %if.then.i1457 ]
  %bf.load.i.i1459 = load i8, ptr %agg.tmp41, align 8
  %bf.clear.i.i1460 = and i8 %bf.load.i.i1459, 1
  %tobool.i.not.i1461 = icmp eq i8 %bf.clear.i.i1460, 0
  br i1 %tobool.i.not.i1461, label %ehcleanup72, label %if.then.i1463

if.then.i1463:                                    ; preds = %ehcleanup71
  %__data_.i.i1462 = getelementptr inbounds %"struct.std::__1::basic_string<char>::__long", ptr %agg.tmp41, i64 0, i32 2
  %136 = load ptr, ptr %__data_.i.i1462, align 8, !tbaa !34
  call void @_ZdlPv(ptr noundef %136) #24
  br label %ehcleanup72

ehcleanup72:                                      ; preds = %if.then.i1463, %ehcleanup71, %lpad38
  %arrayinit.endOfInit34.3 = phi ptr [ %ref.tmp32, %lpad38 ], [ %arrayinit.endOfInit34.2, %ehcleanup71 ], [ %arrayinit.endOfInit34.2, %if.then.i1463 ]
  %cleanup.isactive50.2 = phi i1 [ true, %lpad38 ], [ %cleanup.isactive50.1, %ehcleanup71 ], [ %cleanup.isactive50.1, %if.then.i1463 ]
  %.pn353.pn.pn = phi { ptr, i32 } [ %131, %lpad38 ], [ %.pn353.pn, %ehcleanup71 ], [ %.pn353.pn, %if.then.i1463 ]
  %bf.load.i.i1465 = load i8, ptr %agg.tmp35, align 8
  %bf.clear.i.i1466 = and i8 %bf.load.i.i1465, 1
  %tobool.i.not.i1467 = icmp eq i8 %bf.clear.i.i1466, 0
  br i1 %tobool.i.not.i1467, label %ehcleanup73, label %if.then.i1469

if.then.i1469:                                    ; preds = %ehcleanup72
  %137 = load ptr, ptr %__data_.i23.i.i, align 8, !tbaa !34
  call void @_ZdlPv(ptr noundef %137) #24
  br label %ehcleanup73

ehcleanup73:                                      ; preds = %if.then.i1469, %ehcleanup72
  %arraydestroy.isempty76 = icmp ne ptr %ref.tmp32, %arrayinit.endOfInit34.3
  %or.cond345.not = select i1 %cleanup.isactive50.2, i1 %arraydestroy.isempty76, i1 false
  br i1 %or.cond345.not, label %arraydestroy.body77, label %cleanup.done82

arraydestroy.body77:                              ; preds = %ehcleanup73, %arraydestroy.body77
  %arraydestroy.elementPast78 = phi ptr [ %arraydestroy.element79, %arraydestroy.body77 ], [ %arrayinit.endOfInit34.3, %ehcleanup73 ]
  %arraydestroy.element79 = getelementptr inbounds %struct.TestCase, ptr %arraydestroy.elementPast78, i64 -1
  call void @_ZN8TestCaseD2Ev(ptr noundef nonnull align 8 dereferenceable(72) %arraydestroy.element79) #23
  %arraydestroy.done80 = icmp eq ptr %arraydestroy.element79, %ref.tmp32
  br i1 %arraydestroy.done80, label %cleanup.done82, label %arraydestroy.body77

cleanup.done82:                                   ; preds = %arraydestroy.body77, %ehcleanup73.thread, %ehcleanup73
  %.pn353.pn.pn.pn1674 = phi { ptr, i32 } [ %130, %ehcleanup73.thread ], [ %.pn353.pn.pn, %ehcleanup73 ], [ %.pn353.pn.pn, %arraydestroy.body77 ]
  call void @llvm.lifetime.end.p0(i64 216, ptr nonnull %ref.tmp32) #23
  br label %eh.resume

lpad91:                                           ; preds = %_ZNSt3__112basic_stringIcNS_11char_traitsIcEENS_9allocatorIcEEED2Ev.exit606
  %138 = landingpad { ptr, i32 }
          cleanup
  br label %ehcleanup279

lpad97:                                           ; preds = %invoke.cont92
  %139 = landingpad { ptr, i32 }
          cleanup
  br label %ehcleanup277

lpad99:                                           ; preds = %invoke.cont98
  %140 = landingpad { ptr, i32 }
          cleanup
  br label %ehcleanup276

lpad101:                                          ; preds = %invoke.cont100
  %141 = landingpad { ptr, i32 }
          cleanup
  br label %ehcleanup275

lpad103:                                          ; preds = %invoke.cont104, %invoke.cont102
  %arrayinit.endOfInit87.0 = phi ptr [ %arrayinit.element93, %invoke.cont102 ], [ %arrayinit.element105, %invoke.cont104 ]
  %142 = landingpad { ptr, i32 }
          cleanup
  br label %ehcleanup274

lpad108:                                          ; preds = %call.i.i.i.i.i.i.noexc652
  %143 = landingpad { ptr, i32 }
          cleanup
  br label %ehcleanup273

lpad113:                                          ; preds = %invoke.cont114, %invoke.cont109
  %arrayinit.endOfInit87.2 = phi ptr [ %arrayinit.element110, %invoke.cont109 ], [ %arrayinit.element115, %invoke.cont114 ]
  %144 = landingpad { ptr, i32 }
          cleanup
  br label %ehcleanup272

lpad118:                                          ; preds = %call.i.i.i.i.i.i.noexc698
  %145 = landingpad { ptr, i32 }
          cleanup
  br label %ehcleanup271

lpad123:                                          ; preds = %invoke.cont119
  %146 = landingpad { ptr, i32 }
          cleanup
  br label %ehcleanup270

lpad128:                                          ; preds = %invoke.cont129, %invoke.cont124
  %arrayinit.endOfInit87.5 = phi ptr [ %arrayinit.element125, %invoke.cont124 ], [ %arrayinit.element130, %invoke.cont129 ]
  %147 = landingpad { ptr, i32 }
          cleanup
  br label %ehcleanup269

lpad133:                                          ; preds = %invoke.cont134, %call.i.i.i.i.i.i.noexc767
  %arrayinit.endOfInit87.6 = phi ptr [ %arrayinit.element130, %call.i.i.i.i.i.i.noexc767 ], [ %arrayinit.element135, %invoke.cont134 ]
  %148 = landingpad { ptr, i32 }
          cleanup
  br label %ehcleanup268

lpad138:                                          ; preds = %invoke.cont139, %call.i.i.i.i.i.i.noexc790
  %arrayinit.endOfInit87.7 = phi ptr [ %arrayinit.element135, %call.i.i.i.i.i.i.noexc790 ], [ %arrayinit.element140, %invoke.cont139 ]
  %149 = landingpad { ptr, i32 }
          cleanup
  br label %ehcleanup267

lpad143:                                          ; preds = %invoke.cont144, %call.i.i.i.i.i.i.noexc813
  %arrayinit.endOfInit87.8 = phi ptr [ %arrayinit.element140, %call.i.i.i.i.i.i.noexc813 ], [ %arrayinit.element145, %invoke.cont144 ]
  %150 = landingpad { ptr, i32 }
          cleanup
  br label %ehcleanup266

lpad148:                                          ; preds = %call.i.i.i.i.i.i.noexc836
  %151 = landingpad { ptr, i32 }
          cleanup
  br label %ehcleanup265

lpad153:                                          ; preds = %invoke.cont149
  %152 = landingpad { ptr, i32 }
          cleanup
  br label %ehcleanup264

lpad158:                                          ; preds = %invoke.cont154
  %153 = landingpad { ptr, i32 }
          cleanup
  br label %ehcleanup263

lpad163:                                          ; preds = %invoke.cont159
  %154 = landingpad { ptr, i32 }
          cleanup
  br label %ehcleanup262

lpad168:                                          ; preds = %invoke.cont164
  %155 = landingpad { ptr, i32 }
          cleanup
  br label %ehcleanup261

lpad174:                                          ; preds = %invoke.cont169
  %156 = landingpad { ptr, i32 }
          cleanup
  br label %ehcleanup259

lpad176:                                          ; preds = %invoke.cont175
  %157 = landingpad { ptr, i32 }
          cleanup
  br label %ehcleanup258

lpad178:                                          ; preds = %invoke.cont177
  %158 = landingpad { ptr, i32 }
          cleanup
  br label %ehcleanup257

lpad180:                                          ; preds = %invoke.cont181, %invoke.cont179
  %arrayinit.endOfInit87.13 = phi ptr [ %arrayinit.element170, %invoke.cont179 ], [ %arrayinit.element182, %invoke.cont181 ]
  %159 = landingpad { ptr, i32 }
          cleanup
  br label %ehcleanup256

lpad185:                                          ; preds = %call.i.i.i.i.i.i.noexc955
  %160 = landingpad { ptr, i32 }
          cleanup
  br label %ehcleanup255

lpad190:                                          ; preds = %invoke.cont191, %invoke.cont186
  %arrayinit.endOfInit87.15 = phi ptr [ %arrayinit.element187, %invoke.cont186 ], [ %arrayinit.element192, %invoke.cont191 ]
  %161 = landingpad { ptr, i32 }
          cleanup
  br label %ehcleanup254

lpad195:                                          ; preds = %call.i.i.i.i.i.i.noexc1001
  %162 = landingpad { ptr, i32 }
          cleanup
  br label %ehcleanup253

lpad200:                                          ; preds = %invoke.cont196
  %163 = landingpad { ptr, i32 }
          cleanup
  br label %ehcleanup252

lpad205:                                          ; preds = %invoke.cont206, %invoke.cont201
  %arrayinit.endOfInit87.18 = phi ptr [ %arrayinit.element202, %invoke.cont201 ], [ %arrayinit.element207, %invoke.cont206 ]
  %164 = landingpad { ptr, i32 }
          cleanup
  br label %ehcleanup251

lpad210:                                          ; preds = %invoke.cont211, %call.i.i.i.i.i.i.noexc1070
  %arrayinit.endOfInit87.19 = phi ptr [ %arrayinit.element207, %call.i.i.i.i.i.i.noexc1070 ], [ %arrayinit.element212, %invoke.cont211 ]
  %165 = landingpad { ptr, i32 }
          cleanup
  br label %ehcleanup250

lpad215:                                          ; preds = %call.i.i.i.i.i.i.noexc1093
  %166 = landingpad { ptr, i32 }
          cleanup
  br label %ehcleanup249

lpad220:                                          ; preds = %invoke.cont216
  %167 = landingpad { ptr, i32 }
          cleanup
  br label %ehcleanup248

lpad225:                                          ; preds = %invoke.cont221
  %168 = landingpad { ptr, i32 }
          cleanup
  br label %ehcleanup247

lpad231:                                          ; preds = %invoke.cont226
  %169 = landingpad { ptr, i32 }
          cleanup
  %arraydestroy.element244 = getelementptr inbounds %struct.TestCase, ptr %ref.tmp85, i64 24
  call void @_ZN8TestCaseD2Ev(ptr noundef nonnull align 8 dereferenceable(72) %arraydestroy.element244) #23
  %arraydestroy.element244.1 = getelementptr inbounds %struct.TestCase, ptr %ref.tmp85, i64 23
  call void @_ZN8TestCaseD2Ev(ptr noundef nonnull align 8 dereferenceable(72) %arraydestroy.element244.1) #23
  %arraydestroy.element244.2 = getelementptr inbounds %struct.TestCase, ptr %ref.tmp85, i64 22
  call void @_ZN8TestCaseD2Ev(ptr noundef nonnull align 8 dereferenceable(72) %arraydestroy.element244.2) #23
  %arraydestroy.element244.3 = getelementptr inbounds %struct.TestCase, ptr %ref.tmp85, i64 21
  call void @_ZN8TestCaseD2Ev(ptr noundef nonnull align 8 dereferenceable(72) %arraydestroy.element244.3) #23
  %arraydestroy.element244.4 = getelementptr inbounds %struct.TestCase, ptr %ref.tmp85, i64 20
  call void @_ZN8TestCaseD2Ev(ptr noundef nonnull align 8 dereferenceable(72) %arraydestroy.element244.4) #23
  %arraydestroy.element244.5 = getelementptr inbounds %struct.TestCase, ptr %ref.tmp85, i64 19
  call void @_ZN8TestCaseD2Ev(ptr noundef nonnull align 8 dereferenceable(72) %arraydestroy.element244.5) #23
  %arraydestroy.element244.6 = getelementptr inbounds %struct.TestCase, ptr %ref.tmp85, i64 18
  call void @_ZN8TestCaseD2Ev(ptr noundef nonnull align 8 dereferenceable(72) %arraydestroy.element244.6) #23
  %arraydestroy.element244.7 = getelementptr inbounds %struct.TestCase, ptr %ref.tmp85, i64 17
  call void @_ZN8TestCaseD2Ev(ptr noundef nonnull align 8 dereferenceable(72) %arraydestroy.element244.7) #23
  %arraydestroy.element244.8 = getelementptr inbounds %struct.TestCase, ptr %ref.tmp85, i64 16
  call void @_ZN8TestCaseD2Ev(ptr noundef nonnull align 8 dereferenceable(72) %arraydestroy.element244.8) #23
  %arraydestroy.element244.9 = getelementptr inbounds %struct.TestCase, ptr %ref.tmp85, i64 15
  call void @_ZN8TestCaseD2Ev(ptr noundef nonnull align 8 dereferenceable(72) %arraydestroy.element244.9) #23
  %arraydestroy.element244.10 = getelementptr inbounds %struct.TestCase, ptr %ref.tmp85, i64 14
  call void @_ZN8TestCaseD2Ev(ptr noundef nonnull align 8 dereferenceable(72) %arraydestroy.element244.10) #23
  %arraydestroy.element244.11 = getelementptr inbounds %struct.TestCase, ptr %ref.tmp85, i64 13
  call void @_ZN8TestCaseD2Ev(ptr noundef nonnull align 8 dereferenceable(72) %arraydestroy.element244.11) #23
  %arraydestroy.element244.12 = getelementptr inbounds %struct.TestCase, ptr %ref.tmp85, i64 12
  call void @_ZN8TestCaseD2Ev(ptr noundef nonnull align 8 dereferenceable(72) %arraydestroy.element244.12) #23
  %arraydestroy.element244.13 = getelementptr inbounds %struct.TestCase, ptr %ref.tmp85, i64 11
  call void @_ZN8TestCaseD2Ev(ptr noundef nonnull align 8 dereferenceable(72) %arraydestroy.element244.13) #23
  %arraydestroy.element244.14 = getelementptr inbounds %struct.TestCase, ptr %ref.tmp85, i64 10
  call void @_ZN8TestCaseD2Ev(ptr noundef nonnull align 8 dereferenceable(72) %arraydestroy.element244.14) #23
  %arraydestroy.element244.15 = getelementptr inbounds %struct.TestCase, ptr %ref.tmp85, i64 9
  call void @_ZN8TestCaseD2Ev(ptr noundef nonnull align 8 dereferenceable(72) %arraydestroy.element244.15) #23
  %arraydestroy.element244.16 = getelementptr inbounds %struct.TestCase, ptr %ref.tmp85, i64 8
  call void @_ZN8TestCaseD2Ev(ptr noundef nonnull align 8 dereferenceable(72) %arraydestroy.element244.16) #23
  %arraydestroy.element244.17 = getelementptr inbounds %struct.TestCase, ptr %ref.tmp85, i64 7
  call void @_ZN8TestCaseD2Ev(ptr noundef nonnull align 8 dereferenceable(72) %arraydestroy.element244.17) #23
  %arraydestroy.element244.18 = getelementptr inbounds %struct.TestCase, ptr %ref.tmp85, i64 6
  call void @_ZN8TestCaseD2Ev(ptr noundef nonnull align 8 dereferenceable(72) %arraydestroy.element244.18) #23
  %arraydestroy.element244.19 = getelementptr inbounds %struct.TestCase, ptr %ref.tmp85, i64 5
  call void @_ZN8TestCaseD2Ev(ptr noundef nonnull align 8 dereferenceable(72) %arraydestroy.element244.19) #23
  %arraydestroy.element244.20 = getelementptr inbounds %struct.TestCase, ptr %ref.tmp85, i64 4
  call void @_ZN8TestCaseD2Ev(ptr noundef nonnull align 8 dereferenceable(72) %arraydestroy.element244.20) #23
  %arraydestroy.element244.21 = getelementptr inbounds %struct.TestCase, ptr %ref.tmp85, i64 3
  call void @_ZN8TestCaseD2Ev(ptr noundef nonnull align 8 dereferenceable(72) %arraydestroy.element244.21) #23
  %arraydestroy.element244.22 = getelementptr inbounds %struct.TestCase, ptr %ref.tmp85, i64 2
  call void @_ZN8TestCaseD2Ev(ptr noundef nonnull align 8 dereferenceable(72) %arraydestroy.element244.22) #23
  %arraydestroy.element244.23 = getelementptr inbounds %struct.TestCase, ptr %ref.tmp85, i64 1
  call void @_ZN8TestCaseD2Ev(ptr noundef nonnull align 8 dereferenceable(72) %arraydestroy.element244.23) #23
  call void @_ZN8TestCaseD2Ev(ptr noundef nonnull align 8 dereferenceable(72) %ref.tmp85) #23
  br label %ehcleanup247

ehcleanup247:                                     ; preds = %lpad231, %lpad225
  %.pn358 = phi { ptr, i32 } [ %168, %lpad225 ], [ %169, %lpad231 ]
  %cleanup.isactive227.0 = phi i1 [ true, %lpad225 ], [ false, %lpad231 ]
  %bf.load.i.i1471 = load i8, ptr %agg.tmp223, align 8
  %bf.clear.i.i1472 = and i8 %bf.load.i.i1471, 1
  %tobool.i.not.i1473 = icmp eq i8 %bf.clear.i.i1472, 0
  br i1 %tobool.i.not.i1473, label %ehcleanup248, label %if.then.i1475

if.then.i1475:                                    ; preds = %ehcleanup247
  %__data_.i.i1474 = getelementptr inbounds %"struct.std::__1::basic_string<char>::__long", ptr %agg.tmp223, i64 0, i32 2
  %170 = load ptr, ptr %__data_.i.i1474, align 8, !tbaa !34
  call void @_ZdlPv(ptr noundef %170) #24
  br label %ehcleanup248

ehcleanup248:                                     ; preds = %if.then.i1475, %ehcleanup247, %lpad220
  %.pn358.pn = phi { ptr, i32 } [ %167, %lpad220 ], [ %.pn358, %ehcleanup247 ], [ %.pn358, %if.then.i1475 ]
  %arrayinit.endOfInit87.22 = phi ptr [ %arrayinit.element217, %lpad220 ], [ %arrayinit.element222, %ehcleanup247 ], [ %arrayinit.element222, %if.then.i1475 ]
  %cleanup.isactive227.1 = phi i1 [ true, %lpad220 ], [ %cleanup.isactive227.0, %ehcleanup247 ], [ %cleanup.isactive227.0, %if.then.i1475 ]
  %bf.load.i.i1477 = load i8, ptr %agg.tmp218, align 8
  %bf.clear.i.i1478 = and i8 %bf.load.i.i1477, 1
  %tobool.i.not.i1479 = icmp eq i8 %bf.clear.i.i1478, 0
  br i1 %tobool.i.not.i1479, label %ehcleanup249, label %if.then.i1481

if.then.i1481:                                    ; preds = %ehcleanup248
  %__data_.i.i1480 = getelementptr inbounds %"struct.std::__1::basic_string<char>::__long", ptr %agg.tmp218, i64 0, i32 2
  %171 = load ptr, ptr %__data_.i.i1480, align 8, !tbaa !34
  call void @_ZdlPv(ptr noundef %171) #24
  br label %ehcleanup249

ehcleanup249:                                     ; preds = %if.then.i1481, %ehcleanup248, %lpad215
  %.pn358.pn.pn = phi { ptr, i32 } [ %166, %lpad215 ], [ %.pn358.pn, %ehcleanup248 ], [ %.pn358.pn, %if.then.i1481 ]
  %arrayinit.endOfInit87.23 = phi ptr [ %arrayinit.element212, %lpad215 ], [ %arrayinit.endOfInit87.22, %ehcleanup248 ], [ %arrayinit.endOfInit87.22, %if.then.i1481 ]
  %cleanup.isactive227.2 = phi i1 [ true, %lpad215 ], [ %cleanup.isactive227.1, %ehcleanup248 ], [ %cleanup.isactive227.1, %if.then.i1481 ]
  %bf.load.i.i1483 = load i8, ptr %agg.tmp213, align 8
  %bf.clear.i.i1484 = and i8 %bf.load.i.i1483, 1
  %tobool.i.not.i1485 = icmp eq i8 %bf.clear.i.i1484, 0
  br i1 %tobool.i.not.i1485, label %ehcleanup250, label %if.then.i1487

if.then.i1487:                                    ; preds = %ehcleanup249
  %172 = load ptr, ptr %__data_.i23.i.i1084, align 8, !tbaa !34
  call void @_ZdlPv(ptr noundef %172) #24
  br label %ehcleanup250

ehcleanup250:                                     ; preds = %if.then.i1487, %ehcleanup249, %lpad210
  %.pn358.pn.pn.pn = phi { ptr, i32 } [ %165, %lpad210 ], [ %.pn358.pn.pn, %ehcleanup249 ], [ %.pn358.pn.pn, %if.then.i1487 ]
  %arrayinit.endOfInit87.24 = phi ptr [ %arrayinit.endOfInit87.19, %lpad210 ], [ %arrayinit.endOfInit87.23, %ehcleanup249 ], [ %arrayinit.endOfInit87.23, %if.then.i1487 ]
  %cleanup.isactive227.3 = phi i1 [ true, %lpad210 ], [ %cleanup.isactive227.2, %ehcleanup249 ], [ %cleanup.isactive227.2, %if.then.i1487 ]
  %bf.load.i.i1489 = load i8, ptr %agg.tmp208, align 8
  %bf.clear.i.i1490 = and i8 %bf.load.i.i1489, 1
  %tobool.i.not.i1491 = icmp eq i8 %bf.clear.i.i1490, 0
  br i1 %tobool.i.not.i1491, label %ehcleanup251, label %if.then.i1493

if.then.i1493:                                    ; preds = %ehcleanup250
  %173 = load ptr, ptr %__data_.i23.i.i1061, align 8, !tbaa !34
  call void @_ZdlPv(ptr noundef %173) #24
  br label %ehcleanup251

ehcleanup251:                                     ; preds = %if.then.i1493, %ehcleanup250, %lpad205
  %.pn358.pn.pn.pn.pn = phi { ptr, i32 } [ %164, %lpad205 ], [ %.pn358.pn.pn.pn, %ehcleanup250 ], [ %.pn358.pn.pn.pn, %if.then.i1493 ]
  %arrayinit.endOfInit87.25 = phi ptr [ %arrayinit.endOfInit87.18, %lpad205 ], [ %arrayinit.endOfInit87.24, %ehcleanup250 ], [ %arrayinit.endOfInit87.24, %if.then.i1493 ]
  %cleanup.isactive227.4 = phi i1 [ true, %lpad205 ], [ %cleanup.isactive227.3, %ehcleanup250 ], [ %cleanup.isactive227.3, %if.then.i1493 ]
  %bf.load.i.i1495 = load i8, ptr %agg.tmp203, align 8
  %bf.clear.i.i1496 = and i8 %bf.load.i.i1495, 1
  %tobool.i.not.i1497 = icmp eq i8 %bf.clear.i.i1496, 0
  br i1 %tobool.i.not.i1497, label %ehcleanup252, label %if.then.i1499

if.then.i1499:                                    ; preds = %ehcleanup251
  %__data_.i.i1498 = getelementptr inbounds %"struct.std::__1::basic_string<char>::__long", ptr %agg.tmp203, i64 0, i32 2
  %174 = load ptr, ptr %__data_.i.i1498, align 8, !tbaa !34
  call void @_ZdlPv(ptr noundef %174) #24
  br label %ehcleanup252

ehcleanup252:                                     ; preds = %if.then.i1499, %ehcleanup251, %lpad200
  %.pn358.pn.pn.pn.pn.pn = phi { ptr, i32 } [ %163, %lpad200 ], [ %.pn358.pn.pn.pn.pn, %ehcleanup251 ], [ %.pn358.pn.pn.pn.pn, %if.then.i1499 ]
  %arrayinit.endOfInit87.26 = phi ptr [ %arrayinit.element197, %lpad200 ], [ %arrayinit.endOfInit87.25, %ehcleanup251 ], [ %arrayinit.endOfInit87.25, %if.then.i1499 ]
  %cleanup.isactive227.5 = phi i1 [ true, %lpad200 ], [ %cleanup.isactive227.4, %ehcleanup251 ], [ %cleanup.isactive227.4, %if.then.i1499 ]
  %bf.load.i.i1501 = load i8, ptr %agg.tmp198, align 8
  %bf.clear.i.i1502 = and i8 %bf.load.i.i1501, 1
  %tobool.i.not.i1503 = icmp eq i8 %bf.clear.i.i1502, 0
  br i1 %tobool.i.not.i1503, label %ehcleanup253, label %if.then.i1505

if.then.i1505:                                    ; preds = %ehcleanup252
  %__data_.i.i1504 = getelementptr inbounds %"struct.std::__1::basic_string<char>::__long", ptr %agg.tmp198, i64 0, i32 2
  %175 = load ptr, ptr %__data_.i.i1504, align 8, !tbaa !34
  call void @_ZdlPv(ptr noundef %175) #24
  br label %ehcleanup253

ehcleanup253:                                     ; preds = %if.then.i1505, %ehcleanup252, %lpad195
  %.pn358.pn.pn.pn.pn.pn.pn = phi { ptr, i32 } [ %162, %lpad195 ], [ %.pn358.pn.pn.pn.pn.pn, %ehcleanup252 ], [ %.pn358.pn.pn.pn.pn.pn, %if.then.i1505 ]
  %arrayinit.endOfInit87.27 = phi ptr [ %arrayinit.element192, %lpad195 ], [ %arrayinit.endOfInit87.26, %ehcleanup252 ], [ %arrayinit.endOfInit87.26, %if.then.i1505 ]
  %cleanup.isactive227.6 = phi i1 [ true, %lpad195 ], [ %cleanup.isactive227.5, %ehcleanup252 ], [ %cleanup.isactive227.5, %if.then.i1505 ]
  %bf.load.i.i1507 = load i8, ptr %agg.tmp193, align 8
  %bf.clear.i.i1508 = and i8 %bf.load.i.i1507, 1
  %tobool.i.not.i1509 = icmp eq i8 %bf.clear.i.i1508, 0
  br i1 %tobool.i.not.i1509, label %ehcleanup254, label %if.then.i1511

if.then.i1511:                                    ; preds = %ehcleanup253
  %176 = load ptr, ptr %__data_.i23.i.i992, align 8, !tbaa !34
  call void @_ZdlPv(ptr noundef %176) #24
  br label %ehcleanup254

ehcleanup254:                                     ; preds = %if.then.i1511, %ehcleanup253, %lpad190
  %.pn358.pn.pn.pn.pn.pn.pn.pn = phi { ptr, i32 } [ %161, %lpad190 ], [ %.pn358.pn.pn.pn.pn.pn.pn, %ehcleanup253 ], [ %.pn358.pn.pn.pn.pn.pn.pn, %if.then.i1511 ]
  %arrayinit.endOfInit87.28 = phi ptr [ %arrayinit.endOfInit87.15, %lpad190 ], [ %arrayinit.endOfInit87.27, %ehcleanup253 ], [ %arrayinit.endOfInit87.27, %if.then.i1511 ]
  %cleanup.isactive227.7 = phi i1 [ true, %lpad190 ], [ %cleanup.isactive227.6, %ehcleanup253 ], [ %cleanup.isactive227.6, %if.then.i1511 ]
  %bf.load.i.i1513 = load i8, ptr %agg.tmp188, align 8
  %bf.clear.i.i1514 = and i8 %bf.load.i.i1513, 1
  %tobool.i.not.i1515 = icmp eq i8 %bf.clear.i.i1514, 0
  br i1 %tobool.i.not.i1515, label %ehcleanup255, label %if.then.i1517

if.then.i1517:                                    ; preds = %ehcleanup254
  %__data_.i.i1516 = getelementptr inbounds %"struct.std::__1::basic_string<char>::__long", ptr %agg.tmp188, i64 0, i32 2
  %177 = load ptr, ptr %__data_.i.i1516, align 8, !tbaa !34
  call void @_ZdlPv(ptr noundef %177) #24
  br label %ehcleanup255

ehcleanup255:                                     ; preds = %if.then.i1517, %ehcleanup254, %lpad185
  %.pn358.pn.pn.pn.pn.pn.pn.pn.pn = phi { ptr, i32 } [ %160, %lpad185 ], [ %.pn358.pn.pn.pn.pn.pn.pn.pn, %ehcleanup254 ], [ %.pn358.pn.pn.pn.pn.pn.pn.pn, %if.then.i1517 ]
  %arrayinit.endOfInit87.29 = phi ptr [ %arrayinit.element182, %lpad185 ], [ %arrayinit.endOfInit87.28, %ehcleanup254 ], [ %arrayinit.endOfInit87.28, %if.then.i1517 ]
  %cleanup.isactive227.8 = phi i1 [ true, %lpad185 ], [ %cleanup.isactive227.7, %ehcleanup254 ], [ %cleanup.isactive227.7, %if.then.i1517 ]
  %bf.load.i.i1519 = load i8, ptr %agg.tmp183, align 8
  %bf.clear.i.i1520 = and i8 %bf.load.i.i1519, 1
  %tobool.i.not.i1521 = icmp eq i8 %bf.clear.i.i1520, 0
  br i1 %tobool.i.not.i1521, label %ehcleanup256, label %if.then.i1523

if.then.i1523:                                    ; preds = %ehcleanup255
  %178 = load ptr, ptr %__data_.i23.i.i946, align 8, !tbaa !34
  call void @_ZdlPv(ptr noundef %178) #24
  br label %ehcleanup256

ehcleanup256:                                     ; preds = %if.then.i1523, %ehcleanup255, %lpad180
  %.pn358.pn.pn.pn.pn.pn.pn.pn.pn.pn = phi { ptr, i32 } [ %159, %lpad180 ], [ %.pn358.pn.pn.pn.pn.pn.pn.pn.pn, %ehcleanup255 ], [ %.pn358.pn.pn.pn.pn.pn.pn.pn.pn, %if.then.i1523 ]
  %arrayinit.endOfInit87.30 = phi ptr [ %arrayinit.endOfInit87.13, %lpad180 ], [ %arrayinit.endOfInit87.29, %ehcleanup255 ], [ %arrayinit.endOfInit87.29, %if.then.i1523 ]
  %cleanup.isactive227.9 = phi i1 [ true, %lpad180 ], [ %cleanup.isactive227.8, %ehcleanup255 ], [ %cleanup.isactive227.8, %if.then.i1523 ]
  %bf.load.i.i1525 = load i8, ptr %agg.tmp171, align 8
  %bf.clear.i.i1526 = and i8 %bf.load.i.i1525, 1
  %tobool.i.not.i1527 = icmp eq i8 %bf.clear.i.i1526, 0
  br i1 %tobool.i.not.i1527, label %ehcleanup257, label %if.then.i1529

if.then.i1529:                                    ; preds = %ehcleanup256
  %__data_.i.i1528 = getelementptr inbounds %"struct.std::__1::basic_string<char>::__long", ptr %agg.tmp171, i64 0, i32 2
  %179 = load ptr, ptr %__data_.i.i1528, align 8, !tbaa !34
  call void @_ZdlPv(ptr noundef %179) #24
  br label %ehcleanup257

ehcleanup257:                                     ; preds = %if.then.i1529, %ehcleanup256, %lpad178
  %.pn358.pn.pn.pn.pn.pn.pn.pn.pn.pn.pn = phi { ptr, i32 } [ %158, %lpad178 ], [ %.pn358.pn.pn.pn.pn.pn.pn.pn.pn.pn, %ehcleanup256 ], [ %.pn358.pn.pn.pn.pn.pn.pn.pn.pn.pn, %if.then.i1529 ]
  %arrayinit.endOfInit87.31 = phi ptr [ %arrayinit.element170, %lpad178 ], [ %arrayinit.endOfInit87.30, %ehcleanup256 ], [ %arrayinit.endOfInit87.30, %if.then.i1529 ]
  %cleanup.isactive227.10 = phi i1 [ true, %lpad178 ], [ %cleanup.isactive227.9, %ehcleanup256 ], [ %cleanup.isactive227.9, %if.then.i1529 ]
  %bf.load.i.i1531 = load i8, ptr %ref.tmp172, align 8
  %bf.clear.i.i1532 = and i8 %bf.load.i.i1531, 1
  %tobool.i.not.i1533 = icmp eq i8 %bf.clear.i.i1532, 0
  br i1 %tobool.i.not.i1533, label %ehcleanup258, label %if.then.i1535

if.then.i1535:                                    ; preds = %ehcleanup257
  %__data_.i.i1534 = getelementptr inbounds %"struct.std::__1::basic_string<char>::__long", ptr %ref.tmp172, i64 0, i32 2
  %180 = load ptr, ptr %__data_.i.i1534, align 8, !tbaa !34
  call void @_ZdlPv(ptr noundef %180) #24
  br label %ehcleanup258

ehcleanup258:                                     ; preds = %if.then.i1535, %ehcleanup257, %lpad176
  %.pn358.pn.pn.pn.pn.pn.pn.pn.pn.pn.pn.pn = phi { ptr, i32 } [ %157, %lpad176 ], [ %.pn358.pn.pn.pn.pn.pn.pn.pn.pn.pn.pn, %ehcleanup257 ], [ %.pn358.pn.pn.pn.pn.pn.pn.pn.pn.pn.pn, %if.then.i1535 ]
  %arrayinit.endOfInit87.32 = phi ptr [ %arrayinit.element170, %lpad176 ], [ %arrayinit.endOfInit87.31, %ehcleanup257 ], [ %arrayinit.endOfInit87.31, %if.then.i1535 ]
  %cleanup.isactive227.11 = phi i1 [ true, %lpad176 ], [ %cleanup.isactive227.10, %ehcleanup257 ], [ %cleanup.isactive227.10, %if.then.i1535 ]
  %bf.load.i.i1537 = load i8, ptr %ref.tmp173, align 8
  %bf.clear.i.i1538 = and i8 %bf.load.i.i1537, 1
  %tobool.i.not.i1539 = icmp eq i8 %bf.clear.i.i1538, 0
  br i1 %tobool.i.not.i1539, label %ehcleanup259, label %if.then.i1541

if.then.i1541:                                    ; preds = %ehcleanup258
  %__data_.i.i1540 = getelementptr inbounds %"struct.std::__1::basic_string<char>::__long", ptr %ref.tmp173, i64 0, i32 2
  %181 = load ptr, ptr %__data_.i.i1540, align 8, !tbaa !34
  call void @_ZdlPv(ptr noundef %181) #24
  br label %ehcleanup259

ehcleanup259:                                     ; preds = %if.then.i1541, %ehcleanup258, %lpad174
  %.pn358.pn.pn.pn.pn.pn.pn.pn.pn.pn.pn.pn.pn = phi { ptr, i32 } [ %156, %lpad174 ], [ %.pn358.pn.pn.pn.pn.pn.pn.pn.pn.pn.pn.pn, %ehcleanup258 ], [ %.pn358.pn.pn.pn.pn.pn.pn.pn.pn.pn.pn.pn, %if.then.i1541 ]
  %arrayinit.endOfInit87.33 = phi ptr [ %arrayinit.element170, %lpad174 ], [ %arrayinit.endOfInit87.32, %ehcleanup258 ], [ %arrayinit.endOfInit87.32, %if.then.i1541 ]
  %cleanup.isactive227.12 = phi i1 [ true, %lpad174 ], [ %cleanup.isactive227.11, %ehcleanup258 ], [ %cleanup.isactive227.11, %if.then.i1541 ]
  call void @llvm.lifetime.end.p0(i64 24, ptr nonnull %ref.tmp173) #23
  call void @llvm.lifetime.end.p0(i64 24, ptr nonnull %ref.tmp172) #23
  br label %ehcleanup261

ehcleanup261:                                     ; preds = %ehcleanup259, %lpad168
  %.pn358.pn.pn.pn.pn.pn.pn.pn.pn.pn.pn.pn.pn.pn = phi { ptr, i32 } [ %.pn358.pn.pn.pn.pn.pn.pn.pn.pn.pn.pn.pn.pn, %ehcleanup259 ], [ %155, %lpad168 ]
  %arrayinit.endOfInit87.34 = phi ptr [ %arrayinit.endOfInit87.33, %ehcleanup259 ], [ %arrayinit.element165, %lpad168 ]
  %cleanup.isactive227.13 = phi i1 [ %cleanup.isactive227.12, %ehcleanup259 ], [ true, %lpad168 ]
  %bf.load.i.i1543 = load i8, ptr %agg.tmp166, align 8
  %bf.clear.i.i1544 = and i8 %bf.load.i.i1543, 1
  %tobool.i.not.i1545 = icmp eq i8 %bf.clear.i.i1544, 0
  br i1 %tobool.i.not.i1545, label %ehcleanup262, label %if.then.i1547

if.then.i1547:                                    ; preds = %ehcleanup261
  %__data_.i.i1546 = getelementptr inbounds %"struct.std::__1::basic_string<char>::__long", ptr %agg.tmp166, i64 0, i32 2
  %182 = load ptr, ptr %__data_.i.i1546, align 8, !tbaa !34
  call void @_ZdlPv(ptr noundef %182) #24
  br label %ehcleanup262

ehcleanup262:                                     ; preds = %if.then.i1547, %ehcleanup261, %lpad163
  %.pn358.pn.pn.pn.pn.pn.pn.pn.pn.pn.pn.pn.pn.pn.pn = phi { ptr, i32 } [ %154, %lpad163 ], [ %.pn358.pn.pn.pn.pn.pn.pn.pn.pn.pn.pn.pn.pn.pn, %ehcleanup261 ], [ %.pn358.pn.pn.pn.pn.pn.pn.pn.pn.pn.pn.pn.pn.pn, %if.then.i1547 ]
  %arrayinit.endOfInit87.35 = phi ptr [ %arrayinit.element160, %lpad163 ], [ %arrayinit.endOfInit87.34, %ehcleanup261 ], [ %arrayinit.endOfInit87.34, %if.then.i1547 ]
  %cleanup.isactive227.14 = phi i1 [ true, %lpad163 ], [ %cleanup.isactive227.13, %ehcleanup261 ], [ %cleanup.isactive227.13, %if.then.i1547 ]
  %bf.load.i.i1549 = load i8, ptr %agg.tmp161, align 8
  %bf.clear.i.i1550 = and i8 %bf.load.i.i1549, 1
  %tobool.i.not.i1551 = icmp eq i8 %bf.clear.i.i1550, 0
  br i1 %tobool.i.not.i1551, label %ehcleanup263, label %if.then.i1553

if.then.i1553:                                    ; preds = %ehcleanup262
  %__data_.i.i1552 = getelementptr inbounds %"struct.std::__1::basic_string<char>::__long", ptr %agg.tmp161, i64 0, i32 2
  %183 = load ptr, ptr %__data_.i.i1552, align 8, !tbaa !34
  call void @_ZdlPv(ptr noundef %183) #24
  br label %ehcleanup263

ehcleanup263:                                     ; preds = %if.then.i1553, %ehcleanup262, %lpad158
  %.pn358.pn.pn.pn.pn.pn.pn.pn.pn.pn.pn.pn.pn.pn.pn.pn = phi { ptr, i32 } [ %153, %lpad158 ], [ %.pn358.pn.pn.pn.pn.pn.pn.pn.pn.pn.pn.pn.pn.pn.pn, %ehcleanup262 ], [ %.pn358.pn.pn.pn.pn.pn.pn.pn.pn.pn.pn.pn.pn.pn.pn, %if.then.i1553 ]
  %arrayinit.endOfInit87.36 = phi ptr [ %arrayinit.element155, %lpad158 ], [ %arrayinit.endOfInit87.35, %ehcleanup262 ], [ %arrayinit.endOfInit87.35, %if.then.i1553 ]
  %cleanup.isactive227.15 = phi i1 [ true, %lpad158 ], [ %cleanup.isactive227.14, %ehcleanup262 ], [ %cleanup.isactive227.14, %if.then.i1553 ]
  %bf.load.i.i1555 = load i8, ptr %agg.tmp156, align 8
  %bf.clear.i.i1556 = and i8 %bf.load.i.i1555, 1
  %tobool.i.not.i1557 = icmp eq i8 %bf.clear.i.i1556, 0
  br i1 %tobool.i.not.i1557, label %ehcleanup264, label %if.then.i1559

if.then.i1559:                                    ; preds = %ehcleanup263
  %__data_.i.i1558 = getelementptr inbounds %"struct.std::__1::basic_string<char>::__long", ptr %agg.tmp156, i64 0, i32 2
  %184 = load ptr, ptr %__data_.i.i1558, align 8, !tbaa !34
  call void @_ZdlPv(ptr noundef %184) #24
  br label %ehcleanup264

ehcleanup264:                                     ; preds = %if.then.i1559, %ehcleanup263, %lpad153
  %.pn358.pn.pn.pn.pn.pn.pn.pn.pn.pn.pn.pn.pn.pn.pn.pn.pn = phi { ptr, i32 } [ %152, %lpad153 ], [ %.pn358.pn.pn.pn.pn.pn.pn.pn.pn.pn.pn.pn.pn.pn.pn.pn, %ehcleanup263 ], [ %.pn358.pn.pn.pn.pn.pn.pn.pn.pn.pn.pn.pn.pn.pn.pn.pn, %if.then.i1559 ]
  %arrayinit.endOfInit87.37 = phi ptr [ %arrayinit.element150, %lpad153 ], [ %arrayinit.endOfInit87.36, %ehcleanup263 ], [ %arrayinit.endOfInit87.36, %if.then.i1559 ]
  %cleanup.isactive227.16 = phi i1 [ true, %lpad153 ], [ %cleanup.isactive227.15, %ehcleanup263 ], [ %cleanup.isactive227.15, %if.then.i1559 ]
  %bf.load.i.i1561 = load i8, ptr %agg.tmp151, align 8
  %bf.clear.i.i1562 = and i8 %bf.load.i.i1561, 1
  %tobool.i.not.i1563 = icmp eq i8 %bf.clear.i.i1562, 0
  br i1 %tobool.i.not.i1563, label %ehcleanup265, label %if.then.i1565

if.then.i1565:                                    ; preds = %ehcleanup264
  %__data_.i.i1564 = getelementptr inbounds %"struct.std::__1::basic_string<char>::__long", ptr %agg.tmp151, i64 0, i32 2
  %185 = load ptr, ptr %__data_.i.i1564, align 8, !tbaa !34
  call void @_ZdlPv(ptr noundef %185) #24
  br label %ehcleanup265

ehcleanup265:                                     ; preds = %if.then.i1565, %ehcleanup264, %lpad148
  %.pn358.pn.pn.pn.pn.pn.pn.pn.pn.pn.pn.pn.pn.pn.pn.pn.pn.pn = phi { ptr, i32 } [ %151, %lpad148 ], [ %.pn358.pn.pn.pn.pn.pn.pn.pn.pn.pn.pn.pn.pn.pn.pn.pn.pn, %ehcleanup264 ], [ %.pn358.pn.pn.pn.pn.pn.pn.pn.pn.pn.pn.pn.pn.pn.pn.pn.pn, %if.then.i1565 ]
  %arrayinit.endOfInit87.38 = phi ptr [ %arrayinit.element145, %lpad148 ], [ %arrayinit.endOfInit87.37, %ehcleanup264 ], [ %arrayinit.endOfInit87.37, %if.then.i1565 ]
  %cleanup.isactive227.17 = phi i1 [ true, %lpad148 ], [ %cleanup.isactive227.16, %ehcleanup264 ], [ %cleanup.isactive227.16, %if.then.i1565 ]
  %bf.load.i.i1567 = load i8, ptr %agg.tmp146, align 8
  %bf.clear.i.i1568 = and i8 %bf.load.i.i1567, 1
  %tobool.i.not.i1569 = icmp eq i8 %bf.clear.i.i1568, 0
  br i1 %tobool.i.not.i1569, label %ehcleanup266, label %if.then.i1571

if.then.i1571:                                    ; preds = %ehcleanup265
  %186 = load ptr, ptr %__data_.i23.i.i827, align 8, !tbaa !34
  call void @_ZdlPv(ptr noundef %186) #24
  br label %ehcleanup266

ehcleanup266:                                     ; preds = %if.then.i1571, %ehcleanup265, %lpad143
  %.pn358.pn.pn.pn.pn.pn.pn.pn.pn.pn.pn.pn.pn.pn.pn.pn.pn.pn.pn = phi { ptr, i32 } [ %150, %lpad143 ], [ %.pn358.pn.pn.pn.pn.pn.pn.pn.pn.pn.pn.pn.pn.pn.pn.pn.pn.pn, %ehcleanup265 ], [ %.pn358.pn.pn.pn.pn.pn.pn.pn.pn.pn.pn.pn.pn.pn.pn.pn.pn.pn, %if.then.i1571 ]
  %arrayinit.endOfInit87.39 = phi ptr [ %arrayinit.endOfInit87.8, %lpad143 ], [ %arrayinit.endOfInit87.38, %ehcleanup265 ], [ %arrayinit.endOfInit87.38, %if.then.i1571 ]
  %cleanup.isactive227.18 = phi i1 [ true, %lpad143 ], [ %cleanup.isactive227.17, %ehcleanup265 ], [ %cleanup.isactive227.17, %if.then.i1571 ]
  %bf.load.i.i1573 = load i8, ptr %agg.tmp141, align 8
  %bf.clear.i.i1574 = and i8 %bf.load.i.i1573, 1
  %tobool.i.not.i1575 = icmp eq i8 %bf.clear.i.i1574, 0
  br i1 %tobool.i.not.i1575, label %ehcleanup267, label %if.then.i1577

if.then.i1577:                                    ; preds = %ehcleanup266
  %187 = load ptr, ptr %__data_.i23.i.i804, align 8, !tbaa !34
  call void @_ZdlPv(ptr noundef %187) #24
  br label %ehcleanup267

ehcleanup267:                                     ; preds = %if.then.i1577, %ehcleanup266, %lpad138
  %.pn358.pn.pn.pn.pn.pn.pn.pn.pn.pn.pn.pn.pn.pn.pn.pn.pn.pn.pn.pn = phi { ptr, i32 } [ %149, %lpad138 ], [ %.pn358.pn.pn.pn.pn.pn.pn.pn.pn.pn.pn.pn.pn.pn.pn.pn.pn.pn.pn, %ehcleanup266 ], [ %.pn358.pn.pn.pn.pn.pn.pn.pn.pn.pn.pn.pn.pn.pn.pn.pn.pn.pn.pn, %if.then.i1577 ]
  %arrayinit.endOfInit87.40 = phi ptr [ %arrayinit.endOfInit87.7, %lpad138 ], [ %arrayinit.endOfInit87.39, %ehcleanup266 ], [ %arrayinit.endOfInit87.39, %if.then.i1577 ]
  %cleanup.isactive227.19 = phi i1 [ true, %lpad138 ], [ %cleanup.isactive227.18, %ehcleanup266 ], [ %cleanup.isactive227.18, %if.then.i1577 ]
  %bf.load.i.i1579 = load i8, ptr %agg.tmp136, align 8
  %bf.clear.i.i1580 = and i8 %bf.load.i.i1579, 1
  %tobool.i.not.i1581 = icmp eq i8 %bf.clear.i.i1580, 0
  br i1 %tobool.i.not.i1581, label %ehcleanup268, label %if.then.i1583

if.then.i1583:                                    ; preds = %ehcleanup267
  %188 = load ptr, ptr %__data_.i23.i.i781, align 8, !tbaa !34
  call void @_ZdlPv(ptr noundef %188) #24
  br label %ehcleanup268

ehcleanup268:                                     ; preds = %if.then.i1583, %ehcleanup267, %lpad133
  %.pn358.pn.pn.pn.pn.pn.pn.pn.pn.pn.pn.pn.pn.pn.pn.pn.pn.pn.pn.pn.pn = phi { ptr, i32 } [ %148, %lpad133 ], [ %.pn358.pn.pn.pn.pn.pn.pn.pn.pn.pn.pn.pn.pn.pn.pn.pn.pn.pn.pn.pn, %ehcleanup267 ], [ %.pn358.pn.pn.pn.pn.pn.pn.pn.pn.pn.pn.pn.pn.pn.pn.pn.pn.pn.pn.pn, %if.then.i1583 ]
  %arrayinit.endOfInit87.41 = phi ptr [ %arrayinit.endOfInit87.6, %lpad133 ], [ %arrayinit.endOfInit87.40, %ehcleanup267 ], [ %arrayinit.endOfInit87.40, %if.then.i1583 ]
  %cleanup.isactive227.20 = phi i1 [ true, %lpad133 ], [ %cleanup.isactive227.19, %ehcleanup267 ], [ %cleanup.isactive227.19, %if.then.i1583 ]
  %bf.load.i.i1585 = load i8, ptr %agg.tmp131, align 8
  %bf.clear.i.i1586 = and i8 %bf.load.i.i1585, 1
  %tobool.i.not.i1587 = icmp eq i8 %bf.clear.i.i1586, 0
  br i1 %tobool.i.not.i1587, label %ehcleanup269, label %if.then.i1589

if.then.i1589:                                    ; preds = %ehcleanup268
  %189 = load ptr, ptr %__data_.i23.i.i758, align 8, !tbaa !34
  call void @_ZdlPv(ptr noundef %189) #24
  br label %ehcleanup269

ehcleanup269:                                     ; preds = %if.then.i1589, %ehcleanup268, %lpad128
  %.pn358.pn.pn.pn.pn.pn.pn.pn.pn.pn.pn.pn.pn.pn.pn.pn.pn.pn.pn.pn.pn.pn = phi { ptr, i32 } [ %147, %lpad128 ], [ %.pn358.pn.pn.pn.pn.pn.pn.pn.pn.pn.pn.pn.pn.pn.pn.pn.pn.pn.pn.pn.pn, %ehcleanup268 ], [ %.pn358.pn.pn.pn.pn.pn.pn.pn.pn.pn.pn.pn.pn.pn.pn.pn.pn.pn.pn.pn.pn, %if.then.i1589 ]
  %arrayinit.endOfInit87.42 = phi ptr [ %arrayinit.endOfInit87.5, %lpad128 ], [ %arrayinit.endOfInit87.41, %ehcleanup268 ], [ %arrayinit.endOfInit87.41, %if.then.i1589 ]
  %cleanup.isactive227.21 = phi i1 [ true, %lpad128 ], [ %cleanup.isactive227.20, %ehcleanup268 ], [ %cleanup.isactive227.20, %if.then.i1589 ]
  %bf.load.i.i1591 = load i8, ptr %agg.tmp126, align 8
  %bf.clear.i.i1592 = and i8 %bf.load.i.i1591, 1
  %tobool.i.not.i1593 = icmp eq i8 %bf.clear.i.i1592, 0
  br i1 %tobool.i.not.i1593, label %ehcleanup270, label %if.then.i1595

if.then.i1595:                                    ; preds = %ehcleanup269
  %__data_.i.i1594 = getelementptr inbounds %"struct.std::__1::basic_string<char>::__long", ptr %agg.tmp126, i64 0, i32 2
  %190 = load ptr, ptr %__data_.i.i1594, align 8, !tbaa !34
  call void @_ZdlPv(ptr noundef %190) #24
  br label %ehcleanup270

ehcleanup270:                                     ; preds = %if.then.i1595, %ehcleanup269, %lpad123
  %.pn358.pn.pn.pn.pn.pn.pn.pn.pn.pn.pn.pn.pn.pn.pn.pn.pn.pn.pn.pn.pn.pn.pn = phi { ptr, i32 } [ %146, %lpad123 ], [ %.pn358.pn.pn.pn.pn.pn.pn.pn.pn.pn.pn.pn.pn.pn.pn.pn.pn.pn.pn.pn.pn.pn, %ehcleanup269 ], [ %.pn358.pn.pn.pn.pn.pn.pn.pn.pn.pn.pn.pn.pn.pn.pn.pn.pn.pn.pn.pn.pn.pn, %if.then.i1595 ]
  %arrayinit.endOfInit87.43 = phi ptr [ %arrayinit.element120, %lpad123 ], [ %arrayinit.endOfInit87.42, %ehcleanup269 ], [ %arrayinit.endOfInit87.42, %if.then.i1595 ]
  %cleanup.isactive227.22 = phi i1 [ true, %lpad123 ], [ %cleanup.isactive227.21, %ehcleanup269 ], [ %cleanup.isactive227.21, %if.then.i1595 ]
  %bf.load.i.i1597 = load i8, ptr %agg.tmp121, align 8
  %bf.clear.i.i1598 = and i8 %bf.load.i.i1597, 1
  %tobool.i.not.i1599 = icmp eq i8 %bf.clear.i.i1598, 0
  br i1 %tobool.i.not.i1599, label %ehcleanup271, label %if.then.i1601

if.then.i1601:                                    ; preds = %ehcleanup270
  %__data_.i.i1600 = getelementptr inbounds %"struct.std::__1::basic_string<char>::__long", ptr %agg.tmp121, i64 0, i32 2
  %191 = load ptr, ptr %__data_.i.i1600, align 8, !tbaa !34
  call void @_ZdlPv(ptr noundef %191) #24
  br label %ehcleanup271

ehcleanup271:                                     ; preds = %if.then.i1601, %ehcleanup270, %lpad118
  %.pn358.pn.pn.pn.pn.pn.pn.pn.pn.pn.pn.pn.pn.pn.pn.pn.pn.pn.pn.pn.pn.pn.pn.pn = phi { ptr, i32 } [ %145, %lpad118 ], [ %.pn358.pn.pn.pn.pn.pn.pn.pn.pn.pn.pn.pn.pn.pn.pn.pn.pn.pn.pn.pn.pn.pn.pn, %ehcleanup270 ], [ %.pn358.pn.pn.pn.pn.pn.pn.pn.pn.pn.pn.pn.pn.pn.pn.pn.pn.pn.pn.pn.pn.pn.pn, %if.then.i1601 ]
  %arrayinit.endOfInit87.44 = phi ptr [ %arrayinit.element115, %lpad118 ], [ %arrayinit.endOfInit87.43, %ehcleanup270 ], [ %arrayinit.endOfInit87.43, %if.then.i1601 ]
  %cleanup.isactive227.23 = phi i1 [ true, %lpad118 ], [ %cleanup.isactive227.22, %ehcleanup270 ], [ %cleanup.isactive227.22, %if.then.i1601 ]
  %bf.load.i.i1603 = load i8, ptr %agg.tmp116, align 8
  %bf.clear.i.i1604 = and i8 %bf.load.i.i1603, 1
  %tobool.i.not.i1605 = icmp eq i8 %bf.clear.i.i1604, 0
  br i1 %tobool.i.not.i1605, label %ehcleanup272, label %if.then.i1607

if.then.i1607:                                    ; preds = %ehcleanup271
  %192 = load ptr, ptr %__data_.i23.i.i689, align 8, !tbaa !34
  call void @_ZdlPv(ptr noundef %192) #24
  br label %ehcleanup272

ehcleanup272:                                     ; preds = %if.then.i1607, %ehcleanup271, %lpad113
  %.pn358.pn.pn.pn.pn.pn.pn.pn.pn.pn.pn.pn.pn.pn.pn.pn.pn.pn.pn.pn.pn.pn.pn.pn.pn = phi { ptr, i32 } [ %144, %lpad113 ], [ %.pn358.pn.pn.pn.pn.pn.pn.pn.pn.pn.pn.pn.pn.pn.pn.pn.pn.pn.pn.pn.pn.pn.pn.pn, %ehcleanup271 ], [ %.pn358.pn.pn.pn.pn.pn.pn.pn.pn.pn.pn.pn.pn.pn.pn.pn.pn.pn.pn.pn.pn.pn.pn.pn, %if.then.i1607 ]
  %arrayinit.endOfInit87.45 = phi ptr [ %arrayinit.endOfInit87.2, %lpad113 ], [ %arrayinit.endOfInit87.44, %ehcleanup271 ], [ %arrayinit.endOfInit87.44, %if.then.i1607 ]
  %cleanup.isactive227.24 = phi i1 [ true, %lpad113 ], [ %cleanup.isactive227.23, %ehcleanup271 ], [ %cleanup.isactive227.23, %if.then.i1607 ]
  %bf.load.i.i1609 = load i8, ptr %agg.tmp111, align 8
  %bf.clear.i.i1610 = and i8 %bf.load.i.i1609, 1
  %tobool.i.not.i1611 = icmp eq i8 %bf.clear.i.i1610, 0
  br i1 %tobool.i.not.i1611, label %ehcleanup273, label %if.then.i1613

if.then.i1613:                                    ; preds = %ehcleanup272
  %__data_.i.i1612 = getelementptr inbounds %"struct.std::__1::basic_string<char>::__long", ptr %agg.tmp111, i64 0, i32 2
  %193 = load ptr, ptr %__data_.i.i1612, align 8, !tbaa !34
  call void @_ZdlPv(ptr noundef %193) #24
  br label %ehcleanup273

ehcleanup273:                                     ; preds = %if.then.i1613, %ehcleanup272, %lpad108
  %.pn358.pn.pn.pn.pn.pn.pn.pn.pn.pn.pn.pn.pn.pn.pn.pn.pn.pn.pn.pn.pn.pn.pn.pn.pn.pn = phi { ptr, i32 } [ %143, %lpad108 ], [ %.pn358.pn.pn.pn.pn.pn.pn.pn.pn.pn.pn.pn.pn.pn.pn.pn.pn.pn.pn.pn.pn.pn.pn.pn.pn, %ehcleanup272 ], [ %.pn358.pn.pn.pn.pn.pn.pn.pn.pn.pn.pn.pn.pn.pn.pn.pn.pn.pn.pn.pn.pn.pn.pn.pn.pn, %if.then.i1613 ]
  %arrayinit.endOfInit87.46 = phi ptr [ %arrayinit.element105, %lpad108 ], [ %arrayinit.endOfInit87.45, %ehcleanup272 ], [ %arrayinit.endOfInit87.45, %if.then.i1613 ]
  %cleanup.isactive227.25 = phi i1 [ true, %lpad108 ], [ %cleanup.isactive227.24, %ehcleanup272 ], [ %cleanup.isactive227.24, %if.then.i1613 ]
  %bf.load.i.i1615 = load i8, ptr %agg.tmp106, align 8
  %bf.clear.i.i1616 = and i8 %bf.load.i.i1615, 1
  %tobool.i.not.i1617 = icmp eq i8 %bf.clear.i.i1616, 0
  br i1 %tobool.i.not.i1617, label %ehcleanup274, label %if.then.i1619

if.then.i1619:                                    ; preds = %ehcleanup273
  %194 = load ptr, ptr %__data_.i23.i.i643, align 8, !tbaa !34
  call void @_ZdlPv(ptr noundef %194) #24
  br label %ehcleanup274

ehcleanup274:                                     ; preds = %if.then.i1619, %ehcleanup273, %lpad103
  %.pn358.pn.pn.pn.pn.pn.pn.pn.pn.pn.pn.pn.pn.pn.pn.pn.pn.pn.pn.pn.pn.pn.pn.pn.pn.pn.pn = phi { ptr, i32 } [ %142, %lpad103 ], [ %.pn358.pn.pn.pn.pn.pn.pn.pn.pn.pn.pn.pn.pn.pn.pn.pn.pn.pn.pn.pn.pn.pn.pn.pn.pn.pn, %ehcleanup273 ], [ %.pn358.pn.pn.pn.pn.pn.pn.pn.pn.pn.pn.pn.pn.pn.pn.pn.pn.pn.pn.pn.pn.pn.pn.pn.pn.pn, %if.then.i1619 ]
  %arrayinit.endOfInit87.47 = phi ptr [ %arrayinit.endOfInit87.0, %lpad103 ], [ %arrayinit.endOfInit87.46, %ehcleanup273 ], [ %arrayinit.endOfInit87.46, %if.then.i1619 ]
  %cleanup.isactive227.26 = phi i1 [ true, %lpad103 ], [ %cleanup.isactive227.25, %ehcleanup273 ], [ %cleanup.isactive227.25, %if.then.i1619 ]
  %bf.load.i.i1621 = load i8, ptr %agg.tmp94, align 8
  %bf.clear.i.i1622 = and i8 %bf.load.i.i1621, 1
  %tobool.i.not.i1623 = icmp eq i8 %bf.clear.i.i1622, 0
  br i1 %tobool.i.not.i1623, label %ehcleanup275, label %if.then.i1625

if.then.i1625:                                    ; preds = %ehcleanup274
  %__data_.i.i1624 = getelementptr inbounds %"struct.std::__1::basic_string<char>::__long", ptr %agg.tmp94, i64 0, i32 2
  %195 = load ptr, ptr %__data_.i.i1624, align 8, !tbaa !34
  call void @_ZdlPv(ptr noundef %195) #24
  br label %ehcleanup275

ehcleanup275:                                     ; preds = %if.then.i1625, %ehcleanup274, %lpad101
  %.pn358.pn.pn.pn.pn.pn.pn.pn.pn.pn.pn.pn.pn.pn.pn.pn.pn.pn.pn.pn.pn.pn.pn.pn.pn.pn.pn.pn = phi { ptr, i32 } [ %141, %lpad101 ], [ %.pn358.pn.pn.pn.pn.pn.pn.pn.pn.pn.pn.pn.pn.pn.pn.pn.pn.pn.pn.pn.pn.pn.pn.pn.pn.pn.pn, %ehcleanup274 ], [ %.pn358.pn.pn.pn.pn.pn.pn.pn.pn.pn.pn.pn.pn.pn.pn.pn.pn.pn.pn.pn.pn.pn.pn.pn.pn.pn.pn, %if.then.i1625 ]
  %arrayinit.endOfInit87.48 = phi ptr [ %arrayinit.element93, %lpad101 ], [ %arrayinit.endOfInit87.47, %ehcleanup274 ], [ %arrayinit.endOfInit87.47, %if.then.i1625 ]
  %cleanup.isactive227.27 = phi i1 [ true, %lpad101 ], [ %cleanup.isactive227.26, %ehcleanup274 ], [ %cleanup.isactive227.26, %if.then.i1625 ]
  %bf.load.i.i1627 = load i8, ptr %ref.tmp95, align 8
  %bf.clear.i.i1628 = and i8 %bf.load.i.i1627, 1
  %tobool.i.not.i1629 = icmp eq i8 %bf.clear.i.i1628, 0
  br i1 %tobool.i.not.i1629, label %ehcleanup276, label %if.then.i1631

if.then.i1631:                                    ; preds = %ehcleanup275
  %__data_.i.i1630 = getelementptr inbounds %"struct.std::__1::basic_string<char>::__long", ptr %ref.tmp95, i64 0, i32 2
  %196 = load ptr, ptr %__data_.i.i1630, align 8, !tbaa !34
  call void @_ZdlPv(ptr noundef %196) #24
  br label %ehcleanup276

ehcleanup276:                                     ; preds = %if.then.i1631, %ehcleanup275, %lpad99
  %.pn358.pn.pn.pn.pn.pn.pn.pn.pn.pn.pn.pn.pn.pn.pn.pn.pn.pn.pn.pn.pn.pn.pn.pn.pn.pn.pn.pn.pn = phi { ptr, i32 } [ %140, %lpad99 ], [ %.pn358.pn.pn.pn.pn.pn.pn.pn.pn.pn.pn.pn.pn.pn.pn.pn.pn.pn.pn.pn.pn.pn.pn.pn.pn.pn.pn.pn, %ehcleanup275 ], [ %.pn358.pn.pn.pn.pn.pn.pn.pn.pn.pn.pn.pn.pn.pn.pn.pn.pn.pn.pn.pn.pn.pn.pn.pn.pn.pn.pn.pn, %if.then.i1631 ]
  %arrayinit.endOfInit87.49 = phi ptr [ %arrayinit.element93, %lpad99 ], [ %arrayinit.endOfInit87.48, %ehcleanup275 ], [ %arrayinit.endOfInit87.48, %if.then.i1631 ]
  %cleanup.isactive227.28 = phi i1 [ true, %lpad99 ], [ %cleanup.isactive227.27, %ehcleanup275 ], [ %cleanup.isactive227.27, %if.then.i1631 ]
  %bf.load.i.i1633 = load i8, ptr %ref.tmp96, align 8
  %bf.clear.i.i1634 = and i8 %bf.load.i.i1633, 1
  %tobool.i.not.i1635 = icmp eq i8 %bf.clear.i.i1634, 0
  br i1 %tobool.i.not.i1635, label %ehcleanup277, label %if.then.i1637

if.then.i1637:                                    ; preds = %ehcleanup276
  %__data_.i.i1636 = getelementptr inbounds %"struct.std::__1::basic_string<char>::__long", ptr %ref.tmp96, i64 0, i32 2
  %197 = load ptr, ptr %__data_.i.i1636, align 8, !tbaa !34
  call void @_ZdlPv(ptr noundef %197) #24
  br label %ehcleanup277

ehcleanup277:                                     ; preds = %if.then.i1637, %ehcleanup276, %lpad97
  %.pn358.pn.pn.pn.pn.pn.pn.pn.pn.pn.pn.pn.pn.pn.pn.pn.pn.pn.pn.pn.pn.pn.pn.pn.pn.pn.pn.pn.pn.pn = phi { ptr, i32 } [ %139, %lpad97 ], [ %.pn358.pn.pn.pn.pn.pn.pn.pn.pn.pn.pn.pn.pn.pn.pn.pn.pn.pn.pn.pn.pn.pn.pn.pn.pn.pn.pn.pn.pn, %ehcleanup276 ], [ %.pn358.pn.pn.pn.pn.pn.pn.pn.pn.pn.pn.pn.pn.pn.pn.pn.pn.pn.pn.pn.pn.pn.pn.pn.pn.pn.pn.pn.pn, %if.then.i1637 ]
  %arrayinit.endOfInit87.50 = phi ptr [ %arrayinit.element93, %lpad97 ], [ %arrayinit.endOfInit87.49, %ehcleanup276 ], [ %arrayinit.endOfInit87.49, %if.then.i1637 ]
  %cleanup.isactive227.29 = phi i1 [ true, %lpad97 ], [ %cleanup.isactive227.28, %ehcleanup276 ], [ %cleanup.isactive227.28, %if.then.i1637 ]
  call void @llvm.lifetime.end.p0(i64 24, ptr nonnull %ref.tmp96) #23
  call void @llvm.lifetime.end.p0(i64 24, ptr nonnull %ref.tmp95) #23
  br label %ehcleanup279

ehcleanup279:                                     ; preds = %ehcleanup277, %lpad91
  %.pn358.pn.pn.pn.pn.pn.pn.pn.pn.pn.pn.pn.pn.pn.pn.pn.pn.pn.pn.pn.pn.pn.pn.pn.pn.pn.pn.pn.pn.pn.pn = phi { ptr, i32 } [ %.pn358.pn.pn.pn.pn.pn.pn.pn.pn.pn.pn.pn.pn.pn.pn.pn.pn.pn.pn.pn.pn.pn.pn.pn.pn.pn.pn.pn.pn.pn, %ehcleanup277 ], [ %138, %lpad91 ]
  %arrayinit.endOfInit87.51 = phi ptr [ %arrayinit.endOfInit87.50, %ehcleanup277 ], [ %ref.tmp85, %lpad91 ]
  %cleanup.isactive227.30 = phi i1 [ %cleanup.isactive227.29, %ehcleanup277 ], [ true, %lpad91 ]
  %bf.load.i.i1639 = load i8, ptr %agg.tmp88, align 8
  %bf.clear.i.i1640 = and i8 %bf.load.i.i1639, 1
  %tobool.i.not.i1641 = icmp eq i8 %bf.clear.i.i1640, 0
  br i1 %tobool.i.not.i1641, label %ehcleanup280, label %if.then.i1643

if.then.i1643:                                    ; preds = %ehcleanup279
  %__data_.i.i1642 = getelementptr inbounds %"struct.std::__1::basic_string<char>::__long", ptr %agg.tmp88, i64 0, i32 2
  %198 = load ptr, ptr %__data_.i.i1642, align 8, !tbaa !34
  call void @_ZdlPv(ptr noundef %198) #24
  br label %ehcleanup280

ehcleanup280:                                     ; preds = %if.then.i1643, %ehcleanup279
  %arraydestroy.isempty283 = icmp ne ptr %ref.tmp85, %arrayinit.endOfInit87.51
  %or.cond346.not = select i1 %cleanup.isactive227.30, i1 %arraydestroy.isempty283, i1 false
  br i1 %or.cond346.not, label %arraydestroy.body284, label %cleanup.done289

arraydestroy.body284:                             ; preds = %ehcleanup280, %arraydestroy.body284
  %arraydestroy.elementPast285 = phi ptr [ %arraydestroy.element286, %arraydestroy.body284 ], [ %arrayinit.endOfInit87.51, %ehcleanup280 ]
  %arraydestroy.element286 = getelementptr inbounds %struct.TestCase, ptr %arraydestroy.elementPast285, i64 -1
  call void @_ZN8TestCaseD2Ev(ptr noundef nonnull align 8 dereferenceable(72) %arraydestroy.element286) #23
  %arraydestroy.done287 = icmp eq ptr %arraydestroy.element286, %ref.tmp85
  br i1 %arraydestroy.done287, label %cleanup.done289, label %arraydestroy.body284

cleanup.done289:                                  ; preds = %arraydestroy.body284, %ehcleanup280
  call void @llvm.lifetime.end.p0(i64 1800, ptr nonnull %ref.tmp85) #23
  br label %eh.resume

ehcleanup333.thread:                              ; preds = %_ZNSt3__112basic_stringIcNS_11char_traitsIcEENS_9allocatorIcEEED2Ev.exit1337
  %199 = landingpad { ptr, i32 }
          cleanup
  br label %cleanup.done342

lpad298:                                          ; preds = %call.i.i.i.i.i.i.noexc1358
  %200 = landingpad { ptr, i32 }
          cleanup
  br label %ehcleanup332

lpad303:                                          ; preds = %invoke.cont304, %invoke.cont299
  %arrayinit.endOfInit294.1 = phi ptr [ %arrayinit.element300, %invoke.cont299 ], [ %arrayinit.element305, %invoke.cont304 ]
  %201 = landingpad { ptr, i32 }
          cleanup
  br label %ehcleanup331

lpad308:                                          ; preds = %call.i.i.i.i.i.i.noexc1404
  %202 = landingpad { ptr, i32 }
          cleanup
  br label %ehcleanup330

lpad314:                                          ; preds = %invoke.cont309
  %203 = landingpad { ptr, i32 }
          cleanup
  %arraydestroy.element327 = getelementptr inbounds %struct.TestCase, ptr %ref.tmp292, i64 2
  call void @_ZN8TestCaseD2Ev(ptr noundef nonnull align 8 dereferenceable(72) %arraydestroy.element327) #23
  %arraydestroy.element327.1 = getelementptr inbounds %struct.TestCase, ptr %ref.tmp292, i64 1
  call void @_ZN8TestCaseD2Ev(ptr noundef nonnull align 8 dereferenceable(72) %arraydestroy.element327.1) #23
  call void @_ZN8TestCaseD2Ev(ptr noundef nonnull align 8 dereferenceable(72) %ref.tmp292) #23
  br label %ehcleanup330

ehcleanup330:                                     ; preds = %lpad314, %lpad308
  %.pn391 = phi { ptr, i32 } [ %202, %lpad308 ], [ %203, %lpad314 ]
  %cleanup.isactive310.0 = phi i1 [ true, %lpad308 ], [ false, %lpad314 ]
  %bf.load.i.i1645 = load i8, ptr %agg.tmp306, align 8
  %bf.clear.i.i1646 = and i8 %bf.load.i.i1645, 1
  %tobool.i.not.i1647 = icmp eq i8 %bf.clear.i.i1646, 0
  br i1 %tobool.i.not.i1647, label %ehcleanup331, label %if.then.i1649

if.then.i1649:                                    ; preds = %ehcleanup330
  %204 = load ptr, ptr %__data_.i23.i.i1395, align 8, !tbaa !34
  call void @_ZdlPv(ptr noundef %204) #24
  br label %ehcleanup331

ehcleanup331:                                     ; preds = %if.then.i1649, %ehcleanup330, %lpad303
  %.pn391.pn = phi { ptr, i32 } [ %201, %lpad303 ], [ %.pn391, %ehcleanup330 ], [ %.pn391, %if.then.i1649 ]
  %arrayinit.endOfInit294.2 = phi ptr [ %arrayinit.endOfInit294.1, %lpad303 ], [ %arrayinit.element305, %ehcleanup330 ], [ %arrayinit.element305, %if.then.i1649 ]
  %cleanup.isactive310.1 = phi i1 [ true, %lpad303 ], [ %cleanup.isactive310.0, %ehcleanup330 ], [ %cleanup.isactive310.0, %if.then.i1649 ]
  %bf.load.i.i1651 = load i8, ptr %agg.tmp301, align 8
  %bf.clear.i.i1652 = and i8 %bf.load.i.i1651, 1
  %tobool.i.not.i1653 = icmp eq i8 %bf.clear.i.i1652, 0
  br i1 %tobool.i.not.i1653, label %ehcleanup332, label %if.then.i1655

if.then.i1655:                                    ; preds = %ehcleanup331
  %__data_.i.i1654 = getelementptr inbounds %"struct.std::__1::basic_string<char>::__long", ptr %agg.tmp301, i64 0, i32 2
  %205 = load ptr, ptr %__data_.i.i1654, align 8, !tbaa !34
  call void @_ZdlPv(ptr noundef %205) #24
  br label %ehcleanup332

ehcleanup332:                                     ; preds = %if.then.i1655, %ehcleanup331, %lpad298
  %.pn391.pn.pn = phi { ptr, i32 } [ %200, %lpad298 ], [ %.pn391.pn, %ehcleanup331 ], [ %.pn391.pn, %if.then.i1655 ]
  %arrayinit.endOfInit294.3 = phi ptr [ %ref.tmp292, %lpad298 ], [ %arrayinit.endOfInit294.2, %ehcleanup331 ], [ %arrayinit.endOfInit294.2, %if.then.i1655 ]
  %cleanup.isactive310.2 = phi i1 [ true, %lpad298 ], [ %cleanup.isactive310.1, %ehcleanup331 ], [ %cleanup.isactive310.1, %if.then.i1655 ]
  %bf.load.i.i1657 = load i8, ptr %agg.tmp295, align 8
  %bf.clear.i.i1658 = and i8 %bf.load.i.i1657, 1
  %tobool.i.not.i1659 = icmp eq i8 %bf.clear.i.i1658, 0
  br i1 %tobool.i.not.i1659, label %ehcleanup333, label %if.then.i1661

if.then.i1661:                                    ; preds = %ehcleanup332
  %206 = load ptr, ptr %__data_.i23.i.i1349, align 8, !tbaa !34
  call void @_ZdlPv(ptr noundef %206) #24
  br label %ehcleanup333

ehcleanup333:                                     ; preds = %if.then.i1661, %ehcleanup332
  %arraydestroy.isempty336 = icmp ne ptr %ref.tmp292, %arrayinit.endOfInit294.3
  %or.cond347.not = select i1 %cleanup.isactive310.2, i1 %arraydestroy.isempty336, i1 false
  br i1 %or.cond347.not, label %arraydestroy.body337, label %cleanup.done342

arraydestroy.body337:                             ; preds = %ehcleanup333, %arraydestroy.body337
  %arraydestroy.elementPast338 = phi ptr [ %arraydestroy.element339, %arraydestroy.body337 ], [ %arrayinit.endOfInit294.3, %ehcleanup333 ]
  %arraydestroy.element339 = getelementptr inbounds %struct.TestCase, ptr %arraydestroy.elementPast338, i64 -1
  call void @_ZN8TestCaseD2Ev(ptr noundef nonnull align 8 dereferenceable(72) %arraydestroy.element339) #23
  %arraydestroy.done340 = icmp eq ptr %arraydestroy.element339, %ref.tmp292
  br i1 %arraydestroy.done340, label %cleanup.done342, label %arraydestroy.body337

cleanup.done342:                                  ; preds = %arraydestroy.body337, %ehcleanup333.thread, %ehcleanup333
  %.pn391.pn.pn.pn1686 = phi { ptr, i32 } [ %199, %ehcleanup333.thread ], [ %.pn391.pn.pn, %ehcleanup333 ], [ %.pn391.pn.pn, %arraydestroy.body337 ]
  call void @llvm.lifetime.end.p0(i64 216, ptr nonnull %ref.tmp292) #23
  br label %eh.resume

eh.resume:                                        ; preds = %cleanup.done342, %cleanup.done289, %cleanup.done82, %cleanup.done
  %.pn391.pn.pn.pn.pn = phi { ptr, i32 } [ %.pn391.pn.pn.pn1686, %cleanup.done342 ], [ %.pn358.pn.pn.pn.pn.pn.pn.pn.pn.pn.pn.pn.pn.pn.pn.pn.pn.pn.pn.pn.pn.pn.pn.pn.pn.pn.pn.pn.pn.pn.pn, %cleanup.done289 ], [ %.pn353.pn.pn.pn1674, %cleanup.done82 ], [ %.pn.pn.pn1668, %cleanup.done ]
  resume { ptr, i32 } %.pn391.pn.pn.pn.pn
}

; Function Attrs: inlinehint nounwind uwtable
declare void @_ZNSt3__112basic_stringIcNS_11char_traitsIcEENS_9allocatorIcEEED2Ev(ptr noundef nonnull align 8 dereferenceable(24)) unnamed_addr #5 align 2

; Function Attrs: uwtable
define hidden void @_Z21ConstructRandomVectorl(ptr noalias sret(%"class.std::__1::vector.45") align 8 %agg.result, i64 noundef %size) local_unnamed_addr #1 personality ptr @__gxx_personality_v0 {
entry:
  tail call void @llvm.memset.p0.i64(ptr noundef nonnull align 8 dereferenceable(24) %agg.result, i8 0, i64 24, i1 false)
  %sext = shl i64 %size, 32
  %conv1 = ashr exact i64 %sext, 32
  %__end_cap_.i.i.i = getelementptr inbounds %"class.std::__1::vector.45", ptr %agg.result, i64 0, i32 2
  %cmp.i.not = icmp eq i64 %sext, 0
  br i1 %cmp.i.not, label %_ZNSt3__16vectorIiNS_9allocatorIiEEE7reserveEm.exit, label %if.then.i

if.then.i:                                        ; preds = %entry
  %cmp3.i = icmp slt i64 %sext, 0
  br i1 %cmp3.i, label %if.then4.i, label %_ZNSt3__114__split_bufferIiRNS_9allocatorIiEEEC2EmmS3_.exit.i

if.then4.i:                                       ; preds = %if.then.i
  invoke void @_ZNKSt3__16vectorIiNS_9allocatorIiEEE20__throw_length_errorB7v170000Ev(ptr noundef nonnull align 8 dereferenceable(24) %agg.result) #26
          to label %.noexc unwind label %lpad

.noexc:                                           ; preds = %if.then4.i
  unreachable

_ZNSt3__114__split_bufferIiRNS_9allocatorIiEEEC2EmmS3_.exit.i: ; preds = %if.then.i
  %mul.i.i.i.i = lshr exact i64 %sext, 30
  %call.i.i.i.i.i.i12 = invoke noalias noundef nonnull ptr @_Znwm(i64 noundef %mul.i.i.i.i) #25
          to label %_ZNSt3__114__split_bufferIiRNS_9allocatorIiEEE5clearB7v170000Ev.exit.i.i unwind label %lpad

_ZNSt3__114__split_bufferIiRNS_9allocatorIiEEE5clearB7v170000Ev.exit.i.i: ; preds = %_ZNSt3__114__split_bufferIiRNS_9allocatorIiEEEC2EmmS3_.exit.i
  %__end_.i.i = getelementptr inbounds %"class.std::__1::vector.45", ptr %agg.result, i64 0, i32 1
  %add.ptr6.i.i = getelementptr inbounds i32, ptr %call.i.i.i.i.i.i12, i64 %conv1
  store ptr %call.i.i.i.i.i.i12, ptr %agg.result, align 8, !tbaa !51
  store ptr %call.i.i.i.i.i.i12, ptr %__end_.i.i, align 8, !tbaa !51
  store ptr %add.ptr6.i.i, ptr %__end_cap_.i.i.i, align 8, !tbaa !51
  br label %_ZNSt3__16vectorIiNS_9allocatorIiEEE7reserveEm.exit

_ZNSt3__16vectorIiNS_9allocatorIiEEE7reserveEm.exit: ; preds = %_ZNSt3__114__split_bufferIiRNS_9allocatorIiEEE5clearB7v170000Ev.exit.i.i, %entry
  %0 = phi ptr [ %add.ptr6.i.i, %_ZNSt3__114__split_bufferIiRNS_9allocatorIiEEE5clearB7v170000Ev.exit.i.i ], [ null, %entry ]
  %1 = phi ptr [ %call.i.i.i.i.i.i12, %_ZNSt3__114__split_bufferIiRNS_9allocatorIiEEE5clearB7v170000Ev.exit.i.i ], [ null, %entry ]
  %cmp21 = icmp sgt i64 %size, 0
  br i1 %cmp21, label %for.body.lr.ph, label %nrvo.skipdtor

for.body.lr.ph:                                   ; preds = %_ZNSt3__16vectorIiNS_9allocatorIiEEE7reserveEm.exit
  %__end_.i = getelementptr inbounds %"class.std::__1::vector.45", ptr %agg.result, i64 0, i32 1
  br label %for.body

lpad:                                             ; preds = %_ZNSt3__114__split_bufferIiRNS_9allocatorIiEEEC2EmmS3_.exit.i, %if.then4.i
  %2 = landingpad { ptr, i32 }
          cleanup
  br label %ehcleanup

for.body:                                         ; preds = %for.body.lr.ph, %invoke.cont6
  %3 = phi ptr [ %1, %for.body.lr.ph ], [ %37, %invoke.cont6 ]
  %4 = phi ptr [ %0, %for.body.lr.ph ], [ %38, %invoke.cont6 ]
  %5 = phi ptr [ %1, %for.body.lr.ph ], [ %39, %invoke.cont6 ]
  %indvars.iv = phi i64 [ 0, %for.body.lr.ph ], [ %indvars.iv.next, %invoke.cont6 ]
  %call = tail call i32 @rand() #23
  %conv3 = sext i32 %call to i64
  %rem = srem i64 %conv3, %size
  %conv4 = trunc i64 %rem to i32
  %cmp.i13 = icmp ult ptr %5, %4
  br i1 %cmp.i13, label %if.then.i14, label %if.else.i

if.then.i14:                                      ; preds = %for.body
  store i32 %conv4, ptr %5, align 4, !tbaa !30
  %incdec.ptr.i.i = getelementptr inbounds i32, ptr %5, i64 1
  store ptr %incdec.ptr.i.i, ptr %__end_.i, align 8, !tbaa !52
  br label %invoke.cont6

if.else.i:                                        ; preds = %for.body
  %sub.ptr.lhs.cast.i.i.i = ptrtoint ptr %5 to i64
  %sub.ptr.rhs.cast.i.i.i = ptrtoint ptr %3 to i64
  %sub.ptr.sub.i.i.i = sub i64 %sub.ptr.lhs.cast.i.i.i, %sub.ptr.rhs.cast.i.i.i
  %sub.ptr.div.i.i.i = ashr exact i64 %sub.ptr.sub.i.i.i, 2
  %add.i.i = add nsw i64 %sub.ptr.div.i.i.i, 1
  %cmp.i.i.i = icmp ugt i64 %add.i.i, 4611686018427387903
  br i1 %cmp.i.i.i, label %if.then.i.i.i, label %_ZNKSt3__16vectorIiNS_9allocatorIiEEE11__recommendB7v170000Em.exit.i.i

if.then.i.i.i:                                    ; preds = %if.else.i
  invoke void @_ZNKSt3__16vectorIiNS_9allocatorIiEEE20__throw_length_errorB7v170000Ev(ptr noundef nonnull align 8 dereferenceable(24) %agg.result) #26
          to label %.noexc16 unwind label %lpad5.loopexit.split-lp

.noexc16:                                         ; preds = %if.then.i.i.i
  unreachable

_ZNKSt3__16vectorIiNS_9allocatorIiEEE11__recommendB7v170000Em.exit.i.i: ; preds = %if.else.i
  %sub.ptr.lhs.cast.i.i.i.i = ptrtoint ptr %4 to i64
  %sub.ptr.sub.i.i.i.i = sub i64 %sub.ptr.lhs.cast.i.i.i.i, %sub.ptr.rhs.cast.i.i.i
  %cmp3.not.i.i.i = icmp ult i64 %sub.ptr.sub.i.i.i.i, 9223372036854775804
  %mul.i.i.i = lshr exact i64 %sub.ptr.sub.i.i.i.i, 1
  %.sroa.speculated.i.i.i = tail call i64 @llvm.umax.i64(i64 %mul.i.i.i, i64 %add.i.i)
  %retval.0.i.i.i = select i1 %cmp3.not.i.i.i, i64 %.sroa.speculated.i.i.i, i64 4611686018427387903
  %cmp.i16.i.i = icmp eq i64 %retval.0.i.i.i, 0
  br i1 %cmp.i16.i.i, label %invoke.cont.i.i, label %if.else.i.i.i

if.else.i.i.i:                                    ; preds = %_ZNKSt3__16vectorIiNS_9allocatorIiEEE11__recommendB7v170000Em.exit.i.i
  %cmp.i.i.i.i.i = icmp ugt i64 %retval.0.i.i.i, 4611686018427387903
  br i1 %cmp.i.i.i.i.i, label %if.then.i.i.i.i.i, label %_ZNSt3__119__allocate_at_leastB7v170000INS_9allocatorIiEEEENS_19__allocation_resultINS_16allocator_traitsIT_E7pointerEEERS5_m.exit.i.i.i

if.then.i.i.i.i.i:                                ; preds = %if.else.i.i.i
  invoke void @_ZSt28__throw_bad_array_new_lengthB7v170000v() #26
          to label %.noexc17 unwind label %lpad5.loopexit.split-lp

.noexc17:                                         ; preds = %if.then.i.i.i.i.i
  unreachable

_ZNSt3__119__allocate_at_leastB7v170000INS_9allocatorIiEEEENS_19__allocation_resultINS_16allocator_traitsIT_E7pointerEEERS5_m.exit.i.i.i: ; preds = %if.else.i.i.i
  %mul.i.i.i.i.i = shl nuw i64 %retval.0.i.i.i, 2
  %call.i.i.i.i.i.i.i18 = invoke noalias noundef nonnull ptr @_Znwm(i64 noundef %mul.i.i.i.i.i) #25
          to label %invoke.cont.i.i unwind label %lpad5.loopexit

invoke.cont.i.i:                                  ; preds = %_ZNSt3__119__allocate_at_leastB7v170000INS_9allocatorIiEEEENS_19__allocation_resultINS_16allocator_traitsIT_E7pointerEEERS5_m.exit.i.i.i, %_ZNKSt3__16vectorIiNS_9allocatorIiEEE11__recommendB7v170000Em.exit.i.i
  %storemerge.i.i.i = phi ptr [ null, %_ZNKSt3__16vectorIiNS_9allocatorIiEEE11__recommendB7v170000Em.exit.i.i ], [ %call.i.i.i.i.i.i.i18, %_ZNSt3__119__allocate_at_leastB7v170000INS_9allocatorIiEEEENS_19__allocation_resultINS_16allocator_traitsIT_E7pointerEEERS5_m.exit.i.i.i ]
  %storemerge.i.i.i32 = ptrtoint ptr %storemerge.i.i.i to i64
  %add.ptr.i.i.i = getelementptr inbounds i32, ptr %storemerge.i.i.i, i64 %sub.ptr.div.i.i.i
  %add.ptr6.i.i.i = getelementptr inbounds i32, ptr %storemerge.i.i.i, i64 %retval.0.i.i.i
  store i32 %conv4, ptr %add.ptr.i.i.i, align 4, !tbaa !30
  %incdec.ptr.i4.i = getelementptr inbounds i32, ptr %add.ptr.i.i.i, i64 1
  %cmp.i.not13.i.i.i.i.i.i.i.i.i = icmp eq ptr %5, %3
  br i1 %cmp.i.not13.i.i.i.i.i.i.i.i.i, label %_ZNSt3__114__split_bufferIiRNS_9allocatorIiEEE5clearB7v170000Ev.exit.i.i.i, label %while.body.i.i.i.i.i.i.i.i.i.preheader

while.body.i.i.i.i.i.i.i.i.i.preheader:           ; preds = %invoke.cont.i.i
  %6 = add i64 %sub.ptr.lhs.cast.i.i.i, -4
  %7 = sub i64 %6, %sub.ptr.rhs.cast.i.i.i
  %8 = lshr i64 %7, 2
  %9 = add nuw nsw i64 %8, 1
  %min.iters.check = icmp ult i64 %7, 284
  br i1 %min.iters.check, label %while.body.i.i.i.i.i.i.i.i.i.preheader42, label %vector.scevcheck

vector.scevcheck:                                 ; preds = %while.body.i.i.i.i.i.i.i.i.i.preheader
  %10 = add i64 %sub.ptr.lhs.cast.i.i.i, -4
  %11 = sub i64 %10, %sub.ptr.rhs.cast.i.i.i
  %mul29 = and i64 %11, -4
  %uglygep = getelementptr i8, ptr %storemerge.i.i.i, i64 -4
  %uglygep27 = getelementptr i8, ptr %uglygep, i64 %sub.ptr.sub.i.i.i
  %mul = and i64 %11, -4
  %12 = sub i64 0, %mul
  %13 = getelementptr i8, ptr %uglygep27, i64 %12
  %14 = icmp ugt ptr %13, %uglygep27
  %uglygep28 = getelementptr i8, ptr %5, i64 -4
  %15 = sub i64 0, %mul29
  %16 = getelementptr i8, ptr %uglygep28, i64 %15
  %17 = icmp ugt ptr %16, %uglygep28
  %18 = or i1 %14, %17
  br i1 %18, label %while.body.i.i.i.i.i.i.i.i.i.preheader42, label %vector.memcheck

vector.memcheck:                                  ; preds = %vector.scevcheck
  %19 = add i64 %sub.ptr.lhs.cast.i.i.i, -4
  %20 = add i64 %storemerge.i.i.i32, -4
  %21 = add i64 %20, %sub.ptr.sub.i.i.i
  %22 = sub i64 %19, %21
  %diff.check = icmp ult i64 %22, 32
  br i1 %diff.check, label %while.body.i.i.i.i.i.i.i.i.i.preheader42, label %vector.ph

vector.ph:                                        ; preds = %vector.memcheck
  %n.vec = and i64 %9, -8
  %23 = mul i64 %n.vec, -4
  %ind.end = getelementptr i8, ptr %add.ptr.i.i.i, i64 %23
  %24 = mul i64 %n.vec, -4
  %ind.end33 = getelementptr i8, ptr %5, i64 %24
  br label %vector.body

vector.body:                                      ; preds = %vector.body, %vector.ph
  %index = phi i64 [ 0, %vector.ph ], [ %index.next, %vector.body ]
  %25 = mul i64 %index, -4
  %next.gep = getelementptr i8, ptr %add.ptr.i.i.i, i64 %25
  %26 = mul i64 %index, -4
  %next.gep36 = getelementptr i8, ptr %5, i64 %26
  %27 = getelementptr inbounds i32, ptr %next.gep36, i64 -1
  %28 = getelementptr inbounds i32, ptr %27, i64 -3
  %wide.load = load <4 x i32>, ptr %28, align 4, !tbaa !30, !noalias !56
  %29 = getelementptr inbounds i32, ptr %27, i64 -4
  %30 = getelementptr inbounds i32, ptr %29, i64 -3
  %wide.load38 = load <4 x i32>, ptr %30, align 4, !tbaa !30, !noalias !56
  %31 = getelementptr inbounds i32, ptr %next.gep, i64 -1
  %32 = getelementptr inbounds i32, ptr %31, i64 -3
  store <4 x i32> %wide.load, ptr %32, align 4, !tbaa !30, !noalias !56
  %33 = getelementptr inbounds i32, ptr %31, i64 -4
  %34 = getelementptr inbounds i32, ptr %33, i64 -3
  store <4 x i32> %wide.load38, ptr %34, align 4, !tbaa !30, !noalias !56
  %index.next = add nuw i64 %index, 8
  %35 = icmp eq i64 %index.next, %n.vec
  br i1 %35, label %middle.block, label %vector.body, !llvm.loop !65

middle.block:                                     ; preds = %vector.body
  %cmp.n = icmp eq i64 %9, %n.vec
  br i1 %cmp.n, label %_ZNSt3__114__split_bufferIiRNS_9allocatorIiEEE5clearB7v170000Ev.exit.i.i.i, label %while.body.i.i.i.i.i.i.i.i.i.preheader42

while.body.i.i.i.i.i.i.i.i.i.preheader42:         ; preds = %vector.memcheck, %vector.scevcheck, %while.body.i.i.i.i.i.i.i.i.i.preheader, %middle.block
  %incdec.ptr.i15.i.i.i.i.i.i.i.i.i.ph = phi ptr [ %add.ptr.i.i.i, %vector.memcheck ], [ %add.ptr.i.i.i, %vector.scevcheck ], [ %add.ptr.i.i.i, %while.body.i.i.i.i.i.i.i.i.i.preheader ], [ %ind.end, %middle.block ]
  %__first.sroa.2.014.i.i.i.i.i.i.i.i.i.ph = phi ptr [ %5, %vector.memcheck ], [ %5, %vector.scevcheck ], [ %5, %while.body.i.i.i.i.i.i.i.i.i.preheader ], [ %ind.end33, %middle.block ]
  br label %while.body.i.i.i.i.i.i.i.i.i

while.body.i.i.i.i.i.i.i.i.i:                     ; preds = %while.body.i.i.i.i.i.i.i.i.i.preheader42, %while.body.i.i.i.i.i.i.i.i.i
  %incdec.ptr.i15.i.i.i.i.i.i.i.i.i = phi ptr [ %incdec.ptr.i.i.i.i.i.i.i.i.i.i15, %while.body.i.i.i.i.i.i.i.i.i ], [ %incdec.ptr.i15.i.i.i.i.i.i.i.i.i.ph, %while.body.i.i.i.i.i.i.i.i.i.preheader42 ]
  %__first.sroa.2.014.i.i.i.i.i.i.i.i.i = phi ptr [ %incdec.ptr.i.i.i.i.i.i.i.i.i.i.i, %while.body.i.i.i.i.i.i.i.i.i ], [ %__first.sroa.2.014.i.i.i.i.i.i.i.i.i.ph, %while.body.i.i.i.i.i.i.i.i.i.preheader42 ]
  %incdec.ptr.i.i.i.i.i.i.i.i.i.i.i = getelementptr inbounds i32, ptr %__first.sroa.2.014.i.i.i.i.i.i.i.i.i, i64 -1
  %36 = load i32, ptr %incdec.ptr.i.i.i.i.i.i.i.i.i.i.i, align 4, !tbaa !30, !noalias !56
  %incdec.ptr.i.i.i.i.i.i.i.i.i.i15 = getelementptr inbounds i32, ptr %incdec.ptr.i15.i.i.i.i.i.i.i.i.i, i64 -1
  store i32 %36, ptr %incdec.ptr.i.i.i.i.i.i.i.i.i.i15, align 4, !tbaa !30, !noalias !56
  %cmp.i.not.i.i.i.i.i.i.i.i.i = icmp eq ptr %incdec.ptr.i.i.i.i.i.i.i.i.i.i.i, %3
  br i1 %cmp.i.not.i.i.i.i.i.i.i.i.i, label %_ZNSt3__114__split_bufferIiRNS_9allocatorIiEEE5clearB7v170000Ev.exit.i.i.i, label %while.body.i.i.i.i.i.i.i.i.i, !llvm.loop !68

_ZNSt3__114__split_bufferIiRNS_9allocatorIiEEE5clearB7v170000Ev.exit.i.i.i: ; preds = %while.body.i.i.i.i.i.i.i.i.i, %middle.block, %invoke.cont.i.i
  %storemerge.i.i = phi ptr [ %add.ptr.i.i.i, %invoke.cont.i.i ], [ %ind.end, %middle.block ], [ %incdec.ptr.i.i.i.i.i.i.i.i.i.i15, %while.body.i.i.i.i.i.i.i.i.i ]
  store ptr %storemerge.i.i, ptr %agg.result, align 8, !tbaa !51
  store ptr %incdec.ptr.i4.i, ptr %__end_.i, align 8, !tbaa !51
  store ptr %add.ptr6.i.i.i, ptr %__end_cap_.i.i.i, align 8, !tbaa !51
  %tobool.not.i.i.i = icmp eq ptr %3, null
  br i1 %tobool.not.i.i.i, label %invoke.cont6, label %if.then.i19.i.i

if.then.i19.i.i:                                  ; preds = %_ZNSt3__114__split_bufferIiRNS_9allocatorIiEEE5clearB7v170000Ev.exit.i.i.i
  tail call void @_ZdlPv(ptr noundef nonnull %3) #24
  br label %invoke.cont6

invoke.cont6:                                     ; preds = %if.then.i19.i.i, %_ZNSt3__114__split_bufferIiRNS_9allocatorIiEEE5clearB7v170000Ev.exit.i.i.i, %if.then.i14
  %37 = phi ptr [ %storemerge.i.i, %if.then.i19.i.i ], [ %storemerge.i.i, %_ZNSt3__114__split_bufferIiRNS_9allocatorIiEEE5clearB7v170000Ev.exit.i.i.i ], [ %3, %if.then.i14 ]
  %38 = phi ptr [ %add.ptr6.i.i.i, %if.then.i19.i.i ], [ %add.ptr6.i.i.i, %_ZNSt3__114__split_bufferIiRNS_9allocatorIiEEE5clearB7v170000Ev.exit.i.i.i ], [ %4, %if.then.i14 ]
  %39 = phi ptr [ %incdec.ptr.i4.i, %if.then.i19.i.i ], [ %incdec.ptr.i4.i, %_ZNSt3__114__split_bufferIiRNS_9allocatorIiEEE5clearB7v170000Ev.exit.i.i.i ], [ %incdec.ptr.i.i, %if.then.i14 ]
  %indvars.iv.next = add nuw nsw i64 %indvars.iv, 1
  %exitcond.not = icmp eq i64 %indvars.iv.next, %size
  br i1 %exitcond.not, label %nrvo.skipdtor, label %for.body, !llvm.loop !69

lpad5.loopexit:                                   ; preds = %_ZNSt3__119__allocate_at_leastB7v170000INS_9allocatorIiEEEENS_19__allocation_resultINS_16allocator_traitsIT_E7pointerEEERS5_m.exit.i.i.i
  %lpad.loopexit = landingpad { ptr, i32 }
          cleanup
  br label %ehcleanup

lpad5.loopexit.split-lp:                          ; preds = %if.then.i.i.i, %if.then.i.i.i.i.i
  %lpad.loopexit.split-lp = landingpad { ptr, i32 }
          cleanup
  br label %ehcleanup

nrvo.skipdtor:                                    ; preds = %invoke.cont6, %_ZNSt3__16vectorIiNS_9allocatorIiEEE7reserveEm.exit
  ret void

ehcleanup:                                        ; preds = %lpad5.loopexit, %lpad5.loopexit.split-lp, %lpad
  %.pn = phi { ptr, i32 } [ %2, %lpad ], [ %lpad.loopexit, %lpad5.loopexit ], [ %lpad.loopexit.split-lp, %lpad5.loopexit.split-lp ]
  %40 = load ptr, ptr %agg.result, align 8, !tbaa !70
  %cmp.not.i.i = icmp eq ptr %40, null
  br i1 %cmp.not.i.i, label %_ZNSt3__16vectorIiNS_9allocatorIiEEED2B7v170000Ev.exit, label %if.then.i.i19

if.then.i.i19:                                    ; preds = %ehcleanup
  %__end_.i.i.i.i = getelementptr inbounds %"class.std::__1::vector.45", ptr %agg.result, i64 0, i32 1
  store ptr %40, ptr %__end_.i.i.i.i, align 8, !tbaa !52
  tail call void @_ZdlPv(ptr noundef nonnull %40) #24
  br label %_ZNSt3__16vectorIiNS_9allocatorIiEEED2B7v170000Ev.exit

_ZNSt3__16vectorIiNS_9allocatorIiEEED2B7v170000Ev.exit: ; preds = %ehcleanup, %if.then.i.i19
  resume { ptr, i32 } %.pn
}

; Function Attrs: nounwind
declare i32 @rand() local_unnamed_addr #6

; Function Attrs: uwtable
define hidden void @_Z17BM_Complexity_O_NRN9benchmark5StateE(ptr noundef nonnull align 8 dereferenceable(120) %state) #1 personality ptr @__gxx_personality_v0 {
entry:
  %v = alloca %"class.std::__1::vector.45", align 8
  call void @llvm.lifetime.start.p0(i64 24, ptr nonnull %v) #23
  %range_.i = getelementptr inbounds %"class.benchmark::State", ptr %state, i64 0, i32 6
  %__end_.i.i = getelementptr inbounds %"class.benchmark::State", ptr %state, i64 0, i32 6, i32 1
  %0 = load ptr, ptr %__end_.i.i, align 8, !tbaa !26
  %1 = load ptr, ptr %range_.i, align 8, !tbaa !27
  %cmp.i.not = icmp eq ptr %0, %1
  br i1 %cmp.i.not, label %cond.false.i, label %_ZNK9benchmark5State5rangeEm.exit

cond.false.i:                                     ; preds = %entry
  tail call void @__assert_fail(ptr noundef nonnull @.str.38, ptr noundef nonnull @.str.37, i32 noundef 762, ptr noundef nonnull @__PRETTY_FUNCTION__._ZNK9benchmark5State5rangeEm) #22
  unreachable

_ZNK9benchmark5State5rangeEm.exit:                ; preds = %entry
  %2 = load i64, ptr %1, align 8, !tbaa !28
  call void @_Z21ConstructRandomVectorl(ptr nonnull sret(%"class.std::__1::vector.45") align 8 %v, i64 noundef %2)
  %3 = load ptr, ptr %__end_.i.i, align 8, !tbaa !26
  %4 = load ptr, ptr %range_.i, align 8, !tbaa !27
  %cmp.i47.not = icmp eq ptr %3, %4
  br i1 %cmp.i47.not, label %cond.false.i48, label %invoke.cont3

cond.false.i48:                                   ; preds = %_ZNK9benchmark5State5rangeEm.exit
  call void @__assert_fail(ptr noundef nonnull @.str.38, ptr noundef nonnull @.str.37, i32 noundef 762, ptr noundef nonnull @__PRETTY_FUNCTION__._ZNK9benchmark5State5rangeEm) #22
  unreachable

invoke.cont3:                                     ; preds = %_ZNK9benchmark5State5rangeEm.exit
  %5 = load i64, ptr %4, align 8, !tbaa !28
  %mul = shl nsw i64 %5, 1
  %error_occurred_.i.i = getelementptr inbounds %"class.benchmark::State", ptr %state, i64 0, i32 5
  %6 = load i8, ptr %error_occurred_.i.i, align 2, !tbaa !5, !range !23, !noundef !24
  %max_iterations.i.i = getelementptr inbounds %"class.benchmark::State", ptr %state, i64 0, i32 2
  %7 = load i64, ptr %max_iterations.i.i, align 8
  invoke void @_ZN9benchmark5State16StartKeepRunningEv(ptr noundef nonnull align 8 dereferenceable(120) %state)
          to label %for.cond.preheader unwind label %lpad5

for.cond.preheader:                               ; preds = %invoke.cont3
  %tobool.not.i.i = icmp ne i8 %6, 0
  %cmp.not.i.not6769 = icmp eq i64 %7, 0
  %cmp.not.i.not67 = select i1 %tobool.not.i.i, i1 true, i1 %cmp.not.i.not6769
  br i1 %cmp.not.i.not67, label %if.end.i, label %for.body.lr.ph, !prof !25

for.body.lr.ph:                                   ; preds = %for.cond.preheader
  %__end_.i = getelementptr inbounds %"class.std::__1::vector.45", ptr %v, i64 0, i32 1
  br label %for.body

if.end.i:                                         ; preds = %_ZN9benchmark5State13StateIteratorppEv.exit, %for.cond.preheader
  invoke void @_ZN9benchmark5State17FinishKeepRunningEv(ptr noundef nonnull align 8 dereferenceable(120) %state)
          to label %for.cond.cleanup unwind label %lpad5

for.cond.cleanup:                                 ; preds = %if.end.i
  %8 = load ptr, ptr %__end_.i.i, align 8, !tbaa !26
  %9 = load ptr, ptr %range_.i, align 8, !tbaa !27
  %cmp.i56.not = icmp eq ptr %8, %9
  br i1 %cmp.i56.not, label %cond.false.i57, label %_ZNK9benchmark5State5rangeEm.exit58

cond.false.i57:                                   ; preds = %for.cond.cleanup
  call void @__assert_fail(ptr noundef nonnull @.str.38, ptr noundef nonnull @.str.37, i32 noundef 762, ptr noundef nonnull @__PRETTY_FUNCTION__._ZNK9benchmark5State5rangeEm) #22
  unreachable

_ZNK9benchmark5State5rangeEm.exit58:              ; preds = %for.cond.cleanup
  %10 = load i64, ptr %9, align 8, !tbaa !28
  %complexity_n_.i = getelementptr inbounds %"class.benchmark::State", ptr %state, i64 0, i32 7
  store i64 %10, ptr %complexity_n_.i, align 8, !tbaa !29
  %11 = load ptr, ptr %v, align 8, !tbaa !70
  %cmp.not.i.i = icmp eq ptr %11, null
  br i1 %cmp.not.i.i, label %_ZNSt3__16vectorIiNS_9allocatorIiEEED2B7v170000Ev.exit, label %if.then.i.i

if.then.i.i:                                      ; preds = %_ZNK9benchmark5State5rangeEm.exit58
  %__end_.i.i.i.i = getelementptr inbounds %"class.std::__1::vector.45", ptr %v, i64 0, i32 1
  store ptr %11, ptr %__end_.i.i.i.i, align 8, !tbaa !52
  call void @_ZdlPv(ptr noundef nonnull %11) #24
  br label %_ZNSt3__16vectorIiNS_9allocatorIiEEED2B7v170000Ev.exit

_ZNSt3__16vectorIiNS_9allocatorIiEEED2B7v170000Ev.exit: ; preds = %_ZNK9benchmark5State5rangeEm.exit58, %if.then.i.i
  call void @llvm.lifetime.end.p0(i64 24, ptr nonnull %v) #23
  ret void

lpad5:                                            ; preds = %if.end.i, %invoke.cont3
  %12 = landingpad { ptr, i32 }
          cleanup
  %13 = load ptr, ptr %v, align 8, !tbaa !70
  %cmp.not.i.i62 = icmp eq ptr %13, null
  br i1 %cmp.not.i.i62, label %_ZNSt3__16vectorIiNS_9allocatorIiEEED2B7v170000Ev.exit65, label %if.then.i.i64

for.body:                                         ; preds = %for.body.lr.ph, %_ZN9benchmark5State13StateIteratorppEv.exit
  %__begin1.sroa.0.068 = phi i64 [ %7, %for.body.lr.ph ], [ %dec.i, %_ZN9benchmark5State13StateIteratorppEv.exit ]
  %14 = load ptr, ptr %v, align 8, !tbaa !70
  %15 = load ptr, ptr %__end_.i, align 8, !tbaa !52
  %cmp.i.i.not7.i = icmp eq ptr %14, %15
  br i1 %cmp.i.i.not7.i, label %_ZN9benchmark5State13StateIteratorppEv.exit, label %for.body.i

for.body.i:                                       ; preds = %for.body, %for.inc.i
  %__first.sroa.0.08.i = phi ptr [ %incdec.ptr.i.i, %for.inc.i ], [ %14, %for.body ]
  %16 = load i32, ptr %__first.sroa.0.08.i, align 4, !tbaa !30
  %conv.i = sext i32 %16 to i64
  %cmp.i61 = icmp eq i64 %mul, %conv.i
  br i1 %cmp.i61, label %_ZN9benchmark5State13StateIteratorppEv.exit, label %for.inc.i

for.inc.i:                                        ; preds = %for.body.i
  %incdec.ptr.i.i = getelementptr inbounds i32, ptr %__first.sroa.0.08.i, i64 1
  %cmp.i.i.not.i = icmp eq ptr %incdec.ptr.i.i, %15
  br i1 %cmp.i.i.not.i, label %_ZN9benchmark5State13StateIteratorppEv.exit, label %for.body.i, !llvm.loop !71

_ZN9benchmark5State13StateIteratorppEv.exit:      ; preds = %for.inc.i, %for.body.i, %for.body
  %__first.sroa.0.0.lcssa.i = phi ptr [ %14, %for.body ], [ %incdec.ptr.i.i, %for.inc.i ], [ %__first.sroa.0.08.i, %for.body.i ]
  %17 = ptrtoint ptr %__first.sroa.0.0.lcssa.i to i64
  call void asm sideeffect "", "r|m,~{memory},~{dirflag},~{fpsr},~{flags}"(i64 %17) #23, !srcloc !31
  %dec.i = add i64 %__begin1.sroa.0.068, -1
  %cmp.not.i.not = icmp eq i64 %dec.i, 0
  br i1 %cmp.not.i.not, label %if.end.i, label %for.body, !prof !25

if.then.i.i64:                                    ; preds = %lpad5
  %__end_.i.i.i.i63 = getelementptr inbounds %"class.std::__1::vector.45", ptr %v, i64 0, i32 1
  store ptr %13, ptr %__end_.i.i.i.i63, align 8, !tbaa !52
  call void @_ZdlPv(ptr noundef nonnull %13) #24
  br label %_ZNSt3__16vectorIiNS_9allocatorIiEEED2B7v170000Ev.exit65

_ZNSt3__16vectorIiNS_9allocatorIiEEED2B7v170000Ev.exit65: ; preds = %lpad5, %if.then.i.i64
  call void @llvm.lifetime.end.p0(i64 24, ptr nonnull %v) #23
  resume { ptr, i32 } %12
}

declare noundef ptr @_ZN9benchmark8internal9Benchmark15RangeMultiplierEi(ptr noundef nonnull align 8 dereferenceable(208), i32 noundef) local_unnamed_addr #0

; Function Attrs: uwtable
define internal void @_ZL23BM_Complexity_O_N_log_NRN9benchmark5StateE(ptr noundef nonnull align 8 dereferenceable(120) %state) #1 personality ptr @__gxx_personality_v0 {
entry:
  %__comp.i.i = alloca %"struct.std::__1::__less", align 1
  %v = alloca %"class.std::__1::vector.45", align 8
  call void @llvm.lifetime.start.p0(i64 24, ptr nonnull %v) #23
  %range_.i = getelementptr inbounds %"class.benchmark::State", ptr %state, i64 0, i32 6
  %__end_.i.i = getelementptr inbounds %"class.benchmark::State", ptr %state, i64 0, i32 6, i32 1
  %0 = load ptr, ptr %__end_.i.i, align 8, !tbaa !26
  %1 = load ptr, ptr %range_.i, align 8, !tbaa !27
  %cmp.i.not = icmp eq ptr %0, %1
  br i1 %cmp.i.not, label %cond.false.i, label %invoke.cont

cond.false.i:                                     ; preds = %entry
  tail call void @__assert_fail(ptr noundef nonnull @.str.38, ptr noundef nonnull @.str.37, i32 noundef 762, ptr noundef nonnull @__PRETTY_FUNCTION__._ZNK9benchmark5State5rangeEm) #22
  unreachable

invoke.cont:                                      ; preds = %entry
  %2 = load i64, ptr %1, align 8, !tbaa !28
  call void @_Z21ConstructRandomVectorl(ptr nonnull sret(%"class.std::__1::vector.45") align 8 %v, i64 noundef %2)
  %error_occurred_.i.i = getelementptr inbounds %"class.benchmark::State", ptr %state, i64 0, i32 5
  %3 = load i8, ptr %error_occurred_.i.i, align 2, !tbaa !5, !range !23, !noundef !24
  %max_iterations.i.i = getelementptr inbounds %"class.benchmark::State", ptr %state, i64 0, i32 2
  %4 = load i64, ptr %max_iterations.i.i, align 8
  invoke void @_ZN9benchmark5State16StartKeepRunningEv(ptr noundef nonnull align 8 dereferenceable(120) %state)
          to label %for.cond.preheader unwind label %lpad2

for.cond.preheader:                               ; preds = %invoke.cont
  %tobool.not.i.i = icmp ne i8 %3, 0
  %cmp.not.i.not4547 = icmp eq i64 %4, 0
  %cmp.not.i.not45 = select i1 %tobool.not.i.i, i1 true, i1 %cmp.not.i.not4547
  br i1 %cmp.not.i.not45, label %if.end.i, label %for.body.lr.ph, !prof !25

for.body.lr.ph:                                   ; preds = %for.cond.preheader
  %__end_.i = getelementptr inbounds %"class.std::__1::vector.45", ptr %v, i64 0, i32 1
  br label %for.body

if.end.i:                                         ; preds = %_ZN9benchmark5State13StateIteratorppEv.exit, %for.cond.preheader
  invoke void @_ZN9benchmark5State17FinishKeepRunningEv(ptr noundef nonnull align 8 dereferenceable(120) %state)
          to label %for.cond.cleanup unwind label %lpad2

for.cond.cleanup:                                 ; preds = %if.end.i
  %5 = load ptr, ptr %__end_.i.i, align 8, !tbaa !26
  %6 = load ptr, ptr %range_.i, align 8, !tbaa !27
  %cmp.i34.not = icmp eq ptr %5, %6
  br i1 %cmp.i34.not, label %cond.false.i35, label %_ZNK9benchmark5State5rangeEm.exit36

cond.false.i35:                                   ; preds = %for.cond.cleanup
  call void @__assert_fail(ptr noundef nonnull @.str.38, ptr noundef nonnull @.str.37, i32 noundef 762, ptr noundef nonnull @__PRETTY_FUNCTION__._ZNK9benchmark5State5rangeEm) #22
  unreachable

_ZNK9benchmark5State5rangeEm.exit36:              ; preds = %for.cond.cleanup
  %7 = load i64, ptr %6, align 8, !tbaa !28
  %complexity_n_.i = getelementptr inbounds %"class.benchmark::State", ptr %state, i64 0, i32 7
  store i64 %7, ptr %complexity_n_.i, align 8, !tbaa !29
  %8 = load ptr, ptr %v, align 8, !tbaa !70
  %cmp.not.i.i = icmp eq ptr %8, null
  br i1 %cmp.not.i.i, label %_ZNSt3__16vectorIiNS_9allocatorIiEEED2B7v170000Ev.exit, label %if.then.i.i

if.then.i.i:                                      ; preds = %_ZNK9benchmark5State5rangeEm.exit36
  %__end_.i.i.i.i = getelementptr inbounds %"class.std::__1::vector.45", ptr %v, i64 0, i32 1
  store ptr %8, ptr %__end_.i.i.i.i, align 8, !tbaa !52
  call void @_ZdlPv(ptr noundef nonnull %8) #24
  br label %_ZNSt3__16vectorIiNS_9allocatorIiEEED2B7v170000Ev.exit

_ZNSt3__16vectorIiNS_9allocatorIiEEED2B7v170000Ev.exit: ; preds = %_ZNK9benchmark5State5rangeEm.exit36, %if.then.i.i
  call void @llvm.lifetime.end.p0(i64 24, ptr nonnull %v) #23
  ret void

lpad2:                                            ; preds = %if.end.i, %invoke.cont
  %9 = landingpad { ptr, i32 }
          cleanup
  br label %ehcleanup16

for.body:                                         ; preds = %for.body.lr.ph, %_ZN9benchmark5State13StateIteratorppEv.exit
  %__begin1.sroa.0.046 = phi i64 [ %4, %for.body.lr.ph ], [ %dec.i, %_ZN9benchmark5State13StateIteratorppEv.exit ]
  %10 = load ptr, ptr %v, align 8, !tbaa !70
  %11 = load ptr, ptr %__end_.i, align 8, !tbaa !52
  call void @llvm.lifetime.start.p0(i64 1, ptr nonnull %__comp.i.i)
  invoke void @_ZNSt3__16__sortIRNS_6__lessIiiEEPiEEvT0_S5_T_(ptr noundef %10, ptr noundef %11, ptr noundef nonnull align 1 dereferenceable(1) %__comp.i.i)
          to label %_ZN9benchmark5State13StateIteratorppEv.exit unwind label %lpad13

_ZN9benchmark5State13StateIteratorppEv.exit:      ; preds = %for.body
  call void @llvm.lifetime.end.p0(i64 1, ptr nonnull %__comp.i.i)
  %dec.i = add i64 %__begin1.sroa.0.046, -1
  %cmp.not.i.not = icmp eq i64 %dec.i, 0
  br i1 %cmp.not.i.not, label %if.end.i, label %for.body, !prof !25

lpad13:                                           ; preds = %for.body
  %12 = landingpad { ptr, i32 }
          cleanup
  br label %ehcleanup16

ehcleanup16:                                      ; preds = %lpad2, %lpad13
  %.pn.pn = phi { ptr, i32 } [ %12, %lpad13 ], [ %9, %lpad2 ]
  %13 = load ptr, ptr %v, align 8, !tbaa !70
  %cmp.not.i.i40 = icmp eq ptr %13, null
  br i1 %cmp.not.i.i40, label %_ZNSt3__16vectorIiNS_9allocatorIiEEED2B7v170000Ev.exit43, label %if.then.i.i42

if.then.i.i42:                                    ; preds = %ehcleanup16
  %__end_.i.i.i.i41 = getelementptr inbounds %"class.std::__1::vector.45", ptr %v, i64 0, i32 1
  store ptr %13, ptr %__end_.i.i.i.i41, align 8, !tbaa !52
  call void @_ZdlPv(ptr noundef nonnull %13) #24
  br label %_ZNSt3__16vectorIiNS_9allocatorIiEEED2B7v170000Ev.exit43

_ZNSt3__16vectorIiNS_9allocatorIiEEED2B7v170000Ev.exit43: ; preds = %ehcleanup16, %if.then.i.i42
  call void @llvm.lifetime.end.p0(i64 24, ptr nonnull %v) #23
  resume { ptr, i32 } %.pn.pn
}

; Function Attrs: uwtable
define hidden void @_Z24BM_ComplexityCaptureArgsRN9benchmark5StateEi(ptr noundef nonnull align 8 dereferenceable(120) %state, i32 noundef %n) local_unnamed_addr #1 {
entry:
  %error_occurred_.i.i = getelementptr inbounds %"class.benchmark::State", ptr %state, i64 0, i32 5
  %0 = load i8, ptr %error_occurred_.i.i, align 2, !tbaa !5, !range !23, !noundef !24
  %tobool.not.i.i = icmp ne i8 %0, 0
  %max_iterations.i.i = getelementptr inbounds %"class.benchmark::State", ptr %state, i64 0, i32 2
  %1 = load i64, ptr %max_iterations.i.i, align 8
  tail call void @_ZN9benchmark5State16StartKeepRunningEv(ptr noundef nonnull align 8 dereferenceable(120) %state)
  %cmp.not.i.not1113 = icmp eq i64 %1, 0
  %cmp.not.i.not11 = select i1 %tobool.not.i.i, i1 true, i1 %cmp.not.i.not1113
  br i1 %cmp.not.i.not11, label %for.cond.cleanup, label %for.body.lr.ph, !prof !25

for.body.lr.ph:                                   ; preds = %entry
  %started_.i = getelementptr inbounds %"class.benchmark::State", ptr %state, i64 0, i32 3
  %batch_leftover_.i = getelementptr inbounds %"class.benchmark::State", ptr %state, i64 0, i32 1
  br label %for.body

for.cond.cleanup:                                 ; preds = %_ZN9benchmark5State13StateIteratorppEv.exit, %entry
  tail call void @_ZN9benchmark5State17FinishKeepRunningEv(ptr noundef nonnull align 8 dereferenceable(120) %state)
  %conv = sext i32 %n to i64
  %complexity_n_.i = getelementptr inbounds %"class.benchmark::State", ptr %state, i64 0, i32 7
  store i64 %conv, ptr %complexity_n_.i, align 8, !tbaa !29
  ret void

for.body:                                         ; preds = %for.body.lr.ph, %_ZN9benchmark5State13StateIteratorppEv.exit
  %__begin1.sroa.0.012 = phi i64 [ %1, %for.body.lr.ph ], [ %dec.i, %_ZN9benchmark5State13StateIteratorppEv.exit ]
  %2 = load i8, ptr %started_.i, align 8, !tbaa !72, !range !23, !noundef !24
  %tobool.not.i = icmp eq i8 %2, 0
  br i1 %tobool.not.i, label %_ZN9benchmark5State13StateIteratorppEv.exit, label %if.end.i8, !prof !25

if.end.i8:                                        ; preds = %for.body
  %3 = load i64, ptr %max_iterations.i.i, align 8, !tbaa !73
  %4 = load i64, ptr %state, align 8, !tbaa !74
  %sub.i = sub i64 %3, %4
  %5 = load i64, ptr %batch_leftover_.i, align 8, !tbaa !75
  %add.i = add i64 %sub.i, %5
  br label %_ZN9benchmark5State13StateIteratorppEv.exit

_ZN9benchmark5State13StateIteratorppEv.exit:      ; preds = %if.end.i8, %for.body
  %retval.0.i = phi i64 [ %add.i, %if.end.i8 ], [ 0, %for.body ]
  tail call void asm sideeffect "", "r|m,~{memory},~{dirflag},~{fpsr},~{flags}"(i64 %retval.0.i) #23, !srcloc !31
  %dec.i = add i64 %__begin1.sroa.0.012, -1
  %cmp.not.i.not = icmp eq i64 %dec.i, 0
  br i1 %cmp.not.i.not, label %for.cond.cleanup, label %for.body, !prof !25
}

declare noundef ptr @_ZN9benchmark8internal9Benchmark6RangesERKNSt3__16vectorINS2_4pairIllEENS2_9allocatorIS5_EEEE(ptr noundef nonnull align 8 dereferenceable(208), ptr noundef nonnull align 8 dereferenceable(24)) local_unnamed_addr #0

; Function Attrs: nofree nounwind
declare i32 @__cxa_atexit(ptr, ptr, ptr) local_unnamed_addr #7

; Function Attrs: mustprogress norecurse uwtable
define hidden noundef i32 @main(i32 noundef %argc, ptr noundef %argv) local_unnamed_addr #8 {
entry:
  tail call void @_Z14RunOutputTestsiPPc(i32 noundef %argc, ptr noundef %argv)
  ret i32 0
}

declare void @_Z14RunOutputTestsiPPc(i32 noundef, ptr noundef) local_unnamed_addr #0

declare void @_ZN9benchmark5State16StartKeepRunningEv(ptr noundef nonnull align 8 dereferenceable(120)) local_unnamed_addr #0

declare void @_ZN9benchmark5State17FinishKeepRunningEv(ptr noundef nonnull align 8 dereferenceable(120)) local_unnamed_addr #0

; Function Attrs: noreturn nounwind
declare void @__assert_fail(ptr noundef, ptr noundef, i32 noundef, ptr noundef) local_unnamed_addr #9

declare void @_ZN9benchmark8internal9BenchmarkC2EPKc(ptr noundef nonnull align 8 dereferenceable(208), ptr noundef) unnamed_addr #0

; Function Attrs: inlinehint mustprogress nofree norecurse nosync nounwind willreturn memory(none) uwtable
define internal noundef double @"_ZN3$_08__invokeEm"(i64 %0) #10 align 2 {
entry:
  ret double 1.000000e+00
}

declare noundef i32 @_Z16SetSubstitutionsSt16initializer_listINSt3__14pairINS0_12basic_stringIcNS0_11char_traitsIcEENS0_9allocatorIcEEEES7_EEE(ptr, i64) local_unnamed_addr #0

declare void @_ZNSt3__1plIcNS_11char_traitsIcEENS_9allocatorIcEEEENS_12basic_stringIT_T0_T1_EEPKS6_RKS9_(ptr sret(%"class.std::__1::basic_string") align 8, ptr noundef, ptr noundef nonnull align 8 dereferenceable(24)) local_unnamed_addr #0

; Function Attrs: uwtable
define linkonce_odr hidden void @_ZNSt3__14pairINS_12basic_stringIcNS_11char_traitsIcEENS_9allocatorIcEEEES6_EC2B7v170000IRA5_KcRA13_S9_LPv0EEEOT_OT0_(ptr noundef nonnull align 8 dereferenceable(48) %this, ptr noundef nonnull align 1 dereferenceable(5) %__u1, ptr noundef nonnull align 1 dereferenceable(13) %__u2) unnamed_addr #1 comdat align 2 personality ptr @__gxx_personality_v0 {
entry:
  %call.i.i.i = tail call i64 @strlen(ptr noundef nonnull dereferenceable(1) %__u1) #23
  %cmp.i.i = icmp ugt i64 %call.i.i.i, -17
  br i1 %cmp.i.i, label %if.then.i.i, label %if.end.i.i

if.then.i.i:                                      ; preds = %entry
  tail call void @_ZNKSt3__112basic_stringIcNS_11char_traitsIcEENS_9allocatorIcEEE20__throw_length_errorB7v170000Ev(ptr noundef nonnull align 8 dereferenceable(24) %this) #26
  unreachable

if.end.i.i:                                       ; preds = %entry
  %cmp.i.i.i = icmp ult i64 %call.i.i.i, 23
  br i1 %cmp.i.i.i, label %if.then3.i.i, label %if.else.i.i

if.then3.i.i:                                     ; preds = %if.end.i.i
  %conv.i.i.i = trunc i64 %call.i.i.i to i8
  %bf.shl.i.i.i = shl nuw nsw i8 %conv.i.i.i, 1
  store i8 %bf.shl.i.i.i, ptr %this, align 8
  %__data_.i.i.i = getelementptr inbounds %"struct.std::__1::basic_string<char>::__short", ptr %this, i64 0, i32 2
  br label %_ZNSt3__112basic_stringIcNS_11char_traitsIcEENS_9allocatorIcEEEC2B7v170000IDnEEPKc.exit

if.else.i.i:                                      ; preds = %if.end.i.i
  %sub.i.i.i = or i64 %call.i.i.i, 15
  %add.i.i = add i64 %sub.i.i.i, 1
  %call.i.i.i.i.i.i = tail call noalias noundef nonnull ptr @_Znwm(i64 noundef %add.i.i) #25
  %__data_.i23.i.i = getelementptr inbounds %"struct.std::__1::basic_string<char>::__long", ptr %this, i64 0, i32 2
  store ptr %call.i.i.i.i.i.i, ptr %__data_.i23.i.i, align 8, !tbaa !34
  %bf.set6.i.i.i = or i64 %add.i.i, 1
  store i64 %bf.set6.i.i.i, ptr %this, align 8
  %__size_.i.i.i = getelementptr inbounds %"struct.std::__1::basic_string<char>::__long", ptr %this, i64 0, i32 1
  store i64 %call.i.i.i, ptr %__size_.i.i.i, align 8, !tbaa !34
  br label %_ZNSt3__112basic_stringIcNS_11char_traitsIcEENS_9allocatorIcEEEC2B7v170000IDnEEPKc.exit

_ZNSt3__112basic_stringIcNS_11char_traitsIcEENS_9allocatorIcEEEC2B7v170000IDnEEPKc.exit: ; preds = %if.then3.i.i, %if.else.i.i
  %__p.0.i.i = phi ptr [ %__data_.i.i.i, %if.then3.i.i ], [ %call.i.i.i.i.i.i, %if.else.i.i ]
  %cmp.i24.i.i = icmp ugt ptr %__p.0.i.i, %__u1
  %add.ptr.i.i.i = getelementptr inbounds i8, ptr %__p.0.i.i, i64 %call.i.i.i
  %cmp1.i.i.i = icmp ule ptr %add.ptr.i.i.i, %__u1
  %0 = or i1 %cmp.i24.i.i, %cmp1.i.i.i
  tail call void @llvm.assume(i1 %0)
  tail call void @llvm.memmove.p0.p0.i64(ptr nonnull align 1 %__p.0.i.i, ptr nonnull align 1 %__u1, i64 %call.i.i.i, i1 false)
  store i8 0, ptr %add.ptr.i.i.i, align 1, !tbaa !34
  %second = getelementptr inbounds %"struct.std::__1::pair.66", ptr %this, i64 0, i32 1
  %call.i.i.i4 = tail call i64 @strlen(ptr noundef nonnull dereferenceable(1) %__u2) #23
  %cmp.i.i5 = icmp ugt i64 %call.i.i.i4, -17
  br i1 %cmp.i.i5, label %if.then.i.i6, label %if.end.i.i8

if.then.i.i6:                                     ; preds = %_ZNSt3__112basic_stringIcNS_11char_traitsIcEENS_9allocatorIcEEEC2B7v170000IDnEEPKc.exit
  invoke void @_ZNKSt3__112basic_stringIcNS_11char_traitsIcEENS_9allocatorIcEEE20__throw_length_errorB7v170000Ev(ptr noundef nonnull align 8 dereferenceable(24) %second) #26
          to label %.noexc unwind label %lpad

.noexc:                                           ; preds = %if.then.i.i6
  unreachable

if.end.i.i8:                                      ; preds = %_ZNSt3__112basic_stringIcNS_11char_traitsIcEENS_9allocatorIcEEEC2B7v170000IDnEEPKc.exit
  %cmp.i.i.i7 = icmp ult i64 %call.i.i.i4, 23
  br i1 %cmp.i.i.i7, label %if.then3.i.i12, label %if.else.i.i19

if.then3.i.i12:                                   ; preds = %if.end.i.i8
  %conv.i.i.i9 = trunc i64 %call.i.i.i4 to i8
  %bf.shl.i.i.i10 = shl nuw nsw i8 %conv.i.i.i9, 1
  store i8 %bf.shl.i.i.i10, ptr %second, align 8
  %__data_.i.i.i11 = getelementptr inbounds i8, ptr %this, i64 25
  br label %invoke.cont

if.else.i.i19:                                    ; preds = %if.end.i.i8
  %sub.i.i.i13 = or i64 %call.i.i.i4, 15
  %add.i.i14 = add i64 %sub.i.i.i13, 1
  %call.i.i.i.i.i.i1524 = invoke noalias noundef nonnull ptr @_Znwm(i64 noundef %add.i.i14) #25
          to label %call.i.i.i.i.i.i15.noexc unwind label %lpad

call.i.i.i.i.i.i15.noexc:                         ; preds = %if.else.i.i19
  %__data_.i23.i.i16 = getelementptr inbounds %"struct.std::__1::pair.66", ptr %this, i64 0, i32 1, i32 0, i32 0, i32 0, i32 0, i32 0, i32 2
  store ptr %call.i.i.i.i.i.i1524, ptr %__data_.i23.i.i16, align 8, !tbaa !34
  %bf.set6.i.i.i17 = or i64 %add.i.i14, 1
  store i64 %bf.set6.i.i.i17, ptr %second, align 8
  %__size_.i.i.i18 = getelementptr inbounds %"struct.std::__1::pair.66", ptr %this, i64 0, i32 1, i32 0, i32 0, i32 0, i32 0, i32 0, i32 1
  store i64 %call.i.i.i4, ptr %__size_.i.i.i18, align 8, !tbaa !34
  br label %invoke.cont

invoke.cont:                                      ; preds = %call.i.i.i.i.i.i15.noexc, %if.then3.i.i12
  %__p.0.i.i20 = phi ptr [ %__data_.i.i.i11, %if.then3.i.i12 ], [ %call.i.i.i.i.i.i1524, %call.i.i.i.i.i.i15.noexc ]
  %cmp.i24.i.i21 = icmp ugt ptr %__p.0.i.i20, %__u2
  %add.ptr.i.i.i22 = getelementptr inbounds i8, ptr %__p.0.i.i20, i64 %call.i.i.i4
  %cmp1.i.i.i23 = icmp ule ptr %add.ptr.i.i.i22, %__u2
  %1 = or i1 %cmp.i24.i.i21, %cmp1.i.i.i23
  tail call void @llvm.assume(i1 %1)
  tail call void @llvm.memmove.p0.p0.i64(ptr nonnull align 1 %__p.0.i.i20, ptr nonnull align 1 %__u2, i64 %call.i.i.i4, i1 false)
  store i8 0, ptr %add.ptr.i.i.i22, align 1, !tbaa !34
  ret void

