; ModuleID = '/local/mnt2/workspace2/mnadeem/llvm/llvm-test-suite/MicroBenchmarks/libs/benchmark/test/string_util_gtest.cc'
source_filename = "/local/mnt2/workspace2/mnadeem/llvm/llvm-test-suite/MicroBenchmarks/libs/benchmark/test/string_util_gtest.cc"
target datalayout = "e-m:e-p270:32:32-p271:32:32-p272:64:64-i64:64-f80:128-n8:16:32:64-S128"
target triple = "x86_64-unknown-linux-gnu"

%"class.std::__1::locale::id" = type <{ %"struct.std::__1::once_flag", i32, [4 x i8] }>
%"struct.std::__1::once_flag" = type { i64 }
%"class.std::__1::basic_ostream" = type { ptr, %"class.std::__1::basic_ios.base" }
%"class.std::__1::basic_ios.base" = type <{ %"class.std::__1::ios_base", ptr, i32 }>
%"class.std::__1::ios_base" = type { ptr, i32, i64, i64, i32, i32, ptr, ptr, ptr, ptr, i64, i64, ptr, i64, i64, ptr, i64, i64 }
%"class.testing::internal::GTestLog" = type { i32 }
%"class.testing::AssertionResult" = type { i8, %"class.std::__1::unique_ptr.27" }
%"class.std::__1::unique_ptr.27" = type { %"class.std::__1::__compressed_pair.28" }
%"class.std::__1::__compressed_pair.28" = type { %"struct.std::__1::__compressed_pair_elem.29" }
%"struct.std::__1::__compressed_pair_elem.29" = type { ptr }
%"class.std::__1::basic_string" = type { %"class.std::__1::__compressed_pair" }
%"class.std::__1::__compressed_pair" = type { %"struct.std::__1::__compressed_pair_elem" }
%"struct.std::__1::__compressed_pair_elem" = type { %"struct.std::__1::basic_string<char>::__rep" }
%"struct.std::__1::basic_string<char>::__rep" = type { %union.anon }
%union.anon = type { %"struct.std::__1::basic_string<char>::__long" }
%"struct.std::__1::basic_string<char>::__long" = type { %struct.anon, i64, ptr }
%struct.anon = type { i64 }
%"class.testing::Message" = type { %"class.std::__1::unique_ptr.33" }
%"class.std::__1::unique_ptr.33" = type { %"class.std::__1::__compressed_pair.34" }
%"class.std::__1::__compressed_pair.34" = type { %"struct.std::__1::__compressed_pair_elem.35" }
%"struct.std::__1::__compressed_pair_elem.35" = type { ptr }
%"class.testing::internal::AssertHelper" = type { ptr }
%"struct.testing::internal::TrueWithString" = type { %"class.std::__1::basic_string" }
%"struct.std::__1::basic_string<char>::__short" = type { %struct.anon.0, [0 x i8], [23 x i8] }
%struct.anon.0 = type { i8 }
%"class.std::type_info" = type { ptr, ptr }
%"class.std::__1::basic_stringstream" = type { %"class.std::__1::basic_iostream.base", %"class.std::__1::basic_stringbuf", %"class.std::__1::basic_ios.base" }
%"class.std::__1::basic_iostream.base" = type { %"class.std::__1::basic_istream.base", %"class.std::__1::basic_ostream.base" }
%"class.std::__1::basic_istream.base" = type { ptr, i64 }
%"class.std::__1::basic_ostream.base" = type { ptr }
%"class.std::__1::basic_stringbuf" = type <{ %"class.std::__1::basic_streambuf", %"class.std::__1::basic_string", ptr, i32, [4 x i8] }>
%"class.std::__1::basic_streambuf" = type { ptr, %"class.std::__1::locale", ptr, ptr, ptr, ptr, ptr, ptr }
%"class.std::__1::locale" = type { ptr }
%"class.std::__1::basic_istream" = type { ptr, i64, %"class.std::__1::basic_ios.base" }
%"struct.std::__1::__exception_guard_exceptions.48" = type <{ %"class.std::__1::_AllocatorDestroyRangeReverse", i8, [7 x i8] }>
%"class.std::__1::_AllocatorDestroyRangeReverse" = type { ptr, ptr, ptr }
%"struct.std::__1::__exception_guard_exceptions" = type <{ %"class.std::__1::vector<std::__1::string>::__destroy_vector", i8, [7 x i8] }>
%"class.std::__1::vector<std::__1::string>::__destroy_vector" = type { ptr }
%"class.std::__1::vector.40" = type { ptr, ptr, %"class.std::__1::__compressed_pair.41" }
%"class.std::__1::__compressed_pair.41" = type { %"struct.std::__1::__compressed_pair_elem.29" }
%"class.std::__1::basic_ostream<char>::sentry" = type { i8, ptr }
%"class.std::__1::basic_ios" = type <{ %"class.std::__1::ios_base", ptr, i32, [4 x i8] }>
%"struct.testing::internal::CodeLocation" = type <{ %"class.std::__1::basic_string", i32, [4 x i8] }>

$_ZN7testing8internal16SuiteApiResolverINS_4TestEE19GetSetUpCaseOrSuiteEPKci = comdat any

$_ZN7testing8internal16SuiteApiResolverINS_4TestEE22GetTearDownCaseOrSuiteEPKci = comdat any

$_ZN7testing4Test5SetupEv = comdat any

$_ZN7testing15AssertionResultD2Ev = comdat any

$__clang_call_terminate = comdat any

$_ZN7testing8internal11GetTypeNameERKSt9type_info = comdat any

$_ZNSt3__112basic_stringIcNS_11char_traitsIcEENS_9allocatorIcEEEpLB7v170000ERKS5_ = comdat any

$_ZN7testing8internal18CmpHelperEQFailureImmEENS_15AssertionResultEPKcS4_RKT_RKT0_ = comdat any

$_ZN7testing13PrintToStringImEENSt3__112basic_stringIcNS1_11char_traitsIcEENS1_9allocatorIcEEEERKT_ = comdat any

$_ZNSt3__118basic_stringstreamIcNS_11char_traitsIcEENS_9allocatorIcEEED1Ev = comdat any

$_ZNSt3__118basic_stringstreamIcNS_11char_traitsIcEENS_9allocatorIcEEED0Ev = comdat any

$_ZThn16_NSt3__118basic_stringstreamIcNS_11char_traitsIcEENS_9allocatorIcEEED1Ev = comdat any

$_ZThn16_NSt3__118basic_stringstreamIcNS_11char_traitsIcEENS_9allocatorIcEEED0Ev = comdat any

$_ZTv0_n24_NSt3__118basic_stringstreamIcNS_11char_traitsIcEENS_9allocatorIcEEED1Ev = comdat any

$_ZTv0_n24_NSt3__118basic_stringstreamIcNS_11char_traitsIcEENS_9allocatorIcEEED0Ev = comdat any

$_ZNSt3__115basic_stringbufIcNS_11char_traitsIcEENS_9allocatorIcEEED2Ev = comdat any

$_ZNSt3__115basic_stringbufIcNS_11char_traitsIcEENS_9allocatorIcEEED0Ev = comdat any

$_ZNSt3__115basic_stringbufIcNS_11char_traitsIcEENS_9allocatorIcEEE7seekoffExNS_8ios_base7seekdirEj = comdat any

$_ZNSt3__115basic_stringbufIcNS_11char_traitsIcEENS_9allocatorIcEEE7seekposENS_4fposI11__mbstate_tEEj = comdat any

$_ZNSt3__115basic_stringbufIcNS_11char_traitsIcEENS_9allocatorIcEEE9underflowEv = comdat any

$_ZNSt3__115basic_stringbufIcNS_11char_traitsIcEENS_9allocatorIcEEE9pbackfailEi = comdat any

$_ZNSt3__115basic_stringbufIcNS_11char_traitsIcEENS_9allocatorIcEEE8overflowEi = comdat any

$_ZNKSt3__115basic_stringbufIcNS_11char_traitsIcEENS_9allocatorIcEEE3strEv = comdat any

$_ZNKSt3__112basic_stringIcNS_11char_traitsIcEENS_9allocatorIcEEE20__throw_length_errorB7v170000Ev = comdat any

$_ZNSt3__120__throw_length_errorB7v170000EPKc = comdat any

$_ZNSt12length_errorC2B7v170000EPKc = comdat any

$_ZN7testing8internal15TestFactoryBaseD2Ev = comdat any

$_ZN7testing8internal18CmpHelperEQFailureIiiEENS_15AssertionResultEPKcS4_RKT_RKT0_ = comdat any

$_ZN7testing13PrintToStringIiEENSt3__112basic_stringIcNS1_11char_traitsIcEENS1_9allocatorIcEEEERKT_ = comdat any

$_ZN7testing8internal18CmpHelperEQFailureIddEENS_15AssertionResultEPKcS4_RKT_RKT0_ = comdat any

$_ZN7testing13PrintToStringIdEENSt3__112basic_stringIcNS1_11char_traitsIcEENS1_9allocatorIcEEEERKT_ = comdat any

$_ZNSt3__16vectorINS_12basic_stringIcNS_11char_traitsIcEENS_9allocatorIcEEEENS4_IS6_EEED2B7v170000Ev = comdat any

$_ZN7testing8internal11CmpHelperEQINSt3__16vectorINS2_12basic_stringIcNS2_11char_traitsIcEENS2_9allocatorIcEEEENS7_IS9_EEEESB_EENS_15AssertionResultEPKcSE_RKT_RKT0_ = comdat any

$_ZN7testing8internal18CmpHelperEQFailureINSt3__16vectorINS2_12basic_stringIcNS2_11char_traitsIcEENS2_9allocatorIcEEEENS7_IS9_EEEESB_EENS_15AssertionResultEPKcSE_RKT_RKT0_ = comdat any

$_ZN7testing13PrintToStringINSt3__16vectorINS1_12basic_stringIcNS1_11char_traitsIcEENS1_9allocatorIcEEEENS6_IS8_EEEEEES8_RKT_ = comdat any

$_ZN7testing8internal16ContainerPrinter10PrintValueINSt3__16vectorINS3_12basic_stringIcNS3_11char_traitsIcEENS3_9allocatorIcEEEENS8_ISA_EEEEvEEvRKT_PNS3_13basic_ostreamIcS7_EE = comdat any

$_ZNSt3__124__put_character_sequenceB7v170000IcNS_11char_traitsIcEEEERNS_13basic_ostreamIT_T0_EES7_PKS4_m = comdat any

$_ZNSt3__116__pad_and_outputB7v170000IcNS_11char_traitsIcEEEENS_19ostreambuf_iteratorIT_T0_EES6_PKS4_S8_S8_RNS_8ios_baseES4_ = comdat any

$_ZNSt3__128__exception_guard_exceptionsINS_6vectorINS_12basic_stringIcNS_11char_traitsIcEENS_9allocatorIcEEEENS5_IS7_EEE16__destroy_vectorEED2B7v170000Ev = comdat any

$_ZNSt3__128__exception_guard_exceptionsINS_29_AllocatorDestroyRangeReverseINS_9allocatorINS_12basic_stringIcNS_11char_traitsIcEENS2_IcEEEEEEPS7_EEED2B7v170000Ev = comdat any

$_ZTSN7testing8internal15TestFactoryBaseE = comdat any

$_ZTIN7testing8internal15TestFactoryBaseE = comdat any

$_ZTVNSt3__118basic_stringstreamIcNS_11char_traitsIcEENS_9allocatorIcEEEE = comdat any

$_ZTTNSt3__118basic_stringstreamIcNS_11char_traitsIcEENS_9allocatorIcEEEE = comdat any

$_ZTCNSt3__118basic_stringstreamIcNS_11char_traitsIcEENS_9allocatorIcEEEE0_NS_14basic_iostreamIcS2_EE = comdat any

$_ZTCNSt3__118basic_stringstreamIcNS_11char_traitsIcEENS_9allocatorIcEEEE0_NS_13basic_istreamIcS2_EE = comdat any

$_ZTCNSt3__118basic_stringstreamIcNS_11char_traitsIcEENS_9allocatorIcEEEE16_NS_13basic_ostreamIcS2_EE = comdat any

$_ZTSNSt3__118basic_stringstreamIcNS_11char_traitsIcEENS_9allocatorIcEEEE = comdat any

$_ZTINSt3__118basic_stringstreamIcNS_11char_traitsIcEENS_9allocatorIcEEEE = comdat any

$_ZTVNSt3__115basic_stringbufIcNS_11char_traitsIcEENS_9allocatorIcEEEE = comdat any

$_ZTSNSt3__115basic_stringbufIcNS_11char_traitsIcEENS_9allocatorIcEEEE = comdat any

$_ZTINSt3__115basic_stringbufIcNS_11char_traitsIcEENS_9allocatorIcEEEE = comdat any

$_ZZN7testing8internal31CanonicalizeForStdLibVersioningENSt3__112basic_stringIcNS1_11char_traitsIcEENS1_9allocatorIcEEEEE6prefix = comdat any

@_ZN12_GLOBAL__N_125StringUtilTest_stoul_Test10test_info_E = internal global ptr null, align 8
@.str = private unnamed_addr constant [15 x i8] c"StringUtilTest\00", align 1
@.str.2 = private unnamed_addr constant [6 x i8] c"stoul\00", align 1
@.str.3 = private unnamed_addr constant [109 x i8] c"/local/mnt2/workspace2/mnadeem/llvm/llvm-test-suite/MicroBenchmarks/libs/benchmark/test/string_util_gtest.cc\00", align 1
@_ZN12_GLOBAL__N_124StringUtilTest_stoi_Test10test_info_E = internal global ptr null, align 8
@.str.5 = private unnamed_addr constant [5 x i8] c"stoi\00", align 1
@_ZN12_GLOBAL__N_124StringUtilTest_stod_Test10test_info_E = internal global ptr null, align 8
@.str.7 = private unnamed_addr constant [5 x i8] c"stod\00", align 1
@_ZN12_GLOBAL__N_128StringUtilTest_StrSplit_Test10test_info_E = internal global ptr null, align 8
@.str.9 = private unnamed_addr constant [9 x i8] c"StrSplit\00", align 1
@_ZTVN7testing8internal15TestFactoryImplIN12_GLOBAL__N_125StringUtilTest_stoul_TestEEE = internal unnamed_addr constant { [5 x ptr] } { [5 x ptr] [ptr null, ptr @_ZTIN7testing8internal15TestFactoryImplIN12_GLOBAL__N_125StringUtilTest_stoul_TestEEE, ptr @_ZN7testing8internal15TestFactoryBaseD2Ev, ptr @_ZN7testing8internal15TestFactoryImplIN12_GLOBAL__N_125StringUtilTest_stoul_TestEED0Ev, ptr @_ZN7testing8internal15TestFactoryImplIN12_GLOBAL__N_125StringUtilTest_stoul_TestEE10CreateTestEv] }, align 8
@_ZTVN10__cxxabiv120__si_class_type_infoE = external global ptr
@_ZTSN7testing8internal15TestFactoryImplIN12_GLOBAL__N_125StringUtilTest_stoul_TestEEE = internal constant [82 x i8] c"N7testing8internal15TestFactoryImplIN12_GLOBAL__N_125StringUtilTest_stoul_TestEEE\00", align 1
@_ZTVN10__cxxabiv117__class_type_infoE = external global ptr
@_ZTSN7testing8internal15TestFactoryBaseE = linkonce_odr hidden constant [37 x i8] c"N7testing8internal15TestFactoryBaseE\00", comdat, align 1
@_ZTIN7testing8internal15TestFactoryBaseE = linkonce_odr hidden constant { ptr, ptr } { ptr getelementptr inbounds (ptr, ptr @_ZTVN10__cxxabiv117__class_type_infoE, i64 2), ptr @_ZTSN7testing8internal15TestFactoryBaseE }, comdat, align 8
@_ZTIN7testing8internal15TestFactoryImplIN12_GLOBAL__N_125StringUtilTest_stoul_TestEEE = internal constant { ptr, ptr, ptr } { ptr getelementptr inbounds (ptr, ptr @_ZTVN10__cxxabiv120__si_class_type_infoE, i64 2), ptr @_ZTSN7testing8internal15TestFactoryImplIN12_GLOBAL__N_125StringUtilTest_stoul_TestEEE, ptr @_ZTIN7testing8internal15TestFactoryBaseE }, align 8
@_ZTVN12_GLOBAL__N_125StringUtilTest_stoul_TestE = internal unnamed_addr constant { [8 x ptr] } { [8 x ptr] [ptr null, ptr @_ZTIN12_GLOBAL__N_125StringUtilTest_stoul_TestE, ptr @_ZN7testing4TestD2Ev, ptr @_ZN12_GLOBAL__N_125StringUtilTest_stoul_TestD0Ev, ptr @_ZN7testing4Test5SetUpEv, ptr @_ZN7testing4Test8TearDownEv, ptr @_ZN12_GLOBAL__N_125StringUtilTest_stoul_Test8TestBodyEv, ptr @_ZN7testing4Test5SetupEv] }, align 8
@_ZTSN12_GLOBAL__N_125StringUtilTest_stoul_TestE = internal constant [44 x i8] c"N12_GLOBAL__N_125StringUtilTest_stoul_TestE\00", align 1
@_ZTIN7testing4TestE = external constant ptr
@_ZTIN12_GLOBAL__N_125StringUtilTest_stoul_TestE = internal constant { ptr, ptr, ptr } { ptr getelementptr inbounds (ptr, ptr @_ZTVN10__cxxabiv120__si_class_type_infoE, i64 2), ptr @_ZTSN12_GLOBAL__N_125StringUtilTest_stoul_TestE, ptr @_ZTIN7testing4TestE }, align 8
@.str.10 = private unnamed_addr constant [4 x i8] c"0ul\00", align 1
@.str.11 = private unnamed_addr constant [28 x i8] c"benchmark::stoul(\220\22, &pos)\00", align 1
@.str.12 = private unnamed_addr constant [2 x i8] c"0\00", align 1
@.str.13 = private unnamed_addr constant [4 x i8] c"1ul\00", align 1
@.str.14 = private unnamed_addr constant [4 x i8] c"pos\00", align 1
@.str.15 = private unnamed_addr constant [4 x i8] c"7ul\00", align 1
@.str.16 = private unnamed_addr constant [28 x i8] c"benchmark::stoul(\227\22, &pos)\00", align 1
@.str.17 = private unnamed_addr constant [2 x i8] c"7\00", align 1
@.str.18 = private unnamed_addr constant [6 x i8] c"135ul\00", align 1
@.str.19 = private unnamed_addr constant [30 x i8] c"benchmark::stoul(\22135\22, &pos)\00", align 1
@.str.20 = private unnamed_addr constant [4 x i8] c"135\00", align 1
@.str.21 = private unnamed_addr constant [4 x i8] c"3ul\00", align 1
@.str.22 = private unnamed_addr constant [21 x i8] c"0xFFFFFFFFFFFFFFFFul\00", align 1
@.str.23 = private unnamed_addr constant [47 x i8] c"benchmark::stoul(\2218446744073709551615\22, &pos)\00", align 1
@.str.24 = private unnamed_addr constant [21 x i8] c"18446744073709551615\00", align 1
@.str.25 = private unnamed_addr constant [5 x i8] c"20ul\00", align 1
@.str.26 = private unnamed_addr constant [5 x i8] c"10ul\00", align 1
@.str.27 = private unnamed_addr constant [34 x i8] c"benchmark::stoul(\221010\22, &pos, 2)\00", align 1
@.str.28 = private unnamed_addr constant [5 x i8] c"1010\00", align 1
@.str.29 = private unnamed_addr constant [4 x i8] c"4ul\00", align 1
@.str.30 = private unnamed_addr constant [6 x i8] c"520ul\00", align 1
@.str.31 = private unnamed_addr constant [34 x i8] c"benchmark::stoul(\221010\22, &pos, 8)\00", align 1
@.str.32 = private unnamed_addr constant [7 x i8] c"1010ul\00", align 1
@.str.33 = private unnamed_addr constant [35 x i8] c"benchmark::stoul(\221010\22, &pos, 10)\00", align 1
@.str.34 = private unnamed_addr constant [7 x i8] c"4112ul\00", align 1
@.str.35 = private unnamed_addr constant [35 x i8] c"benchmark::stoul(\221010\22, &pos, 16)\00", align 1
@.str.36 = private unnamed_addr constant [9 x i8] c"0xBEEFul\00", align 1
@.str.37 = private unnamed_addr constant [35 x i8] c"benchmark::stoul(\22BEEF\22, &pos, 16)\00", align 1
@.str.38 = private unnamed_addr constant [5 x i8] c"BEEF\00", align 1
@_ZTISt16invalid_argument = external constant ptr
@_ZTISt9exception = external constant ptr
@.str.39 = private unnamed_addr constant [15 x i8] c"this is a test\00", align 1
@.str.40 = private unnamed_addr constant [134 x i8] c"Expected: benchmark::stoul(\22this is a test\22) throws an exception of type std::invalid_argument.\0A  Actual: it throws a different type.\00", align 1
@.str.41 = private unnamed_addr constant [117 x i8] c"Expected: benchmark::stoul(\22this is a test\22) throws an exception of type std::invalid_argument.\0A  Actual: it throws \00", align 1
@.str.42 = private unnamed_addr constant [20 x i8] c" with description \22\00", align 1
@.str.43 = private unnamed_addr constant [3 x i8] c"\22.\00", align 1
@.str.44 = private unnamed_addr constant [125 x i8] c"Expected: benchmark::stoul(\22this is a test\22) throws an exception of type std::invalid_argument.\0A  Actual: it throws nothing.\00", align 1
@_ZTVNSt3__118basic_stringstreamIcNS_11char_traitsIcEENS_9allocatorIcEEEE = linkonce_odr dso_local unnamed_addr constant { [5 x ptr], [5 x ptr], [5 x ptr] } { [5 x ptr] [ptr inttoptr (i64 128 to ptr), ptr null, ptr @_ZTINSt3__118basic_stringstreamIcNS_11char_traitsIcEENS_9allocatorIcEEEE, ptr @_ZNSt3__118basic_stringstreamIcNS_11char_traitsIcEENS_9allocatorIcEEED1Ev, ptr @_ZNSt3__118basic_stringstreamIcNS_11char_traitsIcEENS_9allocatorIcEEED0Ev], [5 x ptr] [ptr inttoptr (i64 112 to ptr), ptr inttoptr (i64 -16 to ptr), ptr @_ZTINSt3__118basic_stringstreamIcNS_11char_traitsIcEENS_9allocatorIcEEEE, ptr @_ZThn16_NSt3__118basic_stringstreamIcNS_11char_traitsIcEENS_9allocatorIcEEED1Ev, ptr @_ZThn16_NSt3__118basic_stringstreamIcNS_11char_traitsIcEENS_9allocatorIcEEED0Ev], [5 x ptr] [ptr inttoptr (i64 -128 to ptr), ptr inttoptr (i64 -128 to ptr), ptr @_ZTINSt3__118basic_stringstreamIcNS_11char_traitsIcEENS_9allocatorIcEEEE, ptr @_ZTv0_n24_NSt3__118basic_stringstreamIcNS_11char_traitsIcEENS_9allocatorIcEEED1Ev, ptr @_ZTv0_n24_NSt3__118basic_stringstreamIcNS_11char_traitsIcEENS_9allocatorIcEEED0Ev] }, comdat, align 8
@_ZTTNSt3__118basic_stringstreamIcNS_11char_traitsIcEENS_9allocatorIcEEEE = linkonce_odr dso_local unnamed_addr constant [10 x ptr] [ptr getelementptr inbounds ({ [5 x ptr], [5 x ptr], [5 x ptr] }, ptr @_ZTVNSt3__118basic_stringstreamIcNS_11char_traitsIcEENS_9allocatorIcEEEE, i32 0, inrange i32 0, i32 3), ptr getelementptr inbounds ({ [5 x ptr], [5 x ptr], [5 x ptr] }, ptr @_ZTCNSt3__118basic_stringstreamIcNS_11char_traitsIcEENS_9allocatorIcEEEE0_NS_14basic_iostreamIcS2_EE, i32 0, inrange i32 0, i32 3), ptr getelementptr inbounds ({ [5 x ptr], [5 x ptr] }, ptr @_ZTCNSt3__118basic_stringstreamIcNS_11char_traitsIcEENS_9allocatorIcEEEE0_NS_13basic_istreamIcS2_EE, i32 0, inrange i32 0, i32 3), ptr getelementptr inbounds ({ [5 x ptr], [5 x ptr] }, ptr @_ZTCNSt3__118basic_stringstreamIcNS_11char_traitsIcEENS_9allocatorIcEEEE0_NS_13basic_istreamIcS2_EE, i32 0, inrange i32 1, i32 3), ptr getelementptr inbounds ({ [5 x ptr], [5 x ptr] }, ptr @_ZTCNSt3__118basic_stringstreamIcNS_11char_traitsIcEENS_9allocatorIcEEEE16_NS_13basic_ostreamIcS2_EE, i32 0, inrange i32 0, i32 3), ptr getelementptr inbounds ({ [5 x ptr], [5 x ptr] }, ptr @_ZTCNSt3__118basic_stringstreamIcNS_11char_traitsIcEENS_9allocatorIcEEEE16_NS_13basic_ostreamIcS2_EE, i32 0, inrange i32 1, i32 3), ptr getelementptr inbounds ({ [5 x ptr], [5 x ptr], [5 x ptr] }, ptr @_ZTCNSt3__118basic_stringstreamIcNS_11char_traitsIcEENS_9allocatorIcEEEE0_NS_14basic_iostreamIcS2_EE, i32 0, inrange i32 2, i32 3), ptr getelementptr inbounds ({ [5 x ptr], [5 x ptr], [5 x ptr] }, ptr @_ZTCNSt3__118basic_stringstreamIcNS_11char_traitsIcEENS_9allocatorIcEEEE0_NS_14basic_iostreamIcS2_EE, i32 0, inrange i32 1, i32 3), ptr getelementptr inbounds ({ [5 x ptr], [5 x ptr], [5 x ptr] }, ptr @_ZTVNSt3__118basic_stringstreamIcNS_11char_traitsIcEENS_9allocatorIcEEEE, i32 0, inrange i32 2, i32 3), ptr getelementptr inbounds ({ [5 x ptr], [5 x ptr], [5 x ptr] }, ptr @_ZTVNSt3__118basic_stringstreamIcNS_11char_traitsIcEENS_9allocatorIcEEEE, i32 0, inrange i32 1, i32 3)], comdat, align 8
@_ZTCNSt3__118basic_stringstreamIcNS_11char_traitsIcEENS_9allocatorIcEEEE0_NS_14basic_iostreamIcS2_EE = linkonce_odr dso_local unnamed_addr constant { [5 x ptr], [5 x ptr], [5 x ptr] } { [5 x ptr] [ptr inttoptr (i64 128 to ptr), ptr null, ptr @_ZTINSt3__114basic_iostreamIcNS_11char_traitsIcEEEE, ptr @_ZNSt3__114basic_iostreamIcNS_11char_traitsIcEEED1Ev, ptr @_ZNSt3__114basic_iostreamIcNS_11char_traitsIcEEED0Ev], [5 x ptr] [ptr inttoptr (i64 112 to ptr), ptr inttoptr (i64 -16 to ptr), ptr @_ZTINSt3__114basic_iostreamIcNS_11char_traitsIcEEEE, ptr @_ZThn16_NSt3__114basic_iostreamIcNS_11char_traitsIcEEED1Ev, ptr @_ZThn16_NSt3__114basic_iostreamIcNS_11char_traitsIcEEED0Ev], [5 x ptr] [ptr inttoptr (i64 -128 to ptr), ptr inttoptr (i64 -128 to ptr), ptr @_ZTINSt3__114basic_iostreamIcNS_11char_traitsIcEEEE, ptr @_ZTv0_n24_NSt3__114basic_iostreamIcNS_11char_traitsIcEEED1Ev, ptr @_ZTv0_n24_NSt3__114basic_iostreamIcNS_11char_traitsIcEEED0Ev] }, comdat, align 8
@_ZTINSt3__114basic_iostreamIcNS_11char_traitsIcEEEE = external constant ptr
@_ZTCNSt3__118basic_stringstreamIcNS_11char_traitsIcEENS_9allocatorIcEEEE0_NS_13basic_istreamIcS2_EE = linkonce_odr dso_local unnamed_addr constant { [5 x ptr], [5 x ptr] } { [5 x ptr] [ptr inttoptr (i64 128 to ptr), ptr null, ptr @_ZTINSt3__113basic_istreamIcNS_11char_traitsIcEEEE, ptr @_ZNSt3__113basic_istreamIcNS_11char_traitsIcEEED1Ev, ptr @_ZNSt3__113basic_istreamIcNS_11char_traitsIcEEED0Ev], [5 x ptr] [ptr inttoptr (i64 -128 to ptr), ptr inttoptr (i64 -128 to ptr), ptr @_ZTINSt3__113basic_istreamIcNS_11char_traitsIcEEEE, ptr @_ZTv0_n24_NSt3__113basic_istreamIcNS_11char_traitsIcEEED1Ev, ptr @_ZTv0_n24_NSt3__113basic_istreamIcNS_11char_traitsIcEEED0Ev] }, comdat, align 8
@_ZTINSt3__113basic_istreamIcNS_11char_traitsIcEEEE = external constant ptr
@_ZTCNSt3__118basic_stringstreamIcNS_11char_traitsIcEENS_9allocatorIcEEEE16_NS_13basic_ostreamIcS2_EE = linkonce_odr dso_local unnamed_addr constant { [5 x ptr], [5 x ptr] } { [5 x ptr] [ptr inttoptr (i64 112 to ptr), ptr null, ptr @_ZTINSt3__113basic_ostreamIcNS_11char_traitsIcEEEE, ptr @_ZNSt3__113basic_ostreamIcNS_11char_traitsIcEEED1Ev, ptr @_ZNSt3__113basic_ostreamIcNS_11char_traitsIcEEED0Ev], [5 x ptr] [ptr inttoptr (i64 -112 to ptr), ptr inttoptr (i64 -112 to ptr), ptr @_ZTINSt3__113basic_ostreamIcNS_11char_traitsIcEEEE, ptr @_ZTv0_n24_NSt3__113basic_ostreamIcNS_11char_traitsIcEEED1Ev, ptr @_ZTv0_n24_NSt3__113basic_ostreamIcNS_11char_traitsIcEEED0Ev] }, comdat, align 8
@_ZTINSt3__113basic_ostreamIcNS_11char_traitsIcEEEE = external constant ptr
@_ZTSNSt3__118basic_stringstreamIcNS_11char_traitsIcEENS_9allocatorIcEEEE = linkonce_odr dso_local constant [69 x i8] c"NSt3__118basic_stringstreamIcNS_11char_traitsIcEENS_9allocatorIcEEEE\00", comdat, align 1
@_ZTINSt3__118basic_stringstreamIcNS_11char_traitsIcEENS_9allocatorIcEEEE = linkonce_odr dso_local constant { ptr, ptr, ptr } { ptr getelementptr inbounds (ptr, ptr @_ZTVN10__cxxabiv120__si_class_type_infoE, i64 2), ptr @_ZTSNSt3__118basic_stringstreamIcNS_11char_traitsIcEENS_9allocatorIcEEEE, ptr @_ZTINSt3__114basic_iostreamIcNS_11char_traitsIcEEEE }, comdat, align 8
@_ZTVNSt3__115basic_stringbufIcNS_11char_traitsIcEENS_9allocatorIcEEEE = linkonce_odr dso_local unnamed_addr constant { [16 x ptr] } { [16 x ptr] [ptr null, ptr @_ZTINSt3__115basic_stringbufIcNS_11char_traitsIcEENS_9allocatorIcEEEE, ptr @_ZNSt3__115basic_stringbufIcNS_11char_traitsIcEENS_9allocatorIcEEED2Ev, ptr @_ZNSt3__115basic_stringbufIcNS_11char_traitsIcEENS_9allocatorIcEEED0Ev, ptr @_ZNSt3__115basic_streambufIcNS_11char_traitsIcEEE5imbueERKNS_6localeE, ptr @_ZNSt3__115basic_streambufIcNS_11char_traitsIcEEE6setbufEPcl, ptr @_ZNSt3__115basic_stringbufIcNS_11char_traitsIcEENS_9allocatorIcEEE7seekoffExNS_8ios_base7seekdirEj, ptr @_ZNSt3__115basic_stringbufIcNS_11char_traitsIcEENS_9allocatorIcEEE7seekposENS_4fposI11__mbstate_tEEj, ptr @_ZNSt3__115basic_streambufIcNS_11char_traitsIcEEE4syncEv, ptr @_ZNSt3__115basic_streambufIcNS_11char_traitsIcEEE9showmanycEv, ptr @_ZNSt3__115basic_streambufIcNS_11char_traitsIcEEE6xsgetnEPcl, ptr @_ZNSt3__115basic_stringbufIcNS_11char_traitsIcEENS_9allocatorIcEEE9underflowEv, ptr @_ZNSt3__115basic_streambufIcNS_11char_traitsIcEEE5uflowEv, ptr @_ZNSt3__115basic_stringbufIcNS_11char_traitsIcEENS_9allocatorIcEEE9pbackfailEi, ptr @_ZNSt3__115basic_streambufIcNS_11char_traitsIcEEE6xsputnEPKcl, ptr @_ZNSt3__115basic_stringbufIcNS_11char_traitsIcEENS_9allocatorIcEEE8overflowEi] }, comdat, align 8
@_ZTSNSt3__115basic_stringbufIcNS_11char_traitsIcEENS_9allocatorIcEEEE = linkonce_odr dso_local constant [66 x i8] c"NSt3__115basic_stringbufIcNS_11char_traitsIcEENS_9allocatorIcEEEE\00", comdat, align 1
@_ZTINSt3__115basic_streambufIcNS_11char_traitsIcEEEE = external constant ptr
@_ZTINSt3__115basic_stringbufIcNS_11char_traitsIcEENS_9allocatorIcEEEE = linkonce_odr dso_local constant { ptr, ptr, ptr } { ptr getelementptr inbounds (ptr, ptr @_ZTVN10__cxxabiv120__si_class_type_infoE, i64 2), ptr @_ZTSNSt3__115basic_stringbufIcNS_11char_traitsIcEENS_9allocatorIcEEEE, ptr @_ZTINSt3__115basic_streambufIcNS_11char_traitsIcEEEE }, comdat, align 8
@.str.45 = private unnamed_addr constant [13 x i8] c"basic_string\00", align 1
@_ZTISt12length_error = external constant ptr
@_ZTVSt12length_error = external unnamed_addr constant { [5 x ptr] }, align 8
@.str.46 = private unnamed_addr constant [1 x i8] zeroinitializer, align 1
@_ZZN7testing8internal31CanonicalizeForStdLibVersioningENSt3__112basic_stringIcNS1_11char_traitsIcEENS1_9allocatorIcEEEEE6prefix = linkonce_odr hidden constant [8 x i8] c"std::__\00", comdat, align 1
@.str.47 = private unnamed_addr constant [3 x i8] c"::\00", align 1
@_ZTVN7testing8internal15TestFactoryImplIN12_GLOBAL__N_124StringUtilTest_stoi_TestEEE = internal unnamed_addr constant { [5 x ptr] } { [5 x ptr] [ptr null, ptr @_ZTIN7testing8internal15TestFactoryImplIN12_GLOBAL__N_124StringUtilTest_stoi_TestEEE, ptr @_ZN7testing8internal15TestFactoryBaseD2Ev, ptr @_ZN7testing8internal15TestFactoryImplIN12_GLOBAL__N_124StringUtilTest_stoi_TestEED0Ev, ptr @_ZN7testing8internal15TestFactoryImplIN12_GLOBAL__N_124StringUtilTest_stoi_TestEE10CreateTestEv] }, align 8
@_ZTSN7testing8internal15TestFactoryImplIN12_GLOBAL__N_124StringUtilTest_stoi_TestEEE = internal constant [81 x i8] c"N7testing8internal15TestFactoryImplIN12_GLOBAL__N_124StringUtilTest_stoi_TestEEE\00", align 1
@_ZTIN7testing8internal15TestFactoryImplIN12_GLOBAL__N_124StringUtilTest_stoi_TestEEE = internal constant { ptr, ptr, ptr } { ptr getelementptr inbounds (ptr, ptr @_ZTVN10__cxxabiv120__si_class_type_infoE, i64 2), ptr @_ZTSN7testing8internal15TestFactoryImplIN12_GLOBAL__N_124StringUtilTest_stoi_TestEEE, ptr @_ZTIN7testing8internal15TestFactoryBaseE }, align 8
@_ZTVN12_GLOBAL__N_124StringUtilTest_stoi_TestE = internal unnamed_addr constant { [8 x ptr] } { [8 x ptr] [ptr null, ptr @_ZTIN12_GLOBAL__N_124StringUtilTest_stoi_TestE, ptr @_ZN7testing4TestD2Ev, ptr @_ZN12_GLOBAL__N_124StringUtilTest_stoi_TestD0Ev, ptr @_ZN7testing4Test5SetUpEv, ptr @_ZN7testing4Test8TearDownEv, ptr @_ZN12_GLOBAL__N_124StringUtilTest_stoi_Test8TestBodyEv, ptr @_ZN7testing4Test5SetupEv] }, align 8
@_ZTSN12_GLOBAL__N_124StringUtilTest_stoi_TestE = internal constant [43 x i8] c"N12_GLOBAL__N_124StringUtilTest_stoi_TestE\00", align 1
@_ZTIN12_GLOBAL__N_124StringUtilTest_stoi_TestE = internal constant { ptr, ptr, ptr } { ptr getelementptr inbounds (ptr, ptr @_ZTVN10__cxxabiv120__si_class_type_infoE, i64 2), ptr @_ZTSN12_GLOBAL__N_124StringUtilTest_stoi_TestE, ptr @_ZTIN7testing4TestE }, align 8
@.str.48 = private unnamed_addr constant [27 x i8] c"benchmark::stoi(\220\22, &pos)\00", align 1
@.str.49 = private unnamed_addr constant [4 x i8] c"-17\00", align 1
@.str.50 = private unnamed_addr constant [29 x i8] c"benchmark::stoi(\22-17\22, &pos)\00", align 1
@.str.51 = private unnamed_addr constant [5 x i8] c"1357\00", align 1
@.str.52 = private unnamed_addr constant [30 x i8] c"benchmark::stoi(\221357\22, &pos)\00", align 1
@.str.53 = private unnamed_addr constant [3 x i8] c"10\00", align 1
@.str.54 = private unnamed_addr constant [33 x i8] c"benchmark::stoi(\221010\22, &pos, 2)\00", align 1
@.str.55 = private unnamed_addr constant [4 x i8] c"520\00", align 1
@.str.56 = private unnamed_addr constant [33 x i8] c"benchmark::stoi(\221010\22, &pos, 8)\00", align 1
@.str.57 = private unnamed_addr constant [34 x i8] c"benchmark::stoi(\221010\22, &pos, 10)\00", align 1
@.str.58 = private unnamed_addr constant [5 x i8] c"4112\00", align 1
@.str.59 = private unnamed_addr constant [34 x i8] c"benchmark::stoi(\221010\22, &pos, 16)\00", align 1
@.str.60 = private unnamed_addr constant [7 x i8] c"0xBEEF\00", align 1
@.str.61 = private unnamed_addr constant [34 x i8] c"benchmark::stoi(\22BEEF\22, &pos, 16)\00", align 1
@.str.62 = private unnamed_addr constant [133 x i8] c"Expected: benchmark::stoi(\22this is a test\22) throws an exception of type std::invalid_argument.\0A  Actual: it throws a different type.\00", align 1
@.str.63 = private unnamed_addr constant [116 x i8] c"Expected: benchmark::stoi(\22this is a test\22) throws an exception of type std::invalid_argument.\0A  Actual: it throws \00", align 1
@.str.64 = private unnamed_addr constant [124 x i8] c"Expected: benchmark::stoi(\22this is a test\22) throws an exception of type std::invalid_argument.\0A  Actual: it throws nothing.\00", align 1
@_ZTVN7testing8internal15TestFactoryImplIN12_GLOBAL__N_124StringUtilTest_stod_TestEEE = internal unnamed_addr constant { [5 x ptr] } { [5 x ptr] [ptr null, ptr @_ZTIN7testing8internal15TestFactoryImplIN12_GLOBAL__N_124StringUtilTest_stod_TestEEE, ptr @_ZN7testing8internal15TestFactoryBaseD2Ev, ptr @_ZN7testing8internal15TestFactoryImplIN12_GLOBAL__N_124StringUtilTest_stod_TestEED0Ev, ptr @_ZN7testing8internal15TestFactoryImplIN12_GLOBAL__N_124StringUtilTest_stod_TestEE10CreateTestEv] }, align 8
@_ZTSN7testing8internal15TestFactoryImplIN12_GLOBAL__N_124StringUtilTest_stod_TestEEE = internal constant [81 x i8] c"N7testing8internal15TestFactoryImplIN12_GLOBAL__N_124StringUtilTest_stod_TestEEE\00", align 1
@_ZTIN7testing8internal15TestFactoryImplIN12_GLOBAL__N_124StringUtilTest_stod_TestEEE = internal constant { ptr, ptr, ptr } { ptr getelementptr inbounds (ptr, ptr @_ZTVN10__cxxabiv120__si_class_type_infoE, i64 2), ptr @_ZTSN7testing8internal15TestFactoryImplIN12_GLOBAL__N_124StringUtilTest_stod_TestEEE, ptr @_ZTIN7testing8internal15TestFactoryBaseE }, align 8
@_ZTVN12_GLOBAL__N_124StringUtilTest_stod_TestE = internal unnamed_addr constant { [8 x ptr] } { [8 x ptr] [ptr null, ptr @_ZTIN12_GLOBAL__N_124StringUtilTest_stod_TestE, ptr @_ZN7testing4TestD2Ev, ptr @_ZN12_GLOBAL__N_124StringUtilTest_stod_TestD0Ev, ptr @_ZN7testing4Test5SetUpEv, ptr @_ZN7testing4Test8TearDownEv, ptr @_ZN12_GLOBAL__N_124StringUtilTest_stod_Test8TestBodyEv, ptr @_ZN7testing4Test5SetupEv] }, align 8
@_ZTSN12_GLOBAL__N_124StringUtilTest_stod_TestE = internal constant [43 x i8] c"N12_GLOBAL__N_124StringUtilTest_stod_TestE\00", align 1
@_ZTIN12_GLOBAL__N_124StringUtilTest_stod_TestE = internal constant { ptr, ptr, ptr } { ptr getelementptr inbounds (ptr, ptr @_ZTVN10__cxxabiv120__si_class_type_infoE, i64 2), ptr @_ZTSN12_GLOBAL__N_124StringUtilTest_stod_TestE, ptr @_ZTIN7testing4TestE }, align 8
@.str.65 = private unnamed_addr constant [4 x i8] c"0.0\00", align 1
@.str.66 = private unnamed_addr constant [27 x i8] c"benchmark::stod(\220\22, &pos)\00", align 1
@.str.67 = private unnamed_addr constant [6 x i8] c"-84.0\00", align 1
@.str.68 = private unnamed_addr constant [29 x i8] c"benchmark::stod(\22-84\22, &pos)\00", align 1
@.str.69 = private unnamed_addr constant [4 x i8] c"-84\00", align 1
@.str.70 = private unnamed_addr constant [7 x i8] c"1234.0\00", align 1
@.str.71 = private unnamed_addr constant [30 x i8] c"benchmark::stod(\221234\22, &pos)\00", align 1
@.str.72 = private unnamed_addr constant [5 x i8] c"1234\00", align 1
@.str.73 = private unnamed_addr constant [4 x i8] c"1.5\00", align 1
@.str.74 = private unnamed_addr constant [29 x i8] c"benchmark::stod(\221.5\22, &pos)\00", align 1
@.str.75 = private unnamed_addr constant [9 x i8] c"-1.25e+9\00", align 1
@.str.76 = private unnamed_addr constant [34 x i8] c"benchmark::stod(\22-1.25e+9\22, &pos)\00", align 1
@.str.77 = private unnamed_addr constant [4 x i8] c"8ul\00", align 1
@.str.78 = private unnamed_addr constant [133 x i8] c"Expected: benchmark::stod(\22this is a test\22) throws an exception of type std::invalid_argument.\0A  Actual: it throws a different type.\00", align 1
@.str.79 = private unnamed_addr constant [116 x i8] c"Expected: benchmark::stod(\22this is a test\22) throws an exception of type std::invalid_argument.\0A  Actual: it throws \00", align 1
@.str.80 = private unnamed_addr constant [124 x i8] c"Expected: benchmark::stod(\22this is a test\22) throws an exception of type std::invalid_argument.\0A  Actual: it throws nothing.\00", align 1
@_ZTVN7testing8internal15TestFactoryImplIN12_GLOBAL__N_128StringUtilTest_StrSplit_TestEEE = internal unnamed_addr constant { [5 x ptr] } { [5 x ptr] [ptr null, ptr @_ZTIN7testing8internal15TestFactoryImplIN12_GLOBAL__N_128StringUtilTest_StrSplit_TestEEE, ptr @_ZN7testing8internal15TestFactoryBaseD2Ev, ptr @_ZN7testing8internal15TestFactoryImplIN12_GLOBAL__N_128StringUtilTest_StrSplit_TestEED0Ev, ptr @_ZN7testing8internal15TestFactoryImplIN12_GLOBAL__N_128StringUtilTest_StrSplit_TestEE10CreateTestEv] }, align 8
@_ZTSN7testing8internal15TestFactoryImplIN12_GLOBAL__N_128StringUtilTest_StrSplit_TestEEE = internal constant [85 x i8] c"N7testing8internal15TestFactoryImplIN12_GLOBAL__N_128StringUtilTest_StrSplit_TestEEE\00", align 1
@_ZTIN7testing8internal15TestFactoryImplIN12_GLOBAL__N_128StringUtilTest_StrSplit_TestEEE = internal constant { ptr, ptr, ptr } { ptr getelementptr inbounds (ptr, ptr @_ZTVN10__cxxabiv120__si_class_type_infoE, i64 2), ptr @_ZTSN7testing8internal15TestFactoryImplIN12_GLOBAL__N_128StringUtilTest_StrSplit_TestEEE, ptr @_ZTIN7testing8internal15TestFactoryBaseE }, align 8
@_ZTVN12_GLOBAL__N_128StringUtilTest_StrSplit_TestE = internal unnamed_addr constant { [8 x ptr] } { [8 x ptr] [ptr null, ptr @_ZTIN12_GLOBAL__N_128StringUtilTest_StrSplit_TestE, ptr @_ZN7testing4TestD2Ev, ptr @_ZN12_GLOBAL__N_128StringUtilTest_StrSplit_TestD0Ev, ptr @_ZN7testing4Test5SetUpEv, ptr @_ZN7testing4Test8TearDownEv, ptr @_ZN12_GLOBAL__N_128StringUtilTest_StrSplit_Test8TestBodyEv, ptr @_ZN7testing4Test5SetupEv] }, align 8
@_ZTSN12_GLOBAL__N_128StringUtilTest_StrSplit_TestE = internal constant [47 x i8] c"N12_GLOBAL__N_128StringUtilTest_StrSplit_TestE\00", align 1
@_ZTIN12_GLOBAL__N_128StringUtilTest_StrSplit_TestE = internal constant { ptr, ptr, ptr } { ptr getelementptr inbounds (ptr, ptr @_ZTVN10__cxxabiv120__si_class_type_infoE, i64 2), ptr @_ZTSN12_GLOBAL__N_128StringUtilTest_StrSplit_TestE, ptr @_ZTIN7testing4TestE }, align 8
@.str.81 = private unnamed_addr constant [29 x i8] c"benchmark::StrSplit(\22\22, ',')\00", align 1
@.str.82 = private unnamed_addr constant [27 x i8] c"std::vector<std::string>{}\00", align 1
@.str.83 = private unnamed_addr constant [34 x i8] c"benchmark::StrSplit(\22hello\22, ',')\00", align 1
@.str.84 = private unnamed_addr constant [36 x i8] c"std::vector<std::string>({\22hello\22})\00", align 1
@.str.85 = private unnamed_addr constant [6 x i8] c"hello\00", align 1
@.str.86 = private unnamed_addr constant [48 x i8] c"benchmark::StrSplit(\22hello,there,is,more\22, ',')\00", align 1
@.str.87 = private unnamed_addr constant [59 x i8] c"std::vector<std::string>({\22hello\22, \22there\22, \22is\22, \22more\22})\00", align 1
@.str.88 = private unnamed_addr constant [20 x i8] c"hello,there,is,more\00", align 1
@.str.89 = private unnamed_addr constant [6 x i8] c"there\00", align 1
@.str.90 = private unnamed_addr constant [3 x i8] c"is\00", align 1
@.str.91 = private unnamed_addr constant [5 x i8] c"more\00", align 1
@.str.92 = private unnamed_addr constant [5 x i8] c" ...\00", align 1
@_ZNSt3__15ctypeIcE2idE = external global %"class.std::__1::locale::id", align 8
@.str.94 = private unnamed_addr constant [145 x i8] c"/local/mnt2/workspace2/mnadeem/llvm/llvm-test-suite/MicroBenchmarks/libs/benchmark/googletest/googletest/include/gtest/internal/gtest-internal.h\00", align 1
@.str.95 = private unnamed_addr constant [51 x i8] c"Condition !test_case_fp || !test_suite_fp failed. \00", align 1
@.str.96 = private unnamed_addr constant [107 x i8] c"Test can not provide both SetUpTestSuite and SetUpTestCase, please make sure there is only one present at \00", align 1
@.str.97 = private unnamed_addr constant [2 x i8] c":\00", align 1
@_ZNSt3__14cerrE = external global %"class.std::__1::basic_ostream", align 8
@.str.98 = private unnamed_addr constant [112 x i8] c"Test can not provide both TearDownTestSuite and TearDownTestCase, please make sure there is only one present at\00", align 1
@llvm.global_ctors = appending global [1 x { i32, ptr, ptr }] [{ i32, ptr, ptr } { i32 65535, ptr @_GLOBAL__sub_I_string_util_gtest.cc, ptr null }]

declare noundef i32 @_ZN9benchmark8internal17InitializeStreamsEv() local_unnamed_addr #0

declare noundef ptr @_ZN7testing8internal23MakeAndRegisterTestInfoEPKcS2_S2_S2_NS0_12CodeLocationEPKvPFvvES7_PNS0_15TestFactoryBaseE(ptr noundef, ptr noundef, ptr noundef, ptr noundef, ptr noundef, ptr noundef, ptr noundef, ptr noundef, ptr noundef) local_unnamed_addr #0

; Function Attrs: mustprogress nocallback nofree nosync nounwind willreturn memory(argmem: readwrite)
declare void @llvm.lifetime.start.p0(i64 immarg, ptr nocapture) #1

declare i32 @__gxx_personality_v0(...)

declare noundef ptr @_ZN7testing8internal13GetTestTypeIdEv() local_unnamed_addr #0

; Function Attrs: mustprogress uwtable
define linkonce_odr hidden noundef ptr @_ZN7testing8internal16SuiteApiResolverINS_4TestEE19GetSetUpCaseOrSuiteEPKci(ptr noundef %filename, i32 noundef %line_num) local_unnamed_addr #2 comdat align 2 personality ptr @__gxx_personality_v0 {
entry:
  %ref.tmp = alloca %"class.testing::internal::GTestLog", align 4
  %call3 = tail call noundef zeroext i1 @_ZN7testing8internal6IsTrueEb(i1 noundef zeroext true)
  br i1 %call3, label %if.end, label %if.else

if.else:                                          ; preds = %entry
  call void @llvm.lifetime.start.p0(i64 4, ptr nonnull %ref.tmp) #22
  call void @_ZN7testing8internal8GTestLogC1ENS0_16GTestLogSeverityEPKci(ptr noundef nonnull align 4 dereferenceable(4) %ref.tmp, i32 noundef 3, ptr noundef nonnull @.str.94, i32 noundef 531)
  %call1.i19 = invoke noundef nonnull align 8 dereferenceable(8) ptr @_ZNSt3__124__put_character_sequenceB7v170000IcNS_11char_traitsIcEEEERNS_13basic_ostreamIT_T0_EES7_PKS4_m(ptr noundef nonnull align 8 dereferenceable(8) @_ZNSt3__14cerrE, ptr noundef nonnull @.str.95, i64 noundef 50)
          to label %invoke.cont5 unwind label %lpad

invoke.cont5:                                     ; preds = %if.else
  %call1.i21 = invoke noundef nonnull align 8 dereferenceable(8) ptr @_ZNSt3__124__put_character_sequenceB7v170000IcNS_11char_traitsIcEEEERNS_13basic_ostreamIT_T0_EES7_PKS4_m(ptr noundef nonnull align 8 dereferenceable(8) %call1.i19, ptr noundef nonnull @.str.96, i64 noundef 106)
          to label %invoke.cont7 unwind label %lpad

invoke.cont7:                                     ; preds = %invoke.cont5
  %call.i.i.i23 = call i64 @strlen(ptr noundef nonnull dereferenceable(1) %filename) #22
  %call1.i24 = invoke noundef nonnull align 8 dereferenceable(8) ptr @_ZNSt3__124__put_character_sequenceB7v170000IcNS_11char_traitsIcEEEERNS_13basic_ostreamIT_T0_EES7_PKS4_m(ptr noundef nonnull align 8 dereferenceable(8) %call1.i21, ptr noundef %filename, i64 noundef %call.i.i.i23)
          to label %invoke.cont9 unwind label %lpad

invoke.cont9:                                     ; preds = %invoke.cont7
  %call1.i27 = invoke noundef nonnull align 8 dereferenceable(8) ptr @_ZNSt3__124__put_character_sequenceB7v170000IcNS_11char_traitsIcEEEERNS_13basic_ostreamIT_T0_EES7_PKS4_m(ptr noundef nonnull align 8 dereferenceable(8) %call1.i24, ptr noundef nonnull @.str.97, i64 noundef 1)
          to label %invoke.cont11 unwind label %lpad

invoke.cont11:                                    ; preds = %invoke.cont9
  %call14 = invoke noundef nonnull align 8 dereferenceable(8) ptr @_ZNSt3__113basic_ostreamIcNS_11char_traitsIcEEElsEi(ptr noundef nonnull align 8 dereferenceable(8) %call1.i27, i32 noundef %line_num)
          to label %invoke.cont13 unwind label %lpad

invoke.cont13:                                    ; preds = %invoke.cont11
  call void @_ZN7testing8internal8GTestLogD1Ev(ptr noundef nonnull align 4 dereferenceable(4) %ref.tmp) #22
  call void @llvm.lifetime.end.p0(i64 4, ptr nonnull %ref.tmp) #22
  br label %if.end

lpad:                                             ; preds = %invoke.cont9, %invoke.cont7, %invoke.cont5, %if.else, %invoke.cont11
  %0 = landingpad { ptr, i32 }
          cleanup
  call void @_ZN7testing8internal8GTestLogD1Ev(ptr noundef nonnull align 4 dereferenceable(4) %ref.tmp) #22
  call void @llvm.lifetime.end.p0(i64 4, ptr nonnull %ref.tmp) #22
  resume { ptr, i32 } %0

if.end:                                           ; preds = %entry, %invoke.cont13
  ret ptr null
}

; Function Attrs: mustprogress uwtable
define linkonce_odr hidden noundef ptr @_ZN7testing8internal16SuiteApiResolverINS_4TestEE22GetTearDownCaseOrSuiteEPKci(ptr noundef %filename, i32 noundef %line_num) local_unnamed_addr #2 comdat align 2 personality ptr @__gxx_personality_v0 {
entry:
  %ref.tmp = alloca %"class.testing::internal::GTestLog", align 4
  %call3 = tail call noundef zeroext i1 @_ZN7testing8internal6IsTrueEb(i1 noundef zeroext true)
  br i1 %call3, label %if.end, label %if.else

if.else:                                          ; preds = %entry
  call void @llvm.lifetime.start.p0(i64 4, ptr nonnull %ref.tmp) #22
  call void @_ZN7testing8internal8GTestLogC1ENS0_16GTestLogSeverityEPKci(ptr noundef nonnull align 4 dereferenceable(4) %ref.tmp, i32 noundef 3, ptr noundef nonnull @.str.94, i32 noundef 552)
  %call1.i18 = invoke noundef nonnull align 8 dereferenceable(8) ptr @_ZNSt3__124__put_character_sequenceB7v170000IcNS_11char_traitsIcEEEERNS_13basic_ostreamIT_T0_EES7_PKS4_m(ptr noundef nonnull align 8 dereferenceable(8) @_ZNSt3__14cerrE, ptr noundef nonnull @.str.95, i64 noundef 50)
          to label %invoke.cont unwind label %lpad

invoke.cont:                                      ; preds = %if.else
  %call1.i20 = invoke noundef nonnull align 8 dereferenceable(8) ptr @_ZNSt3__124__put_character_sequenceB7v170000IcNS_11char_traitsIcEEEERNS_13basic_ostreamIT_T0_EES7_PKS4_m(ptr noundef nonnull align 8 dereferenceable(8) %call1.i18, ptr noundef nonnull @.str.98, i64 noundef 111)
          to label %invoke.cont6 unwind label %lpad

invoke.cont6:                                     ; preds = %invoke.cont
  %call.i.i.i22 = call i64 @strlen(ptr noundef nonnull dereferenceable(1) %filename) #22
  %call1.i23 = invoke noundef nonnull align 8 dereferenceable(8) ptr @_ZNSt3__124__put_character_sequenceB7v170000IcNS_11char_traitsIcEEEERNS_13basic_ostreamIT_T0_EES7_PKS4_m(ptr noundef nonnull align 8 dereferenceable(8) %call1.i20, ptr noundef %filename, i64 noundef %call.i.i.i22)
          to label %invoke.cont8 unwind label %lpad

invoke.cont8:                                     ; preds = %invoke.cont6
  %call1.i26 = invoke noundef nonnull align 8 dereferenceable(8) ptr @_ZNSt3__124__put_character_sequenceB7v170000IcNS_11char_traitsIcEEEERNS_13basic_ostreamIT_T0_EES7_PKS4_m(ptr noundef nonnull align 8 dereferenceable(8) %call1.i23, ptr noundef nonnull @.str.97, i64 noundef 1)
          to label %invoke.cont10 unwind label %lpad

invoke.cont10:                                    ; preds = %invoke.cont8
  %call13 = invoke noundef nonnull align 8 dereferenceable(8) ptr @_ZNSt3__113basic_ostreamIcNS_11char_traitsIcEEElsEi(ptr noundef nonnull align 8 dereferenceable(8) %call1.i26, i32 noundef %line_num)
          to label %invoke.cont12 unwind label %lpad

invoke.cont12:                                    ; preds = %invoke.cont10
  call void @_ZN7testing8internal8GTestLogD1Ev(ptr noundef nonnull align 4 dereferenceable(4) %ref.tmp) #22
  call void @llvm.lifetime.end.p0(i64 4, ptr nonnull %ref.tmp) #22
  br label %if.end

lpad:                                             ; preds = %invoke.cont8, %invoke.cont6, %invoke.cont, %if.else, %invoke.cont10
  %0 = landingpad { ptr, i32 }
          cleanup
  call void @_ZN7testing8internal8GTestLogD1Ev(ptr noundef nonnull align 4 dereferenceable(4) %ref.tmp) #22
  call void @llvm.lifetime.end.p0(i64 4, ptr nonnull %ref.tmp) #22
  resume { ptr, i32 } %0

if.end:                                           ; preds = %entry, %invoke.cont12
  ret ptr null
}

; Function Attrs: nobuiltin allocsize(0)
declare noundef nonnull ptr @_Znwm(i64 noundef) local_unnamed_addr #3

; Function Attrs: nobuiltin nounwind
declare void @_ZdlPv(ptr noundef) local_unnamed_addr #4

; Function Attrs: mustprogress nocallback nofree nosync nounwind willreturn memory(argmem: readwrite)
declare void @llvm.lifetime.end.p0(i64 immarg, ptr nocapture) #1

; Function Attrs: mustprogress nocallback nofree nosync nounwind willreturn memory(argmem: readwrite)
declare ptr @llvm.invariant.start.p0(i64 immarg, ptr nocapture) #1

declare void @_ZNSt3__112basic_stringIcNS_11char_traitsIcEENS_9allocatorIcEEEC1ERKS5_(ptr noundef nonnull align 8 dereferenceable(24), ptr noundef nonnull align 8 dereferenceable(24)) unnamed_addr #0

; Function Attrs: inlinehint nounwind uwtable
define internal void @_ZN7testing8internal15TestFactoryImplIN12_GLOBAL__N_125StringUtilTest_stoul_TestEED0Ev(ptr noundef nonnull align 8 dereferenceable(8) %this) unnamed_addr #5 align 2 {
entry:
  tail call void @_ZdlPv(ptr noundef nonnull %this) #23
  ret void
}

; Function Attrs: uwtable
define internal noundef nonnull ptr @_ZN7testing8internal15TestFactoryImplIN12_GLOBAL__N_125StringUtilTest_stoul_TestEE10CreateTestEv(ptr nocapture nonnull readnone align 8 %this) unnamed_addr #6 align 2 personality ptr @__gxx_personality_v0 {
entry:
  %call = tail call noalias noundef nonnull dereferenceable(16) ptr @_Znwm(i64 noundef 16) #24
  invoke void @_ZN7testing4TestC2Ev(ptr noundef nonnull align 8 dereferenceable(16) %call)
          to label %invoke.cont unwind label %lpad

invoke.cont:                                      ; preds = %entry
  store ptr getelementptr inbounds ({ [8 x ptr] }, ptr @_ZTVN12_GLOBAL__N_125StringUtilTest_stoul_TestE, i64 0, inrange i32 0, i64 2), ptr %call, align 8, !tbaa !5
  ret ptr %call

lpad:                                             ; preds = %entry
  %0 = landingpad { ptr, i32 }
          cleanup
  tail call void @_ZdlPv(ptr noundef nonnull %call) #23
  resume { ptr, i32 } %0
}

declare void @_ZN7testing4TestC2Ev(ptr noundef nonnull align 8 dereferenceable(16)) unnamed_addr #0

; Function Attrs: nounwind uwtable
define internal void @_ZN12_GLOBAL__N_125StringUtilTest_stoul_TestD0Ev(ptr noundef nonnull align 8 dereferenceable(16) %this) unnamed_addr #7 align 2 {
entry:
  tail call void @_ZN7testing4TestD2Ev(ptr noundef nonnull align 8 dereferenceable(16) %this) #22
  tail call void @_ZdlPv(ptr noundef nonnull %this) #23
  ret void
}

declare void @_ZN7testing4Test5SetUpEv(ptr noundef nonnull align 8 dereferenceable(16)) unnamed_addr #0

declare void @_ZN7testing4Test8TearDownEv(ptr noundef nonnull align 8 dereferenceable(16)) unnamed_addr #0

; Function Attrs: uwtable
define internal void @_ZN12_GLOBAL__N_125StringUtilTest_stoul_Test8TestBodyEv(ptr nocapture nonnull readnone align 8 %this) unnamed_addr #6 align 2 personality ptr @__gxx_personality_v0 {
entry:
  %pos = alloca i64, align 8
  %gtest_ar = alloca %"class.testing::AssertionResult", align 8
  %ref.tmp = alloca i64, align 8
  %ref.tmp2 = alloca i64, align 8
  %ref.tmp3 = alloca %"class.std::__1::basic_string", align 8
  %ref.tmp8 = alloca %"class.testing::Message", align 8
  %ref.tmp11 = alloca %"class.testing::internal::AssertHelper", align 8
  %gtest_ar22 = alloca %"class.testing::AssertionResult", align 8
  %ref.tmp23 = alloca i64, align 8
  %ref.tmp29 = alloca %"class.testing::Message", align 8
  %ref.tmp32 = alloca %"class.testing::internal::AssertHelper", align 8
  %pos47 = alloca i64, align 8
  %gtest_ar48 = alloca %"class.testing::AssertionResult", align 8
  %ref.tmp49 = alloca i64, align 8
  %ref.tmp50 = alloca i64, align 8
  %ref.tmp51 = alloca %"class.std::__1::basic_string", align 8
  %ref.tmp65 = alloca %"class.testing::Message", align 8
  %ref.tmp68 = alloca %"class.testing::internal::AssertHelper", align 8
  %gtest_ar82 = alloca %"class.testing::AssertionResult", align 8
  %ref.tmp83 = alloca i64, align 8
  %ref.tmp89 = alloca %"class.testing::Message", align 8
  %ref.tmp92 = alloca %"class.testing::internal::AssertHelper", align 8
  %pos107 = alloca i64, align 8
  %gtest_ar108 = alloca %"class.testing::AssertionResult", align 8
  %ref.tmp109 = alloca i64, align 8
  %ref.tmp110 = alloca i64, align 8
  %ref.tmp111 = alloca %"class.std::__1::basic_string", align 8
  %ref.tmp125 = alloca %"class.testing::Message", align 8
  %ref.tmp128 = alloca %"class.testing::internal::AssertHelper", align 8
  %gtest_ar142 = alloca %"class.testing::AssertionResult", align 8
  %ref.tmp143 = alloca i64, align 8
  %ref.tmp149 = alloca %"class.testing::Message", align 8
  %ref.tmp152 = alloca %"class.testing::internal::AssertHelper", align 8
  %pos167 = alloca i64, align 8
  %gtest_ar168 = alloca %"class.testing::AssertionResult", align 8
  %ref.tmp169 = alloca i64, align 8
  %ref.tmp170 = alloca i64, align 8
  %ref.tmp171 = alloca %"class.std::__1::basic_string", align 8
  %ref.tmp185 = alloca %"class.testing::Message", align 8
  %ref.tmp188 = alloca %"class.testing::internal::AssertHelper", align 8
  %gtest_ar202 = alloca %"class.testing::AssertionResult", align 8
  %ref.tmp203 = alloca i64, align 8
  %ref.tmp209 = alloca %"class.testing::Message", align 8
  %ref.tmp212 = alloca %"class.testing::internal::AssertHelper", align 8
  %pos227 = alloca i64, align 8
  %gtest_ar228 = alloca %"class.testing::AssertionResult", align 8
  %ref.tmp229 = alloca i64, align 8
  %ref.tmp230 = alloca i64, align 8
  %ref.tmp231 = alloca %"class.std::__1::basic_string", align 8
  %ref.tmp245 = alloca %"class.testing::Message", align 8
  %ref.tmp248 = alloca %"class.testing::internal::AssertHelper", align 8
  %gtest_ar262 = alloca %"class.testing::AssertionResult", align 8
  %ref.tmp263 = alloca i64, align 8
  %ref.tmp269 = alloca %"class.testing::Message", align 8
  %ref.tmp272 = alloca %"class.testing::internal::AssertHelper", align 8
  %pos287 = alloca i64, align 8
  %gtest_ar288 = alloca %"class.testing::AssertionResult", align 8
  %ref.tmp289 = alloca i64, align 8
  %ref.tmp290 = alloca i64, align 8
  %ref.tmp291 = alloca %"class.std::__1::basic_string", align 8
  %ref.tmp305 = alloca %"class.testing::Message", align 8
  %ref.tmp308 = alloca %"class.testing::internal::AssertHelper", align 8
  %gtest_ar322 = alloca %"class.testing::AssertionResult", align 8
  %ref.tmp323 = alloca i64, align 8
  %ref.tmp329 = alloca %"class.testing::Message", align 8
  %ref.tmp332 = alloca %"class.testing::internal::AssertHelper", align 8
  %pos347 = alloca i64, align 8
  %gtest_ar348 = alloca %"class.testing::AssertionResult", align 8
  %ref.tmp349 = alloca i64, align 8
  %ref.tmp350 = alloca i64, align 8
  %ref.tmp351 = alloca %"class.std::__1::basic_string", align 8
  %ref.tmp365 = alloca %"class.testing::Message", align 8
  %ref.tmp368 = alloca %"class.testing::internal::AssertHelper", align 8
  %gtest_ar382 = alloca %"class.testing::AssertionResult", align 8
  %ref.tmp383 = alloca i64, align 8
  %ref.tmp389 = alloca %"class.testing::Message", align 8
  %ref.tmp392 = alloca %"class.testing::internal::AssertHelper", align 8
  %pos407 = alloca i64, align 8
  %gtest_ar408 = alloca %"class.testing::AssertionResult", align 8
  %ref.tmp409 = alloca i64, align 8
  %ref.tmp410 = alloca i64, align 8
  %ref.tmp411 = alloca %"class.std::__1::basic_string", align 8
  %ref.tmp425 = alloca %"class.testing::Message", align 8
  %ref.tmp428 = alloca %"class.testing::internal::AssertHelper", align 8
  %gtest_ar442 = alloca %"class.testing::AssertionResult", align 8
  %ref.tmp443 = alloca i64, align 8
  %ref.tmp449 = alloca %"class.testing::Message", align 8
  %ref.tmp452 = alloca %"class.testing::internal::AssertHelper", align 8
  %pos467 = alloca i64, align 8
  %gtest_ar468 = alloca %"class.testing::AssertionResult", align 8
  %ref.tmp469 = alloca i64, align 8
  %ref.tmp470 = alloca i64, align 8
  %ref.tmp471 = alloca %"class.std::__1::basic_string", align 8
  %ref.tmp485 = alloca %"class.testing::Message", align 8
  %ref.tmp488 = alloca %"class.testing::internal::AssertHelper", align 8
  %gtest_ar502 = alloca %"class.testing::AssertionResult", align 8
  %ref.tmp503 = alloca i64, align 8
  %ref.tmp509 = alloca %"class.testing::Message", align 8
  %ref.tmp512 = alloca %"class.testing::internal::AssertHelper", align 8
  %gtest_msg = alloca %"struct.testing::internal::TrueWithString", align 8
  %ref.tmp535 = alloca %"class.std::__1::basic_string", align 8
  %ref.tmp559 = alloca %"class.std::__1::basic_string", align 8
  %ref.tmp596 = alloca %"class.testing::Message", align 8
  %ref.tmp599 = alloca %"class.testing::internal::AssertHelper", align 8
  call void @llvm.lifetime.start.p0(i64 8, ptr nonnull %pos) #22
  store i64 0, ptr %pos, align 8, !tbaa !8
  call void @llvm.lifetime.start.p0(i64 16, ptr nonnull %gtest_ar) #22
  call void @llvm.lifetime.start.p0(i64 8, ptr nonnull %ref.tmp) #22
  store i64 0, ptr %ref.tmp, align 8, !tbaa !8
  call void @llvm.lifetime.start.p0(i64 8, ptr nonnull %ref.tmp2) #22
  call void @llvm.lifetime.start.p0(i64 24, ptr nonnull %ref.tmp3) #22
  store i8 2, ptr %ref.tmp3, align 8
  %__data_.i.i.i = getelementptr inbounds %"struct.std::__1::basic_string<char>::__short", ptr %ref.tmp3, i64 0, i32 2
  %cmp.i24.i.i = icmp ugt ptr %__data_.i.i.i, @.str.12
  %add.ptr.i.i.i = getelementptr inbounds %"struct.std::__1::basic_string<char>::__short", ptr %ref.tmp3, i64 0, i32 2, i64 1
  %cmp1.i.i.i = icmp ule ptr %add.ptr.i.i.i, @.str.12
  %0 = or i1 %cmp.i24.i.i, %cmp1.i.i.i
  call void @llvm.assume(i1 %0)
  store i8 48, ptr %__data_.i.i.i, align 1
  store i8 0, ptr %add.ptr.i.i.i, align 2, !tbaa !11
  %call = invoke noundef i64 @_ZNSt3__15stoulERKNS_12basic_stringIcNS_11char_traitsIcEENS_9allocatorIcEEEEPmi(ptr noundef nonnull align 8 dereferenceable(24) %ref.tmp3, ptr noundef nonnull %pos, i32 noundef 10)
          to label %invoke.cont unwind label %lpad

invoke.cont:                                      ; preds = %entry
  store i64 %call, ptr %ref.tmp2, align 8, !tbaa !8
  %cmp.i.i710 = icmp eq i64 %call, 0
  br i1 %cmp.i.i710, label %if.then.i.i711, label %if.end.i.i712

if.then.i.i711:                                   ; preds = %invoke.cont
  invoke void @_ZN7testing16AssertionSuccessEv(ptr nonnull sret(%"class.testing::AssertionResult") align 8 %gtest_ar)
          to label %invoke.cont4 unwind label %lpad

if.end.i.i712:                                    ; preds = %invoke.cont
  invoke void @_ZN7testing8internal18CmpHelperEQFailureImmEENS_15AssertionResultEPKcS4_RKT_RKT0_(ptr nonnull sret(%"class.testing::AssertionResult") align 8 %gtest_ar, ptr noundef nonnull @.str.10, ptr noundef nonnull @.str.11, ptr noundef nonnull align 8 dereferenceable(8) %ref.tmp, ptr noundef nonnull align 8 dereferenceable(8) %ref.tmp2)
          to label %invoke.cont4 unwind label %lpad

invoke.cont4:                                     ; preds = %if.then.i.i711, %if.end.i.i712
  %bf.load.i.i = load i8, ptr %ref.tmp3, align 8
  %bf.clear.i.i = and i8 %bf.load.i.i, 1
  %tobool.i.not.i = icmp eq i8 %bf.clear.i.i, 0
  br i1 %tobool.i.not.i, label %_ZNSt3__112basic_stringIcNS_11char_traitsIcEENS_9allocatorIcEEED2Ev.exit, label %if.then.i

if.then.i:                                        ; preds = %invoke.cont4
  %__data_.i.i = getelementptr inbounds %"struct.std::__1::basic_string<char>::__long", ptr %ref.tmp3, i64 0, i32 2
  %1 = load ptr, ptr %__data_.i.i, align 8, !tbaa !11
  call void @_ZdlPv(ptr noundef %1) #23
  br label %_ZNSt3__112basic_stringIcNS_11char_traitsIcEENS_9allocatorIcEEED2Ev.exit

_ZNSt3__112basic_stringIcNS_11char_traitsIcEENS_9allocatorIcEEED2Ev.exit: ; preds = %invoke.cont4, %if.then.i
  call void @llvm.lifetime.end.p0(i64 24, ptr nonnull %ref.tmp3) #22
  call void @llvm.lifetime.end.p0(i64 8, ptr nonnull %ref.tmp2) #22
  call void @llvm.lifetime.end.p0(i64 8, ptr nonnull %ref.tmp) #22
  %2 = load i8, ptr %gtest_ar, align 8, !tbaa !12, !range !19, !noundef !20
  %tobool.i.not = icmp eq i8 %2, 0
  br i1 %tobool.i.not, label %if.else, label %if.end

lpad:                                             ; preds = %if.end.i.i712, %if.then.i.i711, %entry
  %3 = landingpad { ptr, i32 }
          cleanup
  %bf.load.i.i714 = load i8, ptr %ref.tmp3, align 8
  %bf.clear.i.i715 = and i8 %bf.load.i.i714, 1
  %tobool.i.not.i716 = icmp eq i8 %bf.clear.i.i715, 0
  br i1 %tobool.i.not.i716, label %_ZNSt3__112basic_stringIcNS_11char_traitsIcEENS_9allocatorIcEEED2Ev.exit719, label %if.then.i718

if.then.i718:                                     ; preds = %lpad
  %__data_.i.i717 = getelementptr inbounds %"struct.std::__1::basic_string<char>::__long", ptr %ref.tmp3, i64 0, i32 2
  %4 = load ptr, ptr %__data_.i.i717, align 8, !tbaa !11
  call void @_ZdlPv(ptr noundef %4) #23
  br label %_ZNSt3__112basic_stringIcNS_11char_traitsIcEENS_9allocatorIcEEED2Ev.exit719

_ZNSt3__112basic_stringIcNS_11char_traitsIcEENS_9allocatorIcEEED2Ev.exit719: ; preds = %lpad, %if.then.i718
  call void @llvm.lifetime.end.p0(i64 24, ptr nonnull %ref.tmp3) #22
  call void @llvm.lifetime.end.p0(i64 8, ptr nonnull %ref.tmp2) #22
  call void @llvm.lifetime.end.p0(i64 8, ptr nonnull %ref.tmp) #22
  br label %ehcleanup21

if.else:                                          ; preds = %_ZNSt3__112basic_stringIcNS_11char_traitsIcEENS_9allocatorIcEEED2Ev.exit
  call void @llvm.lifetime.start.p0(i64 8, ptr nonnull %ref.tmp8) #22
  invoke void @_ZN7testing7MessageC1Ev(ptr noundef nonnull align 8 dereferenceable(8) %ref.tmp8)
          to label %invoke.cont10 unwind label %lpad9

invoke.cont10:                                    ; preds = %if.else
  call void @llvm.lifetime.start.p0(i64 8, ptr nonnull %ref.tmp11) #22
  %message_.i.i = getelementptr inbounds %"class.testing::AssertionResult", ptr %gtest_ar, i64 0, i32 1
  %5 = load ptr, ptr %message_.i.i, align 8, !tbaa !21
  %cmp.not.i.i = icmp eq ptr %5, null
  br i1 %cmp.not.i.i, label %invoke.cont13, label %cond.true.i.i

cond.true.i.i:                                    ; preds = %invoke.cont10
  %bf.load.i.i.i.i.i.i = load i8, ptr %5, align 8
  %bf.clear.i.i.i.i.i.i = and i8 %bf.load.i.i.i.i.i.i, 1
  %tobool.i.not.i.i.i.i.i = icmp eq i8 %bf.clear.i.i.i.i.i.i, 0
  %__data_.i.i.i.i.i.i = getelementptr inbounds %"struct.std::__1::basic_string<char>::__long", ptr %5, i64 0, i32 2
  %6 = load ptr, ptr %__data_.i.i.i.i.i.i, align 8
  %__data_.i4.i.i.i.i.i = getelementptr inbounds %"struct.std::__1::basic_string<char>::__short", ptr %5, i64 0, i32 2
  %cond.i.i.i.i.i = select i1 %tobool.i.not.i.i.i.i.i, ptr %__data_.i4.i.i.i.i.i, ptr %6
  br label %invoke.cont13

invoke.cont13:                                    ; preds = %cond.true.i.i, %invoke.cont10
  %cond.i.i = phi ptr [ %cond.i.i.i.i.i, %cond.true.i.i ], [ @.str.46, %invoke.cont10 ]
  invoke void @_ZN7testing8internal12AssertHelperC1ENS_14TestPartResult4TypeEPKciS5_(ptr noundef nonnull align 8 dereferenceable(8) %ref.tmp11, i32 noundef 1, ptr noundef nonnull @.str.3, i32 noundef 13, ptr noundef %cond.i.i)
          to label %invoke.cont15 unwind label %lpad12

invoke.cont15:                                    ; preds = %invoke.cont13
  invoke void @_ZNK7testing8internal12AssertHelperaSERKNS_7MessageE(ptr noundef nonnull align 8 dereferenceable(8) %ref.tmp11, ptr noundef nonnull align 8 dereferenceable(8) %ref.tmp8)
          to label %invoke.cont17 unwind label %lpad16

invoke.cont17:                                    ; preds = %invoke.cont15
  call void @_ZN7testing8internal12AssertHelperD1Ev(ptr noundef nonnull align 8 dereferenceable(8) %ref.tmp11) #22
  call void @llvm.lifetime.end.p0(i64 8, ptr nonnull %ref.tmp11) #22
  %7 = load ptr, ptr %ref.tmp8, align 8, !tbaa !21
  store ptr null, ptr %ref.tmp8, align 8, !tbaa !21
  %tobool.not.i.i.i = icmp eq ptr %7, null
  br i1 %tobool.not.i.i.i, label %_ZN7testing7MessageD2Ev.exit, label %_ZNKSt3__114default_deleteINS_18basic_stringstreamIcNS_11char_traitsIcEENS_9allocatorIcEEEEEclB7v170000EPS6_.exit.i.i.i

_ZNKSt3__114default_deleteINS_18basic_stringstreamIcNS_11char_traitsIcEENS_9allocatorIcEEEEEclB7v170000EPS6_.exit.i.i.i: ; preds = %invoke.cont17
  %vtable.i.i.i.i = load ptr, ptr %7, align 8, !tbaa !5
  %vfn.i.i.i.i = getelementptr inbounds ptr, ptr %vtable.i.i.i.i, i64 1
  %8 = load ptr, ptr %vfn.i.i.i.i, align 8
  call void %8(ptr noundef nonnull align 8 dereferenceable(128) %7) #22
  br label %_ZN7testing7MessageD2Ev.exit

_ZN7testing7MessageD2Ev.exit:                     ; preds = %invoke.cont17, %_ZNKSt3__114default_deleteINS_18basic_stringstreamIcNS_11char_traitsIcEENS_9allocatorIcEEEEEclB7v170000EPS6_.exit.i.i.i
  call void @llvm.lifetime.end.p0(i64 8, ptr nonnull %ref.tmp8) #22
  br label %if.end

lpad9:                                            ; preds = %if.else
  %9 = landingpad { ptr, i32 }
          cleanup
  br label %ehcleanup19

lpad12:                                           ; preds = %invoke.cont13
  %10 = landingpad { ptr, i32 }
          cleanup
  br label %ehcleanup

lpad16:                                           ; preds = %invoke.cont15
  %11 = landingpad { ptr, i32 }
          cleanup
  call void @_ZN7testing8internal12AssertHelperD1Ev(ptr noundef nonnull align 8 dereferenceable(8) %ref.tmp11) #22
  br label %ehcleanup

ehcleanup:                                        ; preds = %lpad16, %lpad12
  %.pn = phi { ptr, i32 } [ %11, %lpad16 ], [ %10, %lpad12 ]
  call void @llvm.lifetime.end.p0(i64 8, ptr nonnull %ref.tmp11) #22
  %12 = load ptr, ptr %ref.tmp8, align 8, !tbaa !21
  store ptr null, ptr %ref.tmp8, align 8, !tbaa !21
  %tobool.not.i.i.i720 = icmp eq ptr %12, null
  br i1 %tobool.not.i.i.i720, label %ehcleanup19, label %_ZNKSt3__114default_deleteINS_18basic_stringstreamIcNS_11char_traitsIcEENS_9allocatorIcEEEEEclB7v170000EPS6_.exit.i.i.i723

_ZNKSt3__114default_deleteINS_18basic_stringstreamIcNS_11char_traitsIcEENS_9allocatorIcEEEEEclB7v170000EPS6_.exit.i.i.i723: ; preds = %ehcleanup
  %vtable.i.i.i.i721 = load ptr, ptr %12, align 8, !tbaa !5
  %vfn.i.i.i.i722 = getelementptr inbounds ptr, ptr %vtable.i.i.i.i721, i64 1
  %13 = load ptr, ptr %vfn.i.i.i.i722, align 8
  call void %13(ptr noundef nonnull align 8 dereferenceable(128) %12) #22
  br label %ehcleanup19

ehcleanup19:                                      ; preds = %_ZNKSt3__114default_deleteINS_18basic_stringstreamIcNS_11char_traitsIcEENS_9allocatorIcEEEEEclB7v170000EPS6_.exit.i.i.i723, %ehcleanup, %lpad9
  %.pn.pn = phi { ptr, i32 } [ %9, %lpad9 ], [ %.pn, %ehcleanup ], [ %.pn, %_ZNKSt3__114default_deleteINS_18basic_stringstreamIcNS_11char_traitsIcEENS_9allocatorIcEEEEEclB7v170000EPS6_.exit.i.i.i723 ]
  call void @llvm.lifetime.end.p0(i64 8, ptr nonnull %ref.tmp8) #22
  call void @_ZN7testing15AssertionResultD2Ev(ptr noundef nonnull align 8 dereferenceable(16) %gtest_ar) #22
  br label %ehcleanup21

if.end:                                           ; preds = %_ZNSt3__112basic_stringIcNS_11char_traitsIcEENS_9allocatorIcEEED2Ev.exit, %_ZN7testing7MessageD2Ev.exit
  %message_.i = getelementptr inbounds %"class.testing::AssertionResult", ptr %gtest_ar, i64 0, i32 1
  %14 = load ptr, ptr %message_.i, align 8, !tbaa !21
  store ptr null, ptr %message_.i, align 8, !tbaa !21
  %tobool.not.i.i.i725 = icmp eq ptr %14, null
  br i1 %tobool.not.i.i.i725, label %_ZN7testing15AssertionResultD2Ev.exit, label %delete.notnull.i.i.i.i

delete.notnull.i.i.i.i:                           ; preds = %if.end
  %bf.load.i.i.i.i.i.i726 = load i8, ptr %14, align 8
  %bf.clear.i.i.i.i.i.i727 = and i8 %bf.load.i.i.i.i.i.i726, 1
  %tobool.i.not.i.i.i.i.i728 = icmp eq i8 %bf.clear.i.i.i.i.i.i727, 0
  br i1 %tobool.i.not.i.i.i.i.i728, label %_ZNKSt3__114default_deleteINS_12basic_stringIcNS_11char_traitsIcEENS_9allocatorIcEEEEEclB7v170000EPS6_.exit.i.i.i, label %if.then.i.i.i.i.i

if.then.i.i.i.i.i:                                ; preds = %delete.notnull.i.i.i.i
  %__data_.i.i.i.i.i.i729 = getelementptr inbounds %"struct.std::__1::basic_string<char>::__long", ptr %14, i64 0, i32 2
  %15 = load ptr, ptr %__data_.i.i.i.i.i.i729, align 8, !tbaa !11
  call void @_ZdlPv(ptr noundef %15) #23
  br label %_ZNKSt3__114default_deleteINS_12basic_stringIcNS_11char_traitsIcEENS_9allocatorIcEEEEEclB7v170000EPS6_.exit.i.i.i

_ZNKSt3__114default_deleteINS_12basic_stringIcNS_11char_traitsIcEENS_9allocatorIcEEEEEclB7v170000EPS6_.exit.i.i.i: ; preds = %if.then.i.i.i.i.i, %delete.notnull.i.i.i.i
  call void @_ZdlPv(ptr noundef nonnull %14) #23
  br label %_ZN7testing15AssertionResultD2Ev.exit

_ZN7testing15AssertionResultD2Ev.exit:            ; preds = %if.end, %_ZNKSt3__114default_deleteINS_12basic_stringIcNS_11char_traitsIcEENS_9allocatorIcEEEEEclB7v170000EPS6_.exit.i.i.i
  call void @llvm.lifetime.end.p0(i64 16, ptr nonnull %gtest_ar) #22
  call void @llvm.lifetime.start.p0(i64 16, ptr nonnull %gtest_ar22) #22
  call void @llvm.lifetime.start.p0(i64 8, ptr nonnull %ref.tmp23) #22
  store i64 1, ptr %ref.tmp23, align 8, !tbaa !8
  %16 = load i64, ptr %pos, align 8, !tbaa !8, !noalias !22
  %cmp.i.i730 = icmp eq i64 %16, 1
  br i1 %cmp.i.i730, label %if.then.i.i731, label %if.end.i.i732

if.then.i.i731:                                   ; preds = %_ZN7testing15AssertionResultD2Ev.exit
  call void @_ZN7testing16AssertionSuccessEv(ptr nonnull sret(%"class.testing::AssertionResult") align 8 %gtest_ar22)
  br label %_ZN7testing8internal8EqHelper7CompareImmLPv0EEENS_15AssertionResultEPKcS6_RKT_RKT0_.exit733

if.end.i.i732:                                    ; preds = %_ZN7testing15AssertionResultD2Ev.exit
  call void @_ZN7testing8internal18CmpHelperEQFailureImmEENS_15AssertionResultEPKcS4_RKT_RKT0_(ptr nonnull sret(%"class.testing::AssertionResult") align 8 %gtest_ar22, ptr noundef nonnull @.str.13, ptr noundef nonnull @.str.14, ptr noundef nonnull align 8 dereferenceable(8) %ref.tmp23, ptr noundef nonnull align 8 dereferenceable(8) %pos)
  br label %_ZN7testing8internal8EqHelper7CompareImmLPv0EEENS_15AssertionResultEPKcS6_RKT_RKT0_.exit733

_ZN7testing8internal8EqHelper7CompareImmLPv0EEENS_15AssertionResultEPKcS6_RKT_RKT0_.exit733: ; preds = %if.then.i.i731, %if.end.i.i732
  call void @llvm.lifetime.end.p0(i64 8, ptr nonnull %ref.tmp23) #22
  %17 = load i8, ptr %gtest_ar22, align 8, !tbaa !12, !range !19, !noundef !20
  %tobool.i734.not = icmp eq i8 %17, 0
  br i1 %tobool.i734.not, label %if.else28, label %if.end43

ehcleanup21:                                      ; preds = %ehcleanup19, %_ZNSt3__112basic_stringIcNS_11char_traitsIcEENS_9allocatorIcEEED2Ev.exit719
  %.pn.pn.pn = phi { ptr, i32 } [ %.pn.pn, %ehcleanup19 ], [ %3, %_ZNSt3__112basic_stringIcNS_11char_traitsIcEENS_9allocatorIcEEED2Ev.exit719 ]
  call void @llvm.lifetime.end.p0(i64 16, ptr nonnull %gtest_ar) #22
  br label %ehcleanup46

if.else28:                                        ; preds = %_ZN7testing8internal8EqHelper7CompareImmLPv0EEENS_15AssertionResultEPKcS6_RKT_RKT0_.exit733
  call void @llvm.lifetime.start.p0(i64 8, ptr nonnull %ref.tmp29) #22
  invoke void @_ZN7testing7MessageC1Ev(ptr noundef nonnull align 8 dereferenceable(8) %ref.tmp29)
          to label %invoke.cont31 unwind label %lpad30

invoke.cont31:                                    ; preds = %if.else28
  call void @llvm.lifetime.start.p0(i64 8, ptr nonnull %ref.tmp32) #22
  %message_.i.i735 = getelementptr inbounds %"class.testing::AssertionResult", ptr %gtest_ar22, i64 0, i32 1
  %18 = load ptr, ptr %message_.i.i735, align 8, !tbaa !21
  %cmp.not.i.i736 = icmp eq ptr %18, null
  br i1 %cmp.not.i.i736, label %invoke.cont34, label %cond.true.i.i743

cond.true.i.i743:                                 ; preds = %invoke.cont31
  %bf.load.i.i.i.i.i.i737 = load i8, ptr %18, align 8
  %bf.clear.i.i.i.i.i.i738 = and i8 %bf.load.i.i.i.i.i.i737, 1
  %tobool.i.not.i.i.i.i.i739 = icmp eq i8 %bf.clear.i.i.i.i.i.i738, 0
  %__data_.i.i.i.i.i.i740 = getelementptr inbounds %"struct.std::__1::basic_string<char>::__long", ptr %18, i64 0, i32 2
  %19 = load ptr, ptr %__data_.i.i.i.i.i.i740, align 8
  %__data_.i4.i.i.i.i.i741 = getelementptr inbounds %"struct.std::__1::basic_string<char>::__short", ptr %18, i64 0, i32 2
  %cond.i.i.i.i.i742 = select i1 %tobool.i.not.i.i.i.i.i739, ptr %__data_.i4.i.i.i.i.i741, ptr %19
  br label %invoke.cont34

invoke.cont34:                                    ; preds = %cond.true.i.i743, %invoke.cont31
  %cond.i.i744 = phi ptr [ %cond.i.i.i.i.i742, %cond.true.i.i743 ], [ @.str.46, %invoke.cont31 ]
  invoke void @_ZN7testing8internal12AssertHelperC1ENS_14TestPartResult4TypeEPKciS5_(ptr noundef nonnull align 8 dereferenceable(8) %ref.tmp32, i32 noundef 1, ptr noundef nonnull @.str.3, i32 noundef 14, ptr noundef %cond.i.i744)
          to label %invoke.cont36 unwind label %lpad33

invoke.cont36:                                    ; preds = %invoke.cont34
  invoke void @_ZNK7testing8internal12AssertHelperaSERKNS_7MessageE(ptr noundef nonnull align 8 dereferenceable(8) %ref.tmp32, ptr noundef nonnull align 8 dereferenceable(8) %ref.tmp29)
          to label %invoke.cont38 unwind label %lpad37

invoke.cont38:                                    ; preds = %invoke.cont36
  call void @_ZN7testing8internal12AssertHelperD1Ev(ptr noundef nonnull align 8 dereferenceable(8) %ref.tmp32) #22
  call void @llvm.lifetime.end.p0(i64 8, ptr nonnull %ref.tmp32) #22
  %20 = load ptr, ptr %ref.tmp29, align 8, !tbaa !21
  store ptr null, ptr %ref.tmp29, align 8, !tbaa !21
  %tobool.not.i.i.i746 = icmp eq ptr %20, null
  br i1 %tobool.not.i.i.i746, label %_ZN7testing7MessageD2Ev.exit750, label %_ZNKSt3__114default_deleteINS_18basic_stringstreamIcNS_11char_traitsIcEENS_9allocatorIcEEEEEclB7v170000EPS6_.exit.i.i.i749

_ZNKSt3__114default_deleteINS_18basic_stringstreamIcNS_11char_traitsIcEENS_9allocatorIcEEEEEclB7v170000EPS6_.exit.i.i.i749: ; preds = %invoke.cont38
  %vtable.i.i.i.i747 = load ptr, ptr %20, align 8, !tbaa !5
  %vfn.i.i.i.i748 = getelementptr inbounds ptr, ptr %vtable.i.i.i.i747, i64 1
  %21 = load ptr, ptr %vfn.i.i.i.i748, align 8
  call void %21(ptr noundef nonnull align 8 dereferenceable(128) %20) #22
  br label %_ZN7testing7MessageD2Ev.exit750

_ZN7testing7MessageD2Ev.exit750:                  ; preds = %invoke.cont38, %_ZNKSt3__114default_deleteINS_18basic_stringstreamIcNS_11char_traitsIcEENS_9allocatorIcEEEEEclB7v170000EPS6_.exit.i.i.i749
  call void @llvm.lifetime.end.p0(i64 8, ptr nonnull %ref.tmp29) #22
  br label %if.end43

lpad30:                                           ; preds = %if.else28
  %22 = landingpad { ptr, i32 }
          cleanup
  br label %ehcleanup42

lpad33:                                           ; preds = %invoke.cont34
  %23 = landingpad { ptr, i32 }
          cleanup
  br label %ehcleanup40

lpad37:                                           ; preds = %invoke.cont36
  %24 = landingpad { ptr, i32 }
          cleanup
  call void @_ZN7testing8internal12AssertHelperD1Ev(ptr noundef nonnull align 8 dereferenceable(8) %ref.tmp32) #22
  br label %ehcleanup40

ehcleanup40:                                      ; preds = %lpad37, %lpad33
  %.pn625 = phi { ptr, i32 } [ %24, %lpad37 ], [ %23, %lpad33 ]
  call void @llvm.lifetime.end.p0(i64 8, ptr nonnull %ref.tmp32) #22
  %25 = load ptr, ptr %ref.tmp29, align 8, !tbaa !21
  store ptr null, ptr %ref.tmp29, align 8, !tbaa !21
  %tobool.not.i.i.i751 = icmp eq ptr %25, null
  br i1 %tobool.not.i.i.i751, label %ehcleanup42, label %_ZNKSt3__114default_deleteINS_18basic_stringstreamIcNS_11char_traitsIcEENS_9allocatorIcEEEEEclB7v170000EPS6_.exit.i.i.i754

_ZNKSt3__114default_deleteINS_18basic_stringstreamIcNS_11char_traitsIcEENS_9allocatorIcEEEEEclB7v170000EPS6_.exit.i.i.i754: ; preds = %ehcleanup40
  %vtable.i.i.i.i752 = load ptr, ptr %25, align 8, !tbaa !5
  %vfn.i.i.i.i753 = getelementptr inbounds ptr, ptr %vtable.i.i.i.i752, i64 1
  %26 = load ptr, ptr %vfn.i.i.i.i753, align 8
  call void %26(ptr noundef nonnull align 8 dereferenceable(128) %25) #22
  br label %ehcleanup42

ehcleanup42:                                      ; preds = %_ZNKSt3__114default_deleteINS_18basic_stringstreamIcNS_11char_traitsIcEENS_9allocatorIcEEEEEclB7v170000EPS6_.exit.i.i.i754, %ehcleanup40, %lpad30
  %.pn625.pn = phi { ptr, i32 } [ %22, %lpad30 ], [ %.pn625, %ehcleanup40 ], [ %.pn625, %_ZNKSt3__114default_deleteINS_18basic_stringstreamIcNS_11char_traitsIcEENS_9allocatorIcEEEEEclB7v170000EPS6_.exit.i.i.i754 ]
  call void @llvm.lifetime.end.p0(i64 8, ptr nonnull %ref.tmp29) #22
  call void @_ZN7testing15AssertionResultD2Ev(ptr noundef nonnull align 8 dereferenceable(16) %gtest_ar22) #22
  call void @llvm.lifetime.end.p0(i64 16, ptr nonnull %gtest_ar22) #22
  br label %ehcleanup46

if.end43:                                         ; preds = %_ZN7testing8internal8EqHelper7CompareImmLPv0EEENS_15AssertionResultEPKcS6_RKT_RKT0_.exit733, %_ZN7testing7MessageD2Ev.exit750
  %message_.i756 = getelementptr inbounds %"class.testing::AssertionResult", ptr %gtest_ar22, i64 0, i32 1
  %27 = load ptr, ptr %message_.i756, align 8, !tbaa !21
  store ptr null, ptr %message_.i756, align 8, !tbaa !21
  %tobool.not.i.i.i757 = icmp eq ptr %27, null
  br i1 %tobool.not.i.i.i757, label %_ZN7testing15AssertionResultD2Ev.exit765, label %delete.notnull.i.i.i.i761

delete.notnull.i.i.i.i761:                        ; preds = %if.end43
  %bf.load.i.i.i.i.i.i758 = load i8, ptr %27, align 8
  %bf.clear.i.i.i.i.i.i759 = and i8 %bf.load.i.i.i.i.i.i758, 1
  %tobool.i.not.i.i.i.i.i760 = icmp eq i8 %bf.clear.i.i.i.i.i.i759, 0
  br i1 %tobool.i.not.i.i.i.i.i760, label %_ZNKSt3__114default_deleteINS_12basic_stringIcNS_11char_traitsIcEENS_9allocatorIcEEEEEclB7v170000EPS6_.exit.i.i.i764, label %if.then.i.i.i.i.i763

if.then.i.i.i.i.i763:                             ; preds = %delete.notnull.i.i.i.i761
  %__data_.i.i.i.i.i.i762 = getelementptr inbounds %"struct.std::__1::basic_string<char>::__long", ptr %27, i64 0, i32 2
  %28 = load ptr, ptr %__data_.i.i.i.i.i.i762, align 8, !tbaa !11
  call void @_ZdlPv(ptr noundef %28) #23
  br label %_ZNKSt3__114default_deleteINS_12basic_stringIcNS_11char_traitsIcEENS_9allocatorIcEEEEEclB7v170000EPS6_.exit.i.i.i764

_ZNKSt3__114default_deleteINS_12basic_stringIcNS_11char_traitsIcEENS_9allocatorIcEEEEEclB7v170000EPS6_.exit.i.i.i764: ; preds = %if.then.i.i.i.i.i763, %delete.notnull.i.i.i.i761
  call void @_ZdlPv(ptr noundef nonnull %27) #23
  br label %_ZN7testing15AssertionResultD2Ev.exit765

_ZN7testing15AssertionResultD2Ev.exit765:         ; preds = %if.end43, %_ZNKSt3__114default_deleteINS_12basic_stringIcNS_11char_traitsIcEENS_9allocatorIcEEEEEclB7v170000EPS6_.exit.i.i.i764
  call void @llvm.lifetime.end.p0(i64 16, ptr nonnull %gtest_ar22) #22
  call void @llvm.lifetime.end.p0(i64 8, ptr nonnull %pos) #22
  call void @llvm.lifetime.start.p0(i64 8, ptr nonnull %pos47) #22
  store i64 0, ptr %pos47, align 8, !tbaa !8
  call void @llvm.lifetime.start.p0(i64 16, ptr nonnull %gtest_ar48) #22
  call void @llvm.lifetime.start.p0(i64 8, ptr nonnull %ref.tmp49) #22
  store i64 7, ptr %ref.tmp49, align 8, !tbaa !8
  call void @llvm.lifetime.start.p0(i64 8, ptr nonnull %ref.tmp50) #22
  call void @llvm.lifetime.start.p0(i64 24, ptr nonnull %ref.tmp51) #22
  store i8 2, ptr %ref.tmp51, align 8
  %__data_.i.i.i773 = getelementptr inbounds %"struct.std::__1::basic_string<char>::__short", ptr %ref.tmp51, i64 0, i32 2
  %cmp.i24.i.i783 = icmp ugt ptr %__data_.i.i.i773, @.str.17
  %add.ptr.i.i.i784 = getelementptr inbounds %"struct.std::__1::basic_string<char>::__short", ptr %ref.tmp51, i64 0, i32 2, i64 1
  %cmp1.i.i.i785 = icmp ule ptr %add.ptr.i.i.i784, @.str.17
  %29 = or i1 %cmp.i24.i.i783, %cmp1.i.i.i785
  call void @llvm.assume(i1 %29)
  store i8 55, ptr %__data_.i.i.i773, align 1
  store i8 0, ptr %add.ptr.i.i.i784, align 2, !tbaa !11
  %call54 = invoke noundef i64 @_ZNSt3__15stoulERKNS_12basic_stringIcNS_11char_traitsIcEENS_9allocatorIcEEEEPmi(ptr noundef nonnull align 8 dereferenceable(24) %ref.tmp51, ptr noundef nonnull %pos47, i32 noundef 10)
          to label %invoke.cont53 unwind label %lpad52

invoke.cont53:                                    ; preds = %_ZN7testing15AssertionResultD2Ev.exit765
  store i64 %call54, ptr %ref.tmp50, align 8, !tbaa !8
  %30 = load i64, ptr %ref.tmp49, align 8, !tbaa !8, !noalias !27
  %cmp.i.i787 = icmp eq i64 %30, %call54
  br i1 %cmp.i.i787, label %if.then.i.i788, label %if.end.i.i789

if.then.i.i788:                                   ; preds = %invoke.cont53
  invoke void @_ZN7testing16AssertionSuccessEv(ptr nonnull sret(%"class.testing::AssertionResult") align 8 %gtest_ar48)
          to label %invoke.cont55 unwind label %lpad52

if.end.i.i789:                                    ; preds = %invoke.cont53
  invoke void @_ZN7testing8internal18CmpHelperEQFailureImmEENS_15AssertionResultEPKcS4_RKT_RKT0_(ptr nonnull sret(%"class.testing::AssertionResult") align 8 %gtest_ar48, ptr noundef nonnull @.str.15, ptr noundef nonnull @.str.16, ptr noundef nonnull align 8 dereferenceable(8) %ref.tmp49, ptr noundef nonnull align 8 dereferenceable(8) %ref.tmp50)
          to label %invoke.cont55 unwind label %lpad52

invoke.cont55:                                    ; preds = %if.then.i.i788, %if.end.i.i789
  %bf.load.i.i793 = load i8, ptr %ref.tmp51, align 8
  %bf.clear.i.i794 = and i8 %bf.load.i.i793, 1
  %tobool.i.not.i795 = icmp eq i8 %bf.clear.i.i794, 0
  br i1 %tobool.i.not.i795, label %_ZNSt3__112basic_stringIcNS_11char_traitsIcEENS_9allocatorIcEEED2Ev.exit798, label %if.then.i797

if.then.i797:                                     ; preds = %invoke.cont55
  %__data_.i.i796 = getelementptr inbounds %"struct.std::__1::basic_string<char>::__long", ptr %ref.tmp51, i64 0, i32 2
  %31 = load ptr, ptr %__data_.i.i796, align 8, !tbaa !11
  call void @_ZdlPv(ptr noundef %31) #23
  br label %_ZNSt3__112basic_stringIcNS_11char_traitsIcEENS_9allocatorIcEEED2Ev.exit798

_ZNSt3__112basic_stringIcNS_11char_traitsIcEENS_9allocatorIcEEED2Ev.exit798: ; preds = %invoke.cont55, %if.then.i797
  call void @llvm.lifetime.end.p0(i64 24, ptr nonnull %ref.tmp51) #22
  call void @llvm.lifetime.end.p0(i64 8, ptr nonnull %ref.tmp50) #22
  call void @llvm.lifetime.end.p0(i64 8, ptr nonnull %ref.tmp49) #22
  %32 = load i8, ptr %gtest_ar48, align 8, !tbaa !12, !range !19, !noundef !20
  %tobool.i799.not = icmp eq i8 %32, 0
  br i1 %tobool.i799.not, label %if.else64, label %if.end79

ehcleanup46:                                      ; preds = %ehcleanup42, %ehcleanup21
  %.pn625.pn.pn = phi { ptr, i32 } [ %.pn625.pn, %ehcleanup42 ], [ %.pn.pn.pn, %ehcleanup21 ]
  call void @llvm.lifetime.end.p0(i64 8, ptr nonnull %pos) #22
  br label %eh.resume

lpad52:                                           ; preds = %if.end.i.i789, %if.then.i.i788, %_ZN7testing15AssertionResultD2Ev.exit765
  %33 = landingpad { ptr, i32 }
          cleanup
  %bf.load.i.i800 = load i8, ptr %ref.tmp51, align 8
  %bf.clear.i.i801 = and i8 %bf.load.i.i800, 1
  %tobool.i.not.i802 = icmp eq i8 %bf.clear.i.i801, 0
  br i1 %tobool.i.not.i802, label %_ZNSt3__112basic_stringIcNS_11char_traitsIcEENS_9allocatorIcEEED2Ev.exit805, label %if.then.i804

if.then.i804:                                     ; preds = %lpad52
  %__data_.i.i803 = getelementptr inbounds %"struct.std::__1::basic_string<char>::__long", ptr %ref.tmp51, i64 0, i32 2
  %34 = load ptr, ptr %__data_.i.i803, align 8, !tbaa !11
  call void @_ZdlPv(ptr noundef %34) #23
  br label %_ZNSt3__112basic_stringIcNS_11char_traitsIcEENS_9allocatorIcEEED2Ev.exit805

_ZNSt3__112basic_stringIcNS_11char_traitsIcEENS_9allocatorIcEEED2Ev.exit805: ; preds = %lpad52, %if.then.i804
  call void @llvm.lifetime.end.p0(i64 24, ptr nonnull %ref.tmp51) #22
  call void @llvm.lifetime.end.p0(i64 8, ptr nonnull %ref.tmp50) #22
  call void @llvm.lifetime.end.p0(i64 8, ptr nonnull %ref.tmp49) #22
  br label %ehcleanup81

if.else64:                                        ; preds = %_ZNSt3__112basic_stringIcNS_11char_traitsIcEENS_9allocatorIcEEED2Ev.exit798
  call void @llvm.lifetime.start.p0(i64 8, ptr nonnull %ref.tmp65) #22
  invoke void @_ZN7testing7MessageC1Ev(ptr noundef nonnull align 8 dereferenceable(8) %ref.tmp65)
          to label %invoke.cont67 unwind label %lpad66

invoke.cont67:                                    ; preds = %if.else64
  call void @llvm.lifetime.start.p0(i64 8, ptr nonnull %ref.tmp68) #22
  %message_.i.i806 = getelementptr inbounds %"class.testing::AssertionResult", ptr %gtest_ar48, i64 0, i32 1
  %35 = load ptr, ptr %message_.i.i806, align 8, !tbaa !21
  %cmp.not.i.i807 = icmp eq ptr %35, null
  br i1 %cmp.not.i.i807, label %invoke.cont70, label %cond.true.i.i814

cond.true.i.i814:                                 ; preds = %invoke.cont67
  %bf.load.i.i.i.i.i.i808 = load i8, ptr %35, align 8
  %bf.clear.i.i.i.i.i.i809 = and i8 %bf.load.i.i.i.i.i.i808, 1
  %tobool.i.not.i.i.i.i.i810 = icmp eq i8 %bf.clear.i.i.i.i.i.i809, 0
  %__data_.i.i.i.i.i.i811 = getelementptr inbounds %"struct.std::__1::basic_string<char>::__long", ptr %35, i64 0, i32 2
  %36 = load ptr, ptr %__data_.i.i.i.i.i.i811, align 8
  %__data_.i4.i.i.i.i.i812 = getelementptr inbounds %"struct.std::__1::basic_string<char>::__short", ptr %35, i64 0, i32 2
  %cond.i.i.i.i.i813 = select i1 %tobool.i.not.i.i.i.i.i810, ptr %__data_.i4.i.i.i.i.i812, ptr %36
  br label %invoke.cont70

invoke.cont70:                                    ; preds = %cond.true.i.i814, %invoke.cont67
  %cond.i.i815 = phi ptr [ %cond.i.i.i.i.i813, %cond.true.i.i814 ], [ @.str.46, %invoke.cont67 ]
  invoke void @_ZN7testing8internal12AssertHelperC1ENS_14TestPartResult4TypeEPKciS5_(ptr noundef nonnull align 8 dereferenceable(8) %ref.tmp68, i32 noundef 1, ptr noundef nonnull @.str.3, i32 noundef 18, ptr noundef %cond.i.i815)
          to label %invoke.cont72 unwind label %lpad69

invoke.cont72:                                    ; preds = %invoke.cont70
  invoke void @_ZNK7testing8internal12AssertHelperaSERKNS_7MessageE(ptr noundef nonnull align 8 dereferenceable(8) %ref.tmp68, ptr noundef nonnull align 8 dereferenceable(8) %ref.tmp65)
          to label %invoke.cont74 unwind label %lpad73

invoke.cont74:                                    ; preds = %invoke.cont72
  call void @_ZN7testing8internal12AssertHelperD1Ev(ptr noundef nonnull align 8 dereferenceable(8) %ref.tmp68) #22
  call void @llvm.lifetime.end.p0(i64 8, ptr nonnull %ref.tmp68) #22
  %37 = load ptr, ptr %ref.tmp65, align 8, !tbaa !21
  store ptr null, ptr %ref.tmp65, align 8, !tbaa !21
  %tobool.not.i.i.i817 = icmp eq ptr %37, null
  br i1 %tobool.not.i.i.i817, label %_ZN7testing7MessageD2Ev.exit821, label %_ZNKSt3__114default_deleteINS_18basic_stringstreamIcNS_11char_traitsIcEENS_9allocatorIcEEEEEclB7v170000EPS6_.exit.i.i.i820

_ZNKSt3__114default_deleteINS_18basic_stringstreamIcNS_11char_traitsIcEENS_9allocatorIcEEEEEclB7v170000EPS6_.exit.i.i.i820: ; preds = %invoke.cont74
  %vtable.i.i.i.i818 = load ptr, ptr %37, align 8, !tbaa !5
  %vfn.i.i.i.i819 = getelementptr inbounds ptr, ptr %vtable.i.i.i.i818, i64 1
  %38 = load ptr, ptr %vfn.i.i.i.i819, align 8
  call void %38(ptr noundef nonnull align 8 dereferenceable(128) %37) #22
  br label %_ZN7testing7MessageD2Ev.exit821

_ZN7testing7MessageD2Ev.exit821:                  ; preds = %invoke.cont74, %_ZNKSt3__114default_deleteINS_18basic_stringstreamIcNS_11char_traitsIcEENS_9allocatorIcEEEEEclB7v170000EPS6_.exit.i.i.i820
  call void @llvm.lifetime.end.p0(i64 8, ptr nonnull %ref.tmp65) #22
  br label %if.end79

lpad66:                                           ; preds = %if.else64
  %39 = landingpad { ptr, i32 }
          cleanup
  br label %ehcleanup78

lpad69:                                           ; preds = %invoke.cont70
  %40 = landingpad { ptr, i32 }
          cleanup
  br label %ehcleanup76

lpad73:                                           ; preds = %invoke.cont72
  %41 = landingpad { ptr, i32 }
          cleanup
  call void @_ZN7testing8internal12AssertHelperD1Ev(ptr noundef nonnull align 8 dereferenceable(8) %ref.tmp68) #22
  br label %ehcleanup76

ehcleanup76:                                      ; preds = %lpad73, %lpad69
  %.pn629 = phi { ptr, i32 } [ %41, %lpad73 ], [ %40, %lpad69 ]
  call void @llvm.lifetime.end.p0(i64 8, ptr nonnull %ref.tmp68) #22
  %42 = load ptr, ptr %ref.tmp65, align 8, !tbaa !21
  store ptr null, ptr %ref.tmp65, align 8, !tbaa !21
  %tobool.not.i.i.i822 = icmp eq ptr %42, null
  br i1 %tobool.not.i.i.i822, label %ehcleanup78, label %_ZNKSt3__114default_deleteINS_18basic_stringstreamIcNS_11char_traitsIcEENS_9allocatorIcEEEEEclB7v170000EPS6_.exit.i.i.i825

_ZNKSt3__114default_deleteINS_18basic_stringstreamIcNS_11char_traitsIcEENS_9allocatorIcEEEEEclB7v170000EPS6_.exit.i.i.i825: ; preds = %ehcleanup76
  %vtable.i.i.i.i823 = load ptr, ptr %42, align 8, !tbaa !5
  %vfn.i.i.i.i824 = getelementptr inbounds ptr, ptr %vtable.i.i.i.i823, i64 1
  %43 = load ptr, ptr %vfn.i.i.i.i824, align 8
  call void %43(ptr noundef nonnull align 8 dereferenceable(128) %42) #22
  br label %ehcleanup78

ehcleanup78:                                      ; preds = %_ZNKSt3__114default_deleteINS_18basic_stringstreamIcNS_11char_traitsIcEENS_9allocatorIcEEEEEclB7v170000EPS6_.exit.i.i.i825, %ehcleanup76, %lpad66
  %.pn629.pn = phi { ptr, i32 } [ %39, %lpad66 ], [ %.pn629, %ehcleanup76 ], [ %.pn629, %_ZNKSt3__114default_deleteINS_18basic_stringstreamIcNS_11char_traitsIcEENS_9allocatorIcEEEEEclB7v170000EPS6_.exit.i.i.i825 ]
  call void @llvm.lifetime.end.p0(i64 8, ptr nonnull %ref.tmp65) #22
  call void @_ZN7testing15AssertionResultD2Ev(ptr noundef nonnull align 8 dereferenceable(16) %gtest_ar48) #22
  br label %ehcleanup81

if.end79:                                         ; preds = %_ZNSt3__112basic_stringIcNS_11char_traitsIcEENS_9allocatorIcEEED2Ev.exit798, %_ZN7testing7MessageD2Ev.exit821
  %message_.i827 = getelementptr inbounds %"class.testing::AssertionResult", ptr %gtest_ar48, i64 0, i32 1
  %44 = load ptr, ptr %message_.i827, align 8, !tbaa !21
  store ptr null, ptr %message_.i827, align 8, !tbaa !21
  %tobool.not.i.i.i828 = icmp eq ptr %44, null
  br i1 %tobool.not.i.i.i828, label %_ZN7testing15AssertionResultD2Ev.exit836, label %delete.notnull.i.i.i.i832

delete.notnull.i.i.i.i832:                        ; preds = %if.end79
  %bf.load.i.i.i.i.i.i829 = load i8, ptr %44, align 8
  %bf.clear.i.i.i.i.i.i830 = and i8 %bf.load.i.i.i.i.i.i829, 1
  %tobool.i.not.i.i.i.i.i831 = icmp eq i8 %bf.clear.i.i.i.i.i.i830, 0
  br i1 %tobool.i.not.i.i.i.i.i831, label %_ZNKSt3__114default_deleteINS_12basic_stringIcNS_11char_traitsIcEENS_9allocatorIcEEEEEclB7v170000EPS6_.exit.i.i.i835, label %if.then.i.i.i.i.i834

if.then.i.i.i.i.i834:                             ; preds = %delete.notnull.i.i.i.i832
  %__data_.i.i.i.i.i.i833 = getelementptr inbounds %"struct.std::__1::basic_string<char>::__long", ptr %44, i64 0, i32 2
  %45 = load ptr, ptr %__data_.i.i.i.i.i.i833, align 8, !tbaa !11
  call void @_ZdlPv(ptr noundef %45) #23
  br label %_ZNKSt3__114default_deleteINS_12basic_stringIcNS_11char_traitsIcEENS_9allocatorIcEEEEEclB7v170000EPS6_.exit.i.i.i835

_ZNKSt3__114default_deleteINS_12basic_stringIcNS_11char_traitsIcEENS_9allocatorIcEEEEEclB7v170000EPS6_.exit.i.i.i835: ; preds = %if.then.i.i.i.i.i834, %delete.notnull.i.i.i.i832
  call void @_ZdlPv(ptr noundef nonnull %44) #23
  br label %_ZN7testing15AssertionResultD2Ev.exit836

_ZN7testing15AssertionResultD2Ev.exit836:         ; preds = %if.end79, %_ZNKSt3__114default_deleteINS_12basic_stringIcNS_11char_traitsIcEENS_9allocatorIcEEEEEclB7v170000EPS6_.exit.i.i.i835
  call void @llvm.lifetime.end.p0(i64 16, ptr nonnull %gtest_ar48) #22
  call void @llvm.lifetime.start.p0(i64 16, ptr nonnull %gtest_ar82) #22
  call void @llvm.lifetime.start.p0(i64 8, ptr nonnull %ref.tmp83) #22
  store i64 1, ptr %ref.tmp83, align 8, !tbaa !8
  %46 = load i64, ptr %pos47, align 8, !tbaa !8, !noalias !32
  %cmp.i.i837 = icmp eq i64 %46, 1
  br i1 %cmp.i.i837, label %if.then.i.i838, label %if.end.i.i839

if.then.i.i838:                                   ; preds = %_ZN7testing15AssertionResultD2Ev.exit836
  call void @_ZN7testing16AssertionSuccessEv(ptr nonnull sret(%"class.testing::AssertionResult") align 8 %gtest_ar82)
  br label %_ZN7testing8internal8EqHelper7CompareImmLPv0EEENS_15AssertionResultEPKcS6_RKT_RKT0_.exit840

if.end.i.i839:                                    ; preds = %_ZN7testing15AssertionResultD2Ev.exit836
  call void @_ZN7testing8internal18CmpHelperEQFailureImmEENS_15AssertionResultEPKcS4_RKT_RKT0_(ptr nonnull sret(%"class.testing::AssertionResult") align 8 %gtest_ar82, ptr noundef nonnull @.str.13, ptr noundef nonnull @.str.14, ptr noundef nonnull align 8 dereferenceable(8) %ref.tmp83, ptr noundef nonnull align 8 dereferenceable(8) %pos47)
  br label %_ZN7testing8internal8EqHelper7CompareImmLPv0EEENS_15AssertionResultEPKcS6_RKT_RKT0_.exit840

_ZN7testing8internal8EqHelper7CompareImmLPv0EEENS_15AssertionResultEPKcS6_RKT_RKT0_.exit840: ; preds = %if.then.i.i838, %if.end.i.i839
  call void @llvm.lifetime.end.p0(i64 8, ptr nonnull %ref.tmp83) #22
  %47 = load i8, ptr %gtest_ar82, align 8, !tbaa !12, !range !19, !noundef !20
  %tobool.i841.not = icmp eq i8 %47, 0
  br i1 %tobool.i841.not, label %if.else88, label %if.end103

ehcleanup81:                                      ; preds = %ehcleanup78, %_ZNSt3__112basic_stringIcNS_11char_traitsIcEENS_9allocatorIcEEED2Ev.exit805
  %.pn629.pn.pn = phi { ptr, i32 } [ %.pn629.pn, %ehcleanup78 ], [ %33, %_ZNSt3__112basic_stringIcNS_11char_traitsIcEENS_9allocatorIcEEED2Ev.exit805 ]
  call void @llvm.lifetime.end.p0(i64 16, ptr nonnull %gtest_ar48) #22
  br label %ehcleanup106

if.else88:                                        ; preds = %_ZN7testing8internal8EqHelper7CompareImmLPv0EEENS_15AssertionResultEPKcS6_RKT_RKT0_.exit840
  call void @llvm.lifetime.start.p0(i64 8, ptr nonnull %ref.tmp89) #22
  invoke void @_ZN7testing7MessageC1Ev(ptr noundef nonnull align 8 dereferenceable(8) %ref.tmp89)
          to label %invoke.cont91 unwind label %lpad90

invoke.cont91:                                    ; preds = %if.else88
  call void @llvm.lifetime.start.p0(i64 8, ptr nonnull %ref.tmp92) #22
  %message_.i.i842 = getelementptr inbounds %"class.testing::AssertionResult", ptr %gtest_ar82, i64 0, i32 1
  %48 = load ptr, ptr %message_.i.i842, align 8, !tbaa !21
  %cmp.not.i.i843 = icmp eq ptr %48, null
  br i1 %cmp.not.i.i843, label %invoke.cont94, label %cond.true.i.i850

cond.true.i.i850:                                 ; preds = %invoke.cont91
  %bf.load.i.i.i.i.i.i844 = load i8, ptr %48, align 8
  %bf.clear.i.i.i.i.i.i845 = and i8 %bf.load.i.i.i.i.i.i844, 1
  %tobool.i.not.i.i.i.i.i846 = icmp eq i8 %bf.clear.i.i.i.i.i.i845, 0
  %__data_.i.i.i.i.i.i847 = getelementptr inbounds %"struct.std::__1::basic_string<char>::__long", ptr %48, i64 0, i32 2
  %49 = load ptr, ptr %__data_.i.i.i.i.i.i847, align 8
  %__data_.i4.i.i.i.i.i848 = getelementptr inbounds %"struct.std::__1::basic_string<char>::__short", ptr %48, i64 0, i32 2
  %cond.i.i.i.i.i849 = select i1 %tobool.i.not.i.i.i.i.i846, ptr %__data_.i4.i.i.i.i.i848, ptr %49
  br label %invoke.cont94

invoke.cont94:                                    ; preds = %cond.true.i.i850, %invoke.cont91
  %cond.i.i851 = phi ptr [ %cond.i.i.i.i.i849, %cond.true.i.i850 ], [ @.str.46, %invoke.cont91 ]
  invoke void @_ZN7testing8internal12AssertHelperC1ENS_14TestPartResult4TypeEPKciS5_(ptr noundef nonnull align 8 dereferenceable(8) %ref.tmp92, i32 noundef 1, ptr noundef nonnull @.str.3, i32 noundef 19, ptr noundef %cond.i.i851)
          to label %invoke.cont96 unwind label %lpad93

invoke.cont96:                                    ; preds = %invoke.cont94
  invoke void @_ZNK7testing8internal12AssertHelperaSERKNS_7MessageE(ptr noundef nonnull align 8 dereferenceable(8) %ref.tmp92, ptr noundef nonnull align 8 dereferenceable(8) %ref.tmp89)
          to label %invoke.cont98 unwind label %lpad97

invoke.cont98:                                    ; preds = %invoke.cont96
  call void @_ZN7testing8internal12AssertHelperD1Ev(ptr noundef nonnull align 8 dereferenceable(8) %ref.tmp92) #22
  call void @llvm.lifetime.end.p0(i64 8, ptr nonnull %ref.tmp92) #22
  %50 = load ptr, ptr %ref.tmp89, align 8, !tbaa !21
  store ptr null, ptr %ref.tmp89, align 8, !tbaa !21
  %tobool.not.i.i.i853 = icmp eq ptr %50, null
  br i1 %tobool.not.i.i.i853, label %_ZN7testing7MessageD2Ev.exit857, label %_ZNKSt3__114default_deleteINS_18basic_stringstreamIcNS_11char_traitsIcEENS_9allocatorIcEEEEEclB7v170000EPS6_.exit.i.i.i856

_ZNKSt3__114default_deleteINS_18basic_stringstreamIcNS_11char_traitsIcEENS_9allocatorIcEEEEEclB7v170000EPS6_.exit.i.i.i856: ; preds = %invoke.cont98
  %vtable.i.i.i.i854 = load ptr, ptr %50, align 8, !tbaa !5
  %vfn.i.i.i.i855 = getelementptr inbounds ptr, ptr %vtable.i.i.i.i854, i64 1
  %51 = load ptr, ptr %vfn.i.i.i.i855, align 8
  call void %51(ptr noundef nonnull align 8 dereferenceable(128) %50) #22
  br label %_ZN7testing7MessageD2Ev.exit857

_ZN7testing7MessageD2Ev.exit857:                  ; preds = %invoke.cont98, %_ZNKSt3__114default_deleteINS_18basic_stringstreamIcNS_11char_traitsIcEENS_9allocatorIcEEEEEclB7v170000EPS6_.exit.i.i.i856
  call void @llvm.lifetime.end.p0(i64 8, ptr nonnull %ref.tmp89) #22
  br label %if.end103

lpad90:                                           ; preds = %if.else88
  %52 = landingpad { ptr, i32 }
          cleanup
  br label %ehcleanup102

lpad93:                                           ; preds = %invoke.cont94
  %53 = landingpad { ptr, i32 }
          cleanup
  br label %ehcleanup100

lpad97:                                           ; preds = %invoke.cont96
  %54 = landingpad { ptr, i32 }
          cleanup
  call void @_ZN7testing8internal12AssertHelperD1Ev(ptr noundef nonnull align 8 dereferenceable(8) %ref.tmp92) #22
  br label %ehcleanup100

ehcleanup100:                                     ; preds = %lpad97, %lpad93
  %.pn633 = phi { ptr, i32 } [ %54, %lpad97 ], [ %53, %lpad93 ]
  call void @llvm.lifetime.end.p0(i64 8, ptr nonnull %ref.tmp92) #22
  %55 = load ptr, ptr %ref.tmp89, align 8, !tbaa !21
  store ptr null, ptr %ref.tmp89, align 8, !tbaa !21
  %tobool.not.i.i.i858 = icmp eq ptr %55, null
  br i1 %tobool.not.i.i.i858, label %ehcleanup102, label %_ZNKSt3__114default_deleteINS_18basic_stringstreamIcNS_11char_traitsIcEENS_9allocatorIcEEEEEclB7v170000EPS6_.exit.i.i.i861

_ZNKSt3__114default_deleteINS_18basic_stringstreamIcNS_11char_traitsIcEENS_9allocatorIcEEEEEclB7v170000EPS6_.exit.i.i.i861: ; preds = %ehcleanup100
  %vtable.i.i.i.i859 = load ptr, ptr %55, align 8, !tbaa !5
  %vfn.i.i.i.i860 = getelementptr inbounds ptr, ptr %vtable.i.i.i.i859, i64 1
  %56 = load ptr, ptr %vfn.i.i.i.i860, align 8
  call void %56(ptr noundef nonnull align 8 dereferenceable(128) %55) #22
  br label %ehcleanup102

ehcleanup102:                                     ; preds = %_ZNKSt3__114default_deleteINS_18basic_stringstreamIcNS_11char_traitsIcEENS_9allocatorIcEEEEEclB7v170000EPS6_.exit.i.i.i861, %ehcleanup100, %lpad90
  %.pn633.pn = phi { ptr, i32 } [ %52, %lpad90 ], [ %.pn633, %ehcleanup100 ], [ %.pn633, %_ZNKSt3__114default_deleteINS_18basic_stringstreamIcNS_11char_traitsIcEENS_9allocatorIcEEEEEclB7v170000EPS6_.exit.i.i.i861 ]
  call void @llvm.lifetime.end.p0(i64 8, ptr nonnull %ref.tmp89) #22
  call void @_ZN7testing15AssertionResultD2Ev(ptr noundef nonnull align 8 dereferenceable(16) %gtest_ar82) #22
  call void @llvm.lifetime.end.p0(i64 16, ptr nonnull %gtest_ar82) #22
  br label %ehcleanup106

if.end103:                                        ; preds = %_ZN7testing8internal8EqHelper7CompareImmLPv0EEENS_15AssertionResultEPKcS6_RKT_RKT0_.exit840, %_ZN7testing7MessageD2Ev.exit857
  %message_.i863 = getelementptr inbounds %"class.testing::AssertionResult", ptr %gtest_ar82, i64 0, i32 1
  %57 = load ptr, ptr %message_.i863, align 8, !tbaa !21
  store ptr null, ptr %message_.i863, align 8, !tbaa !21
  %tobool.not.i.i.i864 = icmp eq ptr %57, null
  br i1 %tobool.not.i.i.i864, label %_ZN7testing15AssertionResultD2Ev.exit872, label %delete.notnull.i.i.i.i868

delete.notnull.i.i.i.i868:                        ; preds = %if.end103
  %bf.load.i.i.i.i.i.i865 = load i8, ptr %57, align 8
  %bf.clear.i.i.i.i.i.i866 = and i8 %bf.load.i.i.i.i.i.i865, 1
  %tobool.i.not.i.i.i.i.i867 = icmp eq i8 %bf.clear.i.i.i.i.i.i866, 0
  br i1 %tobool.i.not.i.i.i.i.i867, label %_ZNKSt3__114default_deleteINS_12basic_stringIcNS_11char_traitsIcEENS_9allocatorIcEEEEEclB7v170000EPS6_.exit.i.i.i871, label %if.then.i.i.i.i.i870

if.then.i.i.i.i.i870:                             ; preds = %delete.notnull.i.i.i.i868
  %__data_.i.i.i.i.i.i869 = getelementptr inbounds %"struct.std::__1::basic_string<char>::__long", ptr %57, i64 0, i32 2
  %58 = load ptr, ptr %__data_.i.i.i.i.i.i869, align 8, !tbaa !11
  call void @_ZdlPv(ptr noundef %58) #23
  br label %_ZNKSt3__114default_deleteINS_12basic_stringIcNS_11char_traitsIcEENS_9allocatorIcEEEEEclB7v170000EPS6_.exit.i.i.i871

_ZNKSt3__114default_deleteINS_12basic_stringIcNS_11char_traitsIcEENS_9allocatorIcEEEEEclB7v170000EPS6_.exit.i.i.i871: ; preds = %if.then.i.i.i.i.i870, %delete.notnull.i.i.i.i868
  call void @_ZdlPv(ptr noundef nonnull %57) #23
  br label %_ZN7testing15AssertionResultD2Ev.exit872

_ZN7testing15AssertionResultD2Ev.exit872:         ; preds = %if.end103, %_ZNKSt3__114default_deleteINS_12basic_stringIcNS_11char_traitsIcEENS_9allocatorIcEEEEEclB7v170000EPS6_.exit.i.i.i871
  call void @llvm.lifetime.end.p0(i64 16, ptr nonnull %gtest_ar82) #22
  call void @llvm.lifetime.end.p0(i64 8, ptr nonnull %pos47) #22
  call void @llvm.lifetime.start.p0(i64 8, ptr nonnull %pos107) #22
  store i64 0, ptr %pos107, align 8, !tbaa !8
  call void @llvm.lifetime.start.p0(i64 16, ptr nonnull %gtest_ar108) #22
  call void @llvm.lifetime.start.p0(i64 8, ptr nonnull %ref.tmp109) #22
  store i64 135, ptr %ref.tmp109, align 8, !tbaa !8
  call void @llvm.lifetime.start.p0(i64 8, ptr nonnull %ref.tmp110) #22
  call void @llvm.lifetime.start.p0(i64 24, ptr nonnull %ref.tmp111) #22
  store i8 6, ptr %ref.tmp111, align 8
  %__data_.i.i.i880 = getelementptr inbounds %"struct.std::__1::basic_string<char>::__short", ptr %ref.tmp111, i64 0, i32 2
  %cmp.i24.i.i890 = icmp ugt ptr %__data_.i.i.i880, @.str.20
  %add.ptr.i.i.i891 = getelementptr inbounds %"struct.std::__1::basic_string<char>::__short", ptr %ref.tmp111, i64 0, i32 2, i64 3
  %cmp1.i.i.i892 = icmp ule ptr %add.ptr.i.i.i891, @.str.20
  %59 = or i1 %cmp.i24.i.i890, %cmp1.i.i.i892
  call void @llvm.assume(i1 %59)
  call void @llvm.memcpy.p0.p0.i64(ptr noundef nonnull align 1 dereferenceable(3) %__data_.i.i.i880, ptr noundef nonnull align 1 dereferenceable(3) @.str.20, i64 3, i1 false)
  store i8 0, ptr %add.ptr.i.i.i891, align 4, !tbaa !11
  %call114 = invoke noundef i64 @_ZNSt3__15stoulERKNS_12basic_stringIcNS_11char_traitsIcEENS_9allocatorIcEEEEPmi(ptr noundef nonnull align 8 dereferenceable(24) %ref.tmp111, ptr noundef nonnull %pos107, i32 noundef 10)
          to label %invoke.cont113 unwind label %lpad112

invoke.cont113:                                   ; preds = %_ZN7testing15AssertionResultD2Ev.exit872
  store i64 %call114, ptr %ref.tmp110, align 8, !tbaa !8
  %60 = load i64, ptr %ref.tmp109, align 8, !tbaa !8, !noalias !37
  %cmp.i.i894 = icmp eq i64 %60, %call114
  br i1 %cmp.i.i894, label %if.then.i.i895, label %if.end.i.i896

if.then.i.i895:                                   ; preds = %invoke.cont113
  invoke void @_ZN7testing16AssertionSuccessEv(ptr nonnull sret(%"class.testing::AssertionResult") align 8 %gtest_ar108)
          to label %invoke.cont115 unwind label %lpad112

if.end.i.i896:                                    ; preds = %invoke.cont113
  invoke void @_ZN7testing8internal18CmpHelperEQFailureImmEENS_15AssertionResultEPKcS4_RKT_RKT0_(ptr nonnull sret(%"class.testing::AssertionResult") align 8 %gtest_ar108, ptr noundef nonnull @.str.18, ptr noundef nonnull @.str.19, ptr noundef nonnull align 8 dereferenceable(8) %ref.tmp109, ptr noundef nonnull align 8 dereferenceable(8) %ref.tmp110)
          to label %invoke.cont115 unwind label %lpad112

invoke.cont115:                                   ; preds = %if.then.i.i895, %if.end.i.i896
  %bf.load.i.i900 = load i8, ptr %ref.tmp111, align 8
  %bf.clear.i.i901 = and i8 %bf.load.i.i900, 1
  %tobool.i.not.i902 = icmp eq i8 %bf.clear.i.i901, 0
  br i1 %tobool.i.not.i902, label %_ZNSt3__112basic_stringIcNS_11char_traitsIcEENS_9allocatorIcEEED2Ev.exit905, label %if.then.i904

if.then.i904:                                     ; preds = %invoke.cont115
  %__data_.i.i903 = getelementptr inbounds %"struct.std::__1::basic_string<char>::__long", ptr %ref.tmp111, i64 0, i32 2
  %61 = load ptr, ptr %__data_.i.i903, align 8, !tbaa !11
  call void @_ZdlPv(ptr noundef %61) #23
  br label %_ZNSt3__112basic_stringIcNS_11char_traitsIcEENS_9allocatorIcEEED2Ev.exit905

_ZNSt3__112basic_stringIcNS_11char_traitsIcEENS_9allocatorIcEEED2Ev.exit905: ; preds = %invoke.cont115, %if.then.i904
  call void @llvm.lifetime.end.p0(i64 24, ptr nonnull %ref.tmp111) #22
  call void @llvm.lifetime.end.p0(i64 8, ptr nonnull %ref.tmp110) #22
  call void @llvm.lifetime.end.p0(i64 8, ptr nonnull %ref.tmp109) #22
  %62 = load i8, ptr %gtest_ar108, align 8, !tbaa !12, !range !19, !noundef !20
  %tobool.i906.not = icmp eq i8 %62, 0
  br i1 %tobool.i906.not, label %if.else124, label %if.end139

ehcleanup106:                                     ; preds = %ehcleanup102, %ehcleanup81
  %.pn633.pn.pn = phi { ptr, i32 } [ %.pn633.pn, %ehcleanup102 ], [ %.pn629.pn.pn, %ehcleanup81 ]
  call void @llvm.lifetime.end.p0(i64 8, ptr nonnull %pos47) #22
  br label %eh.resume

lpad112:                                          ; preds = %if.end.i.i896, %if.then.i.i895, %_ZN7testing15AssertionResultD2Ev.exit872
  %63 = landingpad { ptr, i32 }
          cleanup
  %bf.load.i.i907 = load i8, ptr %ref.tmp111, align 8
  %bf.clear.i.i908 = and i8 %bf.load.i.i907, 1
  %tobool.i.not.i909 = icmp eq i8 %bf.clear.i.i908, 0
  br i1 %tobool.i.not.i909, label %_ZNSt3__112basic_stringIcNS_11char_traitsIcEENS_9allocatorIcEEED2Ev.exit912, label %if.then.i911

if.then.i911:                                     ; preds = %lpad112
  %__data_.i.i910 = getelementptr inbounds %"struct.std::__1::basic_string<char>::__long", ptr %ref.tmp111, i64 0, i32 2
  %64 = load ptr, ptr %__data_.i.i910, align 8, !tbaa !11
  call void @_ZdlPv(ptr noundef %64) #23
  br label %_ZNSt3__112basic_stringIcNS_11char_traitsIcEENS_9allocatorIcEEED2Ev.exit912

_ZNSt3__112basic_stringIcNS_11char_traitsIcEENS_9allocatorIcEEED2Ev.exit912: ; preds = %lpad112, %if.then.i911
  call void @llvm.lifetime.end.p0(i64 24, ptr nonnull %ref.tmp111) #22
  call void @llvm.lifetime.end.p0(i64 8, ptr nonnull %ref.tmp110) #22
  call void @llvm.lifetime.end.p0(i64 8, ptr nonnull %ref.tmp109) #22
  br label %ehcleanup141

if.else124:                                       ; preds = %_ZNSt3__112basic_stringIcNS_11char_traitsIcEENS_9allocatorIcEEED2Ev.exit905
  call void @llvm.lifetime.start.p0(i64 8, ptr nonnull %ref.tmp125) #22
  invoke void @_ZN7testing7MessageC1Ev(ptr noundef nonnull align 8 dereferenceable(8) %ref.tmp125)
          to label %invoke.cont127 unwind label %lpad126

invoke.cont127:                                   ; preds = %if.else124
  call void @llvm.lifetime.start.p0(i64 8, ptr nonnull %ref.tmp128) #22
  %message_.i.i913 = getelementptr inbounds %"class.testing::AssertionResult", ptr %gtest_ar108, i64 0, i32 1
  %65 = load ptr, ptr %message_.i.i913, align 8, !tbaa !21
  %cmp.not.i.i914 = icmp eq ptr %65, null
  br i1 %cmp.not.i.i914, label %invoke.cont130, label %cond.true.i.i921

cond.true.i.i921:                                 ; preds = %invoke.cont127
  %bf.load.i.i.i.i.i.i915 = load i8, ptr %65, align 8
  %bf.clear.i.i.i.i.i.i916 = and i8 %bf.load.i.i.i.i.i.i915, 1
  %tobool.i.not.i.i.i.i.i917 = icmp eq i8 %bf.clear.i.i.i.i.i.i916, 0
  %__data_.i.i.i.i.i.i918 = getelementptr inbounds %"struct.std::__1::basic_string<char>::__long", ptr %65, i64 0, i32 2
  %66 = load ptr, ptr %__data_.i.i.i.i.i.i918, align 8
  %__data_.i4.i.i.i.i.i919 = getelementptr inbounds %"struct.std::__1::basic_string<char>::__short", ptr %65, i64 0, i32 2
  %cond.i.i.i.i.i920 = select i1 %tobool.i.not.i.i.i.i.i917, ptr %__data_.i4.i.i.i.i.i919, ptr %66
  br label %invoke.cont130

invoke.cont130:                                   ; preds = %cond.true.i.i921, %invoke.cont127
  %cond.i.i922 = phi ptr [ %cond.i.i.i.i.i920, %cond.true.i.i921 ], [ @.str.46, %invoke.cont127 ]
  invoke void @_ZN7testing8internal12AssertHelperC1ENS_14TestPartResult4TypeEPKciS5_(ptr noundef nonnull align 8 dereferenceable(8) %ref.tmp128, i32 noundef 1, ptr noundef nonnull @.str.3, i32 noundef 23, ptr noundef %cond.i.i922)
          to label %invoke.cont132 unwind label %lpad129

invoke.cont132:                                   ; preds = %invoke.cont130
  invoke void @_ZNK7testing8internal12AssertHelperaSERKNS_7MessageE(ptr noundef nonnull align 8 dereferenceable(8) %ref.tmp128, ptr noundef nonnull align 8 dereferenceable(8) %ref.tmp125)
          to label %invoke.cont134 unwind label %lpad133

invoke.cont134:                                   ; preds = %invoke.cont132
  call void @_ZN7testing8internal12AssertHelperD1Ev(ptr noundef nonnull align 8 dereferenceable(8) %ref.tmp128) #22
  call void @llvm.lifetime.end.p0(i64 8, ptr nonnull %ref.tmp128) #22
  %67 = load ptr, ptr %ref.tmp125, align 8, !tbaa !21
  store ptr null, ptr %ref.tmp125, align 8, !tbaa !21
  %tobool.not.i.i.i924 = icmp eq ptr %67, null
  br i1 %tobool.not.i.i.i924, label %_ZN7testing7MessageD2Ev.exit928, label %_ZNKSt3__114default_deleteINS_18basic_stringstreamIcNS_11char_traitsIcEENS_9allocatorIcEEEEEclB7v170000EPS6_.exit.i.i.i927

_ZNKSt3__114default_deleteINS_18basic_stringstreamIcNS_11char_traitsIcEENS_9allocatorIcEEEEEclB7v170000EPS6_.exit.i.i.i927: ; preds = %invoke.cont134
  %vtable.i.i.i.i925 = load ptr, ptr %67, align 8, !tbaa !5
  %vfn.i.i.i.i926 = getelementptr inbounds ptr, ptr %vtable.i.i.i.i925, i64 1
  %68 = load ptr, ptr %vfn.i.i.i.i926, align 8
  call void %68(ptr noundef nonnull align 8 dereferenceable(128) %67) #22
  br label %_ZN7testing7MessageD2Ev.exit928

_ZN7testing7MessageD2Ev.exit928:                  ; preds = %invoke.cont134, %_ZNKSt3__114default_deleteINS_18basic_stringstreamIcNS_11char_traitsIcEENS_9allocatorIcEEEEEclB7v170000EPS6_.exit.i.i.i927
  call void @llvm.lifetime.end.p0(i64 8, ptr nonnull %ref.tmp125) #22
  br label %if.end139

lpad126:                                          ; preds = %if.else124
  %69 = landingpad { ptr, i32 }
          cleanup
  br label %ehcleanup138

lpad129:                                          ; preds = %invoke.cont130
  %70 = landingpad { ptr, i32 }
          cleanup
  br label %ehcleanup136

lpad133:                                          ; preds = %invoke.cont132
  %71 = landingpad { ptr, i32 }
          cleanup
  call void @_ZN7testing8internal12AssertHelperD1Ev(ptr noundef nonnull align 8 dereferenceable(8) %ref.tmp128) #22
  br label %ehcleanup136

ehcleanup136:                                     ; preds = %lpad133, %lpad129
  %.pn637 = phi { ptr, i32 } [ %71, %lpad133 ], [ %70, %lpad129 ]
  call void @llvm.lifetime.end.p0(i64 8, ptr nonnull %ref.tmp128) #22
  %72 = load ptr, ptr %ref.tmp125, align 8, !tbaa !21
  store ptr null, ptr %ref.tmp125, align 8, !tbaa !21
  %tobool.not.i.i.i929 = icmp eq ptr %72, null
  br i1 %tobool.not.i.i.i929, label %ehcleanup138, label %_ZNKSt3__114default_deleteINS_18basic_stringstreamIcNS_11char_traitsIcEENS_9allocatorIcEEEEEclB7v170000EPS6_.exit.i.i.i932

_ZNKSt3__114default_deleteINS_18basic_stringstreamIcNS_11char_traitsIcEENS_9allocatorIcEEEEEclB7v170000EPS6_.exit.i.i.i932: ; preds = %ehcleanup136
  %vtable.i.i.i.i930 = load ptr, ptr %72, align 8, !tbaa !5
  %vfn.i.i.i.i931 = getelementptr inbounds ptr, ptr %vtable.i.i.i.i930, i64 1
  %73 = load ptr, ptr %vfn.i.i.i.i931, align 8
  call void %73(ptr noundef nonnull align 8 dereferenceable(128) %72) #22
  br label %ehcleanup138

ehcleanup138:                                     ; preds = %_ZNKSt3__114default_deleteINS_18basic_stringstreamIcNS_11char_traitsIcEENS_9allocatorIcEEEEEclB7v170000EPS6_.exit.i.i.i932, %ehcleanup136, %lpad126
  %.pn637.pn = phi { ptr, i32 } [ %69, %lpad126 ], [ %.pn637, %ehcleanup136 ], [ %.pn637, %_ZNKSt3__114default_deleteINS_18basic_stringstreamIcNS_11char_traitsIcEENS_9allocatorIcEEEEEclB7v170000EPS6_.exit.i.i.i932 ]
  call void @llvm.lifetime.end.p0(i64 8, ptr nonnull %ref.tmp125) #22
  call void @_ZN7testing15AssertionResultD2Ev(ptr noundef nonnull align 8 dereferenceable(16) %gtest_ar108) #22
  br label %ehcleanup141

if.end139:                                        ; preds = %_ZNSt3__112basic_stringIcNS_11char_traitsIcEENS_9allocatorIcEEED2Ev.exit905, %_ZN7testing7MessageD2Ev.exit928
  %message_.i934 = getelementptr inbounds %"class.testing::AssertionResult", ptr %gtest_ar108, i64 0, i32 1
  %74 = load ptr, ptr %message_.i934, align 8, !tbaa !21
  store ptr null, ptr %message_.i934, align 8, !tbaa !21
  %tobool.not.i.i.i935 = icmp eq ptr %74, null
  br i1 %tobool.not.i.i.i935, label %_ZN7testing15AssertionResultD2Ev.exit943, label %delete.notnull.i.i.i.i939

delete.notnull.i.i.i.i939:                        ; preds = %if.end139
  %bf.load.i.i.i.i.i.i936 = load i8, ptr %74, align 8
  %bf.clear.i.i.i.i.i.i937 = and i8 %bf.load.i.i.i.i.i.i936, 1
  %tobool.i.not.i.i.i.i.i938 = icmp eq i8 %bf.clear.i.i.i.i.i.i937, 0
  br i1 %tobool.i.not.i.i.i.i.i938, label %_ZNKSt3__114default_deleteINS_12basic_stringIcNS_11char_traitsIcEENS_9allocatorIcEEEEEclB7v170000EPS6_.exit.i.i.i942, label %if.then.i.i.i.i.i941

if.then.i.i.i.i.i941:                             ; preds = %delete.notnull.i.i.i.i939
  %__data_.i.i.i.i.i.i940 = getelementptr inbounds %"struct.std::__1::basic_string<char>::__long", ptr %74, i64 0, i32 2
  %75 = load ptr, ptr %__data_.i.i.i.i.i.i940, align 8, !tbaa !11
  call void @_ZdlPv(ptr noundef %75) #23
  br label %_ZNKSt3__114default_deleteINS_12basic_stringIcNS_11char_traitsIcEENS_9allocatorIcEEEEEclB7v170000EPS6_.exit.i.i.i942

_ZNKSt3__114default_deleteINS_12basic_stringIcNS_11char_traitsIcEENS_9allocatorIcEEEEEclB7v170000EPS6_.exit.i.i.i942: ; preds = %if.then.i.i.i.i.i941, %delete.notnull.i.i.i.i939
  call void @_ZdlPv(ptr noundef nonnull %74) #23
  br label %_ZN7testing15AssertionResultD2Ev.exit943

_ZN7testing15AssertionResultD2Ev.exit943:         ; preds = %if.end139, %_ZNKSt3__114default_deleteINS_12basic_stringIcNS_11char_traitsIcEENS_9allocatorIcEEEEEclB7v170000EPS6_.exit.i.i.i942
  call void @llvm.lifetime.end.p0(i64 16, ptr nonnull %gtest_ar108) #22
  call void @llvm.lifetime.start.p0(i64 16, ptr nonnull %gtest_ar142) #22
  call void @llvm.lifetime.start.p0(i64 8, ptr nonnull %ref.tmp143) #22
  store i64 3, ptr %ref.tmp143, align 8, !tbaa !8
  %76 = load i64, ptr %pos107, align 8, !tbaa !8, !noalias !42
  %cmp.i.i944 = icmp eq i64 %76, 3
  br i1 %cmp.i.i944, label %if.then.i.i945, label %if.end.i.i946

if.then.i.i945:                                   ; preds = %_ZN7testing15AssertionResultD2Ev.exit943
  call void @_ZN7testing16AssertionSuccessEv(ptr nonnull sret(%"class.testing::AssertionResult") align 8 %gtest_ar142)
  br label %_ZN7testing8internal8EqHelper7CompareImmLPv0EEENS_15AssertionResultEPKcS6_RKT_RKT0_.exit947

if.end.i.i946:                                    ; preds = %_ZN7testing15AssertionResultD2Ev.exit943
  call void @_ZN7testing8internal18CmpHelperEQFailureImmEENS_15AssertionResultEPKcS4_RKT_RKT0_(ptr nonnull sret(%"class.testing::AssertionResult") align 8 %gtest_ar142, ptr noundef nonnull @.str.21, ptr noundef nonnull @.str.14, ptr noundef nonnull align 8 dereferenceable(8) %ref.tmp143, ptr noundef nonnull align 8 dereferenceable(8) %pos107)
  br label %_ZN7testing8internal8EqHelper7CompareImmLPv0EEENS_15AssertionResultEPKcS6_RKT_RKT0_.exit947

_ZN7testing8internal8EqHelper7CompareImmLPv0EEENS_15AssertionResultEPKcS6_RKT_RKT0_.exit947: ; preds = %if.then.i.i945, %if.end.i.i946
  call void @llvm.lifetime.end.p0(i64 8, ptr nonnull %ref.tmp143) #22
  %77 = load i8, ptr %gtest_ar142, align 8, !tbaa !12, !range !19, !noundef !20
  %tobool.i948.not = icmp eq i8 %77, 0
  br i1 %tobool.i948.not, label %if.else148, label %if.end163

ehcleanup141:                                     ; preds = %ehcleanup138, %_ZNSt3__112basic_stringIcNS_11char_traitsIcEENS_9allocatorIcEEED2Ev.exit912
  %.pn637.pn.pn = phi { ptr, i32 } [ %.pn637.pn, %ehcleanup138 ], [ %63, %_ZNSt3__112basic_stringIcNS_11char_traitsIcEENS_9allocatorIcEEED2Ev.exit912 ]
  call void @llvm.lifetime.end.p0(i64 16, ptr nonnull %gtest_ar108) #22
  br label %ehcleanup166

if.else148:                                       ; preds = %_ZN7testing8internal8EqHelper7CompareImmLPv0EEENS_15AssertionResultEPKcS6_RKT_RKT0_.exit947
  call void @llvm.lifetime.start.p0(i64 8, ptr nonnull %ref.tmp149) #22
  invoke void @_ZN7testing7MessageC1Ev(ptr noundef nonnull align 8 dereferenceable(8) %ref.tmp149)
          to label %invoke.cont151 unwind label %lpad150

invoke.cont151:                                   ; preds = %if.else148
  call void @llvm.lifetime.start.p0(i64 8, ptr nonnull %ref.tmp152) #22
  %message_.i.i949 = getelementptr inbounds %"class.testing::AssertionResult", ptr %gtest_ar142, i64 0, i32 1
  %78 = load ptr, ptr %message_.i.i949, align 8, !tbaa !21
  %cmp.not.i.i950 = icmp eq ptr %78, null
  br i1 %cmp.not.i.i950, label %invoke.cont154, label %cond.true.i.i957

cond.true.i.i957:                                 ; preds = %invoke.cont151
  %bf.load.i.i.i.i.i.i951 = load i8, ptr %78, align 8
  %bf.clear.i.i.i.i.i.i952 = and i8 %bf.load.i.i.i.i.i.i951, 1
  %tobool.i.not.i.i.i.i.i953 = icmp eq i8 %bf.clear.i.i.i.i.i.i952, 0
  %__data_.i.i.i.i.i.i954 = getelementptr inbounds %"struct.std::__1::basic_string<char>::__long", ptr %78, i64 0, i32 2
  %79 = load ptr, ptr %__data_.i.i.i.i.i.i954, align 8
  %__data_.i4.i.i.i.i.i955 = getelementptr inbounds %"struct.std::__1::basic_string<char>::__short", ptr %78, i64 0, i32 2
  %cond.i.i.i.i.i956 = select i1 %tobool.i.not.i.i.i.i.i953, ptr %__data_.i4.i.i.i.i.i955, ptr %79
  br label %invoke.cont154

invoke.cont154:                                   ; preds = %cond.true.i.i957, %invoke.cont151
  %cond.i.i958 = phi ptr [ %cond.i.i.i.i.i956, %cond.true.i.i957 ], [ @.str.46, %invoke.cont151 ]
  invoke void @_ZN7testing8internal12AssertHelperC1ENS_14TestPartResult4TypeEPKciS5_(ptr noundef nonnull align 8 dereferenceable(8) %ref.tmp152, i32 noundef 1, ptr noundef nonnull @.str.3, i32 noundef 24, ptr noundef %cond.i.i958)
          to label %invoke.cont156 unwind label %lpad153

invoke.cont156:                                   ; preds = %invoke.cont154
  invoke void @_ZNK7testing8internal12AssertHelperaSERKNS_7MessageE(ptr noundef nonnull align 8 dereferenceable(8) %ref.tmp152, ptr noundef nonnull align 8 dereferenceable(8) %ref.tmp149)
          to label %invoke.cont158 unwind label %lpad157

invoke.cont158:                                   ; preds = %invoke.cont156
  call void @_ZN7testing8internal12AssertHelperD1Ev(ptr noundef nonnull align 8 dereferenceable(8) %ref.tmp152) #22
  call void @llvm.lifetime.end.p0(i64 8, ptr nonnull %ref.tmp152) #22
  %80 = load ptr, ptr %ref.tmp149, align 8, !tbaa !21
  store ptr null, ptr %ref.tmp149, align 8, !tbaa !21
  %tobool.not.i.i.i960 = icmp eq ptr %80, null
  br i1 %tobool.not.i.i.i960, label %_ZN7testing7MessageD2Ev.exit964, label %_ZNKSt3__114default_deleteINS_18basic_stringstreamIcNS_11char_traitsIcEENS_9allocatorIcEEEEEclB7v170000EPS6_.exit.i.i.i963

_ZNKSt3__114default_deleteINS_18basic_stringstreamIcNS_11char_traitsIcEENS_9allocatorIcEEEEEclB7v170000EPS6_.exit.i.i.i963: ; preds = %invoke.cont158
  %vtable.i.i.i.i961 = load ptr, ptr %80, align 8, !tbaa !5
  %vfn.i.i.i.i962 = getelementptr inbounds ptr, ptr %vtable.i.i.i.i961, i64 1
  %81 = load ptr, ptr %vfn.i.i.i.i962, align 8
  call void %81(ptr noundef nonnull align 8 dereferenceable(128) %80) #22
  br label %_ZN7testing7MessageD2Ev.exit964

_ZN7testing7MessageD2Ev.exit964:                  ; preds = %invoke.cont158, %_ZNKSt3__114default_deleteINS_18basic_stringstreamIcNS_11char_traitsIcEENS_9allocatorIcEEEEEclB7v170000EPS6_.exit.i.i.i963
  call void @llvm.lifetime.end.p0(i64 8, ptr nonnull %ref.tmp149) #22
  br label %if.end163

lpad150:                                          ; preds = %if.else148
  %82 = landingpad { ptr, i32 }
          cleanup
  br label %ehcleanup162

lpad153:                                          ; preds = %invoke.cont154
  %83 = landingpad { ptr, i32 }
          cleanup
  br label %ehcleanup160

lpad157:                                          ; preds = %invoke.cont156
  %84 = landingpad { ptr, i32 }
          cleanup
  call void @_ZN7testing8internal12AssertHelperD1Ev(ptr noundef nonnull align 8 dereferenceable(8) %ref.tmp152) #22
  br label %ehcleanup160

ehcleanup160:                                     ; preds = %lpad157, %lpad153
  %.pn641 = phi { ptr, i32 } [ %84, %lpad157 ], [ %83, %lpad153 ]
  call void @llvm.lifetime.end.p0(i64 8, ptr nonnull %ref.tmp152) #22
  %85 = load ptr, ptr %ref.tmp149, align 8, !tbaa !21
  store ptr null, ptr %ref.tmp149, align 8, !tbaa !21
  %tobool.not.i.i.i965 = icmp eq ptr %85, null
  br i1 %tobool.not.i.i.i965, label %ehcleanup162, label %_ZNKSt3__114default_deleteINS_18basic_stringstreamIcNS_11char_traitsIcEENS_9allocatorIcEEEEEclB7v170000EPS6_.exit.i.i.i968

_ZNKSt3__114default_deleteINS_18basic_stringstreamIcNS_11char_traitsIcEENS_9allocatorIcEEEEEclB7v170000EPS6_.exit.i.i.i968: ; preds = %ehcleanup160
  %vtable.i.i.i.i966 = load ptr, ptr %85, align 8, !tbaa !5
  %vfn.i.i.i.i967 = getelementptr inbounds ptr, ptr %vtable.i.i.i.i966, i64 1
  %86 = load ptr, ptr %vfn.i.i.i.i967, align 8
  call void %86(ptr noundef nonnull align 8 dereferenceable(128) %85) #22
  br label %ehcleanup162

ehcleanup162:                                     ; preds = %_ZNKSt3__114default_deleteINS_18basic_stringstreamIcNS_11char_traitsIcEENS_9allocatorIcEEEEEclB7v170000EPS6_.exit.i.i.i968, %ehcleanup160, %lpad150
  %.pn641.pn = phi { ptr, i32 } [ %82, %lpad150 ], [ %.pn641, %ehcleanup160 ], [ %.pn641, %_ZNKSt3__114default_deleteINS_18basic_stringstreamIcNS_11char_traitsIcEENS_9allocatorIcEEEEEclB7v170000EPS6_.exit.i.i.i968 ]
  call void @llvm.lifetime.end.p0(i64 8, ptr nonnull %ref.tmp149) #22
  call void @_ZN7testing15AssertionResultD2Ev(ptr noundef nonnull align 8 dereferenceable(16) %gtest_ar142) #22
  call void @llvm.lifetime.end.p0(i64 16, ptr nonnull %gtest_ar142) #22
  br label %ehcleanup166

if.end163:                                        ; preds = %_ZN7testing8internal8EqHelper7CompareImmLPv0EEENS_15AssertionResultEPKcS6_RKT_RKT0_.exit947, %_ZN7testing7MessageD2Ev.exit964
  %message_.i970 = getelementptr inbounds %"class.testing::AssertionResult", ptr %gtest_ar142, i64 0, i32 1
  %87 = load ptr, ptr %message_.i970, align 8, !tbaa !21
  store ptr null, ptr %message_.i970, align 8, !tbaa !21
  %tobool.not.i.i.i971 = icmp eq ptr %87, null
  br i1 %tobool.not.i.i.i971, label %_ZN7testing15AssertionResultD2Ev.exit979, label %delete.notnull.i.i.i.i975

delete.notnull.i.i.i.i975:                        ; preds = %if.end163
  %bf.load.i.i.i.i.i.i972 = load i8, ptr %87, align 8
  %bf.clear.i.i.i.i.i.i973 = and i8 %bf.load.i.i.i.i.i.i972, 1
  %tobool.i.not.i.i.i.i.i974 = icmp eq i8 %bf.clear.i.i.i.i.i.i973, 0
  br i1 %tobool.i.not.i.i.i.i.i974, label %_ZNKSt3__114default_deleteINS_12basic_stringIcNS_11char_traitsIcEENS_9allocatorIcEEEEEclB7v170000EPS6_.exit.i.i.i978, label %if.then.i.i.i.i.i977

if.then.i.i.i.i.i977:                             ; preds = %delete.notnull.i.i.i.i975
  %__data_.i.i.i.i.i.i976 = getelementptr inbounds %"struct.std::__1::basic_string<char>::__long", ptr %87, i64 0, i32 2
  %88 = load ptr, ptr %__data_.i.i.i.i.i.i976, align 8, !tbaa !11
  call void @_ZdlPv(ptr noundef %88) #23
  br label %_ZNKSt3__114default_deleteINS_12basic_stringIcNS_11char_traitsIcEENS_9allocatorIcEEEEEclB7v170000EPS6_.exit.i.i.i978

_ZNKSt3__114default_deleteINS_12basic_stringIcNS_11char_traitsIcEENS_9allocatorIcEEEEEclB7v170000EPS6_.exit.i.i.i978: ; preds = %if.then.i.i.i.i.i977, %delete.notnull.i.i.i.i975
  call void @_ZdlPv(ptr noundef nonnull %87) #23
  br label %_ZN7testing15AssertionResultD2Ev.exit979

_ZN7testing15AssertionResultD2Ev.exit979:         ; preds = %if.end163, %_ZNKSt3__114default_deleteINS_12basic_stringIcNS_11char_traitsIcEENS_9allocatorIcEEEEEclB7v170000EPS6_.exit.i.i.i978
  call void @llvm.lifetime.end.p0(i64 16, ptr nonnull %gtest_ar142) #22
  call void @llvm.lifetime.end.p0(i64 8, ptr nonnull %pos107) #22
  call void @llvm.lifetime.start.p0(i64 8, ptr nonnull %pos167) #22
  store i64 0, ptr %pos167, align 8, !tbaa !8
  call void @llvm.lifetime.start.p0(i64 16, ptr nonnull %gtest_ar168) #22
  call void @llvm.lifetime.start.p0(i64 8, ptr nonnull %ref.tmp169) #22
  store i64 -1, ptr %ref.tmp169, align 8, !tbaa !8
  call void @llvm.lifetime.start.p0(i64 8, ptr nonnull %ref.tmp170) #22
  call void @llvm.lifetime.start.p0(i64 24, ptr nonnull %ref.tmp171) #22
  store i8 40, ptr %ref.tmp171, align 8
  %__data_.i.i.i987 = getelementptr inbounds %"struct.std::__1::basic_string<char>::__short", ptr %ref.tmp171, i64 0, i32 2
  %cmp.i24.i.i997 = icmp ugt ptr %__data_.i.i.i987, @.str.24
  %add.ptr.i.i.i998 = getelementptr inbounds %"struct.std::__1::basic_string<char>::__short", ptr %ref.tmp171, i64 0, i32 2, i64 20
  %cmp1.i.i.i999 = icmp ule ptr %add.ptr.i.i.i998, @.str.24
  %89 = or i1 %cmp.i24.i.i997, %cmp1.i.i.i999
  call void @llvm.assume(i1 %89)
  call void @llvm.memcpy.p0.p0.i64(ptr noundef nonnull align 1 dereferenceable(20) %__data_.i.i.i987, ptr noundef nonnull align 1 dereferenceable(20) @.str.24, i64 20, i1 false)
  store i8 0, ptr %add.ptr.i.i.i998, align 1, !tbaa !11
  %call174 = invoke noundef i64 @_ZNSt3__15stoulERKNS_12basic_stringIcNS_11char_traitsIcEENS_9allocatorIcEEEEPmi(ptr noundef nonnull align 8 dereferenceable(24) %ref.tmp171, ptr noundef nonnull %pos167, i32 noundef 10)
          to label %invoke.cont173 unwind label %lpad172

invoke.cont173:                                   ; preds = %_ZN7testing15AssertionResultD2Ev.exit979
  store i64 %call174, ptr %ref.tmp170, align 8, !tbaa !8
  %90 = load i64, ptr %ref.tmp169, align 8, !tbaa !8, !noalias !47
  %cmp.i.i1001 = icmp eq i64 %90, %call174
  br i1 %cmp.i.i1001, label %if.then.i.i1002, label %if.end.i.i1003

if.then.i.i1002:                                  ; preds = %invoke.cont173
  invoke void @_ZN7testing16AssertionSuccessEv(ptr nonnull sret(%"class.testing::AssertionResult") align 8 %gtest_ar168)
          to label %invoke.cont175 unwind label %lpad172

if.end.i.i1003:                                   ; preds = %invoke.cont173
  invoke void @_ZN7testing8internal18CmpHelperEQFailureImmEENS_15AssertionResultEPKcS4_RKT_RKT0_(ptr nonnull sret(%"class.testing::AssertionResult") align 8 %gtest_ar168, ptr noundef nonnull @.str.22, ptr noundef nonnull @.str.23, ptr noundef nonnull align 8 dereferenceable(8) %ref.tmp169, ptr noundef nonnull align 8 dereferenceable(8) %ref.tmp170)
          to label %invoke.cont175 unwind label %lpad172

invoke.cont175:                                   ; preds = %if.then.i.i1002, %if.end.i.i1003
  %bf.load.i.i1007 = load i8, ptr %ref.tmp171, align 8
  %bf.clear.i.i1008 = and i8 %bf.load.i.i1007, 1
  %tobool.i.not.i1009 = icmp eq i8 %bf.clear.i.i1008, 0
  br i1 %tobool.i.not.i1009, label %_ZNSt3__112basic_stringIcNS_11char_traitsIcEENS_9allocatorIcEEED2Ev.exit1012, label %if.then.i1011

if.then.i1011:                                    ; preds = %invoke.cont175
  %__data_.i.i1010 = getelementptr inbounds %"struct.std::__1::basic_string<char>::__long", ptr %ref.tmp171, i64 0, i32 2
  %91 = load ptr, ptr %__data_.i.i1010, align 8, !tbaa !11
  call void @_ZdlPv(ptr noundef %91) #23
  br label %_ZNSt3__112basic_stringIcNS_11char_traitsIcEENS_9allocatorIcEEED2Ev.exit1012

_ZNSt3__112basic_stringIcNS_11char_traitsIcEENS_9allocatorIcEEED2Ev.exit1012: ; preds = %invoke.cont175, %if.then.i1011
  call void @llvm.lifetime.end.p0(i64 24, ptr nonnull %ref.tmp171) #22
  call void @llvm.lifetime.end.p0(i64 8, ptr nonnull %ref.tmp170) #22
  call void @llvm.lifetime.end.p0(i64 8, ptr nonnull %ref.tmp169) #22
  %92 = load i8, ptr %gtest_ar168, align 8, !tbaa !12, !range !19, !noundef !20
  %tobool.i1013.not = icmp eq i8 %92, 0
  br i1 %tobool.i1013.not, label %if.else184, label %if.end199

ehcleanup166:                                     ; preds = %ehcleanup162, %ehcleanup141
  %.pn641.pn.pn = phi { ptr, i32 } [ %.pn641.pn, %ehcleanup162 ], [ %.pn637.pn.pn, %ehcleanup141 ]
  call void @llvm.lifetime.end.p0(i64 8, ptr nonnull %pos107) #22
  br label %eh.resume

lpad172:                                          ; preds = %if.end.i.i1003, %if.then.i.i1002, %_ZN7testing15AssertionResultD2Ev.exit979
  %93 = landingpad { ptr, i32 }
          cleanup
  %bf.load.i.i1014 = load i8, ptr %ref.tmp171, align 8
  %bf.clear.i.i1015 = and i8 %bf.load.i.i1014, 1
  %tobool.i.not.i1016 = icmp eq i8 %bf.clear.i.i1015, 0
  br i1 %tobool.i.not.i1016, label %_ZNSt3__112basic_stringIcNS_11char_traitsIcEENS_9allocatorIcEEED2Ev.exit1019, label %if.then.i1018

if.then.i1018:                                    ; preds = %lpad172
  %__data_.i.i1017 = getelementptr inbounds %"struct.std::__1::basic_string<char>::__long", ptr %ref.tmp171, i64 0, i32 2
  %94 = load ptr, ptr %__data_.i.i1017, align 8, !tbaa !11
  call void @_ZdlPv(ptr noundef %94) #23
  br label %_ZNSt3__112basic_stringIcNS_11char_traitsIcEENS_9allocatorIcEEED2Ev.exit1019

_ZNSt3__112basic_stringIcNS_11char_traitsIcEENS_9allocatorIcEEED2Ev.exit1019: ; preds = %lpad172, %if.then.i1018
  call void @llvm.lifetime.end.p0(i64 24, ptr nonnull %ref.tmp171) #22
  call void @llvm.lifetime.end.p0(i64 8, ptr nonnull %ref.tmp170) #22
  call void @llvm.lifetime.end.p0(i64 8, ptr nonnull %ref.tmp169) #22
  br label %ehcleanup201

if.else184:                                       ; preds = %_ZNSt3__112basic_stringIcNS_11char_traitsIcEENS_9allocatorIcEEED2Ev.exit1012
  call void @llvm.lifetime.start.p0(i64 8, ptr nonnull %ref.tmp185) #22
  invoke void @_ZN7testing7MessageC1Ev(ptr noundef nonnull align 8 dereferenceable(8) %ref.tmp185)
          to label %invoke.cont187 unwind label %lpad186

invoke.cont187:                                   ; preds = %if.else184
  call void @llvm.lifetime.start.p0(i64 8, ptr nonnull %ref.tmp188) #22
  %message_.i.i1020 = getelementptr inbounds %"class.testing::AssertionResult", ptr %gtest_ar168, i64 0, i32 1
  %95 = load ptr, ptr %message_.i.i1020, align 8, !tbaa !21
  %cmp.not.i.i1021 = icmp eq ptr %95, null
  br i1 %cmp.not.i.i1021, label %invoke.cont190, label %cond.true.i.i1028

cond.true.i.i1028:                                ; preds = %invoke.cont187
  %bf.load.i.i.i.i.i.i1022 = load i8, ptr %95, align 8
  %bf.clear.i.i.i.i.i.i1023 = and i8 %bf.load.i.i.i.i.i.i1022, 1
  %tobool.i.not.i.i.i.i.i1024 = icmp eq i8 %bf.clear.i.i.i.i.i.i1023, 0
  %__data_.i.i.i.i.i.i1025 = getelementptr inbounds %"struct.std::__1::basic_string<char>::__long", ptr %95, i64 0, i32 2
  %96 = load ptr, ptr %__data_.i.i.i.i.i.i1025, align 8
  %__data_.i4.i.i.i.i.i1026 = getelementptr inbounds %"struct.std::__1::basic_string<char>::__short", ptr %95, i64 0, i32 2
  %cond.i.i.i.i.i1027 = select i1 %tobool.i.not.i.i.i.i.i1024, ptr %__data_.i4.i.i.i.i.i1026, ptr %96
  br label %invoke.cont190

invoke.cont190:                                   ; preds = %cond.true.i.i1028, %invoke.cont187
  %cond.i.i1029 = phi ptr [ %cond.i.i.i.i.i1027, %cond.true.i.i1028 ], [ @.str.46, %invoke.cont187 ]
  invoke void @_ZN7testing8internal12AssertHelperC1ENS_14TestPartResult4TypeEPKciS5_(ptr noundef nonnull align 8 dereferenceable(8) %ref.tmp188, i32 noundef 1, ptr noundef nonnull @.str.3, i32 noundef 36, ptr noundef %cond.i.i1029)
          to label %invoke.cont192 unwind label %lpad189

invoke.cont192:                                   ; preds = %invoke.cont190
  invoke void @_ZNK7testing8internal12AssertHelperaSERKNS_7MessageE(ptr noundef nonnull align 8 dereferenceable(8) %ref.tmp188, ptr noundef nonnull align 8 dereferenceable(8) %ref.tmp185)
          to label %invoke.cont194 unwind label %lpad193

invoke.cont194:                                   ; preds = %invoke.cont192
  call void @_ZN7testing8internal12AssertHelperD1Ev(ptr noundef nonnull align 8 dereferenceable(8) %ref.tmp188) #22
  call void @llvm.lifetime.end.p0(i64 8, ptr nonnull %ref.tmp188) #22
  %97 = load ptr, ptr %ref.tmp185, align 8, !tbaa !21
  store ptr null, ptr %ref.tmp185, align 8, !tbaa !21
  %tobool.not.i.i.i1031 = icmp eq ptr %97, null
  br i1 %tobool.not.i.i.i1031, label %_ZN7testing7MessageD2Ev.exit1035, label %_ZNKSt3__114default_deleteINS_18basic_stringstreamIcNS_11char_traitsIcEENS_9allocatorIcEEEEEclB7v170000EPS6_.exit.i.i.i1034

_ZNKSt3__114default_deleteINS_18basic_stringstreamIcNS_11char_traitsIcEENS_9allocatorIcEEEEEclB7v170000EPS6_.exit.i.i.i1034: ; preds = %invoke.cont194
  %vtable.i.i.i.i1032 = load ptr, ptr %97, align 8, !tbaa !5
  %vfn.i.i.i.i1033 = getelementptr inbounds ptr, ptr %vtable.i.i.i.i1032, i64 1
  %98 = load ptr, ptr %vfn.i.i.i.i1033, align 8
  call void %98(ptr noundef nonnull align 8 dereferenceable(128) %97) #22
  br label %_ZN7testing7MessageD2Ev.exit1035

_ZN7testing7MessageD2Ev.exit1035:                 ; preds = %invoke.cont194, %_ZNKSt3__114default_deleteINS_18basic_stringstreamIcNS_11char_traitsIcEENS_9allocatorIcEEEEEclB7v170000EPS6_.exit.i.i.i1034
  call void @llvm.lifetime.end.p0(i64 8, ptr nonnull %ref.tmp185) #22
  br label %if.end199

lpad186:                                          ; preds = %if.else184
  %99 = landingpad { ptr, i32 }
          cleanup
  br label %ehcleanup198

lpad189:                                          ; preds = %invoke.cont190
  %100 = landingpad { ptr, i32 }
          cleanup
  br label %ehcleanup196

lpad193:                                          ; preds = %invoke.cont192
  %101 = landingpad { ptr, i32 }
          cleanup
  call void @_ZN7testing8internal12AssertHelperD1Ev(ptr noundef nonnull align 8 dereferenceable(8) %ref.tmp188) #22
  br label %ehcleanup196

ehcleanup196:                                     ; preds = %lpad193, %lpad189
  %.pn645 = phi { ptr, i32 } [ %101, %lpad193 ], [ %100, %lpad189 ]
  call void @llvm.lifetime.end.p0(i64 8, ptr nonnull %ref.tmp188) #22
  %102 = load ptr, ptr %ref.tmp185, align 8, !tbaa !21
  store ptr null, ptr %ref.tmp185, align 8, !tbaa !21
  %tobool.not.i.i.i1036 = icmp eq ptr %102, null
  br i1 %tobool.not.i.i.i1036, label %ehcleanup198, label %_ZNKSt3__114default_deleteINS_18basic_stringstreamIcNS_11char_traitsIcEENS_9allocatorIcEEEEEclB7v170000EPS6_.exit.i.i.i1039

_ZNKSt3__114default_deleteINS_18basic_stringstreamIcNS_11char_traitsIcEENS_9allocatorIcEEEEEclB7v170000EPS6_.exit.i.i.i1039: ; preds = %ehcleanup196
  %vtable.i.i.i.i1037 = load ptr, ptr %102, align 8, !tbaa !5
  %vfn.i.i.i.i1038 = getelementptr inbounds ptr, ptr %vtable.i.i.i.i1037, i64 1
  %103 = load ptr, ptr %vfn.i.i.i.i1038, align 8
  call void %103(ptr noundef nonnull align 8 dereferenceable(128) %102) #22
  br label %ehcleanup198

ehcleanup198:                                     ; preds = %_ZNKSt3__114default_deleteINS_18basic_stringstreamIcNS_11char_traitsIcEENS_9allocatorIcEEEEEclB7v170000EPS6_.exit.i.i.i1039, %ehcleanup196, %lpad186
  %.pn645.pn = phi { ptr, i32 } [ %99, %lpad186 ], [ %.pn645, %ehcleanup196 ], [ %.pn645, %_ZNKSt3__114default_deleteINS_18basic_stringstreamIcNS_11char_traitsIcEENS_9allocatorIcEEEEEclB7v170000EPS6_.exit.i.i.i1039 ]
  call void @llvm.lifetime.end.p0(i64 8, ptr nonnull %ref.tmp185) #22
  call void @_ZN7testing15AssertionResultD2Ev(ptr noundef nonnull align 8 dereferenceable(16) %gtest_ar168) #22
  br label %ehcleanup201

if.end199:                                        ; preds = %_ZNSt3__112basic_stringIcNS_11char_traitsIcEENS_9allocatorIcEEED2Ev.exit1012, %_ZN7testing7MessageD2Ev.exit1035
  %message_.i1041 = getelementptr inbounds %"class.testing::AssertionResult", ptr %gtest_ar168, i64 0, i32 1
  %104 = load ptr, ptr %message_.i1041, align 8, !tbaa !21
  store ptr null, ptr %message_.i1041, align 8, !tbaa !21
  %tobool.not.i.i.i1042 = icmp eq ptr %104, null
  br i1 %tobool.not.i.i.i1042, label %_ZN7testing15AssertionResultD2Ev.exit1050, label %delete.notnull.i.i.i.i1046

delete.notnull.i.i.i.i1046:                       ; preds = %if.end199
  %bf.load.i.i.i.i.i.i1043 = load i8, ptr %104, align 8
  %bf.clear.i.i.i.i.i.i1044 = and i8 %bf.load.i.i.i.i.i.i1043, 1
  %tobool.i.not.i.i.i.i.i1045 = icmp eq i8 %bf.clear.i.i.i.i.i.i1044, 0
  br i1 %tobool.i.not.i.i.i.i.i1045, label %_ZNKSt3__114default_deleteINS_12basic_stringIcNS_11char_traitsIcEENS_9allocatorIcEEEEEclB7v170000EPS6_.exit.i.i.i1049, label %if.then.i.i.i.i.i1048

if.then.i.i.i.i.i1048:                            ; preds = %delete.notnull.i.i.i.i1046
  %__data_.i.i.i.i.i.i1047 = getelementptr inbounds %"struct.std::__1::basic_string<char>::__long", ptr %104, i64 0, i32 2
  %105 = load ptr, ptr %__data_.i.i.i.i.i.i1047, align 8, !tbaa !11
  call void @_ZdlPv(ptr noundef %105) #23
  br label %_ZNKSt3__114default_deleteINS_12basic_stringIcNS_11char_traitsIcEENS_9allocatorIcEEEEEclB7v170000EPS6_.exit.i.i.i1049

_ZNKSt3__114default_deleteINS_12basic_stringIcNS_11char_traitsIcEENS_9allocatorIcEEEEEclB7v170000EPS6_.exit.i.i.i1049: ; preds = %if.then.i.i.i.i.i1048, %delete.notnull.i.i.i.i1046
  call void @_ZdlPv(ptr noundef nonnull %104) #23
  br label %_ZN7testing15AssertionResultD2Ev.exit1050

_ZN7testing15AssertionResultD2Ev.exit1050:        ; preds = %if.end199, %_ZNKSt3__114default_deleteINS_12basic_stringIcNS_11char_traitsIcEENS_9allocatorIcEEEEEclB7v170000EPS6_.exit.i.i.i1049
  call void @llvm.lifetime.end.p0(i64 16, ptr nonnull %gtest_ar168) #22
  call void @llvm.lifetime.start.p0(i64 16, ptr nonnull %gtest_ar202) #22
  call void @llvm.lifetime.start.p0(i64 8, ptr nonnull %ref.tmp203) #22
  store i64 20, ptr %ref.tmp203, align 8, !tbaa !8
  %106 = load i64, ptr %pos167, align 8, !tbaa !8, !noalias !52
  %cmp.i.i1051 = icmp eq i64 %106, 20
  br i1 %cmp.i.i1051, label %if.then.i.i1052, label %if.end.i.i1053

if.then.i.i1052:                                  ; preds = %_ZN7testing15AssertionResultD2Ev.exit1050
  call void @_ZN7testing16AssertionSuccessEv(ptr nonnull sret(%"class.testing::AssertionResult") align 8 %gtest_ar202)
  br label %_ZN7testing8internal8EqHelper7CompareImmLPv0EEENS_15AssertionResultEPKcS6_RKT_RKT0_.exit1054

if.end.i.i1053:                                   ; preds = %_ZN7testing15AssertionResultD2Ev.exit1050
  call void @_ZN7testing8internal18CmpHelperEQFailureImmEENS_15AssertionResultEPKcS4_RKT_RKT0_(ptr nonnull sret(%"class.testing::AssertionResult") align 8 %gtest_ar202, ptr noundef nonnull @.str.25, ptr noundef nonnull @.str.14, ptr noundef nonnull align 8 dereferenceable(8) %ref.tmp203, ptr noundef nonnull align 8 dereferenceable(8) %pos167)
  br label %_ZN7testing8internal8EqHelper7CompareImmLPv0EEENS_15AssertionResultEPKcS6_RKT_RKT0_.exit1054

_ZN7testing8internal8EqHelper7CompareImmLPv0EEENS_15AssertionResultEPKcS6_RKT_RKT0_.exit1054: ; preds = %if.then.i.i1052, %if.end.i.i1053
  call void @llvm.lifetime.end.p0(i64 8, ptr nonnull %ref.tmp203) #22
  %107 = load i8, ptr %gtest_ar202, align 8, !tbaa !12, !range !19, !noundef !20
  %tobool.i1055.not = icmp eq i8 %107, 0
  br i1 %tobool.i1055.not, label %if.else208, label %if.end223

ehcleanup201:                                     ; preds = %ehcleanup198, %_ZNSt3__112basic_stringIcNS_11char_traitsIcEENS_9allocatorIcEEED2Ev.exit1019
  %.pn645.pn.pn = phi { ptr, i32 } [ %.pn645.pn, %ehcleanup198 ], [ %93, %_ZNSt3__112basic_stringIcNS_11char_traitsIcEENS_9allocatorIcEEED2Ev.exit1019 ]
  call void @llvm.lifetime.end.p0(i64 16, ptr nonnull %gtest_ar168) #22
  br label %ehcleanup226

if.else208:                                       ; preds = %_ZN7testing8internal8EqHelper7CompareImmLPv0EEENS_15AssertionResultEPKcS6_RKT_RKT0_.exit1054
  call void @llvm.lifetime.start.p0(i64 8, ptr nonnull %ref.tmp209) #22
  invoke void @_ZN7testing7MessageC1Ev(ptr noundef nonnull align 8 dereferenceable(8) %ref.tmp209)
          to label %invoke.cont211 unwind label %lpad210

invoke.cont211:                                   ; preds = %if.else208
  call void @llvm.lifetime.start.p0(i64 8, ptr nonnull %ref.tmp212) #22
  %message_.i.i1056 = getelementptr inbounds %"class.testing::AssertionResult", ptr %gtest_ar202, i64 0, i32 1
  %108 = load ptr, ptr %message_.i.i1056, align 8, !tbaa !21
  %cmp.not.i.i1057 = icmp eq ptr %108, null
  br i1 %cmp.not.i.i1057, label %invoke.cont214, label %cond.true.i.i1064

cond.true.i.i1064:                                ; preds = %invoke.cont211
  %bf.load.i.i.i.i.i.i1058 = load i8, ptr %108, align 8
  %bf.clear.i.i.i.i.i.i1059 = and i8 %bf.load.i.i.i.i.i.i1058, 1
  %tobool.i.not.i.i.i.i.i1060 = icmp eq i8 %bf.clear.i.i.i.i.i.i1059, 0
  %__data_.i.i.i.i.i.i1061 = getelementptr inbounds %"struct.std::__1::basic_string<char>::__long", ptr %108, i64 0, i32 2
  %109 = load ptr, ptr %__data_.i.i.i.i.i.i1061, align 8
  %__data_.i4.i.i.i.i.i1062 = getelementptr inbounds %"struct.std::__1::basic_string<char>::__short", ptr %108, i64 0, i32 2
  %cond.i.i.i.i.i1063 = select i1 %tobool.i.not.i.i.i.i.i1060, ptr %__data_.i4.i.i.i.i.i1062, ptr %109
  br label %invoke.cont214

invoke.cont214:                                   ; preds = %cond.true.i.i1064, %invoke.cont211
  %cond.i.i1065 = phi ptr [ %cond.i.i.i.i.i1063, %cond.true.i.i1064 ], [ @.str.46, %invoke.cont211 ]
  invoke void @_ZN7testing8internal12AssertHelperC1ENS_14TestPartResult4TypeEPKciS5_(ptr noundef nonnull align 8 dereferenceable(8) %ref.tmp212, i32 noundef 1, ptr noundef nonnull @.str.3, i32 noundef 37, ptr noundef %cond.i.i1065)
          to label %invoke.cont216 unwind label %lpad213

invoke.cont216:                                   ; preds = %invoke.cont214
  invoke void @_ZNK7testing8internal12AssertHelperaSERKNS_7MessageE(ptr noundef nonnull align 8 dereferenceable(8) %ref.tmp212, ptr noundef nonnull align 8 dereferenceable(8) %ref.tmp209)
          to label %invoke.cont218 unwind label %lpad217

invoke.cont218:                                   ; preds = %invoke.cont216
  call void @_ZN7testing8internal12AssertHelperD1Ev(ptr noundef nonnull align 8 dereferenceable(8) %ref.tmp212) #22
  call void @llvm.lifetime.end.p0(i64 8, ptr nonnull %ref.tmp212) #22
  %110 = load ptr, ptr %ref.tmp209, align 8, !tbaa !21
  store ptr null, ptr %ref.tmp209, align 8, !tbaa !21
  %tobool.not.i.i.i1067 = icmp eq ptr %110, null
  br i1 %tobool.not.i.i.i1067, label %_ZN7testing7MessageD2Ev.exit1071, label %_ZNKSt3__114default_deleteINS_18basic_stringstreamIcNS_11char_traitsIcEENS_9allocatorIcEEEEEclB7v170000EPS6_.exit.i.i.i1070

_ZNKSt3__114default_deleteINS_18basic_stringstreamIcNS_11char_traitsIcEENS_9allocatorIcEEEEEclB7v170000EPS6_.exit.i.i.i1070: ; preds = %invoke.cont218
  %vtable.i.i.i.i1068 = load ptr, ptr %110, align 8, !tbaa !5
  %vfn.i.i.i.i1069 = getelementptr inbounds ptr, ptr %vtable.i.i.i.i1068, i64 1
  %111 = load ptr, ptr %vfn.i.i.i.i1069, align 8
  call void %111(ptr noundef nonnull align 8 dereferenceable(128) %110) #22
  br label %_ZN7testing7MessageD2Ev.exit1071

_ZN7testing7MessageD2Ev.exit1071:                 ; preds = %invoke.cont218, %_ZNKSt3__114default_deleteINS_18basic_stringstreamIcNS_11char_traitsIcEENS_9allocatorIcEEEEEclB7v170000EPS6_.exit.i.i.i1070
  call void @llvm.lifetime.end.p0(i64 8, ptr nonnull %ref.tmp209) #22
  br label %if.end223

lpad210:                                          ; preds = %if.else208
  %112 = landingpad { ptr, i32 }
          cleanup
  br label %ehcleanup222

lpad213:                                          ; preds = %invoke.cont214
  %113 = landingpad { ptr, i32 }
          cleanup
  br label %ehcleanup220

lpad217:                                          ; preds = %invoke.cont216
  %114 = landingpad { ptr, i32 }
          cleanup
  call void @_ZN7testing8internal12AssertHelperD1Ev(ptr noundef nonnull align 8 dereferenceable(8) %ref.tmp212) #22
  br label %ehcleanup220

ehcleanup220:                                     ; preds = %lpad217, %lpad213
  %.pn649 = phi { ptr, i32 } [ %114, %lpad217 ], [ %113, %lpad213 ]
  call void @llvm.lifetime.end.p0(i64 8, ptr nonnull %ref.tmp212) #22
  %115 = load ptr, ptr %ref.tmp209, align 8, !tbaa !21
  store ptr null, ptr %ref.tmp209, align 8, !tbaa !21
  %tobool.not.i.i.i1072 = icmp eq ptr %115, null
  br i1 %tobool.not.i.i.i1072, label %ehcleanup222, label %_ZNKSt3__114default_deleteINS_18basic_stringstreamIcNS_11char_traitsIcEENS_9allocatorIcEEEEEclB7v170000EPS6_.exit.i.i.i1075

_ZNKSt3__114default_deleteINS_18basic_stringstreamIcNS_11char_traitsIcEENS_9allocatorIcEEEEEclB7v170000EPS6_.exit.i.i.i1075: ; preds = %ehcleanup220
  %vtable.i.i.i.i1073 = load ptr, ptr %115, align 8, !tbaa !5
  %vfn.i.i.i.i1074 = getelementptr inbounds ptr, ptr %vtable.i.i.i.i1073, i64 1
  %116 = load ptr, ptr %vfn.i.i.i.i1074, align 8
  call void %116(ptr noundef nonnull align 8 dereferenceable(128) %115) #22
  br label %ehcleanup222

ehcleanup222:                                     ; preds = %_ZNKSt3__114default_deleteINS_18basic_stringstreamIcNS_11char_traitsIcEENS_9allocatorIcEEEEEclB7v170000EPS6_.exit.i.i.i1075, %ehcleanup220, %lpad210
  %.pn649.pn = phi { ptr, i32 } [ %112, %lpad210 ], [ %.pn649, %ehcleanup220 ], [ %.pn649, %_ZNKSt3__114default_deleteINS_18basic_stringstreamIcNS_11char_traitsIcEENS_9allocatorIcEEEEEclB7v170000EPS6_.exit.i.i.i1075 ]
  call void @llvm.lifetime.end.p0(i64 8, ptr nonnull %ref.tmp209) #22
  call void @_ZN7testing15AssertionResultD2Ev(ptr noundef nonnull align 8 dereferenceable(16) %gtest_ar202) #22
  call void @llvm.lifetime.end.p0(i64 16, ptr nonnull %gtest_ar202) #22
  br label %ehcleanup226

if.end223:                                        ; preds = %_ZN7testing8internal8EqHelper7CompareImmLPv0EEENS_15AssertionResultEPKcS6_RKT_RKT0_.exit1054, %_ZN7testing7MessageD2Ev.exit1071
  %message_.i1077 = getelementptr inbounds %"class.testing::AssertionResult", ptr %gtest_ar202, i64 0, i32 1
  %117 = load ptr, ptr %message_.i1077, align 8, !tbaa !21
  store ptr null, ptr %message_.i1077, align 8, !tbaa !21
  %tobool.not.i.i.i1078 = icmp eq ptr %117, null
  br i1 %tobool.not.i.i.i1078, label %_ZN7testing15AssertionResultD2Ev.exit1086, label %delete.notnull.i.i.i.i1082

delete.notnull.i.i.i.i1082:                       ; preds = %if.end223
  %bf.load.i.i.i.i.i.i1079 = load i8, ptr %117, align 8
  %bf.clear.i.i.i.i.i.i1080 = and i8 %bf.load.i.i.i.i.i.i1079, 1
  %tobool.i.not.i.i.i.i.i1081 = icmp eq i8 %bf.clear.i.i.i.i.i.i1080, 0
  br i1 %tobool.i.not.i.i.i.i.i1081, label %_ZNKSt3__114default_deleteINS_12basic_stringIcNS_11char_traitsIcEENS_9allocatorIcEEEEEclB7v170000EPS6_.exit.i.i.i1085, label %if.then.i.i.i.i.i1084

if.then.i.i.i.i.i1084:                            ; preds = %delete.notnull.i.i.i.i1082
  %__data_.i.i.i.i.i.i1083 = getelementptr inbounds %"struct.std::__1::basic_string<char>::__long", ptr %117, i64 0, i32 2
  %118 = load ptr, ptr %__data_.i.i.i.i.i.i1083, align 8, !tbaa !11
  call void @_ZdlPv(ptr noundef %118) #23
  br label %_ZNKSt3__114default_deleteINS_12basic_stringIcNS_11char_traitsIcEENS_9allocatorIcEEEEEclB7v170000EPS6_.exit.i.i.i1085

_ZNKSt3__114default_deleteINS_12basic_stringIcNS_11char_traitsIcEENS_9allocatorIcEEEEEclB7v170000EPS6_.exit.i.i.i1085: ; preds = %if.then.i.i.i.i.i1084, %delete.notnull.i.i.i.i1082
  call void @_ZdlPv(ptr noundef nonnull %117) #23
  br label %_ZN7testing15AssertionResultD2Ev.exit1086

_ZN7testing15AssertionResultD2Ev.exit1086:        ; preds = %if.end223, %_ZNKSt3__114default_deleteINS_12basic_stringIcNS_11char_traitsIcEENS_9allocatorIcEEEEEclB7v170000EPS6_.exit.i.i.i1085
  call void @llvm.lifetime.end.p0(i64 16, ptr nonnull %gtest_ar202) #22
  call void @llvm.lifetime.end.p0(i64 8, ptr nonnull %pos167) #22
  call void @llvm.lifetime.start.p0(i64 8, ptr nonnull %pos227) #22
  store i64 0, ptr %pos227, align 8, !tbaa !8
  call void @llvm.lifetime.start.p0(i64 16, ptr nonnull %gtest_ar228) #22
  call void @llvm.lifetime.start.p0(i64 8, ptr nonnull %ref.tmp229) #22
  store i64 10, ptr %ref.tmp229, align 8, !tbaa !8
  call void @llvm.lifetime.start.p0(i64 8, ptr nonnull %ref.tmp230) #22
  call void @llvm.lifetime.start.p0(i64 24, ptr nonnull %ref.tmp231) #22
  store i8 8, ptr %ref.tmp231, align 8
  %__data_.i.i.i1094 = getelementptr inbounds %"struct.std::__1::basic_string<char>::__short", ptr %ref.tmp231, i64 0, i32 2
  %cmp.i24.i.i1104 = icmp ugt ptr %__data_.i.i.i1094, @.str.28
  %add.ptr.i.i.i1105 = getelementptr inbounds %"struct.std::__1::basic_string<char>::__short", ptr %ref.tmp231, i64 0, i32 2, i64 4
  %cmp1.i.i.i1106 = icmp ule ptr %add.ptr.i.i.i1105, @.str.28
  %119 = or i1 %cmp.i24.i.i1104, %cmp1.i.i.i1106
  call void @llvm.assume(i1 %119)
  store i32 808529969, ptr %__data_.i.i.i1094, align 1
  store i8 0, ptr %add.ptr.i.i.i1105, align 1, !tbaa !11
  %call234 = invoke noundef i64 @_ZNSt3__15stoulERKNS_12basic_stringIcNS_11char_traitsIcEENS_9allocatorIcEEEEPmi(ptr noundef nonnull align 8 dereferenceable(24) %ref.tmp231, ptr noundef nonnull %pos227, i32 noundef 2)
          to label %invoke.cont233 unwind label %lpad232

invoke.cont233:                                   ; preds = %_ZN7testing15AssertionResultD2Ev.exit1086
  store i64 %call234, ptr %ref.tmp230, align 8, !tbaa !8
  %120 = load i64, ptr %ref.tmp229, align 8, !tbaa !8, !noalias !57
  %cmp.i.i1108 = icmp eq i64 %120, %call234
  br i1 %cmp.i.i1108, label %if.then.i.i1109, label %if.end.i.i1110

if.then.i.i1109:                                  ; preds = %invoke.cont233
  invoke void @_ZN7testing16AssertionSuccessEv(ptr nonnull sret(%"class.testing::AssertionResult") align 8 %gtest_ar228)
          to label %invoke.cont235 unwind label %lpad232

if.end.i.i1110:                                   ; preds = %invoke.cont233
  invoke void @_ZN7testing8internal18CmpHelperEQFailureImmEENS_15AssertionResultEPKcS4_RKT_RKT0_(ptr nonnull sret(%"class.testing::AssertionResult") align 8 %gtest_ar228, ptr noundef nonnull @.str.26, ptr noundef nonnull @.str.27, ptr noundef nonnull align 8 dereferenceable(8) %ref.tmp229, ptr noundef nonnull align 8 dereferenceable(8) %ref.tmp230)
          to label %invoke.cont235 unwind label %lpad232

invoke.cont235:                                   ; preds = %if.then.i.i1109, %if.end.i.i1110
  %bf.load.i.i1114 = load i8, ptr %ref.tmp231, align 8
  %bf.clear.i.i1115 = and i8 %bf.load.i.i1114, 1
  %tobool.i.not.i1116 = icmp eq i8 %bf.clear.i.i1115, 0
  br i1 %tobool.i.not.i1116, label %_ZNSt3__112basic_stringIcNS_11char_traitsIcEENS_9allocatorIcEEED2Ev.exit1119, label %if.then.i1118

if.then.i1118:                                    ; preds = %invoke.cont235
  %__data_.i.i1117 = getelementptr inbounds %"struct.std::__1::basic_string<char>::__long", ptr %ref.tmp231, i64 0, i32 2
  %121 = load ptr, ptr %__data_.i.i1117, align 8, !tbaa !11
  call void @_ZdlPv(ptr noundef %121) #23
  br label %_ZNSt3__112basic_stringIcNS_11char_traitsIcEENS_9allocatorIcEEED2Ev.exit1119

_ZNSt3__112basic_stringIcNS_11char_traitsIcEENS_9allocatorIcEEED2Ev.exit1119: ; preds = %invoke.cont235, %if.then.i1118
  call void @llvm.lifetime.end.p0(i64 24, ptr nonnull %ref.tmp231) #22
  call void @llvm.lifetime.end.p0(i64 8, ptr nonnull %ref.tmp230) #22
  call void @llvm.lifetime.end.p0(i64 8, ptr nonnull %ref.tmp229) #22
  %122 = load i8, ptr %gtest_ar228, align 8, !tbaa !12, !range !19, !noundef !20
  %tobool.i1120.not = icmp eq i8 %122, 0
  br i1 %tobool.i1120.not, label %if.else244, label %if.end259

ehcleanup226:                                     ; preds = %ehcleanup222, %ehcleanup201
  %.pn649.pn.pn = phi { ptr, i32 } [ %.pn649.pn, %ehcleanup222 ], [ %.pn645.pn.pn, %ehcleanup201 ]
  call void @llvm.lifetime.end.p0(i64 8, ptr nonnull %pos167) #22
  br label %eh.resume

lpad232:                                          ; preds = %if.end.i.i1110, %if.then.i.i1109, %_ZN7testing15AssertionResultD2Ev.exit1086
  %123 = landingpad { ptr, i32 }
          cleanup
  %bf.load.i.i1121 = load i8, ptr %ref.tmp231, align 8
  %bf.clear.i.i1122 = and i8 %bf.load.i.i1121, 1
  %tobool.i.not.i1123 = icmp eq i8 %bf.clear.i.i1122, 0
  br i1 %tobool.i.not.i1123, label %_ZNSt3__112basic_stringIcNS_11char_traitsIcEENS_9allocatorIcEEED2Ev.exit1126, label %if.then.i1125

if.then.i1125:                                    ; preds = %lpad232
  %__data_.i.i1124 = getelementptr inbounds %"struct.std::__1::basic_string<char>::__long", ptr %ref.tmp231, i64 0, i32 2
  %124 = load ptr, ptr %__data_.i.i1124, align 8, !tbaa !11
  call void @_ZdlPv(ptr noundef %124) #23
  br label %_ZNSt3__112basic_stringIcNS_11char_traitsIcEENS_9allocatorIcEEED2Ev.exit1126

_ZNSt3__112basic_stringIcNS_11char_traitsIcEENS_9allocatorIcEEED2Ev.exit1126: ; preds = %lpad232, %if.then.i1125
  call void @llvm.lifetime.end.p0(i64 24, ptr nonnull %ref.tmp231) #22
  call void @llvm.lifetime.end.p0(i64 8, ptr nonnull %ref.tmp230) #22
  call void @llvm.lifetime.end.p0(i64 8, ptr nonnull %ref.tmp229) #22
  br label %ehcleanup261

if.else244:                                       ; preds = %_ZNSt3__112basic_stringIcNS_11char_traitsIcEENS_9allocatorIcEEED2Ev.exit1119
  call void @llvm.lifetime.start.p0(i64 8, ptr nonnull %ref.tmp245) #22
  invoke void @_ZN7testing7MessageC1Ev(ptr noundef nonnull align 8 dereferenceable(8) %ref.tmp245)
          to label %invoke.cont247 unwind label %lpad246

invoke.cont247:                                   ; preds = %if.else244
  call void @llvm.lifetime.start.p0(i64 8, ptr nonnull %ref.tmp248) #22
  %message_.i.i1127 = getelementptr inbounds %"class.testing::AssertionResult", ptr %gtest_ar228, i64 0, i32 1
  %125 = load ptr, ptr %message_.i.i1127, align 8, !tbaa !21
  %cmp.not.i.i1128 = icmp eq ptr %125, null
  br i1 %cmp.not.i.i1128, label %invoke.cont250, label %cond.true.i.i1135

cond.true.i.i1135:                                ; preds = %invoke.cont247
  %bf.load.i.i.i.i.i.i1129 = load i8, ptr %125, align 8
  %bf.clear.i.i.i.i.i.i1130 = and i8 %bf.load.i.i.i.i.i.i1129, 1
  %tobool.i.not.i.i.i.i.i1131 = icmp eq i8 %bf.clear.i.i.i.i.i.i1130, 0
  %__data_.i.i.i.i.i.i1132 = getelementptr inbounds %"struct.std::__1::basic_string<char>::__long", ptr %125, i64 0, i32 2
  %126 = load ptr, ptr %__data_.i.i.i.i.i.i1132, align 8
  %__data_.i4.i.i.i.i.i1133 = getelementptr inbounds %"struct.std::__1::basic_string<char>::__short", ptr %125, i64 0, i32 2
  %cond.i.i.i.i.i1134 = select i1 %tobool.i.not.i.i.i.i.i1131, ptr %__data_.i4.i.i.i.i.i1133, ptr %126
  br label %invoke.cont250

invoke.cont250:                                   ; preds = %cond.true.i.i1135, %invoke.cont247
  %cond.i.i1136 = phi ptr [ %cond.i.i.i.i.i1134, %cond.true.i.i1135 ], [ @.str.46, %invoke.cont247 ]
  invoke void @_ZN7testing8internal12AssertHelperC1ENS_14TestPartResult4TypeEPKciS5_(ptr noundef nonnull align 8 dereferenceable(8) %ref.tmp248, i32 noundef 1, ptr noundef nonnull @.str.3, i32 noundef 42, ptr noundef %cond.i.i1136)
          to label %invoke.cont252 unwind label %lpad249

invoke.cont252:                                   ; preds = %invoke.cont250
  invoke void @_ZNK7testing8internal12AssertHelperaSERKNS_7MessageE(ptr noundef nonnull align 8 dereferenceable(8) %ref.tmp248, ptr noundef nonnull align 8 dereferenceable(8) %ref.tmp245)
          to label %invoke.cont254 unwind label %lpad253

invoke.cont254:                                   ; preds = %invoke.cont252
  call void @_ZN7testing8internal12AssertHelperD1Ev(ptr noundef nonnull align 8 dereferenceable(8) %ref.tmp248) #22
  call void @llvm.lifetime.end.p0(i64 8, ptr nonnull %ref.tmp248) #22
  %127 = load ptr, ptr %ref.tmp245, align 8, !tbaa !21
  store ptr null, ptr %ref.tmp245, align 8, !tbaa !21
  %tobool.not.i.i.i1138 = icmp eq ptr %127, null
  br i1 %tobool.not.i.i.i1138, label %_ZN7testing7MessageD2Ev.exit1142, label %_ZNKSt3__114default_deleteINS_18basic_stringstreamIcNS_11char_traitsIcEENS_9allocatorIcEEEEEclB7v170000EPS6_.exit.i.i.i1141

_ZNKSt3__114default_deleteINS_18basic_stringstreamIcNS_11char_traitsIcEENS_9allocatorIcEEEEEclB7v170000EPS6_.exit.i.i.i1141: ; preds = %invoke.cont254
  %vtable.i.i.i.i1139 = load ptr, ptr %127, align 8, !tbaa !5
  %vfn.i.i.i.i1140 = getelementptr inbounds ptr, ptr %vtable.i.i.i.i1139, i64 1
  %128 = load ptr, ptr %vfn.i.i.i.i1140, align 8
  call void %128(ptr noundef nonnull align 8 dereferenceable(128) %127) #22
  br label %_ZN7testing7MessageD2Ev.exit1142

_ZN7testing7MessageD2Ev.exit1142:                 ; preds = %invoke.cont254, %_ZNKSt3__114default_deleteINS_18basic_stringstreamIcNS_11char_traitsIcEENS_9allocatorIcEEEEEclB7v170000EPS6_.exit.i.i.i1141
  call void @llvm.lifetime.end.p0(i64 8, ptr nonnull %ref.tmp245) #22
  br label %if.end259

lpad246:                                          ; preds = %if.else244
  %129 = landingpad { ptr, i32 }
          cleanup
  br label %ehcleanup258

lpad249:                                          ; preds = %invoke.cont250
  %130 = landingpad { ptr, i32 }
          cleanup
  br label %ehcleanup256

lpad253:                                          ; preds = %invoke.cont252
  %131 = landingpad { ptr, i32 }
          cleanup
  call void @_ZN7testing8internal12AssertHelperD1Ev(ptr noundef nonnull align 8 dereferenceable(8) %ref.tmp248) #22
  br label %ehcleanup256

ehcleanup256:                                     ; preds = %lpad253, %lpad249
  %.pn653 = phi { ptr, i32 } [ %131, %lpad253 ], [ %130, %lpad249 ]
  call void @llvm.lifetime.end.p0(i64 8, ptr nonnull %ref.tmp248) #22
  %132 = load ptr, ptr %ref.tmp245, align 8, !tbaa !21
  store ptr null, ptr %ref.tmp245, align 8, !tbaa !21
  %tobool.not.i.i.i1143 = icmp eq ptr %132, null
  br i1 %tobool.not.i.i.i1143, label %ehcleanup258, label %_ZNKSt3__114default_deleteINS_18basic_stringstreamIcNS_11char_traitsIcEENS_9allocatorIcEEEEEclB7v170000EPS6_.exit.i.i.i1146

_ZNKSt3__114default_deleteINS_18basic_stringstreamIcNS_11char_traitsIcEENS_9allocatorIcEEEEEclB7v170000EPS6_.exit.i.i.i1146: ; preds = %ehcleanup256
  %vtable.i.i.i.i1144 = load ptr, ptr %132, align 8, !tbaa !5
  %vfn.i.i.i.i1145 = getelementptr inbounds ptr, ptr %vtable.i.i.i.i1144, i64 1
  %133 = load ptr, ptr %vfn.i.i.i.i1145, align 8
  call void %133(ptr noundef nonnull align 8 dereferenceable(128) %132) #22
  br label %ehcleanup258

ehcleanup258:                                     ; preds = %_ZNKSt3__114default_deleteINS_18basic_stringstreamIcNS_11char_traitsIcEENS_9allocatorIcEEEEEclB7v170000EPS6_.exit.i.i.i1146, %ehcleanup256, %lpad246
  %.pn653.pn = phi { ptr, i32 } [ %129, %lpad246 ], [ %.pn653, %ehcleanup256 ], [ %.pn653, %_ZNKSt3__114default_deleteINS_18basic_stringstreamIcNS_11char_traitsIcEENS_9allocatorIcEEEEEclB7v170000EPS6_.exit.i.i.i1146 ]
  call void @llvm.lifetime.end.p0(i64 8, ptr nonnull %ref.tmp245) #22
  call void @_ZN7testing15AssertionResultD2Ev(ptr noundef nonnull align 8 dereferenceable(16) %gtest_ar228) #22
  br label %ehcleanup261

if.end259:                                        ; preds = %_ZNSt3__112basic_stringIcNS_11char_traitsIcEENS_9allocatorIcEEED2Ev.exit1119, %_ZN7testing7MessageD2Ev.exit1142
  %message_.i1148 = getelementptr inbounds %"class.testing::AssertionResult", ptr %gtest_ar228, i64 0, i32 1
  %134 = load ptr, ptr %message_.i1148, align 8, !tbaa !21
  store ptr null, ptr %message_.i1148, align 8, !tbaa !21
  %tobool.not.i.i.i1149 = icmp eq ptr %134, null
  br i1 %tobool.not.i.i.i1149, label %_ZN7testing15AssertionResultD2Ev.exit1157, label %delete.notnull.i.i.i.i1153

delete.notnull.i.i.i.i1153:                       ; preds = %if.end259
  %bf.load.i.i.i.i.i.i1150 = load i8, ptr %134, align 8
  %bf.clear.i.i.i.i.i.i1151 = and i8 %bf.load.i.i.i.i.i.i1150, 1
  %tobool.i.not.i.i.i.i.i1152 = icmp eq i8 %bf.clear.i.i.i.i.i.i1151, 0
  br i1 %tobool.i.not.i.i.i.i.i1152, label %_ZNKSt3__114default_deleteINS_12basic_stringIcNS_11char_traitsIcEENS_9allocatorIcEEEEEclB7v170000EPS6_.exit.i.i.i1156, label %if.then.i.i.i.i.i1155

if.then.i.i.i.i.i1155:                            ; preds = %delete.notnull.i.i.i.i1153
  %__data_.i.i.i.i.i.i1154 = getelementptr inbounds %"struct.std::__1::basic_string<char>::__long", ptr %134, i64 0, i32 2
  %135 = load ptr, ptr %__data_.i.i.i.i.i.i1154, align 8, !tbaa !11
  call void @_ZdlPv(ptr noundef %135) #23
  br label %_ZNKSt3__114default_deleteINS_12basic_stringIcNS_11char_traitsIcEENS_9allocatorIcEEEEEclB7v170000EPS6_.exit.i.i.i1156

_ZNKSt3__114default_deleteINS_12basic_stringIcNS_11char_traitsIcEENS_9allocatorIcEEEEEclB7v170000EPS6_.exit.i.i.i1156: ; preds = %if.then.i.i.i.i.i1155, %delete.notnull.i.i.i.i1153
  call void @_ZdlPv(ptr noundef nonnull %134) #23
  br label %_ZN7testing15AssertionResultD2Ev.exit1157

_ZN7testing15AssertionResultD2Ev.exit1157:        ; preds = %if.end259, %_ZNKSt3__114default_deleteINS_12basic_stringIcNS_11char_traitsIcEENS_9allocatorIcEEEEEclB7v170000EPS6_.exit.i.i.i1156
  call void @llvm.lifetime.end.p0(i64 16, ptr nonnull %gtest_ar228) #22
  call void @llvm.lifetime.start.p0(i64 16, ptr nonnull %gtest_ar262) #22
  call void @llvm.lifetime.start.p0(i64 8, ptr nonnull %ref.tmp263) #22
  store i64 4, ptr %ref.tmp263, align 8, !tbaa !8
  %136 = load i64, ptr %pos227, align 8, !tbaa !8, !noalias !62
  %cmp.i.i1158 = icmp eq i64 %136, 4
  br i1 %cmp.i.i1158, label %if.then.i.i1159, label %if.end.i.i1160

if.then.i.i1159:                                  ; preds = %_ZN7testing15AssertionResultD2Ev.exit1157
  call void @_ZN7testing16AssertionSuccessEv(ptr nonnull sret(%"class.testing::AssertionResult") align 8 %gtest_ar262)
  br label %_ZN7testing8internal8EqHelper7CompareImmLPv0EEENS_15AssertionResultEPKcS6_RKT_RKT0_.exit1161

if.end.i.i1160:                                   ; preds = %_ZN7testing15AssertionResultD2Ev.exit1157
  call void @_ZN7testing8internal18CmpHelperEQFailureImmEENS_15AssertionResultEPKcS4_RKT_RKT0_(ptr nonnull sret(%"class.testing::AssertionResult") align 8 %gtest_ar262, ptr noundef nonnull @.str.29, ptr noundef nonnull @.str.14, ptr noundef nonnull align 8 dereferenceable(8) %ref.tmp263, ptr noundef nonnull align 8 dereferenceable(8) %pos227)
  br label %_ZN7testing8internal8EqHelper7CompareImmLPv0EEENS_15AssertionResultEPKcS6_RKT_RKT0_.exit1161

_ZN7testing8internal8EqHelper7CompareImmLPv0EEENS_15AssertionResultEPKcS6_RKT_RKT0_.exit1161: ; preds = %if.then.i.i1159, %if.end.i.i1160
  call void @llvm.lifetime.end.p0(i64 8, ptr nonnull %ref.tmp263) #22
  %137 = load i8, ptr %gtest_ar262, align 8, !tbaa !12, !range !19, !noundef !20
  %tobool.i1162.not = icmp eq i8 %137, 0
  br i1 %tobool.i1162.not, label %if.else268, label %if.end283

ehcleanup261:                                     ; preds = %ehcleanup258, %_ZNSt3__112basic_stringIcNS_11char_traitsIcEENS_9allocatorIcEEED2Ev.exit1126
  %.pn653.pn.pn = phi { ptr, i32 } [ %.pn653.pn, %ehcleanup258 ], [ %123, %_ZNSt3__112basic_stringIcNS_11char_traitsIcEENS_9allocatorIcEEED2Ev.exit1126 ]
  call void @llvm.lifetime.end.p0(i64 16, ptr nonnull %gtest_ar228) #22
  br label %ehcleanup286

if.else268:                                       ; preds = %_ZN7testing8internal8EqHelper7CompareImmLPv0EEENS_15AssertionResultEPKcS6_RKT_RKT0_.exit1161
  call void @llvm.lifetime.start.p0(i64 8, ptr nonnull %ref.tmp269) #22
  invoke void @_ZN7testing7MessageC1Ev(ptr noundef nonnull align 8 dereferenceable(8) %ref.tmp269)
          to label %invoke.cont271 unwind label %lpad270

invoke.cont271:                                   ; preds = %if.else268
  call void @llvm.lifetime.start.p0(i64 8, ptr nonnull %ref.tmp272) #22
  %message_.i.i1163 = getelementptr inbounds %"class.testing::AssertionResult", ptr %gtest_ar262, i64 0, i32 1
  %138 = load ptr, ptr %message_.i.i1163, align 8, !tbaa !21
  %cmp.not.i.i1164 = icmp eq ptr %138, null
  br i1 %cmp.not.i.i1164, label %invoke.cont274, label %cond.true.i.i1171

cond.true.i.i1171:                                ; preds = %invoke.cont271
  %bf.load.i.i.i.i.i.i1165 = load i8, ptr %138, align 8
  %bf.clear.i.i.i.i.i.i1166 = and i8 %bf.load.i.i.i.i.i.i1165, 1
  %tobool.i.not.i.i.i.i.i1167 = icmp eq i8 %bf.clear.i.i.i.i.i.i1166, 0
  %__data_.i.i.i.i.i.i1168 = getelementptr inbounds %"struct.std::__1::basic_string<char>::__long", ptr %138, i64 0, i32 2
  %139 = load ptr, ptr %__data_.i.i.i.i.i.i1168, align 8
  %__data_.i4.i.i.i.i.i1169 = getelementptr inbounds %"struct.std::__1::basic_string<char>::__short", ptr %138, i64 0, i32 2
  %cond.i.i.i.i.i1170 = select i1 %tobool.i.not.i.i.i.i.i1167, ptr %__data_.i4.i.i.i.i.i1169, ptr %139
  br label %invoke.cont274

invoke.cont274:                                   ; preds = %cond.true.i.i1171, %invoke.cont271
  %cond.i.i1172 = phi ptr [ %cond.i.i.i.i.i1170, %cond.true.i.i1171 ], [ @.str.46, %invoke.cont271 ]
  invoke void @_ZN7testing8internal12AssertHelperC1ENS_14TestPartResult4TypeEPKciS5_(ptr noundef nonnull align 8 dereferenceable(8) %ref.tmp272, i32 noundef 1, ptr noundef nonnull @.str.3, i32 noundef 43, ptr noundef %cond.i.i1172)
          to label %invoke.cont276 unwind label %lpad273

invoke.cont276:                                   ; preds = %invoke.cont274
  invoke void @_ZNK7testing8internal12AssertHelperaSERKNS_7MessageE(ptr noundef nonnull align 8 dereferenceable(8) %ref.tmp272, ptr noundef nonnull align 8 dereferenceable(8) %ref.tmp269)
          to label %invoke.cont278 unwind label %lpad277

invoke.cont278:                                   ; preds = %invoke.cont276
  call void @_ZN7testing8internal12AssertHelperD1Ev(ptr noundef nonnull align 8 dereferenceable(8) %ref.tmp272) #22
  call void @llvm.lifetime.end.p0(i64 8, ptr nonnull %ref.tmp272) #22
  %140 = load ptr, ptr %ref.tmp269, align 8, !tbaa !21
  store ptr null, ptr %ref.tmp269, align 8, !tbaa !21
  %tobool.not.i.i.i1174 = icmp eq ptr %140, null
  br i1 %tobool.not.i.i.i1174, label %_ZN7testing7MessageD2Ev.exit1178, label %_ZNKSt3__114default_deleteINS_18basic_stringstreamIcNS_11char_traitsIcEENS_9allocatorIcEEEEEclB7v170000EPS6_.exit.i.i.i1177

_ZNKSt3__114default_deleteINS_18basic_stringstreamIcNS_11char_traitsIcEENS_9allocatorIcEEEEEclB7v170000EPS6_.exit.i.i.i1177: ; preds = %invoke.cont278
  %vtable.i.i.i.i1175 = load ptr, ptr %140, align 8, !tbaa !5
  %vfn.i.i.i.i1176 = getelementptr inbounds ptr, ptr %vtable.i.i.i.i1175, i64 1
  %141 = load ptr, ptr %vfn.i.i.i.i1176, align 8
  call void %141(ptr noundef nonnull align 8 dereferenceable(128) %140) #22
  br label %_ZN7testing7MessageD2Ev.exit1178

_ZN7testing7MessageD2Ev.exit1178:                 ; preds = %invoke.cont278, %_ZNKSt3__114default_deleteINS_18basic_stringstreamIcNS_11char_traitsIcEENS_9allocatorIcEEEEEclB7v170000EPS6_.exit.i.i.i1177
  call void @llvm.lifetime.end.p0(i64 8, ptr nonnull %ref.tmp269) #22
  br label %if.end283

lpad270:                                          ; preds = %if.else268
  %142 = landingpad { ptr, i32 }
          cleanup
  br label %ehcleanup282

lpad273:                                          ; preds = %invoke.cont274
  %143 = landingpad { ptr, i32 }
          cleanup
  br label %ehcleanup280

lpad277:                                          ; preds = %invoke.cont276
  %144 = landingpad { ptr, i32 }
          cleanup
  call void @_ZN7testing8internal12AssertHelperD1Ev(ptr noundef nonnull align 8 dereferenceable(8) %ref.tmp272) #22
  br label %ehcleanup280

ehcleanup280:                                     ; preds = %lpad277, %lpad273
  %.pn657 = phi { ptr, i32 } [ %144, %lpad277 ], [ %143, %lpad273 ]
  call void @llvm.lifetime.end.p0(i64 8, ptr nonnull %ref.tmp272) #22
  %145 = load ptr, ptr %ref.tmp269, align 8, !tbaa !21
  store ptr null, ptr %ref.tmp269, align 8, !tbaa !21
  %tobool.not.i.i.i1179 = icmp eq ptr %145, null
  br i1 %tobool.not.i.i.i1179, label %ehcleanup282, label %_ZNKSt3__114default_deleteINS_18basic_stringstreamIcNS_11char_traitsIcEENS_9allocatorIcEEEEEclB7v170000EPS6_.exit.i.i.i1182

_ZNKSt3__114default_deleteINS_18basic_stringstreamIcNS_11char_traitsIcEENS_9allocatorIcEEEEEclB7v170000EPS6_.exit.i.i.i1182: ; preds = %ehcleanup280
  %vtable.i.i.i.i1180 = load ptr, ptr %145, align 8, !tbaa !5
  %vfn.i.i.i.i1181 = getelementptr inbounds ptr, ptr %vtable.i.i.i.i1180, i64 1
  %146 = load ptr, ptr %vfn.i.i.i.i1181, align 8
  call void %146(ptr noundef nonnull align 8 dereferenceable(128) %145) #22
  br label %ehcleanup282

ehcleanup282:                                     ; preds = %_ZNKSt3__114default_deleteINS_18basic_stringstreamIcNS_11char_traitsIcEENS_9allocatorIcEEEEEclB7v170000EPS6_.exit.i.i.i1182, %ehcleanup280, %lpad270
  %.pn657.pn = phi { ptr, i32 } [ %142, %lpad270 ], [ %.pn657, %ehcleanup280 ], [ %.pn657, %_ZNKSt3__114default_deleteINS_18basic_stringstreamIcNS_11char_traitsIcEENS_9allocatorIcEEEEEclB7v170000EPS6_.exit.i.i.i1182 ]
  call void @llvm.lifetime.end.p0(i64 8, ptr nonnull %ref.tmp269) #22
  call void @_ZN7testing15AssertionResultD2Ev(ptr noundef nonnull align 8 dereferenceable(16) %gtest_ar262) #22
  call void @llvm.lifetime.end.p0(i64 16, ptr nonnull %gtest_ar262) #22
  br label %ehcleanup286

if.end283:                                        ; preds = %_ZN7testing8internal8EqHelper7CompareImmLPv0EEENS_15AssertionResultEPKcS6_RKT_RKT0_.exit1161, %_ZN7testing7MessageD2Ev.exit1178
  %message_.i1184 = getelementptr inbounds %"class.testing::AssertionResult", ptr %gtest_ar262, i64 0, i32 1
  %147 = load ptr, ptr %message_.i1184, align 8, !tbaa !21
  store ptr null, ptr %message_.i1184, align 8, !tbaa !21
  %tobool.not.i.i.i1185 = icmp eq ptr %147, null
  br i1 %tobool.not.i.i.i1185, label %_ZN7testing15AssertionResultD2Ev.exit1193, label %delete.notnull.i.i.i.i1189

delete.notnull.i.i.i.i1189:                       ; preds = %if.end283
  %bf.load.i.i.i.i.i.i1186 = load i8, ptr %147, align 8
  %bf.clear.i.i.i.i.i.i1187 = and i8 %bf.load.i.i.i.i.i.i1186, 1
  %tobool.i.not.i.i.i.i.i1188 = icmp eq i8 %bf.clear.i.i.i.i.i.i1187, 0
  br i1 %tobool.i.not.i.i.i.i.i1188, label %_ZNKSt3__114default_deleteINS_12basic_stringIcNS_11char_traitsIcEENS_9allocatorIcEEEEEclB7v170000EPS6_.exit.i.i.i1192, label %if.then.i.i.i.i.i1191

if.then.i.i.i.i.i1191:                            ; preds = %delete.notnull.i.i.i.i1189
  %__data_.i.i.i.i.i.i1190 = getelementptr inbounds %"struct.std::__1::basic_string<char>::__long", ptr %147, i64 0, i32 2
  %148 = load ptr, ptr %__data_.i.i.i.i.i.i1190, align 8, !tbaa !11
  call void @_ZdlPv(ptr noundef %148) #23
  br label %_ZNKSt3__114default_deleteINS_12basic_stringIcNS_11char_traitsIcEENS_9allocatorIcEEEEEclB7v170000EPS6_.exit.i.i.i1192

_ZNKSt3__114default_deleteINS_12basic_stringIcNS_11char_traitsIcEENS_9allocatorIcEEEEEclB7v170000EPS6_.exit.i.i.i1192: ; preds = %if.then.i.i.i.i.i1191, %delete.notnull.i.i.i.i1189
  call void @_ZdlPv(ptr noundef nonnull %147) #23
  br label %_ZN7testing15AssertionResultD2Ev.exit1193

_ZN7testing15AssertionResultD2Ev.exit1193:        ; preds = %if.end283, %_ZNKSt3__114default_deleteINS_12basic_stringIcNS_11char_traitsIcEENS_9allocatorIcEEEEEclB7v170000EPS6_.exit.i.i.i1192
  call void @llvm.lifetime.end.p0(i64 16, ptr nonnull %gtest_ar262) #22
  call void @llvm.lifetime.end.p0(i64 8, ptr nonnull %pos227) #22
  call void @llvm.lifetime.start.p0(i64 8, ptr nonnull %pos287) #22
  store i64 0, ptr %pos287, align 8, !tbaa !8
  call void @llvm.lifetime.start.p0(i64 16, ptr nonnull %gtest_ar288) #22
  call void @llvm.lifetime.start.p0(i64 8, ptr nonnull %ref.tmp289) #22
  store i64 520, ptr %ref.tmp289, align 8, !tbaa !8
  call void @llvm.lifetime.start.p0(i64 8, ptr nonnull %ref.tmp290) #22
  call void @llvm.lifetime.start.p0(i64 24, ptr nonnull %ref.tmp291) #22
  store i8 8, ptr %ref.tmp291, align 8
  %__data_.i.i.i1201 = getelementptr inbounds %"struct.std::__1::basic_string<char>::__short", ptr %ref.tmp291, i64 0, i32 2
  %cmp.i24.i.i1211 = icmp ugt ptr %__data_.i.i.i1201, @.str.28
  %add.ptr.i.i.i1212 = getelementptr inbounds %"struct.std::__1::basic_string<char>::__short", ptr %ref.tmp291, i64 0, i32 2, i64 4
  %cmp1.i.i.i1213 = icmp ule ptr %add.ptr.i.i.i1212, @.str.28
  %149 = or i1 %cmp.i24.i.i1211, %cmp1.i.i.i1213
  call void @llvm.assume(i1 %149)
  store i32 808529969, ptr %__data_.i.i.i1201, align 1
  store i8 0, ptr %add.ptr.i.i.i1212, align 1, !tbaa !11
  %call294 = invoke noundef i64 @_ZNSt3__15stoulERKNS_12basic_stringIcNS_11char_traitsIcEENS_9allocatorIcEEEEPmi(ptr noundef nonnull align 8 dereferenceable(24) %ref.tmp291, ptr noundef nonnull %pos287, i32 noundef 8)
          to label %invoke.cont293 unwind label %lpad292

invoke.cont293:                                   ; preds = %_ZN7testing15AssertionResultD2Ev.exit1193
  store i64 %call294, ptr %ref.tmp290, align 8, !tbaa !8
  %150 = load i64, ptr %ref.tmp289, align 8, !tbaa !8, !noalias !67
  %cmp.i.i1215 = icmp eq i64 %150, %call294
  br i1 %cmp.i.i1215, label %if.then.i.i1216, label %if.end.i.i1217

if.then.i.i1216:                                  ; preds = %invoke.cont293
  invoke void @_ZN7testing16AssertionSuccessEv(ptr nonnull sret(%"class.testing::AssertionResult") align 8 %gtest_ar288)
          to label %invoke.cont295 unwind label %lpad292

if.end.i.i1217:                                   ; preds = %invoke.cont293
  invoke void @_ZN7testing8internal18CmpHelperEQFailureImmEENS_15AssertionResultEPKcS4_RKT_RKT0_(ptr nonnull sret(%"class.testing::AssertionResult") align 8 %gtest_ar288, ptr noundef nonnull @.str.30, ptr noundef nonnull @.str.31, ptr noundef nonnull align 8 dereferenceable(8) %ref.tmp289, ptr noundef nonnull align 8 dereferenceable(8) %ref.tmp290)
          to label %invoke.cont295 unwind label %lpad292

invoke.cont295:                                   ; preds = %if.then.i.i1216, %if.end.i.i1217
  %bf.load.i.i1221 = load i8, ptr %ref.tmp291, align 8
  %bf.clear.i.i1222 = and i8 %bf.load.i.i1221, 1
  %tobool.i.not.i1223 = icmp eq i8 %bf.clear.i.i1222, 0
  br i1 %tobool.i.not.i1223, label %_ZNSt3__112basic_stringIcNS_11char_traitsIcEENS_9allocatorIcEEED2Ev.exit1226, label %if.then.i1225

if.then.i1225:                                    ; preds = %invoke.cont295
  %__data_.i.i1224 = getelementptr inbounds %"struct.std::__1::basic_string<char>::__long", ptr %ref.tmp291, i64 0, i32 2
  %151 = load ptr, ptr %__data_.i.i1224, align 8, !tbaa !11
  call void @_ZdlPv(ptr noundef %151) #23
  br label %_ZNSt3__112basic_stringIcNS_11char_traitsIcEENS_9allocatorIcEEED2Ev.exit1226

_ZNSt3__112basic_stringIcNS_11char_traitsIcEENS_9allocatorIcEEED2Ev.exit1226: ; preds = %invoke.cont295, %if.then.i1225
  call void @llvm.lifetime.end.p0(i64 24, ptr nonnull %ref.tmp291) #22
  call void @llvm.lifetime.end.p0(i64 8, ptr nonnull %ref.tmp290) #22
  call void @llvm.lifetime.end.p0(i64 8, ptr nonnull %ref.tmp289) #22
  %152 = load i8, ptr %gtest_ar288, align 8, !tbaa !12, !range !19, !noundef !20
  %tobool.i1227.not = icmp eq i8 %152, 0
  br i1 %tobool.i1227.not, label %if.else304, label %if.end319

ehcleanup286:                                     ; preds = %ehcleanup282, %ehcleanup261
  %.pn657.pn.pn = phi { ptr, i32 } [ %.pn657.pn, %ehcleanup282 ], [ %.pn653.pn.pn, %ehcleanup261 ]
  call void @llvm.lifetime.end.p0(i64 8, ptr nonnull %pos227) #22
  br label %eh.resume

lpad292:                                          ; preds = %if.end.i.i1217, %if.then.i.i1216, %_ZN7testing15AssertionResultD2Ev.exit1193
  %153 = landingpad { ptr, i32 }
          cleanup
  %bf.load.i.i1228 = load i8, ptr %ref.tmp291, align 8
  %bf.clear.i.i1229 = and i8 %bf.load.i.i1228, 1
  %tobool.i.not.i1230 = icmp eq i8 %bf.clear.i.i1229, 0
  br i1 %tobool.i.not.i1230, label %_ZNSt3__112basic_stringIcNS_11char_traitsIcEENS_9allocatorIcEEED2Ev.exit1233, label %if.then.i1232

if.then.i1232:                                    ; preds = %lpad292
  %__data_.i.i1231 = getelementptr inbounds %"struct.std::__1::basic_string<char>::__long", ptr %ref.tmp291, i64 0, i32 2
  %154 = load ptr, ptr %__data_.i.i1231, align 8, !tbaa !11
  call void @_ZdlPv(ptr noundef %154) #23
  br label %_ZNSt3__112basic_stringIcNS_11char_traitsIcEENS_9allocatorIcEEED2Ev.exit1233

_ZNSt3__112basic_stringIcNS_11char_traitsIcEENS_9allocatorIcEEED2Ev.exit1233: ; preds = %lpad292, %if.then.i1232
  call void @llvm.lifetime.end.p0(i64 24, ptr nonnull %ref.tmp291) #22
  call void @llvm.lifetime.end.p0(i64 8, ptr nonnull %ref.tmp290) #22
  call void @llvm.lifetime.end.p0(i64 8, ptr nonnull %ref.tmp289) #22
  br label %ehcleanup321

if.else304:                                       ; preds = %_ZNSt3__112basic_stringIcNS_11char_traitsIcEENS_9allocatorIcEEED2Ev.exit1226
  call void @llvm.lifetime.start.p0(i64 8, ptr nonnull %ref.tmp305) #22
  invoke void @_ZN7testing7MessageC1Ev(ptr noundef nonnull align 8 dereferenceable(8) %ref.tmp305)
          to label %invoke.cont307 unwind label %lpad306

invoke.cont307:                                   ; preds = %if.else304
  call void @llvm.lifetime.start.p0(i64 8, ptr nonnull %ref.tmp308) #22
  %message_.i.i1234 = getelementptr inbounds %"class.testing::AssertionResult", ptr %gtest_ar288, i64 0, i32 1
  %155 = load ptr, ptr %message_.i.i1234, align 8, !tbaa !21
  %cmp.not.i.i1235 = icmp eq ptr %155, null
  br i1 %cmp.not.i.i1235, label %invoke.cont310, label %cond.true.i.i1242

cond.true.i.i1242:                                ; preds = %invoke.cont307
  %bf.load.i.i.i.i.i.i1236 = load i8, ptr %155, align 8
  %bf.clear.i.i.i.i.i.i1237 = and i8 %bf.load.i.i.i.i.i.i1236, 1
  %tobool.i.not.i.i.i.i.i1238 = icmp eq i8 %bf.clear.i.i.i.i.i.i1237, 0
  %__data_.i.i.i.i.i.i1239 = getelementptr inbounds %"struct.std::__1::basic_string<char>::__long", ptr %155, i64 0, i32 2
  %156 = load ptr, ptr %__data_.i.i.i.i.i.i1239, align 8
  %__data_.i4.i.i.i.i.i1240 = getelementptr inbounds %"struct.std::__1::basic_string<char>::__short", ptr %155, i64 0, i32 2
  %cond.i.i.i.i.i1241 = select i1 %tobool.i.not.i.i.i.i.i1238, ptr %__data_.i4.i.i.i.i.i1240, ptr %156
  br label %invoke.cont310

invoke.cont310:                                   ; preds = %cond.true.i.i1242, %invoke.cont307
  %cond.i.i1243 = phi ptr [ %cond.i.i.i.i.i1241, %cond.true.i.i1242 ], [ @.str.46, %invoke.cont307 ]
  invoke void @_ZN7testing8internal12AssertHelperC1ENS_14TestPartResult4TypeEPKciS5_(ptr noundef nonnull align 8 dereferenceable(8) %ref.tmp308, i32 noundef 1, ptr noundef nonnull @.str.3, i32 noundef 47, ptr noundef %cond.i.i1243)
          to label %invoke.cont312 unwind label %lpad309

invoke.cont312:                                   ; preds = %invoke.cont310
  invoke void @_ZNK7testing8internal12AssertHelperaSERKNS_7MessageE(ptr noundef nonnull align 8 dereferenceable(8) %ref.tmp308, ptr noundef nonnull align 8 dereferenceable(8) %ref.tmp305)
          to label %invoke.cont314 unwind label %lpad313

invoke.cont314:                                   ; preds = %invoke.cont312
  call void @_ZN7testing8internal12AssertHelperD1Ev(ptr noundef nonnull align 8 dereferenceable(8) %ref.tmp308) #22
  call void @llvm.lifetime.end.p0(i64 8, ptr nonnull %ref.tmp308) #22
  %157 = load ptr, ptr %ref.tmp305, align 8, !tbaa !21
  store ptr null, ptr %ref.tmp305, align 8, !tbaa !21
  %tobool.not.i.i.i1245 = icmp eq ptr %157, null
  br i1 %tobool.not.i.i.i1245, label %_ZN7testing7MessageD2Ev.exit1249, label %_ZNKSt3__114default_deleteINS_18basic_stringstreamIcNS_11char_traitsIcEENS_9allocatorIcEEEEEclB7v170000EPS6_.exit.i.i.i1248

_ZNKSt3__114default_deleteINS_18basic_stringstreamIcNS_11char_traitsIcEENS_9allocatorIcEEEEEclB7v170000EPS6_.exit.i.i.i1248: ; preds = %invoke.cont314
  %vtable.i.i.i.i1246 = load ptr, ptr %157, align 8, !tbaa !5
  %vfn.i.i.i.i1247 = getelementptr inbounds ptr, ptr %vtable.i.i.i.i1246, i64 1
  %158 = load ptr, ptr %vfn.i.i.i.i1247, align 8
  call void %158(ptr noundef nonnull align 8 dereferenceable(128) %157) #22
  br label %_ZN7testing7MessageD2Ev.exit1249

_ZN7testing7MessageD2Ev.exit1249:                 ; preds = %invoke.cont314, %_ZNKSt3__114default_deleteINS_18basic_stringstreamIcNS_11char_traitsIcEENS_9allocatorIcEEEEEclB7v170000EPS6_.exit.i.i.i1248
  call void @llvm.lifetime.end.p0(i64 8, ptr nonnull %ref.tmp305) #22
  br label %if.end319

lpad306:                                          ; preds = %if.else304
  %159 = landingpad { ptr, i32 }
          cleanup
  br label %ehcleanup318

lpad309:                                          ; preds = %invoke.cont310
  %160 = landingpad { ptr, i32 }
          cleanup
  br label %ehcleanup316

lpad313:                                          ; preds = %invoke.cont312
  %161 = landingpad { ptr, i32 }
          cleanup
  call void @_ZN7testing8internal12AssertHelperD1Ev(ptr noundef nonnull align 8 dereferenceable(8) %ref.tmp308) #22
  br label %ehcleanup316

ehcleanup316:                                     ; preds = %lpad313, %lpad309
  %.pn661 = phi { ptr, i32 } [ %161, %lpad313 ], [ %160, %lpad309 ]
  call void @llvm.lifetime.end.p0(i64 8, ptr nonnull %ref.tmp308) #22
  %162 = load ptr, ptr %ref.tmp305, align 8, !tbaa !21
  store ptr null, ptr %ref.tmp305, align 8, !tbaa !21
  %tobool.not.i.i.i1250 = icmp eq ptr %162, null
  br i1 %tobool.not.i.i.i1250, label %ehcleanup318, label %_ZNKSt3__114default_deleteINS_18basic_stringstreamIcNS_11char_traitsIcEENS_9allocatorIcEEEEEclB7v170000EPS6_.exit.i.i.i1253

_ZNKSt3__114default_deleteINS_18basic_stringstreamIcNS_11char_traitsIcEENS_9allocatorIcEEEEEclB7v170000EPS6_.exit.i.i.i1253: ; preds = %ehcleanup316
  %vtable.i.i.i.i1251 = load ptr, ptr %162, align 8, !tbaa !5
  %vfn.i.i.i.i1252 = getelementptr inbounds ptr, ptr %vtable.i.i.i.i1251, i64 1
  %163 = load ptr, ptr %vfn.i.i.i.i1252, align 8
  call void %163(ptr noundef nonnull align 8 dereferenceable(128) %162) #22
  br label %ehcleanup318

ehcleanup318:                                     ; preds = %_ZNKSt3__114default_deleteINS_18basic_stringstreamIcNS_11char_traitsIcEENS_9allocatorIcEEEEEclB7v170000EPS6_.exit.i.i.i1253, %ehcleanup316, %lpad306
  %.pn661.pn = phi { ptr, i32 } [ %159, %lpad306 ], [ %.pn661, %ehcleanup316 ], [ %.pn661, %_ZNKSt3__114default_deleteINS_18basic_stringstreamIcNS_11char_traitsIcEENS_9allocatorIcEEEEEclB7v170000EPS6_.exit.i.i.i1253 ]
  call void @llvm.lifetime.end.p0(i64 8, ptr nonnull %ref.tmp305) #22
  call void @_ZN7testing15AssertionResultD2Ev(ptr noundef nonnull align 8 dereferenceable(16) %gtest_ar288) #22
  br label %ehcleanup321

if.end319:                                        ; preds = %_ZNSt3__112basic_stringIcNS_11char_traitsIcEENS_9allocatorIcEEED2Ev.exit1226, %_ZN7testing7MessageD2Ev.exit1249
  %message_.i1255 = getelementptr inbounds %"class.testing::AssertionResult", ptr %gtest_ar288, i64 0, i32 1
  %164 = load ptr, ptr %message_.i1255, align 8, !tbaa !21
  store ptr null, ptr %message_.i1255, align 8, !tbaa !21
  %tobool.not.i.i.i1256 = icmp eq ptr %164, null
  br i1 %tobool.not.i.i.i1256, label %_ZN7testing15AssertionResultD2Ev.exit1264, label %delete.notnull.i.i.i.i1260

delete.notnull.i.i.i.i1260:                       ; preds = %if.end319
  %bf.load.i.i.i.i.i.i1257 = load i8, ptr %164, align 8
  %bf.clear.i.i.i.i.i.i1258 = and i8 %bf.load.i.i.i.i.i.i1257, 1
  %tobool.i.not.i.i.i.i.i1259 = icmp eq i8 %bf.clear.i.i.i.i.i.i1258, 0
  br i1 %tobool.i.not.i.i.i.i.i1259, label %_ZNKSt3__114default_deleteINS_12basic_stringIcNS_11char_traitsIcEENS_9allocatorIcEEEEEclB7v170000EPS6_.exit.i.i.i1263, label %if.then.i.i.i.i.i1262

if.then.i.i.i.i.i1262:                            ; preds = %delete.notnull.i.i.i.i1260
  %__data_.i.i.i.i.i.i1261 = getelementptr inbounds %"struct.std::__1::basic_string<char>::__long", ptr %164, i64 0, i32 2
  %165 = load ptr, ptr %__data_.i.i.i.i.i.i1261, align 8, !tbaa !11
  call void @_ZdlPv(ptr noundef %165) #23
  br label %_ZNKSt3__114default_deleteINS_12basic_stringIcNS_11char_traitsIcEENS_9allocatorIcEEEEEclB7v170000EPS6_.exit.i.i.i1263

_ZNKSt3__114default_deleteINS_12basic_stringIcNS_11char_traitsIcEENS_9allocatorIcEEEEEclB7v170000EPS6_.exit.i.i.i1263: ; preds = %if.then.i.i.i.i.i1262, %delete.notnull.i.i.i.i1260
  call void @_ZdlPv(ptr noundef nonnull %164) #23
  br label %_ZN7testing15AssertionResultD2Ev.exit1264

_ZN7testing15AssertionResultD2Ev.exit1264:        ; preds = %if.end319, %_ZNKSt3__114default_deleteINS_12basic_stringIcNS_11char_traitsIcEENS_9allocatorIcEEEEEclB7v170000EPS6_.exit.i.i.i1263
  call void @llvm.lifetime.end.p0(i64 16, ptr nonnull %gtest_ar288) #22
  call void @llvm.lifetime.start.p0(i64 16, ptr nonnull %gtest_ar322) #22
  call void @llvm.lifetime.start.p0(i64 8, ptr nonnull %ref.tmp323) #22
  store i64 4, ptr %ref.tmp323, align 8, !tbaa !8
  %166 = load i64, ptr %pos287, align 8, !tbaa !8, !noalias !72
  %cmp.i.i1265 = icmp eq i64 %166, 4
  br i1 %cmp.i.i1265, label %if.then.i.i1266, label %if.end.i.i1267

if.then.i.i1266:                                  ; preds = %_ZN7testing15AssertionResultD2Ev.exit1264
  call void @_ZN7testing16AssertionSuccessEv(ptr nonnull sret(%"class.testing::AssertionResult") align 8 %gtest_ar322)
  br label %_ZN7testing8internal8EqHelper7CompareImmLPv0EEENS_15AssertionResultEPKcS6_RKT_RKT0_.exit1268

if.end.i.i1267:                                   ; preds = %_ZN7testing15AssertionResultD2Ev.exit1264
  call void @_ZN7testing8internal18CmpHelperEQFailureImmEENS_15AssertionResultEPKcS4_RKT_RKT0_(ptr nonnull sret(%"class.testing::AssertionResult") align 8 %gtest_ar322, ptr noundef nonnull @.str.29, ptr noundef nonnull @.str.14, ptr noundef nonnull align 8 dereferenceable(8) %ref.tmp323, ptr noundef nonnull align 8 dereferenceable(8) %pos287)
  br label %_ZN7testing8internal8EqHelper7CompareImmLPv0EEENS_15AssertionResultEPKcS6_RKT_RKT0_.exit1268

_ZN7testing8internal8EqHelper7CompareImmLPv0EEENS_15AssertionResultEPKcS6_RKT_RKT0_.exit1268: ; preds = %if.then.i.i1266, %if.end.i.i1267
  call void @llvm.lifetime.end.p0(i64 8, ptr nonnull %ref.tmp323) #22
  %167 = load i8, ptr %gtest_ar322, align 8, !tbaa !12, !range !19, !noundef !20
  %tobool.i1269.not = icmp eq i8 %167, 0
  br i1 %tobool.i1269.not, label %if.else328, label %if.end343

ehcleanup321:                                     ; preds = %ehcleanup318, %_ZNSt3__112basic_stringIcNS_11char_traitsIcEENS_9allocatorIcEEED2Ev.exit1233
  %.pn661.pn.pn = phi { ptr, i32 } [ %.pn661.pn, %ehcleanup318 ], [ %153, %_ZNSt3__112basic_stringIcNS_11char_traitsIcEENS_9allocatorIcEEED2Ev.exit1233 ]
  call void @llvm.lifetime.end.p0(i64 16, ptr nonnull %gtest_ar288) #22
  br label %ehcleanup346

if.else328:                                       ; preds = %_ZN7testing8internal8EqHelper7CompareImmLPv0EEENS_15AssertionResultEPKcS6_RKT_RKT0_.exit1268
  call void @llvm.lifetime.start.p0(i64 8, ptr nonnull %ref.tmp329) #22
  invoke void @_ZN7testing7MessageC1Ev(ptr noundef nonnull align 8 dereferenceable(8) %ref.tmp329)
          to label %invoke.cont331 unwind label %lpad330

invoke.cont331:                                   ; preds = %if.else328
  call void @llvm.lifetime.start.p0(i64 8, ptr nonnull %ref.tmp332) #22
  %message_.i.i1270 = getelementptr inbounds %"class.testing::AssertionResult", ptr %gtest_ar322, i64 0, i32 1
  %168 = load ptr, ptr %message_.i.i1270, align 8, !tbaa !21
  %cmp.not.i.i1271 = icmp eq ptr %168, null
  br i1 %cmp.not.i.i1271, label %invoke.cont334, label %cond.true.i.i1278

cond.true.i.i1278:                                ; preds = %invoke.cont331
  %bf.load.i.i.i.i.i.i1272 = load i8, ptr %168, align 8
  %bf.clear.i.i.i.i.i.i1273 = and i8 %bf.load.i.i.i.i.i.i1272, 1
  %tobool.i.not.i.i.i.i.i1274 = icmp eq i8 %bf.clear.i.i.i.i.i.i1273, 0
  %__data_.i.i.i.i.i.i1275 = getelementptr inbounds %"struct.std::__1::basic_string<char>::__long", ptr %168, i64 0, i32 2
  %169 = load ptr, ptr %__data_.i.i.i.i.i.i1275, align 8
  %__data_.i4.i.i.i.i.i1276 = getelementptr inbounds %"struct.std::__1::basic_string<char>::__short", ptr %168, i64 0, i32 2
  %cond.i.i.i.i.i1277 = select i1 %tobool.i.not.i.i.i.i.i1274, ptr %__data_.i4.i.i.i.i.i1276, ptr %169
  br label %invoke.cont334

invoke.cont334:                                   ; preds = %cond.true.i.i1278, %invoke.cont331
  %cond.i.i1279 = phi ptr [ %cond.i.i.i.i.i1277, %cond.true.i.i1278 ], [ @.str.46, %invoke.cont331 ]
  invoke void @_ZN7testing8internal12AssertHelperC1ENS_14TestPartResult4TypeEPKciS5_(ptr noundef nonnull align 8 dereferenceable(8) %ref.tmp332, i32 noundef 1, ptr noundef nonnull @.str.3, i32 noundef 48, ptr noundef %cond.i.i1279)
          to label %invoke.cont336 unwind label %lpad333

invoke.cont336:                                   ; preds = %invoke.cont334
  invoke void @_ZNK7testing8internal12AssertHelperaSERKNS_7MessageE(ptr noundef nonnull align 8 dereferenceable(8) %ref.tmp332, ptr noundef nonnull align 8 dereferenceable(8) %ref.tmp329)
          to label %invoke.cont338 unwind label %lpad337

invoke.cont338:                                   ; preds = %invoke.cont336
  call void @_ZN7testing8internal12AssertHelperD1Ev(ptr noundef nonnull align 8 dereferenceable(8) %ref.tmp332) #22
  call void @llvm.lifetime.end.p0(i64 8, ptr nonnull %ref.tmp332) #22
  %170 = load ptr, ptr %ref.tmp329, align 8, !tbaa !21
  store ptr null, ptr %ref.tmp329, align 8, !tbaa !21
  %tobool.not.i.i.i1281 = icmp eq ptr %170, null
  br i1 %tobool.not.i.i.i1281, label %_ZN7testing7MessageD2Ev.exit1285, label %_ZNKSt3__114default_deleteINS_18basic_stringstreamIcNS_11char_traitsIcEENS_9allocatorIcEEEEEclB7v170000EPS6_.exit.i.i.i1284

_ZNKSt3__114default_deleteINS_18basic_stringstreamIcNS_11char_traitsIcEENS_9allocatorIcEEEEEclB7v170000EPS6_.exit.i.i.i1284: ; preds = %invoke.cont338
  %vtable.i.i.i.i1282 = load ptr, ptr %170, align 8, !tbaa !5
  %vfn.i.i.i.i1283 = getelementptr inbounds ptr, ptr %vtable.i.i.i.i1282, i64 1
  %171 = load ptr, ptr %vfn.i.i.i.i1283, align 8
  call void %171(ptr noundef nonnull align 8 dereferenceable(128) %170) #22
  br label %_ZN7testing7MessageD2Ev.exit1285

_ZN7testing7MessageD2Ev.exit1285:                 ; preds = %invoke.cont338, %_ZNKSt3__114default_deleteINS_18basic_stringstreamIcNS_11char_traitsIcEENS_9allocatorIcEEEEEclB7v170000EPS6_.exit.i.i.i1284
  call void @llvm.lifetime.end.p0(i64 8, ptr nonnull %ref.tmp329) #22
  br label %if.end343

lpad330:                                          ; preds = %if.else328
  %172 = landingpad { ptr, i32 }
          cleanup
  br label %ehcleanup342

lpad333:                                          ; preds = %invoke.cont334
  %173 = landingpad { ptr, i32 }
          cleanup
  br label %ehcleanup340

lpad337:                                          ; preds = %invoke.cont336
  %174 = landingpad { ptr, i32 }
          cleanup
  call void @_ZN7testing8internal12AssertHelperD1Ev(ptr noundef nonnull align 8 dereferenceable(8) %ref.tmp332) #22
  br label %ehcleanup340

ehcleanup340:                                     ; preds = %lpad337, %lpad333
  %.pn665 = phi { ptr, i32 } [ %174, %lpad337 ], [ %173, %lpad333 ]
  call void @llvm.lifetime.end.p0(i64 8, ptr nonnull %ref.tmp332) #22
  %175 = load ptr, ptr %ref.tmp329, align 8, !tbaa !21
  store ptr null, ptr %ref.tmp329, align 8, !tbaa !21
  %tobool.not.i.i.i1286 = icmp eq ptr %175, null
  br i1 %tobool.not.i.i.i1286, label %ehcleanup342, label %_ZNKSt3__114default_deleteINS_18basic_stringstreamIcNS_11char_traitsIcEENS_9allocatorIcEEEEEclB7v170000EPS6_.exit.i.i.i1289

_ZNKSt3__114default_deleteINS_18basic_stringstreamIcNS_11char_traitsIcEENS_9allocatorIcEEEEEclB7v170000EPS6_.exit.i.i.i1289: ; preds = %ehcleanup340
  %vtable.i.i.i.i1287 = load ptr, ptr %175, align 8, !tbaa !5
  %vfn.i.i.i.i1288 = getelementptr inbounds ptr, ptr %vtable.i.i.i.i1287, i64 1
  %176 = load ptr, ptr %vfn.i.i.i.i1288, align 8
  call void %176(ptr noundef nonnull align 8 dereferenceable(128) %175) #22
  br label %ehcleanup342

ehcleanup342:                                     ; preds = %_ZNKSt3__114default_deleteINS_18basic_stringstreamIcNS_11char_traitsIcEENS_9allocatorIcEEEEEclB7v170000EPS6_.exit.i.i.i1289, %ehcleanup340, %lpad330
  %.pn665.pn = phi { ptr, i32 } [ %172, %lpad330 ], [ %.pn665, %ehcleanup340 ], [ %.pn665, %_ZNKSt3__114default_deleteINS_18basic_stringstreamIcNS_11char_traitsIcEENS_9allocatorIcEEEEEclB7v170000EPS6_.exit.i.i.i1289 ]
  call void @llvm.lifetime.end.p0(i64 8, ptr nonnull %ref.tmp329) #22
  call void @_ZN7testing15AssertionResultD2Ev(ptr noundef nonnull align 8 dereferenceable(16) %gtest_ar322) #22
  call void @llvm.lifetime.end.p0(i64 16, ptr nonnull %gtest_ar322) #22
  br label %ehcleanup346

if.end343:                                        ; preds = %_ZN7testing8internal8EqHelper7CompareImmLPv0EEENS_15AssertionResultEPKcS6_RKT_RKT0_.exit1268, %_ZN7testing7MessageD2Ev.exit1285
  %message_.i1291 = getelementptr inbounds %"class.testing::AssertionResult", ptr %gtest_ar322, i64 0, i32 1
  %177 = load ptr, ptr %message_.i1291, align 8, !tbaa !21
  store ptr null, ptr %message_.i1291, align 8, !tbaa !21
  %tobool.not.i.i.i1292 = icmp eq ptr %177, null
  br i1 %tobool.not.i.i.i1292, label %_ZN7testing15AssertionResultD2Ev.exit1300, label %delete.notnull.i.i.i.i1296

delete.notnull.i.i.i.i1296:                       ; preds = %if.end343
  %bf.load.i.i.i.i.i.i1293 = load i8, ptr %177, align 8
  %bf.clear.i.i.i.i.i.i1294 = and i8 %bf.load.i.i.i.i.i.i1293, 1
  %tobool.i.not.i.i.i.i.i1295 = icmp eq i8 %bf.clear.i.i.i.i.i.i1294, 0
  br i1 %tobool.i.not.i.i.i.i.i1295, label %_ZNKSt3__114default_deleteINS_12basic_stringIcNS_11char_traitsIcEENS_9allocatorIcEEEEEclB7v170000EPS6_.exit.i.i.i1299, label %if.then.i.i.i.i.i1298

if.then.i.i.i.i.i1298:                            ; preds = %delete.notnull.i.i.i.i1296
  %__data_.i.i.i.i.i.i1297 = getelementptr inbounds %"struct.std::__1::basic_string<char>::__long", ptr %177, i64 0, i32 2
  %178 = load ptr, ptr %__data_.i.i.i.i.i.i1297, align 8, !tbaa !11
  call void @_ZdlPv(ptr noundef %178) #23
  br label %_ZNKSt3__114default_deleteINS_12basic_stringIcNS_11char_traitsIcEENS_9allocatorIcEEEEEclB7v170000EPS6_.exit.i.i.i1299

_ZNKSt3__114default_deleteINS_12basic_stringIcNS_11char_traitsIcEENS_9allocatorIcEEEEEclB7v170000EPS6_.exit.i.i.i1299: ; preds = %if.then.i.i.i.i.i1298, %delete.notnull.i.i.i.i1296
  call void @_ZdlPv(ptr noundef nonnull %177) #23
  br label %_ZN7testing15AssertionResultD2Ev.exit1300

_ZN7testing15AssertionResultD2Ev.exit1300:        ; preds = %if.end343, %_ZNKSt3__114default_deleteINS_12basic_stringIcNS_11char_traitsIcEENS_9allocatorIcEEEEEclB7v170000EPS6_.exit.i.i.i1299
  call void @llvm.lifetime.end.p0(i64 16, ptr nonnull %gtest_ar322) #22
  call void @llvm.lifetime.end.p0(i64 8, ptr nonnull %pos287) #22
  call void @llvm.lifetime.start.p0(i64 8, ptr nonnull %pos347) #22
  store i64 0, ptr %pos347, align 8, !tbaa !8
  call void @llvm.lifetime.start.p0(i64 16, ptr nonnull %gtest_ar348) #22
  call void @llvm.lifetime.start.p0(i64 8, ptr nonnull %ref.tmp349) #22
  store i64 1010, ptr %ref.tmp349, align 8, !tbaa !8
  call void @llvm.lifetime.start.p0(i64 8, ptr nonnull %ref.tmp350) #22
  call void @llvm.lifetime.start.p0(i64 24, ptr nonnull %ref.tmp351) #22
  store i8 8, ptr %ref.tmp351, align 8
  %__data_.i.i.i1308 = getelementptr inbounds %"struct.std::__1::basic_string<char>::__short", ptr %ref.tmp351, i64 0, i32 2
  %cmp.i24.i.i1318 = icmp ugt ptr %__data_.i.i.i1308, @.str.28
  %add.ptr.i.i.i1319 = getelementptr inbounds %"struct.std::__1::basic_string<char>::__short", ptr %ref.tmp351, i64 0, i32 2, i64 4
  %cmp1.i.i.i1320 = icmp ule ptr %add.ptr.i.i.i1319, @.str.28
  %179 = or i1 %cmp.i24.i.i1318, %cmp1.i.i.i1320
  call void @llvm.assume(i1 %179)
  store i32 808529969, ptr %__data_.i.i.i1308, align 1
  store i8 0, ptr %add.ptr.i.i.i1319, align 1, !tbaa !11
  %call354 = invoke noundef i64 @_ZNSt3__15stoulERKNS_12basic_stringIcNS_11char_traitsIcEENS_9allocatorIcEEEEPmi(ptr noundef nonnull align 8 dereferenceable(24) %ref.tmp351, ptr noundef nonnull %pos347, i32 noundef 10)
          to label %invoke.cont353 unwind label %lpad352

invoke.cont353:                                   ; preds = %_ZN7testing15AssertionResultD2Ev.exit1300
  store i64 %call354, ptr %ref.tmp350, align 8, !tbaa !8
  %180 = load i64, ptr %ref.tmp349, align 8, !tbaa !8, !noalias !77
  %cmp.i.i1322 = icmp eq i64 %180, %call354
  br i1 %cmp.i.i1322, label %if.then.i.i1323, label %if.end.i.i1324

if.then.i.i1323:                                  ; preds = %invoke.cont353
  invoke void @_ZN7testing16AssertionSuccessEv(ptr nonnull sret(%"class.testing::AssertionResult") align 8 %gtest_ar348)
          to label %invoke.cont355 unwind label %lpad352

if.end.i.i1324:                                   ; preds = %invoke.cont353
  invoke void @_ZN7testing8internal18CmpHelperEQFailureImmEENS_15AssertionResultEPKcS4_RKT_RKT0_(ptr nonnull sret(%"class.testing::AssertionResult") align 8 %gtest_ar348, ptr noundef nonnull @.str.32, ptr noundef nonnull @.str.33, ptr noundef nonnull align 8 dereferenceable(8) %ref.tmp349, ptr noundef nonnull align 8 dereferenceable(8) %ref.tmp350)
          to label %invoke.cont355 unwind label %lpad352

invoke.cont355:                                   ; preds = %if.then.i.i1323, %if.end.i.i1324
  %bf.load.i.i1328 = load i8, ptr %ref.tmp351, align 8
  %bf.clear.i.i1329 = and i8 %bf.load.i.i1328, 1
  %tobool.i.not.i1330 = icmp eq i8 %bf.clear.i.i1329, 0
  br i1 %tobool.i.not.i1330, label %_ZNSt3__112basic_stringIcNS_11char_traitsIcEENS_9allocatorIcEEED2Ev.exit1333, label %if.then.i1332

if.then.i1332:                                    ; preds = %invoke.cont355
  %__data_.i.i1331 = getelementptr inbounds %"struct.std::__1::basic_string<char>::__long", ptr %ref.tmp351, i64 0, i32 2
  %181 = load ptr, ptr %__data_.i.i1331, align 8, !tbaa !11
  call void @_ZdlPv(ptr noundef %181) #23
  br label %_ZNSt3__112basic_stringIcNS_11char_traitsIcEENS_9allocatorIcEEED2Ev.exit1333

_ZNSt3__112basic_stringIcNS_11char_traitsIcEENS_9allocatorIcEEED2Ev.exit1333: ; preds = %invoke.cont355, %if.then.i1332
  call void @llvm.lifetime.end.p0(i64 24, ptr nonnull %ref.tmp351) #22
  call void @llvm.lifetime.end.p0(i64 8, ptr nonnull %ref.tmp350) #22
  call void @llvm.lifetime.end.p0(i64 8, ptr nonnull %ref.tmp349) #22
  %182 = load i8, ptr %gtest_ar348, align 8, !tbaa !12, !range !19, !noundef !20
  %tobool.i1334.not = icmp eq i8 %182, 0
  br i1 %tobool.i1334.not, label %if.else364, label %if.end379

ehcleanup346:                                     ; preds = %ehcleanup342, %ehcleanup321
  %.pn665.pn.pn = phi { ptr, i32 } [ %.pn665.pn, %ehcleanup342 ], [ %.pn661.pn.pn, %ehcleanup321 ]
  call void @llvm.lifetime.end.p0(i64 8, ptr nonnull %pos287) #22
  br label %eh.resume

lpad352:                                          ; preds = %if.end.i.i1324, %if.then.i.i1323, %_ZN7testing15AssertionResultD2Ev.exit1300
  %183 = landingpad { ptr, i32 }
          cleanup
  %bf.load.i.i1335 = load i8, ptr %ref.tmp351, align 8
  %bf.clear.i.i1336 = and i8 %bf.load.i.i1335, 1
  %tobool.i.not.i1337 = icmp eq i8 %bf.clear.i.i1336, 0
  br i1 %tobool.i.not.i1337, label %_ZNSt3__112basic_stringIcNS_11char_traitsIcEENS_9allocatorIcEEED2Ev.exit1340, label %if.then.i1339

if.then.i1339:                                    ; preds = %lpad352
  %__data_.i.i1338 = getelementptr inbounds %"struct.std::__1::basic_string<char>::__long", ptr %ref.tmp351, i64 0, i32 2
  %184 = load ptr, ptr %__data_.i.i1338, align 8, !tbaa !11
  call void @_ZdlPv(ptr noundef %184) #23
  br label %_ZNSt3__112basic_stringIcNS_11char_traitsIcEENS_9allocatorIcEEED2Ev.exit1340

_ZNSt3__112basic_stringIcNS_11char_traitsIcEENS_9allocatorIcEEED2Ev.exit1340: ; preds = %lpad352, %if.then.i1339
  call void @llvm.lifetime.end.p0(i64 24, ptr nonnull %ref.tmp351) #22
  call void @llvm.lifetime.end.p0(i64 8, ptr nonnull %ref.tmp350) #22
  call void @llvm.lifetime.end.p0(i64 8, ptr nonnull %ref.tmp349) #22
  br label %ehcleanup381

if.else364:                                       ; preds = %_ZNSt3__112basic_stringIcNS_11char_traitsIcEENS_9allocatorIcEEED2Ev.exit1333
  call void @llvm.lifetime.start.p0(i64 8, ptr nonnull %ref.tmp365) #22
  invoke void @_ZN7testing7MessageC1Ev(ptr noundef nonnull align 8 dereferenceable(8) %ref.tmp365)
          to label %invoke.cont367 unwind label %lpad366

invoke.cont367:                                   ; preds = %if.else364
  call void @llvm.lifetime.start.p0(i64 8, ptr nonnull %ref.tmp368) #22
  %message_.i.i1341 = getelementptr inbounds %"class.testing::AssertionResult", ptr %gtest_ar348, i64 0, i32 1
  %185 = load ptr, ptr %message_.i.i1341, align 8, !tbaa !21
  %cmp.not.i.i1342 = icmp eq ptr %185, null
  br i1 %cmp.not.i.i1342, label %invoke.cont370, label %cond.true.i.i1349

cond.true.i.i1349:                                ; preds = %invoke.cont367
  %bf.load.i.i.i.i.i.i1343 = load i8, ptr %185, align 8
  %bf.clear.i.i.i.i.i.i1344 = and i8 %bf.load.i.i.i.i.i.i1343, 1
  %tobool.i.not.i.i.i.i.i1345 = icmp eq i8 %bf.clear.i.i.i.i.i.i1344, 0
  %__data_.i.i.i.i.i.i1346 = getelementptr inbounds %"struct.std::__1::basic_string<char>::__long", ptr %185, i64 0, i32 2
  %186 = load ptr, ptr %__data_.i.i.i.i.i.i1346, align 8
  %__data_.i4.i.i.i.i.i1347 = getelementptr inbounds %"struct.std::__1::basic_string<char>::__short", ptr %185, i64 0, i32 2
  %cond.i.i.i.i.i1348 = select i1 %tobool.i.not.i.i.i.i.i1345, ptr %__data_.i4.i.i.i.i.i1347, ptr %186
  br label %invoke.cont370

invoke.cont370:                                   ; preds = %cond.true.i.i1349, %invoke.cont367
  %cond.i.i1350 = phi ptr [ %cond.i.i.i.i.i1348, %cond.true.i.i1349 ], [ @.str.46, %invoke.cont367 ]
  invoke void @_ZN7testing8internal12AssertHelperC1ENS_14TestPartResult4TypeEPKciS5_(ptr noundef nonnull align 8 dereferenceable(8) %ref.tmp368, i32 noundef 1, ptr noundef nonnull @.str.3, i32 noundef 52, ptr noundef %cond.i.i1350)
          to label %invoke.cont372 unwind label %lpad369

invoke.cont372:                                   ; preds = %invoke.cont370
  invoke void @_ZNK7testing8internal12AssertHelperaSERKNS_7MessageE(ptr noundef nonnull align 8 dereferenceable(8) %ref.tmp368, ptr noundef nonnull align 8 dereferenceable(8) %ref.tmp365)
          to label %invoke.cont374 unwind label %lpad373

invoke.cont374:                                   ; preds = %invoke.cont372
  call void @_ZN7testing8internal12AssertHelperD1Ev(ptr noundef nonnull align 8 dereferenceable(8) %ref.tmp368) #22
  call void @llvm.lifetime.end.p0(i64 8, ptr nonnull %ref.tmp368) #22
  %187 = load ptr, ptr %ref.tmp365, align 8, !tbaa !21
  store ptr null, ptr %ref.tmp365, align 8, !tbaa !21
  %tobool.not.i.i.i1352 = icmp eq ptr %187, null
  br i1 %tobool.not.i.i.i1352, label %_ZN7testing7MessageD2Ev.exit1356, label %_ZNKSt3__114default_deleteINS_18basic_stringstreamIcNS_11char_traitsIcEENS_9allocatorIcEEEEEclB7v170000EPS6_.exit.i.i.i1355

_ZNKSt3__114default_deleteINS_18basic_stringstreamIcNS_11char_traitsIcEENS_9allocatorIcEEEEEclB7v170000EPS6_.exit.i.i.i1355: ; preds = %invoke.cont374
  %vtable.i.i.i.i1353 = load ptr, ptr %187, align 8, !tbaa !5
  %vfn.i.i.i.i1354 = getelementptr inbounds ptr, ptr %vtable.i.i.i.i1353, i64 1
  %188 = load ptr, ptr %vfn.i.i.i.i1354, align 8
  call void %188(ptr noundef nonnull align 8 dereferenceable(128) %187) #22
  br label %_ZN7testing7MessageD2Ev.exit1356

_ZN7testing7MessageD2Ev.exit1356:                 ; preds = %invoke.cont374, %_ZNKSt3__114default_deleteINS_18basic_stringstreamIcNS_11char_traitsIcEENS_9allocatorIcEEEEEclB7v170000EPS6_.exit.i.i.i1355
  call void @llvm.lifetime.end.p0(i64 8, ptr nonnull %ref.tmp365) #22
  br label %if.end379

lpad366:                                          ; preds = %if.else364
  %189 = landingpad { ptr, i32 }
          cleanup
  br label %ehcleanup378

lpad369:                                          ; preds = %invoke.cont370
  %190 = landingpad { ptr, i32 }
          cleanup
  br label %ehcleanup376

lpad373:                                          ; preds = %invoke.cont372
  %191 = landingpad { ptr, i32 }
          cleanup
  call void @_ZN7testing8internal12AssertHelperD1Ev(ptr noundef nonnull align 8 dereferenceable(8) %ref.tmp368) #22
  br label %ehcleanup376

ehcleanup376:                                     ; preds = %lpad373, %lpad369
  %.pn669 = phi { ptr, i32 } [ %191, %lpad373 ], [ %190, %lpad369 ]
  call void @llvm.lifetime.end.p0(i64 8, ptr nonnull %ref.tmp368) #22
  %192 = load ptr, ptr %ref.tmp365, align 8, !tbaa !21
  store ptr null, ptr %ref.tmp365, align 8, !tbaa !21
  %tobool.not.i.i.i1357 = icmp eq ptr %192, null
  br i1 %tobool.not.i.i.i1357, label %ehcleanup378, label %_ZNKSt3__114default_deleteINS_18basic_stringstreamIcNS_11char_traitsIcEENS_9allocatorIcEEEEEclB7v170000EPS6_.exit.i.i.i1360

_ZNKSt3__114default_deleteINS_18basic_stringstreamIcNS_11char_traitsIcEENS_9allocatorIcEEEEEclB7v170000EPS6_.exit.i.i.i1360: ; preds = %ehcleanup376
  %vtable.i.i.i.i1358 = load ptr, ptr %192, align 8, !tbaa !5
  %vfn.i.i.i.i1359 = getelementptr inbounds ptr, ptr %vtable.i.i.i.i1358, i64 1
  %193 = load ptr, ptr %vfn.i.i.i.i1359, align 8
  call void %193(ptr noundef nonnull align 8 dereferenceable(128) %192) #22
  br label %ehcleanup378

ehcleanup378:                                     ; preds = %_ZNKSt3__114default_deleteINS_18basic_stringstreamIcNS_11char_traitsIcEENS_9allocatorIcEEEEEclB7v170000EPS6_.exit.i.i.i1360, %ehcleanup376, %lpad366
  %.pn669.pn = phi { ptr, i32 } [ %189, %lpad366 ], [ %.pn669, %ehcleanup376 ], [ %.pn669, %_ZNKSt3__114default_deleteINS_18basic_stringstreamIcNS_11char_traitsIcEENS_9allocatorIcEEEEEclB7v170000EPS6_.exit.i.i.i1360 ]
  call void @llvm.lifetime.end.p0(i64 8, ptr nonnull %ref.tmp365) #22
  call void @_ZN7testing15AssertionResultD2Ev(ptr noundef nonnull align 8 dereferenceable(16) %gtest_ar348) #22
  br label %ehcleanup381

if.end379:                                        ; preds = %_ZNSt3__112basic_stringIcNS_11char_traitsIcEENS_9allocatorIcEEED2Ev.exit1333, %_ZN7testing7MessageD2Ev.exit1356
  %message_.i1362 = getelementptr inbounds %"class.testing::AssertionResult", ptr %gtest_ar348, i64 0, i32 1
  %194 = load ptr, ptr %message_.i1362, align 8, !tbaa !21
  store ptr null, ptr %message_.i1362, align 8, !tbaa !21
  %tobool.not.i.i.i1363 = icmp eq ptr %194, null
  br i1 %tobool.not.i.i.i1363, label %_ZN7testing15AssertionResultD2Ev.exit1371, label %delete.notnull.i.i.i.i1367

delete.notnull.i.i.i.i1367:                       ; preds = %if.end379
  %bf.load.i.i.i.i.i.i1364 = load i8, ptr %194, align 8
  %bf.clear.i.i.i.i.i.i1365 = and i8 %bf.load.i.i.i.i.i.i1364, 1
  %tobool.i.not.i.i.i.i.i1366 = icmp eq i8 %bf.clear.i.i.i.i.i.i1365, 0
  br i1 %tobool.i.not.i.i.i.i.i1366, label %_ZNKSt3__114default_deleteINS_12basic_stringIcNS_11char_traitsIcEENS_9allocatorIcEEEEEclB7v170000EPS6_.exit.i.i.i1370, label %if.then.i.i.i.i.i1369

if.then.i.i.i.i.i1369:                            ; preds = %delete.notnull.i.i.i.i1367
  %__data_.i.i.i.i.i.i1368 = getelementptr inbounds %"struct.std::__1::basic_string<char>::__long", ptr %194, i64 0, i32 2
  %195 = load ptr, ptr %__data_.i.i.i.i.i.i1368, align 8, !tbaa !11
  call void @_ZdlPv(ptr noundef %195) #23
  br label %_ZNKSt3__114default_deleteINS_12basic_stringIcNS_11char_traitsIcEENS_9allocatorIcEEEEEclB7v170000EPS6_.exit.i.i.i1370

_ZNKSt3__114default_deleteINS_12basic_stringIcNS_11char_traitsIcEENS_9allocatorIcEEEEEclB7v170000EPS6_.exit.i.i.i1370: ; preds = %if.then.i.i.i.i.i1369, %delete.notnull.i.i.i.i1367
  call void @_ZdlPv(ptr noundef nonnull %194) #23
  br label %_ZN7testing15AssertionResultD2Ev.exit1371

_ZN7testing15AssertionResultD2Ev.exit1371:        ; preds = %if.end379, %_ZNKSt3__114default_deleteINS_12basic_stringIcNS_11char_traitsIcEENS_9allocatorIcEEEEEclB7v170000EPS6_.exit.i.i.i1370
  call void @llvm.lifetime.end.p0(i64 16, ptr nonnull %gtest_ar348) #22
  call void @llvm.lifetime.start.p0(i64 16, ptr nonnull %gtest_ar382) #22
  call void @llvm.lifetime.start.p0(i64 8, ptr nonnull %ref.tmp383) #22
  store i64 4, ptr %ref.tmp383, align 8, !tbaa !8
  %196 = load i64, ptr %pos347, align 8, !tbaa !8, !noalias !82
  %cmp.i.i1372 = icmp eq i64 %196, 4
  br i1 %cmp.i.i1372, label %if.then.i.i1373, label %if.end.i.i1374

if.then.i.i1373:                                  ; preds = %_ZN7testing15AssertionResultD2Ev.exit1371
  call void @_ZN7testing16AssertionSuccessEv(ptr nonnull sret(%"class.testing::AssertionResult") align 8 %gtest_ar382)
  br label %_ZN7testing8internal8EqHelper7CompareImmLPv0EEENS_15AssertionResultEPKcS6_RKT_RKT0_.exit1375

if.end.i.i1374:                                   ; preds = %_ZN7testing15AssertionResultD2Ev.exit1371
  call void @_ZN7testing8internal18CmpHelperEQFailureImmEENS_15AssertionResultEPKcS4_RKT_RKT0_(ptr nonnull sret(%"class.testing::AssertionResult") align 8 %gtest_ar382, ptr noundef nonnull @.str.29, ptr noundef nonnull @.str.14, ptr noundef nonnull align 8 dereferenceable(8) %ref.tmp383, ptr noundef nonnull align 8 dereferenceable(8) %pos347)
  br label %_ZN7testing8internal8EqHelper7CompareImmLPv0EEENS_15AssertionResultEPKcS6_RKT_RKT0_.exit1375

_ZN7testing8internal8EqHelper7CompareImmLPv0EEENS_15AssertionResultEPKcS6_RKT_RKT0_.exit1375: ; preds = %if.then.i.i1373, %if.end.i.i1374
  call void @llvm.lifetime.end.p0(i64 8, ptr nonnull %ref.tmp383) #22
  %197 = load i8, ptr %gtest_ar382, align 8, !tbaa !12, !range !19, !noundef !20
  %tobool.i1376.not = icmp eq i8 %197, 0
  br i1 %tobool.i1376.not, label %if.else388, label %if.end403

ehcleanup381:                                     ; preds = %ehcleanup378, %_ZNSt3__112basic_stringIcNS_11char_traitsIcEENS_9allocatorIcEEED2Ev.exit1340
  %.pn669.pn.pn = phi { ptr, i32 } [ %.pn669.pn, %ehcleanup378 ], [ %183, %_ZNSt3__112basic_stringIcNS_11char_traitsIcEENS_9allocatorIcEEED2Ev.exit1340 ]
  call void @llvm.lifetime.end.p0(i64 16, ptr nonnull %gtest_ar348) #22
  br label %ehcleanup406

if.else388:                                       ; preds = %_ZN7testing8internal8EqHelper7CompareImmLPv0EEENS_15AssertionResultEPKcS6_RKT_RKT0_.exit1375
  call void @llvm.lifetime.start.p0(i64 8, ptr nonnull %ref.tmp389) #22
  invoke void @_ZN7testing7MessageC1Ev(ptr noundef nonnull align 8 dereferenceable(8) %ref.tmp389)
          to label %invoke.cont391 unwind label %lpad390

invoke.cont391:                                   ; preds = %if.else388
  call void @llvm.lifetime.start.p0(i64 8, ptr nonnull %ref.tmp392) #22
  %message_.i.i1377 = getelementptr inbounds %"class.testing::AssertionResult", ptr %gtest_ar382, i64 0, i32 1
  %198 = load ptr, ptr %message_.i.i1377, align 8, !tbaa !21
  %cmp.not.i.i1378 = icmp eq ptr %198, null
  br i1 %cmp.not.i.i1378, label %invoke.cont394, label %cond.true.i.i1385

cond.true.i.i1385:                                ; preds = %invoke.cont391
  %bf.load.i.i.i.i.i.i1379 = load i8, ptr %198, align 8
  %bf.clear.i.i.i.i.i.i1380 = and i8 %bf.load.i.i.i.i.i.i1379, 1
  %tobool.i.not.i.i.i.i.i1381 = icmp eq i8 %bf.clear.i.i.i.i.i.i1380, 0
  %__data_.i.i.i.i.i.i1382 = getelementptr inbounds %"struct.std::__1::basic_string<char>::__long", ptr %198, i64 0, i32 2
  %199 = load ptr, ptr %__data_.i.i.i.i.i.i1382, align 8
  %__data_.i4.i.i.i.i.i1383 = getelementptr inbounds %"struct.std::__1::basic_string<char>::__short", ptr %198, i64 0, i32 2
  %cond.i.i.i.i.i1384 = select i1 %tobool.i.not.i.i.i.i.i1381, ptr %__data_.i4.i.i.i.i.i1383, ptr %199
  br label %invoke.cont394

invoke.cont394:                                   ; preds = %cond.true.i.i1385, %invoke.cont391
  %cond.i.i1386 = phi ptr [ %cond.i.i.i.i.i1384, %cond.true.i.i1385 ], [ @.str.46, %invoke.cont391 ]
  invoke void @_ZN7testing8internal12AssertHelperC1ENS_14TestPartResult4TypeEPKciS5_(ptr noundef nonnull align 8 dereferenceable(8) %ref.tmp392, i32 noundef 1, ptr noundef nonnull @.str.3, i32 noundef 53, ptr noundef %cond.i.i1386)
          to label %invoke.cont396 unwind label %lpad393

invoke.cont396:                                   ; preds = %invoke.cont394
  invoke void @_ZNK7testing8internal12AssertHelperaSERKNS_7MessageE(ptr noundef nonnull align 8 dereferenceable(8) %ref.tmp392, ptr noundef nonnull align 8 dereferenceable(8) %ref.tmp389)
          to label %invoke.cont398 unwind label %lpad397

invoke.cont398:                                   ; preds = %invoke.cont396
  call void @_ZN7testing8internal12AssertHelperD1Ev(ptr noundef nonnull align 8 dereferenceable(8) %ref.tmp392) #22
  call void @llvm.lifetime.end.p0(i64 8, ptr nonnull %ref.tmp392) #22
  %200 = load ptr, ptr %ref.tmp389, align 8, !tbaa !21
  store ptr null, ptr %ref.tmp389, align 8, !tbaa !21
  %tobool.not.i.i.i1388 = icmp eq ptr %200, null
  br i1 %tobool.not.i.i.i1388, label %_ZN7testing7MessageD2Ev.exit1392, label %_ZNKSt3__114default_deleteINS_18basic_stringstreamIcNS_11char_traitsIcEENS_9allocatorIcEEEEEclB7v170000EPS6_.exit.i.i.i1391

_ZNKSt3__114default_deleteINS_18basic_stringstreamIcNS_11char_traitsIcEENS_9allocatorIcEEEEEclB7v170000EPS6_.exit.i.i.i1391: ; preds = %invoke.cont398
  %vtable.i.i.i.i1389 = load ptr, ptr %200, align 8, !tbaa !5
  %vfn.i.i.i.i1390 = getelementptr inbounds ptr, ptr %vtable.i.i.i.i1389, i64 1
  %201 = load ptr, ptr %vfn.i.i.i.i1390, align 8
  call void %201(ptr noundef nonnull align 8 dereferenceable(128) %200) #22
  br label %_ZN7testing7MessageD2Ev.exit1392

_ZN7testing7MessageD2Ev.exit1392:                 ; preds = %invoke.cont398, %_ZNKSt3__114default_deleteINS_18basic_stringstreamIcNS_11char_traitsIcEENS_9allocatorIcEEEEEclB7v170000EPS6_.exit.i.i.i1391
  call void @llvm.lifetime.end.p0(i64 8, ptr nonnull %ref.tmp389) #22
  br label %if.end403

lpad390:                                          ; preds = %if.else388
  %202 = landingpad { ptr, i32 }
          cleanup
  br label %ehcleanup402

lpad393:                                          ; preds = %invoke.cont394
  %203 = landingpad { ptr, i32 }
          cleanup
  br label %ehcleanup400

lpad397:                                          ; preds = %invoke.cont396
  %204 = landingpad { ptr, i32 }
          cleanup
  call void @_ZN7testing8internal12AssertHelperD1Ev(ptr noundef nonnull align 8 dereferenceable(8) %ref.tmp392) #22
  br label %ehcleanup400

ehcleanup400:                                     ; preds = %lpad397, %lpad393
  %.pn673 = phi { ptr, i32 } [ %204, %lpad397 ], [ %203, %lpad393 ]
  call void @llvm.lifetime.end.p0(i64 8, ptr nonnull %ref.tmp392) #22
  %205 = load ptr, ptr %ref.tmp389, align 8, !tbaa !21
  store ptr null, ptr %ref.tmp389, align 8, !tbaa !21
  %tobool.not.i.i.i1393 = icmp eq ptr %205, null
  br i1 %tobool.not.i.i.i1393, label %ehcleanup402, label %_ZNKSt3__114default_deleteINS_18basic_stringstreamIcNS_11char_traitsIcEENS_9allocatorIcEEEEEclB7v170000EPS6_.exit.i.i.i1396

_ZNKSt3__114default_deleteINS_18basic_stringstreamIcNS_11char_traitsIcEENS_9allocatorIcEEEEEclB7v170000EPS6_.exit.i.i.i1396: ; preds = %ehcleanup400
  %vtable.i.i.i.i1394 = load ptr, ptr %205, align 8, !tbaa !5
  %vfn.i.i.i.i1395 = getelementptr inbounds ptr, ptr %vtable.i.i.i.i1394, i64 1
  %206 = load ptr, ptr %vfn.i.i.i.i1395, align 8
  call void %206(ptr noundef nonnull align 8 dereferenceable(128) %205) #22
  br label %ehcleanup402

ehcleanup402:                                     ; preds = %_ZNKSt3__114default_deleteINS_18basic_stringstreamIcNS_11char_traitsIcEENS_9allocatorIcEEEEEclB7v170000EPS6_.exit.i.i.i1396, %ehcleanup400, %lpad390
  %.pn673.pn = phi { ptr, i32 } [ %202, %lpad390 ], [ %.pn673, %ehcleanup400 ], [ %.pn673, %_ZNKSt3__114default_deleteINS_18basic_stringstreamIcNS_11char_traitsIcEENS_9allocatorIcEEEEEclB7v170000EPS6_.exit.i.i.i1396 ]
  call void @llvm.lifetime.end.p0(i64 8, ptr nonnull %ref.tmp389) #22
  call void @_ZN7testing15AssertionResultD2Ev(ptr noundef nonnull align 8 dereferenceable(16) %gtest_ar382) #22
  call void @llvm.lifetime.end.p0(i64 16, ptr nonnull %gtest_ar382) #22
  br label %ehcleanup406

if.end403:                                        ; preds = %_ZN7testing8internal8EqHelper7CompareImmLPv0EEENS_15AssertionResultEPKcS6_RKT_RKT0_.exit1375, %_ZN7testing7MessageD2Ev.exit1392
  %message_.i1398 = getelementptr inbounds %"class.testing::AssertionResult", ptr %gtest_ar382, i64 0, i32 1
  %207 = load ptr, ptr %message_.i1398, align 8, !tbaa !21
  store ptr null, ptr %message_.i1398, align 8, !tbaa !21
  %tobool.not.i.i.i1399 = icmp eq ptr %207, null
  br i1 %tobool.not.i.i.i1399, label %_ZN7testing15AssertionResultD2Ev.exit1407, label %delete.notnull.i.i.i.i1403

delete.notnull.i.i.i.i1403:                       ; preds = %if.end403
  %bf.load.i.i.i.i.i.i1400 = load i8, ptr %207, align 8
  %bf.clear.i.i.i.i.i.i1401 = and i8 %bf.load.i.i.i.i.i.i1400, 1
  %tobool.i.not.i.i.i.i.i1402 = icmp eq i8 %bf.clear.i.i.i.i.i.i1401, 0
  br i1 %tobool.i.not.i.i.i.i.i1402, label %_ZNKSt3__114default_deleteINS_12basic_stringIcNS_11char_traitsIcEENS_9allocatorIcEEEEEclB7v170000EPS6_.exit.i.i.i1406, label %if.then.i.i.i.i.i1405

if.then.i.i.i.i.i1405:                            ; preds = %delete.notnull.i.i.i.i1403
  %__data_.i.i.i.i.i.i1404 = getelementptr inbounds %"struct.std::__1::basic_string<char>::__long", ptr %207, i64 0, i32 2
  %208 = load ptr, ptr %__data_.i.i.i.i.i.i1404, align 8, !tbaa !11
  call void @_ZdlPv(ptr noundef %208) #23
  br label %_ZNKSt3__114default_deleteINS_12basic_stringIcNS_11char_traitsIcEENS_9allocatorIcEEEEEclB7v170000EPS6_.exit.i.i.i1406

_ZNKSt3__114default_deleteINS_12basic_stringIcNS_11char_traitsIcEENS_9allocatorIcEEEEEclB7v170000EPS6_.exit.i.i.i1406: ; preds = %if.then.i.i.i.i.i1405, %delete.notnull.i.i.i.i1403
  call void @_ZdlPv(ptr noundef nonnull %207) #23
  br label %_ZN7testing15AssertionResultD2Ev.exit1407

_ZN7testing15AssertionResultD2Ev.exit1407:        ; preds = %if.end403, %_ZNKSt3__114default_deleteINS_12basic_stringIcNS_11char_traitsIcEENS_9allocatorIcEEEEEclB7v170000EPS6_.exit.i.i.i1406
  call void @llvm.lifetime.end.p0(i64 16, ptr nonnull %gtest_ar382) #22
  call void @llvm.lifetime.end.p0(i64 8, ptr nonnull %pos347) #22
  call void @llvm.lifetime.start.p0(i64 8, ptr nonnull %pos407) #22
  store i64 0, ptr %pos407, align 8, !tbaa !8
  call void @llvm.lifetime.start.p0(i64 16, ptr nonnull %gtest_ar408) #22
  call void @llvm.lifetime.start.p0(i64 8, ptr nonnull %ref.tmp409) #22
  store i64 4112, ptr %ref.tmp409, align 8, !tbaa !8
  call void @llvm.lifetime.start.p0(i64 8, ptr nonnull %ref.tmp410) #22
  call void @llvm.lifetime.start.p0(i64 24, ptr nonnull %ref.tmp411) #22
  store i8 8, ptr %ref.tmp411, align 8
  %__data_.i.i.i1415 = getelementptr inbounds %"struct.std::__1::basic_string<char>::__short", ptr %ref.tmp411, i64 0, i32 2
  %cmp.i24.i.i1425 = icmp ugt ptr %__data_.i.i.i1415, @.str.28
  %add.ptr.i.i.i1426 = getelementptr inbounds %"struct.std::__1::basic_string<char>::__short", ptr %ref.tmp411, i64 0, i32 2, i64 4
  %cmp1.i.i.i1427 = icmp ule ptr %add.ptr.i.i.i1426, @.str.28
  %209 = or i1 %cmp.i24.i.i1425, %cmp1.i.i.i1427
  call void @llvm.assume(i1 %209)
  store i32 808529969, ptr %__data_.i.i.i1415, align 1
  store i8 0, ptr %add.ptr.i.i.i1426, align 1, !tbaa !11
  %call414 = invoke noundef i64 @_ZNSt3__15stoulERKNS_12basic_stringIcNS_11char_traitsIcEENS_9allocatorIcEEEEPmi(ptr noundef nonnull align 8 dereferenceable(24) %ref.tmp411, ptr noundef nonnull %pos407, i32 noundef 16)
          to label %invoke.cont413 unwind label %lpad412

invoke.cont413:                                   ; preds = %_ZN7testing15AssertionResultD2Ev.exit1407
  store i64 %call414, ptr %ref.tmp410, align 8, !tbaa !8
  %210 = load i64, ptr %ref.tmp409, align 8, !tbaa !8, !noalias !87
  %cmp.i.i1429 = icmp eq i64 %210, %call414
  br i1 %cmp.i.i1429, label %if.then.i.i1430, label %if.end.i.i1431

if.then.i.i1430:                                  ; preds = %invoke.cont413
  invoke void @_ZN7testing16AssertionSuccessEv(ptr nonnull sret(%"class.testing::AssertionResult") align 8 %gtest_ar408)
          to label %invoke.cont415 unwind label %lpad412

if.end.i.i1431:                                   ; preds = %invoke.cont413
  invoke void @_ZN7testing8internal18CmpHelperEQFailureImmEENS_15AssertionResultEPKcS4_RKT_RKT0_(ptr nonnull sret(%"class.testing::AssertionResult") align 8 %gtest_ar408, ptr noundef nonnull @.str.34, ptr noundef nonnull @.str.35, ptr noundef nonnull align 8 dereferenceable(8) %ref.tmp409, ptr noundef nonnull align 8 dereferenceable(8) %ref.tmp410)
          to label %invoke.cont415 unwind label %lpad412

invoke.cont415:                                   ; preds = %if.then.i.i1430, %if.end.i.i1431
  %bf.load.i.i1435 = load i8, ptr %ref.tmp411, align 8
  %bf.clear.i.i1436 = and i8 %bf.load.i.i1435, 1
  %tobool.i.not.i1437 = icmp eq i8 %bf.clear.i.i1436, 0
  br i1 %tobool.i.not.i1437, label %_ZNSt3__112basic_stringIcNS_11char_traitsIcEENS_9allocatorIcEEED2Ev.exit1440, label %if.then.i1439

if.then.i1439:                                    ; preds = %invoke.cont415
  %__data_.i.i1438 = getelementptr inbounds %"struct.std::__1::basic_string<char>::__long", ptr %ref.tmp411, i64 0, i32 2
  %211 = load ptr, ptr %__data_.i.i1438, align 8, !tbaa !11
  call void @_ZdlPv(ptr noundef %211) #23
  br label %_ZNSt3__112basic_stringIcNS_11char_traitsIcEENS_9allocatorIcEEED2Ev.exit1440

_ZNSt3__112basic_stringIcNS_11char_traitsIcEENS_9allocatorIcEEED2Ev.exit1440: ; preds = %invoke.cont415, %if.then.i1439
  call void @llvm.lifetime.end.p0(i64 24, ptr nonnull %ref.tmp411) #22
  call void @llvm.lifetime.end.p0(i64 8, ptr nonnull %ref.tmp410) #22
  call void @llvm.lifetime.end.p0(i64 8, ptr nonnull %ref.tmp409) #22
  %212 = load i8, ptr %gtest_ar408, align 8, !tbaa !12, !range !19, !noundef !20
  %tobool.i1441.not = icmp eq i8 %212, 0
  br i1 %tobool.i1441.not, label %if.else424, label %if.end439

ehcleanup406:                                     ; preds = %ehcleanup402, %ehcleanup381
  %.pn673.pn.pn = phi { ptr, i32 } [ %.pn673.pn, %ehcleanup402 ], [ %.pn669.pn.pn, %ehcleanup381 ]
  call void @llvm.lifetime.end.p0(i64 8, ptr nonnull %pos347) #22
  br label %eh.resume

lpad412:                                          ; preds = %if.end.i.i1431, %if.then.i.i1430, %_ZN7testing15AssertionResultD2Ev.exit1407
  %213 = landingpad { ptr, i32 }
          cleanup
  %bf.load.i.i1442 = load i8, ptr %ref.tmp411, align 8
  %bf.clear.i.i1443 = and i8 %bf.load.i.i1442, 1
  %tobool.i.not.i1444 = icmp eq i8 %bf.clear.i.i1443, 0
  br i1 %tobool.i.not.i1444, label %_ZNSt3__112basic_stringIcNS_11char_traitsIcEENS_9allocatorIcEEED2Ev.exit1447, label %if.then.i1446

if.then.i1446:                                    ; preds = %lpad412
  %__data_.i.i1445 = getelementptr inbounds %"struct.std::__1::basic_string<char>::__long", ptr %ref.tmp411, i64 0, i32 2
  %214 = load ptr, ptr %__data_.i.i1445, align 8, !tbaa !11
  call void @_ZdlPv(ptr noundef %214) #23
  br label %_ZNSt3__112basic_stringIcNS_11char_traitsIcEENS_9allocatorIcEEED2Ev.exit1447

_ZNSt3__112basic_stringIcNS_11char_traitsIcEENS_9allocatorIcEEED2Ev.exit1447: ; preds = %lpad412, %if.then.i1446
  call void @llvm.lifetime.end.p0(i64 24, ptr nonnull %ref.tmp411) #22
  call void @llvm.lifetime.end.p0(i64 8, ptr nonnull %ref.tmp410) #22
  call void @llvm.lifetime.end.p0(i64 8, ptr nonnull %ref.tmp409) #22
  br label %ehcleanup441

if.else424:                                       ; preds = %_ZNSt3__112basic_stringIcNS_11char_traitsIcEENS_9allocatorIcEEED2Ev.exit1440
  call void @llvm.lifetime.start.p0(i64 8, ptr nonnull %ref.tmp425) #22
  invoke void @_ZN7testing7MessageC1Ev(ptr noundef nonnull align 8 dereferenceable(8) %ref.tmp425)
          to label %invoke.cont427 unwind label %lpad426

invoke.cont427:                                   ; preds = %if.else424
  call void @llvm.lifetime.start.p0(i64 8, ptr nonnull %ref.tmp428) #22
  %message_.i.i1448 = getelementptr inbounds %"class.testing::AssertionResult", ptr %gtest_ar408, i64 0, i32 1
  %215 = load ptr, ptr %message_.i.i1448, align 8, !tbaa !21
  %cmp.not.i.i1449 = icmp eq ptr %215, null
  br i1 %cmp.not.i.i1449, label %invoke.cont430, label %cond.true.i.i1456

cond.true.i.i1456:                                ; preds = %invoke.cont427
  %bf.load.i.i.i.i.i.i1450 = load i8, ptr %215, align 8
  %bf.clear.i.i.i.i.i.i1451 = and i8 %bf.load.i.i.i.i.i.i1450, 1
  %tobool.i.not.i.i.i.i.i1452 = icmp eq i8 %bf.clear.i.i.i.i.i.i1451, 0
  %__data_.i.i.i.i.i.i1453 = getelementptr inbounds %"struct.std::__1::basic_string<char>::__long", ptr %215, i64 0, i32 2
  %216 = load ptr, ptr %__data_.i.i.i.i.i.i1453, align 8
  %__data_.i4.i.i.i.i.i1454 = getelementptr inbounds %"struct.std::__1::basic_string<char>::__short", ptr %215, i64 0, i32 2
  %cond.i.i.i.i.i1455 = select i1 %tobool.i.not.i.i.i.i.i1452, ptr %__data_.i4.i.i.i.i.i1454, ptr %216
  br label %invoke.cont430

invoke.cont430:                                   ; preds = %cond.true.i.i1456, %invoke.cont427
  %cond.i.i1457 = phi ptr [ %cond.i.i.i.i.i1455, %cond.true.i.i1456 ], [ @.str.46, %invoke.cont427 ]
  invoke void @_ZN7testing8internal12AssertHelperC1ENS_14TestPartResult4TypeEPKciS5_(ptr noundef nonnull align 8 dereferenceable(8) %ref.tmp428, i32 noundef 1, ptr noundef nonnull @.str.3, i32 noundef 57, ptr noundef %cond.i.i1457)
          to label %invoke.cont432 unwind label %lpad429

invoke.cont432:                                   ; preds = %invoke.cont430
  invoke void @_ZNK7testing8internal12AssertHelperaSERKNS_7MessageE(ptr noundef nonnull align 8 dereferenceable(8) %ref.tmp428, ptr noundef nonnull align 8 dereferenceable(8) %ref.tmp425)
          to label %invoke.cont434 unwind label %lpad433

invoke.cont434:                                   ; preds = %invoke.cont432
  call void @_ZN7testing8internal12AssertHelperD1Ev(ptr noundef nonnull align 8 dereferenceable(8) %ref.tmp428) #22
  call void @llvm.lifetime.end.p0(i64 8, ptr nonnull %ref.tmp428) #22
  %217 = load ptr, ptr %ref.tmp425, align 8, !tbaa !21
  store ptr null, ptr %ref.tmp425, align 8, !tbaa !21
  %tobool.not.i.i.i1459 = icmp eq ptr %217, null
  br i1 %tobool.not.i.i.i1459, label %_ZN7testing7MessageD2Ev.exit1463, label %_ZNKSt3__114default_deleteINS_18basic_stringstreamIcNS_11char_traitsIcEENS_9allocatorIcEEEEEclB7v170000EPS6_.exit.i.i.i1462

_ZNKSt3__114default_deleteINS_18basic_stringstreamIcNS_11char_traitsIcEENS_9allocatorIcEEEEEclB7v170000EPS6_.exit.i.i.i1462: ; preds = %invoke.cont434
  %vtable.i.i.i.i1460 = load ptr, ptr %217, align 8, !tbaa !5
  %vfn.i.i.i.i1461 = getelementptr inbounds ptr, ptr %vtable.i.i.i.i1460, i64 1
  %218 = load ptr, ptr %vfn.i.i.i.i1461, align 8
  call void %218(ptr noundef nonnull align 8 dereferenceable(128) %217) #22
  br label %_ZN7testing7MessageD2Ev.exit1463

_ZN7testing7MessageD2Ev.exit1463:                 ; preds = %invoke.cont434, %_ZNKSt3__114default_deleteINS_18basic_stringstreamIcNS_11char_traitsIcEENS_9allocatorIcEEEEEclB7v170000EPS6_.exit.i.i.i1462
  call void @llvm.lifetime.end.p0(i64 8, ptr nonnull %ref.tmp425) #22
  br label %if.end439

lpad426:                                          ; preds = %if.else424
  %219 = landingpad { ptr, i32 }
          cleanup
  br label %ehcleanup438

lpad429:                                          ; preds = %invoke.cont430
  %220 = landingpad { ptr, i32 }
          cleanup
  br label %ehcleanup436

lpad433:                                          ; preds = %invoke.cont432
  %221 = landingpad { ptr, i32 }
          cleanup
  call void @_ZN7testing8internal12AssertHelperD1Ev(ptr noundef nonnull align 8 dereferenceable(8) %ref.tmp428) #22
  br label %ehcleanup436

ehcleanup436:                                     ; preds = %lpad433, %lpad429
  %.pn677 = phi { ptr, i32 } [ %221, %lpad433 ], [ %220, %lpad429 ]
  call void @llvm.lifetime.end.p0(i64 8, ptr nonnull %ref.tmp428) #22
  %222 = load ptr, ptr %ref.tmp425, align 8, !tbaa !21
  store ptr null, ptr %ref.tmp425, align 8, !tbaa !21
  %tobool.not.i.i.i1464 = icmp eq ptr %222, null
  br i1 %tobool.not.i.i.i1464, label %ehcleanup438, label %_ZNKSt3__114default_deleteINS_18basic_stringstreamIcNS_11char_traitsIcEENS_9allocatorIcEEEEEclB7v170000EPS6_.exit.i.i.i1467

_ZNKSt3__114default_deleteINS_18basic_stringstreamIcNS_11char_traitsIcEENS_9allocatorIcEEEEEclB7v170000EPS6_.exit.i.i.i1467: ; preds = %ehcleanup436
  %vtable.i.i.i.i1465 = load ptr, ptr %222, align 8, !tbaa !5
  %vfn.i.i.i.i1466 = getelementptr inbounds ptr, ptr %vtable.i.i.i.i1465, i64 1
  %223 = load ptr, ptr %vfn.i.i.i.i1466, align 8
  call void %223(ptr noundef nonnull align 8 dereferenceable(128) %222) #22
  br label %ehcleanup438

ehcleanup438:                                     ; preds = %_ZNKSt3__114default_deleteINS_18basic_stringstreamIcNS_11char_traitsIcEENS_9allocatorIcEEEEEclB7v170000EPS6_.exit.i.i.i1467, %ehcleanup436, %lpad426
  %.pn677.pn = phi { ptr, i32 } [ %219, %lpad426 ], [ %.pn677, %ehcleanup436 ], [ %.pn677, %_ZNKSt3__114default_deleteINS_18basic_stringstreamIcNS_11char_traitsIcEENS_9allocatorIcEEEEEclB7v170000EPS6_.exit.i.i.i1467 ]
  call void @llvm.lifetime.end.p0(i64 8, ptr nonnull %ref.tmp425) #22
  call void @_ZN7testing15AssertionResultD2Ev(ptr noundef nonnull align 8 dereferenceable(16) %gtest_ar408) #22
  br label %ehcleanup441

if.end439:                                        ; preds = %_ZNSt3__112basic_stringIcNS_11char_traitsIcEENS_9allocatorIcEEED2Ev.exit1440, %_ZN7testing7MessageD2Ev.exit1463
  %message_.i1469 = getelementptr inbounds %"class.testing::AssertionResult", ptr %gtest_ar408, i64 0, i32 1
  %224 = load ptr, ptr %message_.i1469, align 8, !tbaa !21
  store ptr null, ptr %message_.i1469, align 8, !tbaa !21
  %tobool.not.i.i.i1470 = icmp eq ptr %224, null
  br i1 %tobool.not.i.i.i1470, label %_ZN7testing15AssertionResultD2Ev.exit1478, label %delete.notnull.i.i.i.i1474

delete.notnull.i.i.i.i1474:                       ; preds = %if.end439
  %bf.load.i.i.i.i.i.i1471 = load i8, ptr %224, align 8
  %bf.clear.i.i.i.i.i.i1472 = and i8 %bf.load.i.i.i.i.i.i1471, 1
  %tobool.i.not.i.i.i.i.i1473 = icmp eq i8 %bf.clear.i.i.i.i.i.i1472, 0
  br i1 %tobool.i.not.i.i.i.i.i1473, label %_ZNKSt3__114default_deleteINS_12basic_stringIcNS_11char_traitsIcEENS_9allocatorIcEEEEEclB7v170000EPS6_.exit.i.i.i1477, label %if.then.i.i.i.i.i1476

if.then.i.i.i.i.i1476:                            ; preds = %delete.notnull.i.i.i.i1474
  %__data_.i.i.i.i.i.i1475 = getelementptr inbounds %"struct.std::__1::basic_string<char>::__long", ptr %224, i64 0, i32 2
  %225 = load ptr, ptr %__data_.i.i.i.i.i.i1475, align 8, !tbaa !11
  call void @_ZdlPv(ptr noundef %225) #23
  br label %_ZNKSt3__114default_deleteINS_12basic_stringIcNS_11char_traitsIcEENS_9allocatorIcEEEEEclB7v170000EPS6_.exit.i.i.i1477

_ZNKSt3__114default_deleteINS_12basic_stringIcNS_11char_traitsIcEENS_9allocatorIcEEEEEclB7v170000EPS6_.exit.i.i.i1477: ; preds = %if.then.i.i.i.i.i1476, %delete.notnull.i.i.i.i1474
  call void @_ZdlPv(ptr noundef nonnull %224) #23
  br label %_ZN7testing15AssertionResultD2Ev.exit1478

_ZN7testing15AssertionResultD2Ev.exit1478:        ; preds = %if.end439, %_ZNKSt3__114default_deleteINS_12basic_stringIcNS_11char_traitsIcEENS_9allocatorIcEEEEEclB7v170000EPS6_.exit.i.i.i1477
  call void @llvm.lifetime.end.p0(i64 16, ptr nonnull %gtest_ar408) #22
  call void @llvm.lifetime.start.p0(i64 16, ptr nonnull %gtest_ar442) #22
  call void @llvm.lifetime.start.p0(i64 8, ptr nonnull %ref.tmp443) #22
  store i64 4, ptr %ref.tmp443, align 8, !tbaa !8
  %226 = load i64, ptr %pos407, align 8, !tbaa !8, !noalias !92
  %cmp.i.i1479 = icmp eq i64 %226, 4
  br i1 %cmp.i.i1479, label %if.then.i.i1480, label %if.end.i.i1481

if.then.i.i1480:                                  ; preds = %_ZN7testing15AssertionResultD2Ev.exit1478
  call void @_ZN7testing16AssertionSuccessEv(ptr nonnull sret(%"class.testing::AssertionResult") align 8 %gtest_ar442)
  br label %_ZN7testing8internal8EqHelper7CompareImmLPv0EEENS_15AssertionResultEPKcS6_RKT_RKT0_.exit1482

if.end.i.i1481:                                   ; preds = %_ZN7testing15AssertionResultD2Ev.exit1478
  call void @_ZN7testing8internal18CmpHelperEQFailureImmEENS_15AssertionResultEPKcS4_RKT_RKT0_(ptr nonnull sret(%"class.testing::AssertionResult") align 8 %gtest_ar442, ptr noundef nonnull @.str.29, ptr noundef nonnull @.str.14, ptr noundef nonnull align 8 dereferenceable(8) %ref.tmp443, ptr noundef nonnull align 8 dereferenceable(8) %pos407)
  br label %_ZN7testing8internal8EqHelper7CompareImmLPv0EEENS_15AssertionResultEPKcS6_RKT_RKT0_.exit1482

_ZN7testing8internal8EqHelper7CompareImmLPv0EEENS_15AssertionResultEPKcS6_RKT_RKT0_.exit1482: ; preds = %if.then.i.i1480, %if.end.i.i1481
  call void @llvm.lifetime.end.p0(i64 8, ptr nonnull %ref.tmp443) #22
  %227 = load i8, ptr %gtest_ar442, align 8, !tbaa !12, !range !19, !noundef !20
  %tobool.i1483.not = icmp eq i8 %227, 0
  br i1 %tobool.i1483.not, label %if.else448, label %if.end463

ehcleanup441:                                     ; preds = %ehcleanup438, %_ZNSt3__112basic_stringIcNS_11char_traitsIcEENS_9allocatorIcEEED2Ev.exit1447
  %.pn677.pn.pn = phi { ptr, i32 } [ %.pn677.pn, %ehcleanup438 ], [ %213, %_ZNSt3__112basic_stringIcNS_11char_traitsIcEENS_9allocatorIcEEED2Ev.exit1447 ]
  call void @llvm.lifetime.end.p0(i64 16, ptr nonnull %gtest_ar408) #22
  br label %ehcleanup466

if.else448:                                       ; preds = %_ZN7testing8internal8EqHelper7CompareImmLPv0EEENS_15AssertionResultEPKcS6_RKT_RKT0_.exit1482
  call void @llvm.lifetime.start.p0(i64 8, ptr nonnull %ref.tmp449) #22
  invoke void @_ZN7testing7MessageC1Ev(ptr noundef nonnull align 8 dereferenceable(8) %ref.tmp449)
          to label %invoke.cont451 unwind label %lpad450

invoke.cont451:                                   ; preds = %if.else448
  call void @llvm.lifetime.start.p0(i64 8, ptr nonnull %ref.tmp452) #22
  %message_.i.i1484 = getelementptr inbounds %"class.testing::AssertionResult", ptr %gtest_ar442, i64 0, i32 1
  %228 = load ptr, ptr %message_.i.i1484, align 8, !tbaa !21
  %cmp.not.i.i1485 = icmp eq ptr %228, null
  br i1 %cmp.not.i.i1485, label %invoke.cont454, label %cond.true.i.i1492

cond.true.i.i1492:                                ; preds = %invoke.cont451
  %bf.load.i.i.i.i.i.i1486 = load i8, ptr %228, align 8
  %bf.clear.i.i.i.i.i.i1487 = and i8 %bf.load.i.i.i.i.i.i1486, 1
  %tobool.i.not.i.i.i.i.i1488 = icmp eq i8 %bf.clear.i.i.i.i.i.i1487, 0
  %__data_.i.i.i.i.i.i1489 = getelementptr inbounds %"struct.std::__1::basic_string<char>::__long", ptr %228, i64 0, i32 2
  %229 = load ptr, ptr %__data_.i.i.i.i.i.i1489, align 8
  %__data_.i4.i.i.i.i.i1490 = getelementptr inbounds %"struct.std::__1::basic_string<char>::__short", ptr %228, i64 0, i32 2
  %cond.i.i.i.i.i1491 = select i1 %tobool.i.not.i.i.i.i.i1488, ptr %__data_.i4.i.i.i.i.i1490, ptr %229
  br label %invoke.cont454

invoke.cont454:                                   ; preds = %cond.true.i.i1492, %invoke.cont451
  %cond.i.i1493 = phi ptr [ %cond.i.i.i.i.i1491, %cond.true.i.i1492 ], [ @.str.46, %invoke.cont451 ]
  invoke void @_ZN7testing8internal12AssertHelperC1ENS_14TestPartResult4TypeEPKciS5_(ptr noundef nonnull align 8 dereferenceable(8) %ref.tmp452, i32 noundef 1, ptr noundef nonnull @.str.3, i32 noundef 58, ptr noundef %cond.i.i1493)
          to label %invoke.cont456 unwind label %lpad453

invoke.cont456:                                   ; preds = %invoke.cont454
  invoke void @_ZNK7testing8internal12AssertHelperaSERKNS_7MessageE(ptr noundef nonnull align 8 dereferenceable(8) %ref.tmp452, ptr noundef nonnull align 8 dereferenceable(8) %ref.tmp449)
          to label %invoke.cont458 unwind label %lpad457

invoke.cont458:                                   ; preds = %invoke.cont456
  call void @_ZN7testing8internal12AssertHelperD1Ev(ptr noundef nonnull align 8 dereferenceable(8) %ref.tmp452) #22
  call void @llvm.lifetime.end.p0(i64 8, ptr nonnull %ref.tmp452) #22
  %230 = load ptr, ptr %ref.tmp449, align 8, !tbaa !21
  store ptr null, ptr %ref.tmp449, align 8, !tbaa !21
  %tobool.not.i.i.i1495 = icmp eq ptr %230, null
  br i1 %tobool.not.i.i.i1495, label %_ZN7testing7MessageD2Ev.exit1499, label %_ZNKSt3__114default_deleteINS_18basic_stringstreamIcNS_11char_traitsIcEENS_9allocatorIcEEEEEclB7v170000EPS6_.exit.i.i.i1498

_ZNKSt3__114default_deleteINS_18basic_stringstreamIcNS_11char_traitsIcEENS_9allocatorIcEEEEEclB7v170000EPS6_.exit.i.i.i1498: ; preds = %invoke.cont458
  %vtable.i.i.i.i1496 = load ptr, ptr %230, align 8, !tbaa !5
  %vfn.i.i.i.i1497 = getelementptr inbounds ptr, ptr %vtable.i.i.i.i1496, i64 1
  %231 = load ptr, ptr %vfn.i.i.i.i1497, align 8
  call void %231(ptr noundef nonnull align 8 dereferenceable(128) %230) #22
  br label %_ZN7testing7MessageD2Ev.exit1499

_ZN7testing7MessageD2Ev.exit1499:                 ; preds = %invoke.cont458, %_ZNKSt3__114default_deleteINS_18basic_stringstreamIcNS_11char_traitsIcEENS_9allocatorIcEEEEEclB7v170000EPS6_.exit.i.i.i1498
  call void @llvm.lifetime.end.p0(i64 8, ptr nonnull %ref.tmp449) #22
  br label %if.end463

lpad450:                                          ; preds = %if.else448
  %232 = landingpad { ptr, i32 }
          cleanup
  br label %ehcleanup462

lpad453:                                          ; preds = %invoke.cont454
  %233 = landingpad { ptr, i32 }
          cleanup
  br label %ehcleanup460

lpad457:                                          ; preds = %invoke.cont456
  %234 = landingpad { ptr, i32 }
          cleanup
  call void @_ZN7testing8internal12AssertHelperD1Ev(ptr noundef nonnull align 8 dereferenceable(8) %ref.tmp452) #22
  br label %ehcleanup460

ehcleanup460:                                     ; preds = %lpad457, %lpad453
  %.pn681 = phi { ptr, i32 } [ %234, %lpad457 ], [ %233, %lpad453 ]
  call void @llvm.lifetime.end.p0(i64 8, ptr nonnull %ref.tmp452) #22
  %235 = load ptr, ptr %ref.tmp449, align 8, !tbaa !21
  store ptr null, ptr %ref.tmp449, align 8, !tbaa !21
  %tobool.not.i.i.i1500 = icmp eq ptr %235, null
  br i1 %tobool.not.i.i.i1500, label %ehcleanup462, label %_ZNKSt3__114default_deleteINS_18basic_stringstreamIcNS_11char_traitsIcEENS_9allocatorIcEEEEEclB7v170000EPS6_.exit.i.i.i1503

_ZNKSt3__114default_deleteINS_18basic_stringstreamIcNS_11char_traitsIcEENS_9allocatorIcEEEEEclB7v170000EPS6_.exit.i.i.i1503: ; preds = %ehcleanup460
  %vtable.i.i.i.i1501 = load ptr, ptr %235, align 8, !tbaa !5
  %vfn.i.i.i.i1502 = getelementptr inbounds ptr, ptr %vtable.i.i.i.i1501, i64 1
  %236 = load ptr, ptr %vfn.i.i.i.i1502, align 8
  call void %236(ptr noundef nonnull align 8 dereferenceable(128) %235) #22
  br label %ehcleanup462

ehcleanup462:                                     ; preds = %_ZNKSt3__114default_deleteINS_18basic_stringstreamIcNS_11char_traitsIcEENS_9allocatorIcEEEEEclB7v170000EPS6_.exit.i.i.i1503, %ehcleanup460, %lpad450
  %.pn681.pn = phi { ptr, i32 } [ %232, %lpad450 ], [ %.pn681, %ehcleanup460 ], [ %.pn681, %_ZNKSt3__114default_deleteINS_18basic_stringstreamIcNS_11char_traitsIcEENS_9allocatorIcEEEEEclB7v170000EPS6_.exit.i.i.i1503 ]
  call void @llvm.lifetime.end.p0(i64 8, ptr nonnull %ref.tmp449) #22
  call void @_ZN7testing15AssertionResultD2Ev(ptr noundef nonnull align 8 dereferenceable(16) %gtest_ar442) #22
  call void @llvm.lifetime.end.p0(i64 16, ptr nonnull %gtest_ar442) #22
  br label %ehcleanup466

if.end463:                                        ; preds = %_ZN7testing8internal8EqHelper7CompareImmLPv0EEENS_15AssertionResultEPKcS6_RKT_RKT0_.exit1482, %_ZN7testing7MessageD2Ev.exit1499
  %message_.i1505 = getelementptr inbounds %"class.testing::AssertionResult", ptr %gtest_ar442, i64 0, i32 1
  %237 = load ptr, ptr %message_.i1505, align 8, !tbaa !21
  store ptr null, ptr %message_.i1505, align 8, !tbaa !21
  %tobool.not.i.i.i1506 = icmp eq ptr %237, null
  br i1 %tobool.not.i.i.i1506, label %_ZN7testing15AssertionResultD2Ev.exit1514, label %delete.notnull.i.i.i.i1510

delete.notnull.i.i.i.i1510:                       ; preds = %if.end463
  %bf.load.i.i.i.i.i.i1507 = load i8, ptr %237, align 8
  %bf.clear.i.i.i.i.i.i1508 = and i8 %bf.load.i.i.i.i.i.i1507, 1
  %tobool.i.not.i.i.i.i.i1509 = icmp eq i8 %bf.clear.i.i.i.i.i.i1508, 0
  br i1 %tobool.i.not.i.i.i.i.i1509, label %_ZNKSt3__114default_deleteINS_12basic_stringIcNS_11char_traitsIcEENS_9allocatorIcEEEEEclB7v170000EPS6_.exit.i.i.i1513, label %if.then.i.i.i.i.i1512

if.then.i.i.i.i.i1512:                            ; preds = %delete.notnull.i.i.i.i1510
  %__data_.i.i.i.i.i.i1511 = getelementptr inbounds %"struct.std::__1::basic_string<char>::__long", ptr %237, i64 0, i32 2
  %238 = load ptr, ptr %__data_.i.i.i.i.i.i1511, align 8, !tbaa !11
  call void @_ZdlPv(ptr noundef %238) #23
  br label %_ZNKSt3__114default_deleteINS_12basic_stringIcNS_11char_traitsIcEENS_9allocatorIcEEEEEclB7v170000EPS6_.exit.i.i.i1513

_ZNKSt3__114default_deleteINS_12basic_stringIcNS_11char_traitsIcEENS_9allocatorIcEEEEEclB7v170000EPS6_.exit.i.i.i1513: ; preds = %if.then.i.i.i.i.i1512, %delete.notnull.i.i.i.i1510
  call void @_ZdlPv(ptr noundef nonnull %237) #23
  br label %_ZN7testing15AssertionResultD2Ev.exit1514

_ZN7testing15AssertionResultD2Ev.exit1514:        ; preds = %if.end463, %_ZNKSt3__114default_deleteINS_12basic_stringIcNS_11char_traitsIcEENS_9allocatorIcEEEEEclB7v170000EPS6_.exit.i.i.i1513
  call void @llvm.lifetime.end.p0(i64 16, ptr nonnull %gtest_ar442) #22
  call void @llvm.lifetime.end.p0(i64 8, ptr nonnull %pos407) #22
  call void @llvm.lifetime.start.p0(i64 8, ptr nonnull %pos467) #22
  store i64 0, ptr %pos467, align 8, !tbaa !8
  call void @llvm.lifetime.start.p0(i64 16, ptr nonnull %gtest_ar468) #22
  call void @llvm.lifetime.start.p0(i64 8, ptr nonnull %ref.tmp469) #22
  store i64 48879, ptr %ref.tmp469, align 8, !tbaa !8
  call void @llvm.lifetime.start.p0(i64 8, ptr nonnull %ref.tmp470) #22
  call void @llvm.lifetime.start.p0(i64 24, ptr nonnull %ref.tmp471) #22
  store i8 8, ptr %ref.tmp471, align 8
  %__data_.i.i.i1522 = getelementptr inbounds %"struct.std::__1::basic_string<char>::__short", ptr %ref.tmp471, i64 0, i32 2
  %cmp.i24.i.i1532 = icmp ugt ptr %__data_.i.i.i1522, @.str.38
  %add.ptr.i.i.i1533 = getelementptr inbounds %"struct.std::__1::basic_string<char>::__short", ptr %ref.tmp471, i64 0, i32 2, i64 4
  %cmp1.i.i.i1534 = icmp ule ptr %add.ptr.i.i.i1533, @.str.38
  %239 = or i1 %cmp.i24.i.i1532, %cmp1.i.i.i1534
  call void @llvm.assume(i1 %239)
  store i32 1178944834, ptr %__data_.i.i.i1522, align 1
  store i8 0, ptr %add.ptr.i.i.i1533, align 1, !tbaa !11
  %call474 = invoke noundef i64 @_ZNSt3__15stoulERKNS_12basic_stringIcNS_11char_traitsIcEENS_9allocatorIcEEEEPmi(ptr noundef nonnull align 8 dereferenceable(24) %ref.tmp471, ptr noundef nonnull %pos467, i32 noundef 16)
          to label %invoke.cont473 unwind label %lpad472

invoke.cont473:                                   ; preds = %_ZN7testing15AssertionResultD2Ev.exit1514
  store i64 %call474, ptr %ref.tmp470, align 8, !tbaa !8
  %240 = load i64, ptr %ref.tmp469, align 8, !tbaa !8, !noalias !97
  %cmp.i.i1536 = icmp eq i64 %240, %call474
  br i1 %cmp.i.i1536, label %if.then.i.i1537, label %if.end.i.i1538

if.then.i.i1537:                                  ; preds = %invoke.cont473
  invoke void @_ZN7testing16AssertionSuccessEv(ptr nonnull sret(%"class.testing::AssertionResult") align 8 %gtest_ar468)
          to label %invoke.cont475 unwind label %lpad472

if.end.i.i1538:                                   ; preds = %invoke.cont473
  invoke void @_ZN7testing8internal18CmpHelperEQFailureImmEENS_15AssertionResultEPKcS4_RKT_RKT0_(ptr nonnull sret(%"class.testing::AssertionResult") align 8 %gtest_ar468, ptr noundef nonnull @.str.36, ptr noundef nonnull @.str.37, ptr noundef nonnull align 8 dereferenceable(8) %ref.tmp469, ptr noundef nonnull align 8 dereferenceable(8) %ref.tmp470)
          to label %invoke.cont475 unwind label %lpad472

invoke.cont475:                                   ; preds = %if.then.i.i1537, %if.end.i.i1538
  %bf.load.i.i1542 = load i8, ptr %ref.tmp471, align 8
  %bf.clear.i.i1543 = and i8 %bf.load.i.i1542, 1
  %tobool.i.not.i1544 = icmp eq i8 %bf.clear.i.i1543, 0
  br i1 %tobool.i.not.i1544, label %_ZNSt3__112basic_stringIcNS_11char_traitsIcEENS_9allocatorIcEEED2Ev.exit1547, label %if.then.i1546

if.then.i1546:                                    ; preds = %invoke.cont475
  %__data_.i.i1545 = getelementptr inbounds %"struct.std::__1::basic_string<char>::__long", ptr %ref.tmp471, i64 0, i32 2
  %241 = load ptr, ptr %__data_.i.i1545, align 8, !tbaa !11
  call void @_ZdlPv(ptr noundef %241) #23
  br label %_ZNSt3__112basic_stringIcNS_11char_traitsIcEENS_9allocatorIcEEED2Ev.exit1547

_ZNSt3__112basic_stringIcNS_11char_traitsIcEENS_9allocatorIcEEED2Ev.exit1547: ; preds = %invoke.cont475, %if.then.i1546
  call void @llvm.lifetime.end.p0(i64 24, ptr nonnull %ref.tmp471) #22
  call void @llvm.lifetime.end.p0(i64 8, ptr nonnull %ref.tmp470) #22
  call void @llvm.lifetime.end.p0(i64 8, ptr nonnull %ref.tmp469) #22
  %242 = load i8, ptr %gtest_ar468, align 8, !tbaa !12, !range !19, !noundef !20
  %tobool.i1548.not = icmp eq i8 %242, 0
  br i1 %tobool.i1548.not, label %if.else484, label %if.end499

ehcleanup466:                                     ; preds = %ehcleanup462, %ehcleanup441
  %.pn681.pn.pn = phi { ptr, i32 } [ %.pn681.pn, %ehcleanup462 ], [ %.pn677.pn.pn, %ehcleanup441 ]
  call void @llvm.lifetime.end.p0(i64 8, ptr nonnull %pos407) #22
  br label %eh.resume

lpad472:                                          ; preds = %if.end.i.i1538, %if.then.i.i1537, %_ZN7testing15AssertionResultD2Ev.exit1514
  %243 = landingpad { ptr, i32 }
          cleanup
  %bf.load.i.i1549 = load i8, ptr %ref.tmp471, align 8
  %bf.clear.i.i1550 = and i8 %bf.load.i.i1549, 1
  %tobool.i.not.i1551 = icmp eq i8 %bf.clear.i.i1550, 0
  br i1 %tobool.i.not.i1551, label %_ZNSt3__112basic_stringIcNS_11char_traitsIcEENS_9allocatorIcEEED2Ev.exit1554, label %if.then.i1553

if.then.i1553:                                    ; preds = %lpad472
  %__data_.i.i1552 = getelementptr inbounds %"struct.std::__1::basic_string<char>::__long", ptr %ref.tmp471, i64 0, i32 2
  %244 = load ptr, ptr %__data_.i.i1552, align 8, !tbaa !11
  call void @_ZdlPv(ptr noundef %244) #23
  br label %_ZNSt3__112basic_stringIcNS_11char_traitsIcEENS_9allocatorIcEEED2Ev.exit1554

_ZNSt3__112basic_stringIcNS_11char_traitsIcEENS_9allocatorIcEEED2Ev.exit1554: ; preds = %lpad472, %if.then.i1553
  call void @llvm.lifetime.end.p0(i64 24, ptr nonnull %ref.tmp471) #22
  call void @llvm.lifetime.end.p0(i64 8, ptr nonnull %ref.tmp470) #22
  call void @llvm.lifetime.end.p0(i64 8, ptr nonnull %ref.tmp469) #22
  br label %ehcleanup501

if.else484:                                       ; preds = %_ZNSt3__112basic_stringIcNS_11char_traitsIcEENS_9allocatorIcEEED2Ev.exit1547
  call void @llvm.lifetime.start.p0(i64 8, ptr nonnull %ref.tmp485) #22
  invoke void @_ZN7testing7MessageC1Ev(ptr noundef nonnull align 8 dereferenceable(8) %ref.tmp485)
          to label %invoke.cont487 unwind label %lpad486

invoke.cont487:                                   ; preds = %if.else484
  call void @llvm.lifetime.start.p0(i64 8, ptr nonnull %ref.tmp488) #22
  %message_.i.i1555 = getelementptr inbounds %"class.testing::AssertionResult", ptr %gtest_ar468, i64 0, i32 1
  %245 = load ptr, ptr %message_.i.i1555, align 8, !tbaa !21
  %cmp.not.i.i1556 = icmp eq ptr %245, null
  br i1 %cmp.not.i.i1556, label %invoke.cont490, label %cond.true.i.i1563

cond.true.i.i1563:                                ; preds = %invoke.cont487
  %bf.load.i.i.i.i.i.i1557 = load i8, ptr %245, align 8
  %bf.clear.i.i.i.i.i.i1558 = and i8 %bf.load.i.i.i.i.i.i1557, 1
  %tobool.i.not.i.i.i.i.i1559 = icmp eq i8 %bf.clear.i.i.i.i.i.i1558, 0
  %__data_.i.i.i.i.i.i1560 = getelementptr inbounds %"struct.std::__1::basic_string<char>::__long", ptr %245, i64 0, i32 2
  %246 = load ptr, ptr %__data_.i.i.i.i.i.i1560, align 8
  %__data_.i4.i.i.i.i.i1561 = getelementptr inbounds %"struct.std::__1::basic_string<char>::__short", ptr %245, i64 0, i32 2
  %cond.i.i.i.i.i1562 = select i1 %tobool.i.not.i.i.i.i.i1559, ptr %__data_.i4.i.i.i.i.i1561, ptr %246
  br label %invoke.cont490

invoke.cont490:                                   ; preds = %cond.true.i.i1563, %invoke.cont487
  %cond.i.i1564 = phi ptr [ %cond.i.i.i.i.i1562, %cond.true.i.i1563 ], [ @.str.46, %invoke.cont487 ]
  invoke void @_ZN7testing8internal12AssertHelperC1ENS_14TestPartResult4TypeEPKciS5_(ptr noundef nonnull align 8 dereferenceable(8) %ref.tmp488, i32 noundef 1, ptr noundef nonnull @.str.3, i32 noundef 62, ptr noundef %cond.i.i1564)
          to label %invoke.cont492 unwind label %lpad489

invoke.cont492:                                   ; preds = %invoke.cont490
  invoke void @_ZNK7testing8internal12AssertHelperaSERKNS_7MessageE(ptr noundef nonnull align 8 dereferenceable(8) %ref.tmp488, ptr noundef nonnull align 8 dereferenceable(8) %ref.tmp485)
          to label %invoke.cont494 unwind label %lpad493

invoke.cont494:                                   ; preds = %invoke.cont492
  call void @_ZN7testing8internal12AssertHelperD1Ev(ptr noundef nonnull align 8 dereferenceable(8) %ref.tmp488) #22
  call void @llvm.lifetime.end.p0(i64 8, ptr nonnull %ref.tmp488) #22
  %247 = load ptr, ptr %ref.tmp485, align 8, !tbaa !21
  store ptr null, ptr %ref.tmp485, align 8, !tbaa !21
  %tobool.not.i.i.i1566 = icmp eq ptr %247, null
  br i1 %tobool.not.i.i.i1566, label %_ZN7testing7MessageD2Ev.exit1570, label %_ZNKSt3__114default_deleteINS_18basic_stringstreamIcNS_11char_traitsIcEENS_9allocatorIcEEEEEclB7v170000EPS6_.exit.i.i.i1569

_ZNKSt3__114default_deleteINS_18basic_stringstreamIcNS_11char_traitsIcEENS_9allocatorIcEEEEEclB7v170000EPS6_.exit.i.i.i1569: ; preds = %invoke.cont494
  %vtable.i.i.i.i1567 = load ptr, ptr %247, align 8, !tbaa !5
  %vfn.i.i.i.i1568 = getelementptr inbounds ptr, ptr %vtable.i.i.i.i1567, i64 1
  %248 = load ptr, ptr %vfn.i.i.i.i1568, align 8
  call void %248(ptr noundef nonnull align 8 dereferenceable(128) %247) #22
  br label %_ZN7testing7MessageD2Ev.exit1570

_ZN7testing7MessageD2Ev.exit1570:                 ; preds = %invoke.cont494, %_ZNKSt3__114default_deleteINS_18basic_stringstreamIcNS_11char_traitsIcEENS_9allocatorIcEEEEEclB7v170000EPS6_.exit.i.i.i1569
  call void @llvm.lifetime.end.p0(i64 8, ptr nonnull %ref.tmp485) #22
  br label %if.end499

lpad486:                                          ; preds = %if.else484
  %249 = landingpad { ptr, i32 }
          cleanup
  br label %ehcleanup498

lpad489:                                          ; preds = %invoke.cont490
  %250 = landingpad { ptr, i32 }
          cleanup
  br label %ehcleanup496

lpad493:                                          ; preds = %invoke.cont492
  %251 = landingpad { ptr, i32 }
          cleanup
  call void @_ZN7testing8internal12AssertHelperD1Ev(ptr noundef nonnull align 8 dereferenceable(8) %ref.tmp488) #22
  br label %ehcleanup496

ehcleanup496:                                     ; preds = %lpad493, %lpad489
  %.pn685 = phi { ptr, i32 } [ %251, %lpad493 ], [ %250, %lpad489 ]
  call void @llvm.lifetime.end.p0(i64 8, ptr nonnull %ref.tmp488) #22
  %252 = load ptr, ptr %ref.tmp485, align 8, !tbaa !21
  store ptr null, ptr %ref.tmp485, align 8, !tbaa !21
  %tobool.not.i.i.i1571 = icmp eq ptr %252, null
  br i1 %tobool.not.i.i.i1571, label %ehcleanup498, label %_ZNKSt3__114default_deleteINS_18basic_stringstreamIcNS_11char_traitsIcEENS_9allocatorIcEEEEEclB7v170000EPS6_.exit.i.i.i1574

_ZNKSt3__114default_deleteINS_18basic_stringstreamIcNS_11char_traitsIcEENS_9allocatorIcEEEEEclB7v170000EPS6_.exit.i.i.i1574: ; preds = %ehcleanup496
  %vtable.i.i.i.i1572 = load ptr, ptr %252, align 8, !tbaa !5
  %vfn.i.i.i.i1573 = getelementptr inbounds ptr, ptr %vtable.i.i.i.i1572, i64 1
  %253 = load ptr, ptr %vfn.i.i.i.i1573, align 8
  call void %253(ptr noundef nonnull align 8 dereferenceable(128) %252) #22
  br label %ehcleanup498

ehcleanup498:                                     ; preds = %_ZNKSt3__114default_deleteINS_18basic_stringstreamIcNS_11char_traitsIcEENS_9allocatorIcEEEEEclB7v170000EPS6_.exit.i.i.i1574, %ehcleanup496, %lpad486
  %.pn685.pn = phi { ptr, i32 } [ %249, %lpad486 ], [ %.pn685, %ehcleanup496 ], [ %.pn685, %_ZNKSt3__114default_deleteINS_18basic_stringstreamIcNS_11char_traitsIcEENS_9allocatorIcEEEEEclB7v170000EPS6_.exit.i.i.i1574 ]
  call void @llvm.lifetime.end.p0(i64 8, ptr nonnull %ref.tmp485) #22
  call void @_ZN7testing15AssertionResultD2Ev(ptr noundef nonnull align 8 dereferenceable(16) %gtest_ar468) #22
  br label %ehcleanup501

if.end499:                                        ; preds = %_ZNSt3__112basic_stringIcNS_11char_traitsIcEENS_9allocatorIcEEED2Ev.exit1547, %_ZN7testing7MessageD2Ev.exit1570
  %message_.i1576 = getelementptr inbounds %"class.testing::AssertionResult", ptr %gtest_ar468, i64 0, i32 1
  %254 = load ptr, ptr %message_.i1576, align 8, !tbaa !21
  store ptr null, ptr %message_.i1576, align 8, !tbaa !21
  %tobool.not.i.i.i1577 = icmp eq ptr %254, null
  br i1 %tobool.not.i.i.i1577, label %_ZN7testing15AssertionResultD2Ev.exit1585, label %delete.notnull.i.i.i.i1581

delete.notnull.i.i.i.i1581:                       ; preds = %if.end499
  %bf.load.i.i.i.i.i.i1578 = load i8, ptr %254, align 8
  %bf.clear.i.i.i.i.i.i1579 = and i8 %bf.load.i.i.i.i.i.i1578, 1
  %tobool.i.not.i.i.i.i.i1580 = icmp eq i8 %bf.clear.i.i.i.i.i.i1579, 0
  br i1 %tobool.i.not.i.i.i.i.i1580, label %_ZNKSt3__114default_deleteINS_12basic_stringIcNS_11char_traitsIcEENS_9allocatorIcEEEEEclB7v170000EPS6_.exit.i.i.i1584, label %if.then.i.i.i.i.i1583

if.then.i.i.i.i.i1583:                            ; preds = %delete.notnull.i.i.i.i1581
  %__data_.i.i.i.i.i.i1582 = getelementptr inbounds %"struct.std::__1::basic_string<char>::__long", ptr %254, i64 0, i32 2
  %255 = load ptr, ptr %__data_.i.i.i.i.i.i1582, align 8, !tbaa !11
  call void @_ZdlPv(ptr noundef %255) #23
  br label %_ZNKSt3__114default_deleteINS_12basic_stringIcNS_11char_traitsIcEENS_9allocatorIcEEEEEclB7v170000EPS6_.exit.i.i.i1584

_ZNKSt3__114default_deleteINS_12basic_stringIcNS_11char_traitsIcEENS_9allocatorIcEEEEEclB7v170000EPS6_.exit.i.i.i1584: ; preds = %if.then.i.i.i.i.i1583, %delete.notnull.i.i.i.i1581
  call void @_ZdlPv(ptr noundef nonnull %254) #23
