; ModuleID = '/local/mnt2/workspace2/mnadeem/llvm/llvm-test-suite/MicroBenchmarks/libs/benchmark/test/perf_counters_gtest.cc'
source_filename = "/local/mnt2/workspace2/mnadeem/llvm/llvm-test-suite/MicroBenchmarks/libs/benchmark/test/perf_counters_gtest.cc"
target datalayout = "e-m:e-p270:32:32-p271:32:32-p272:64:64-i64:64-f80:128-n8:16:32:64-S128"
target triple = "x86_64-unknown-linux-gnu"

%"class.std::__1::locale::id" = type <{ %"struct.std::__1::once_flag", i32, [4 x i8] }>
%"struct.std::__1::once_flag" = type { i64 }
%"class.benchmark::internal::LogType" = type { ptr }
%"class.std::__1::basic_ostream" = type { ptr, %"class.std::__1::basic_ios.base" }
%"class.std::__1::basic_ios.base" = type <{ %"class.std::__1::ios_base", ptr, i32 }>
%"class.std::__1::ios_base" = type { ptr, i32, i64, i64, i32, i32, ptr, ptr, ptr, ptr, i64, i64, ptr, i64, i64, ptr, i64, i64 }
%"class.benchmark::Mutex" = type { %"class.std::__1::mutex" }
%"class.std::__1::mutex" = type { %union.pthread_mutex_t }
%union.pthread_mutex_t = type { %"struct.(anonymous union)::__pthread_mutex_s" }
%"struct.(anonymous union)::__pthread_mutex_s" = type { i32, i32, i32, i32, i32, i16, i16, %struct.__pthread_internal_list }
%struct.__pthread_internal_list = type { ptr, ptr }
%"class.benchmark::internal::PerfCounters" = type { %"class.std::__1::vector.44", %"class.std::__1::vector.51" }
%"class.std::__1::vector.44" = type { ptr, ptr, %"class.std::__1::__compressed_pair.45" }
%"class.std::__1::__compressed_pair.45" = type { %"struct.std::__1::__compressed_pair_elem.46" }
%"struct.std::__1::__compressed_pair_elem.46" = type { ptr }
%"class.std::__1::vector.51" = type { ptr, ptr, %"class.std::__1::__compressed_pair.52" }
%"class.std::__1::__compressed_pair.52" = type { %"struct.std::__1::__compressed_pair_elem.33" }
%"struct.std::__1::__compressed_pair_elem.33" = type { ptr }
%"class.testing::internal::GTestLog" = type { i32 }
%"class.testing::AssertionResult" = type { i8, %"class.std::__1::unique_ptr.31" }
%"class.std::__1::unique_ptr.31" = type { %"class.std::__1::__compressed_pair.32" }
%"class.std::__1::__compressed_pair.32" = type { %"struct.std::__1::__compressed_pair_elem.33" }
%"class.testing::Message" = type { %"class.std::__1::unique_ptr.37" }
%"class.std::__1::unique_ptr.37" = type { %"class.std::__1::__compressed_pair.38" }
%"class.std::__1::__compressed_pair.38" = type { %"struct.std::__1::__compressed_pair_elem.39" }
%"struct.std::__1::__compressed_pair_elem.39" = type { ptr }
%"class.testing::internal::AssertHelper" = type { ptr }
%"struct.std::__1::basic_string<char>::__long" = type { %struct.anon, i64, ptr }
%struct.anon = type { i64 }
%"struct.std::__1::basic_string<char>::__short" = type { %struct.anon.0, [0 x i8], [23 x i8] }
%struct.anon.0 = type { i8 }
%"class.std::__1::basic_string" = type { %"class.std::__1::__compressed_pair" }
%"class.std::__1::__compressed_pair" = type { %"struct.std::__1::__compressed_pair_elem" }
%"struct.std::__1::__compressed_pair_elem" = type { %"struct.std::__1::basic_string<char>::__rep" }
%"struct.std::__1::basic_string<char>::__rep" = type { %union.anon }
%union.anon = type { %"struct.std::__1::basic_string<char>::__long" }
%"class.std::__1::basic_stringstream" = type { %"class.std::__1::basic_iostream.base", %"class.std::__1::basic_stringbuf", %"class.std::__1::basic_ios.base" }
%"class.std::__1::basic_iostream.base" = type { %"class.std::__1::basic_istream.base", %"class.std::__1::basic_ostream.base" }
%"class.std::__1::basic_istream.base" = type { ptr, i64 }
%"class.std::__1::basic_ostream.base" = type { ptr }
%"class.std::__1::basic_stringbuf" = type <{ %"class.std::__1::basic_streambuf", %"class.std::__1::basic_string", ptr, i32, [4 x i8] }>
%"class.std::__1::basic_streambuf" = type { ptr, %"class.std::__1::locale", ptr, ptr, ptr, ptr, ptr, ptr }
%"class.std::__1::locale" = type { ptr }
%"class.std::__1::basic_istream" = type { ptr, i64, %"class.std::__1::basic_ios.base" }
%"class.std::__1::basic_ostream<char>::sentry" = type { i8, ptr }
%"class.std::__1::basic_ios" = type <{ %"class.std::__1::ios_base", ptr, i32, [4 x i8] }>
%"struct.std::__1::__exception_guard_exceptions.59" = type <{ %"class.std::__1::_AllocatorDestroyRangeReverse", i8, [7 x i8] }>
%"class.std::__1::_AllocatorDestroyRangeReverse" = type { ptr, ptr, ptr }
%"struct.std::__1::__exception_guard_exceptions" = type <{ %"class.std::__1::vector<std::__1::string>::__destroy_vector", i8, [7 x i8] }>
%"class.std::__1::vector<std::__1::string>::__destroy_vector" = type { ptr }
%"class.benchmark::internal::PerfCounterValues" = type { %"struct.std::__1::array", i64 }
%"struct.std::__1::array" = type { [4 x i64] }
%"struct.std::__1::__split_buffer" = type { ptr, ptr, ptr, %"class.std::__1::__compressed_pair.69" }
%"class.std::__1::__compressed_pair.69" = type { %"struct.std::__1::__compressed_pair_elem.64", %"struct.std::__1::__compressed_pair_elem.70" }
%"struct.std::__1::__compressed_pair_elem.64" = type { ptr }
%"struct.std::__1::__compressed_pair_elem.70" = type { ptr }
%"class.std::__1::vector.62" = type { ptr, ptr, %"class.std::__1::__compressed_pair.63" }
%"class.std::__1::__compressed_pair.63" = type { %"struct.std::__1::__compressed_pair_elem.64" }
%"struct.std::__1::pair.86" = type { %"class.std::__1::basic_string", double }
%"class.std::__1::vector.78" = type { ptr, ptr, %"class.std::__1::__compressed_pair.79" }
%"class.std::__1::__compressed_pair.79" = type { %"struct.std::__1::__compressed_pair_elem.80" }
%"struct.std::__1::__compressed_pair_elem.80" = type { ptr }
%"class.std::__1::vector.85" = type { ptr, ptr, %"class.std::__1::__compressed_pair.87" }
%"class.std::__1::__compressed_pair.87" = type { %"struct.std::__1::__compressed_pair_elem.88" }
%"struct.std::__1::__compressed_pair_elem.88" = type { ptr }
%"class.benchmark::internal::PerfCountersMeasurement" = type { i8, %"class.benchmark::internal::PerfCounterValues", %"class.benchmark::internal::PerfCounterValues" }
%"struct.std::__1::__split_buffer.93" = type { ptr, ptr, ptr, %"class.std::__1::__compressed_pair.94" }
%"class.std::__1::__compressed_pair.94" = type { %"struct.std::__1::__compressed_pair_elem.80", %"struct.std::__1::__compressed_pair_elem.95" }
%"struct.std::__1::__compressed_pair_elem.95" = type { ptr }
%"class.std::__1::unique_ptr.131" = type { %"class.std::__1::__compressed_pair.132" }
%"class.std::__1::__compressed_pair.132" = type { %"struct.std::__1::__compressed_pair_elem.133" }
%"struct.std::__1::__compressed_pair_elem.133" = type { ptr }
%"class.std::__1::unique_ptr.137" = type { %"class.std::__1::__compressed_pair.138" }
%"class.std::__1::__compressed_pair.138" = type { %"struct.std::__1::__compressed_pair_elem.139" }
%"struct.std::__1::__compressed_pair_elem.139" = type { ptr }
%"struct.std::__1::__exception_guard_exceptions.128" = type <{ %"class.std::__1::vector<std::__1::thread>::__destroy_vector", i8, [7 x i8] }>
%"class.std::__1::vector<std::__1::thread>::__destroy_vector" = type { ptr }
%"class.benchmark::internal::CheckHandler" = type { ptr }
%"class.std::__1::vector.121" = type { ptr, ptr, %"class.std::__1::__compressed_pair.122" }
%"class.std::__1::__compressed_pair.122" = type { %"struct.std::__1::__compressed_pair_elem.123" }
%"struct.std::__1::__compressed_pair_elem.123" = type { ptr }
%"class.std::__1::thread" = type { i64 }
%"struct.testing::internal::CodeLocation" = type <{ %"class.std::__1::basic_string", i32, [4 x i8] }>

$_ZN7testing8internal16SuiteApiResolverINS_4TestEE19GetSetUpCaseOrSuiteEPKci = comdat any

$_ZN7testing8internal16SuiteApiResolverINS_4TestEE22GetTearDownCaseOrSuiteEPKci = comdat any

$_ZN7testing4Test5SetupEv = comdat any

$_ZN7testing15AssertionResultD2Ev = comdat any

$_ZN7testing8internal18CmpHelperEQFailureIbbEENS_15AssertionResultEPKcS4_RKT_RKT0_ = comdat any

$_ZN7testing13PrintToStringIbEENSt3__112basic_stringIcNS1_11char_traitsIcEENS1_9allocatorIcEEEERKT_ = comdat any

$_ZNSt3__118basic_stringstreamIcNS_11char_traitsIcEENS_9allocatorIcEEED1Ev = comdat any

$_ZNSt3__118basic_stringstreamIcNS_11char_traitsIcEENS_9allocatorIcEEED0Ev = comdat any

$_ZThn16_NSt3__118basic_stringstreamIcNS_11char_traitsIcEENS_9allocatorIcEEED1Ev = comdat any

$_ZThn16_NSt3__118basic_stringstreamIcNS_11char_traitsIcEENS_9allocatorIcEEED0Ev = comdat any

$_ZTv0_n24_NSt3__118basic_stringstreamIcNS_11char_traitsIcEENS_9allocatorIcEEED1Ev = comdat any

$_ZTv0_n24_NSt3__118basic_stringstreamIcNS_11char_traitsIcEENS_9allocatorIcEEED0Ev = comdat any

$_ZNSt3__115basic_stringbufIcNS_11char_traitsIcEENS_9allocatorIcEEED2Ev = comdat any

$_ZNSt3__115basic_stringbufIcNS_11char_traitsIcEENS_9allocatorIcEEED0Ev = comdat any

$_ZNSt3__115basic_stringbufIcNS_11char_traitsIcEENS_9allocatorIcEEE7seekoffExNS_8ios_base7seekdirEj = comdat any

$_ZNSt3__115basic_stringbufIcNS_11char_traitsIcEENS_9allocatorIcEEE7seekposENS_4fposI11__mbstate_tEEj = comdat any

$_ZNSt3__115basic_stringbufIcNS_11char_traitsIcEENS_9allocatorIcEEE9underflowEv = comdat any

$_ZNSt3__115basic_stringbufIcNS_11char_traitsIcEENS_9allocatorIcEEE9pbackfailEi = comdat any

$_ZNSt3__115basic_stringbufIcNS_11char_traitsIcEENS_9allocatorIcEEE8overflowEi = comdat any

$__clang_call_terminate = comdat any

$_ZNSt3__124__put_character_sequenceB7v170000IcNS_11char_traitsIcEEEERNS_13basic_ostreamIT_T0_EES7_PKS4_m = comdat any

$_ZNSt3__116__pad_and_outputB7v170000IcNS_11char_traitsIcEEEENS_19ostreambuf_iteratorIT_T0_EES6_PKS4_S8_S8_RNS_8ios_baseES4_ = comdat any

$_ZNKSt3__112basic_stringIcNS_11char_traitsIcEENS_9allocatorIcEEE20__throw_length_errorB7v170000Ev = comdat any

$_ZNSt3__120__throw_length_errorB7v170000EPKc = comdat any

$_ZNSt12length_errorC2B7v170000EPKc = comdat any

$_ZSt28__throw_bad_array_new_lengthB7v170000v = comdat any

$_ZNKSt3__115basic_stringbufIcNS_11char_traitsIcEENS_9allocatorIcEEE3strEv = comdat any

$_ZN9benchmark8internal12PerfCountersD2Ev = comdat any

$_ZNSt3__16vectorINS_12basic_stringIcNS_11char_traitsIcEENS_9allocatorIcEEEENS4_IS6_EEED2B7v170000Ev = comdat any

$_ZNSt3__128__exception_guard_exceptionsINS_6vectorINS_12basic_stringIcNS_11char_traitsIcEENS_9allocatorIcEEEENS5_IS7_EEE16__destroy_vectorEED2B7v170000Ev = comdat any

$_ZNSt3__128__exception_guard_exceptionsINS_29_AllocatorDestroyRangeReverseINS_9allocatorINS_12basic_stringIcNS_11char_traitsIcEENS2_IcEEEEEEPS7_EEED2B7v170000Ev = comdat any

$_ZN9benchmark8internal12CheckHandlerC2EPKcS3_S3_i = comdat any

$_ZN9benchmark8internal12CheckHandlerD2Ev = comdat any

$_ZN9benchmark8internal16CallAbortHandlerEv = comdat any

$_ZN7testing8internal18CmpHelperOpFailureImiEENS_15AssertionResultEPKcS4_RKT_RKT0_S4_ = comdat any

$_ZN7testing15AssertionResult13AppendMessageERKNS_7MessageE = comdat any

$_ZN7testing13PrintToStringImEENSt3__112basic_stringIcNS1_11char_traitsIcEENS1_9allocatorIcEEEERKT_ = comdat any

$_ZN7testing13PrintToStringIiEENSt3__112basic_stringIcNS1_11char_traitsIcEENS1_9allocatorIcEEEERKT_ = comdat any

$_ZN7testing8internal18CmpHelperOpFailureImmEENS_15AssertionResultEPKcS4_RKT_RKT0_S4_ = comdat any

$_ZN7testing8internal15TestFactoryBaseD2Ev = comdat any

$_ZNSt3__16vectorIN9benchmark8internal12PerfCountersENS_9allocatorIS3_EEED2B7v170000Ev = comdat any

$_ZNKSt3__16vectorIN9benchmark8internal12PerfCountersENS_9allocatorIS3_EEE20__throw_length_errorB7v170000Ev = comdat any

$_ZNSt3__114__split_bufferIN9benchmark8internal12PerfCountersERNS_9allocatorIS3_EEE17__destruct_at_endB7v170000EPS3_ = comdat any

$_ZNSt3__16vectorIN9benchmark8internal12PerfCountersENS_9allocatorIS3_EEE21__push_back_slow_pathIS3_EEvOT_ = comdat any

$_ZNSt3__16vectorIN9benchmark8internal12PerfCountersENS_9allocatorIS3_EEE22__base_destruct_at_endB7v170000EPS3_ = comdat any

$_ZNSt3__16vectorINS_4pairINS_12basic_stringIcNS_11char_traitsIcEENS_9allocatorIcEEEEdEENS5_IS8_EEED2B7v170000Ev = comdat any

$_ZNSt3__16vectorIN9benchmark8internal23PerfCountersMeasurementENS_9allocatorIS3_EEED2B7v170000Ev = comdat any

$_ZNKSt3__16vectorIN9benchmark8internal23PerfCountersMeasurementENS_9allocatorIS3_EEE20__throw_length_errorB7v170000Ev = comdat any

$_ZNSt3__114__split_bufferIN9benchmark8internal23PerfCountersMeasurementERNS_9allocatorIS3_EEED2Ev = comdat any

$_ZNSt3__16vectorIN9benchmark8internal23PerfCountersMeasurementENS_9allocatorIS3_EEE24__emplace_back_slow_pathIJNS0_INS_12basic_stringIcNS_11char_traitsIcEENS4_IcEEEENS4_ISC_EEEEEEEvDpOT_ = comdat any

$_ZNSt3__16vectorINS_4pairINS_12basic_stringIcNS_11char_traitsIcEENS_9allocatorIcEEEEdEENS5_IS8_EEE21__push_back_slow_pathIS8_EEvOT_ = comdat any

$_ZNKSt3__16vectorINS_4pairINS_12basic_stringIcNS_11char_traitsIcEENS_9allocatorIcEEEEdEENS5_IS8_EEE20__throw_length_errorB7v170000Ev = comdat any

$_ZNSt3__16vectorINS_6threadENS_9allocatorIS1_EEED2B7v170000Ev = comdat any

$_ZNSt3__128__exception_guard_exceptionsINS_6vectorINS_6threadENS_9allocatorIS2_EEE16__destroy_vectorEED2B7v170000Ev = comdat any

$_ZNKSt3__16vectorINS_6threadENS_9allocatorIS1_EEE20__throw_length_errorB7v170000Ev = comdat any

$_ZNSt3__110unique_ptrINS_15__thread_structENS_14default_deleteIS1_EEED2B7v170000Ev = comdat any

$_ZN7testing8internal18CmpHelperOpFailureIddEENS_15AssertionResultEPKcS4_RKT_RKT0_S4_ = comdat any

$_ZN7testing13PrintToStringIdEENSt3__112basic_stringIcNS1_11char_traitsIcEENS1_9allocatorIcEEEERKT_ = comdat any

$_ZTSN7testing8internal15TestFactoryBaseE = comdat any

$_ZTIN7testing8internal15TestFactoryBaseE = comdat any

$_ZTVNSt3__118basic_stringstreamIcNS_11char_traitsIcEENS_9allocatorIcEEEE = comdat any

$_ZTTNSt3__118basic_stringstreamIcNS_11char_traitsIcEENS_9allocatorIcEEEE = comdat any

$_ZTCNSt3__118basic_stringstreamIcNS_11char_traitsIcEENS_9allocatorIcEEEE0_NS_14basic_iostreamIcS2_EE = comdat any

$_ZTCNSt3__118basic_stringstreamIcNS_11char_traitsIcEENS_9allocatorIcEEEE0_NS_13basic_istreamIcS2_EE = comdat any

$_ZTCNSt3__118basic_stringstreamIcNS_11char_traitsIcEENS_9allocatorIcEEEE16_NS_13basic_ostreamIcS2_EE = comdat any

$_ZTSNSt3__118basic_stringstreamIcNS_11char_traitsIcEENS_9allocatorIcEEEE = comdat any

$_ZTINSt3__118basic_stringstreamIcNS_11char_traitsIcEENS_9allocatorIcEEEE = comdat any

$_ZTVNSt3__115basic_stringbufIcNS_11char_traitsIcEENS_9allocatorIcEEEE = comdat any

$_ZTSNSt3__115basic_stringbufIcNS_11char_traitsIcEENS_9allocatorIcEEEE = comdat any

$_ZTINSt3__115basic_stringbufIcNS_11char_traitsIcEENS_9allocatorIcEEEE = comdat any

$_ZZN9benchmark8internal18GetNullLogInstanceEvE3log = comdat any

$_ZGVZN9benchmark8internal18GetNullLogInstanceEvE3log = comdat any

$_ZZN9benchmark8internal19GetErrorLogInstanceEvE3log = comdat any

$_ZGVZN9benchmark8internal19GetErrorLogInstanceEvE3log = comdat any

@_ZN12_GLOBAL__N_126PerfCountersTest_Init_Test10test_info_E = internal global ptr null, align 8
@.str = private unnamed_addr constant [17 x i8] c"PerfCountersTest\00", align 1
@.str.3 = private unnamed_addr constant [5 x i8] c"Init\00", align 1
@.str.4 = private unnamed_addr constant [111 x i8] c"/local/mnt2/workspace2/mnadeem/llvm/llvm-test-suite/MicroBenchmarks/libs/benchmark/test/perf_counters_gtest.cc\00", align 1
@_ZN12_GLOBAL__N_132PerfCountersTest_OneCounter_Test10test_info_E = internal global ptr null, align 8
@.str.6 = private unnamed_addr constant [11 x i8] c"OneCounter\00", align 1
@_ZN12_GLOBAL__N_134PerfCountersTest_NegativeTest_Test10test_info_E = internal global ptr null, align 8
@.str.8 = private unnamed_addr constant [13 x i8] c"NegativeTest\00", align 1
@_ZN12_GLOBAL__N_134PerfCountersTest_Read1Counter_Test10test_info_E = internal global ptr null, align 8
@.str.10 = private unnamed_addr constant [13 x i8] c"Read1Counter\00", align 1
@_ZN12_GLOBAL__N_135PerfCountersTest_Read2Counters_Test10test_info_E = internal global ptr null, align 8
@.str.12 = private unnamed_addr constant [14 x i8] c"Read2Counters\00", align 1
@_ZN12_GLOBAL__N_144PerfCountersTest_ReopenExistingCounters_Test10test_info_E = internal global ptr null, align 8
@.str.14 = private unnamed_addr constant [23 x i8] c"ReopenExistingCounters\00", align 1
@_ZN12_GLOBAL__N_148PerfCountersTest_CreateExistingMeasurements_Test10test_info_E = internal global ptr null, align 8
@.str.16 = private unnamed_addr constant [27 x i8] c"CreateExistingMeasurements\00", align 1
@_ZN12_GLOBAL__N_135PerfCountersTest_MultiThreaded_Test10test_info_E = internal global ptr null, align 8
@.str.18 = private unnamed_addr constant [14 x i8] c"MultiThreaded\00", align 1
@_ZTVN7testing8internal15TestFactoryImplIN12_GLOBAL__N_126PerfCountersTest_Init_TestEEE = internal unnamed_addr constant { [5 x ptr] } { [5 x ptr] [ptr null, ptr @_ZTIN7testing8internal15TestFactoryImplIN12_GLOBAL__N_126PerfCountersTest_Init_TestEEE, ptr @_ZN7testing8internal15TestFactoryBaseD2Ev, ptr @_ZN7testing8internal15TestFactoryImplIN12_GLOBAL__N_126PerfCountersTest_Init_TestEED0Ev, ptr @_ZN7testing8internal15TestFactoryImplIN12_GLOBAL__N_126PerfCountersTest_Init_TestEE10CreateTestEv] }, align 8
@_ZTVN10__cxxabiv120__si_class_type_infoE = external global ptr
@_ZTSN7testing8internal15TestFactoryImplIN12_GLOBAL__N_126PerfCountersTest_Init_TestEEE = internal constant [83 x i8] c"N7testing8internal15TestFactoryImplIN12_GLOBAL__N_126PerfCountersTest_Init_TestEEE\00", align 1
@_ZTVN10__cxxabiv117__class_type_infoE = external global ptr
@_ZTSN7testing8internal15TestFactoryBaseE = linkonce_odr hidden constant [37 x i8] c"N7testing8internal15TestFactoryBaseE\00", comdat, align 1
@_ZTIN7testing8internal15TestFactoryBaseE = linkonce_odr hidden constant { ptr, ptr } { ptr getelementptr inbounds (ptr, ptr @_ZTVN10__cxxabiv117__class_type_infoE, i64 2), ptr @_ZTSN7testing8internal15TestFactoryBaseE }, comdat, align 8
@_ZTIN7testing8internal15TestFactoryImplIN12_GLOBAL__N_126PerfCountersTest_Init_TestEEE = internal constant { ptr, ptr, ptr } { ptr getelementptr inbounds (ptr, ptr @_ZTVN10__cxxabiv120__si_class_type_infoE, i64 2), ptr @_ZTSN7testing8internal15TestFactoryImplIN12_GLOBAL__N_126PerfCountersTest_Init_TestEEE, ptr @_ZTIN7testing8internal15TestFactoryBaseE }, align 8
@_ZTVN12_GLOBAL__N_126PerfCountersTest_Init_TestE = internal unnamed_addr constant { [8 x ptr] } { [8 x ptr] [ptr null, ptr @_ZTIN12_GLOBAL__N_126PerfCountersTest_Init_TestE, ptr @_ZN7testing4TestD2Ev, ptr @_ZN12_GLOBAL__N_126PerfCountersTest_Init_TestD0Ev, ptr @_ZN7testing4Test5SetUpEv, ptr @_ZN7testing4Test8TearDownEv, ptr @_ZN12_GLOBAL__N_126PerfCountersTest_Init_Test8TestBodyEv, ptr @_ZN7testing4Test5SetupEv] }, align 8
@_ZTSN12_GLOBAL__N_126PerfCountersTest_Init_TestE = internal constant [45 x i8] c"N12_GLOBAL__N_126PerfCountersTest_Init_TestE\00", align 1
@_ZTIN7testing4TestE = external constant ptr
@_ZTIN12_GLOBAL__N_126PerfCountersTest_Init_TestE = internal constant { ptr, ptr, ptr } { ptr getelementptr inbounds (ptr, ptr @_ZTVN10__cxxabiv120__si_class_type_infoE, i64 2), ptr @_ZTSN12_GLOBAL__N_126PerfCountersTest_Init_TestE, ptr @_ZTIN7testing4TestE }, align 8
@.str.19 = private unnamed_addr constant [27 x i8] c"PerfCounters::Initialize()\00", align 1
@.str.20 = private unnamed_addr constant [25 x i8] c"PerfCounters::kSupported\00", align 1
@_ZN9benchmark8internal12PerfCounters10kSupportedE = external constant i8, align 1
@_ZTVNSt3__118basic_stringstreamIcNS_11char_traitsIcEENS_9allocatorIcEEEE = linkonce_odr dso_local unnamed_addr constant { [5 x ptr], [5 x ptr], [5 x ptr] } { [5 x ptr] [ptr inttoptr (i64 128 to ptr), ptr null, ptr @_ZTINSt3__118basic_stringstreamIcNS_11char_traitsIcEENS_9allocatorIcEEEE, ptr @_ZNSt3__118basic_stringstreamIcNS_11char_traitsIcEENS_9allocatorIcEEED1Ev, ptr @_ZNSt3__118basic_stringstreamIcNS_11char_traitsIcEENS_9allocatorIcEEED0Ev], [5 x ptr] [ptr inttoptr (i64 112 to ptr), ptr inttoptr (i64 -16 to ptr), ptr @_ZTINSt3__118basic_stringstreamIcNS_11char_traitsIcEENS_9allocatorIcEEEE, ptr @_ZThn16_NSt3__118basic_stringstreamIcNS_11char_traitsIcEENS_9allocatorIcEEED1Ev, ptr @_ZThn16_NSt3__118basic_stringstreamIcNS_11char_traitsIcEENS_9allocatorIcEEED0Ev], [5 x ptr] [ptr inttoptr (i64 -128 to ptr), ptr inttoptr (i64 -128 to ptr), ptr @_ZTINSt3__118basic_stringstreamIcNS_11char_traitsIcEENS_9allocatorIcEEEE, ptr @_ZTv0_n24_NSt3__118basic_stringstreamIcNS_11char_traitsIcEENS_9allocatorIcEEED1Ev, ptr @_ZTv0_n24_NSt3__118basic_stringstreamIcNS_11char_traitsIcEENS_9allocatorIcEEED0Ev] }, comdat, align 8
@_ZTTNSt3__118basic_stringstreamIcNS_11char_traitsIcEENS_9allocatorIcEEEE = linkonce_odr dso_local unnamed_addr constant [10 x ptr] [ptr getelementptr inbounds ({ [5 x ptr], [5 x ptr], [5 x ptr] }, ptr @_ZTVNSt3__118basic_stringstreamIcNS_11char_traitsIcEENS_9allocatorIcEEEE, i32 0, inrange i32 0, i32 3), ptr getelementptr inbounds ({ [5 x ptr], [5 x ptr], [5 x ptr] }, ptr @_ZTCNSt3__118basic_stringstreamIcNS_11char_traitsIcEENS_9allocatorIcEEEE0_NS_14basic_iostreamIcS2_EE, i32 0, inrange i32 0, i32 3), ptr getelementptr inbounds ({ [5 x ptr], [5 x ptr] }, ptr @_ZTCNSt3__118basic_stringstreamIcNS_11char_traitsIcEENS_9allocatorIcEEEE0_NS_13basic_istreamIcS2_EE, i32 0, inrange i32 0, i32 3), ptr getelementptr inbounds ({ [5 x ptr], [5 x ptr] }, ptr @_ZTCNSt3__118basic_stringstreamIcNS_11char_traitsIcEENS_9allocatorIcEEEE0_NS_13basic_istreamIcS2_EE, i32 0, inrange i32 1, i32 3), ptr getelementptr inbounds ({ [5 x ptr], [5 x ptr] }, ptr @_ZTCNSt3__118basic_stringstreamIcNS_11char_traitsIcEENS_9allocatorIcEEEE16_NS_13basic_ostreamIcS2_EE, i32 0, inrange i32 0, i32 3), ptr getelementptr inbounds ({ [5 x ptr], [5 x ptr] }, ptr @_ZTCNSt3__118basic_stringstreamIcNS_11char_traitsIcEENS_9allocatorIcEEEE16_NS_13basic_ostreamIcS2_EE, i32 0, inrange i32 1, i32 3), ptr getelementptr inbounds ({ [5 x ptr], [5 x ptr], [5 x ptr] }, ptr @_ZTCNSt3__118basic_stringstreamIcNS_11char_traitsIcEENS_9allocatorIcEEEE0_NS_14basic_iostreamIcS2_EE, i32 0, inrange i32 2, i32 3), ptr getelementptr inbounds ({ [5 x ptr], [5 x ptr], [5 x ptr] }, ptr @_ZTCNSt3__118basic_stringstreamIcNS_11char_traitsIcEENS_9allocatorIcEEEE0_NS_14basic_iostreamIcS2_EE, i32 0, inrange i32 1, i32 3), ptr getelementptr inbounds ({ [5 x ptr], [5 x ptr], [5 x ptr] }, ptr @_ZTVNSt3__118basic_stringstreamIcNS_11char_traitsIcEENS_9allocatorIcEEEE, i32 0, inrange i32 2, i32 3), ptr getelementptr inbounds ({ [5 x ptr], [5 x ptr], [5 x ptr] }, ptr @_ZTVNSt3__118basic_stringstreamIcNS_11char_traitsIcEENS_9allocatorIcEEEE, i32 0, inrange i32 1, i32 3)], comdat, align 8
@_ZTCNSt3__118basic_stringstreamIcNS_11char_traitsIcEENS_9allocatorIcEEEE0_NS_14basic_iostreamIcS2_EE = linkonce_odr dso_local unnamed_addr constant { [5 x ptr], [5 x ptr], [5 x ptr] } { [5 x ptr] [ptr inttoptr (i64 128 to ptr), ptr null, ptr @_ZTINSt3__114basic_iostreamIcNS_11char_traitsIcEEEE, ptr @_ZNSt3__114basic_iostreamIcNS_11char_traitsIcEEED1Ev, ptr @_ZNSt3__114basic_iostreamIcNS_11char_traitsIcEEED0Ev], [5 x ptr] [ptr inttoptr (i64 112 to ptr), ptr inttoptr (i64 -16 to ptr), ptr @_ZTINSt3__114basic_iostreamIcNS_11char_traitsIcEEEE, ptr @_ZThn16_NSt3__114basic_iostreamIcNS_11char_traitsIcEEED1Ev, ptr @_ZThn16_NSt3__114basic_iostreamIcNS_11char_traitsIcEEED0Ev], [5 x ptr] [ptr inttoptr (i64 -128 to ptr), ptr inttoptr (i64 -128 to ptr), ptr @_ZTINSt3__114basic_iostreamIcNS_11char_traitsIcEEEE, ptr @_ZTv0_n24_NSt3__114basic_iostreamIcNS_11char_traitsIcEEED1Ev, ptr @_ZTv0_n24_NSt3__114basic_iostreamIcNS_11char_traitsIcEEED0Ev] }, comdat, align 8
@_ZTINSt3__114basic_iostreamIcNS_11char_traitsIcEEEE = external constant ptr
@_ZTCNSt3__118basic_stringstreamIcNS_11char_traitsIcEENS_9allocatorIcEEEE0_NS_13basic_istreamIcS2_EE = linkonce_odr dso_local unnamed_addr constant { [5 x ptr], [5 x ptr] } { [5 x ptr] [ptr inttoptr (i64 128 to ptr), ptr null, ptr @_ZTINSt3__113basic_istreamIcNS_11char_traitsIcEEEE, ptr @_ZNSt3__113basic_istreamIcNS_11char_traitsIcEEED1Ev, ptr @_ZNSt3__113basic_istreamIcNS_11char_traitsIcEEED0Ev], [5 x ptr] [ptr inttoptr (i64 -128 to ptr), ptr inttoptr (i64 -128 to ptr), ptr @_ZTINSt3__113basic_istreamIcNS_11char_traitsIcEEEE, ptr @_ZTv0_n24_NSt3__113basic_istreamIcNS_11char_traitsIcEEED1Ev, ptr @_ZTv0_n24_NSt3__113basic_istreamIcNS_11char_traitsIcEEED0Ev] }, comdat, align 8
@_ZTINSt3__113basic_istreamIcNS_11char_traitsIcEEEE = external constant ptr
@_ZTCNSt3__118basic_stringstreamIcNS_11char_traitsIcEENS_9allocatorIcEEEE16_NS_13basic_ostreamIcS2_EE = linkonce_odr dso_local unnamed_addr constant { [5 x ptr], [5 x ptr] } { [5 x ptr] [ptr inttoptr (i64 112 to ptr), ptr null, ptr @_ZTINSt3__113basic_ostreamIcNS_11char_traitsIcEEEE, ptr @_ZNSt3__113basic_ostreamIcNS_11char_traitsIcEEED1Ev, ptr @_ZNSt3__113basic_ostreamIcNS_11char_traitsIcEEED0Ev], [5 x ptr] [ptr inttoptr (i64 -112 to ptr), ptr inttoptr (i64 -112 to ptr), ptr @_ZTINSt3__113basic_ostreamIcNS_11char_traitsIcEEEE, ptr @_ZTv0_n24_NSt3__113basic_ostreamIcNS_11char_traitsIcEEED1Ev, ptr @_ZTv0_n24_NSt3__113basic_ostreamIcNS_11char_traitsIcEEED0Ev] }, comdat, align 8
@_ZTINSt3__113basic_ostreamIcNS_11char_traitsIcEEEE = external constant ptr
@_ZTSNSt3__118basic_stringstreamIcNS_11char_traitsIcEENS_9allocatorIcEEEE = linkonce_odr dso_local constant [69 x i8] c"NSt3__118basic_stringstreamIcNS_11char_traitsIcEENS_9allocatorIcEEEE\00", comdat, align 1
@_ZTINSt3__118basic_stringstreamIcNS_11char_traitsIcEENS_9allocatorIcEEEE = linkonce_odr dso_local constant { ptr, ptr, ptr } { ptr getelementptr inbounds (ptr, ptr @_ZTVN10__cxxabiv120__si_class_type_infoE, i64 2), ptr @_ZTSNSt3__118basic_stringstreamIcNS_11char_traitsIcEENS_9allocatorIcEEEE, ptr @_ZTINSt3__114basic_iostreamIcNS_11char_traitsIcEEEE }, comdat, align 8
@_ZTVNSt3__115basic_stringbufIcNS_11char_traitsIcEENS_9allocatorIcEEEE = linkonce_odr dso_local unnamed_addr constant { [16 x ptr] } { [16 x ptr] [ptr null, ptr @_ZTINSt3__115basic_stringbufIcNS_11char_traitsIcEENS_9allocatorIcEEEE, ptr @_ZNSt3__115basic_stringbufIcNS_11char_traitsIcEENS_9allocatorIcEEED2Ev, ptr @_ZNSt3__115basic_stringbufIcNS_11char_traitsIcEENS_9allocatorIcEEED0Ev, ptr @_ZNSt3__115basic_streambufIcNS_11char_traitsIcEEE5imbueERKNS_6localeE, ptr @_ZNSt3__115basic_streambufIcNS_11char_traitsIcEEE6setbufEPcl, ptr @_ZNSt3__115basic_stringbufIcNS_11char_traitsIcEENS_9allocatorIcEEE7seekoffExNS_8ios_base7seekdirEj, ptr @_ZNSt3__115basic_stringbufIcNS_11char_traitsIcEENS_9allocatorIcEEE7seekposENS_4fposI11__mbstate_tEEj, ptr @_ZNSt3__115basic_streambufIcNS_11char_traitsIcEEE4syncEv, ptr @_ZNSt3__115basic_streambufIcNS_11char_traitsIcEEE9showmanycEv, ptr @_ZNSt3__115basic_streambufIcNS_11char_traitsIcEEE6xsgetnEPcl, ptr @_ZNSt3__115basic_stringbufIcNS_11char_traitsIcEENS_9allocatorIcEEE9underflowEv, ptr @_ZNSt3__115basic_streambufIcNS_11char_traitsIcEEE5uflowEv, ptr @_ZNSt3__115basic_stringbufIcNS_11char_traitsIcEENS_9allocatorIcEEE9pbackfailEi, ptr @_ZNSt3__115basic_streambufIcNS_11char_traitsIcEEE6xsputnEPKcl, ptr @_ZNSt3__115basic_stringbufIcNS_11char_traitsIcEENS_9allocatorIcEEE8overflowEi] }, comdat, align 8
@_ZTSNSt3__115basic_stringbufIcNS_11char_traitsIcEENS_9allocatorIcEEEE = linkonce_odr dso_local constant [66 x i8] c"NSt3__115basic_stringbufIcNS_11char_traitsIcEENS_9allocatorIcEEEE\00", comdat, align 1
@_ZTINSt3__115basic_streambufIcNS_11char_traitsIcEEEE = external constant ptr
@_ZTINSt3__115basic_stringbufIcNS_11char_traitsIcEENS_9allocatorIcEEEE = linkonce_odr dso_local constant { ptr, ptr, ptr } { ptr getelementptr inbounds (ptr, ptr @_ZTVN10__cxxabiv120__si_class_type_infoE, i64 2), ptr @_ZTSNSt3__115basic_stringbufIcNS_11char_traitsIcEENS_9allocatorIcEEEE, ptr @_ZTINSt3__115basic_streambufIcNS_11char_traitsIcEEEE }, comdat, align 8
@.str.21 = private unnamed_addr constant [5 x i8] c"true\00", align 1
@.str.22 = private unnamed_addr constant [6 x i8] c"false\00", align 1
@.str.23 = private unnamed_addr constant [13 x i8] c"basic_string\00", align 1
@_ZTISt12length_error = external constant ptr
@_ZTVSt12length_error = external unnamed_addr constant { [5 x ptr] }, align 8
@_ZTISt20bad_array_new_length = external constant ptr
@_ZNSt3__15ctypeIcE2idE = external global %"class.std::__1::locale::id", align 8
@.str.24 = private unnamed_addr constant [1 x i8] zeroinitializer, align 1
@_ZTVN7testing8internal15TestFactoryImplIN12_GLOBAL__N_132PerfCountersTest_OneCounter_TestEEE = internal unnamed_addr constant { [5 x ptr] } { [5 x ptr] [ptr null, ptr @_ZTIN7testing8internal15TestFactoryImplIN12_GLOBAL__N_132PerfCountersTest_OneCounter_TestEEE, ptr @_ZN7testing8internal15TestFactoryBaseD2Ev, ptr @_ZN7testing8internal15TestFactoryImplIN12_GLOBAL__N_132PerfCountersTest_OneCounter_TestEED0Ev, ptr @_ZN7testing8internal15TestFactoryImplIN12_GLOBAL__N_132PerfCountersTest_OneCounter_TestEE10CreateTestEv] }, align 8
@_ZTSN7testing8internal15TestFactoryImplIN12_GLOBAL__N_132PerfCountersTest_OneCounter_TestEEE = internal constant [89 x i8] c"N7testing8internal15TestFactoryImplIN12_GLOBAL__N_132PerfCountersTest_OneCounter_TestEEE\00", align 1
@_ZTIN7testing8internal15TestFactoryImplIN12_GLOBAL__N_132PerfCountersTest_OneCounter_TestEEE = internal constant { ptr, ptr, ptr } { ptr getelementptr inbounds (ptr, ptr @_ZTVN10__cxxabiv120__si_class_type_infoE, i64 2), ptr @_ZTSN7testing8internal15TestFactoryImplIN12_GLOBAL__N_132PerfCountersTest_OneCounter_TestEEE, ptr @_ZTIN7testing8internal15TestFactoryBaseE }, align 8
@_ZTVN12_GLOBAL__N_132PerfCountersTest_OneCounter_TestE = internal unnamed_addr constant { [8 x ptr] } { [8 x ptr] [ptr null, ptr @_ZTIN12_GLOBAL__N_132PerfCountersTest_OneCounter_TestE, ptr @_ZN7testing4TestD2Ev, ptr @_ZN12_GLOBAL__N_132PerfCountersTest_OneCounter_TestD0Ev, ptr @_ZN7testing4Test5SetUpEv, ptr @_ZN7testing4Test8TearDownEv, ptr @_ZN12_GLOBAL__N_132PerfCountersTest_OneCounter_Test8TestBodyEv, ptr @_ZN7testing4Test5SetupEv] }, align 8
@_ZTSN12_GLOBAL__N_132PerfCountersTest_OneCounter_TestE = internal constant [51 x i8] c"N12_GLOBAL__N_132PerfCountersTest_OneCounter_TestE\00", align 1
@_ZTIN12_GLOBAL__N_132PerfCountersTest_OneCounter_TestE = internal constant { ptr, ptr, ptr } { ptr getelementptr inbounds (ptr, ptr @_ZTVN10__cxxabiv120__si_class_type_infoE, i64 2), ptr @_ZTSN12_GLOBAL__N_132PerfCountersTest_OneCounter_TestE, ptr @_ZTIN7testing4TestE }, align 8
@.str.25 = private unnamed_addr constant [37 x i8] c"Performance counters not supported.\0A\00", align 1
@_ZN12_GLOBAL__N_118kGenericPerfEvent1E = internal constant [7 x i8] c"CYCLES\00", align 1
@.str.26 = private unnamed_addr constant [53 x i8] c"PerfCounters::Create({kGenericPerfEvent1}).IsValid()\00", align 1
@.str.27 = private unnamed_addr constant [7 x i8] c"vector\00", align 1
@_ZTVN7testing8internal15TestFactoryImplIN12_GLOBAL__N_134PerfCountersTest_NegativeTest_TestEEE = internal unnamed_addr constant { [5 x ptr] } { [5 x ptr] [ptr null, ptr @_ZTIN7testing8internal15TestFactoryImplIN12_GLOBAL__N_134PerfCountersTest_NegativeTest_TestEEE, ptr @_ZN7testing8internal15TestFactoryBaseD2Ev, ptr @_ZN7testing8internal15TestFactoryImplIN12_GLOBAL__N_134PerfCountersTest_NegativeTest_TestEED0Ev, ptr @_ZN7testing8internal15TestFactoryImplIN12_GLOBAL__N_134PerfCountersTest_NegativeTest_TestEE10CreateTestEv] }, align 8
@_ZTSN7testing8internal15TestFactoryImplIN12_GLOBAL__N_134PerfCountersTest_NegativeTest_TestEEE = internal constant [91 x i8] c"N7testing8internal15TestFactoryImplIN12_GLOBAL__N_134PerfCountersTest_NegativeTest_TestEEE\00", align 1
@_ZTIN7testing8internal15TestFactoryImplIN12_GLOBAL__N_134PerfCountersTest_NegativeTest_TestEEE = internal constant { ptr, ptr, ptr } { ptr getelementptr inbounds (ptr, ptr @_ZTVN10__cxxabiv120__si_class_type_infoE, i64 2), ptr @_ZTSN7testing8internal15TestFactoryImplIN12_GLOBAL__N_134PerfCountersTest_NegativeTest_TestEEE, ptr @_ZTIN7testing8internal15TestFactoryBaseE }, align 8
@_ZTVN12_GLOBAL__N_134PerfCountersTest_NegativeTest_TestE = internal unnamed_addr constant { [8 x ptr] } { [8 x ptr] [ptr null, ptr @_ZTIN12_GLOBAL__N_134PerfCountersTest_NegativeTest_TestE, ptr @_ZN7testing4TestD2Ev, ptr @_ZN12_GLOBAL__N_134PerfCountersTest_NegativeTest_TestD0Ev, ptr @_ZN7testing4Test5SetUpEv, ptr @_ZN7testing4Test8TearDownEv, ptr @_ZN12_GLOBAL__N_134PerfCountersTest_NegativeTest_Test8TestBodyEv, ptr @_ZN7testing4Test5SetupEv] }, align 8
@_ZTSN12_GLOBAL__N_134PerfCountersTest_NegativeTest_TestE = internal constant [53 x i8] c"N12_GLOBAL__N_134PerfCountersTest_NegativeTest_TestE\00", align 1
@_ZTIN12_GLOBAL__N_134PerfCountersTest_NegativeTest_TestE = internal constant { ptr, ptr, ptr } { ptr getelementptr inbounds (ptr, ptr @_ZTVN10__cxxabiv120__si_class_type_infoE, i64 2), ptr @_ZTSN12_GLOBAL__N_134PerfCountersTest_NegativeTest_TestE, ptr @_ZTIN7testing4TestE }, align 8
@.str.28 = private unnamed_addr constant [35 x i8] c"PerfCounters::Create({}).IsValid()\00", align 1
@.str.29 = private unnamed_addr constant [37 x i8] c"PerfCounters::Create({\22\22}).IsValid()\00", align 1
@.str.30 = private unnamed_addr constant [19 x i8] c"not a counter name\00", align 1
@.str.31 = private unnamed_addr constant [55 x i8] c"PerfCounters::Create({\22not a counter name\22}).IsValid()\00", align 1
@_ZN12_GLOBAL__N_118kGenericPerfEvent2E = internal constant [9 x i8] c"BRANCHES\00", align 1
@_ZN12_GLOBAL__N_118kGenericPerfEvent3E = internal constant [13 x i8] c"INSTRUCTIONS\00", align 1
@.str.32 = private unnamed_addr constant [94 x i8] c"PerfCounters::Create({kGenericPerfEvent1, kGenericPerfEvent2, kGenericPerfEvent3}) .IsValid()\00", align 1
@.str.33 = private unnamed_addr constant [78 x i8] c"PerfCounters::Create({kGenericPerfEvent2, \22\22, kGenericPerfEvent1}) .IsValid()\00", align 1
@.str.34 = private unnamed_addr constant [96 x i8] c"PerfCounters::Create({kGenericPerfEvent3, \22not a counter name\22, kGenericPerfEvent1}) .IsValid()\00", align 1
@.str.35 = private unnamed_addr constant [28 x i8] c"MISPREDICTED_BRANCH_RETIRED\00", align 1
@.str.36 = private unnamed_addr constant [125 x i8] c"PerfCounters::Create({kGenericPerfEvent1, kGenericPerfEvent2, kGenericPerfEvent3, \22MISPREDICTED_BRANCH_RETIRED\22}) .IsValid()\00", align 1
@_ZTVN7testing8internal15TestFactoryImplIN12_GLOBAL__N_134PerfCountersTest_Read1Counter_TestEEE = internal unnamed_addr constant { [5 x ptr] } { [5 x ptr] [ptr null, ptr @_ZTIN7testing8internal15TestFactoryImplIN12_GLOBAL__N_134PerfCountersTest_Read1Counter_TestEEE, ptr @_ZN7testing8internal15TestFactoryBaseD2Ev, ptr @_ZN7testing8internal15TestFactoryImplIN12_GLOBAL__N_134PerfCountersTest_Read1Counter_TestEED0Ev, ptr @_ZN7testing8internal15TestFactoryImplIN12_GLOBAL__N_134PerfCountersTest_Read1Counter_TestEE10CreateTestEv] }, align 8
@_ZTSN7testing8internal15TestFactoryImplIN12_GLOBAL__N_134PerfCountersTest_Read1Counter_TestEEE = internal constant [91 x i8] c"N7testing8internal15TestFactoryImplIN12_GLOBAL__N_134PerfCountersTest_Read1Counter_TestEEE\00", align 1
@_ZTIN7testing8internal15TestFactoryImplIN12_GLOBAL__N_134PerfCountersTest_Read1Counter_TestEEE = internal constant { ptr, ptr, ptr } { ptr getelementptr inbounds (ptr, ptr @_ZTVN10__cxxabiv120__si_class_type_infoE, i64 2), ptr @_ZTSN7testing8internal15TestFactoryImplIN12_GLOBAL__N_134PerfCountersTest_Read1Counter_TestEEE, ptr @_ZTIN7testing8internal15TestFactoryBaseE }, align 8
@_ZTVN12_GLOBAL__N_134PerfCountersTest_Read1Counter_TestE = internal unnamed_addr constant { [8 x ptr] } { [8 x ptr] [ptr null, ptr @_ZTIN12_GLOBAL__N_134PerfCountersTest_Read1Counter_TestE, ptr @_ZN7testing4TestD2Ev, ptr @_ZN12_GLOBAL__N_134PerfCountersTest_Read1Counter_TestD0Ev, ptr @_ZN7testing4Test5SetUpEv, ptr @_ZN7testing4Test8TearDownEv, ptr @_ZN12_GLOBAL__N_134PerfCountersTest_Read1Counter_Test8TestBodyEv, ptr @_ZN7testing4Test5SetupEv] }, align 8
@_ZTSN12_GLOBAL__N_134PerfCountersTest_Read1Counter_TestE = internal constant [53 x i8] c"N12_GLOBAL__N_134PerfCountersTest_Read1Counter_TestE\00", align 1
@_ZTIN12_GLOBAL__N_134PerfCountersTest_Read1Counter_TestE = internal constant { ptr, ptr, ptr } { ptr getelementptr inbounds (ptr, ptr @_ZTVN10__cxxabiv120__si_class_type_infoE, i64 2), ptr @_ZTSN12_GLOBAL__N_134PerfCountersTest_Read1Counter_TestE, ptr @_ZTIN7testing4TestE }, align 8
@.str.37 = private unnamed_addr constant [47 x i8] c"Test skipped because libpfm is not supported.\0A\00", align 1
@.str.38 = private unnamed_addr constant [19 x i8] c"counters.IsValid()\00", align 1
@.str.39 = private unnamed_addr constant [28 x i8] c"counters.Snapshot(&values1)\00", align 1
@.str.40 = private unnamed_addr constant [11 x i8] c"values1[0]\00", align 1
@.str.41 = private unnamed_addr constant [2 x i8] c"0\00", align 1
@.str.42 = private unnamed_addr constant [28 x i8] c"counters.Snapshot(&values2)\00", align 1
@.str.43 = private unnamed_addr constant [11 x i8] c"values2[0]\00", align 1
@.str.45 = private unnamed_addr constant [111 x i8] c"/local/mnt2/workspace2/mnadeem/llvm/llvm-test-suite/MicroBenchmarks/libs/benchmark/test/../src/perf_counters.h\00", align 1
@_ZZN9benchmark8internal18GetNullLogInstanceEvE3log = linkonce_odr hidden local_unnamed_addr global %"class.benchmark::internal::LogType" zeroinitializer, comdat, align 8
@_ZGVZN9benchmark8internal18GetNullLogInstanceEvE3log = linkonce_odr hidden global i64 0, comdat, align 8
@.str.46 = private unnamed_addr constant [2 x i8] c":\00", align 1
@.str.47 = private unnamed_addr constant [3 x i8] c": \00", align 1
@.str.48 = private unnamed_addr constant [10 x i8] c": Check `\00", align 1
@.str.49 = private unnamed_addr constant [11 x i8] c"' failed. \00", align 1
@_ZZN9benchmark8internal19GetErrorLogInstanceEvE3log = linkonce_odr hidden global %"class.benchmark::internal::LogType" zeroinitializer, comdat, align 8
@_ZGVZN9benchmark8internal19GetErrorLogInstanceEvE3log = linkonce_odr hidden global i64 0, comdat, align 8
@_ZNSt3__14clogE = external global %"class.std::__1::basic_ostream", align 8
@__PRETTY_FUNCTION__._ZNK9benchmark8internal12PerfCounters8SnapshotEPNS0_17PerfCounterValuesE = private unnamed_addr constant [76 x i8] c"bool benchmark::internal::PerfCounters::Snapshot(PerfCounterValues *) const\00", align 1
@.str.51 = private unnamed_addr constant [10 x i8] c"IsValid()\00", align 1
@.str.52 = private unnamed_addr constant [2 x i8] c">\00", align 1
@.str.53 = private unnamed_addr constant [12 x i8] c"Expected: (\00", align 1
@.str.54 = private unnamed_addr constant [3 x i8] c") \00", align 1
@.str.55 = private unnamed_addr constant [3 x i8] c" (\00", align 1
@.str.56 = private unnamed_addr constant [12 x i8] c"), actual: \00", align 1
@.str.57 = private unnamed_addr constant [5 x i8] c" vs \00", align 1
@.str.58 = private unnamed_addr constant [7 x i8] c"(null)\00", align 1
@_ZTVN7testing8internal15TestFactoryImplIN12_GLOBAL__N_135PerfCountersTest_Read2Counters_TestEEE = internal unnamed_addr constant { [5 x ptr] } { [5 x ptr] [ptr null, ptr @_ZTIN7testing8internal15TestFactoryImplIN12_GLOBAL__N_135PerfCountersTest_Read2Counters_TestEEE, ptr @_ZN7testing8internal15TestFactoryBaseD2Ev, ptr @_ZN7testing8internal15TestFactoryImplIN12_GLOBAL__N_135PerfCountersTest_Read2Counters_TestEED0Ev, ptr @_ZN7testing8internal15TestFactoryImplIN12_GLOBAL__N_135PerfCountersTest_Read2Counters_TestEE10CreateTestEv] }, align 8
@_ZTSN7testing8internal15TestFactoryImplIN12_GLOBAL__N_135PerfCountersTest_Read2Counters_TestEEE = internal constant [92 x i8] c"N7testing8internal15TestFactoryImplIN12_GLOBAL__N_135PerfCountersTest_Read2Counters_TestEEE\00", align 1
@_ZTIN7testing8internal15TestFactoryImplIN12_GLOBAL__N_135PerfCountersTest_Read2Counters_TestEEE = internal constant { ptr, ptr, ptr } { ptr getelementptr inbounds (ptr, ptr @_ZTVN10__cxxabiv120__si_class_type_infoE, i64 2), ptr @_ZTSN7testing8internal15TestFactoryImplIN12_GLOBAL__N_135PerfCountersTest_Read2Counters_TestEEE, ptr @_ZTIN7testing8internal15TestFactoryBaseE }, align 8
@_ZTVN12_GLOBAL__N_135PerfCountersTest_Read2Counters_TestE = internal unnamed_addr constant { [8 x ptr] } { [8 x ptr] [ptr null, ptr @_ZTIN12_GLOBAL__N_135PerfCountersTest_Read2Counters_TestE, ptr @_ZN7testing4TestD2Ev, ptr @_ZN12_GLOBAL__N_135PerfCountersTest_Read2Counters_TestD0Ev, ptr @_ZN7testing4Test5SetUpEv, ptr @_ZN7testing4Test8TearDownEv, ptr @_ZN12_GLOBAL__N_135PerfCountersTest_Read2Counters_Test8TestBodyEv, ptr @_ZN7testing4Test5SetupEv] }, align 8
@_ZTSN12_GLOBAL__N_135PerfCountersTest_Read2Counters_TestE = internal constant [54 x i8] c"N12_GLOBAL__N_135PerfCountersTest_Read2Counters_TestE\00", align 1
@_ZTIN12_GLOBAL__N_135PerfCountersTest_Read2Counters_TestE = internal constant { ptr, ptr, ptr } { ptr getelementptr inbounds (ptr, ptr @_ZTVN10__cxxabiv120__si_class_type_infoE, i64 2), ptr @_ZTSN12_GLOBAL__N_135PerfCountersTest_Read2Counters_TestE, ptr @_ZTIN7testing4TestE }, align 8
@.str.59 = private unnamed_addr constant [11 x i8] c"values1[1]\00", align 1
@.str.60 = private unnamed_addr constant [11 x i8] c"values2[1]\00", align 1
@_ZTVN7testing8internal15TestFactoryImplIN12_GLOBAL__N_144PerfCountersTest_ReopenExistingCounters_TestEEE = internal unnamed_addr constant { [5 x ptr] } { [5 x ptr] [ptr null, ptr @_ZTIN7testing8internal15TestFactoryImplIN12_GLOBAL__N_144PerfCountersTest_ReopenExistingCounters_TestEEE, ptr @_ZN7testing8internal15TestFactoryBaseD2Ev, ptr @_ZN7testing8internal15TestFactoryImplIN12_GLOBAL__N_144PerfCountersTest_ReopenExistingCounters_TestEED0Ev, ptr @_ZN7testing8internal15TestFactoryImplIN12_GLOBAL__N_144PerfCountersTest_ReopenExistingCounters_TestEE10CreateTestEv] }, align 8
@_ZTSN7testing8internal15TestFactoryImplIN12_GLOBAL__N_144PerfCountersTest_ReopenExistingCounters_TestEEE = internal constant [101 x i8] c"N7testing8internal15TestFactoryImplIN12_GLOBAL__N_144PerfCountersTest_ReopenExistingCounters_TestEEE\00", align 1
@_ZTIN7testing8internal15TestFactoryImplIN12_GLOBAL__N_144PerfCountersTest_ReopenExistingCounters_TestEEE = internal constant { ptr, ptr, ptr } { ptr getelementptr inbounds (ptr, ptr @_ZTVN10__cxxabiv120__si_class_type_infoE, i64 2), ptr @_ZTSN7testing8internal15TestFactoryImplIN12_GLOBAL__N_144PerfCountersTest_ReopenExistingCounters_TestEEE, ptr @_ZTIN7testing8internal15TestFactoryBaseE }, align 8
@_ZTVN12_GLOBAL__N_144PerfCountersTest_ReopenExistingCounters_TestE = internal unnamed_addr constant { [8 x ptr] } { [8 x ptr] [ptr null, ptr @_ZTIN12_GLOBAL__N_144PerfCountersTest_ReopenExistingCounters_TestE, ptr @_ZN7testing4TestD2Ev, ptr @_ZN12_GLOBAL__N_144PerfCountersTest_ReopenExistingCounters_TestD0Ev, ptr @_ZN7testing4Test5SetUpEv, ptr @_ZN7testing4Test8TearDownEv, ptr @_ZN12_GLOBAL__N_144PerfCountersTest_ReopenExistingCounters_Test8TestBodyEv, ptr @_ZN7testing4Test5SetupEv] }, align 8
@_ZTSN12_GLOBAL__N_144PerfCountersTest_ReopenExistingCounters_TestE = internal constant [63 x i8] c"N12_GLOBAL__N_144PerfCountersTest_ReopenExistingCounters_TestE\00", align 1
@_ZTIN12_GLOBAL__N_144PerfCountersTest_ReopenExistingCounters_TestE = internal constant { ptr, ptr, ptr } { ptr getelementptr inbounds (ptr, ptr @_ZTVN10__cxxabiv120__si_class_type_infoE, i64 2), ptr @_ZTSN12_GLOBAL__N_144PerfCountersTest_ReopenExistingCounters_TestE, ptr @_ZTIN7testing4TestE }, align 8
@.str.61 = private unnamed_addr constant [30 x i8] c"counters[0].Snapshot(&values)\00", align 1
@.str.62 = private unnamed_addr constant [30 x i8] c"counters[4].Snapshot(&values)\00", align 1
@.str.63 = private unnamed_addr constant [30 x i8] c"counters[5].Snapshot(&values)\00", align 1
@_ZTVN7testing8internal15TestFactoryImplIN12_GLOBAL__N_148PerfCountersTest_CreateExistingMeasurements_TestEEE = internal unnamed_addr constant { [5 x ptr] } { [5 x ptr] [ptr null, ptr @_ZTIN7testing8internal15TestFactoryImplIN12_GLOBAL__N_148PerfCountersTest_CreateExistingMeasurements_TestEEE, ptr @_ZN7testing8internal15TestFactoryBaseD2Ev, ptr @_ZN7testing8internal15TestFactoryImplIN12_GLOBAL__N_148PerfCountersTest_CreateExistingMeasurements_TestEED0Ev, ptr @_ZN7testing8internal15TestFactoryImplIN12_GLOBAL__N_148PerfCountersTest_CreateExistingMeasurements_TestEE10CreateTestEv] }, align 8
@_ZTSN7testing8internal15TestFactoryImplIN12_GLOBAL__N_148PerfCountersTest_CreateExistingMeasurements_TestEEE = internal constant [105 x i8] c"N7testing8internal15TestFactoryImplIN12_GLOBAL__N_148PerfCountersTest_CreateExistingMeasurements_TestEEE\00", align 1
@_ZTIN7testing8internal15TestFactoryImplIN12_GLOBAL__N_148PerfCountersTest_CreateExistingMeasurements_TestEEE = internal constant { ptr, ptr, ptr } { ptr getelementptr inbounds (ptr, ptr @_ZTVN10__cxxabiv120__si_class_type_infoE, i64 2), ptr @_ZTSN7testing8internal15TestFactoryImplIN12_GLOBAL__N_148PerfCountersTest_CreateExistingMeasurements_TestEEE, ptr @_ZTIN7testing8internal15TestFactoryBaseE }, align 8
@_ZTVN12_GLOBAL__N_148PerfCountersTest_CreateExistingMeasurements_TestE = internal unnamed_addr constant { [8 x ptr] } { [8 x ptr] [ptr null, ptr @_ZTIN12_GLOBAL__N_148PerfCountersTest_CreateExistingMeasurements_TestE, ptr @_ZN7testing4TestD2Ev, ptr @_ZN12_GLOBAL__N_148PerfCountersTest_CreateExistingMeasurements_TestD0Ev, ptr @_ZN7testing4Test5SetUpEv, ptr @_ZN7testing4Test8TearDownEv, ptr @_ZN12_GLOBAL__N_148PerfCountersTest_CreateExistingMeasurements_Test8TestBodyEv, ptr @_ZN7testing4Test5SetupEv] }, align 8
@_ZTSN12_GLOBAL__N_148PerfCountersTest_CreateExistingMeasurements_TestE = internal constant [67 x i8] c"N12_GLOBAL__N_148PerfCountersTest_CreateExistingMeasurements_TestE\00", align 1
@_ZTIN12_GLOBAL__N_148PerfCountersTest_CreateExistingMeasurements_TestE = internal constant { ptr, ptr, ptr } { ptr getelementptr inbounds (ptr, ptr @_ZTVN10__cxxabiv120__si_class_type_infoE, i64 2), ptr @_ZTSN12_GLOBAL__N_148PerfCountersTest_CreateExistingMeasurements_TestE, ptr @_ZTIN7testing4TestE }, align 8
@.str.64 = private unnamed_addr constant [48 x i8] c"perf_counter_measurements[0].Stop(measurements)\00", align 1
@.str.65 = private unnamed_addr constant [48 x i8] c"perf_counter_measurements[8].Stop(measurements)\00", align 1
@.str.66 = private unnamed_addr constant [48 x i8] c"perf_counter_measurements[9].Stop(measurements)\00", align 1
@__PRETTY_FUNCTION__._ZN9benchmark8internal23PerfCountersMeasurement5StartEv = private unnamed_addr constant [59 x i8] c"void benchmark::internal::PerfCountersMeasurement::Start()\00", align 1
@_ZN9benchmark8internal23PerfCountersMeasurement6mutex_E = external global %"class.benchmark::Mutex", align 8
@_ZN9benchmark8internal23PerfCountersMeasurement9counters_E = external local_unnamed_addr global %"class.benchmark::internal::PerfCounters", align 8
@__PRETTY_FUNCTION__._ZN9benchmark8internal23PerfCountersMeasurement4StopERNSt3__16vectorINS2_4pairINS2_12basic_stringIcNS2_11char_traitsIcEENS2_9allocatorIcEEEEdEENS8_ISB_EEEE = private unnamed_addr constant [103 x i8] c"bool benchmark::internal::PerfCountersMeasurement::Stop(std::vector<std::pair<std::string, double>> &)\00", align 1
@_ZTVN7testing8internal15TestFactoryImplIN12_GLOBAL__N_135PerfCountersTest_MultiThreaded_TestEEE = internal unnamed_addr constant { [5 x ptr] } { [5 x ptr] [ptr null, ptr @_ZTIN7testing8internal15TestFactoryImplIN12_GLOBAL__N_135PerfCountersTest_MultiThreaded_TestEEE, ptr @_ZN7testing8internal15TestFactoryBaseD2Ev, ptr @_ZN7testing8internal15TestFactoryImplIN12_GLOBAL__N_135PerfCountersTest_MultiThreaded_TestEED0Ev, ptr @_ZN7testing8internal15TestFactoryImplIN12_GLOBAL__N_135PerfCountersTest_MultiThreaded_TestEE10CreateTestEv] }, align 8
@_ZTSN7testing8internal15TestFactoryImplIN12_GLOBAL__N_135PerfCountersTest_MultiThreaded_TestEEE = internal constant [92 x i8] c"N7testing8internal15TestFactoryImplIN12_GLOBAL__N_135PerfCountersTest_MultiThreaded_TestEEE\00", align 1
@_ZTIN7testing8internal15TestFactoryImplIN12_GLOBAL__N_135PerfCountersTest_MultiThreaded_TestEEE = internal constant { ptr, ptr, ptr } { ptr getelementptr inbounds (ptr, ptr @_ZTVN10__cxxabiv120__si_class_type_infoE, i64 2), ptr @_ZTSN7testing8internal15TestFactoryImplIN12_GLOBAL__N_135PerfCountersTest_MultiThreaded_TestEEE, ptr @_ZTIN7testing8internal15TestFactoryBaseE }, align 8
@_ZTVN12_GLOBAL__N_135PerfCountersTest_MultiThreaded_TestE = internal unnamed_addr constant { [8 x ptr] } { [8 x ptr] [ptr null, ptr @_ZTIN12_GLOBAL__N_135PerfCountersTest_MultiThreaded_TestE, ptr @_ZN7testing4TestD2Ev, ptr @_ZN12_GLOBAL__N_135PerfCountersTest_MultiThreaded_TestD0Ev, ptr @_ZN7testing4Test5SetUpEv, ptr @_ZN7testing4Test8TearDownEv, ptr @_ZN12_GLOBAL__N_135PerfCountersTest_MultiThreaded_Test8TestBodyEv, ptr @_ZN7testing4Test5SetupEv] }, align 8
@_ZTSN12_GLOBAL__N_135PerfCountersTest_MultiThreaded_TestE = internal constant [54 x i8] c"N12_GLOBAL__N_135PerfCountersTest_MultiThreaded_TestE\00", align 1
@_ZTIN12_GLOBAL__N_135PerfCountersTest_MultiThreaded_TestE = internal constant { ptr, ptr, ptr } { ptr getelementptr inbounds (ptr, ptr @_ZTVN10__cxxabiv120__si_class_type_infoE, i64 2), ptr @_ZTSN12_GLOBAL__N_135PerfCountersTest_MultiThreaded_TestE, ptr @_ZTIN7testing4TestE }, align 8
@.str.67 = private unnamed_addr constant [46 x i8] c"Test skipped because libpfm is not supported.\00", align 1
@.str.68 = private unnamed_addr constant [6 x i8] c"D2[0]\00", align 1
@.str.69 = private unnamed_addr constant [12 x i8] c"1.9 * D1[0]\00", align 1
@.str.70 = private unnamed_addr constant [6 x i8] c"D2[1]\00", align 1
@.str.71 = private unnamed_addr constant [12 x i8] c"1.9 * D1[1]\00", align 1
@.str.72 = private unnamed_addr constant [23 x i8] c"(values1) != (nullptr)\00", align 1
@__func__._ZN12_GLOBAL__N_17measureEmPN9benchmark8internal17PerfCounterValuesES3_ = private unnamed_addr constant [8 x i8] c"measure\00", align 1
@.str.73 = private unnamed_addr constant [23 x i8] c"(values2) != (nullptr)\00", align 1
@.str.74 = private unnamed_addr constant [26 x i8] c"thread constructor failed\00", align 1
@.str.76 = private unnamed_addr constant [3 x i8] c">=\00", align 1
@.str.77 = private unnamed_addr constant [145 x i8] c"/local/mnt2/workspace2/mnadeem/llvm/llvm-test-suite/MicroBenchmarks/libs/benchmark/googletest/googletest/include/gtest/internal/gtest-internal.h\00", align 1
@.str.78 = private unnamed_addr constant [51 x i8] c"Condition !test_case_fp || !test_suite_fp failed. \00", align 1
@.str.79 = private unnamed_addr constant [107 x i8] c"Test can not provide both SetUpTestSuite and SetUpTestCase, please make sure there is only one present at \00", align 1
@_ZNSt3__14cerrE = external global %"class.std::__1::basic_ostream", align 8
@.str.80 = private unnamed_addr constant [112 x i8] c"Test can not provide both TearDownTestSuite and TearDownTestCase, please make sure there is only one present at\00", align 1
@llvm.global_ctors = appending global [1 x { i32, ptr, ptr }] [{ i32, ptr, ptr } { i32 65535, ptr @_GLOBAL__sub_I_perf_counters_gtest.cc, ptr null }]

declare noundef i32 @_ZN9benchmark8internal17InitializeStreamsEv() local_unnamed_addr #0

declare noundef zeroext i1 @_ZN9benchmark8internal12PerfCounters10InitializeEv() local_unnamed_addr #0

declare noundef ptr @_ZN7testing8internal23MakeAndRegisterTestInfoEPKcS2_S2_S2_NS0_12CodeLocationEPKvPFvvES7_PNS0_15TestFactoryBaseE(ptr noundef, ptr noundef, ptr noundef, ptr noundef, ptr noundef, ptr noundef, ptr noundef, ptr noundef, ptr noundef) local_unnamed_addr #0

; Function Attrs: mustprogress nocallback nofree nosync nounwind willreturn memory(argmem: readwrite)
declare void @llvm.lifetime.start.p0(i64 immarg, ptr nocapture) #1

declare i32 @__gxx_personality_v0(...)

declare noundef ptr @_ZN7testing8internal13GetTestTypeIdEv() local_unnamed_addr #0

; Function Attrs: mustprogress uwtable
define linkonce_odr hidden noundef ptr @_ZN7testing8internal16SuiteApiResolverINS_4TestEE19GetSetUpCaseOrSuiteEPKci(ptr noundef %filename, i32 noundef %line_num) local_unnamed_addr #2 comdat align 2 personality ptr @__gxx_personality_v0 {
entry:
  %ref.tmp = alloca %"class.testing::internal::GTestLog", align 4
  %call3 = tail call noundef zeroext i1 @_ZN7testing8internal6IsTrueEb(i1 noundef zeroext true)
  br i1 %call3, label %if.end, label %if.else

if.else:                                          ; preds = %entry
  call void @llvm.lifetime.start.p0(i64 4, ptr nonnull %ref.tmp) #24
  call void @_ZN7testing8internal8GTestLogC1ENS0_16GTestLogSeverityEPKci(ptr noundef nonnull align 4 dereferenceable(4) %ref.tmp, i32 noundef 3, ptr noundef nonnull @.str.77, i32 noundef 531)
  %call1.i19 = invoke noundef nonnull align 8 dereferenceable(8) ptr @_ZNSt3__124__put_character_sequenceB7v170000IcNS_11char_traitsIcEEEERNS_13basic_ostreamIT_T0_EES7_PKS4_m(ptr noundef nonnull align 8 dereferenceable(8) @_ZNSt3__14cerrE, ptr noundef nonnull @.str.78, i64 noundef 50)
          to label %invoke.cont5 unwind label %lpad

invoke.cont5:                                     ; preds = %if.else
  %call1.i21 = invoke noundef nonnull align 8 dereferenceable(8) ptr @_ZNSt3__124__put_character_sequenceB7v170000IcNS_11char_traitsIcEEEERNS_13basic_ostreamIT_T0_EES7_PKS4_m(ptr noundef nonnull align 8 dereferenceable(8) %call1.i19, ptr noundef nonnull @.str.79, i64 noundef 106)
          to label %invoke.cont7 unwind label %lpad

invoke.cont7:                                     ; preds = %invoke.cont5
  %call.i.i.i23 = call i64 @strlen(ptr noundef nonnull dereferenceable(1) %filename) #24
  %call1.i24 = invoke noundef nonnull align 8 dereferenceable(8) ptr @_ZNSt3__124__put_character_sequenceB7v170000IcNS_11char_traitsIcEEEERNS_13basic_ostreamIT_T0_EES7_PKS4_m(ptr noundef nonnull align 8 dereferenceable(8) %call1.i21, ptr noundef %filename, i64 noundef %call.i.i.i23)
          to label %invoke.cont9 unwind label %lpad

invoke.cont9:                                     ; preds = %invoke.cont7
  %call1.i27 = invoke noundef nonnull align 8 dereferenceable(8) ptr @_ZNSt3__124__put_character_sequenceB7v170000IcNS_11char_traitsIcEEEERNS_13basic_ostreamIT_T0_EES7_PKS4_m(ptr noundef nonnull align 8 dereferenceable(8) %call1.i24, ptr noundef nonnull @.str.46, i64 noundef 1)
          to label %invoke.cont11 unwind label %lpad

invoke.cont11:                                    ; preds = %invoke.cont9
  %call14 = invoke noundef nonnull align 8 dereferenceable(8) ptr @_ZNSt3__113basic_ostreamIcNS_11char_traitsIcEEElsEi(ptr noundef nonnull align 8 dereferenceable(8) %call1.i27, i32 noundef %line_num)
          to label %invoke.cont13 unwind label %lpad

invoke.cont13:                                    ; preds = %invoke.cont11
  call void @_ZN7testing8internal8GTestLogD1Ev(ptr noundef nonnull align 4 dereferenceable(4) %ref.tmp) #24
  call void @llvm.lifetime.end.p0(i64 4, ptr nonnull %ref.tmp) #24
  br label %if.end

lpad:                                             ; preds = %invoke.cont9, %invoke.cont7, %invoke.cont5, %if.else, %invoke.cont11
  %0 = landingpad { ptr, i32 }
          cleanup
  call void @_ZN7testing8internal8GTestLogD1Ev(ptr noundef nonnull align 4 dereferenceable(4) %ref.tmp) #24
  call void @llvm.lifetime.end.p0(i64 4, ptr nonnull %ref.tmp) #24
  resume { ptr, i32 } %0

if.end:                                           ; preds = %entry, %invoke.cont13
  ret ptr null
}

; Function Attrs: mustprogress uwtable
define linkonce_odr hidden noundef ptr @_ZN7testing8internal16SuiteApiResolverINS_4TestEE22GetTearDownCaseOrSuiteEPKci(ptr noundef %filename, i32 noundef %line_num) local_unnamed_addr #2 comdat align 2 personality ptr @__gxx_personality_v0 {
entry:
  %ref.tmp = alloca %"class.testing::internal::GTestLog", align 4
  %call3 = tail call noundef zeroext i1 @_ZN7testing8internal6IsTrueEb(i1 noundef zeroext true)
  br i1 %call3, label %if.end, label %if.else

if.else:                                          ; preds = %entry
  call void @llvm.lifetime.start.p0(i64 4, ptr nonnull %ref.tmp) #24
  call void @_ZN7testing8internal8GTestLogC1ENS0_16GTestLogSeverityEPKci(ptr noundef nonnull align 4 dereferenceable(4) %ref.tmp, i32 noundef 3, ptr noundef nonnull @.str.77, i32 noundef 552)
  %call1.i18 = invoke noundef nonnull align 8 dereferenceable(8) ptr @_ZNSt3__124__put_character_sequenceB7v170000IcNS_11char_traitsIcEEEERNS_13basic_ostreamIT_T0_EES7_PKS4_m(ptr noundef nonnull align 8 dereferenceable(8) @_ZNSt3__14cerrE, ptr noundef nonnull @.str.78, i64 noundef 50)
          to label %invoke.cont unwind label %lpad

invoke.cont:                                      ; preds = %if.else
  %call1.i20 = invoke noundef nonnull align 8 dereferenceable(8) ptr @_ZNSt3__124__put_character_sequenceB7v170000IcNS_11char_traitsIcEEEERNS_13basic_ostreamIT_T0_EES7_PKS4_m(ptr noundef nonnull align 8 dereferenceable(8) %call1.i18, ptr noundef nonnull @.str.80, i64 noundef 111)
          to label %invoke.cont6 unwind label %lpad

invoke.cont6:                                     ; preds = %invoke.cont
  %call.i.i.i22 = call i64 @strlen(ptr noundef nonnull dereferenceable(1) %filename) #24
  %call1.i23 = invoke noundef nonnull align 8 dereferenceable(8) ptr @_ZNSt3__124__put_character_sequenceB7v170000IcNS_11char_traitsIcEEEERNS_13basic_ostreamIT_T0_EES7_PKS4_m(ptr noundef nonnull align 8 dereferenceable(8) %call1.i20, ptr noundef %filename, i64 noundef %call.i.i.i22)
          to label %invoke.cont8 unwind label %lpad

invoke.cont8:                                     ; preds = %invoke.cont6
  %call1.i26 = invoke noundef nonnull align 8 dereferenceable(8) ptr @_ZNSt3__124__put_character_sequenceB7v170000IcNS_11char_traitsIcEEEERNS_13basic_ostreamIT_T0_EES7_PKS4_m(ptr noundef nonnull align 8 dereferenceable(8) %call1.i23, ptr noundef nonnull @.str.46, i64 noundef 1)
          to label %invoke.cont10 unwind label %lpad

invoke.cont10:                                    ; preds = %invoke.cont8
  %call13 = invoke noundef nonnull align 8 dereferenceable(8) ptr @_ZNSt3__113basic_ostreamIcNS_11char_traitsIcEEElsEi(ptr noundef nonnull align 8 dereferenceable(8) %call1.i26, i32 noundef %line_num)
          to label %invoke.cont12 unwind label %lpad

invoke.cont12:                                    ; preds = %invoke.cont10
  call void @_ZN7testing8internal8GTestLogD1Ev(ptr noundef nonnull align 4 dereferenceable(4) %ref.tmp) #24
  call void @llvm.lifetime.end.p0(i64 4, ptr nonnull %ref.tmp) #24
  br label %if.end

lpad:                                             ; preds = %invoke.cont8, %invoke.cont6, %invoke.cont, %if.else, %invoke.cont10
  %0 = landingpad { ptr, i32 }
          cleanup
  call void @_ZN7testing8internal8GTestLogD1Ev(ptr noundef nonnull align 4 dereferenceable(4) %ref.tmp) #24
  call void @llvm.lifetime.end.p0(i64 4, ptr nonnull %ref.tmp) #24
  resume { ptr, i32 } %0

if.end:                                           ; preds = %entry, %invoke.cont12
  ret ptr null
}

; Function Attrs: nobuiltin allocsize(0)
declare noundef nonnull ptr @_Znwm(i64 noundef) local_unnamed_addr #3

; Function Attrs: nobuiltin nounwind
declare void @_ZdlPv(ptr noundef) local_unnamed_addr #4

; Function Attrs: mustprogress nocallback nofree nosync nounwind willreturn memory(argmem: readwrite)
declare void @llvm.lifetime.end.p0(i64 immarg, ptr nocapture) #1

; Function Attrs: mustprogress nocallback nofree nosync nounwind willreturn memory(argmem: readwrite)
declare ptr @llvm.invariant.start.p0(i64 immarg, ptr nocapture) #1

declare void @_ZNSt3__112basic_stringIcNS_11char_traitsIcEENS_9allocatorIcEEEC1ERKS5_(ptr noundef nonnull align 8 dereferenceable(24), ptr noundef nonnull align 8 dereferenceable(24)) unnamed_addr #0

; Function Attrs: inlinehint nounwind uwtable
define internal void @_ZN7testing8internal15TestFactoryImplIN12_GLOBAL__N_126PerfCountersTest_Init_TestEED0Ev(ptr noundef nonnull align 8 dereferenceable(8) %this) unnamed_addr #5 align 2 {
entry:
  tail call void @_ZdlPv(ptr noundef nonnull %this) #25
  ret void
}

; Function Attrs: uwtable
define internal noundef nonnull ptr @_ZN7testing8internal15TestFactoryImplIN12_GLOBAL__N_126PerfCountersTest_Init_TestEE10CreateTestEv(ptr nocapture nonnull readnone align 8 %this) unnamed_addr #6 align 2 personality ptr @__gxx_personality_v0 {
entry:
  %call = tail call noalias noundef nonnull dereferenceable(16) ptr @_Znwm(i64 noundef 16) #26
  invoke void @_ZN7testing4TestC2Ev(ptr noundef nonnull align 8 dereferenceable(16) %call)
          to label %invoke.cont unwind label %lpad

invoke.cont:                                      ; preds = %entry
  store ptr getelementptr inbounds ({ [8 x ptr] }, ptr @_ZTVN12_GLOBAL__N_126PerfCountersTest_Init_TestE, i64 0, inrange i32 0, i64 2), ptr %call, align 8, !tbaa !5
  ret ptr %call

lpad:                                             ; preds = %entry
  %0 = landingpad { ptr, i32 }
          cleanup
  tail call void @_ZdlPv(ptr noundef nonnull %call) #25
  resume { ptr, i32 } %0
}

declare void @_ZN7testing4TestC2Ev(ptr noundef nonnull align 8 dereferenceable(16)) unnamed_addr #0

; Function Attrs: nounwind uwtable
define internal void @_ZN12_GLOBAL__N_126PerfCountersTest_Init_TestD0Ev(ptr noundef nonnull align 8 dereferenceable(16) %this) unnamed_addr #7 align 2 {
entry:
  tail call void @_ZN7testing4TestD2Ev(ptr noundef nonnull align 8 dereferenceable(16) %this) #24
  tail call void @_ZdlPv(ptr noundef nonnull %this) #25
  ret void
}

declare void @_ZN7testing4Test5SetUpEv(ptr noundef nonnull align 8 dereferenceable(16)) unnamed_addr #0

declare void @_ZN7testing4Test8TearDownEv(ptr noundef nonnull align 8 dereferenceable(16)) unnamed_addr #0

; Function Attrs: uwtable
define internal void @_ZN12_GLOBAL__N_126PerfCountersTest_Init_Test8TestBodyEv(ptr nocapture nonnull readnone align 8 %this) unnamed_addr #6 align 2 personality ptr @__gxx_personality_v0 {
entry:
  %gtest_ar = alloca %"class.testing::AssertionResult", align 8
  %ref.tmp = alloca i8, align 1
  %ref.tmp3 = alloca %"class.testing::Message", align 8
  %ref.tmp6 = alloca %"class.testing::internal::AssertHelper", align 8
  call void @llvm.lifetime.start.p0(i64 16, ptr nonnull %gtest_ar) #24
  call void @llvm.lifetime.start.p0(i64 1, ptr nonnull %ref.tmp) #24
  %call = tail call noundef zeroext i1 @_ZN9benchmark8internal12PerfCounters10InitializeEv()
  %frombool = zext i1 %call to i8
  store i8 %frombool, ptr %ref.tmp, align 1, !tbaa !8
  %0 = load i8, ptr @_ZN9benchmark8internal12PerfCounters10kSupportedE, align 1, !tbaa !8, !range !11, !noalias !12, !noundef !17
  %cmp.i.i = icmp eq i8 %0, %frombool
  br i1 %cmp.i.i, label %if.then.i.i, label %if.end.i.i

if.then.i.i:                                      ; preds = %entry
  call void @_ZN7testing16AssertionSuccessEv(ptr nonnull sret(%"class.testing::AssertionResult") align 8 %gtest_ar)
  br label %_ZN7testing8internal8EqHelper7CompareIbbLPv0EEENS_15AssertionResultEPKcS6_RKT_RKT0_.exit

if.end.i.i:                                       ; preds = %entry
  call void @_ZN7testing8internal18CmpHelperEQFailureIbbEENS_15AssertionResultEPKcS4_RKT_RKT0_(ptr nonnull sret(%"class.testing::AssertionResult") align 8 %gtest_ar, ptr noundef nonnull @.str.19, ptr noundef nonnull @.str.20, ptr noundef nonnull align 1 dereferenceable(1) %ref.tmp, ptr noundef nonnull align 1 dereferenceable(1) @_ZN9benchmark8internal12PerfCounters10kSupportedE)
  br label %_ZN7testing8internal8EqHelper7CompareIbbLPv0EEENS_15AssertionResultEPKcS6_RKT_RKT0_.exit

_ZN7testing8internal8EqHelper7CompareIbbLPv0EEENS_15AssertionResultEPKcS6_RKT_RKT0_.exit: ; preds = %if.then.i.i, %if.end.i.i
  call void @llvm.lifetime.end.p0(i64 1, ptr nonnull %ref.tmp) #24
  %1 = load i8, ptr %gtest_ar, align 8, !tbaa !18, !range !11, !noundef !17
  %tobool.i.not = icmp eq i8 %1, 0
  br i1 %tobool.i.not, label %if.else, label %if.end

if.else:                                          ; preds = %_ZN7testing8internal8EqHelper7CompareIbbLPv0EEENS_15AssertionResultEPKcS6_RKT_RKT0_.exit
  call void @llvm.lifetime.start.p0(i64 8, ptr nonnull %ref.tmp3) #24
  invoke void @_ZN7testing7MessageC1Ev(ptr noundef nonnull align 8 dereferenceable(8) %ref.tmp3)
          to label %invoke.cont5 unwind label %lpad4

invoke.cont5:                                     ; preds = %if.else
  call void @llvm.lifetime.start.p0(i64 8, ptr nonnull %ref.tmp6) #24
  %message_.i.i = getelementptr inbounds %"class.testing::AssertionResult", ptr %gtest_ar, i64 0, i32 1
  %2 = load ptr, ptr %message_.i.i, align 8, !tbaa !24
  %cmp.not.i.i = icmp eq ptr %2, null
  br i1 %cmp.not.i.i, label %invoke.cont8, label %cond.true.i.i

cond.true.i.i:                                    ; preds = %invoke.cont5
  %bf.load.i.i.i.i.i.i = load i8, ptr %2, align 8
  %bf.clear.i.i.i.i.i.i = and i8 %bf.load.i.i.i.i.i.i, 1
  %tobool.i.not.i.i.i.i.i = icmp eq i8 %bf.clear.i.i.i.i.i.i, 0
  %__data_.i.i.i.i.i.i = getelementptr inbounds %"struct.std::__1::basic_string<char>::__long", ptr %2, i64 0, i32 2
  %3 = load ptr, ptr %__data_.i.i.i.i.i.i, align 8
  %__data_.i4.i.i.i.i.i = getelementptr inbounds %"struct.std::__1::basic_string<char>::__short", ptr %2, i64 0, i32 2
  %cond.i.i.i.i.i = select i1 %tobool.i.not.i.i.i.i.i, ptr %__data_.i4.i.i.i.i.i, ptr %3
  br label %invoke.cont8

invoke.cont8:                                     ; preds = %cond.true.i.i, %invoke.cont5
  %cond.i.i = phi ptr [ %cond.i.i.i.i.i, %cond.true.i.i ], [ @.str.24, %invoke.cont5 ]
  invoke void @_ZN7testing8internal12AssertHelperC1ENS_14TestPartResult4TypeEPKciS5_(ptr noundef nonnull align 8 dereferenceable(8) %ref.tmp6, i32 noundef 1, ptr noundef nonnull @.str.4, i32 noundef 23, ptr noundef %cond.i.i)
          to label %invoke.cont10 unwind label %lpad7

invoke.cont10:                                    ; preds = %invoke.cont8
  invoke void @_ZNK7testing8internal12AssertHelperaSERKNS_7MessageE(ptr noundef nonnull align 8 dereferenceable(8) %ref.tmp6, ptr noundef nonnull align 8 dereferenceable(8) %ref.tmp3)
          to label %invoke.cont12 unwind label %lpad11

invoke.cont12:                                    ; preds = %invoke.cont10
  call void @_ZN7testing8internal12AssertHelperD1Ev(ptr noundef nonnull align 8 dereferenceable(8) %ref.tmp6) #24
  call void @llvm.lifetime.end.p0(i64 8, ptr nonnull %ref.tmp6) #24
  %4 = load ptr, ptr %ref.tmp3, align 8, !tbaa !24
  store ptr null, ptr %ref.tmp3, align 8, !tbaa !24
  %tobool.not.i.i.i = icmp eq ptr %4, null
  br i1 %tobool.not.i.i.i, label %_ZN7testing7MessageD2Ev.exit, label %_ZNKSt3__114default_deleteINS_18basic_stringstreamIcNS_11char_traitsIcEENS_9allocatorIcEEEEEclB7v170000EPS6_.exit.i.i.i

_ZNKSt3__114default_deleteINS_18basic_stringstreamIcNS_11char_traitsIcEENS_9allocatorIcEEEEEclB7v170000EPS6_.exit.i.i.i: ; preds = %invoke.cont12
  %vtable.i.i.i.i = load ptr, ptr %4, align 8, !tbaa !5
  %vfn.i.i.i.i = getelementptr inbounds ptr, ptr %vtable.i.i.i.i, i64 1
  %5 = load ptr, ptr %vfn.i.i.i.i, align 8
  call void %5(ptr noundef nonnull align 8 dereferenceable(128) %4) #24
  br label %_ZN7testing7MessageD2Ev.exit

_ZN7testing7MessageD2Ev.exit:                     ; preds = %invoke.cont12, %_ZNKSt3__114default_deleteINS_18basic_stringstreamIcNS_11char_traitsIcEENS_9allocatorIcEEEEEclB7v170000EPS6_.exit.i.i.i
  call void @llvm.lifetime.end.p0(i64 8, ptr nonnull %ref.tmp3) #24
  br label %if.end

lpad4:                                            ; preds = %if.else
  %6 = landingpad { ptr, i32 }
          cleanup
  br label %ehcleanup14

lpad7:                                            ; preds = %invoke.cont8
  %7 = landingpad { ptr, i32 }
          cleanup
  br label %ehcleanup

lpad11:                                           ; preds = %invoke.cont10
  %8 = landingpad { ptr, i32 }
          cleanup
  call void @_ZN7testing8internal12AssertHelperD1Ev(ptr noundef nonnull align 8 dereferenceable(8) %ref.tmp6) #24
  br label %ehcleanup

ehcleanup:                                        ; preds = %lpad11, %lpad7
  %.pn = phi { ptr, i32 } [ %8, %lpad11 ], [ %7, %lpad7 ]
  call void @llvm.lifetime.end.p0(i64 8, ptr nonnull %ref.tmp6) #24
  %9 = load ptr, ptr %ref.tmp3, align 8, !tbaa !24
  store ptr null, ptr %ref.tmp3, align 8, !tbaa !24
  %tobool.not.i.i.i20 = icmp eq ptr %9, null
  br i1 %tobool.not.i.i.i20, label %ehcleanup14, label %_ZNKSt3__114default_deleteINS_18basic_stringstreamIcNS_11char_traitsIcEENS_9allocatorIcEEEEEclB7v170000EPS6_.exit.i.i.i23

_ZNKSt3__114default_deleteINS_18basic_stringstreamIcNS_11char_traitsIcEENS_9allocatorIcEEEEEclB7v170000EPS6_.exit.i.i.i23: ; preds = %ehcleanup
  %vtable.i.i.i.i21 = load ptr, ptr %9, align 8, !tbaa !5
  %vfn.i.i.i.i22 = getelementptr inbounds ptr, ptr %vtable.i.i.i.i21, i64 1
  %10 = load ptr, ptr %vfn.i.i.i.i22, align 8
  call void %10(ptr noundef nonnull align 8 dereferenceable(128) %9) #24
  br label %ehcleanup14

ehcleanup14:                                      ; preds = %_ZNKSt3__114default_deleteINS_18basic_stringstreamIcNS_11char_traitsIcEENS_9allocatorIcEEEEEclB7v170000EPS6_.exit.i.i.i23, %ehcleanup, %lpad4
  %.pn.pn = phi { ptr, i32 } [ %6, %lpad4 ], [ %.pn, %ehcleanup ], [ %.pn, %_ZNKSt3__114default_deleteINS_18basic_stringstreamIcNS_11char_traitsIcEENS_9allocatorIcEEEEEclB7v170000EPS6_.exit.i.i.i23 ]
  call void @llvm.lifetime.end.p0(i64 8, ptr nonnull %ref.tmp3) #24
  call void @_ZN7testing15AssertionResultD2Ev(ptr noundef nonnull align 8 dereferenceable(16) %gtest_ar) #24
  call void @llvm.lifetime.end.p0(i64 16, ptr nonnull %gtest_ar) #24
  resume { ptr, i32 } %.pn.pn

if.end:                                           ; preds = %_ZN7testing8internal8EqHelper7CompareIbbLPv0EEENS_15AssertionResultEPKcS6_RKT_RKT0_.exit, %_ZN7testing7MessageD2Ev.exit
  %message_.i = getelementptr inbounds %"class.testing::AssertionResult", ptr %gtest_ar, i64 0, i32 1
  %11 = load ptr, ptr %message_.i, align 8, !tbaa !24
  store ptr null, ptr %message_.i, align 8, !tbaa !24
  %tobool.not.i.i.i25 = icmp eq ptr %11, null
  br i1 %tobool.not.i.i.i25, label %_ZN7testing15AssertionResultD2Ev.exit, label %delete.notnull.i.i.i.i

delete.notnull.i.i.i.i:                           ; preds = %if.end
  %bf.load.i.i.i.i.i.i26 = load i8, ptr %11, align 8
  %bf.clear.i.i.i.i.i.i27 = and i8 %bf.load.i.i.i.i.i.i26, 1
  %tobool.i.not.i.i.i.i.i28 = icmp eq i8 %bf.clear.i.i.i.i.i.i27, 0
  br i1 %tobool.i.not.i.i.i.i.i28, label %_ZNKSt3__114default_deleteINS_12basic_stringIcNS_11char_traitsIcEENS_9allocatorIcEEEEEclB7v170000EPS6_.exit.i.i.i, label %if.then.i.i.i.i.i

if.then.i.i.i.i.i:                                ; preds = %delete.notnull.i.i.i.i
  %__data_.i.i.i.i.i.i29 = getelementptr inbounds %"struct.std::__1::basic_string<char>::__long", ptr %11, i64 0, i32 2
  %12 = load ptr, ptr %__data_.i.i.i.i.i.i29, align 8, !tbaa !25
  call void @_ZdlPv(ptr noundef %12) #25
  br label %_ZNKSt3__114default_deleteINS_12basic_stringIcNS_11char_traitsIcEENS_9allocatorIcEEEEEclB7v170000EPS6_.exit.i.i.i

_ZNKSt3__114default_deleteINS_12basic_stringIcNS_11char_traitsIcEENS_9allocatorIcEEEEEclB7v170000EPS6_.exit.i.i.i: ; preds = %if.then.i.i.i.i.i, %delete.notnull.i.i.i.i
  call void @_ZdlPv(ptr noundef nonnull %11) #25
  br label %_ZN7testing15AssertionResultD2Ev.exit

_ZN7testing15AssertionResultD2Ev.exit:            ; preds = %if.end, %_ZNKSt3__114default_deleteINS_12basic_stringIcNS_11char_traitsIcEENS_9allocatorIcEEEEEclB7v170000EPS6_.exit.i.i.i
  call void @llvm.lifetime.end.p0(i64 16, ptr nonnull %gtest_ar) #24
  ret void
}

; Function Attrs: mustprogress nounwind uwtable
define linkonce_odr hidden noundef ptr @_ZN7testing4Test5SetupEv(ptr noundef nonnull align 8 dereferenceable(16) %this) unnamed_addr #8 comdat align 2 {
entry:
  ret ptr null
}

declare void @_ZN7testing7MessageC1Ev(ptr noundef nonnull align 8 dereferenceable(8)) unnamed_addr #0

declare void @_ZN7testing8internal12AssertHelperC1ENS_14TestPartResult4TypeEPKciS5_(ptr noundef nonnull align 8 dereferenceable(8), i32 noundef, ptr noundef, i32 noundef, ptr noundef) unnamed_addr #0

declare void @_ZNK7testing8internal12AssertHelperaSERKNS_7MessageE(ptr noundef nonnull align 8 dereferenceable(8), ptr noundef nonnull align 8 dereferenceable(8)) local_unnamed_addr #0

; Function Attrs: nounwind
declare void @_ZN7testing8internal12AssertHelperD1Ev(ptr noundef nonnull align 8 dereferenceable(8)) unnamed_addr #9

; Function Attrs: inlinehint nounwind uwtable
define linkonce_odr hidden void @_ZN7testing15AssertionResultD2Ev(ptr noundef nonnull align 8 dereferenceable(16) %this) unnamed_addr #5 comdat align 2 personality ptr @__gxx_personality_v0 {
entry:
  %message_ = getelementptr inbounds %"class.testing::AssertionResult", ptr %this, i64 0, i32 1
  %0 = load ptr, ptr %message_, align 8, !tbaa !24
  store ptr null, ptr %message_, align 8, !tbaa !24
  %tobool.not.i.i = icmp eq ptr %0, null
  br i1 %tobool.not.i.i, label %_ZNSt3__110unique_ptrINS_12basic_stringIcNS_11char_traitsIcEENS_9allocatorIcEEEENS_14default_deleteIS6_EEED2B7v170000Ev.exit, label %delete.notnull.i.i.i

delete.notnull.i.i.i:                             ; preds = %entry
  %bf.load.i.i.i.i.i = load i8, ptr %0, align 8
  %bf.clear.i.i.i.i.i = and i8 %bf.load.i.i.i.i.i, 1
  %tobool.i.not.i.i.i.i = icmp eq i8 %bf.clear.i.i.i.i.i, 0
  br i1 %tobool.i.not.i.i.i.i, label %_ZNKSt3__114default_deleteINS_12basic_stringIcNS_11char_traitsIcEENS_9allocatorIcEEEEEclB7v170000EPS6_.exit.i.i, label %if.then.i.i.i.i

if.then.i.i.i.i:                                  ; preds = %delete.notnull.i.i.i
  %__data_.i.i.i.i.i = getelementptr inbounds %"struct.std::__1::basic_string<char>::__long", ptr %0, i64 0, i32 2
  %1 = load ptr, ptr %__data_.i.i.i.i.i, align 8, !tbaa !25
  tail call void @_ZdlPv(ptr noundef %1) #25
  br label %_ZNKSt3__114default_deleteINS_12basic_stringIcNS_11char_traitsIcEENS_9allocatorIcEEEEEclB7v170000EPS6_.exit.i.i

_ZNKSt3__114default_deleteINS_12basic_stringIcNS_11char_traitsIcEENS_9allocatorIcEEEEEclB7v170000EPS6_.exit.i.i: ; preds = %if.then.i.i.i.i, %delete.notnull.i.i.i
  tail call void @_ZdlPv(ptr noundef nonnull %0) #25
  br label %_ZNSt3__110unique_ptrINS_12basic_stringIcNS_11char_traitsIcEENS_9allocatorIcEEEENS_14default_deleteIS6_EEED2B7v170000Ev.exit

_ZNSt3__110unique_ptrINS_12basic_stringIcNS_11char_traitsIcEENS_9allocatorIcEEEENS_14default_deleteIS6_EEED2B7v170000Ev.exit: ; preds = %entry, %_ZNKSt3__114default_deleteINS_12basic_stringIcNS_11char_traitsIcEENS_9allocatorIcEEEEEclB7v170000EPS6_.exit.i.i
  ret void
}

declare void @_ZN7testing16AssertionSuccessEv(ptr sret(%"class.testing::AssertionResult") align 8) local_unnamed_addr #0

; Function Attrs: uwtable
define linkonce_odr hidden void @_ZN7testing8internal18CmpHelperEQFailureIbbEENS_15AssertionResultEPKcS4_RKT_RKT0_(ptr noalias sret(%"class.testing::AssertionResult") align 8 %agg.result, ptr noundef %lhs_expression, ptr noundef %rhs_expression, ptr noundef nonnull align 1 dereferenceable(1) %lhs, ptr noundef nonnull align 1 dereferenceable(1) %rhs) local_unnamed_addr #6 comdat personality ptr @__gxx_personality_v0 {
entry:
  %ref.tmp = alloca %"class.std::__1::basic_string", align 8
  %ref.tmp1 = alloca %"class.std::__1::basic_string", align 8
  call void @llvm.lifetime.start.p0(i64 24, ptr nonnull %ref.tmp) #24
  call void @_ZN7testing13PrintToStringIbEENSt3__112basic_stringIcNS1_11char_traitsIcEENS1_9allocatorIcEEEERKT_(ptr nonnull sret(%"class.std::__1::basic_string") align 8 %ref.tmp, ptr noundef nonnull align 1 dereferenceable(1) %lhs)
  call void @llvm.lifetime.start.p0(i64 24, ptr nonnull %ref.tmp1) #24
  invoke void @_ZN7testing13PrintToStringIbEENSt3__112basic_stringIcNS1_11char_traitsIcEENS1_9allocatorIcEEEERKT_(ptr nonnull sret(%"class.std::__1::basic_string") align 8 %ref.tmp1, ptr noundef nonnull align 1 dereferenceable(1) %rhs)
          to label %invoke.cont unwind label %lpad

invoke.cont:                                      ; preds = %entry
  invoke void @_ZN7testing8internal9EqFailureEPKcS2_RKNSt3__112basic_stringIcNS3_11char_traitsIcEENS3_9allocatorIcEEEESB_b(ptr sret(%"class.testing::AssertionResult") align 8 %agg.result, ptr noundef %lhs_expression, ptr noundef %rhs_expression, ptr noundef nonnull align 8 dereferenceable(24) %ref.tmp, ptr noundef nonnull align 8 dereferenceable(24) %ref.tmp1, i1 noundef zeroext false)
          to label %invoke.cont3 unwind label %lpad2

invoke.cont3:                                     ; preds = %invoke.cont
  %bf.load.i.i = load i8, ptr %ref.tmp1, align 8
  %bf.clear.i.i = and i8 %bf.load.i.i, 1
  %tobool.i.not.i = icmp eq i8 %bf.clear.i.i, 0
  br i1 %tobool.i.not.i, label %_ZNSt3__112basic_stringIcNS_11char_traitsIcEENS_9allocatorIcEEED2Ev.exit, label %if.then.i

if.then.i:                                        ; preds = %invoke.cont3
  %__data_.i.i = getelementptr inbounds %"struct.std::__1::basic_string<char>::__long", ptr %ref.tmp1, i64 0, i32 2
  %0 = load ptr, ptr %__data_.i.i, align 8, !tbaa !25
  call void @_ZdlPv(ptr noundef %0) #25
  br label %_ZNSt3__112basic_stringIcNS_11char_traitsIcEENS_9allocatorIcEEED2Ev.exit

_ZNSt3__112basic_stringIcNS_11char_traitsIcEENS_9allocatorIcEEED2Ev.exit: ; preds = %invoke.cont3, %if.then.i
  call void @llvm.lifetime.end.p0(i64 24, ptr nonnull %ref.tmp1) #24
  %bf.load.i.i10 = load i8, ptr %ref.tmp, align 8
  %bf.clear.i.i11 = and i8 %bf.load.i.i10, 1
  %tobool.i.not.i12 = icmp eq i8 %bf.clear.i.i11, 0
  br i1 %tobool.i.not.i12, label %_ZNSt3__112basic_stringIcNS_11char_traitsIcEENS_9allocatorIcEEED2Ev.exit15, label %if.then.i14

if.then.i14:                                      ; preds = %_ZNSt3__112basic_stringIcNS_11char_traitsIcEENS_9allocatorIcEEED2Ev.exit
  %__data_.i.i13 = getelementptr inbounds %"struct.std::__1::basic_string<char>::__long", ptr %ref.tmp, i64 0, i32 2
  %1 = load ptr, ptr %__data_.i.i13, align 8, !tbaa !25
  call void @_ZdlPv(ptr noundef %1) #25
  br label %_ZNSt3__112basic_stringIcNS_11char_traitsIcEENS_9allocatorIcEEED2Ev.exit15

_ZNSt3__112basic_stringIcNS_11char_traitsIcEENS_9allocatorIcEEED2Ev.exit15: ; preds = %_ZNSt3__112basic_stringIcNS_11char_traitsIcEENS_9allocatorIcEEED2Ev.exit, %if.then.i14
  call void @llvm.lifetime.end.p0(i64 24, ptr nonnull %ref.tmp) #24
  ret void

lpad:                                             ; preds = %entry
  %2 = landingpad { ptr, i32 }
          cleanup
  br label %ehcleanup

lpad2:                                            ; preds = %invoke.cont
  %3 = landingpad { ptr, i32 }
          cleanup
  %bf.load.i.i16 = load i8, ptr %ref.tmp1, align 8
  %bf.clear.i.i17 = and i8 %bf.load.i.i16, 1
  %tobool.i.not.i18 = icmp eq i8 %bf.clear.i.i17, 0
  br i1 %tobool.i.not.i18, label %ehcleanup, label %if.then.i20

if.then.i20:                                      ; preds = %lpad2
  %__data_.i.i19 = getelementptr inbounds %"struct.std::__1::basic_string<char>::__long", ptr %ref.tmp1, i64 0, i32 2
  %4 = load ptr, ptr %__data_.i.i19, align 8, !tbaa !25
  call void @_ZdlPv(ptr noundef %4) #25
  br label %ehcleanup

ehcleanup:                                        ; preds = %if.then.i20, %lpad2, %lpad
  %.pn = phi { ptr, i32 } [ %2, %lpad ], [ %3, %lpad2 ], [ %3, %if.then.i20 ]
  call void @llvm.lifetime.end.p0(i64 24, ptr nonnull %ref.tmp1) #24
  %bf.load.i.i22 = load i8, ptr %ref.tmp, align 8
  %bf.clear.i.i23 = and i8 %bf.load.i.i22, 1
  %tobool.i.not.i24 = icmp eq i8 %bf.clear.i.i23, 0
  br i1 %tobool.i.not.i24, label %_ZNSt3__112basic_stringIcNS_11char_traitsIcEENS_9allocatorIcEEED2Ev.exit27, label %if.then.i26

if.then.i26:                                      ; preds = %ehcleanup
  %__data_.i.i25 = getelementptr inbounds %"struct.std::__1::basic_string<char>::__long", ptr %ref.tmp, i64 0, i32 2
  %5 = load ptr, ptr %__data_.i.i25, align 8, !tbaa !25
  call void @_ZdlPv(ptr noundef %5) #25
  br label %_ZNSt3__112basic_stringIcNS_11char_traitsIcEENS_9allocatorIcEEED2Ev.exit27

_ZNSt3__112basic_stringIcNS_11char_traitsIcEENS_9allocatorIcEEED2Ev.exit27: ; preds = %ehcleanup, %if.then.i26
  call void @llvm.lifetime.end.p0(i64 24, ptr nonnull %ref.tmp) #24
  resume { ptr, i32 } %.pn
}

declare void @_ZN7testing8internal9EqFailureEPKcS2_RKNSt3__112basic_stringIcNS3_11char_traitsIcEENS3_9allocatorIcEEEESB_b(ptr sret(%"class.testing::AssertionResult") align 8, ptr noundef, ptr noundef, ptr noundef nonnull align 8 dereferenceable(24), ptr noundef nonnull align 8 dereferenceable(24), i1 noundef zeroext) local_unnamed_addr #0

; Function Attrs: uwtable
define linkonce_odr hidden void @_ZN7testing13PrintToStringIbEENSt3__112basic_stringIcNS1_11char_traitsIcEENS1_9allocatorIcEEEERKT_(ptr noalias sret(%"class.std::__1::basic_string") align 8 %agg.result, ptr noundef nonnull align 1 dereferenceable(1) %value) local_unnamed_addr #6 comdat personality ptr @__gxx_personality_v0 {
entry:
  %ss = alloca %"class.std::__1::basic_stringstream", align 8
  call void @llvm.lifetime.start.p0(i64 280, ptr nonnull %ss) #24
  %0 = getelementptr inbounds i8, ptr %ss, i64 128
  %add.ptr2.i = getelementptr inbounds i8, ptr %ss, i64 16
  store ptr getelementptr inbounds ({ [5 x ptr], [5 x ptr], [5 x ptr] }, ptr @_ZTVNSt3__118basic_stringstreamIcNS_11char_traitsIcEENS_9allocatorIcEEEE, i64 0, inrange i32 1, i64 3), ptr %add.ptr2.i, align 8, !tbaa !5
  %__sb_.i = getelementptr inbounds %"class.std::__1::basic_stringstream", ptr %ss, i64 0, i32 1
  store ptr getelementptr inbounds ({ [5 x ptr], [5 x ptr] }, ptr @_ZTCNSt3__118basic_stringstreamIcNS_11char_traitsIcEENS_9allocatorIcEEEE0_NS_13basic_istreamIcS2_EE, i64 0, inrange i32 0, i64 3), ptr %ss, align 8, !tbaa !5
  store ptr getelementptr inbounds ({ [5 x ptr], [5 x ptr] }, ptr @_ZTCNSt3__118basic_stringstreamIcNS_11char_traitsIcEENS_9allocatorIcEEEE0_NS_13basic_istreamIcS2_EE, i64 0, inrange i32 1, i64 3), ptr %0, align 8, !tbaa !5
  %__gc_.i.i.i = getelementptr inbounds %"class.std::__1::basic_istream", ptr %ss, i64 0, i32 1
  store i64 0, ptr %__gc_.i.i.i, align 8, !tbaa !26
  invoke void @_ZNSt3__18ios_base4initEPv(ptr noundef nonnull align 8 dereferenceable(136) %0, ptr noundef nonnull %__sb_.i)
          to label %invoke.cont.i unwind label %lpad.i

invoke.cont.i:                                    ; preds = %entry
  %__tie_.i.i.i.i = getelementptr inbounds i8, ptr %ss, i64 264
  store ptr null, ptr %__tie_.i.i.i.i, align 8, !tbaa !29
  %__fill_.i.i.i.i = getelementptr inbounds i8, ptr %ss, i64 272
  store i32 -1, ptr %__fill_.i.i.i.i, align 8, !tbaa !33
  store ptr getelementptr inbounds ({ [5 x ptr], [5 x ptr], [5 x ptr] }, ptr @_ZTVNSt3__118basic_stringstreamIcNS_11char_traitsIcEENS_9allocatorIcEEEE, i64 0, inrange i32 0, i64 3), ptr %ss, align 8, !tbaa !5
  store ptr getelementptr inbounds ({ [5 x ptr], [5 x ptr], [5 x ptr] }, ptr @_ZTVNSt3__118basic_stringstreamIcNS_11char_traitsIcEENS_9allocatorIcEEEE, i64 0, inrange i32 2, i64 3), ptr %0, align 8, !tbaa !5
  store ptr getelementptr inbounds ({ [5 x ptr], [5 x ptr], [5 x ptr] }, ptr @_ZTVNSt3__118basic_stringstreamIcNS_11char_traitsIcEENS_9allocatorIcEEEE, i64 0, inrange i32 1, i64 3), ptr %add.ptr2.i, align 8, !tbaa !5
  invoke void @_ZNSt3__115basic_streambufIcNS_11char_traitsIcEEEC2Ev(ptr noundef nonnull align 8 dereferenceable(64) %__sb_.i)
          to label %_ZNSt3__118basic_stringstreamIcNS_11char_traitsIcEENS_9allocatorIcEEEC1B7v170000Ev.exit unwind label %lpad6.i

lpad.i:                                           ; preds = %entry
  %1 = landingpad { ptr, i32 }
          cleanup
  br label %ehcleanup.i

lpad6.i:                                          ; preds = %invoke.cont.i
  %2 = landingpad { ptr, i32 }
          cleanup
  call void @_ZNSt3__114basic_iostreamIcNS_11char_traitsIcEEED2Ev(ptr noundef nonnull align 8 dereferenceable(24) %ss, ptr noundef nonnull getelementptr inbounds ([10 x ptr], ptr @_ZTTNSt3__118basic_stringstreamIcNS_11char_traitsIcEENS_9allocatorIcEEEE, i64 0, i64 1)) #24
  br label %ehcleanup.i

common.resume:                                    ; preds = %lpad, %ehcleanup.i
  %common.resume.op = phi { ptr, i32 } [ %.pn.i, %ehcleanup.i ], [ %5, %lpad ]
  resume { ptr, i32 } %common.resume.op

ehcleanup.i:                                      ; preds = %lpad6.i, %lpad.i
  %.pn.i = phi { ptr, i32 } [ %2, %lpad6.i ], [ %1, %lpad.i ]
  call void @_ZNSt3__19basic_iosIcNS_11char_traitsIcEEED2Ev(ptr noundef nonnull align 8 dereferenceable(148) %0) #24
  br label %common.resume

_ZNSt3__118basic_stringstreamIcNS_11char_traitsIcEENS_9allocatorIcEEEC1B7v170000Ev.exit: ; preds = %invoke.cont.i
  store ptr getelementptr inbounds ({ [16 x ptr] }, ptr @_ZTVNSt3__115basic_stringbufIcNS_11char_traitsIcEENS_9allocatorIcEEEE, i64 0, inrange i32 0, i64 2), ptr %__sb_.i, align 8, !tbaa !5
  %__str_.i.i = getelementptr inbounds %"class.std::__1::basic_stringstream", ptr %ss, i64 0, i32 1, i32 1
  %__mode_.i.i = getelementptr inbounds %"class.std::__1::basic_stringstream", ptr %ss, i64 0, i32 1, i32 3
  call void @llvm.memset.p0.i64(ptr noundef nonnull align 8 dereferenceable(32) %__str_.i.i, i8 0, i64 32, i1 false)
  store i32 24, ptr %__mode_.i.i, align 8, !tbaa !34
  %3 = load i8, ptr %value, align 1, !tbaa !8, !range !11, !noundef !17
  %tobool.not.i.i.i = icmp eq i8 %3, 0
  %cond.i.i.i.i = select i1 %tobool.not.i.i.i, ptr @.str.22, ptr @.str.21
  %call.i.i.i.i.i.i.i = select i1 %tobool.not.i.i.i, i64 5, i64 4
  %call1.i.i.i.i.i3 = invoke noundef nonnull align 8 dereferenceable(8) ptr @_ZNSt3__124__put_character_sequenceB7v170000IcNS_11char_traitsIcEEEERNS_13basic_ostreamIT_T0_EES7_PKS4_m(ptr noundef nonnull align 8 dereferenceable(8) %add.ptr2.i, ptr noundef nonnull %cond.i.i.i.i, i64 noundef %call.i.i.i.i.i.i.i)
          to label %invoke.cont unwind label %lpad

invoke.cont:                                      ; preds = %_ZNSt3__118basic_stringstreamIcNS_11char_traitsIcEENS_9allocatorIcEEEC1B7v170000Ev.exit
  invoke void @_ZNKSt3__115basic_stringbufIcNS_11char_traitsIcEENS_9allocatorIcEEE3strEv(ptr sret(%"class.std::__1::basic_string") align 8 %agg.result, ptr noundef nonnull align 8 dereferenceable(100) %__sb_.i)
          to label %invoke.cont1 unwind label %lpad

invoke.cont1:                                     ; preds = %invoke.cont
  store ptr getelementptr inbounds ({ [5 x ptr], [5 x ptr], [5 x ptr] }, ptr @_ZTVNSt3__118basic_stringstreamIcNS_11char_traitsIcEENS_9allocatorIcEEEE, i64 0, inrange i32 0, i64 3), ptr %ss, align 8, !tbaa !5
  store ptr getelementptr inbounds ({ [5 x ptr], [5 x ptr], [5 x ptr] }, ptr @_ZTVNSt3__118basic_stringstreamIcNS_11char_traitsIcEENS_9allocatorIcEEEE, i64 0, inrange i32 2, i64 3), ptr %0, align 8, !tbaa !5
  store ptr getelementptr inbounds ({ [5 x ptr], [5 x ptr], [5 x ptr] }, ptr @_ZTVNSt3__118basic_stringstreamIcNS_11char_traitsIcEENS_9allocatorIcEEEE, i64 0, inrange i32 1, i64 3), ptr %add.ptr2.i, align 8, !tbaa !5
  store ptr getelementptr inbounds ({ [16 x ptr] }, ptr @_ZTVNSt3__115basic_stringbufIcNS_11char_traitsIcEENS_9allocatorIcEEEE, i64 0, inrange i32 0, i64 2), ptr %__sb_.i, align 8, !tbaa !5
  %bf.load.i.i.i.i.i = load i8, ptr %__str_.i.i, align 8
  %bf.clear.i.i.i.i.i = and i8 %bf.load.i.i.i.i.i, 1
  %tobool.i.not.i.i.i.i = icmp eq i8 %bf.clear.i.i.i.i.i, 0
  br i1 %tobool.i.not.i.i.i.i, label %_ZNSt3__118basic_stringstreamIcNS_11char_traitsIcEENS_9allocatorIcEEED1Ev.exit, label %if.then.i.i.i.i

if.then.i.i.i.i:                                  ; preds = %invoke.cont1
  %__data_.i.i.i.i.i = getelementptr inbounds %"class.std::__1::basic_stringstream", ptr %ss, i64 0, i32 1, i32 1, i32 0, i32 0, i32 0, i32 0, i32 0, i32 2
  %4 = load ptr, ptr %__data_.i.i.i.i.i, align 8, !tbaa !25
  call void @_ZdlPv(ptr noundef %4) #25
  br label %_ZNSt3__118basic_stringstreamIcNS_11char_traitsIcEENS_9allocatorIcEEED1Ev.exit

_ZNSt3__118basic_stringstreamIcNS_11char_traitsIcEENS_9allocatorIcEEED1Ev.exit: ; preds = %invoke.cont1, %if.then.i.i.i.i
  call void @_ZNSt3__115basic_streambufIcNS_11char_traitsIcEEED2Ev(ptr noundef nonnull align 8 dereferenceable(64) %__sb_.i) #24
  call void @_ZNSt3__114basic_iostreamIcNS_11char_traitsIcEEED2Ev(ptr noundef nonnull align 8 dereferenceable(24) %ss, ptr noundef nonnull getelementptr inbounds ([10 x ptr], ptr @_ZTTNSt3__118basic_stringstreamIcNS_11char_traitsIcEENS_9allocatorIcEEEE, i64 0, i64 1)) #24
  call void @_ZNSt3__19basic_iosIcNS_11char_traitsIcEEED2Ev(ptr noundef nonnull align 8 dereferenceable(148) %0) #24
  call void @llvm.lifetime.end.p0(i64 280, ptr nonnull %ss) #24
  ret void

lpad:                                             ; preds = %invoke.cont, %_ZNSt3__118basic_stringstreamIcNS_11char_traitsIcEENS_9allocatorIcEEEC1B7v170000Ev.exit
  %5 = landingpad { ptr, i32 }
          cleanup
  call void @_ZNSt3__118basic_stringstreamIcNS_11char_traitsIcEENS_9allocatorIcEEED1Ev(ptr noundef nonnull align 8 dereferenceable(128) %ss) #24
  call void @llvm.lifetime.end.p0(i64 280, ptr nonnull %ss) #24
  br label %common.resume
}

; Function Attrs: inlinehint nounwind uwtable
define linkonce_odr hidden void @_ZNSt3__118basic_stringstreamIcNS_11char_traitsIcEENS_9allocatorIcEEED1Ev(ptr noundef nonnull align 8 dereferenceable(128) %this) unnamed_addr #5 comdat align 2 personality ptr @__gxx_personality_v0 {
entry:
  store ptr getelementptr inbounds ({ [5 x ptr], [5 x ptr], [5 x ptr] }, ptr @_ZTVNSt3__118basic_stringstreamIcNS_11char_traitsIcEENS_9allocatorIcEEEE, i64 0, inrange i32 0, i64 3), ptr %this, align 8, !tbaa !5
  %add.ptr.i = getelementptr inbounds i8, ptr %this, i64 128
  store ptr getelementptr inbounds ({ [5 x ptr], [5 x ptr], [5 x ptr] }, ptr @_ZTVNSt3__118basic_stringstreamIcNS_11char_traitsIcEENS_9allocatorIcEEEE, i64 0, inrange i32 2, i64 3), ptr %add.ptr.i, align 8, !tbaa !5
  %add.ptr3.i = getelementptr inbounds i8, ptr %this, i64 16
  store ptr getelementptr inbounds ({ [5 x ptr], [5 x ptr], [5 x ptr] }, ptr @_ZTVNSt3__118basic_stringstreamIcNS_11char_traitsIcEENS_9allocatorIcEEEE, i64 0, inrange i32 1, i64 3), ptr %add.ptr3.i, align 8, !tbaa !5
  %__sb_.i = getelementptr inbounds %"class.std::__1::basic_stringstream", ptr %this, i64 0, i32 1
  store ptr getelementptr inbounds ({ [16 x ptr] }, ptr @_ZTVNSt3__115basic_stringbufIcNS_11char_traitsIcEENS_9allocatorIcEEEE, i64 0, inrange i32 0, i64 2), ptr %__sb_.i, align 8, !tbaa !5
  %__str_.i.i = getelementptr inbounds %"class.std::__1::basic_stringstream", ptr %this, i64 0, i32 1, i32 1
  %bf.load.i.i.i.i = load i8, ptr %__str_.i.i, align 8
  %bf.clear.i.i.i.i = and i8 %bf.load.i.i.i.i, 1
  %tobool.i.not.i.i.i = icmp eq i8 %bf.clear.i.i.i.i, 0
  br i1 %tobool.i.not.i.i.i, label %_ZNSt3__118basic_stringstreamIcNS_11char_traitsIcEENS_9allocatorIcEEED2Ev.exit, label %if.then.i.i.i

if.then.i.i.i:                                    ; preds = %entry
  %__data_.i.i.i.i = getelementptr inbounds %"class.std::__1::basic_stringstream", ptr %this, i64 0, i32 1, i32 1, i32 0, i32 0, i32 0, i32 0, i32 0, i32 2
  %0 = load ptr, ptr %__data_.i.i.i.i, align 8, !tbaa !25
  tail call void @_ZdlPv(ptr noundef %0) #25
  br label %_ZNSt3__118basic_stringstreamIcNS_11char_traitsIcEENS_9allocatorIcEEED2Ev.exit

_ZNSt3__118basic_stringstreamIcNS_11char_traitsIcEENS_9allocatorIcEEED2Ev.exit: ; preds = %entry, %if.then.i.i.i
  tail call void @_ZNSt3__115basic_streambufIcNS_11char_traitsIcEEED2Ev(ptr noundef nonnull align 8 dereferenceable(64) %__sb_.i) #24
  tail call void @_ZNSt3__114basic_iostreamIcNS_11char_traitsIcEEED2Ev(ptr noundef nonnull align 8 dereferenceable(24) %this, ptr noundef nonnull getelementptr inbounds ([10 x ptr], ptr @_ZTTNSt3__118basic_stringstreamIcNS_11char_traitsIcEENS_9allocatorIcEEEE, i64 0, i64 1)) #24
  tail call void @_ZNSt3__19basic_iosIcNS_11char_traitsIcEEED2Ev(ptr noundef nonnull align 8 dereferenceable(148) %add.ptr.i) #24
  ret void
}

; Function Attrs: nounwind
declare void @_ZNSt3__114basic_iostreamIcNS_11char_traitsIcEEED2Ev(ptr noundef nonnull align 8 dereferenceable(24), ptr noundef) unnamed_addr #9

; Function Attrs: nounwind
declare void @_ZNSt3__19basic_iosIcNS_11char_traitsIcEEED2Ev(ptr noundef nonnull align 8 dereferenceable(148)) unnamed_addr #9

; Function Attrs: nounwind
declare void @_ZNSt3__114basic_iostreamIcNS_11char_traitsIcEEED1Ev(ptr noundef nonnull align 8 dereferenceable(24)) unnamed_addr #9

; Function Attrs: nounwind
declare void @_ZNSt3__114basic_iostreamIcNS_11char_traitsIcEEED0Ev(ptr noundef nonnull align 8 dereferenceable(24)) unnamed_addr #9

; Function Attrs: nounwind uwtable
declare void @_ZThn16_NSt3__114basic_iostreamIcNS_11char_traitsIcEEED1Ev(ptr noundef) unnamed_addr #7 align 2

; Function Attrs: nounwind uwtable
declare void @_ZThn16_NSt3__114basic_iostreamIcNS_11char_traitsIcEEED0Ev(ptr noundef) unnamed_addr #7 align 2

; Function Attrs: nounwind uwtable
declare void @_ZTv0_n24_NSt3__114basic_iostreamIcNS_11char_traitsIcEEED1Ev(ptr noundef) unnamed_addr #7 align 2

; Function Attrs: nounwind uwtable
declare void @_ZTv0_n24_NSt3__114basic_iostreamIcNS_11char_traitsIcEEED0Ev(ptr noundef) unnamed_addr #7 align 2

; Function Attrs: nounwind
declare void @_ZNSt3__113basic_istreamIcNS_11char_traitsIcEEED1Ev(ptr noundef nonnull align 8 dereferenceable(16)) unnamed_addr #9

; Function Attrs: nounwind
declare void @_ZNSt3__113basic_istreamIcNS_11char_traitsIcEEED0Ev(ptr noundef nonnull align 8 dereferenceable(16)) unnamed_addr #9

; Function Attrs: nounwind uwtable
declare void @_ZTv0_n24_NSt3__113basic_istreamIcNS_11char_traitsIcEEED1Ev(ptr noundef) unnamed_addr #7 align 2

; Function Attrs: nounwind uwtable
declare void @_ZTv0_n24_NSt3__113basic_istreamIcNS_11char_traitsIcEEED0Ev(ptr noundef) unnamed_addr #7 align 2

; Function Attrs: nounwind
declare void @_ZNSt3__113basic_ostreamIcNS_11char_traitsIcEEED1Ev(ptr noundef nonnull align 8 dereferenceable(8)) unnamed_addr #9

; Function Attrs: nounwind
declare void @_ZNSt3__113basic_ostreamIcNS_11char_traitsIcEEED0Ev(ptr noundef nonnull align 8 dereferenceable(8)) unnamed_addr #9

; Function Attrs: nounwind uwtable
declare void @_ZTv0_n24_NSt3__113basic_ostreamIcNS_11char_traitsIcEEED1Ev(ptr noundef) unnamed_addr #7 align 2

; Function Attrs: nounwind uwtable
declare void @_ZTv0_n24_NSt3__113basic_ostreamIcNS_11char_traitsIcEEED0Ev(ptr noundef) unnamed_addr #7 align 2

; Function Attrs: inlinehint nounwind uwtable
define linkonce_odr hidden void @_ZNSt3__118basic_stringstreamIcNS_11char_traitsIcEENS_9allocatorIcEEED0Ev(ptr noundef nonnull align 8 dereferenceable(128) %this) unnamed_addr #5 comdat align 2 personality ptr @__gxx_personality_v0 {
entry:
  store ptr getelementptr inbounds ({ [5 x ptr], [5 x ptr], [5 x ptr] }, ptr @_ZTVNSt3__118basic_stringstreamIcNS_11char_traitsIcEENS_9allocatorIcEEEE, i64 0, inrange i32 0, i64 3), ptr %this, align 8, !tbaa !5
  %add.ptr.i.i = getelementptr inbounds i8, ptr %this, i64 128
  store ptr getelementptr inbounds ({ [5 x ptr], [5 x ptr], [5 x ptr] }, ptr @_ZTVNSt3__118basic_stringstreamIcNS_11char_traitsIcEENS_9allocatorIcEEEE, i64 0, inrange i32 2, i64 3), ptr %add.ptr.i.i, align 8, !tbaa !5
  %add.ptr3.i.i = getelementptr inbounds i8, ptr %this, i64 16
  store ptr getelementptr inbounds ({ [5 x ptr], [5 x ptr], [5 x ptr] }, ptr @_ZTVNSt3__118basic_stringstreamIcNS_11char_traitsIcEENS_9allocatorIcEEEE, i64 0, inrange i32 1, i64 3), ptr %add.ptr3.i.i, align 8, !tbaa !5
  %__sb_.i.i = getelementptr inbounds %"class.std::__1::basic_stringstream", ptr %this, i64 0, i32 1
  store ptr getelementptr inbounds ({ [16 x ptr] }, ptr @_ZTVNSt3__115basic_stringbufIcNS_11char_traitsIcEENS_9allocatorIcEEEE, i64 0, inrange i32 0, i64 2), ptr %__sb_.i.i, align 8, !tbaa !5
  %__str_.i.i.i = getelementptr inbounds %"class.std::__1::basic_stringstream", ptr %this, i64 0, i32 1, i32 1
  %bf.load.i.i.i.i.i = load i8, ptr %__str_.i.i.i, align 8
  %bf.clear.i.i.i.i.i = and i8 %bf.load.i.i.i.i.i, 1
  %tobool.i.not.i.i.i.i = icmp eq i8 %bf.clear.i.i.i.i.i, 0
  br i1 %tobool.i.not.i.i.i.i, label %_ZNSt3__118basic_stringstreamIcNS_11char_traitsIcEENS_9allocatorIcEEED1Ev.exit, label %if.then.i.i.i.i

if.then.i.i.i.i:                                  ; preds = %entry
  %__data_.i.i.i.i.i = getelementptr inbounds %"class.std::__1::basic_stringstream", ptr %this, i64 0, i32 1, i32 1, i32 0, i32 0, i32 0, i32 0, i32 0, i32 2
  %0 = load ptr, ptr %__data_.i.i.i.i.i, align 8, !tbaa !25
  tail call void @_ZdlPv(ptr noundef %0) #25
  br label %_ZNSt3__118basic_stringstreamIcNS_11char_traitsIcEENS_9allocatorIcEEED1Ev.exit

_ZNSt3__118basic_stringstreamIcNS_11char_traitsIcEENS_9allocatorIcEEED1Ev.exit: ; preds = %entry, %if.then.i.i.i.i
  tail call void @_ZNSt3__115basic_streambufIcNS_11char_traitsIcEEED2Ev(ptr noundef nonnull align 8 dereferenceable(64) %__sb_.i.i) #24
  tail call void @_ZNSt3__114basic_iostreamIcNS_11char_traitsIcEEED2Ev(ptr noundef nonnull align 8 dereferenceable(24) %this, ptr noundef nonnull getelementptr inbounds ([10 x ptr], ptr @_ZTTNSt3__118basic_stringstreamIcNS_11char_traitsIcEENS_9allocatorIcEEEE, i64 0, i64 1)) #24
  tail call void @_ZNSt3__19basic_iosIcNS_11char_traitsIcEEED2Ev(ptr noundef nonnull align 8 dereferenceable(148) %add.ptr.i.i) #24
  tail call void @_ZdlPv(ptr noundef nonnull %this) #25
  ret void
}

; Function Attrs: inlinehint nounwind uwtable
define linkonce_odr hidden void @_ZThn16_NSt3__118basic_stringstreamIcNS_11char_traitsIcEENS_9allocatorIcEEED1Ev(ptr noundef %this) unnamed_addr #5 comdat align 2 personality ptr @__gxx_personality_v0 {
entry:
  %0 = getelementptr inbounds i8, ptr %this, i64 -16
  store ptr getelementptr inbounds ({ [5 x ptr], [5 x ptr], [5 x ptr] }, ptr @_ZTVNSt3__118basic_stringstreamIcNS_11char_traitsIcEENS_9allocatorIcEEEE, i64 0, inrange i32 0, i64 3), ptr %0, align 8, !tbaa !5
  %add.ptr.i.i = getelementptr inbounds i8, ptr %this, i64 112
  store ptr getelementptr inbounds ({ [5 x ptr], [5 x ptr], [5 x ptr] }, ptr @_ZTVNSt3__118basic_stringstreamIcNS_11char_traitsIcEENS_9allocatorIcEEEE, i64 0, inrange i32 2, i64 3), ptr %add.ptr.i.i, align 8, !tbaa !5
  store ptr getelementptr inbounds ({ [5 x ptr], [5 x ptr], [5 x ptr] }, ptr @_ZTVNSt3__118basic_stringstreamIcNS_11char_traitsIcEENS_9allocatorIcEEEE, i64 0, inrange i32 1, i64 3), ptr %this, align 8, !tbaa !5
  %__sb_.i.i = getelementptr inbounds i8, ptr %this, i64 8
  store ptr getelementptr inbounds ({ [16 x ptr] }, ptr @_ZTVNSt3__115basic_stringbufIcNS_11char_traitsIcEENS_9allocatorIcEEEE, i64 0, inrange i32 0, i64 2), ptr %__sb_.i.i, align 8, !tbaa !5
  %__str_.i.i.i = getelementptr inbounds i8, ptr %this, i64 72
  %bf.load.i.i.i.i.i = load i8, ptr %__str_.i.i.i, align 8
  %bf.clear.i.i.i.i.i = and i8 %bf.load.i.i.i.i.i, 1
  %tobool.i.not.i.i.i.i = icmp eq i8 %bf.clear.i.i.i.i.i, 0
  br i1 %tobool.i.not.i.i.i.i, label %_ZNSt3__118basic_stringstreamIcNS_11char_traitsIcEENS_9allocatorIcEEED1Ev.exit, label %if.then.i.i.i.i

if.then.i.i.i.i:                                  ; preds = %entry
  %__data_.i.i.i.i.i = getelementptr inbounds i8, ptr %this, i64 88
  %1 = load ptr, ptr %__data_.i.i.i.i.i, align 8, !tbaa !25
  tail call void @_ZdlPv(ptr noundef %1) #25
  br label %_ZNSt3__118basic_stringstreamIcNS_11char_traitsIcEENS_9allocatorIcEEED1Ev.exit

_ZNSt3__118basic_stringstreamIcNS_11char_traitsIcEENS_9allocatorIcEEED1Ev.exit: ; preds = %entry, %if.then.i.i.i.i
  tail call void @_ZNSt3__115basic_streambufIcNS_11char_traitsIcEEED2Ev(ptr noundef nonnull align 8 dereferenceable(64) %__sb_.i.i) #24
  tail call void @_ZNSt3__114basic_iostreamIcNS_11char_traitsIcEEED2Ev(ptr noundef nonnull align 8 dereferenceable(24) %0, ptr noundef nonnull getelementptr inbounds ([10 x ptr], ptr @_ZTTNSt3__118basic_stringstreamIcNS_11char_traitsIcEENS_9allocatorIcEEEE, i64 0, i64 1)) #24
  tail call void @_ZNSt3__19basic_iosIcNS_11char_traitsIcEEED2Ev(ptr noundef nonnull align 8 dereferenceable(148) %add.ptr.i.i) #24
  ret void
}

; Function Attrs: inlinehint nounwind uwtable
define linkonce_odr hidden void @_ZThn16_NSt3__118basic_stringstreamIcNS_11char_traitsIcEENS_9allocatorIcEEED0Ev(ptr noundef %this) unnamed_addr #5 comdat align 2 personality ptr @__gxx_personality_v0 {
entry:
  %0 = getelementptr inbounds i8, ptr %this, i64 -16
  store ptr getelementptr inbounds ({ [5 x ptr], [5 x ptr], [5 x ptr] }, ptr @_ZTVNSt3__118basic_stringstreamIcNS_11char_traitsIcEENS_9allocatorIcEEEE, i64 0, inrange i32 0, i64 3), ptr %0, align 8, !tbaa !5
  %add.ptr.i.i.i = getelementptr inbounds i8, ptr %this, i64 112
  store ptr getelementptr inbounds ({ [5 x ptr], [5 x ptr], [5 x ptr] }, ptr @_ZTVNSt3__118basic_stringstreamIcNS_11char_traitsIcEENS_9allocatorIcEEEE, i64 0, inrange i32 2, i64 3), ptr %add.ptr.i.i.i, align 8, !tbaa !5
  store ptr getelementptr inbounds ({ [5 x ptr], [5 x ptr], [5 x ptr] }, ptr @_ZTVNSt3__118basic_stringstreamIcNS_11char_traitsIcEENS_9allocatorIcEEEE, i64 0, inrange i32 1, i64 3), ptr %this, align 8, !tbaa !5
  %__sb_.i.i.i = getelementptr inbounds i8, ptr %this, i64 8
  store ptr getelementptr inbounds ({ [16 x ptr] }, ptr @_ZTVNSt3__115basic_stringbufIcNS_11char_traitsIcEENS_9allocatorIcEEEE, i64 0, inrange i32 0, i64 2), ptr %__sb_.i.i.i, align 8, !tbaa !5
  %__str_.i.i.i.i = getelementptr inbounds i8, ptr %this, i64 72
  %bf.load.i.i.i.i.i.i = load i8, ptr %__str_.i.i.i.i, align 8
  %bf.clear.i.i.i.i.i.i = and i8 %bf.load.i.i.i.i.i.i, 1
  %tobool.i.not.i.i.i.i.i = icmp eq i8 %bf.clear.i.i.i.i.i.i, 0
  br i1 %tobool.i.not.i.i.i.i.i, label %_ZNSt3__118basic_stringstreamIcNS_11char_traitsIcEENS_9allocatorIcEEED0Ev.exit, label %if.then.i.i.i.i.i

if.then.i.i.i.i.i:                                ; preds = %entry
  %__data_.i.i.i.i.i.i = getelementptr inbounds i8, ptr %this, i64 88
  %1 = load ptr, ptr %__data_.i.i.i.i.i.i, align 8, !tbaa !25
  tail call void @_ZdlPv(ptr noundef %1) #25
  br label %_ZNSt3__118basic_stringstreamIcNS_11char_traitsIcEENS_9allocatorIcEEED0Ev.exit

_ZNSt3__118basic_stringstreamIcNS_11char_traitsIcEENS_9allocatorIcEEED0Ev.exit: ; preds = %entry, %if.then.i.i.i.i.i
  tail call void @_ZNSt3__115basic_streambufIcNS_11char_traitsIcEEED2Ev(ptr noundef nonnull align 8 dereferenceable(64) %__sb_.i.i.i) #24
  tail call void @_ZNSt3__114basic_iostreamIcNS_11char_traitsIcEEED2Ev(ptr noundef nonnull align 8 dereferenceable(24) %0, ptr noundef nonnull getelementptr inbounds ([10 x ptr], ptr @_ZTTNSt3__118basic_stringstreamIcNS_11char_traitsIcEENS_9allocatorIcEEEE, i64 0, i64 1)) #24
  tail call void @_ZNSt3__19basic_iosIcNS_11char_traitsIcEEED2Ev(ptr noundef nonnull align 8 dereferenceable(148) %add.ptr.i.i.i) #24
  tail call void @_ZdlPv(ptr noundef nonnull %0) #25
  ret void
}

; Function Attrs: inlinehint nounwind uwtable
define linkonce_odr hidden void @_ZTv0_n24_NSt3__118basic_stringstreamIcNS_11char_traitsIcEENS_9allocatorIcEEED1Ev(ptr noundef %this) unnamed_addr #5 comdat align 2 personality ptr @__gxx_personality_v0 {
entry:
  %0 = load ptr, ptr %this, align 8
  %1 = getelementptr inbounds i8, ptr %0, i64 -24
  %2 = load i64, ptr %1, align 8
  %3 = getelementptr inbounds i8, ptr %this, i64 %2
  store ptr getelementptr inbounds ({ [5 x ptr], [5 x ptr], [5 x ptr] }, ptr @_ZTVNSt3__118basic_stringstreamIcNS_11char_traitsIcEENS_9allocatorIcEEEE, i64 0, inrange i32 0, i64 3), ptr %3, align 8, !tbaa !5
  %add.ptr.i.i = getelementptr inbounds i8, ptr %3, i64 128
  store ptr getelementptr inbounds ({ [5 x ptr], [5 x ptr], [5 x ptr] }, ptr @_ZTVNSt3__118basic_stringstreamIcNS_11char_traitsIcEENS_9allocatorIcEEEE, i64 0, inrange i32 2, i64 3), ptr %add.ptr.i.i, align 8, !tbaa !5
  %add.ptr3.i.i = getelementptr inbounds i8, ptr %3, i64 16
  store ptr getelementptr inbounds ({ [5 x ptr], [5 x ptr], [5 x ptr] }, ptr @_ZTVNSt3__118basic_stringstreamIcNS_11char_traitsIcEENS_9allocatorIcEEEE, i64 0, inrange i32 1, i64 3), ptr %add.ptr3.i.i, align 8, !tbaa !5
  %__sb_.i.i = getelementptr inbounds %"class.std::__1::basic_stringstream", ptr %3, i64 0, i32 1
  store ptr getelementptr inbounds ({ [16 x ptr] }, ptr @_ZTVNSt3__115basic_stringbufIcNS_11char_traitsIcEENS_9allocatorIcEEEE, i64 0, inrange i32 0, i64 2), ptr %__sb_.i.i, align 8, !tbaa !5
  %__str_.i.i.i = getelementptr inbounds %"class.std::__1::basic_stringstream", ptr %3, i64 0, i32 1, i32 1
  %bf.load.i.i.i.i.i = load i8, ptr %__str_.i.i.i, align 8
  %bf.clear.i.i.i.i.i = and i8 %bf.load.i.i.i.i.i, 1
  %tobool.i.not.i.i.i.i = icmp eq i8 %bf.clear.i.i.i.i.i, 0
  br i1 %tobool.i.not.i.i.i.i, label %_ZNSt3__118basic_stringstreamIcNS_11char_traitsIcEENS_9allocatorIcEEED1Ev.exit, label %if.then.i.i.i.i

if.then.i.i.i.i:                                  ; preds = %entry
  %__data_.i.i.i.i.i = getelementptr inbounds %"class.std::__1::basic_stringstream", ptr %3, i64 0, i32 1, i32 1, i32 0, i32 0, i32 0, i32 0, i32 0, i32 2
  %4 = load ptr, ptr %__data_.i.i.i.i.i, align 8, !tbaa !25
  tail call void @_ZdlPv(ptr noundef %4) #25
  br label %_ZNSt3__118basic_stringstreamIcNS_11char_traitsIcEENS_9allocatorIcEEED1Ev.exit

_ZNSt3__118basic_stringstreamIcNS_11char_traitsIcEENS_9allocatorIcEEED1Ev.exit: ; preds = %entry, %if.then.i.i.i.i
  tail call void @_ZNSt3__115basic_streambufIcNS_11char_traitsIcEEED2Ev(ptr noundef nonnull align 8 dereferenceable(64) %__sb_.i.i) #24
  tail call void @_ZNSt3__114basic_iostreamIcNS_11char_traitsIcEEED2Ev(ptr noundef nonnull align 8 dereferenceable(24) %3, ptr noundef nonnull getelementptr inbounds ([10 x ptr], ptr @_ZTTNSt3__118basic_stringstreamIcNS_11char_traitsIcEENS_9allocatorIcEEEE, i64 0, i64 1)) #24
  tail call void @_ZNSt3__19basic_iosIcNS_11char_traitsIcEEED2Ev(ptr noundef nonnull align 8 dereferenceable(148) %add.ptr.i.i) #24
  ret void
}

; Function Attrs: inlinehint nounwind uwtable
define linkonce_odr hidden void @_ZTv0_n24_NSt3__118basic_stringstreamIcNS_11char_traitsIcEENS_9allocatorIcEEED0Ev(ptr noundef %this) unnamed_addr #5 comdat align 2 personality ptr @__gxx_personality_v0 {
entry:
  %0 = load ptr, ptr %this, align 8
  %1 = getelementptr inbounds i8, ptr %0, i64 -24
  %2 = load i64, ptr %1, align 8
  %3 = getelementptr inbounds i8, ptr %this, i64 %2
  store ptr getelementptr inbounds ({ [5 x ptr], [5 x ptr], [5 x ptr] }, ptr @_ZTVNSt3__118basic_stringstreamIcNS_11char_traitsIcEENS_9allocatorIcEEEE, i64 0, inrange i32 0, i64 3), ptr %3, align 8, !tbaa !5
  %add.ptr.i.i.i = getelementptr inbounds i8, ptr %3, i64 128
  store ptr getelementptr inbounds ({ [5 x ptr], [5 x ptr], [5 x ptr] }, ptr @_ZTVNSt3__118basic_stringstreamIcNS_11char_traitsIcEENS_9allocatorIcEEEE, i64 0, inrange i32 2, i64 3), ptr %add.ptr.i.i.i, align 8, !tbaa !5
  %add.ptr3.i.i.i = getelementptr inbounds i8, ptr %3, i64 16
  store ptr getelementptr inbounds ({ [5 x ptr], [5 x ptr], [5 x ptr] }, ptr @_ZTVNSt3__118basic_stringstreamIcNS_11char_traitsIcEENS_9allocatorIcEEEE, i64 0, inrange i32 1, i64 3), ptr %add.ptr3.i.i.i, align 8, !tbaa !5
  %__sb_.i.i.i = getelementptr inbounds %"class.std::__1::basic_stringstream", ptr %3, i64 0, i32 1
  store ptr getelementptr inbounds ({ [16 x ptr] }, ptr @_ZTVNSt3__115basic_stringbufIcNS_11char_traitsIcEENS_9allocatorIcEEEE, i64 0, inrange i32 0, i64 2), ptr %__sb_.i.i.i, align 8, !tbaa !5
  %__str_.i.i.i.i = getelementptr inbounds %"class.std::__1::basic_stringstream", ptr %3, i64 0, i32 1, i32 1
  %bf.load.i.i.i.i.i.i = load i8, ptr %__str_.i.i.i.i, align 8
  %bf.clear.i.i.i.i.i.i = and i8 %bf.load.i.i.i.i.i.i, 1
  %tobool.i.not.i.i.i.i.i = icmp eq i8 %bf.clear.i.i.i.i.i.i, 0
  br i1 %tobool.i.not.i.i.i.i.i, label %_ZNSt3__118basic_stringstreamIcNS_11char_traitsIcEENS_9allocatorIcEEED0Ev.exit, label %if.then.i.i.i.i.i

if.then.i.i.i.i.i:                                ; preds = %entry
  %__data_.i.i.i.i.i.i = getelementptr inbounds %"class.std::__1::basic_stringstream", ptr %3, i64 0, i32 1, i32 1, i32 0, i32 0, i32 0, i32 0, i32 0, i32 2
  %4 = load ptr, ptr %__data_.i.i.i.i.i.i, align 8, !tbaa !25
  tail call void @_ZdlPv(ptr noundef %4) #25
  br label %_ZNSt3__118basic_stringstreamIcNS_11char_traitsIcEENS_9allocatorIcEEED0Ev.exit

_ZNSt3__118basic_stringstreamIcNS_11char_traitsIcEENS_9allocatorIcEEED0Ev.exit: ; preds = %entry, %if.then.i.i.i.i.i
  tail call void @_ZNSt3__115basic_streambufIcNS_11char_traitsIcEEED2Ev(ptr noundef nonnull align 8 dereferenceable(64) %__sb_.i.i.i) #24
  tail call void @_ZNSt3__114basic_iostreamIcNS_11char_traitsIcEEED2Ev(ptr noundef nonnull align 8 dereferenceable(24) %3, ptr noundef nonnull getelementptr inbounds ([10 x ptr], ptr @_ZTTNSt3__118basic_stringstreamIcNS_11char_traitsIcEENS_9allocatorIcEEEE, i64 0, i64 1)) #24
  tail call void @_ZNSt3__19basic_iosIcNS_11char_traitsIcEEED2Ev(ptr noundef nonnull align 8 dereferenceable(148) %add.ptr.i.i.i) #24
  tail call void @_ZdlPv(ptr noundef nonnull %3) #25
  ret void
}

declare void @_ZNSt3__18ios_base4initEPv(ptr noundef nonnull align 8 dereferenceable(136), ptr noundef) local_unnamed_addr #0

declare void @_ZNSt3__115basic_streambufIcNS_11char_traitsIcEEEC2Ev(ptr noundef nonnull align 8 dereferenceable(64)) unnamed_addr #0

; Function Attrs: inlinehint nounwind uwtable
define linkonce_odr hidden void @_ZNSt3__115basic_stringbufIcNS_11char_traitsIcEENS_9allocatorIcEEED2Ev(ptr noundef nonnull align 8 dereferenceable(100) %this) unnamed_addr #5 comdat align 2 personality ptr @__gxx_personality_v0 {
entry:
  store ptr getelementptr inbounds ({ [16 x ptr] }, ptr @_ZTVNSt3__115basic_stringbufIcNS_11char_traitsIcEENS_9allocatorIcEEEE, i64 0, inrange i32 0, i64 2), ptr %this, align 8, !tbaa !5
  %__str_ = getelementptr inbounds %"class.std::__1::basic_stringbuf", ptr %this, i64 0, i32 1
  %bf.load.i.i = load i8, ptr %__str_, align 8
  %bf.clear.i.i = and i8 %bf.load.i.i, 1
  %tobool.i.not.i = icmp eq i8 %bf.clear.i.i, 0
  br i1 %tobool.i.not.i, label %_ZNSt3__112basic_stringIcNS_11char_traitsIcEENS_9allocatorIcEEED2Ev.exit, label %if.then.i

if.then.i:                                        ; preds = %entry
  %__data_.i.i = getelementptr inbounds %"class.std::__1::basic_stringbuf", ptr %this, i64 0, i32 1, i32 0, i32 0, i32 0, i32 0, i32 0, i32 2
  %0 = load ptr, ptr %__data_.i.i, align 8, !tbaa !25
  tail call void @_ZdlPv(ptr noundef %0) #25
  br label %_ZNSt3__112basic_stringIcNS_11char_traitsIcEENS_9allocatorIcEEED2Ev.exit

_ZNSt3__112basic_stringIcNS_11char_traitsIcEENS_9allocatorIcEEED2Ev.exit: ; preds = %entry, %if.then.i
  tail call void @_ZNSt3__115basic_streambufIcNS_11char_traitsIcEEED2Ev(ptr noundef nonnull align 8 dereferenceable(64) %this) #24
  ret void
}

; Function Attrs: inlinehint nounwind uwtable
define linkonce_odr hidden void @_ZNSt3__115basic_stringbufIcNS_11char_traitsIcEENS_9allocatorIcEEED0Ev(ptr noundef nonnull align 8 dereferenceable(100) %this) unnamed_addr #5 comdat align 2 personality ptr @__gxx_personality_v0 {
entry:
  store ptr getelementptr inbounds ({ [16 x ptr] }, ptr @_ZTVNSt3__115basic_stringbufIcNS_11char_traitsIcEENS_9allocatorIcEEEE, i64 0, inrange i32 0, i64 2), ptr %this, align 8, !tbaa !5
  %__str_.i = getelementptr inbounds %"class.std::__1::basic_stringbuf", ptr %this, i64 0, i32 1
  %bf.load.i.i.i = load i8, ptr %__str_.i, align 8
  %bf.clear.i.i.i = and i8 %bf.load.i.i.i, 1
  %tobool.i.not.i.i = icmp eq i8 %bf.clear.i.i.i, 0
  br i1 %tobool.i.not.i.i, label %_ZNSt3__115basic_stringbufIcNS_11char_traitsIcEENS_9allocatorIcEEED2Ev.exit, label %if.then.i.i

if.then.i.i:                                      ; preds = %entry
  %__data_.i.i.i = getelementptr inbounds %"class.std::__1::basic_stringbuf", ptr %this, i64 0, i32 1, i32 0, i32 0, i32 0, i32 0, i32 0, i32 2
  %0 = load ptr, ptr %__data_.i.i.i, align 8, !tbaa !25
  tail call void @_ZdlPv(ptr noundef %0) #25
  br label %_ZNSt3__115basic_stringbufIcNS_11char_traitsIcEENS_9allocatorIcEEED2Ev.exit

_ZNSt3__115basic_stringbufIcNS_11char_traitsIcEENS_9allocatorIcEEED2Ev.exit: ; preds = %entry, %if.then.i.i
  tail call void @_ZNSt3__115basic_streambufIcNS_11char_traitsIcEEED2Ev(ptr noundef nonnull align 8 dereferenceable(64) %this) #24
  tail call void @_ZdlPv(ptr noundef nonnull %this) #25
  ret void
}

declare void @_ZNSt3__115basic_streambufIcNS_11char_traitsIcEEE5imbueERKNS_6localeE(ptr noundef nonnull align 8 dereferenceable(64), ptr noundef nonnull align 8 dereferenceable(8)) unnamed_addr #0

declare noundef ptr @_ZNSt3__115basic_streambufIcNS_11char_traitsIcEEE6setbufEPcl(ptr noundef nonnull align 8 dereferenceable(64), ptr noundef, i64 noundef) unnamed_addr #0

; Function Attrs: uwtable
define linkonce_odr hidden { i64, i64 } @_ZNSt3__115basic_stringbufIcNS_11char_traitsIcEENS_9allocatorIcEEE7seekoffExNS_8ios_base7seekdirEj(ptr noundef nonnull align 8 dereferenceable(100) %this, i64 noundef %__off, i32 noundef %__way, i32 noundef %__wch) unnamed_addr #6 comdat align 2 {
entry:
  %__hm_ = getelementptr inbounds %"class.std::__1::basic_stringbuf", ptr %this, i64 0, i32 2
  %0 = load ptr, ptr %__hm_, align 8, !tbaa !42
  %__nout_.i = getelementptr inbounds %"class.std::__1::basic_streambuf", ptr %this, i64 0, i32 6
  %1 = load ptr, ptr %__nout_.i, align 8, !tbaa !43
  %cmp = icmp ult ptr %0, %1
  br i1 %cmp, label %if.then, label %if.end

if.then:                                          ; preds = %entry
  store ptr %1, ptr %__hm_, align 8, !tbaa !42
  br label %if.end

if.end:                                           ; preds = %if.then, %entry
  %2 = phi ptr [ %1, %if.then ], [ %0, %entry ]
  %and = and i32 %__wch, 24
  %cmp4 = icmp eq i32 %and, 0
  br i1 %cmp4, label %return, label %if.end6

if.end6:                                          ; preds = %if.end
  %cmp8 = icmp eq i32 %and, 24
  %cmp9 = icmp eq i32 %__way, 1
  %or.cond = and i1 %cmp9, %cmp8
  br i1 %or.cond, label %return, label %if.end11

if.end11:                                         ; preds = %if.end6
  %cmp13 = icmp eq ptr %2, null
  br i1 %cmp13, label %cond.end, label %cond.false

cond.false:                                       ; preds = %if.end11
  %__str_ = getelementptr inbounds %"class.std::__1::basic_stringbuf", ptr %this, i64 0, i32 1
  %bf.load.i.i.i = load i8, ptr %__str_, align 8
  %bf.clear.i.i.i = and i8 %bf.load.i.i.i, 1
  %tobool.i.not.i.i = icmp eq i8 %bf.clear.i.i.i, 0
  %__data_.i.i.i = getelementptr inbounds %"class.std::__1::basic_stringbuf", ptr %this, i64 0, i32 1, i32 0, i32 0, i32 0, i32 0, i32 0, i32 2
  %3 = load ptr, ptr %__data_.i.i.i, align 8
  %__data_.i4.i.i = getelementptr inbounds i8, ptr %this, i64 65
  %cond.i.i = select i1 %tobool.i.not.i.i, ptr %__data_.i4.i.i, ptr %3
  %sub.ptr.lhs.cast = ptrtoint ptr %2 to i64
  %sub.ptr.rhs.cast = ptrtoint ptr %cond.i.i to i64
  %sub.ptr.sub = sub i64 %sub.ptr.lhs.cast, %sub.ptr.rhs.cast
  br label %cond.end

cond.end:                                         ; preds = %if.end11, %cond.false
  %cond = phi i64 [ %sub.ptr.sub, %cond.false ], [ 0, %if.end11 ]
  switch i32 %__way, label %return [
    i32 0, label %sw.epilog
    i32 1, label %sw.bb16
    i32 2, label %sw.bb30
  ]

sw.bb16:                                          ; preds = %cond.end
  %and17 = and i32 %__wch, 8
  %tobool.not = icmp eq i32 %and17, 0
  br i1 %tobool.not, label %if.else, label %if.then18

if.then18:                                        ; preds = %sw.bb16
  %__ninp_.i = getelementptr inbounds %"class.std::__1::basic_streambuf", ptr %this, i64 0, i32 3
  %4 = load ptr, ptr %__ninp_.i, align 8, !tbaa !44
  %__binp_.i = getelementptr inbounds %"class.std::__1::basic_streambuf", ptr %this, i64 0, i32 2
  %5 = load ptr, ptr %__binp_.i, align 8, !tbaa !45
  %sub.ptr.lhs.cast21 = ptrtoint ptr %4 to i64
  %sub.ptr.rhs.cast22 = ptrtoint ptr %5 to i64
  %sub.ptr.sub23 = sub i64 %sub.ptr.lhs.cast21, %sub.ptr.rhs.cast22
  br label %sw.epilog

if.else:                                          ; preds = %sw.bb16
  %__bout_.i = getelementptr inbounds %"class.std::__1::basic_streambuf", ptr %this, i64 0, i32 5
  %6 = load ptr, ptr %__bout_.i, align 8, !tbaa !46
  %sub.ptr.lhs.cast26 = ptrtoint ptr %1 to i64
  %sub.ptr.rhs.cast27 = ptrtoint ptr %6 to i64
  %sub.ptr.sub28 = sub i64 %sub.ptr.lhs.cast26, %sub.ptr.rhs.cast27
  br label %sw.epilog

sw.bb30:                                          ; preds = %cond.end
  br label %sw.epilog

sw.epilog:                                        ; preds = %cond.end, %if.then18, %if.else, %sw.bb30
  %__noff.0 = phi i64 [ %cond, %sw.bb30 ], [ %sub.ptr.sub23, %if.then18 ], [ %sub.ptr.sub28, %if.else ], [ 0, %cond.end ]
  %add = add nsw i64 %__noff.0, %__off
  %cmp31 = icmp slt i64 %add, 0
  %cmp32 = icmp slt i64 %cond, %add
  %or.cond80 = select i1 %cmp31, i1 true, i1 %cmp32
  br i1 %or.cond80, label %return, label %if.end34

if.end34:                                         ; preds = %sw.epilog
  %cmp35.not = icmp eq i64 %add, 0
  %.pre = and i32 %__wch, 8
  br i1 %cmp35.not, label %if.end51, label %if.then36

if.then36:                                        ; preds = %if.end34
  %tobool38.not = icmp ne i32 %.pre, 0
  %__ninp_.i86 = getelementptr inbounds %"class.std::__1::basic_streambuf", ptr %this, i64 0, i32 3
  %7 = load ptr, ptr %__ninp_.i86, align 8
  %cmp41 = icmp eq ptr %7, null
  %or.cond100 = select i1 %tobool38.not, i1 %cmp41, i1 false
  br i1 %or.cond100, label %return, label %if.end43

if.end43:                                         ; preds = %if.then36
  %and44 = and i32 %__wch, 16
  %tobool45.not = icmp ne i32 %and44, 0
  %cmp48 = icmp eq ptr %1, null
  %or.cond101 = select i1 %tobool45.not, i1 %cmp48, i1 false
  br i1 %or.cond101, label %return, label %if.end51

if.end51:                                         ; preds = %if.end34, %if.end43
  %tobool53.not = icmp eq i32 %.pre, 0
  br i1 %tobool53.not, label %if.end58, label %if.then54

if.then54:                                        ; preds = %if.end51
  %__binp_.i90 = getelementptr inbounds %"class.std::__1::basic_streambuf", ptr %this, i64 0, i32 2
  %8 = load ptr, ptr %__binp_.i90, align 8, !tbaa !45
  %add.ptr = getelementptr inbounds i8, ptr %8, i64 %add
  %__ninp_.i93 = getelementptr inbounds %"class.std::__1::basic_streambuf", ptr %this, i64 0, i32 3
  store ptr %add.ptr, ptr %__ninp_.i93, align 8, !tbaa !44
  %__einp_.i = getelementptr inbounds %"class.std::__1::basic_streambuf", ptr %this, i64 0, i32 4
  store ptr %2, ptr %__einp_.i, align 8, !tbaa !47
  br label %if.end58

if.end58:                                         ; preds = %if.then54, %if.end51
  %and59 = and i32 %__wch, 16
  %tobool60.not = icmp eq i32 %and59, 0
  br i1 %tobool60.not, label %return, label %if.then61

if.then61:                                        ; preds = %if.end58
  %__bout_.i94 = getelementptr inbounds %"class.std::__1::basic_streambuf", ptr %this, i64 0, i32 5
  %9 = load ptr, ptr %__bout_.i94, align 8, !tbaa !46
  %sext = shl i64 %add, 32
  %idx.ext.i = ashr exact i64 %sext, 32
  %add.ptr.i = getelementptr inbounds i8, ptr %9, i64 %idx.ext.i
  store ptr %add.ptr.i, ptr %__nout_.i, align 8, !tbaa !43
  br label %return

return:                                           ; preds = %if.end43, %if.then36, %if.end58, %if.then61, %sw.epilog, %cond.end, %if.end6, %if.end
  %retval.sroa.8.0 = phi i64 [ -1, %if.end ], [ -1, %if.end6 ], [ -1, %cond.end ], [ -1, %sw.epilog ], [ %add, %if.then61 ], [ %add, %if.end58 ], [ -1, %if.then36 ], [ -1, %if.end43 ]
  %.fca.1.insert = insertvalue { i64, i64 } { i64 0, i64 poison }, i64 %retval.sroa.8.0, 1
  ret { i64, i64 } %.fca.1.insert
}

; Function Attrs: mustprogress uwtable
define linkonce_odr hidden { i64, i64 } @_ZNSt3__115basic_stringbufIcNS_11char_traitsIcEENS_9allocatorIcEEE7seekposENS_4fposI11__mbstate_tEEj(ptr noundef nonnull align 8 dereferenceable(100) %this, i64 %__sp.coerce0, i64 %__sp.coerce1, i32 noundef %__wch) unnamed_addr #2 comdat align 2 {
entry:
  %vtable = load ptr, ptr %this, align 8, !tbaa !5
  %vfn = getelementptr inbounds ptr, ptr %vtable, i64 4
  %0 = load ptr, ptr %vfn, align 8
  %call2 = tail call { i64, i64 } %0(ptr noundef nonnull align 8 dereferenceable(100) %this, i64 noundef %__sp.coerce1, i32 noundef 0, i32 noundef %__wch)
  ret { i64, i64 } %call2
}

declare noundef i32 @_ZNSt3__115basic_streambufIcNS_11char_traitsIcEEE4syncEv(ptr noundef nonnull align 8 dereferenceable(64)) unnamed_addr #0

declare noundef i64 @_ZNSt3__115basic_streambufIcNS_11char_traitsIcEEE9showmanycEv(ptr noundef nonnull align 8 dereferenceable(64)) unnamed_addr #0

declare noundef i64 @_ZNSt3__115basic_streambufIcNS_11char_traitsIcEEE6xsgetnEPcl(ptr noundef nonnull align 8 dereferenceable(64), ptr noundef, i64 noundef) unnamed_addr #0

; Function Attrs: mustprogress uwtable
define linkonce_odr hidden noundef i32 @_ZNSt3__115basic_stringbufIcNS_11char_traitsIcEENS_9allocatorIcEEE9underflowEv(ptr noundef nonnull align 8 dereferenceable(100) %this) unnamed_addr #2 comdat align 2 {
entry:
  %__hm_ = getelementptr inbounds %"class.std::__1::basic_stringbuf", ptr %this, i64 0, i32 2
  %0 = load ptr, ptr %__hm_, align 8, !tbaa !42
  %__nout_.i = getelementptr inbounds %"class.std::__1::basic_streambuf", ptr %this, i64 0, i32 6
  %1 = load ptr, ptr %__nout_.i, align 8, !tbaa !43
  %cmp = icmp ult ptr %0, %1
  br i1 %cmp, label %if.then, label %if.end

if.then:                                          ; preds = %entry
  store ptr %1, ptr %__hm_, align 8, !tbaa !42
  br label %if.end

if.end:                                           ; preds = %if.then, %entry
  %2 = phi ptr [ %1, %if.then ], [ %0, %entry ]
  %__mode_ = getelementptr inbounds %"class.std::__1::basic_stringbuf", ptr %this, i64 0, i32 3
  %3 = load i32, ptr %__mode_, align 8, !tbaa !34
  %and = and i32 %3, 8
  %tobool.not = icmp eq i32 %and, 0
  br i1 %tobool.not, label %return, label %if.then4

if.then4:                                         ; preds = %if.end
  %__einp_.i = getelementptr inbounds %"class.std::__1::basic_streambuf", ptr %this, i64 0, i32 4
  %4 = load ptr, ptr %__einp_.i, align 8, !tbaa !47
  %cmp7 = icmp ult ptr %4, %2
  br i1 %cmp7, label %if.then8, label %if.end12

if.then8:                                         ; preds = %if.then4
  store ptr %2, ptr %__einp_.i, align 8, !tbaa !47
  br label %if.end12

if.end12:                                         ; preds = %if.then8, %if.then4
  %5 = phi ptr [ %2, %if.then8 ], [ %4, %if.then4 ]
  %__ninp_.i26 = getelementptr inbounds %"class.std::__1::basic_streambuf", ptr %this, i64 0, i32 3
  %6 = load ptr, ptr %__ninp_.i26, align 8, !tbaa !44
  %cmp15 = icmp ult ptr %6, %5
  br i1 %cmp15, label %if.then16, label %return

if.then16:                                        ; preds = %if.end12
  %7 = load i8, ptr %6, align 1, !tbaa !25
  %conv.i = zext i8 %7 to i32
  br label %return

return:                                           ; preds = %if.end, %if.end12, %if.then16
  %retval.0 = phi i32 [ %conv.i, %if.then16 ], [ -1, %if.end12 ], [ -1, %if.end ]
  ret i32 %retval.0
}

declare noundef i32 @_ZNSt3__115basic_streambufIcNS_11char_traitsIcEEE5uflowEv(ptr noundef nonnull align 8 dereferenceable(64)) unnamed_addr #0

; Function Attrs: mustprogress nounwind uwtable
define linkonce_odr hidden noundef i32 @_ZNSt3__115basic_stringbufIcNS_11char_traitsIcEENS_9allocatorIcEEE9pbackfailEi(ptr noundef nonnull align 8 dereferenceable(100) %this, i32 noundef %__c) unnamed_addr #8 comdat align 2 {
entry:
  %__hm_ = getelementptr inbounds %"class.std::__1::basic_stringbuf", ptr %this, i64 0, i32 2
  %0 = load ptr, ptr %__hm_, align 8, !tbaa !42
  %__nout_.i = getelementptr inbounds %"class.std::__1::basic_streambuf", ptr %this, i64 0, i32 6
  %1 = load ptr, ptr %__nout_.i, align 8, !tbaa !43
  %cmp = icmp ult ptr %0, %1
  br i1 %cmp, label %if.then, label %if.end

if.then:                                          ; preds = %entry
  store ptr %1, ptr %__hm_, align 8, !tbaa !42
  br label %if.end

if.end:                                           ; preds = %if.then, %entry
  %2 = phi ptr [ %1, %if.then ], [ %0, %entry ]
  %__binp_.i = getelementptr inbounds %"class.std::__1::basic_streambuf", ptr %this, i64 0, i32 2
  %3 = load ptr, ptr %__binp_.i, align 8, !tbaa !45
  %__ninp_.i = getelementptr inbounds %"class.std::__1::basic_streambuf", ptr %this, i64 0, i32 3
  %4 = load ptr, ptr %__ninp_.i, align 8, !tbaa !44
  %cmp6 = icmp ult ptr %3, %4
  br i1 %cmp6, label %if.then7, label %return

if.then7:                                         ; preds = %if.end
  %cmp.i = icmp eq i32 %__c, -1
  br i1 %cmp.i, label %if.then10, label %if.end15

if.then10:                                        ; preds = %if.then7
  %add.ptr = getelementptr inbounds i8, ptr %4, i64 -1
  store ptr %add.ptr, ptr %__ninp_.i, align 8, !tbaa !44
  %__einp_.i = getelementptr inbounds %"class.std::__1::basic_streambuf", ptr %this, i64 0, i32 4
  store ptr %2, ptr %__einp_.i, align 8, !tbaa !47
  br label %return

if.end15:                                         ; preds = %if.then7
  %__mode_ = getelementptr inbounds %"class.std::__1::basic_stringbuf", ptr %this, i64 0, i32 3
  %5 = load i32, ptr %__mode_, align 8, !tbaa !34
  %and = and i32 %5, 16
  %tobool.not = icmp eq i32 %and, 0
  %conv.i = trunc i32 %__c to i8
  br i1 %tobool.not, label %lor.lhs.false, label %if.then19

lor.lhs.false:                                    ; preds = %if.end15
  %arrayidx = getelementptr inbounds i8, ptr %4, i64 -1
  %6 = load i8, ptr %arrayidx, align 1, !tbaa !25
  %cmp.i39 = icmp eq i8 %6, %conv.i
  br i1 %cmp.i39, label %if.then19, label %return

if.then19:                                        ; preds = %if.end15, %lor.lhs.false
  %add.ptr22 = getelementptr inbounds i8, ptr %4, i64 -1
  store ptr %add.ptr22, ptr %__ninp_.i, align 8, !tbaa !44
  %__einp_.i44 = getelementptr inbounds %"class.std::__1::basic_streambuf", ptr %this, i64 0, i32 4
  store ptr %2, ptr %__einp_.i44, align 8, !tbaa !47
  store i8 %conv.i, ptr %add.ptr22, align 1, !tbaa !25
  br label %return

return:                                           ; preds = %if.end, %lor.lhs.false, %if.then19, %if.then10
  %retval.0 = phi i32 [ 0, %if.then10 ], [ %__c, %if.then19 ], [ -1, %lor.lhs.false ], [ -1, %if.end ]
  ret i32 %retval.0
}

declare noundef i64 @_ZNSt3__115basic_streambufIcNS_11char_traitsIcEEE6xsputnEPKcl(ptr noundef nonnull align 8 dereferenceable(64), ptr noundef, i64 noundef) unnamed_addr #0

; Function Attrs: mustprogress uwtable
define linkonce_odr hidden noundef i32 @_ZNSt3__115basic_stringbufIcNS_11char_traitsIcEENS_9allocatorIcEEE8overflowEi(ptr noundef nonnull align 8 dereferenceable(100) %this, i32 noundef %__c) unnamed_addr #2 comdat align 2 personality ptr @__gxx_personality_v0 {
entry:
  %cmp.i = icmp eq i32 %__c, -1
  br i1 %cmp.i, label %return, label %if.then

if.then:                                          ; preds = %entry
  %__ninp_.i = getelementptr inbounds %"class.std::__1::basic_streambuf", ptr %this, i64 0, i32 3
  %0 = load ptr, ptr %__ninp_.i, align 8, !tbaa !44
  %__binp_.i = getelementptr inbounds %"class.std::__1::basic_streambuf", ptr %this, i64 0, i32 2
  %1 = load ptr, ptr %__binp_.i, align 8, !tbaa !45
  %sub.ptr.lhs.cast = ptrtoint ptr %0 to i64
  %sub.ptr.rhs.cast = ptrtoint ptr %1 to i64
  %sub.ptr.sub = sub i64 %sub.ptr.lhs.cast, %sub.ptr.rhs.cast
  %__nout_.i = getelementptr inbounds %"class.std::__1::basic_streambuf", ptr %this, i64 0, i32 6
  %2 = load ptr, ptr %__nout_.i, align 8, !tbaa !43
  %__eout_.i = getelementptr inbounds %"class.std::__1::basic_streambuf", ptr %this, i64 0, i32 7
  %3 = load ptr, ptr %__eout_.i, align 8, !tbaa !48
  %cmp = icmp eq ptr %2, %3
  br i1 %cmp, label %if.then7, label %if.then.if.end34_crit_edge

if.then.if.end34_crit_edge:                       ; preds = %if.then
  %__hm_37.phi.trans.insert = getelementptr inbounds %"class.std::__1::basic_stringbuf", ptr %this, i64 0, i32 2
  %.pre = load ptr, ptr %__hm_37.phi.trans.insert, align 8, !tbaa !24
  br label %if.end34

if.then7:                                         ; preds = %if.then
  %__mode_ = getelementptr inbounds %"class.std::__1::basic_stringbuf", ptr %this, i64 0, i32 3
  %4 = load i32, ptr %__mode_, align 8, !tbaa !34
  %and = and i32 %4, 16
  %tobool.not = icmp eq i32 %and, 0
  br i1 %tobool.not, label %return, label %if.end

if.end:                                           ; preds = %if.then7
  %__bout_.i = getelementptr inbounds %"class.std::__1::basic_streambuf", ptr %this, i64 0, i32 5
  %5 = load ptr, ptr %__bout_.i, align 8, !tbaa !46
  %sub.ptr.lhs.cast12 = ptrtoint ptr %2 to i64
  %sub.ptr.rhs.cast13 = ptrtoint ptr %5 to i64
  %sub.ptr.sub14 = sub i64 %sub.ptr.lhs.cast12, %sub.ptr.rhs.cast13
  %__hm_ = getelementptr inbounds %"class.std::__1::basic_stringbuf", ptr %this, i64 0, i32 2
  %6 = load ptr, ptr %__hm_, align 8, !tbaa !42
  %sub.ptr.lhs.cast16 = ptrtoint ptr %6 to i64
  %sub.ptr.sub18 = sub i64 %sub.ptr.lhs.cast16, %sub.ptr.rhs.cast13
  %__str_ = getelementptr inbounds %"class.std::__1::basic_stringbuf", ptr %this, i64 0, i32 1
  invoke void @_ZNSt3__112basic_stringIcNS_11char_traitsIcEENS_9allocatorIcEEE9push_backEc(ptr noundef nonnull align 8 dereferenceable(24) %__str_, i8 noundef signext 0)
          to label %invoke.cont unwind label %lpad

invoke.cont:                                      ; preds = %if.end
  %bf.load.i.i = load i8, ptr %__str_, align 8
  %bf.clear.i.i = and i8 %bf.load.i.i, 1
  %tobool.i.not.i = icmp eq i8 %bf.clear.i.i, 0
  %bf.load.i3.i = load i64, ptr %__str_, align 8
  %bf.lshr.i.i = and i64 %bf.load.i3.i, -2
  %7 = add i64 %bf.lshr.i.i, -1
  %cond.i = select i1 %tobool.i.not.i, i64 22, i64 %7
  invoke void @_ZNSt3__112basic_stringIcNS_11char_traitsIcEENS_9allocatorIcEEE6resizeEmc(ptr noundef nonnull align 8 dereferenceable(24) %__str_, i64 noundef %cond.i, i8 noundef signext 0)
          to label %invoke.cont22 unwind label %lpad

invoke.cont22:                                    ; preds = %invoke.cont
  %bf.load.i.i.i = load i8, ptr %__str_, align 8
  %bf.clear.i.i.i = and i8 %bf.load.i.i.i, 1
  %tobool.i.not.i.i = icmp eq i8 %bf.clear.i.i.i, 0
  %__data_.i.i.i = getelementptr inbounds %"class.std::__1::basic_stringbuf", ptr %this, i64 0, i32 1, i32 0, i32 0, i32 0, i32 0, i32 0, i32 2
  %8 = load ptr, ptr %__data_.i.i.i, align 8
  %__data_.i4.i.i = getelementptr inbounds i8, ptr %this, i64 65
  %cond.i.i = select i1 %tobool.i.not.i.i, ptr %__data_.i4.i.i, ptr %8
  %__size_.i.i = getelementptr inbounds %"class.std::__1::basic_stringbuf", ptr %this, i64 0, i32 1, i32 0, i32 0, i32 0, i32 0, i32 0, i32 1
  %9 = load i64, ptr %__size_.i.i, align 8
  %bf.lshr.i.i63 = lshr i8 %bf.load.i.i.i, 1
  %conv.i.i = zext i8 %bf.lshr.i.i63 to i64
  %cond.i64 = select i1 %tobool.i.not.i.i, i64 %conv.i.i, i64 %9
  %add.ptr = getelementptr inbounds i8, ptr %cond.i.i, i64 %cond.i64
  store ptr %cond.i.i, ptr %__bout_.i, align 8, !tbaa !46
  store ptr %add.ptr, ptr %__eout_.i, align 8, !tbaa !48
  %add.ptr.i = getelementptr inbounds i8, ptr %cond.i.i, i64 %sub.ptr.sub14
  store ptr %add.ptr.i, ptr %__nout_.i, align 8, !tbaa !43
  %add.ptr30 = getelementptr inbounds i8, ptr %cond.i.i, i64 %sub.ptr.sub18
  br label %if.end34

lpad:                                             ; preds = %invoke.cont, %if.end
  %10 = landingpad { ptr, i32 }
          catch ptr null
  %11 = extractvalue { ptr, i32 } %10, 0
  %12 = tail call ptr @__cxa_begin_catch(ptr %11) #24
  tail call void @__cxa_end_catch()
  br label %return

if.end34:                                         ; preds = %if.then.if.end34_crit_edge, %invoke.cont22
  %13 = phi ptr [ %add.ptr, %invoke.cont22 ], [ %3, %if.then.if.end34_crit_edge ]
  %14 = phi ptr [ %add.ptr30, %invoke.cont22 ], [ %.pre, %if.then.if.end34_crit_edge ]
  %15 = phi ptr [ %add.ptr.i, %invoke.cont22 ], [ %2, %if.then.if.end34_crit_edge ]
  %add.ptr36 = getelementptr inbounds i8, ptr %15, i64 1
  %__hm_37 = getelementptr inbounds %"class.std::__1::basic_stringbuf", ptr %this, i64 0, i32 2
  %cmp.i.i.i = icmp ult ptr %add.ptr36, %14
  %.sroa.speculated = select i1 %cmp.i.i.i, ptr %14, ptr %add.ptr36
  store ptr %.sroa.speculated, ptr %__hm_37, align 8, !tbaa !42
  %__mode_40 = getelementptr inbounds %"class.std::__1::basic_stringbuf", ptr %this, i64 0, i32 3
  %16 = load i32, ptr %__mode_40, align 8, !tbaa !34
  %and41 = and i32 %16, 8
  %tobool42.not = icmp eq i32 %and41, 0
  br i1 %tobool42.not, label %if.end49, label %if.then43

if.then43:                                        ; preds = %if.end34
  %__str_45 = getelementptr inbounds %"class.std::__1::basic_stringbuf", ptr %this, i64 0, i32 1
  %bf.load.i.i.i71 = load i8, ptr %__str_45, align 8
  %bf.clear.i.i.i72 = and i8 %bf.load.i.i.i71, 1
  %tobool.i.not.i.i73 = icmp eq i8 %bf.clear.i.i.i72, 0
  %__data_.i.i.i74 = getelementptr inbounds %"class.std::__1::basic_stringbuf", ptr %this, i64 0, i32 1, i32 0, i32 0, i32 0, i32 0, i32 0, i32 2
  %17 = load ptr, ptr %__data_.i.i.i74, align 8
  %__data_.i4.i.i75 = getelementptr inbounds i8, ptr %this, i64 65
  %cond.i.i76 = select i1 %tobool.i.not.i.i73, ptr %__data_.i4.i.i75, ptr %17
  %add.ptr47 = getelementptr inbounds i8, ptr %cond.i.i76, i64 %sub.ptr.sub
  store ptr %cond.i.i76, ptr %__binp_.i, align 8, !tbaa !45
  store ptr %add.ptr47, ptr %__ninp_.i, align 8, !tbaa !44
  %__einp_.i = getelementptr inbounds %"class.std::__1::basic_streambuf", ptr %this, i64 0, i32 4
  store ptr %.sroa.speculated, ptr %__einp_.i, align 8, !tbaa !47
  br label %if.end49

if.end49:                                         ; preds = %if.then43, %if.end34
  %cmp.i81 = icmp eq ptr %15, %13
  br i1 %cmp.i81, label %if.then.i, label %if.end.i

if.then.i:                                        ; preds = %if.end49
  %conv.i.i82 = and i32 %__c, 255
  %vtable.i = load ptr, ptr %this, align 8, !tbaa !5
  %vfn.i = getelementptr inbounds ptr, ptr %vtable.i, i64 13
  %18 = load ptr, ptr %vfn.i, align 8
  %call2.i = tail call noundef i32 %18(ptr noundef nonnull align 8 dereferenceable(64) %this, i32 noundef %conv.i.i82)
  br label %return

if.end.i:                                         ; preds = %if.end49
  %conv.i = trunc i32 %__c to i8
  store ptr %add.ptr36, ptr %__nout_.i, align 8, !tbaa !43
  store i8 %conv.i, ptr %15, align 1, !tbaa !25
  %conv.i7.i = and i32 %__c, 255
  br label %return

return:                                           ; preds = %entry, %if.end.i, %if.then.i, %if.then7, %lpad
  %retval.1 = phi i32 [ -1, %lpad ], [ -1, %if.then7 ], [ %call2.i, %if.then.i ], [ %conv.i7.i, %if.end.i ], [ 0, %entry ]
  ret i32 %retval.1
}

; Function Attrs: noinline noreturn nounwind
define linkonce_odr hidden void @__clang_call_terminate(ptr noundef %0) local_unnamed_addr #10 comdat {
  %2 = tail call ptr @__cxa_begin_catch(ptr %0) #24
  tail call void @_ZSt9terminatev() #27
  unreachable
}

declare ptr @__cxa_begin_catch(ptr) local_unnamed_addr

declare void @_ZSt9terminatev() local_unnamed_addr

; Function Attrs: mustprogress nocallback nofree nounwind willreturn memory(argmem: write)
declare void @llvm.memset.p0.i64(ptr nocapture writeonly, i8, i64, i1 immarg) #11

; Function Attrs: mustprogress nocallback nofree nounwind willreturn memory(argmem: readwrite)
declare void @llvm.memcpy.p0.p0.i64(ptr noalias nocapture writeonly, ptr noalias nocapture readonly, i64, i1 immarg) #12

; Function Attrs: nounwind
declare void @_ZNSt3__115basic_streambufIcNS_11char_traitsIcEEED2Ev(ptr noundef nonnull align 8 dereferenceable(64)) unnamed_addr #9

declare void @_ZNSt3__112basic_stringIcNS_11char_traitsIcEENS_9allocatorIcEEE9push_backEc(ptr noundef nonnull align 8 dereferenceable(24), i8 noundef signext) local_unnamed_addr #0

declare void @__cxa_end_catch() local_unnamed_addr

declare void @_ZNSt3__112basic_stringIcNS_11char_traitsIcEENS_9allocatorIcEEE6resizeEmc(ptr noundef nonnull align 8 dereferenceable(24), i64 noundef, i8 noundef signext) local_unnamed_addr #0

; Function Attrs: uwtable
define linkonce_odr hidden noundef nonnull align 8 dereferenceable(8) ptr @_ZNSt3__124__put_character_sequenceB7v170000IcNS_11char_traitsIcEEEERNS_13basic_ostreamIT_T0_EES7_PKS4_m(ptr noundef nonnull align 8 dereferenceable(8) %__os, ptr noundef %__str, i64 noundef %__len) local_unnamed_addr #6 comdat personality ptr @__gxx_personality_v0 {
entry:
  %ref.tmp.i.i = alloca %"class.std::__1::locale", align 8
  %__s = alloca %"class.std::__1::basic_ostream<char>::sentry", align 8
  call void @llvm.lifetime.start.p0(i64 16, ptr nonnull %__s) #24
  invoke void @_ZNSt3__113basic_ostreamIcNS_11char_traitsIcEEE6sentryC1ERS3_(ptr noundef nonnull align 8 dereferenceable(16) %__s, ptr noundef nonnull align 8 dereferenceable(8) %__os)
          to label %invoke.cont unwind label %lpad

invoke.cont:                                      ; preds = %entry
  %0 = load i8, ptr %__s, align 8, !tbaa !49, !range !11, !noundef !17
  %tobool.i.not = icmp eq i8 %0, 0
  br i1 %tobool.i.not, label %if.end28, label %if.then

if.then:                                          ; preds = %invoke.cont
  %vtable.i = load ptr, ptr %__os, align 8, !tbaa !5
  %vbase.offset.ptr.i = getelementptr i8, ptr %vtable.i, i64 -24
  %vbase.offset.i = load i64, ptr %vbase.offset.ptr.i, align 8
  %add.ptr.i = getelementptr inbounds i8, ptr %__os, i64 %vbase.offset.i
  %__rdbuf_.i.i.i = getelementptr inbounds %"class.std::__1::ios_base", ptr %add.ptr.i, i64 0, i32 6
  %1 = load ptr, ptr %__rdbuf_.i.i.i, align 8, !tbaa !51
  %__fmtflags_.i = getelementptr inbounds %"class.std::__1::ios_base", ptr %add.ptr.i, i64 0, i32 1
  %2 = load i32, ptr %__fmtflags_.i, align 8, !tbaa !52
  %__fill_.i = getelementptr inbounds %"class.std::__1::basic_ios", ptr %add.ptr.i, i64 0, i32 2
  %3 = load i32, ptr %__fill_.i, align 8, !tbaa !33
  %cmp.i.i = icmp eq i32 %3, -1
  br i1 %cmp.i.i, label %if.then.i, label %invoke.cont16

if.then.i:                                        ; preds = %if.then
  call void @llvm.lifetime.start.p0(i64 8, ptr nonnull %ref.tmp.i.i) #24
  invoke void @_ZNKSt3__18ios_base6getlocEv(ptr nonnull sret(%"class.std::__1::locale") align 8 %ref.tmp.i.i, ptr noundef nonnull align 8 dereferenceable(136) %add.ptr.i)
          to label %.noexc unwind label %lpad3

.noexc:                                           ; preds = %if.then.i
  %call.i5.i.i = invoke noundef ptr @_ZNKSt3__16locale9use_facetERNS0_2idE(ptr noundef nonnull align 8 dereferenceable(8) %ref.tmp.i.i, ptr noundef nonnull align 8 dereferenceable(12) @_ZNSt3__15ctypeIcE2idE)
          to label %invoke.cont.i.i unwind label %lpad.i.i

invoke.cont.i.i:                                  ; preds = %.noexc
  %vtable.i.i.i = load ptr, ptr %call.i5.i.i, align 8, !tbaa !5
  %vfn.i.i.i = getelementptr inbounds ptr, ptr %vtable.i.i.i, i64 7
  %4 = load ptr, ptr %vfn.i.i.i, align 8
  %call.i6.i.i = invoke noundef signext i8 %4(ptr noundef nonnull align 8 dereferenceable(25) %call.i5.i.i, i8 noundef signext 32)
          to label %_ZNKSt3__19basic_iosIcNS_11char_traitsIcEEE5widenB7v170000Ec.exit.i unwind label %lpad.i.i

lpad.i.i:                                         ; preds = %invoke.cont.i.i, %.noexc
  %5 = landingpad { ptr, i32 }
          catch ptr null
  call void @_ZNSt3__16localeD1Ev(ptr noundef nonnull align 8 dereferenceable(8) %ref.tmp.i.i) #24
  call void @llvm.lifetime.end.p0(i64 8, ptr nonnull %ref.tmp.i.i) #24
  br label %ehcleanup

_ZNKSt3__19basic_iosIcNS_11char_traitsIcEEE5widenB7v170000Ec.exit.i: ; preds = %invoke.cont.i.i
  call void @_ZNSt3__16localeD1Ev(ptr noundef nonnull align 8 dereferenceable(8) %ref.tmp.i.i) #24
  call void @llvm.lifetime.end.p0(i64 8, ptr nonnull %ref.tmp.i.i) #24
  %conv.i = sext i8 %call.i6.i.i to i32
  store i32 %conv.i, ptr %__fill_.i, align 8, !tbaa !33
  br label %invoke.cont16

invoke.cont16:                                    ; preds = %_ZNKSt3__19basic_iosIcNS_11char_traitsIcEEE5widenB7v170000Ec.exit.i, %if.then
  %6 = phi i32 [ %conv.i, %_ZNKSt3__19basic_iosIcNS_11char_traitsIcEEE5widenB7v170000Ec.exit.i ], [ %3, %if.then ]
  %conv6.i = trunc i32 %6 to i8
  %and = and i32 %2, 176
  %cmp = icmp eq i32 %and, 32
  %add.ptr6 = getelementptr inbounds i8, ptr %__str, i64 %__len
  %cond = select i1 %cmp, ptr %add.ptr6, ptr %__str
  %call19 = invoke ptr @_ZNSt3__116__pad_and_outputB7v170000IcNS_11char_traitsIcEEEENS_19ostreambuf_iteratorIT_T0_EES6_PKS4_S8_S8_RNS_8ios_baseES4_(ptr %1, ptr noundef %__str, ptr noundef %cond, ptr noundef %add.ptr6, ptr noundef nonnull align 8 dereferenceable(136) %add.ptr.i, i8 noundef signext %conv6.i)
          to label %invoke.cont18 unwind label %lpad3

invoke.cont18:                                    ; preds = %invoke.cont16
  %cmp.i = icmp eq ptr %call19, null
  br i1 %cmp.i, label %if.then22, label %if.end28

if.then22:                                        ; preds = %invoke.cont18
  %vtable23 = load ptr, ptr %__os, align 8, !tbaa !5
  %vbase.offset.ptr24 = getelementptr i8, ptr %vtable23, i64 -24
  %vbase.offset25 = load i64, ptr %vbase.offset.ptr24, align 8
  %add.ptr26 = getelementptr inbounds i8, ptr %__os, i64 %vbase.offset25
  %__rdstate_.i.i = getelementptr inbounds %"class.std::__1::ios_base", ptr %add.ptr26, i64 0, i32 4
  %7 = load i32, ptr %__rdstate_.i.i, align 8, !tbaa !53
  %or.i.i = or i32 %7, 5
  invoke void @_ZNSt3__18ios_base5clearEj(ptr noundef nonnull align 8 dereferenceable(136) %add.ptr26, i32 noundef %or.i.i)
          to label %if.end28 unwind label %lpad1

lpad:                                             ; preds = %entry
  %8 = landingpad { ptr, i32 }
          catch ptr null
  br label %ehcleanup29

lpad1:                                            ; preds = %if.then22
  %9 = landingpad { ptr, i32 }
          catch ptr null
  br label %ehcleanup

lpad3:                                            ; preds = %if.then.i, %invoke.cont16
  %10 = landingpad { ptr, i32 }
          catch ptr null
  br label %ehcleanup

if.end28:                                         ; preds = %if.then22, %invoke.cont18, %invoke.cont
  call void @_ZNSt3__113basic_ostreamIcNS_11char_traitsIcEEE6sentryD1Ev(ptr noundef nonnull align 8 dereferenceable(16) %__s) #24
  call void @llvm.lifetime.end.p0(i64 16, ptr nonnull %__s) #24
  br label %try.cont

ehcleanup:                                        ; preds = %lpad3, %lpad.i.i, %lpad1
  %.pn = phi { ptr, i32 } [ %9, %lpad1 ], [ %10, %lpad3 ], [ %5, %lpad.i.i ]
  call void @_ZNSt3__113basic_ostreamIcNS_11char_traitsIcEEE6sentryD1Ev(ptr noundef nonnull align 8 dereferenceable(16) %__s) #24
  br label %ehcleanup29

ehcleanup29:                                      ; preds = %ehcleanup, %lpad
  %.pn.pn = phi { ptr, i32 } [ %.pn, %ehcleanup ], [ %8, %lpad ]
  %exn.slot.1 = extractvalue { ptr, i32 } %.pn.pn, 0
  call void @llvm.lifetime.end.p0(i64 16, ptr nonnull %__s) #24
  %11 = call ptr @__cxa_begin_catch(ptr %exn.slot.1) #24
  %vtable30 = load ptr, ptr %__os, align 8, !tbaa !5
  %vbase.offset.ptr31 = getelementptr i8, ptr %vtable30, i64 -24
  %vbase.offset32 = load i64, ptr %vbase.offset.ptr31, align 8
  %add.ptr33 = getelementptr inbounds i8, ptr %__os, i64 %vbase.offset32
  invoke void @_ZNSt3__18ios_base33__set_badbit_and_consider_rethrowEv(ptr noundef nonnull align 8 dereferenceable(136) %add.ptr33)
          to label %invoke.cont35 unwind label %lpad34

invoke.cont35:                                    ; preds = %ehcleanup29
  call void @__cxa_end_catch()
  br label %try.cont

try.cont:                                         ; preds = %invoke.cont35, %if.end28
  ret ptr %__os

lpad34:                                           ; preds = %ehcleanup29
  %12 = landingpad { ptr, i32 }
          cleanup
  invoke void @__cxa_end_catch()
          to label %eh.resume unwind label %terminate.lpad

eh.resume:                                        ; preds = %lpad34
  resume { ptr, i32 } %12

terminate.lpad:                                   ; preds = %lpad34
  %13 = landingpad { ptr, i32 }
          catch ptr null
  %14 = extractvalue { ptr, i32 } %13, 0
  call void @__clang_call_terminate(ptr %14) #27
  unreachable
}

declare void @_ZNSt3__113basic_ostreamIcNS_11char_traitsIcEEE6sentryC1ERS3_(ptr noundef nonnull align 8 dereferenceable(16), ptr noundef nonnull align 8 dereferenceable(8)) unnamed_addr #0

; Function Attrs: uwtable
define linkonce_odr hidden ptr @_ZNSt3__116__pad_and_outputB7v170000IcNS_11char_traitsIcEEEENS_19ostreambuf_iteratorIT_T0_EES6_PKS4_S8_S8_RNS_8ios_baseES4_(ptr %__s.coerce, ptr noundef %__ob, ptr noundef %__op, ptr noundef %__oe, ptr noundef nonnull align 8 dereferenceable(136) %__iob, i8 noundef signext %__fl) local_unnamed_addr #6 comdat personality ptr @__gxx_personality_v0 {
entry:
  %__sp = alloca %"class.std::__1::basic_string", align 8
  %cmp = icmp eq ptr %__s.coerce, null
  br i1 %cmp, label %return, label %if.end

if.end:                                           ; preds = %entry
  %sub.ptr.lhs.cast = ptrtoint ptr %__oe to i64
  %sub.ptr.rhs.cast = ptrtoint ptr %__ob to i64
  %sub.ptr.sub = sub i64 %sub.ptr.lhs.cast, %sub.ptr.rhs.cast
  %__width_.i = getelementptr inbounds %"class.std::__1::ios_base", ptr %__iob, i64 0, i32 3
  %0 = load i64, ptr %__width_.i, align 8, !tbaa !54
  %cmp1 = icmp sgt i64 %0, %sub.ptr.sub
  %sub = sub nsw i64 %0, %sub.ptr.sub
  %__ns.0 = select i1 %cmp1, i64 %sub, i64 0
  %sub.ptr.lhs.cast4 = ptrtoint ptr %__op to i64
  %sub.ptr.sub6 = sub i64 %sub.ptr.lhs.cast4, %sub.ptr.rhs.cast
  %cmp7 = icmp sgt i64 %sub.ptr.sub6, 0
  br i1 %cmp7, label %if.then8, label %if.end15

if.then8:                                         ; preds = %if.end
  %vtable.i = load ptr, ptr %__s.coerce, align 8, !tbaa !5
  %vfn.i = getelementptr inbounds ptr, ptr %vtable.i, i64 12
  %1 = load ptr, ptr %vfn.i, align 8
  %call.i = tail call noundef i64 %1(ptr noundef nonnull align 8 dereferenceable(64) %__s.coerce, ptr noundef %__ob, i64 noundef %sub.ptr.sub6)
  %cmp11.not = icmp eq i64 %call.i, %sub.ptr.sub6
  br i1 %cmp11.not, label %if.end15, label %return

if.end15:                                         ; preds = %if.then8, %if.end
  %cmp16 = icmp sgt i64 %__ns.0, 0
  br i1 %cmp16, label %if.end.i.i, label %if.end26

if.end.i.i:                                       ; preds = %if.end15
  call void @llvm.lifetime.start.p0(i64 24, ptr nonnull %__sp) #24
  %cmp.i.i.i = icmp ult i64 %__ns.0, 23
  br i1 %cmp.i.i.i, label %if.end9.i.i, label %if.end9.thread.i.i

if.end9.thread.i.i:                               ; preds = %if.end.i.i
  %sub.i.i.i = or i64 %__ns.0, 15
  %add.i.i = add nuw i64 %sub.i.i.i, 1
  %call.i.i.i.i.i.i = tail call noalias noundef nonnull ptr @_Znwm(i64 noundef %add.i.i) #26
  %__data_.i23.i.i = getelementptr inbounds %"struct.std::__1::basic_string<char>::__long", ptr %__sp, i64 0, i32 2
  store ptr %call.i.i.i.i.i.i, ptr %__data_.i23.i.i, align 8, !tbaa !25
  %bf.set6.i.i.i = or i64 %add.i.i, 1
  store i64 %bf.set6.i.i.i, ptr %__sp, align 8
  %__size_.i.i.i = getelementptr inbounds %"struct.std::__1::basic_string<char>::__long", ptr %__sp, i64 0, i32 1
  store i64 %__ns.0, ptr %__size_.i.i.i, align 8, !tbaa !25
  br label %_ZNSt3__112basic_stringIcNS_11char_traitsIcEENS_9allocatorIcEEEC2B7v170000Emc.exit

if.end9.i.i:                                      ; preds = %if.end.i.i
  %conv.i.i.i = trunc i64 %__ns.0 to i8
  %bf.shl.i.i.i = shl nuw nsw i8 %conv.i.i.i, 1
  store i8 %bf.shl.i.i.i, ptr %__sp, align 8
  %__data_.i.i.i = getelementptr inbounds %"struct.std::__1::basic_string<char>::__short", ptr %__sp, i64 0, i32 2
  br label %_ZNSt3__112basic_stringIcNS_11char_traitsIcEENS_9allocatorIcEEEC2B7v170000Emc.exit

_ZNSt3__112basic_stringIcNS_11char_traitsIcEENS_9allocatorIcEEEC2B7v170000Emc.exit: ; preds = %if.end9.thread.i.i, %if.end9.i.i
  %__p.026.i.i = phi ptr [ %call.i.i.i.i.i.i, %if.end9.thread.i.i ], [ %__data_.i.i.i, %if.end9.i.i ]
  call void @llvm.memset.p0.i64(ptr nonnull align 1 %__p.026.i.i, i8 %__fl, i64 %__ns.0, i1 false), !tbaa !25
  %arrayidx.i.i = getelementptr inbounds i8, ptr %__p.026.i.i, i64 %__ns.0
  store i8 0, ptr %arrayidx.i.i, align 1, !tbaa !25
  %bf.load.i.i.i = load i8, ptr %__sp, align 8
  %bf.clear.i.i.i = and i8 %bf.load.i.i.i, 1
  %tobool.i.not.i.i = icmp eq i8 %bf.clear.i.i.i, 0
  %__data_.i.i.i69 = getelementptr inbounds %"struct.std::__1::basic_string<char>::__long", ptr %__sp, i64 0, i32 2
  %2 = load ptr, ptr %__data_.i.i.i69, align 8
  %__data_.i4.i.i = getelementptr inbounds %"struct.std::__1::basic_string<char>::__short", ptr %__sp, i64 0, i32 2
  %cond.i.i = select i1 %tobool.i.not.i.i, ptr %__data_.i4.i.i, ptr %2
  %vtable.i70 = load ptr, ptr %__s.coerce, align 8, !tbaa !5
  %vfn.i71 = getelementptr inbounds ptr, ptr %vtable.i70, i64 12
  %3 = load ptr, ptr %vfn.i71, align 8
  %call.i7273 = invoke noundef i64 %3(ptr noundef nonnull align 8 dereferenceable(64) %__s.coerce, ptr noundef %cond.i.i, i64 noundef %__ns.0)
          to label %invoke.cont unwind label %lpad

invoke.cont:                                      ; preds = %_ZNSt3__112basic_stringIcNS_11char_traitsIcEENS_9allocatorIcEEEC2B7v170000Emc.exit
  %cmp21.not = icmp eq i64 %call.i7273, %__ns.0
  %bf.load.i.i = load i8, ptr %__sp, align 8
  %bf.clear.i.i = and i8 %bf.load.i.i, 1
  %tobool.i.not.i = icmp eq i8 %bf.clear.i.i, 0
  br i1 %tobool.i.not.i, label %_ZNSt3__112basic_stringIcNS_11char_traitsIcEENS_9allocatorIcEEED2Ev.exit, label %if.then.i

if.then.i:                                        ; preds = %invoke.cont
  %4 = load ptr, ptr %__data_.i.i.i69, align 8, !tbaa !25
  call void @_ZdlPv(ptr noundef %4) #25
  br label %_ZNSt3__112basic_stringIcNS_11char_traitsIcEENS_9allocatorIcEEED2Ev.exit

_ZNSt3__112basic_stringIcNS_11char_traitsIcEENS_9allocatorIcEEED2Ev.exit: ; preds = %invoke.cont, %if.then.i
  call void @llvm.lifetime.end.p0(i64 24, ptr nonnull %__sp) #24
  br i1 %cmp21.not, label %if.end26, label %return

lpad:                                             ; preds = %_ZNSt3__112basic_stringIcNS_11char_traitsIcEENS_9allocatorIcEEEC2B7v170000Emc.exit
  %5 = landingpad { ptr, i32 }
          cleanup
  %bf.load.i.i74 = load i8, ptr %__sp, align 8
  %bf.clear.i.i75 = and i8 %bf.load.i.i74, 1
  %tobool.i.not.i76 = icmp eq i8 %bf.clear.i.i75, 0
  br i1 %tobool.i.not.i76, label %_ZNSt3__112basic_stringIcNS_11char_traitsIcEENS_9allocatorIcEEED2Ev.exit79, label %if.then.i78

if.then.i78:                                      ; preds = %lpad
  %6 = load ptr, ptr %__data_.i.i.i69, align 8, !tbaa !25
  call void @_ZdlPv(ptr noundef %6) #25
  br label %_ZNSt3__112basic_stringIcNS_11char_traitsIcEENS_9allocatorIcEEED2Ev.exit79

_ZNSt3__112basic_stringIcNS_11char_traitsIcEENS_9allocatorIcEEED2Ev.exit79: ; preds = %lpad, %if.then.i78
  call void @llvm.lifetime.end.p0(i64 24, ptr nonnull %__sp) #24
  resume { ptr, i32 } %5

if.end26:                                         ; preds = %_ZNSt3__112basic_stringIcNS_11char_traitsIcEENS_9allocatorIcEEED2Ev.exit, %if.end15
  %sub.ptr.sub29 = sub i64 %sub.ptr.lhs.cast, %sub.ptr.lhs.cast4
  %cmp30 = icmp sgt i64 %sub.ptr.sub29, 0
  br i1 %cmp30, label %if.then31, label %if.end38

if.then31:                                        ; preds = %if.end26
  %vtable.i80 = load ptr, ptr %__s.coerce, align 8, !tbaa !5
  %vfn.i81 = getelementptr inbounds ptr, ptr %vtable.i80, i64 12
  %7 = load ptr, ptr %vfn.i81, align 8
  %call.i82 = call noundef i64 %7(ptr noundef nonnull align 8 dereferenceable(64) %__s.coerce, ptr noundef %__op, i64 noundef %sub.ptr.sub29)
  %cmp34.not = icmp eq i64 %call.i82, %sub.ptr.sub29
  br i1 %cmp34.not, label %if.end38, label %return

if.end38:                                         ; preds = %if.then31, %if.end26
  store i64 0, ptr %__width_.i, align 8, !tbaa !54
  br label %return

return:                                           ; preds = %if.end38, %_ZNSt3__112basic_stringIcNS_11char_traitsIcEENS_9allocatorIcEEED2Ev.exit, %if.then8, %if.then31, %entry
  %retval.sroa.0.2 = phi ptr [ null, %entry ], [ %__s.coerce, %if.end38 ], [ null, %_ZNSt3__112basic_stringIcNS_11char_traitsIcEENS_9allocatorIcEEED2Ev.exit ], [ null, %if.then8 ], [ null, %if.then31 ]
  ret ptr %retval.sroa.0.2
}

; Function Attrs: nounwind
declare void @_ZNSt3__113basic_ostreamIcNS_11char_traitsIcEEE6sentryD1Ev(ptr noundef nonnull align 8 dereferenceable(16)) unnamed_addr #9

declare void @_ZNSt3__18ios_base33__set_badbit_and_consider_rethrowEv(ptr noundef nonnull align 8 dereferenceable(136)) local_unnamed_addr #0

; Function Attrs: mustprogress noreturn uwtable
define linkonce_odr hidden void @_ZNKSt3__112basic_stringIcNS_11char_traitsIcEENS_9allocatorIcEEE20__throw_length_errorB7v170000Ev(ptr noundef nonnull align 8 dereferenceable(24) %this) local_unnamed_addr #13 comdat align 2 {
entry:
  tail call void @_ZNSt3__120__throw_length_errorB7v170000EPKc(ptr noundef nonnull @.str.23) #28
  unreachable
}

; Function Attrs: inlinehint mustprogress noreturn uwtable
define linkonce_odr hidden void @_ZNSt3__120__throw_length_errorB7v170000EPKc(ptr noundef %__msg) local_unnamed_addr #14 comdat personality ptr @__gxx_personality_v0 {
entry:
  %exception = tail call ptr @__cxa_allocate_exception(i64 16) #24
  invoke void @_ZNSt12length_errorC2B7v170000EPKc(ptr noundef nonnull align 8 dereferenceable(16) %exception, ptr noundef %__msg)
          to label %invoke.cont unwind label %lpad

invoke.cont:                                      ; preds = %entry
  tail call void @__cxa_throw(ptr nonnull %exception, ptr nonnull @_ZTISt12length_error, ptr nonnull @_ZNSt12length_errorD1Ev) #28
  unreachable

lpad:                                             ; preds = %entry
  %0 = landingpad { ptr, i32 }
          cleanup
  tail call void @__cxa_free_exception(ptr %exception) #24
  resume { ptr, i32 } %0
}

declare ptr @__cxa_allocate_exception(i64) local_unnamed_addr

; Function Attrs: uwtable
define linkonce_odr hidden void @_ZNSt12length_errorC2B7v170000EPKc(ptr noundef nonnull align 8 dereferenceable(16) %this, ptr noundef %__s) unnamed_addr #6 comdat align 2 {
entry:
  tail call void @_ZNSt11logic_errorC2EPKc(ptr noundef nonnull align 8 dereferenceable(16) %this, ptr noundef %__s)
  store ptr getelementptr inbounds ({ [5 x ptr] }, ptr @_ZTVSt12length_error, i64 0, inrange i32 0, i64 2), ptr %this, align 8, !tbaa !5
  ret void
}

declare void @__cxa_free_exception(ptr) local_unnamed_addr

; Function Attrs: nounwind
declare void @_ZNSt12length_errorD1Ev(ptr noundef nonnull align 8 dereferenceable(16)) unnamed_addr #9

declare void @__cxa_throw(ptr, ptr, ptr) local_unnamed_addr

declare void @_ZNSt11logic_errorC2EPKc(ptr noundef nonnull align 8 dereferenceable(16), ptr noundef) unnamed_addr #0

; Function Attrs: mustprogress nocallback nofree nosync nounwind willreturn memory(inaccessiblemem: readwrite)
declare void @llvm.assume(i1 noundef) #15

; Function Attrs: inlinehint mustprogress noreturn uwtable
define linkonce_odr hidden void @_ZSt28__throw_bad_array_new_lengthB7v170000v() local_unnamed_addr #14 comdat {
entry:
  %exception = tail call ptr @__cxa_allocate_exception(i64 8) #24
  tail call void @_ZNSt20bad_array_new_lengthC1Ev(ptr noundef nonnull align 8 dereferenceable(8) %exception) #24
  tail call void @__cxa_throw(ptr nonnull %exception, ptr nonnull @_ZTISt20bad_array_new_length, ptr nonnull @_ZNSt20bad_array_new_lengthD1Ev) #28
  unreachable
}

; Function Attrs: nounwind
declare void @_ZNSt20bad_array_new_lengthC1Ev(ptr noundef nonnull align 8 dereferenceable(8)) unnamed_addr #9

; Function Attrs: nounwind
declare void @_ZNSt20bad_array_new_lengthD1Ev(ptr noundef nonnull align 8 dereferenceable(8)) unnamed_addr #9

declare void @_ZNKSt3__18ios_base6getlocEv(ptr sret(%"class.std::__1::locale") align 8, ptr noundef nonnull align 8 dereferenceable(136)) local_unnamed_addr #0

; Function Attrs: nounwind
declare void @_ZNSt3__16localeD1Ev(ptr noundef nonnull align 8 dereferenceable(8)) unnamed_addr #9

declare noundef ptr @_ZNKSt3__16locale9use_facetERNS0_2idE(ptr noundef nonnull align 8 dereferenceable(8), ptr noundef nonnull align 8 dereferenceable(12)) local_unnamed_addr #0

declare void @_ZNSt3__18ios_base5clearEj(ptr noundef nonnull align 8 dereferenceable(136), i32 noundef) local_unnamed_addr #0

; Function Attrs: mustprogress nofree nounwind willreturn memory(argmem: read)
declare i64 @strlen(ptr nocapture noundef) local_unnamed_addr #16

; Function Attrs: uwtable
define linkonce_odr hidden void @_ZNKSt3__115basic_stringbufIcNS_11char_traitsIcEENS_9allocatorIcEEE3strEv(ptr noalias sret(%"class.std::__1::basic_string") align 8 %agg.result, ptr noundef nonnull align 8 dereferenceable(100) %this) local_unnamed_addr #6 comdat align 2 personality ptr @__gxx_personality_v0 {
entry:
  %__mode_ = getelementptr inbounds %"class.std::__1::basic_stringbuf", ptr %this, i64 0, i32 3
  %0 = load i32, ptr %__mode_, align 8, !tbaa !34
  %and = and i32 %0, 16
  %tobool.not = icmp eq i32 %and, 0
  br i1 %tobool.not, label %if.else, label %if.then

if.then:                                          ; preds = %entry
  %__hm_ = getelementptr inbounds %"class.std::__1::basic_stringbuf", ptr %this, i64 0, i32 2
  %1 = load ptr, ptr %__hm_, align 8, !tbaa !42
  %2 = ptrtoint ptr %1 to i64
  %__nout_.i = getelementptr inbounds %"class.std::__1::basic_streambuf", ptr %this, i64 0, i32 6
  %3 = load ptr, ptr %__nout_.i, align 8, !tbaa !43
  %4 = ptrtoint ptr %3 to i64
  %cmp = icmp ult ptr %1, %3
  br i1 %cmp, label %if.then2, label %if.end

if.then2:                                         ; preds = %if.then
  store ptr %3, ptr %__hm_, align 8, !tbaa !42
  br label %if.end

if.end:                                           ; preds = %if.then2, %if.then
  %5 = phi ptr [ %3, %if.then2 ], [ %1, %if.then ]
  %__bout_.i = getelementptr inbounds %"class.std::__1::basic_streambuf", ptr %this, i64 0, i32 5
  %6 = load ptr, ptr %__bout_.i, align 8, !tbaa !46
  %7 = ptrtoint ptr %6 to i64
  %sub.ptr.lhs.cast.i.i.i.i = ptrtoint ptr %5 to i64
  %sub.ptr.rhs.cast.i.i.i.i = ptrtoint ptr %6 to i64
  %sub.ptr.sub.i.i.i.i = sub i64 %sub.ptr.lhs.cast.i.i.i.i, %sub.ptr.rhs.cast.i.i.i.i
  %cmp.i.i = icmp ugt i64 %sub.ptr.sub.i.i.i.i, -17
  br i1 %cmp.i.i, label %if.then.i.i, label %if.end.i.i

if.then.i.i:                                      ; preds = %if.end
  tail call void @_ZNKSt3__112basic_stringIcNS_11char_traitsIcEENS_9allocatorIcEEE20__throw_length_errorB7v170000Ev(ptr noundef nonnull align 8 dereferenceable(24) %agg.result) #28
  unreachable

if.end.i.i:                                       ; preds = %if.end
  %cmp.i.i.i = icmp ult i64 %sub.ptr.sub.i.i.i.i, 23
  br i1 %cmp.i.i.i, label %if.then4.i.i, label %if.else.i.i

if.then4.i.i:                                     ; preds = %if.end.i.i
  %conv.i.i.i = trunc i64 %sub.ptr.sub.i.i.i.i to i8
  %bf.shl.i.i.i = shl nuw nsw i8 %conv.i.i.i, 1
  store i8 %bf.shl.i.i.i, ptr %agg.result, align 8
  %__data_.i.i.i = getelementptr inbounds %"struct.std::__1::basic_string<char>::__short", ptr %agg.result, i64 0, i32 2
  br label %if.end10.i.i

if.else.i.i:                                      ; preds = %if.end.i.i
  %sub.i.i.i = or i64 %sub.ptr.sub.i.i.i.i, 15
  %add.i.i = add i64 %sub.i.i.i, 1
  %call.i.i.i.i.i.i = tail call noalias noundef nonnull ptr @_Znwm(i64 noundef %add.i.i) #26
  %__data_.i27.i.i = getelementptr inbounds %"struct.std::__1::basic_string<char>::__long", ptr %agg.result, i64 0, i32 2
  store ptr %call.i.i.i.i.i.i, ptr %__data_.i27.i.i, align 8, !tbaa !25
  %bf.set6.i.i.i = or i64 %add.i.i, 1
  store i64 %bf.set6.i.i.i, ptr %agg.result, align 8
  %__size_.i.i.i = getelementptr inbounds %"struct.std::__1::basic_string<char>::__long", ptr %agg.result, i64 0, i32 1
  store i64 %sub.ptr.sub.i.i.i.i, ptr %__size_.i.i.i, align 8, !tbaa !25
  br label %if.end10.i.i

if.end10.i.i:                                     ; preds = %if.else.i.i, %if.then4.i.i
  %__p.0.i.i = phi ptr [ %__data_.i.i.i, %if.then4.i.i ], [ %call.i.i.i.i.i.i, %if.else.i.i ]
  %cmp11.not28.i.i = icmp eq ptr %6, %5
  br i1 %cmp11.not28.i.i, label %_ZNSt3__112basic_stringIcNS_11char_traitsIcEENS_9allocatorIcEEEC2B7v170000IPcvEET_S8_RKS4_.exit, label %for.body.i.i.preheader

for.body.i.i.preheader:                           ; preds = %if.end10.i.i
  %__p.0.i.i51 = ptrtoint ptr %__p.0.i.i to i64
  %umax = tail call i64 @llvm.umax.i64(i64 %2, i64 %4)
  %8 = sub i64 %umax, %7
  %min.iters.check = icmp ult i64 %8, 32
  %9 = sub i64 %__p.0.i.i51, %7
  %diff.check = icmp ult i64 %9, 32
  %or.cond = select i1 %min.iters.check, i1 true, i1 %diff.check
  br i1 %or.cond, label %for.body.i.i.preheader83, label %vector.ph

vector.ph:                                        ; preds = %for.body.i.i.preheader
  %n.vec = and i64 %8, -32
  %ind.end = getelementptr i8, ptr %6, i64 %n.vec
  %ind.end52 = getelementptr i8, ptr %__p.0.i.i, i64 %n.vec
  br label %vector.body

vector.body:                                      ; preds = %vector.body, %vector.ph
  %index = phi i64 [ 0, %vector.ph ], [ %index.next, %vector.body ]
  %next.gep = getelementptr i8, ptr %6, i64 %index
  %next.gep55 = getelementptr i8, ptr %__p.0.i.i, i64 %index
  %wide.load = load <16 x i8>, ptr %next.gep, align 1, !tbaa !25
  %10 = getelementptr i8, ptr %next.gep, i64 16
  %wide.load57 = load <16 x i8>, ptr %10, align 1, !tbaa !25
  store <16 x i8> %wide.load, ptr %next.gep55, align 1, !tbaa !25
  %11 = getelementptr i8, ptr %next.gep55, i64 16
  store <16 x i8> %wide.load57, ptr %11, align 1, !tbaa !25
  %index.next = add nuw i64 %index, 32
  %12 = icmp eq i64 %index.next, %n.vec
  br i1 %12, label %middle.block, label %vector.body, !llvm.loop !55

middle.block:                                     ; preds = %vector.body
  %cmp.n = icmp eq i64 %8, %n.vec
  br i1 %cmp.n, label %_ZNSt3__112basic_stringIcNS_11char_traitsIcEENS_9allocatorIcEEEC2B7v170000IPcvEET_S8_RKS4_.exit, label %for.body.i.i.preheader83

for.body.i.i.preheader83:                         ; preds = %for.body.i.i.preheader, %middle.block
  %__first.addr.030.i.i.ph = phi ptr [ %6, %for.body.i.i.preheader ], [ %ind.end, %middle.block ]
  %__p.129.i.i.ph = phi ptr [ %__p.0.i.i, %for.body.i.i.preheader ], [ %ind.end52, %middle.block ]
  br label %for.body.i.i

for.body.i.i:                                     ; preds = %for.body.i.i.preheader83, %for.body.i.i
  %__first.addr.030.i.i = phi ptr [ %incdec.ptr.i.i, %for.body.i.i ], [ %__first.addr.030.i.i.ph, %for.body.i.i.preheader83 ]
  %__p.129.i.i = phi ptr [ %incdec.ptr12.i.i, %for.body.i.i ], [ %__p.129.i.i.ph, %for.body.i.i.preheader83 ]
  %13 = load i8, ptr %__first.addr.030.i.i, align 1, !tbaa !25
  store i8 %13, ptr %__p.129.i.i, align 1, !tbaa !25
  %incdec.ptr.i.i = getelementptr inbounds i8, ptr %__first.addr.030.i.i, i64 1
  %incdec.ptr12.i.i = getelementptr inbounds i8, ptr %__p.129.i.i, i64 1
  %cmp11.not.i.i = icmp eq ptr %incdec.ptr.i.i, %5
  br i1 %cmp11.not.i.i, label %_ZNSt3__112basic_stringIcNS_11char_traitsIcEENS_9allocatorIcEEEC2B7v170000IPcvEET_S8_RKS4_.exit, label %for.body.i.i, !llvm.loop !59

_ZNSt3__112basic_stringIcNS_11char_traitsIcEENS_9allocatorIcEEEC2B7v170000IPcvEET_S8_RKS4_.exit: ; preds = %for.body.i.i, %middle.block, %if.end10.i.i
  %__p.1.lcssa.i.i = phi ptr [ %__p.0.i.i, %if.end10.i.i ], [ %ind.end52, %middle.block ], [ %incdec.ptr12.i.i, %for.body.i.i ]
  store i8 0, ptr %__p.1.lcssa.i.i, align 1, !tbaa !25
  br label %return

if.else:                                          ; preds = %entry
  %and8 = and i32 %0, 8
  %tobool9.not = icmp eq i32 %and8, 0
  br i1 %tobool9.not, label %if.end17, label %if.then10

if.then10:                                        ; preds = %if.else
  %__binp_.i = getelementptr inbounds %"class.std::__1::basic_streambuf", ptr %this, i64 0, i32 2
  %14 = load ptr, ptr %__binp_.i, align 8, !tbaa !45
  %15 = ptrtoint ptr %14 to i64
  %__einp_.i = getelementptr inbounds %"class.std::__1::basic_streambuf", ptr %this, i64 0, i32 4
  %16 = load ptr, ptr %__einp_.i, align 8, !tbaa !47
  %sub.ptr.lhs.cast.i.i.i.i22 = ptrtoint ptr %16 to i64
  %sub.ptr.rhs.cast.i.i.i.i23 = ptrtoint ptr %14 to i64
  %sub.ptr.sub.i.i.i.i24 = sub i64 %sub.ptr.lhs.cast.i.i.i.i22, %sub.ptr.rhs.cast.i.i.i.i23
  %cmp.i.i25 = icmp ugt i64 %sub.ptr.sub.i.i.i.i24, -17
  br i1 %cmp.i.i25, label %if.then.i.i26, label %if.end.i.i28

if.then.i.i26:                                    ; preds = %if.then10
  tail call void @_ZNKSt3__112basic_stringIcNS_11char_traitsIcEENS_9allocatorIcEEE20__throw_length_errorB7v170000Ev(ptr noundef nonnull align 8 dereferenceable(24) %agg.result) #28
  unreachable

if.end.i.i28:                                     ; preds = %if.then10
  %cmp.i.i.i27 = icmp ult i64 %sub.ptr.sub.i.i.i.i24, 23
  br i1 %cmp.i.i.i27, label %if.then4.i.i32, label %if.else.i.i39

if.then4.i.i32:                                   ; preds = %if.end.i.i28
  %conv.i.i.i29 = trunc i64 %sub.ptr.sub.i.i.i.i24 to i8
  %bf.shl.i.i.i30 = shl nuw nsw i8 %conv.i.i.i29, 1
  store i8 %bf.shl.i.i.i30, ptr %agg.result, align 8
  %__data_.i.i.i31 = getelementptr inbounds %"struct.std::__1::basic_string<char>::__short", ptr %agg.result, i64 0, i32 2
  br label %if.end10.i.i42

if.else.i.i39:                                    ; preds = %if.end.i.i28
  %sub.i.i.i33 = or i64 %sub.ptr.sub.i.i.i.i24, 15
  %add.i.i34 = add i64 %sub.i.i.i33, 1
  %call.i.i.i.i.i.i35 = tail call noalias noundef nonnull ptr @_Znwm(i64 noundef %add.i.i34) #26
  %__data_.i27.i.i36 = getelementptr inbounds %"struct.std::__1::basic_string<char>::__long", ptr %agg.result, i64 0, i32 2
  store ptr %call.i.i.i.i.i.i35, ptr %__data_.i27.i.i36, align 8, !tbaa !25
  %bf.set6.i.i.i37 = or i64 %add.i.i34, 1
  store i64 %bf.set6.i.i.i37, ptr %agg.result, align 8
  %__size_.i.i.i38 = getelementptr inbounds %"struct.std::__1::basic_string<char>::__long", ptr %agg.result, i64 0, i32 1
  store i64 %sub.ptr.sub.i.i.i.i24, ptr %__size_.i.i.i38, align 8, !tbaa !25
  br label %if.end10.i.i42

if.end10.i.i42:                                   ; preds = %if.else.i.i39, %if.then4.i.i32
  %__p.0.i.i40 = phi ptr [ %__data_.i.i.i31, %if.then4.i.i32 ], [ %call.i.i.i.i.i.i35, %if.else.i.i39 ]
  %cmp11.not28.i.i41 = icmp eq ptr %14, %16
  br i1 %cmp11.not28.i.i41, label %_ZNSt3__112basic_stringIcNS_11char_traitsIcEENS_9allocatorIcEEEC2B7v170000IPcvEET_S8_RKS4_.exit50, label %for.body.i.i48.preheader

for.body.i.i48.preheader:                         ; preds = %if.end10.i.i42
  %__p.0.i.i4059 = ptrtoint ptr %__p.0.i.i40 to i64
  %17 = sub i64 %sub.ptr.lhs.cast.i.i.i.i22, %15
  %min.iters.check63 = icmp ult i64 %17, 32
  %18 = sub i64 %__p.0.i.i4059, %15
  %diff.check60 = icmp ult i64 %18, 32
  %or.cond81 = select i1 %min.iters.check63, i1 true, i1 %diff.check60
  br i1 %or.cond81, label %for.body.i.i48.preheader82, label %vector.ph64

vector.ph64:                                      ; preds = %for.body.i.i48.preheader
  %n.vec66 = and i64 %17, -32
  %ind.end67 = getelementptr i8, ptr %14, i64 %n.vec66
  %ind.end69 = getelementptr i8, ptr %__p.0.i.i40, i64 %n.vec66
  br label %vector.body72

vector.body72:                                    ; preds = %vector.body72, %vector.ph64
  %index73 = phi i64 [ 0, %vector.ph64 ], [ %index.next80, %vector.body72 ]
  %next.gep74 = getelementptr i8, ptr %14, i64 %index73
  %next.gep76 = getelementptr i8, ptr %__p.0.i.i40, i64 %index73
  %wide.load78 = load <16 x i8>, ptr %next.gep74, align 1, !tbaa !25
  %19 = getelementptr i8, ptr %next.gep74, i64 16
  %wide.load79 = load <16 x i8>, ptr %19, align 1, !tbaa !25
  store <16 x i8> %wide.load78, ptr %next.gep76, align 1, !tbaa !25
  %20 = getelementptr i8, ptr %next.gep76, i64 16
  store <16 x i8> %wide.load79, ptr %20, align 1, !tbaa !25
  %index.next80 = add nuw i64 %index73, 32
  %21 = icmp eq i64 %index.next80, %n.vec66
  br i1 %21, label %middle.block61, label %vector.body72, !llvm.loop !60

middle.block61:                                   ; preds = %vector.body72
  %cmp.n71 = icmp eq i64 %17, %n.vec66
  br i1 %cmp.n71, label %_ZNSt3__112basic_stringIcNS_11char_traitsIcEENS_9allocatorIcEEEC2B7v170000IPcvEET_S8_RKS4_.exit50, label %for.body.i.i48.preheader82

for.body.i.i48.preheader82:                       ; preds = %for.body.i.i48.preheader, %middle.block61
  %__first.addr.030.i.i43.ph = phi ptr [ %14, %for.body.i.i48.preheader ], [ %ind.end67, %middle.block61 ]
  %__p.129.i.i44.ph = phi ptr [ %__p.0.i.i40, %for.body.i.i48.preheader ], [ %ind.end69, %middle.block61 ]
  %__first.addr.030.i.i43.ph84 = ptrtoint ptr %__first.addr.030.i.i43.ph to i64
  %22 = sub i64 %sub.ptr.lhs.cast.i.i.i.i22, %__first.addr.030.i.i43.ph84
  %23 = xor i64 %__first.addr.030.i.i43.ph84, -1
  %24 = add i64 %23, %sub.ptr.lhs.cast.i.i.i.i22
  %xtraiter = and i64 %22, 7
  %lcmp.mod.not = icmp eq i64 %xtraiter, 0
  br i1 %lcmp.mod.not, label %for.body.i.i48.prol.loopexit, label %for.body.i.i48.prol

for.body.i.i48.prol:                              ; preds = %for.body.i.i48.preheader82, %for.body.i.i48.prol
  %__first.addr.030.i.i43.prol = phi ptr [ %incdec.ptr.i.i45.prol, %for.body.i.i48.prol ], [ %__first.addr.030.i.i43.ph, %for.body.i.i48.preheader82 ]
  %__p.129.i.i44.prol = phi ptr [ %incdec.ptr12.i.i46.prol, %for.body.i.i48.prol ], [ %__p.129.i.i44.ph, %for.body.i.i48.preheader82 ]
  %prol.iter = phi i64 [ %prol.iter.next, %for.body.i.i48.prol ], [ 0, %for.body.i.i48.preheader82 ]
  %25 = load i8, ptr %__first.addr.030.i.i43.prol, align 1, !tbaa !25
  store i8 %25, ptr %__p.129.i.i44.prol, align 1, !tbaa !25
  %incdec.ptr.i.i45.prol = getelementptr inbounds i8, ptr %__first.addr.030.i.i43.prol, i64 1
  %incdec.ptr12.i.i46.prol = getelementptr inbounds i8, ptr %__p.129.i.i44.prol, i64 1
  %prol.iter.next = add i64 %prol.iter, 1
  %prol.iter.cmp.not = icmp eq i64 %prol.iter.next, %xtraiter
  br i1 %prol.iter.cmp.not, label %for.body.i.i48.prol.loopexit, label %for.body.i.i48.prol, !llvm.loop !61

for.body.i.i48.prol.loopexit:                     ; preds = %for.body.i.i48.prol, %for.body.i.i48.preheader82
  %incdec.ptr12.i.i46.lcssa.unr = phi ptr [ undef, %for.body.i.i48.preheader82 ], [ %incdec.ptr12.i.i46.prol, %for.body.i.i48.prol ]
  %__first.addr.030.i.i43.unr = phi ptr [ %__first.addr.030.i.i43.ph, %for.body.i.i48.preheader82 ], [ %incdec.ptr.i.i45.prol, %for.body.i.i48.prol ]
  %__p.129.i.i44.unr = phi ptr [ %__p.129.i.i44.ph, %for.body.i.i48.preheader82 ], [ %incdec.ptr12.i.i46.prol, %for.body.i.i48.prol ]
  %26 = icmp ult i64 %24, 7
  br i1 %26, label %_ZNSt3__112basic_stringIcNS_11char_traitsIcEENS_9allocatorIcEEEC2B7v170000IPcvEET_S8_RKS4_.exit50, label %for.body.i.i48

for.body.i.i48:                                   ; preds = %for.body.i.i48.prol.loopexit, %for.body.i.i48
  %__first.addr.030.i.i43 = phi ptr [ %incdec.ptr.i.i45.7, %for.body.i.i48 ], [ %__first.addr.030.i.i43.unr, %for.body.i.i48.prol.loopexit ]
  %__p.129.i.i44 = phi ptr [ %incdec.ptr12.i.i46.7, %for.body.i.i48 ], [ %__p.129.i.i44.unr, %for.body.i.i48.prol.loopexit ]
  %27 = load i8, ptr %__first.addr.030.i.i43, align 1, !tbaa !25
  store i8 %27, ptr %__p.129.i.i44, align 1, !tbaa !25
  %incdec.ptr.i.i45 = getelementptr inbounds i8, ptr %__first.addr.030.i.i43, i64 1
  %incdec.ptr12.i.i46 = getelementptr inbounds i8, ptr %__p.129.i.i44, i64 1
  %28 = load i8, ptr %incdec.ptr.i.i45, align 1, !tbaa !25
  store i8 %28, ptr %incdec.ptr12.i.i46, align 1, !tbaa !25
  %incdec.ptr.i.i45.1 = getelementptr inbounds i8, ptr %__first.addr.030.i.i43, i64 2
  %incdec.ptr12.i.i46.1 = getelementptr inbounds i8, ptr %__p.129.i.i44, i64 2
  %29 = load i8, ptr %incdec.ptr.i.i45.1, align 1, !tbaa !25
  store i8 %29, ptr %incdec.ptr12.i.i46.1, align 1, !tbaa !25
  %incdec.ptr.i.i45.2 = getelementptr inbounds i8, ptr %__first.addr.030.i.i43, i64 3
  %incdec.ptr12.i.i46.2 = getelementptr inbounds i8, ptr %__p.129.i.i44, i64 3
  %30 = load i8, ptr %incdec.ptr.i.i45.2, align 1, !tbaa !25
  store i8 %30, ptr %incdec.ptr12.i.i46.2, align 1, !tbaa !25
  %incdec.ptr.i.i45.3 = getelementptr inbounds i8, ptr %__first.addr.030.i.i43, i64 4
  %incdec.ptr12.i.i46.3 = getelementptr inbounds i8, ptr %__p.129.i.i44, i64 4
  %31 = load i8, ptr %incdec.ptr.i.i45.3, align 1, !tbaa !25
  store i8 %31, ptr %incdec.ptr12.i.i46.3, align 1, !tbaa !25
  %incdec.ptr.i.i45.4 = getelementptr inbounds i8, ptr %__first.addr.030.i.i43, i64 5
  %incdec.ptr12.i.i46.4 = getelementptr inbounds i8, ptr %__p.129.i.i44, i64 5
  %32 = load i8, ptr %incdec.ptr.i.i45.4, align 1, !tbaa !25
  store i8 %32, ptr %incdec.ptr12.i.i46.4, align 1, !tbaa !25
  %incdec.ptr.i.i45.5 = getelementptr inbounds i8, ptr %__first.addr.030.i.i43, i64 6
  %incdec.ptr12.i.i46.5 = getelementptr inbounds i8, ptr %__p.129.i.i44, i64 6
  %33 = load i8, ptr %incdec.ptr.i.i45.5, align 1, !tbaa !25
  store i8 %33, ptr %incdec.ptr12.i.i46.5, align 1, !tbaa !25
  %incdec.ptr.i.i45.6 = getelementptr inbounds i8, ptr %__first.addr.030.i.i43, i64 7
  %incdec.ptr12.i.i46.6 = getelementptr inbounds i8, ptr %__p.129.i.i44, i64 7
  %34 = load i8, ptr %incdec.ptr.i.i45.6, align 1, !tbaa !25
  store i8 %34, ptr %incdec.ptr12.i.i46.6, align 1, !tbaa !25
  %incdec.ptr.i.i45.7 = getelementptr inbounds i8, ptr %__first.addr.030.i.i43, i64 8
  %incdec.ptr12.i.i46.7 = getelementptr inbounds i8, ptr %__p.129.i.i44, i64 8
  %cmp11.not.i.i47.7 = icmp eq ptr %incdec.ptr.i.i45.7, %16
  br i1 %cmp11.not.i.i47.7, label %_ZNSt3__112basic_stringIcNS_11char_traitsIcEENS_9allocatorIcEEEC2B7v170000IPcvEET_S8_RKS4_.exit50, label %for.body.i.i48, !llvm.loop !63

_ZNSt3__112basic_stringIcNS_11char_traitsIcEENS_9allocatorIcEEEC2B7v170000IPcvEET_S8_RKS4_.exit50: ; preds = %for.body.i.i48.prol.loopexit, %for.body.i.i48, %middle.block61, %if.end10.i.i42
  %__p.1.lcssa.i.i49 = phi ptr [ %__p.0.i.i40, %if.end10.i.i42 ], [ %ind.end69, %middle.block61 ], [ %incdec.ptr12.i.i46.lcssa.unr, %for.body.i.i48.prol.loopexit ], [ %incdec.ptr12.i.i46.7, %for.body.i.i48 ]
  store i8 0, ptr %__p.1.lcssa.i.i49, align 1, !tbaa !25
  br label %return

if.end17:                                         ; preds = %if.else
  tail call void @llvm.memset.p0.i64(ptr noundef nonnull align 8 dereferenceable(24) %agg.result, i8 0, i64 24, i1 false)
  br label %return

return:                                           ; preds = %if.end17, %_ZNSt3__112basic_stringIcNS_11char_traitsIcEENS_9allocatorIcEEEC2B7v170000IPcvEET_S8_RKS4_.exit50, %_ZNSt3__112basic_stringIcNS_11char_traitsIcEENS_9allocatorIcEEEC2B7v170000IPcvEET_S8_RKS4_.exit
  ret void
}

; Function Attrs: inlinehint nounwind uwtable
define internal void @_ZN7testing8internal15TestFactoryImplIN12_GLOBAL__N_132PerfCountersTest_OneCounter_TestEED0Ev(ptr noundef nonnull align 8 dereferenceable(8) %this) unnamed_addr #5 align 2 {
entry:
  tail call void @_ZdlPv(ptr noundef nonnull %this) #25
  ret void
}

; Function Attrs: uwtable
define internal noundef nonnull ptr @_ZN7testing8internal15TestFactoryImplIN12_GLOBAL__N_132PerfCountersTest_OneCounter_TestEE10CreateTestEv(ptr nocapture nonnull readnone align 8 %this) unnamed_addr #6 align 2 personality ptr @__gxx_personality_v0 {
entry:
  %call = tail call noalias noundef nonnull dereferenceable(16) ptr @_Znwm(i64 noundef 16) #26
  invoke void @_ZN7testing4TestC2Ev(ptr noundef nonnull align 8 dereferenceable(16) %call)
          to label %invoke.cont unwind label %lpad

invoke.cont:                                      ; preds = %entry
  store ptr getelementptr inbounds ({ [8 x ptr] }, ptr @_ZTVN12_GLOBAL__N_132PerfCountersTest_OneCounter_TestE, i64 0, inrange i32 0, i64 2), ptr %call, align 8, !tbaa !5
  ret ptr %call

lpad:                                             ; preds = %entry
  %0 = landingpad { ptr, i32 }
          cleanup
  tail call void @_ZdlPv(ptr noundef nonnull %call) #25
  resume { ptr, i32 } %0
}

; Function Attrs: nounwind uwtable
define internal void @_ZN12_GLOBAL__N_132PerfCountersTest_OneCounter_TestD0Ev(ptr noundef nonnull align 8 dereferenceable(16) %this) unnamed_addr #7 align 2 {
entry:
  tail call void @_ZN7testing4TestD2Ev(ptr noundef nonnull align 8 dereferenceable(16) %this) #24
  tail call void @_ZdlPv(ptr noundef nonnull %this) #25
  ret void
}

; Function Attrs: uwtable
define internal void @_ZN12_GLOBAL__N_132PerfCountersTest_OneCounter_Test8TestBodyEv(ptr nocapture nonnull readnone align 8 %this) unnamed_addr #6 align 2 personality ptr @__gxx_personality_v0 {
entry:
  %__first2.addr.i.i.i = alloca ptr, align 8
  %__destruct_first.i.i.i = alloca ptr, align 8
  %__guard.i.i.i = alloca %"struct.std::__1::__exception_guard_exceptions.59", align 8
  %__guard.i = alloca %"struct.std::__1::__exception_guard_exceptions", align 8
  %ref.tmp = alloca %"class.testing::Message", align 8
  %ref.tmp2 = alloca %"class.testing::internal::AssertHelper", align 8
  %gtest_ar_ = alloca %"class.testing::AssertionResult", align 8
  %ref.tmp13 = alloca %"class.testing::Message", align 8
  %ref.tmp16 = alloca %"class.testing::internal::AssertHelper", align 8
  %ref.tmp17 = alloca %"class.std::__1::basic_string", align 8
  %gtest_ar_34 = alloca %"class.testing::AssertionResult", align 8
  %ref.tmp36 = alloca %"class.benchmark::internal::PerfCounters", align 8
  %ref.tmp37 = alloca %"class.std::__1::vector.51", align 8
  %ref.tmp38 = alloca [1 x %"class.std::__1::basic_string"], align 8
  %ref.tmp73 = alloca %"class.testing::Message", align 8
  %ref.tmp76 = alloca %"class.testing::internal::AssertHelper", align 8
  %ref.tmp77 = alloca %"class.std::__1::basic_string", align 8
  %0 = load i8, ptr @_ZN9benchmark8internal12PerfCounters10kSupportedE, align 1, !tbaa !8, !range !11, !noundef !17
  %tobool.not = icmp eq i8 %0, 0
  br i1 %tobool.not, label %if.then, label %if.end

if.then:                                          ; preds = %entry
  call void @llvm.lifetime.start.p0(i64 8, ptr nonnull %ref.tmp) #24
  call void @_ZN7testing7MessageC1Ev(ptr noundef nonnull align 8 dereferenceable(8) %ref.tmp)
  %1 = load ptr, ptr %ref.tmp, align 8, !tbaa !24
  %add.ptr.i = getelementptr inbounds i8, ptr %1, i64 16
  %call1.i.i110 = invoke noundef nonnull align 8 dereferenceable(8) ptr @_ZNSt3__124__put_character_sequenceB7v170000IcNS_11char_traitsIcEEEERNS_13basic_ostreamIT_T0_EES7_PKS4_m(ptr noundef nonnull align 8 dereferenceable(8) %add.ptr.i, ptr noundef nonnull @.str.25, i64 noundef 36)
          to label %invoke.cont unwind label %lpad

invoke.cont:                                      ; preds = %if.then
  call void @llvm.lifetime.start.p0(i64 8, ptr nonnull %ref.tmp2) #24
  invoke void @_ZN7testing8internal12AssertHelperC1ENS_14TestPartResult4TypeEPKciS5_(ptr noundef nonnull align 8 dereferenceable(8) %ref.tmp2, i32 noundef 3, ptr noundef nonnull @.str.4, i32 noundef 28, ptr noundef nonnull @.str.24)
          to label %invoke.cont4 unwind label %lpad3

invoke.cont4:                                     ; preds = %invoke.cont
  invoke void @_ZNK7testing8internal12AssertHelperaSERKNS_7MessageE(ptr noundef nonnull align 8 dereferenceable(8) %ref.tmp2, ptr noundef nonnull align 8 dereferenceable(8) %ref.tmp)
          to label %invoke.cont6 unwind label %lpad5

invoke.cont6:                                     ; preds = %invoke.cont4
  call void @_ZN7testing8internal12AssertHelperD1Ev(ptr noundef nonnull align 8 dereferenceable(8) %ref.tmp2) #24
  call void @llvm.lifetime.end.p0(i64 8, ptr nonnull %ref.tmp2) #24
  %2 = load ptr, ptr %ref.tmp, align 8, !tbaa !24
  store ptr null, ptr %ref.tmp, align 8, !tbaa !24
  %tobool.not.i.i.i = icmp eq ptr %2, null
  br i1 %tobool.not.i.i.i, label %_ZN7testing7MessageD2Ev.exit, label %_ZNKSt3__114default_deleteINS_18basic_stringstreamIcNS_11char_traitsIcEENS_9allocatorIcEEEEEclB7v170000EPS6_.exit.i.i.i

_ZNKSt3__114default_deleteINS_18basic_stringstreamIcNS_11char_traitsIcEENS_9allocatorIcEEEEEclB7v170000EPS6_.exit.i.i.i: ; preds = %invoke.cont6
  %vtable.i.i.i.i = load ptr, ptr %2, align 8, !tbaa !5
  %vfn.i.i.i.i = getelementptr inbounds ptr, ptr %vtable.i.i.i.i, i64 1
  %3 = load ptr, ptr %vfn.i.i.i.i, align 8
  call void %3(ptr noundef nonnull align 8 dereferenceable(128) %2) #24
  br label %_ZN7testing7MessageD2Ev.exit

_ZN7testing7MessageD2Ev.exit:                     ; preds = %invoke.cont6, %_ZNKSt3__114default_deleteINS_18basic_stringstreamIcNS_11char_traitsIcEENS_9allocatorIcEEEEEclB7v170000EPS6_.exit.i.i.i
  call void @llvm.lifetime.end.p0(i64 8, ptr nonnull %ref.tmp) #24
  br label %return

lpad:                                             ; preds = %if.then
  %4 = landingpad { ptr, i32 }
          cleanup
  br label %ehcleanup7

lpad3:                                            ; preds = %invoke.cont
  %5 = landingpad { ptr, i32 }
          cleanup
  br label %ehcleanup

lpad5:                                            ; preds = %invoke.cont4
  %6 = landingpad { ptr, i32 }
          cleanup
  call void @_ZN7testing8internal12AssertHelperD1Ev(ptr noundef nonnull align 8 dereferenceable(8) %ref.tmp2) #24
  br label %ehcleanup

ehcleanup:                                        ; preds = %lpad5, %lpad3
  %.pn = phi { ptr, i32 } [ %6, %lpad5 ], [ %5, %lpad3 ]
  call void @llvm.lifetime.end.p0(i64 8, ptr nonnull %ref.tmp2) #24
  br label %ehcleanup7

ehcleanup7:                                       ; preds = %ehcleanup, %lpad
  %.pn.pn = phi { ptr, i32 } [ %.pn, %ehcleanup ], [ %4, %lpad ]
  %7 = load ptr, ptr %ref.tmp, align 8, !tbaa !24
  store ptr null, ptr %ref.tmp, align 8, !tbaa !24
  %tobool.not.i.i.i111 = icmp eq ptr %7, null
  br i1 %tobool.not.i.i.i111, label %_ZN7testing7MessageD2Ev.exit115, label %_ZNKSt3__114default_deleteINS_18basic_stringstreamIcNS_11char_traitsIcEENS_9allocatorIcEEEEEclB7v170000EPS6_.exit.i.i.i114

_ZNKSt3__114default_deleteINS_18basic_stringstreamIcNS_11char_traitsIcEENS_9allocatorIcEEEEEclB7v170000EPS6_.exit.i.i.i114: ; preds = %ehcleanup7
  %vtable.i.i.i.i112 = load ptr, ptr %7, align 8, !tbaa !5
  %vfn.i.i.i.i113 = getelementptr inbounds ptr, ptr %vtable.i.i.i.i112, i64 1
  %8 = load ptr, ptr %vfn.i.i.i.i113, align 8
  call void %8(ptr noundef nonnull align 8 dereferenceable(128) %7) #24
  br label %_ZN7testing7MessageD2Ev.exit115

_ZN7testing7MessageD2Ev.exit115:                  ; preds = %ehcleanup7, %_ZNKSt3__114default_deleteINS_18basic_stringstreamIcNS_11char_traitsIcEENS_9allocatorIcEEEEEclB7v170000EPS6_.exit.i.i.i114
  call void @llvm.lifetime.end.p0(i64 8, ptr nonnull %ref.tmp) #24
  br label %eh.resume

if.end:                                           ; preds = %entry
  call void @llvm.lifetime.start.p0(i64 16, ptr nonnull %gtest_ar_) #24
  %call10 = tail call noundef zeroext i1 @_ZN9benchmark8internal12PerfCounters10InitializeEv()
  %frombool = zext i1 %call10 to i8
  store i8 %frombool, ptr %gtest_ar_, align 8, !tbaa !18
  %message_.i = getelementptr inbounds %"class.testing::AssertionResult", ptr %gtest_ar_, i64 0, i32 1
  store ptr null, ptr %message_.i, align 8, !tbaa !64
  br i1 %call10, label %_ZN7testing15AssertionResultD2Ev.exit, label %if.else

if.else:                                          ; preds = %if.end
  call void @llvm.lifetime.start.p0(i64 8, ptr nonnull %ref.tmp13) #24
  invoke void @_ZN7testing7MessageC1Ev(ptr noundef nonnull align 8 dereferenceable(8) %ref.tmp13)
          to label %invoke.cont15 unwind label %lpad14

invoke.cont15:                                    ; preds = %if.else
  call void @llvm.lifetime.start.p0(i64 8, ptr nonnull %ref.tmp16) #24
  call void @llvm.lifetime.start.p0(i64 24, ptr nonnull %ref.tmp17) #24
  invoke void @_ZN7testing8internal30GetBoolAssertionFailureMessageERKNS_15AssertionResultEPKcS5_S5_(ptr nonnull sret(%"class.std::__1::basic_string") align 8 %ref.tmp17, ptr noundef nonnull align 8 dereferenceable(16) %gtest_ar_, ptr noundef nonnull @.str.19, ptr noundef nonnull @.str.22, ptr noundef nonnull @.str.21)
          to label %invoke.cont19 unwind label %lpad18

invoke.cont19:                                    ; preds = %invoke.cont15
  %bf.load.i.i.i.i = load i8, ptr %ref.tmp17, align 8
  %bf.clear.i.i.i.i = and i8 %bf.load.i.i.i.i, 1
  %tobool.i.not.i.i.i = icmp eq i8 %bf.clear.i.i.i.i, 0
  %__data_.i.i.i.i = getelementptr inbounds %"struct.std::__1::basic_string<char>::__long", ptr %ref.tmp17, i64 0, i32 2
  %9 = load ptr, ptr %__data_.i.i.i.i, align 8
  %__data_.i4.i.i.i = getelementptr inbounds %"struct.std::__1::basic_string<char>::__short", ptr %ref.tmp17, i64 0, i32 2
  %cond.i.i.i = select i1 %tobool.i.not.i.i.i, ptr %__data_.i4.i.i.i, ptr %9
  invoke void @_ZN7testing8internal12AssertHelperC1ENS_14TestPartResult4TypeEPKciS5_(ptr noundef nonnull align 8 dereferenceable(8) %ref.tmp16, i32 noundef 1, ptr noundef nonnull @.str.4, i32 noundef 30, ptr noundef %cond.i.i.i)
          to label %invoke.cont22 unwind label %lpad21

invoke.cont22:                                    ; preds = %invoke.cont19
  invoke void @_ZNK7testing8internal12AssertHelperaSERKNS_7MessageE(ptr noundef nonnull align 8 dereferenceable(8) %ref.tmp16, ptr noundef nonnull align 8 dereferenceable(8) %ref.tmp13)
          to label %invoke.cont24 unwind label %lpad23

invoke.cont24:                                    ; preds = %invoke.cont22
  call void @_ZN7testing8internal12AssertHelperD1Ev(ptr noundef nonnull align 8 dereferenceable(8) %ref.tmp16) #24
  %bf.load.i.i = load i8, ptr %ref.tmp17, align 8
  %bf.clear.i.i = and i8 %bf.load.i.i, 1
  %tobool.i.not.i = icmp eq i8 %bf.clear.i.i, 0
  br i1 %tobool.i.not.i, label %_ZNSt3__112basic_stringIcNS_11char_traitsIcEENS_9allocatorIcEEED2Ev.exit, label %if.then.i

if.then.i:                                        ; preds = %invoke.cont24
  %10 = load ptr, ptr %__data_.i.i.i.i, align 8, !tbaa !25
  call void @_ZdlPv(ptr noundef %10) #25
  br label %_ZNSt3__112basic_stringIcNS_11char_traitsIcEENS_9allocatorIcEEED2Ev.exit

_ZNSt3__112basic_stringIcNS_11char_traitsIcEENS_9allocatorIcEEED2Ev.exit: ; preds = %invoke.cont24, %if.then.i
  call void @llvm.lifetime.end.p0(i64 24, ptr nonnull %ref.tmp17) #24
  call void @llvm.lifetime.end.p0(i64 8, ptr nonnull %ref.tmp16) #24
  %11 = load ptr, ptr %ref.tmp13, align 8, !tbaa !24
  store ptr null, ptr %ref.tmp13, align 8, !tbaa !24
  %tobool.not.i.i.i116 = icmp eq ptr %11, null
  br i1 %tobool.not.i.i.i116, label %if.end31, label %_ZNKSt3__114default_deleteINS_18basic_stringstreamIcNS_11char_traitsIcEENS_9allocatorIcEEEEEclB7v170000EPS6_.exit.i.i.i119

_ZNKSt3__114default_deleteINS_18basic_stringstreamIcNS_11char_traitsIcEENS_9allocatorIcEEEEEclB7v170000EPS6_.exit.i.i.i119: ; preds = %_ZNSt3__112basic_stringIcNS_11char_traitsIcEENS_9allocatorIcEEED2Ev.exit
  %vtable.i.i.i.i117 = load ptr, ptr %11, align 8, !tbaa !5
  %vfn.i.i.i.i118 = getelementptr inbounds ptr, ptr %vtable.i.i.i.i117, i64 1
  %12 = load ptr, ptr %vfn.i.i.i.i118, align 8
  call void %12(ptr noundef nonnull align 8 dereferenceable(128) %11) #24
  br label %if.end31

lpad14:                                           ; preds = %if.else
  %13 = landingpad { ptr, i32 }
          cleanup
  br label %ehcleanup30

lpad18:                                           ; preds = %invoke.cont15
  %14 = landingpad { ptr, i32 }
          cleanup
  br label %ehcleanup27

lpad21:                                           ; preds = %invoke.cont19
  %15 = landingpad { ptr, i32 }
          cleanup
  br label %ehcleanup26

lpad23:                                           ; preds = %invoke.cont22
  %16 = landingpad { ptr, i32 }
          cleanup
  call void @_ZN7testing8internal12AssertHelperD1Ev(ptr noundef nonnull align 8 dereferenceable(8) %ref.tmp16) #24
  br label %ehcleanup26

ehcleanup26:                                      ; preds = %lpad23, %lpad21
  %.pn97 = phi { ptr, i32 } [ %16, %lpad23 ], [ %15, %lpad21 ]
  %bf.load.i.i121 = load i8, ptr %ref.tmp17, align 8
  %bf.clear.i.i122 = and i8 %bf.load.i.i121, 1
  %tobool.i.not.i123 = icmp eq i8 %bf.clear.i.i122, 0
  br i1 %tobool.i.not.i123, label %ehcleanup27, label %if.then.i125

if.then.i125:                                     ; preds = %ehcleanup26
  %17 = load ptr, ptr %__data_.i.i.i.i, align 8, !tbaa !25
  call void @_ZdlPv(ptr noundef %17) #25
  br label %ehcleanup27

ehcleanup27:                                      ; preds = %if.then.i125, %ehcleanup26, %lpad18
  %.pn97.pn = phi { ptr, i32 } [ %14, %lpad18 ], [ %.pn97, %ehcleanup26 ], [ %.pn97, %if.then.i125 ]
  call void @llvm.lifetime.end.p0(i64 24, ptr nonnull %ref.tmp17) #24
  call void @llvm.lifetime.end.p0(i64 8, ptr nonnull %ref.tmp16) #24
  %18 = load ptr, ptr %ref.tmp13, align 8, !tbaa !24
  store ptr null, ptr %ref.tmp13, align 8, !tbaa !24
  %tobool.not.i.i.i127 = icmp eq ptr %18, null
  br i1 %tobool.not.i.i.i127, label %ehcleanup30, label %_ZNKSt3__114default_deleteINS_18basic_stringstreamIcNS_11char_traitsIcEENS_9allocatorIcEEEEEclB7v170000EPS6_.exit.i.i.i130

_ZNKSt3__114default_deleteINS_18basic_stringstreamIcNS_11char_traitsIcEENS_9allocatorIcEEEEEclB7v170000EPS6_.exit.i.i.i130: ; preds = %ehcleanup27
  %vtable.i.i.i.i128 = load ptr, ptr %18, align 8, !tbaa !5
  %vfn.i.i.i.i129 = getelementptr inbounds ptr, ptr %vtable.i.i.i.i128, i64 1
  %19 = load ptr, ptr %vfn.i.i.i.i129, align 8
  call void %19(ptr noundef nonnull align 8 dereferenceable(128) %18) #24
  br label %ehcleanup30

ehcleanup30:                                      ; preds = %_ZNKSt3__114default_deleteINS_18basic_stringstreamIcNS_11char_traitsIcEENS_9allocatorIcEEEEEclB7v170000EPS6_.exit.i.i.i130, %ehcleanup27, %lpad14
  %.pn97.pn.pn = phi { ptr, i32 } [ %13, %lpad14 ], [ %.pn97.pn, %ehcleanup27 ], [ %.pn97.pn, %_ZNKSt3__114default_deleteINS_18basic_stringstreamIcNS_11char_traitsIcEENS_9allocatorIcEEEEEclB7v170000EPS6_.exit.i.i.i130 ]
  call void @llvm.lifetime.end.p0(i64 8, ptr nonnull %ref.tmp13) #24
  call void @_ZN7testing15AssertionResultD2Ev(ptr noundef nonnull align 8 dereferenceable(16) %gtest_ar_) #24
  call void @llvm.lifetime.end.p0(i64 16, ptr nonnull %gtest_ar_) #24
  br label %eh.resume

if.end31:                                         ; preds = %_ZNKSt3__114default_deleteINS_18basic_stringstreamIcNS_11char_traitsIcEENS_9allocatorIcEEEEEclB7v170000EPS6_.exit.i.i.i119, %_ZNSt3__112basic_stringIcNS_11char_traitsIcEENS_9allocatorIcEEED2Ev.exit
  call void @llvm.lifetime.end.p0(i64 8, ptr nonnull %ref.tmp13) #24
  %.pr = load ptr, ptr %message_.i, align 8, !tbaa !24
  store ptr null, ptr %message_.i, align 8, !tbaa !24
  %tobool.not.i.i.i133 = icmp eq ptr %.pr, null
  br i1 %tobool.not.i.i.i133, label %_ZN7testing15AssertionResultD2Ev.exit, label %delete.notnull.i.i.i.i

delete.notnull.i.i.i.i:                           ; preds = %if.end31
  %bf.load.i.i.i.i.i.i = load i8, ptr %.pr, align 8
  %bf.clear.i.i.i.i.i.i = and i8 %bf.load.i.i.i.i.i.i, 1
  %tobool.i.not.i.i.i.i.i = icmp eq i8 %bf.clear.i.i.i.i.i.i, 0
  br i1 %tobool.i.not.i.i.i.i.i, label %_ZNKSt3__114default_deleteINS_12basic_stringIcNS_11char_traitsIcEENS_9allocatorIcEEEEEclB7v170000EPS6_.exit.i.i.i, label %if.then.i.i.i.i.i

if.then.i.i.i.i.i:                                ; preds = %delete.notnull.i.i.i.i
  %__data_.i.i.i.i.i.i = getelementptr inbounds %"struct.std::__1::basic_string<char>::__long", ptr %.pr, i64 0, i32 2
  %20 = load ptr, ptr %__data_.i.i.i.i.i.i, align 8, !tbaa !25
  call void @_ZdlPv(ptr noundef %20) #25
  br label %_ZNKSt3__114default_deleteINS_12basic_stringIcNS_11char_traitsIcEENS_9allocatorIcEEEEEclB7v170000EPS6_.exit.i.i.i

_ZNKSt3__114default_deleteINS_12basic_stringIcNS_11char_traitsIcEENS_9allocatorIcEEEEEclB7v170000EPS6_.exit.i.i.i: ; preds = %if.then.i.i.i.i.i, %delete.notnull.i.i.i.i
  call void @_ZdlPv(ptr noundef nonnull %.pr) #25
  br label %_ZN7testing15AssertionResultD2Ev.exit

_ZN7testing15AssertionResultD2Ev.exit:            ; preds = %if.end, %if.end31, %_ZNKSt3__114default_deleteINS_12basic_stringIcNS_11char_traitsIcEENS_9allocatorIcEEEEEclB7v170000EPS6_.exit.i.i.i
  call void @llvm.lifetime.end.p0(i64 16, ptr nonnull %gtest_ar_) #24
  call void @llvm.lifetime.start.p0(i64 16, ptr nonnull %gtest_ar_34) #24
  call void @llvm.lifetime.start.p0(i64 48, ptr nonnull %ref.tmp36) #24
  call void @llvm.lifetime.start.p0(i64 24, ptr nonnull %ref.tmp37) #24
  call void @llvm.lifetime.start.p0(i64 24, ptr nonnull %ref.tmp38) #24
  store i8 12, ptr %ref.tmp38, align 8
  %__data_.i.i.i = getelementptr inbounds %"struct.std::__1::basic_string<char>::__short", ptr %ref.tmp38, i64 0, i32 2
  %cmp.i24.i.i = icmp ugt ptr %__data_.i.i.i, @_ZN12_GLOBAL__N_118kGenericPerfEvent1E
  %add.ptr.i.i.i = getelementptr inbounds %"struct.std::__1::basic_string<char>::__short", ptr %ref.tmp38, i64 0, i32 2, i64 6
  %cmp1.i.i.i = icmp ule ptr %add.ptr.i.i.i, @_ZN12_GLOBAL__N_118kGenericPerfEvent1E
  %21 = or i1 %cmp.i24.i.i, %cmp1.i.i.i
  call void @llvm.assume(i1 %21)
  call void @llvm.memcpy.p0.p0.i64(ptr noundef nonnull align 1 dereferenceable(6) %__data_.i.i.i, ptr noundef nonnull align 1 dereferenceable(6) @_ZN12_GLOBAL__N_118kGenericPerfEvent1E, i64 6, i1 false)
  store i8 0, ptr %add.ptr.i.i.i, align 1, !tbaa !25
  %__end_.i = getelementptr inbounds %"class.std::__1::vector.51", ptr %ref.tmp37, i64 0, i32 1
  call void @llvm.memset.p0.i64(ptr noundef nonnull align 8 dereferenceable(24) %ref.tmp37, i8 0, i64 24, i1 false)
  call void @llvm.lifetime.start.p0(i64 16, ptr nonnull %__guard.i) #24
  store ptr %ref.tmp37, ptr %__guard.i, align 8, !tbaa.struct !65, !alias.scope !66
  %__completed_.i.i.i = getelementptr inbounds %"struct.std::__1::__exception_guard_exceptions", ptr %__guard.i, i64 0, i32 1
  store i8 0, ptr %__completed_.i.i.i, align 8, !tbaa !69, !alias.scope !66
  %call.i.i.i.i.i11.i = invoke noalias noundef nonnull dereferenceable(24) ptr @_Znwm(i64 noundef 24) #26
          to label %invoke.cont4.i unwind label %lpad.i

invoke.cont4.i:                                   ; preds = %_ZN7testing15AssertionResultD2Ev.exit
  %__end_cap_.i = getelementptr inbounds %"class.std::__1::vector.51", ptr %ref.tmp37, i64 0, i32 2
  store ptr %call.i.i.i.i.i11.i, ptr %ref.tmp37, align 8, !tbaa !72
  store ptr %call.i.i.i.i.i11.i, ptr %__end_.i, align 8, !tbaa !75
  %add.ptr.i.i = getelementptr inbounds %"class.std::__1::basic_string", ptr %call.i.i.i.i.i11.i, i64 1
  store ptr %add.ptr.i.i, ptr %__end_cap_.i, align 8, !tbaa !24
  call void @llvm.lifetime.start.p0(i64 8, ptr nonnull %__first2.addr.i.i.i)
  store ptr %call.i.i.i.i.i11.i, ptr %__first2.addr.i.i.i, align 8, !tbaa !24
  call void @llvm.lifetime.start.p0(i64 8, ptr nonnull %__destruct_first.i.i.i) #24
  store ptr %call.i.i.i.i.i11.i, ptr %__destruct_first.i.i.i, align 8, !tbaa !24
  call void @llvm.lifetime.start.p0(i64 32, ptr nonnull %__guard.i.i.i) #24
  store ptr %__end_cap_.i, ptr %__guard.i.i.i, align 8
  %agg.tmp6.sroa.4.0.__guard.sroa_idx.i.i.i = getelementptr inbounds i8, ptr %__guard.i.i.i, i64 8
  store ptr %__destruct_first.i.i.i, ptr %agg.tmp6.sroa.4.0.__guard.sroa_idx.i.i.i, align 8
  %agg.tmp6.sroa.5.0.__guard.sroa_idx.i.i.i = getelementptr inbounds i8, ptr %__guard.i.i.i, i64 16
  store ptr %__first2.addr.i.i.i, ptr %agg.tmp6.sroa.5.0.__guard.sroa_idx.i.i.i, align 8
  %__completed_.i.i.i.i.i = getelementptr inbounds %"struct.std::__1::__exception_guard_exceptions.59", ptr %__guard.i.i.i, i64 0, i32 1
  store i8 0, ptr %__completed_.i.i.i.i.i, align 8, !tbaa !76, !alias.scope !79
  invoke void @_ZNSt3__112basic_stringIcNS_11char_traitsIcEENS_9allocatorIcEEEC1ERKS5_(ptr noundef nonnull align 8 dereferenceable(24) %call.i.i.i.i.i11.i, ptr noundef nonnull align 8 dereferenceable(24) %ref.tmp38)
          to label %invoke.cont.i.i.i unwind label %lpad.i.i.i

invoke.cont.i.i.i:                                ; preds = %invoke.cont4.i
  %22 = load ptr, ptr %__first2.addr.i.i.i, align 8, !tbaa !24
  %incdec.ptr1.i.i.i = getelementptr inbounds %"class.std::__1::basic_string", ptr %22, i64 1
  call void @llvm.lifetime.end.p0(i64 32, ptr nonnull %__guard.i.i.i) #24
  call void @llvm.lifetime.end.p0(i64 8, ptr nonnull %__destruct_first.i.i.i) #24
  call void @llvm.lifetime.end.p0(i64 8, ptr nonnull %__first2.addr.i.i.i)
  store ptr %incdec.ptr1.i.i.i, ptr %__end_.i, align 8, !tbaa !75
  call void @llvm.lifetime.end.p0(i64 16, ptr nonnull %__guard.i) #24
  invoke void @_ZN9benchmark8internal12PerfCounters6CreateERKNSt3__16vectorINS2_12basic_stringIcNS2_11char_traitsIcEENS2_9allocatorIcEEEENS7_IS9_EEEE(ptr nonnull sret(%"class.benchmark::internal::PerfCounters") align 8 %ref.tmp36, ptr noundef nonnull align 8 dereferenceable(24) %ref.tmp37)
          to label %invoke.cont46 unwind label %lpad45

lpad.i.i.i:                                       ; preds = %invoke.cont4.i
  %23 = landingpad { ptr, i32 }
          cleanup
  call void @_ZNSt3__128__exception_guard_exceptionsINS_29_AllocatorDestroyRangeReverseINS_9allocatorINS_12basic_stringIcNS_11char_traitsIcEENS2_IcEEEEEEPS7_EEED2B7v170000Ev(ptr noundef nonnull align 8 dereferenceable(25) %__guard.i.i.i) #24
  call void @llvm.lifetime.end.p0(i64 32, ptr nonnull %__guard.i.i.i) #24
  call void @llvm.lifetime.end.p0(i64 8, ptr nonnull %__destruct_first.i.i.i) #24
  store ptr %call.i.i.i.i.i11.i, ptr %__end_.i, align 8, !tbaa !75
  br label %lpad.body.i

lpad.i:                                           ; preds = %_ZN7testing15AssertionResultD2Ev.exit
  %24 = landingpad { ptr, i32 }
          cleanup
  br label %lpad.body.i

lpad.body.i:                                      ; preds = %lpad.i, %lpad.i.i.i
  %eh.lpad-body.i = phi { ptr, i32 } [ %24, %lpad.i ], [ %23, %lpad.i.i.i ]
  call void @_ZNSt3__128__exception_guard_exceptionsINS_6vectorINS_12basic_stringIcNS_11char_traitsIcEENS_9allocatorIcEEEENS5_IS7_EEE16__destroy_vectorEED2B7v170000Ev(ptr noundef nonnull align 8 dereferenceable(9) %__guard.i) #24
  call void @llvm.lifetime.end.p0(i64 16, ptr nonnull %__guard.i) #24
  br label %ehcleanup59

invoke.cont46:                                    ; preds = %invoke.cont.i.i.i
  %counter_names_.i = getelementptr inbounds %"class.benchmark::internal::PerfCounters", ptr %ref.tmp36, i64 0, i32 1
  %25 = load ptr, ptr %counter_names_.i, align 8, !tbaa !72
  %__end_.i.i = getelementptr inbounds %"class.benchmark::internal::PerfCounters", ptr %ref.tmp36, i64 0, i32 1, i32 1
  %26 = load ptr, ptr %__end_.i.i, align 8, !tbaa !75
  %cmp.i.i136 = icmp ne ptr %25, %26
  %frombool50 = zext i1 %cmp.i.i136 to i8
  store i8 %frombool50, ptr %gtest_ar_34, align 8, !tbaa !18
  %message_.i137 = getelementptr inbounds %"class.testing::AssertionResult", ptr %gtest_ar_34, i64 0, i32 1
  store ptr null, ptr %message_.i137, align 8, !tbaa !64
  invoke void @_ZNK9benchmark8internal12PerfCounters13CloseCountersEv(ptr noundef nonnull align 8 dereferenceable(48) %ref.tmp36)
          to label %invoke.cont.i unwind label %terminate.lpad.i

invoke.cont.i:                                    ; preds = %invoke.cont46
  %27 = load ptr, ptr %counter_names_.i, align 8, !tbaa !72
  %cmp.not.i.i.i139 = icmp eq ptr %27, null
  br i1 %cmp.not.i.i.i139, label %_ZNSt3__16vectorINS_12basic_stringIcNS_11char_traitsIcEENS_9allocatorIcEEEENS4_IS6_EEED2B7v170000Ev.exit.i, label %if.then.i.i.i

if.then.i.i.i:                                    ; preds = %invoke.cont.i
  %28 = load ptr, ptr %__end_.i.i, align 8, !tbaa !75
  %cmp.not6.i.i.i.i.i = icmp eq ptr %28, %27
  br i1 %cmp.not6.i.i.i.i.i, label %_ZNSt3__16vectorINS_12basic_stringIcNS_11char_traitsIcEENS_9allocatorIcEEEENS4_IS6_EEE7__clearB7v170000Ev.exit.i.i.i, label %while.body.i.i.i.i.i

while.body.i.i.i.i.i:                             ; preds = %if.then.i.i.i, %_ZNSt3__116allocator_traitsINS_9allocatorINS_12basic_stringIcNS_11char_traitsIcEENS1_IcEEEEEEE7destroyB7v170000IS6_vEEvRS7_PT_.exit.i.i.i.i.i
  %__soon_to_be_end.07.i.i.i.i.i = phi ptr [ %incdec.ptr.i.i.i.i.i, %_ZNSt3__116allocator_traitsINS_9allocatorINS_12basic_stringIcNS_11char_traitsIcEENS1_IcEEEEEEE7destroyB7v170000IS6_vEEvRS7_PT_.exit.i.i.i.i.i ], [ %28, %if.then.i.i.i ]
  %incdec.ptr.i.i.i.i.i = getelementptr inbounds %"class.std::__1::basic_string", ptr %__soon_to_be_end.07.i.i.i.i.i, i64 -1
  %bf.load.i.i.i.i.i.i.i.i.i = load i8, ptr %incdec.ptr.i.i.i.i.i, align 8
  %bf.clear.i.i.i.i.i.i.i.i.i = and i8 %bf.load.i.i.i.i.i.i.i.i.i, 1
  %tobool.i.not.i.i.i.i.i.i.i.i = icmp eq i8 %bf.clear.i.i.i.i.i.i.i.i.i, 0
  br i1 %tobool.i.not.i.i.i.i.i.i.i.i, label %_ZNSt3__116allocator_traitsINS_9allocatorINS_12basic_stringIcNS_11char_traitsIcEENS1_IcEEEEEEE7destroyB7v170000IS6_vEEvRS7_PT_.exit.i.i.i.i.i, label %if.then.i.i.i.i.i.i.i.i

if.then.i.i.i.i.i.i.i.i:                          ; preds = %while.body.i.i.i.i.i
  %__data_.i.i.i.i.i.i.i.i.i = getelementptr %"class.std::__1::basic_string", ptr %__soon_to_be_end.07.i.i.i.i.i, i64 -1, i32 0, i32 0, i32 0, i32 0, i32 0, i32 2
  %29 = load ptr, ptr %__data_.i.i.i.i.i.i.i.i.i, align 8, !tbaa !25
  call void @_ZdlPv(ptr noundef %29) #25
  br label %_ZNSt3__116allocator_traitsINS_9allocatorINS_12basic_stringIcNS_11char_traitsIcEENS1_IcEEEEEEE7destroyB7v170000IS6_vEEvRS7_PT_.exit.i.i.i.i.i

_ZNSt3__116allocator_traitsINS_9allocatorINS_12basic_stringIcNS_11char_traitsIcEENS1_IcEEEEEEE7destroyB7v170000IS6_vEEvRS7_PT_.exit.i.i.i.i.i: ; preds = %if.then.i.i.i.i.i.i.i.i, %while.body.i.i.i.i.i
  %cmp.not.i.i.i.i.i = icmp eq ptr %incdec.ptr.i.i.i.i.i, %27
  br i1 %cmp.not.i.i.i.i.i, label %_ZNSt3__16vectorINS_12basic_stringIcNS_11char_traitsIcEENS_9allocatorIcEEEENS4_IS6_EEE7__clearB7v170000Ev.exit.loopexit.i.i.i, label %while.body.i.i.i.i.i

_ZNSt3__16vectorINS_12basic_stringIcNS_11char_traitsIcEENS_9allocatorIcEEEENS4_IS6_EEE7__clearB7v170000Ev.exit.loopexit.i.i.i: ; preds = %_ZNSt3__116allocator_traitsINS_9allocatorINS_12basic_stringIcNS_11char_traitsIcEENS1_IcEEEEEEE7destroyB7v170000IS6_vEEvRS7_PT_.exit.i.i.i.i.i
  %.pre10.i.i.i = load ptr, ptr %counter_names_.i, align 8, !tbaa !72
  br label %_ZNSt3__16vectorINS_12basic_stringIcNS_11char_traitsIcEENS_9allocatorIcEEEENS4_IS6_EEE7__clearB7v170000Ev.exit.i.i.i

_ZNSt3__16vectorINS_12basic_stringIcNS_11char_traitsIcEENS_9allocatorIcEEEENS4_IS6_EEE7__clearB7v170000Ev.exit.i.i.i: ; preds = %_ZNSt3__16vectorINS_12basic_stringIcNS_11char_traitsIcEENS_9allocatorIcEEEENS4_IS6_EEE7__clearB7v170000Ev.exit.loopexit.i.i.i, %if.then.i.i.i
  %30 = phi ptr [ %.pre10.i.i.i, %_ZNSt3__16vectorINS_12basic_stringIcNS_11char_traitsIcEENS_9allocatorIcEEEENS4_IS6_EEE7__clearB7v170000Ev.exit.loopexit.i.i.i ], [ %27, %if.then.i.i.i ]
  store ptr %27, ptr %__end_.i.i, align 8, !tbaa !75
  call void @_ZdlPv(ptr noundef %30) #25
  br label %_ZNSt3__16vectorINS_12basic_stringIcNS_11char_traitsIcEENS_9allocatorIcEEEENS4_IS6_EEED2B7v170000Ev.exit.i

_ZNSt3__16vectorINS_12basic_stringIcNS_11char_traitsIcEENS_9allocatorIcEEEENS4_IS6_EEED2B7v170000Ev.exit.i: ; preds = %_ZNSt3__16vectorINS_12basic_stringIcNS_11char_traitsIcEENS_9allocatorIcEEEENS4_IS6_EEE7__clearB7v170000Ev.exit.i.i.i, %invoke.cont.i
  %31 = load ptr, ptr %ref.tmp36, align 8, !tbaa !82
  %cmp.not.i.i2.i = icmp eq ptr %31, null
  br i1 %cmp.not.i.i2.i, label %_ZN9benchmark8internal12PerfCountersD2Ev.exit, label %if.then.i.i4.i

if.then.i.i4.i:                                   ; preds = %_ZNSt3__16vectorINS_12basic_stringIcNS_11char_traitsIcEENS_9allocatorIcEEEENS4_IS6_EEED2B7v170000Ev.exit.i
  %__end_.i.i.i.i3.i = getelementptr inbounds %"class.std::__1::vector.44", ptr %ref.tmp36, i64 0, i32 1
  store ptr %31, ptr %__end_.i.i.i.i3.i, align 8, !tbaa !86
  call void @_ZdlPv(ptr noundef nonnull %31) #25
  br label %_ZN9benchmark8internal12PerfCountersD2Ev.exit

terminate.lpad.i:                                 ; preds = %invoke.cont46
  %32 = landingpad { ptr, i32 }
          catch ptr null
  %33 = extractvalue { ptr, i32 } %32, 0
  call void @__clang_call_terminate(ptr %33) #27
  unreachable

_ZN9benchmark8internal12PerfCountersD2Ev.exit:    ; preds = %_ZNSt3__16vectorINS_12basic_stringIcNS_11char_traitsIcEENS_9allocatorIcEEEENS4_IS6_EEED2B7v170000Ev.exit.i, %if.then.i.i4.i
  %34 = load ptr, ptr %ref.tmp37, align 8, !tbaa !72
  %cmp.not.i.i = icmp eq ptr %34, null
  br i1 %cmp.not.i.i, label %_ZNSt3__16vectorINS_12basic_stringIcNS_11char_traitsIcEENS_9allocatorIcEEEENS4_IS6_EEED2B7v170000Ev.exit, label %if.then.i.i140

if.then.i.i140:                                   ; preds = %_ZN9benchmark8internal12PerfCountersD2Ev.exit
  %35 = load ptr, ptr %__end_.i, align 8, !tbaa !75
  %cmp.not6.i.i.i.i = icmp eq ptr %35, %34
  br i1 %cmp.not6.i.i.i.i, label %_ZNSt3__16vectorINS_12basic_stringIcNS_11char_traitsIcEENS_9allocatorIcEEEENS4_IS6_EEE7__clearB7v170000Ev.exit.i.i, label %while.body.i.i.i.i

while.body.i.i.i.i:                               ; preds = %if.then.i.i140, %_ZNSt3__116allocator_traitsINS_9allocatorINS_12basic_stringIcNS_11char_traitsIcEENS1_IcEEEEEEE7destroyB7v170000IS6_vEEvRS7_PT_.exit.i.i.i.i
  %__soon_to_be_end.07.i.i.i.i = phi ptr [ %incdec.ptr.i.i.i.i, %_ZNSt3__116allocator_traitsINS_9allocatorINS_12basic_stringIcNS_11char_traitsIcEENS1_IcEEEEEEE7destroyB7v170000IS6_vEEvRS7_PT_.exit.i.i.i.i ], [ %35, %if.then.i.i140 ]
  %incdec.ptr.i.i.i.i = getelementptr inbounds %"class.std::__1::basic_string", ptr %__soon_to_be_end.07.i.i.i.i, i64 -1
  %bf.load.i.i.i.i.i.i.i.i = load i8, ptr %incdec.ptr.i.i.i.i, align 8
  %bf.clear.i.i.i.i.i.i.i.i = and i8 %bf.load.i.i.i.i.i.i.i.i, 1
  %tobool.i.not.i.i.i.i.i.i.i = icmp eq i8 %bf.clear.i.i.i.i.i.i.i.i, 0
  br i1 %tobool.i.not.i.i.i.i.i.i.i, label %_ZNSt3__116allocator_traitsINS_9allocatorINS_12basic_stringIcNS_11char_traitsIcEENS1_IcEEEEEEE7destroyB7v170000IS6_vEEvRS7_PT_.exit.i.i.i.i, label %if.then.i.i.i.i.i.i.i

if.then.i.i.i.i.i.i.i:                            ; preds = %while.body.i.i.i.i
  %__data_.i.i.i.i.i.i.i.i = getelementptr %"class.std::__1::basic_string", ptr %__soon_to_be_end.07.i.i.i.i, i64 -1, i32 0, i32 0, i32 0, i32 0, i32 0, i32 2
  %36 = load ptr, ptr %__data_.i.i.i.i.i.i.i.i, align 8, !tbaa !25
  call void @_ZdlPv(ptr noundef %36) #25
  br label %_ZNSt3__116allocator_traitsINS_9allocatorINS_12basic_stringIcNS_11char_traitsIcEENS1_IcEEEEEEE7destroyB7v170000IS6_vEEvRS7_PT_.exit.i.i.i.i

_ZNSt3__116allocator_traitsINS_9allocatorINS_12basic_stringIcNS_11char_traitsIcEENS1_IcEEEEEEE7destroyB7v170000IS6_vEEvRS7_PT_.exit.i.i.i.i: ; preds = %if.then.i.i.i.i.i.i.i, %while.body.i.i.i.i
  %cmp.not.i.i.i.i = icmp eq ptr %incdec.ptr.i.i.i.i, %34
  br i1 %cmp.not.i.i.i.i, label %_ZNSt3__16vectorINS_12basic_stringIcNS_11char_traitsIcEENS_9allocatorIcEEEENS4_IS6_EEE7__clearB7v170000Ev.exit.loopexit.i.i, label %while.body.i.i.i.i

_ZNSt3__16vectorINS_12basic_stringIcNS_11char_traitsIcEENS_9allocatorIcEEEENS4_IS6_EEE7__clearB7v170000Ev.exit.loopexit.i.i: ; preds = %_ZNSt3__116allocator_traitsINS_9allocatorINS_12basic_stringIcNS_11char_traitsIcEENS1_IcEEEEEEE7destroyB7v170000IS6_vEEvRS7_PT_.exit.i.i.i.i
  %.pre10.i.i = load ptr, ptr %ref.tmp37, align 8, !tbaa !72
  br label %_ZNSt3__16vectorINS_12basic_stringIcNS_11char_traitsIcEENS_9allocatorIcEEEENS4_IS6_EEE7__clearB7v170000Ev.exit.i.i

_ZNSt3__16vectorINS_12basic_stringIcNS_11char_traitsIcEENS_9allocatorIcEEEENS4_IS6_EEE7__clearB7v170000Ev.exit.i.i: ; preds = %_ZNSt3__16vectorINS_12basic_stringIcNS_11char_traitsIcEENS_9allocatorIcEEEENS4_IS6_EEE7__clearB7v170000Ev.exit.loopexit.i.i, %if.then.i.i140
  %37 = phi ptr [ %.pre10.i.i, %_ZNSt3__16vectorINS_12basic_stringIcNS_11char_traitsIcEENS_9allocatorIcEEEENS4_IS6_EEE7__clearB7v170000Ev.exit.loopexit.i.i ], [ %34, %if.then.i.i140 ]
  store ptr %34, ptr %__end_.i, align 8, !tbaa !75
  call void @_ZdlPv(ptr noundef %37) #25
  br label %_ZNSt3__16vectorINS_12basic_stringIcNS_11char_traitsIcEENS_9allocatorIcEEEENS4_IS6_EEED2B7v170000Ev.exit

_ZNSt3__16vectorINS_12basic_stringIcNS_11char_traitsIcEENS_9allocatorIcEEEENS4_IS6_EEED2B7v170000Ev.exit: ; preds = %_ZN9benchmark8internal12PerfCountersD2Ev.exit, %_ZNSt3__16vectorINS_12basic_stringIcNS_11char_traitsIcEENS_9allocatorIcEEEENS4_IS6_EEE7__clearB7v170000Ev.exit.i.i
  %bf.load.i.i141 = load i8, ptr %ref.tmp38, align 8
  %bf.clear.i.i142 = and i8 %bf.load.i.i141, 1
  %tobool.i.not.i143 = icmp eq i8 %bf.clear.i.i142, 0
  br i1 %tobool.i.not.i143, label %_ZNSt3__112basic_stringIcNS_11char_traitsIcEENS_9allocatorIcEEED2Ev.exit146, label %if.then.i145

if.then.i145:                                     ; preds = %_ZNSt3__16vectorINS_12basic_stringIcNS_11char_traitsIcEENS_9allocatorIcEEEENS4_IS6_EEED2B7v170000Ev.exit
  %__data_.i.i144 = getelementptr inbounds %"class.std::__1::basic_string", ptr %ref.tmp38, i64 0, i32 0, i32 0, i32 0, i32 0, i32 0, i32 2
  %38 = load ptr, ptr %__data_.i.i144, align 8, !tbaa !25
  call void @_ZdlPv(ptr noundef %38) #25
  br label %_ZNSt3__112basic_stringIcNS_11char_traitsIcEENS_9allocatorIcEEED2Ev.exit146

_ZNSt3__112basic_stringIcNS_11char_traitsIcEENS_9allocatorIcEEED2Ev.exit146: ; preds = %_ZNSt3__16vectorINS_12basic_stringIcNS_11char_traitsIcEENS_9allocatorIcEEEENS4_IS6_EEED2B7v170000Ev.exit, %if.then.i145
  call void @llvm.lifetime.end.p0(i64 24, ptr nonnull %ref.tmp38) #24
  call void @llvm.lifetime.end.p0(i64 24, ptr nonnull %ref.tmp37) #24
  call void @llvm.lifetime.end.p0(i64 48, ptr nonnull %ref.tmp36) #24
  br i1 %cmp.i.i136, label %_ZN7testing15AssertionResultD2Ev.exit191, label %if.else72

lpad45:                                           ; preds = %invoke.cont.i.i.i
  %39 = landingpad { ptr, i32 }
          cleanup
  call void @_ZNSt3__16vectorINS_12basic_stringIcNS_11char_traitsIcEENS_9allocatorIcEEEENS4_IS6_EEED2B7v170000Ev(ptr noundef nonnull align 8 dereferenceable(24) %ref.tmp37) #24
  br label %ehcleanup59

ehcleanup59:                                      ; preds = %lpad.body.i, %lpad45
  %.pn101 = phi { ptr, i32 } [ %39, %lpad45 ], [ %eh.lpad-body.i, %lpad.body.i ]
  %bf.load.i.i148 = load i8, ptr %ref.tmp38, align 8
  %bf.clear.i.i149 = and i8 %bf.load.i.i148, 1
  %tobool.i.not.i150 = icmp eq i8 %bf.clear.i.i149, 0
  br i1 %tobool.i.not.i150, label %_ZNSt3__112basic_stringIcNS_11char_traitsIcEENS_9allocatorIcEEED2Ev.exit153, label %if.then.i152

if.then.i152:                                     ; preds = %ehcleanup59
  %__data_.i.i151 = getelementptr inbounds %"class.std::__1::basic_string", ptr %ref.tmp38, i64 0, i32 0, i32 0, i32 0, i32 0, i32 0, i32 2
  %40 = load ptr, ptr %__data_.i.i151, align 8, !tbaa !25
  call void @_ZdlPv(ptr noundef %40) #25
  br label %_ZNSt3__112basic_stringIcNS_11char_traitsIcEENS_9allocatorIcEEED2Ev.exit153

_ZNSt3__112basic_stringIcNS_11char_traitsIcEENS_9allocatorIcEEED2Ev.exit153: ; preds = %ehcleanup59, %if.then.i152
  call void @llvm.lifetime.end.p0(i64 24, ptr nonnull %ref.tmp38) #24
  call void @llvm.lifetime.end.p0(i64 24, ptr nonnull %ref.tmp37) #24
  call void @llvm.lifetime.end.p0(i64 48, ptr nonnull %ref.tmp36) #24
  br label %ehcleanup93

if.else72:                                        ; preds = %_ZNSt3__112basic_stringIcNS_11char_traitsIcEENS_9allocatorIcEEED2Ev.exit146
  call void @llvm.lifetime.start.p0(i64 8, ptr nonnull %ref.tmp73) #24
  invoke void @_ZN7testing7MessageC1Ev(ptr noundef nonnull align 8 dereferenceable(8) %ref.tmp73)
          to label %invoke.cont75 unwind label %lpad74

invoke.cont75:                                    ; preds = %if.else72
  call void @llvm.lifetime.start.p0(i64 8, ptr nonnull %ref.tmp76) #24
  call void @llvm.lifetime.start.p0(i64 24, ptr nonnull %ref.tmp77) #24
  invoke void @_ZN7testing8internal30GetBoolAssertionFailureMessageERKNS_15AssertionResultEPKcS5_S5_(ptr nonnull sret(%"class.std::__1::basic_string") align 8 %ref.tmp77, ptr noundef nonnull align 8 dereferenceable(16) %gtest_ar_34, ptr noundef nonnull @.str.26, ptr noundef nonnull @.str.22, ptr noundef nonnull @.str.21)
          to label %invoke.cont79 unwind label %lpad78

invoke.cont79:                                    ; preds = %invoke.cont75
  %bf.load.i.i.i.i154 = load i8, ptr %ref.tmp77, align 8
  %bf.clear.i.i.i.i155 = and i8 %bf.load.i.i.i.i154, 1
  %tobool.i.not.i.i.i156 = icmp eq i8 %bf.clear.i.i.i.i155, 0
  %__data_.i.i.i.i157 = getelementptr inbounds %"struct.std::__1::basic_string<char>::__long", ptr %ref.tmp77, i64 0, i32 2
  %41 = load ptr, ptr %__data_.i.i.i.i157, align 8
  %__data_.i4.i.i.i158 = getelementptr inbounds %"struct.std::__1::basic_string<char>::__short", ptr %ref.tmp77, i64 0, i32 2
  %cond.i.i.i159 = select i1 %tobool.i.not.i.i.i156, ptr %__data_.i4.i.i.i158, ptr %41
  invoke void @_ZN7testing8internal12AssertHelperC1ENS_14TestPartResult4TypeEPKciS5_(ptr noundef nonnull align 8 dereferenceable(8) %ref.tmp76, i32 noundef 1, ptr noundef nonnull @.str.4, i32 noundef 31, ptr noundef %cond.i.i.i159)
          to label %invoke.cont82 unwind label %lpad81

invoke.cont82:                                    ; preds = %invoke.cont79
  invoke void @_ZNK7testing8internal12AssertHelperaSERKNS_7MessageE(ptr noundef nonnull align 8 dereferenceable(8) %ref.tmp76, ptr noundef nonnull align 8 dereferenceable(8) %ref.tmp73)
          to label %invoke.cont84 unwind label %lpad83

invoke.cont84:                                    ; preds = %invoke.cont82
  call void @_ZN7testing8internal12AssertHelperD1Ev(ptr noundef nonnull align 8 dereferenceable(8) %ref.tmp76) #24
  %bf.load.i.i160 = load i8, ptr %ref.tmp77, align 8
  %bf.clear.i.i161 = and i8 %bf.load.i.i160, 1
  %tobool.i.not.i162 = icmp eq i8 %bf.clear.i.i161, 0
  br i1 %tobool.i.not.i162, label %_ZNSt3__112basic_stringIcNS_11char_traitsIcEENS_9allocatorIcEEED2Ev.exit165, label %if.then.i164

if.then.i164:                                     ; preds = %invoke.cont84
  %42 = load ptr, ptr %__data_.i.i.i.i157, align 8, !tbaa !25
  call void @_ZdlPv(ptr noundef %42) #25
  br label %_ZNSt3__112basic_stringIcNS_11char_traitsIcEENS_9allocatorIcEEED2Ev.exit165

_ZNSt3__112basic_stringIcNS_11char_traitsIcEENS_9allocatorIcEEED2Ev.exit165: ; preds = %invoke.cont84, %if.then.i164
  call void @llvm.lifetime.end.p0(i64 24, ptr nonnull %ref.tmp77) #24
  call void @llvm.lifetime.end.p0(i64 8, ptr nonnull %ref.tmp76) #24
  %43 = load ptr, ptr %ref.tmp73, align 8, !tbaa !24
  store ptr null, ptr %ref.tmp73, align 8, !tbaa !24
  %tobool.not.i.i.i166 = icmp eq ptr %43, null
  br i1 %tobool.not.i.i.i166, label %if.end91, label %_ZNKSt3__114default_deleteINS_18basic_stringstreamIcNS_11char_traitsIcEENS_9allocatorIcEEEEEclB7v170000EPS6_.exit.i.i.i169

_ZNKSt3__114default_deleteINS_18basic_stringstreamIcNS_11char_traitsIcEENS_9allocatorIcEEEEEclB7v170000EPS6_.exit.i.i.i169: ; preds = %_ZNSt3__112basic_stringIcNS_11char_traitsIcEENS_9allocatorIcEEED2Ev.exit165
  %vtable.i.i.i.i167 = load ptr, ptr %43, align 8, !tbaa !5
  %vfn.i.i.i.i168 = getelementptr inbounds ptr, ptr %vtable.i.i.i.i167, i64 1
  %44 = load ptr, ptr %vfn.i.i.i.i168, align 8
  call void %44(ptr noundef nonnull align 8 dereferenceable(128) %43) #24
  br label %if.end91

lpad74:                                           ; preds = %if.else72
  %45 = landingpad { ptr, i32 }
          cleanup
  br label %ehcleanup90

lpad78:                                           ; preds = %invoke.cont75
  %46 = landingpad { ptr, i32 }
          cleanup
  br label %ehcleanup87

lpad81:                                           ; preds = %invoke.cont79
  %47 = landingpad { ptr, i32 }
          cleanup
  br label %ehcleanup86

lpad83:                                           ; preds = %invoke.cont82
  %48 = landingpad { ptr, i32 }
          cleanup
  call void @_ZN7testing8internal12AssertHelperD1Ev(ptr noundef nonnull align 8 dereferenceable(8) %ref.tmp76) #24
  br label %ehcleanup86

ehcleanup86:                                      ; preds = %lpad83, %lpad81
  %.pn104 = phi { ptr, i32 } [ %48, %lpad83 ], [ %47, %lpad81 ]
  %bf.load.i.i171 = load i8, ptr %ref.tmp77, align 8
  %bf.clear.i.i172 = and i8 %bf.load.i.i171, 1
  %tobool.i.not.i173 = icmp eq i8 %bf.clear.i.i172, 0
  br i1 %tobool.i.not.i173, label %ehcleanup87, label %if.then.i175

if.then.i175:                                     ; preds = %ehcleanup86
  %49 = load ptr, ptr %__data_.i.i.i.i157, align 8, !tbaa !25
  call void @_ZdlPv(ptr noundef %49) #25
  br label %ehcleanup87

ehcleanup87:                                      ; preds = %if.then.i175, %ehcleanup86, %lpad78
  %.pn104.pn = phi { ptr, i32 } [ %46, %lpad78 ], [ %.pn104, %ehcleanup86 ], [ %.pn104, %if.then.i175 ]
  call void @llvm.lifetime.end.p0(i64 24, ptr nonnull %ref.tmp77) #24
  call void @llvm.lifetime.end.p0(i64 8, ptr nonnull %ref.tmp76) #24
  %50 = load ptr, ptr %ref.tmp73, align 8, !tbaa !24
  store ptr null, ptr %ref.tmp73, align 8, !tbaa !24
  %tobool.not.i.i.i177 = icmp eq ptr %50, null
  br i1 %tobool.not.i.i.i177, label %ehcleanup90, label %_ZNKSt3__114default_deleteINS_18basic_stringstreamIcNS_11char_traitsIcEENS_9allocatorIcEEEEEclB7v170000EPS6_.exit.i.i.i180

_ZNKSt3__114default_deleteINS_18basic_stringstreamIcNS_11char_traitsIcEENS_9allocatorIcEEEEEclB7v170000EPS6_.exit.i.i.i180: ; preds = %ehcleanup87
  %vtable.i.i.i.i178 = load ptr, ptr %50, align 8, !tbaa !5
  %vfn.i.i.i.i179 = getelementptr inbounds ptr, ptr %vtable.i.i.i.i178, i64 1
  %51 = load ptr, ptr %vfn.i.i.i.i179, align 8
  call void %51(ptr noundef nonnull align 8 dereferenceable(128) %50) #24
  br label %ehcleanup90

ehcleanup90:                                      ; preds = %_ZNKSt3__114default_deleteINS_18basic_stringstreamIcNS_11char_traitsIcEENS_9allocatorIcEEEEEclB7v170000EPS6_.exit.i.i.i180, %ehcleanup87, %lpad74
  %.pn104.pn.pn = phi { ptr, i32 } [ %45, %lpad74 ], [ %.pn104.pn, %ehcleanup87 ], [ %.pn104.pn, %_ZNKSt3__114default_deleteINS_18basic_stringstreamIcNS_11char_traitsIcEENS_9allocatorIcEEEEEclB7v170000EPS6_.exit.i.i.i180 ]
  call void @llvm.lifetime.end.p0(i64 8, ptr nonnull %ref.tmp73) #24
  call void @_ZN7testing15AssertionResultD2Ev(ptr noundef nonnull align 8 dereferenceable(16) %gtest_ar_34) #24
  br label %ehcleanup93

if.end91:                                         ; preds = %_ZNKSt3__114default_deleteINS_18basic_stringstreamIcNS_11char_traitsIcEENS_9allocatorIcEEEEEclB7v170000EPS6_.exit.i.i.i169, %_ZNSt3__112basic_stringIcNS_11char_traitsIcEENS_9allocatorIcEEED2Ev.exit165
  call void @llvm.lifetime.end.p0(i64 8, ptr nonnull %ref.tmp73) #24
  %.pre = load ptr, ptr %message_.i137, align 8, !tbaa !24
  store ptr null, ptr %message_.i137, align 8, !tbaa !24
  %tobool.not.i.i.i183 = icmp eq ptr %.pre, null
  br i1 %tobool.not.i.i.i183, label %_ZN7testing15AssertionResultD2Ev.exit191, label %delete.notnull.i.i.i.i187

delete.notnull.i.i.i.i187:                        ; preds = %if.end91
  %bf.load.i.i.i.i.i.i184 = load i8, ptr %.pre, align 8
  %bf.clear.i.i.i.i.i.i185 = and i8 %bf.load.i.i.i.i.i.i184, 1
  %tobool.i.not.i.i.i.i.i186 = icmp eq i8 %bf.clear.i.i.i.i.i.i185, 0
  br i1 %tobool.i.not.i.i.i.i.i186, label %_ZNKSt3__114default_deleteINS_12basic_stringIcNS_11char_traitsIcEENS_9allocatorIcEEEEEclB7v170000EPS6_.exit.i.i.i190, label %if.then.i.i.i.i.i189

if.then.i.i.i.i.i189:                             ; preds = %delete.notnull.i.i.i.i187
  %__data_.i.i.i.i.i.i188 = getelementptr inbounds %"struct.std::__1::basic_string<char>::__long", ptr %.pre, i64 0, i32 2
  %52 = load ptr, ptr %__data_.i.i.i.i.i.i188, align 8, !tbaa !25
  call void @_ZdlPv(ptr noundef %52) #25
  br label %_ZNKSt3__114default_deleteINS_12basic_stringIcNS_11char_traitsIcEENS_9allocatorIcEEEEEclB7v170000EPS6_.exit.i.i.i190

_ZNKSt3__114default_deleteINS_12basic_stringIcNS_11char_traitsIcEENS_9allocatorIcEEEEEclB7v170000EPS6_.exit.i.i.i190: ; preds = %if.then.i.i.i.i.i189, %delete.notnull.i.i.i.i187
  call void @_ZdlPv(ptr noundef nonnull %.pre) #25
  br label %_ZN7testing15AssertionResultD2Ev.exit191

_ZN7testing15AssertionResultD2Ev.exit191:         ; preds = %_ZNSt3__112basic_stringIcNS_11char_traitsIcEENS_9allocatorIcEEED2Ev.exit146, %if.end91, %_ZNKSt3__114default_deleteINS_12basic_stringIcNS_11char_traitsIcEENS_9allocatorIcEEEEEclB7v170000EPS6_.exit.i.i.i190
  call void @llvm.lifetime.end.p0(i64 16, ptr nonnull %gtest_ar_34) #24
  br label %return

return:                                           ; preds = %_ZN7testing15AssertionResultD2Ev.exit191, %_ZN7testing7MessageD2Ev.exit
  ret void

ehcleanup93:                                      ; preds = %ehcleanup90, %_ZNSt3__112basic_stringIcNS_11char_traitsIcEENS_9allocatorIcEEED2Ev.exit153
  %.pn104.pn.pn.pn = phi { ptr, i32 } [ %.pn104.pn.pn, %ehcleanup90 ], [ %.pn101, %_ZNSt3__112basic_stringIcNS_11char_traitsIcEENS_9allocatorIcEEED2Ev.exit153 ]
  call void @llvm.lifetime.end.p0(i64 16, ptr nonnull %gtest_ar_34) #24
  br label %eh.resume

eh.resume:                                        ; preds = %ehcleanup93, %ehcleanup30, %_ZN7testing7MessageD2Ev.exit115
  %.pn104.pn.pn.pn.pn = phi { ptr, i32 } [ %.pn104.pn.pn.pn, %ehcleanup93 ], [ %.pn97.pn.pn, %ehcleanup30 ], [ %.pn.pn, %_ZN7testing7MessageD2Ev.exit115 ]
  resume { ptr, i32 } %.pn104.pn.pn.pn.pn
}

declare void @_ZN7testing8internal30GetBoolAssertionFailureMessageERKNS_15AssertionResultEPKcS5_S5_(ptr sret(%"class.std::__1::basic_string") align 8, ptr noundef nonnull align 8 dereferenceable(16), ptr noundef, ptr noundef, ptr noundef) local_unnamed_addr #0

declare void @_ZN9benchmark8internal12PerfCounters6CreateERKNSt3__16vectorINS2_12basic_stringIcNS2_11char_traitsIcEENS2_9allocatorIcEEEENS7_IS9_EEEE(ptr sret(%"class.benchmark::internal::PerfCounters") align 8, ptr noundef nonnull align 8 dereferenceable(24)) local_unnamed_addr #0

; Function Attrs: nounwind uwtable
define linkonce_odr hidden void @_ZN9benchmark8internal12PerfCountersD2Ev(ptr noundef nonnull align 8 dereferenceable(48) %this) unnamed_addr #7 comdat align 2 personality ptr @__gxx_personality_v0 {
entry:
  invoke void @_ZNK9benchmark8internal12PerfCounters13CloseCountersEv(ptr noundef nonnull align 8 dereferenceable(48) %this)
          to label %invoke.cont unwind label %terminate.lpad

invoke.cont:                                      ; preds = %entry
  %counter_names_ = getelementptr inbounds %"class.benchmark::internal::PerfCounters", ptr %this, i64 0, i32 1
  %0 = load ptr, ptr %counter_names_, align 8, !tbaa !72
  %cmp.not.i.i = icmp eq ptr %0, null
  br i1 %cmp.not.i.i, label %_ZNSt3__16vectorINS_12basic_stringIcNS_11char_traitsIcEENS_9allocatorIcEEEENS4_IS6_EEED2B7v170000Ev.exit, label %if.then.i.i

if.then.i.i:                                      ; preds = %invoke.cont
  %__end_.i.i.i.i = getelementptr inbounds %"class.benchmark::internal::PerfCounters", ptr %this, i64 0, i32 1, i32 1
  %1 = load ptr, ptr %__end_.i.i.i.i, align 8, !tbaa !75
  %cmp.not6.i.i.i.i = icmp eq ptr %1, %0
  br i1 %cmp.not6.i.i.i.i, label %_ZNSt3__16vectorINS_12basic_stringIcNS_11char_traitsIcEENS_9allocatorIcEEEENS4_IS6_EEE7__clearB7v170000Ev.exit.i.i, label %while.body.i.i.i.i

while.body.i.i.i.i:                               ; preds = %if.then.i.i, %_ZNSt3__116allocator_traitsINS_9allocatorINS_12basic_stringIcNS_11char_traitsIcEENS1_IcEEEEEEE7destroyB7v170000IS6_vEEvRS7_PT_.exit.i.i.i.i
  %__soon_to_be_end.07.i.i.i.i = phi ptr [ %incdec.ptr.i.i.i.i, %_ZNSt3__116allocator_traitsINS_9allocatorINS_12basic_stringIcNS_11char_traitsIcEENS1_IcEEEEEEE7destroyB7v170000IS6_vEEvRS7_PT_.exit.i.i.i.i ], [ %1, %if.then.i.i ]
  %incdec.ptr.i.i.i.i = getelementptr inbounds %"class.std::__1::basic_string", ptr %__soon_to_be_end.07.i.i.i.i, i64 -1
  %bf.load.i.i.i.i.i.i.i.i = load i8, ptr %incdec.ptr.i.i.i.i, align 8
  %bf.clear.i.i.i.i.i.i.i.i = and i8 %bf.load.i.i.i.i.i.i.i.i, 1
  %tobool.i.not.i.i.i.i.i.i.i = icmp eq i8 %bf.clear.i.i.i.i.i.i.i.i, 0
  br i1 %tobool.i.not.i.i.i.i.i.i.i, label %_ZNSt3__116allocator_traitsINS_9allocatorINS_12basic_stringIcNS_11char_traitsIcEENS1_IcEEEEEEE7destroyB7v170000IS6_vEEvRS7_PT_.exit.i.i.i.i, label %if.then.i.i.i.i.i.i.i

if.then.i.i.i.i.i.i.i:                            ; preds = %while.body.i.i.i.i
  %__data_.i.i.i.i.i.i.i.i = getelementptr %"class.std::__1::basic_string", ptr %__soon_to_be_end.07.i.i.i.i, i64 -1, i32 0, i32 0, i32 0, i32 0, i32 0, i32 2
  %2 = load ptr, ptr %__data_.i.i.i.i.i.i.i.i, align 8, !tbaa !25
  tail call void @_ZdlPv(ptr noundef %2) #25
  br label %_ZNSt3__116allocator_traitsINS_9allocatorINS_12basic_stringIcNS_11char_traitsIcEENS1_IcEEEEEEE7destroyB7v170000IS6_vEEvRS7_PT_.exit.i.i.i.i

_ZNSt3__116allocator_traitsINS_9allocatorINS_12basic_stringIcNS_11char_traitsIcEENS1_IcEEEEEEE7destroyB7v170000IS6_vEEvRS7_PT_.exit.i.i.i.i: ; preds = %if.then.i.i.i.i.i.i.i, %while.body.i.i.i.i
  %cmp.not.i.i.i.i = icmp eq ptr %incdec.ptr.i.i.i.i, %0
  br i1 %cmp.not.i.i.i.i, label %_ZNSt3__16vectorINS_12basic_stringIcNS_11char_traitsIcEENS_9allocatorIcEEEENS4_IS6_EEE7__clearB7v170000Ev.exit.loopexit.i.i, label %while.body.i.i.i.i

_ZNSt3__16vectorINS_12basic_stringIcNS_11char_traitsIcEENS_9allocatorIcEEEENS4_IS6_EEE7__clearB7v170000Ev.exit.loopexit.i.i: ; preds = %_ZNSt3__116allocator_traitsINS_9allocatorINS_12basic_stringIcNS_11char_traitsIcEENS1_IcEEEEEEE7destroyB7v170000IS6_vEEvRS7_PT_.exit.i.i.i.i
  %.pre10.i.i = load ptr, ptr %counter_names_, align 8, !tbaa !72
  br label %_ZNSt3__16vectorINS_12basic_stringIcNS_11char_traitsIcEENS_9allocatorIcEEEENS4_IS6_EEE7__clearB7v170000Ev.exit.i.i

_ZNSt3__16vectorINS_12basic_stringIcNS_11char_traitsIcEENS_9allocatorIcEEEENS4_IS6_EEE7__clearB7v170000Ev.exit.i.i: ; preds = %_ZNSt3__16vectorINS_12basic_stringIcNS_11char_traitsIcEENS_9allocatorIcEEEENS4_IS6_EEE7__clearB7v170000Ev.exit.loopexit.i.i, %if.then.i.i
  %3 = phi ptr [ %.pre10.i.i, %_ZNSt3__16vectorINS_12basic_stringIcNS_11char_traitsIcEENS_9allocatorIcEEEENS4_IS6_EEE7__clearB7v170000Ev.exit.loopexit.i.i ], [ %0, %if.then.i.i ]
  store ptr %0, ptr %__end_.i.i.i.i, align 8, !tbaa !75
  tail call void @_ZdlPv(ptr noundef %3) #25
  br label %_ZNSt3__16vectorINS_12basic_stringIcNS_11char_traitsIcEENS_9allocatorIcEEEENS4_IS6_EEED2B7v170000Ev.exit

_ZNSt3__16vectorINS_12basic_stringIcNS_11char_traitsIcEENS_9allocatorIcEEEENS4_IS6_EEED2B7v170000Ev.exit: ; preds = %invoke.cont, %_ZNSt3__16vectorINS_12basic_stringIcNS_11char_traitsIcEENS_9allocatorIcEEEENS4_IS6_EEE7__clearB7v170000Ev.exit.i.i
  %4 = load ptr, ptr %this, align 8, !tbaa !82
  %cmp.not.i.i2 = icmp eq ptr %4, null
  br i1 %cmp.not.i.i2, label %_ZNSt3__16vectorIiNS_9allocatorIiEEED2B7v170000Ev.exit, label %if.then.i.i4

if.then.i.i4:                                     ; preds = %_ZNSt3__16vectorINS_12basic_stringIcNS_11char_traitsIcEENS_9allocatorIcEEEENS4_IS6_EEED2B7v170000Ev.exit
  %__end_.i.i.i.i3 = getelementptr inbounds %"class.std::__1::vector.44", ptr %this, i64 0, i32 1
  store ptr %4, ptr %__end_.i.i.i.i3, align 8, !tbaa !86
  tail call void @_ZdlPv(ptr noundef nonnull %4) #25
  br label %_ZNSt3__16vectorIiNS_9allocatorIiEEED2B7v170000Ev.exit

_ZNSt3__16vectorIiNS_9allocatorIiEEED2B7v170000Ev.exit: ; preds = %_ZNSt3__16vectorINS_12basic_stringIcNS_11char_traitsIcEENS_9allocatorIcEEEENS4_IS6_EEED2B7v170000Ev.exit, %if.then.i.i4
  ret void

terminate.lpad:                                   ; preds = %entry
  %5 = landingpad { ptr, i32 }
          catch ptr null
  %6 = extractvalue { ptr, i32 } %5, 0
  tail call void @__clang_call_terminate(ptr %6) #27
  unreachable
}

; Function Attrs: nounwind uwtable
define linkonce_odr hidden void @_ZNSt3__16vectorINS_12basic_stringIcNS_11char_traitsIcEENS_9allocatorIcEEEENS4_IS6_EEED2B7v170000Ev(ptr noundef nonnull align 8 dereferenceable(24) %this) unnamed_addr #7 comdat align 2 personality ptr @__gxx_personality_v0 {
entry:
  %0 = load ptr, ptr %this, align 8, !tbaa !72
  %cmp.not.i = icmp eq ptr %0, null
  br i1 %cmp.not.i, label %invoke.cont2, label %if.then.i

if.then.i:                                        ; preds = %entry
  %__end_.i.i.i = getelementptr inbounds %"class.std::__1::vector.51", ptr %this, i64 0, i32 1
  %1 = load ptr, ptr %__end_.i.i.i, align 8, !tbaa !75
  %cmp.not6.i.i.i = icmp eq ptr %1, %0
  br i1 %cmp.not6.i.i.i, label %_ZNSt3__16vectorINS_12basic_stringIcNS_11char_traitsIcEENS_9allocatorIcEEEENS4_IS6_EEE7__clearB7v170000Ev.exit.i, label %while.body.i.i.i

while.body.i.i.i:                                 ; preds = %if.then.i, %_ZNSt3__116allocator_traitsINS_9allocatorINS_12basic_stringIcNS_11char_traitsIcEENS1_IcEEEEEEE7destroyB7v170000IS6_vEEvRS7_PT_.exit.i.i.i
  %__soon_to_be_end.07.i.i.i = phi ptr [ %incdec.ptr.i.i.i, %_ZNSt3__116allocator_traitsINS_9allocatorINS_12basic_stringIcNS_11char_traitsIcEENS1_IcEEEEEEE7destroyB7v170000IS6_vEEvRS7_PT_.exit.i.i.i ], [ %1, %if.then.i ]
  %incdec.ptr.i.i.i = getelementptr inbounds %"class.std::__1::basic_string", ptr %__soon_to_be_end.07.i.i.i, i64 -1
  %bf.load.i.i.i.i.i.i.i = load i8, ptr %incdec.ptr.i.i.i, align 8
  %bf.clear.i.i.i.i.i.i.i = and i8 %bf.load.i.i.i.i.i.i.i, 1
  %tobool.i.not.i.i.i.i.i.i = icmp eq i8 %bf.clear.i.i.i.i.i.i.i, 0
  br i1 %tobool.i.not.i.i.i.i.i.i, label %_ZNSt3__116allocator_traitsINS_9allocatorINS_12basic_stringIcNS_11char_traitsIcEENS1_IcEEEEEEE7destroyB7v170000IS6_vEEvRS7_PT_.exit.i.i.i, label %if.then.i.i.i.i.i.i

if.then.i.i.i.i.i.i:                              ; preds = %while.body.i.i.i
  %__data_.i.i.i.i.i.i.i = getelementptr %"class.std::__1::basic_string", ptr %__soon_to_be_end.07.i.i.i, i64 -1, i32 0, i32 0, i32 0, i32 0, i32 0, i32 2
  %2 = load ptr, ptr %__data_.i.i.i.i.i.i.i, align 8, !tbaa !25
  tail call void @_ZdlPv(ptr noundef %2) #25
  br label %_ZNSt3__116allocator_traitsINS_9allocatorINS_12basic_stringIcNS_11char_traitsIcEENS1_IcEEEEEEE7destroyB7v170000IS6_vEEvRS7_PT_.exit.i.i.i

_ZNSt3__116allocator_traitsINS_9allocatorINS_12basic_stringIcNS_11char_traitsIcEENS1_IcEEEEEEE7destroyB7v170000IS6_vEEvRS7_PT_.exit.i.i.i: ; preds = %if.then.i.i.i.i.i.i, %while.body.i.i.i
  %cmp.not.i.i.i = icmp eq ptr %incdec.ptr.i.i.i, %0
  br i1 %cmp.not.i.i.i, label %_ZNSt3__16vectorINS_12basic_stringIcNS_11char_traitsIcEENS_9allocatorIcEEEENS4_IS6_EEE7__clearB7v170000Ev.exit.loopexit.i, label %while.body.i.i.i

_ZNSt3__16vectorINS_12basic_stringIcNS_11char_traitsIcEENS_9allocatorIcEEEENS4_IS6_EEE7__clearB7v170000Ev.exit.loopexit.i: ; preds = %_ZNSt3__116allocator_traitsINS_9allocatorINS_12basic_stringIcNS_11char_traitsIcEENS1_IcEEEEEEE7destroyB7v170000IS6_vEEvRS7_PT_.exit.i.i.i
  %.pre10.i = load ptr, ptr %this, align 8, !tbaa !72
  br label %_ZNSt3__16vectorINS_12basic_stringIcNS_11char_traitsIcEENS_9allocatorIcEEEENS4_IS6_EEE7__clearB7v170000Ev.exit.i

_ZNSt3__16vectorINS_12basic_stringIcNS_11char_traitsIcEENS_9allocatorIcEEEENS4_IS6_EEE7__clearB7v170000Ev.exit.i: ; preds = %_ZNSt3__16vectorINS_12basic_stringIcNS_11char_traitsIcEENS_9allocatorIcEEEENS4_IS6_EEE7__clearB7v170000Ev.exit.loopexit.i, %if.then.i
  %3 = phi ptr [ %.pre10.i, %_ZNSt3__16vectorINS_12basic_stringIcNS_11char_traitsIcEENS_9allocatorIcEEEENS4_IS6_EEE7__clearB7v170000Ev.exit.loopexit.i ], [ %0, %if.then.i ]
  store ptr %0, ptr %__end_.i.i.i, align 8, !tbaa !75
  tail call void @_ZdlPv(ptr noundef %3) #25
  br label %invoke.cont2

invoke.cont2:                                     ; preds = %_ZNSt3__16vectorINS_12basic_stringIcNS_11char_traitsIcEENS_9allocatorIcEEEENS4_IS6_EEE7__clearB7v170000Ev.exit.i, %entry
  ret void
}

; Function Attrs: nounwind uwtable
define linkonce_odr hidden void @_ZNSt3__128__exception_guard_exceptionsINS_6vectorINS_12basic_stringIcNS_11char_traitsIcEENS_9allocatorIcEEEENS5_IS7_EEE16__destroy_vectorEED2B7v170000Ev(ptr noundef nonnull align 8 dereferenceable(9) %this) unnamed_addr #7 comdat align 2 personality ptr @__gxx_personality_v0 {
entry:
  %__completed_ = getelementptr inbounds %"struct.std::__1::__exception_guard_exceptions", ptr %this, i64 0, i32 1
  %0 = load i8, ptr %__completed_, align 8, !tbaa !69, !range !11, !noundef !17
  %tobool.not = icmp eq i8 %0, 0
  br i1 %tobool.not, label %if.then, label %if.end

if.then:                                          ; preds = %entry
  %1 = load ptr, ptr %this, align 8, !tbaa !87
  %2 = load ptr, ptr %1, align 8, !tbaa !72
  %cmp.not.i = icmp eq ptr %2, null
  br i1 %cmp.not.i, label %if.end, label %if.then.i

if.then.i:                                        ; preds = %if.then
  %__end_.i.i.i = getelementptr inbounds %"class.std::__1::vector.51", ptr %1, i64 0, i32 1
  %3 = load ptr, ptr %__end_.i.i.i, align 8, !tbaa !75
  %cmp.not6.i.i.i = icmp eq ptr %3, %2
  br i1 %cmp.not6.i.i.i, label %_ZNSt3__16vectorINS_12basic_stringIcNS_11char_traitsIcEENS_9allocatorIcEEEENS4_IS6_EEE7__clearB7v170000Ev.exit.i, label %while.body.i.i.i

while.body.i.i.i:                                 ; preds = %if.then.i, %_ZNSt3__116allocator_traitsINS_9allocatorINS_12basic_stringIcNS_11char_traitsIcEENS1_IcEEEEEEE7destroyB7v170000IS6_vEEvRS7_PT_.exit.i.i.i
  %__soon_to_be_end.07.i.i.i = phi ptr [ %incdec.ptr.i.i.i, %_ZNSt3__116allocator_traitsINS_9allocatorINS_12basic_stringIcNS_11char_traitsIcEENS1_IcEEEEEEE7destroyB7v170000IS6_vEEvRS7_PT_.exit.i.i.i ], [ %3, %if.then.i ]
  %incdec.ptr.i.i.i = getelementptr inbounds %"class.std::__1::basic_string", ptr %__soon_to_be_end.07.i.i.i, i64 -1
  %bf.load.i.i.i.i.i.i.i = load i8, ptr %incdec.ptr.i.i.i, align 8
  %bf.clear.i.i.i.i.i.i.i = and i8 %bf.load.i.i.i.i.i.i.i, 1
  %tobool.i.not.i.i.i.i.i.i = icmp eq i8 %bf.clear.i.i.i.i.i.i.i, 0
  br i1 %tobool.i.not.i.i.i.i.i.i, label %_ZNSt3__116allocator_traitsINS_9allocatorINS_12basic_stringIcNS_11char_traitsIcEENS1_IcEEEEEEE7destroyB7v170000IS6_vEEvRS7_PT_.exit.i.i.i, label %if.then.i.i.i.i.i.i

if.then.i.i.i.i.i.i:                              ; preds = %while.body.i.i.i
  %__data_.i.i.i.i.i.i.i = getelementptr %"class.std::__1::basic_string", ptr %__soon_to_be_end.07.i.i.i, i64 -1, i32 0, i32 0, i32 0, i32 0, i32 0, i32 2
  %4 = load ptr, ptr %__data_.i.i.i.i.i.i.i, align 8, !tbaa !25
  tail call void @_ZdlPv(ptr noundef %4) #25
  br label %_ZNSt3__116allocator_traitsINS_9allocatorINS_12basic_stringIcNS_11char_traitsIcEENS1_IcEEEEEEE7destroyB7v170000IS6_vEEvRS7_PT_.exit.i.i.i

_ZNSt3__116allocator_traitsINS_9allocatorINS_12basic_stringIcNS_11char_traitsIcEENS1_IcEEEEEEE7destroyB7v170000IS6_vEEvRS7_PT_.exit.i.i.i: ; preds = %if.then.i.i.i.i.i.i, %while.body.i.i.i
  %cmp.not.i.i.i = icmp eq ptr %incdec.ptr.i.i.i, %2
  br i1 %cmp.not.i.i.i, label %_ZNSt3__16vectorINS_12basic_stringIcNS_11char_traitsIcEENS_9allocatorIcEEEENS4_IS6_EEE7__clearB7v170000Ev.exit.loopexit.i, label %while.body.i.i.i

_ZNSt3__16vectorINS_12basic_stringIcNS_11char_traitsIcEENS_9allocatorIcEEEENS4_IS6_EEE7__clearB7v170000Ev.exit.loopexit.i: ; preds = %_ZNSt3__116allocator_traitsINS_9allocatorINS_12basic_stringIcNS_11char_traitsIcEENS1_IcEEEEEEE7destroyB7v170000IS6_vEEvRS7_PT_.exit.i.i.i
  %.pre.i = load ptr, ptr %this, align 8, !tbaa !87
  %.pre10.i = load ptr, ptr %.pre.i, align 8, !tbaa !72
  br label %_ZNSt3__16vectorINS_12basic_stringIcNS_11char_traitsIcEENS_9allocatorIcEEEENS4_IS6_EEE7__clearB7v170000Ev.exit.i

_ZNSt3__16vectorINS_12basic_stringIcNS_11char_traitsIcEENS_9allocatorIcEEEENS4_IS6_EEE7__clearB7v170000Ev.exit.i: ; preds = %_ZNSt3__16vectorINS_12basic_stringIcNS_11char_traitsIcEENS_9allocatorIcEEEENS4_IS6_EEE7__clearB7v170000Ev.exit.loopexit.i, %if.then.i
  %5 = phi ptr [ %.pre10.i, %_ZNSt3__16vectorINS_12basic_stringIcNS_11char_traitsIcEENS_9allocatorIcEEEENS4_IS6_EEE7__clearB7v170000Ev.exit.loopexit.i ], [ %2, %if.then.i ]
  store ptr %2, ptr %__end_.i.i.i, align 8, !tbaa !75
  tail call void @_ZdlPv(ptr noundef %5) #25
  br label %if.end

if.end:                                           ; preds = %_ZNSt3__16vectorINS_12basic_stringIcNS_11char_traitsIcEENS_9allocatorIcEEEENS4_IS6_EEE7__clearB7v170000Ev.exit.i, %if.then, %entry
  ret void
}

; Function Attrs: nounwind uwtable
define linkonce_odr hidden void @_ZNSt3__128__exception_guard_exceptionsINS_29_AllocatorDestroyRangeReverseINS_9allocatorINS_12basic_stringIcNS_11char_traitsIcEENS2_IcEEEEEEPS7_EEED2B7v170000Ev(ptr noundef nonnull align 8 dereferenceable(25) %this) unnamed_addr #7 comdat align 2 personality ptr @__gxx_personality_v0 {
entry:
  %__completed_ = getelementptr inbounds %"struct.std::__1::__exception_guard_exceptions.59", ptr %this, i64 0, i32 1
  %0 = load i8, ptr %__completed_, align 8, !tbaa !76, !range !11, !noundef !17
  %tobool.not = icmp eq i8 %0, 0
  br i1 %tobool.not, label %if.then, label %if.end

if.then:                                          ; preds = %entry
  %__last_.i = getelementptr inbounds %"class.std::__1::_AllocatorDestroyRangeReverse", ptr %this, i64 0, i32 2
  %1 = load ptr, ptr %__last_.i, align 8, !tbaa !88
  %2 = load ptr, ptr %1, align 8, !tbaa !24
  %__first_.i = getelementptr inbounds %"class.std::__1::_AllocatorDestroyRangeReverse", ptr %this, i64 0, i32 1
  %3 = load ptr, ptr %__first_.i, align 8, !tbaa !89
  %4 = load ptr, ptr %3, align 8, !tbaa !24
  %cmp.i.not5.i.i = icmp eq ptr %2, %4
  br i1 %cmp.i.not5.i.i, label %if.end, label %for.body.i.i

for.body.i.i:                                     ; preds = %if.then, %_ZNSt3__116allocator_traitsINS_9allocatorINS_12basic_stringIcNS_11char_traitsIcEENS1_IcEEEEEEE7destroyB7v170000IS6_vEEvRS7_PT_.exit.i.i
  %__first.sroa.1.06.i.i = phi ptr [ %incdec.ptr.i.i.i.i.i.i, %_ZNSt3__116allocator_traitsINS_9allocatorINS_12basic_stringIcNS_11char_traitsIcEENS1_IcEEEEEEE7destroyB7v170000IS6_vEEvRS7_PT_.exit.i.i ], [ %2, %if.then ]
  %incdec.ptr.i.i.i.i.i.i = getelementptr inbounds %"class.std::__1::basic_string", ptr %__first.sroa.1.06.i.i, i64 -1
  %bf.load.i.i.i.i.i.i = load i8, ptr %incdec.ptr.i.i.i.i.i.i, align 8
  %bf.clear.i.i.i.i.i.i = and i8 %bf.load.i.i.i.i.i.i, 1
  %tobool.i.not.i.i.i.i.i = icmp eq i8 %bf.clear.i.i.i.i.i.i, 0
  br i1 %tobool.i.not.i.i.i.i.i, label %_ZNSt3__116allocator_traitsINS_9allocatorINS_12basic_stringIcNS_11char_traitsIcEENS1_IcEEEEEEE7destroyB7v170000IS6_vEEvRS7_PT_.exit.i.i, label %if.then.i.i.i.i.i

if.then.i.i.i.i.i:                                ; preds = %for.body.i.i
  %__data_.i.i.i.i.i.i = getelementptr %"class.std::__1::basic_string", ptr %__first.sroa.1.06.i.i, i64 -1, i32 0, i32 0, i32 0, i32 0, i32 0, i32 2
  %5 = load ptr, ptr %__data_.i.i.i.i.i.i, align 8, !tbaa !25
  tail call void @_ZdlPv(ptr noundef %5) #25
  br label %_ZNSt3__116allocator_traitsINS_9allocatorINS_12basic_stringIcNS_11char_traitsIcEENS1_IcEEEEEEE7destroyB7v170000IS6_vEEvRS7_PT_.exit.i.i

_ZNSt3__116allocator_traitsINS_9allocatorINS_12basic_stringIcNS_11char_traitsIcEENS1_IcEEEEEEE7destroyB7v170000IS6_vEEvRS7_PT_.exit.i.i: ; preds = %if.then.i.i.i.i.i, %for.body.i.i
  %cmp.i.not.i.i = icmp eq ptr %incdec.ptr.i.i.i.i.i.i, %4
  br i1 %cmp.i.not.i.i, label %if.end, label %for.body.i.i, !llvm.loop !90

if.end:                                           ; preds = %_ZNSt3__116allocator_traitsINS_9allocatorINS_12basic_stringIcNS_11char_traitsIcEENS1_IcEEEEEEE7destroyB7v170000IS6_vEEvRS7_PT_.exit.i.i, %if.then, %entry
  ret void
}

declare void @_ZNK9benchmark8internal12PerfCounters13CloseCountersEv(ptr noundef nonnull align 8 dereferenceable(48)) local_unnamed_addr #0

; Function Attrs: inlinehint nounwind uwtable
define internal void @_ZN7testing8internal15TestFactoryImplIN12_GLOBAL__N_134PerfCountersTest_NegativeTest_TestEED0Ev(ptr noundef nonnull align 8 dereferenceable(8) %this) unnamed_addr #5 align 2 {
entry:
  tail call void @_ZdlPv(ptr noundef nonnull %this) #25
  ret void
}

; Function Attrs: uwtable
define internal noundef nonnull ptr @_ZN7testing8internal15TestFactoryImplIN12_GLOBAL__N_134PerfCountersTest_NegativeTest_TestEE10CreateTestEv(ptr nocapture nonnull readnone align 8 %this) unnamed_addr #6 align 2 personality ptr @__gxx_personality_v0 {
entry:
  %call = tail call noalias noundef nonnull dereferenceable(16) ptr @_Znwm(i64 noundef 16) #26
  invoke void @_ZN7testing4TestC2Ev(ptr noundef nonnull align 8 dereferenceable(16) %call)
          to label %invoke.cont unwind label %lpad

invoke.cont:                                      ; preds = %entry
  store ptr getelementptr inbounds ({ [8 x ptr] }, ptr @_ZTVN12_GLOBAL__N_134PerfCountersTest_NegativeTest_TestE, i64 0, inrange i32 0, i64 2), ptr %call, align 8, !tbaa !5
  ret ptr %call

lpad:                                             ; preds = %entry
  %0 = landingpad { ptr, i32 }
          cleanup
  tail call void @_ZdlPv(ptr noundef nonnull %call) #25
  resume { ptr, i32 } %0
}

; Function Attrs: nounwind uwtable
define internal void @_ZN12_GLOBAL__N_134PerfCountersTest_NegativeTest_TestD0Ev(ptr noundef nonnull align 8 dereferenceable(16) %this) unnamed_addr #7 align 2 {
entry:
  tail call void @_ZN7testing4TestD2Ev(ptr noundef nonnull align 8 dereferenceable(16) %this) #24
  tail call void @_ZdlPv(ptr noundef nonnull %this) #25
  ret void
}

; Function Attrs: uwtable
define internal void @_ZN12_GLOBAL__N_134PerfCountersTest_NegativeTest_Test8TestBodyEv(ptr nocapture nonnull readnone align 8 %this) unnamed_addr #6 align 2 personality ptr @__gxx_personality_v0 {
entry:
  %__first2.addr.i.i.i1907 = alloca ptr, align 8
  %__destruct_first.i.i.i1908 = alloca ptr, align 8
  %__guard.i.i.i1909 = alloca %"struct.std::__1::__exception_guard_exceptions.59", align 8
  %__guard.i1910 = alloca %"struct.std::__1::__exception_guard_exceptions", align 8
  %__first2.addr.i.i.i1684 = alloca ptr, align 8
  %__destruct_first.i.i.i1685 = alloca ptr, align 8
  %__guard.i.i.i1686 = alloca %"struct.std::__1::__exception_guard_exceptions.59", align 8
  %__guard.i1687 = alloca %"struct.std::__1::__exception_guard_exceptions", align 8
  %__first2.addr.i.i.i1484 = alloca ptr, align 8
  %__destruct_first.i.i.i1485 = alloca ptr, align 8
  %__guard.i.i.i1486 = alloca %"struct.std::__1::__exception_guard_exceptions.59", align 8
  %__guard.i1487 = alloca %"struct.std::__1::__exception_guard_exceptions", align 8
  %__first2.addr.i.i.i1284 = alloca ptr, align 8
  %__destruct_first.i.i.i1285 = alloca ptr, align 8
  %__guard.i.i.i1286 = alloca %"struct.std::__1::__exception_guard_exceptions.59", align 8
  %__guard.i1287 = alloca %"struct.std::__1::__exception_guard_exceptions", align 8
  %__first2.addr.i.i.i1084 = alloca ptr, align 8
  %__destruct_first.i.i.i1085 = alloca ptr, align 8
  %__guard.i.i.i1086 = alloca %"struct.std::__1::__exception_guard_exceptions.59", align 8
  %__guard.i1087 = alloca %"struct.std::__1::__exception_guard_exceptions", align 8
  %__first2.addr.i.i.i890 = alloca ptr, align 8
  %__destruct_first.i.i.i891 = alloca ptr, align 8
  %__guard.i.i.i892 = alloca %"struct.std::__1::__exception_guard_exceptions.59", align 8
  %__guard.i893 = alloca %"struct.std::__1::__exception_guard_exceptions", align 8
  %__first2.addr.i.i.i = alloca ptr, align 8
  %__destruct_first.i.i.i = alloca ptr, align 8
  %__guard.i.i.i = alloca %"struct.std::__1::__exception_guard_exceptions.59", align 8
  %__guard.i = alloca %"struct.std::__1::__exception_guard_exceptions", align 8
  %gtest_ar_ = alloca %"class.testing::AssertionResult", align 8
  %ref.tmp4 = alloca %"class.testing::Message", align 8
  %ref.tmp5 = alloca %"class.testing::internal::AssertHelper", align 8
  %ref.tmp6 = alloca %"class.std::__1::basic_string", align 8
  %gtest_ar_21 = alloca %"class.testing::AssertionResult", align 8
  %ref.tmp28 = alloca %"class.testing::Message", align 8
  %ref.tmp31 = alloca %"class.testing::internal::AssertHelper", align 8
  %ref.tmp32 = alloca %"class.std::__1::basic_string", align 8
  %gtest_ar_49 = alloca %"class.testing::AssertionResult", align 8
  %ref.tmp51 = alloca %"class.benchmark::internal::PerfCounters", align 8
  %ref.tmp52 = alloca %"class.std::__1::vector.51", align 8
  %ref.tmp68 = alloca %"class.testing::Message", align 8
  %ref.tmp71 = alloca %"class.testing::internal::AssertHelper", align 8
  %ref.tmp72 = alloca %"class.std::__1::basic_string", align 8
  %gtest_ar_89 = alloca %"class.testing::AssertionResult", align 8
  %ref.tmp91 = alloca %"class.benchmark::internal::PerfCounters", align 8
  %ref.tmp92 = alloca %"class.std::__1::vector.51", align 8
  %ref.tmp93 = alloca [1 x %"class.std::__1::basic_string"], align 8
  %ref.tmp128 = alloca %"class.testing::Message", align 8
  %ref.tmp131 = alloca %"class.testing::internal::AssertHelper", align 8
  %ref.tmp132 = alloca %"class.std::__1::basic_string", align 8
  %gtest_ar_149 = alloca %"class.testing::AssertionResult", align 8
  %ref.tmp151 = alloca %"class.benchmark::internal::PerfCounters", align 8
  %ref.tmp152 = alloca %"class.std::__1::vector.51", align 8
  %ref.tmp154 = alloca [1 x %"class.std::__1::basic_string"], align 8
  %ref.tmp200 = alloca %"class.testing::Message", align 8
  %ref.tmp203 = alloca %"class.testing::internal::AssertHelper", align 8
  %ref.tmp204 = alloca %"class.std::__1::basic_string", align 8
  %gtest_ar_221 = alloca %"class.testing::AssertionResult", align 8
  %ref.tmp223 = alloca %"class.benchmark::internal::PerfCounters", align 8
  %ref.tmp224 = alloca %"class.std::__1::vector.51", align 8
  %ref.tmp226 = alloca [3 x %"class.std::__1::basic_string"], align 8
  %ref.tmp274 = alloca %"class.testing::Message", align 8
  %ref.tmp277 = alloca %"class.testing::internal::AssertHelper", align 8
  %ref.tmp278 = alloca %"class.std::__1::basic_string", align 8
  %gtest_ar_295 = alloca %"class.testing::AssertionResult", align 8
  %ref.tmp297 = alloca %"class.benchmark::internal::PerfCounters", align 8
  %ref.tmp298 = alloca %"class.std::__1::vector.51", align 8
  %ref.tmp300 = alloca [3 x %"class.std::__1::basic_string"], align 8
  %ref.tmp350 = alloca %"class.testing::Message", align 8
  %ref.tmp353 = alloca %"class.testing::internal::AssertHelper", align 8
  %ref.tmp354 = alloca %"class.std::__1::basic_string", align 8
  %gtest_ar_371 = alloca %"class.testing::AssertionResult", align 8
  %ref.tmp373 = alloca %"class.benchmark::internal::PerfCounters", align 8
  %ref.tmp374 = alloca %"class.std::__1::vector.51", align 8
  %ref.tmp376 = alloca [3 x %"class.std::__1::basic_string"], align 8
  %ref.tmp426 = alloca %"class.testing::Message", align 8
  %ref.tmp429 = alloca %"class.testing::internal::AssertHelper", align 8
  %ref.tmp430 = alloca %"class.std::__1::basic_string", align 8
  %gtest_ar_447 = alloca %"class.testing::AssertionResult", align 8
  %ref.tmp449 = alloca %"class.benchmark::internal::PerfCounters", align 8
  %ref.tmp450 = alloca %"class.std::__1::vector.51", align 8
  %ref.tmp452 = alloca [3 x %"class.std::__1::basic_string"], align 8
  %ref.tmp501 = alloca %"class.testing::Message", align 8
  %ref.tmp504 = alloca %"class.testing::internal::AssertHelper", align 8
  %ref.tmp505 = alloca %"class.std::__1::basic_string", align 8
  %gtest_ar_522 = alloca %"class.testing::AssertionResult", align 8
  %ref.tmp524 = alloca %"class.benchmark::internal::PerfCounters", align 8
  %ref.tmp525 = alloca %"class.std::__1::vector.51", align 8
  %ref.tmp527 = alloca [4 x %"class.std::__1::basic_string"], align 8
  %ref.tmp579 = alloca %"class.testing::Message", align 8
  %ref.tmp582 = alloca %"class.testing::internal::AssertHelper", align 8
  %ref.tmp583 = alloca %"class.std::__1::basic_string", align 8
  %0 = load i8, ptr @_ZN9benchmark8internal12PerfCounters10kSupportedE, align 1, !tbaa !8, !range !11, !noundef !17
  %tobool.not = icmp eq i8 %0, 0
  br i1 %tobool.not, label %if.then, label %if.end20

if.then:                                          ; preds = %entry
  call void @llvm.lifetime.start.p0(i64 16, ptr nonnull %gtest_ar_) #24
  %call = tail call noundef zeroext i1 @_ZN9benchmark8internal12PerfCounters10InitializeEv()
  %lnot = xor i1 %call, true
  %frombool = zext i1 %lnot to i8
  store i8 %frombool, ptr %gtest_ar_, align 8, !tbaa !18
  %message_.i = getelementptr inbounds %"class.testing::AssertionResult", ptr %gtest_ar_, i64 0, i32 1
  store ptr null, ptr %message_.i, align 8, !tbaa !64
  br i1 %call, label %if.else, label %_ZN7testing15AssertionResultD2Ev.exit

if.else:                                          ; preds = %if.then
  call void @llvm.lifetime.start.p0(i64 8, ptr nonnull %ref.tmp4) #24
  invoke void @_ZN7testing7MessageC1Ev(ptr noundef nonnull align 8 dereferenceable(8) %ref.tmp4)
          to label %invoke.cont unwind label %lpad

invoke.cont:                                      ; preds = %if.else
  call void @llvm.lifetime.start.p0(i64 8, ptr nonnull %ref.tmp5) #24
  call void @llvm.lifetime.start.p0(i64 24, ptr nonnull %ref.tmp6) #24
  invoke void @_ZN7testing8internal30GetBoolAssertionFailureMessageERKNS_15AssertionResultEPKcS5_S5_(ptr nonnull sret(%"class.std::__1::basic_string") align 8 %ref.tmp6, ptr noundef nonnull align 8 dereferenceable(16) %gtest_ar_, ptr noundef nonnull @.str.19, ptr noundef nonnull @.str.21, ptr noundef nonnull @.str.22)
          to label %invoke.cont8 unwind label %lpad7

invoke.cont8:                                     ; preds = %invoke.cont
  %bf.load.i.i.i.i = load i8, ptr %ref.tmp6, align 8
  %bf.clear.i.i.i.i = and i8 %bf.load.i.i.i.i, 1
  %tobool.i.not.i.i.i = icmp eq i8 %bf.clear.i.i.i.i, 0
  %__data_.i.i.i.i = getelementptr inbounds %"struct.std::__1::basic_string<char>::__long", ptr %ref.tmp6, i64 0, i32 2
  %1 = load ptr, ptr %__data_.i.i.i.i, align 8
  %__data_.i4.i.i.i = getelementptr inbounds %"struct.std::__1::basic_string<char>::__short", ptr %ref.tmp6, i64 0, i32 2
  %cond.i.i.i = select i1 %tobool.i.not.i.i.i, ptr %__data_.i4.i.i.i, ptr %1
  invoke void @_ZN7testing8internal12AssertHelperC1ENS_14TestPartResult4TypeEPKciS5_(ptr noundef nonnull align 8 dereferenceable(8) %ref.tmp5, i32 noundef 1, ptr noundef nonnull @.str.4, i32 noundef 36, ptr noundef %cond.i.i.i)
          to label %invoke.cont11 unwind label %lpad10

invoke.cont11:                                    ; preds = %invoke.cont8
  invoke void @_ZNK7testing8internal12AssertHelperaSERKNS_7MessageE(ptr noundef nonnull align 8 dereferenceable(8) %ref.tmp5, ptr noundef nonnull align 8 dereferenceable(8) %ref.tmp4)
          to label %invoke.cont13 unwind label %lpad12

invoke.cont13:                                    ; preds = %invoke.cont11
  call void @_ZN7testing8internal12AssertHelperD1Ev(ptr noundef nonnull align 8 dereferenceable(8) %ref.tmp5) #24
  %bf.load.i.i = load i8, ptr %ref.tmp6, align 8
  %bf.clear.i.i = and i8 %bf.load.i.i, 1
  %tobool.i.not.i = icmp eq i8 %bf.clear.i.i, 0
  br i1 %tobool.i.not.i, label %_ZNSt3__112basic_stringIcNS_11char_traitsIcEENS_9allocatorIcEEED2Ev.exit, label %if.then.i

if.then.i:                                        ; preds = %invoke.cont13
  %2 = load ptr, ptr %__data_.i.i.i.i, align 8, !tbaa !25
  call void @_ZdlPv(ptr noundef %2) #25
  br label %_ZNSt3__112basic_stringIcNS_11char_traitsIcEENS_9allocatorIcEEED2Ev.exit

_ZNSt3__112basic_stringIcNS_11char_traitsIcEENS_9allocatorIcEEED2Ev.exit: ; preds = %invoke.cont13, %if.then.i
  call void @llvm.lifetime.end.p0(i64 24, ptr nonnull %ref.tmp6) #24
  call void @llvm.lifetime.end.p0(i64 8, ptr nonnull %ref.tmp5) #24
  %3 = load ptr, ptr %ref.tmp4, align 8, !tbaa !24
  store ptr null, ptr %ref.tmp4, align 8, !tbaa !24
  %tobool.not.i.i.i = icmp eq ptr %3, null
  br i1 %tobool.not.i.i.i, label %if.end, label %_ZNKSt3__114default_deleteINS_18basic_stringstreamIcNS_11char_traitsIcEENS_9allocatorIcEEEEEclB7v170000EPS6_.exit.i.i.i

_ZNKSt3__114default_deleteINS_18basic_stringstreamIcNS_11char_traitsIcEENS_9allocatorIcEEEEEclB7v170000EPS6_.exit.i.i.i: ; preds = %_ZNSt3__112basic_stringIcNS_11char_traitsIcEENS_9allocatorIcEEED2Ev.exit
  %vtable.i.i.i.i = load ptr, ptr %3, align 8, !tbaa !5
  %vfn.i.i.i.i = getelementptr inbounds ptr, ptr %vtable.i.i.i.i, i64 1
  %4 = load ptr, ptr %vfn.i.i.i.i, align 8
  call void %4(ptr noundef nonnull align 8 dereferenceable(128) %3) #24
  br label %if.end

