; ModuleID = '/local/mnt2/workspace2/mnadeem/llvm/llvm-test-suite/MicroBenchmarks/ImageProcessing/utils/ImageHelper.cpp'
source_filename = "/local/mnt2/workspace2/mnadeem/llvm/llvm-test-suite/MicroBenchmarks/ImageProcessing/utils/ImageHelper.cpp"
target datalayout = "e-m:e-p270:32:32-p271:32:32-p272:64:64-i64:64-f80:128-n8:16:32:64-S128"
target triple = "x86_64-unknown-linux-gnu"

%"class.std::__1::basic_ostream" = type { ptr, %"class.std::__1::basic_ios.base" }
%"class.std::__1::basic_ios.base" = type <{ %"class.std::__1::ios_base", ptr, i32 }>
%"class.std::__1::ios_base" = type { ptr, i32, i64, i64, i32, i32, ptr, ptr, ptr, ptr, i64, i64, ptr, i64, i64, ptr, i64, i64 }
%"class.std::__1::locale::id" = type <{ %"struct.std::__1::once_flag", i32, [4 x i8] }>
%"struct.std::__1::once_flag" = type { i64 }
%"class.std::__1::locale" = type { ptr }
%"class.std::__1::basic_ofstream" = type { %"class.std::__1::basic_ostream.base", %"class.std::__1::basic_filebuf", %"class.std::__1::basic_ios.base" }
%"class.std::__1::basic_ostream.base" = type { ptr }
%"class.std::__1::basic_filebuf" = type <{ %"class.std::__1::basic_streambuf", ptr, ptr, ptr, [8 x i8], i64, ptr, i64, ptr, ptr, %struct.__mbstate_t, %struct.__mbstate_t, i32, i32, i8, i8, i8, [5 x i8] }>
%"class.std::__1::basic_streambuf" = type { ptr, %"class.std::__1::locale", ptr, ptr, ptr, ptr, ptr, ptr }
%struct.__mbstate_t = type { i32, %union.anon }
%union.anon = type { i32 }
%"class.std::__1::basic_ifstream" = type { %"class.std::__1::basic_istream.base", %"class.std::__1::basic_filebuf", %"class.std::__1::basic_ios.base" }
%"class.std::__1::basic_istream.base" = type { ptr, i64 }
%"class.std::__1::basic_istream" = type { ptr, i64, %"class.std::__1::basic_ios.base" }
%"class.std::__1::basic_ostream<char>::sentry" = type { i8, ptr }
%"class.std::__1::basic_ios" = type <{ %"class.std::__1::ios_base", ptr, i32, [4 x i8] }>
%"class.std::__1::basic_string" = type { %"class.std::__1::__compressed_pair.2" }
%"class.std::__1::__compressed_pair.2" = type { %"struct.std::__1::__compressed_pair_elem.3" }
%"struct.std::__1::__compressed_pair_elem.3" = type { %"struct.std::__1::basic_string<char>::__rep" }
%"struct.std::__1::basic_string<char>::__rep" = type { %union.anon.4 }
%union.anon.4 = type { %"struct.std::__1::basic_string<char>::__long" }
%"struct.std::__1::basic_string<char>::__long" = type { %struct.anon, i64, ptr }
%struct.anon = type { i64 }
%"struct.std::__1::basic_string<char>::__short" = type { %struct.anon.5, [0 x i8], [23 x i8] }
%struct.anon.5 = type { i8 }

$_ZNSt3__14endlB7v170000IcNS_11char_traitsIcEEEERNS_13basic_ostreamIT_T0_EES7_ = comdat any

$_ZNSt3__114basic_ofstreamIcNS_11char_traitsIcEEED1Ev = comdat any

$_ZNSt3__114basic_ifstreamIcNS_11char_traitsIcEEED1Ev = comdat any

$_ZTv0_n24_NSt3__114basic_ofstreamIcNS_11char_traitsIcEEED1Ev = comdat any

$_ZNSt3__114basic_ofstreamIcNS_11char_traitsIcEEED0Ev = comdat any

$_ZTv0_n24_NSt3__114basic_ofstreamIcNS_11char_traitsIcEEED0Ev = comdat any

$_ZNSt3__113basic_filebufIcNS_11char_traitsIcEEED2Ev = comdat any

$__clang_call_terminate = comdat any

$_ZNSt3__113basic_filebufIcNS_11char_traitsIcEEED0Ev = comdat any

$_ZNSt3__113basic_filebufIcNS_11char_traitsIcEEE5imbueERKNS_6localeE = comdat any

$_ZNSt3__113basic_filebufIcNS_11char_traitsIcEEE6setbufEPcl = comdat any

$_ZNSt3__113basic_filebufIcNS_11char_traitsIcEEE7seekoffExNS_8ios_base7seekdirEj = comdat any

$_ZNSt3__113basic_filebufIcNS_11char_traitsIcEEE7seekposENS_4fposI11__mbstate_tEEj = comdat any

$_ZNSt3__113basic_filebufIcNS_11char_traitsIcEEE4syncEv = comdat any

$_ZNSt3__113basic_filebufIcNS_11char_traitsIcEEE9underflowEv = comdat any

$_ZNSt3__113basic_filebufIcNS_11char_traitsIcEEE9pbackfailEi = comdat any

$_ZNSt3__113basic_filebufIcNS_11char_traitsIcEEE8overflowEi = comdat any

$_ZNSt3__116__throw_bad_castB7v170000Ev = comdat any

$_ZTv0_n24_NSt3__114basic_ifstreamIcNS_11char_traitsIcEEED1Ev = comdat any

$_ZNSt3__114basic_ifstreamIcNS_11char_traitsIcEEED0Ev = comdat any

$_ZTv0_n24_NSt3__114basic_ifstreamIcNS_11char_traitsIcEEED0Ev = comdat any

$_ZNSt3__113basic_filebufIcNS_11char_traitsIcEEEC2Ev = comdat any

$_ZNSt3__124__put_character_sequenceB7v170000IcNS_11char_traitsIcEEEERNS_13basic_ostreamIT_T0_EES7_PKS4_m = comdat any

$_ZNSt3__116__pad_and_outputB7v170000IcNS_11char_traitsIcEEEENS_19ostreambuf_iteratorIT_T0_EES6_PKS4_S8_S8_RNS_8ios_baseES4_ = comdat any

$_ZTVNSt3__114basic_ofstreamIcNS_11char_traitsIcEEEE = comdat any

$_ZTTNSt3__114basic_ofstreamIcNS_11char_traitsIcEEEE = comdat any

$_ZTCNSt3__114basic_ofstreamIcNS_11char_traitsIcEEEE0_NS_13basic_ostreamIcS2_EE = comdat any

$_ZTSNSt3__114basic_ofstreamIcNS_11char_traitsIcEEEE = comdat any

$_ZTINSt3__114basic_ofstreamIcNS_11char_traitsIcEEEE = comdat any

$_ZTVNSt3__113basic_filebufIcNS_11char_traitsIcEEEE = comdat any

$_ZTSNSt3__113basic_filebufIcNS_11char_traitsIcEEEE = comdat any

$_ZTINSt3__113basic_filebufIcNS_11char_traitsIcEEEE = comdat any

$_ZTVNSt3__114basic_ifstreamIcNS_11char_traitsIcEEEE = comdat any

$_ZTTNSt3__114basic_ifstreamIcNS_11char_traitsIcEEEE = comdat any

$_ZTCNSt3__114basic_ifstreamIcNS_11char_traitsIcEEEE0_NS_13basic_istreamIcS2_EE = comdat any

$_ZTSNSt3__114basic_ifstreamIcNS_11char_traitsIcEEEE = comdat any

$_ZTINSt3__114basic_ifstreamIcNS_11char_traitsIcEEEE = comdat any

@.str = private unnamed_addr constant [2 x i8] c" \00", align 1
@_ZNSt3__14cerrE = external global %"class.std::__1::basic_ostream", align 8
@.str.1 = private unnamed_addr constant [18 x i8] c" Can't open file \00", align 1
@_ZTVNSt3__114basic_ofstreamIcNS_11char_traitsIcEEEE = linkonce_odr dso_local unnamed_addr constant { [5 x ptr], [5 x ptr] } { [5 x ptr] [ptr inttoptr (i64 176 to ptr), ptr null, ptr @_ZTINSt3__114basic_ofstreamIcNS_11char_traitsIcEEEE, ptr @_ZNSt3__114basic_ofstreamIcNS_11char_traitsIcEEED1Ev, ptr @_ZNSt3__114basic_ofstreamIcNS_11char_traitsIcEEED0Ev], [5 x ptr] [ptr inttoptr (i64 -176 to ptr), ptr inttoptr (i64 -176 to ptr), ptr @_ZTINSt3__114basic_ofstreamIcNS_11char_traitsIcEEEE, ptr @_ZTv0_n24_NSt3__114basic_ofstreamIcNS_11char_traitsIcEEED1Ev, ptr @_ZTv0_n24_NSt3__114basic_ofstreamIcNS_11char_traitsIcEEED0Ev] }, comdat, align 8
@_ZTTNSt3__114basic_ofstreamIcNS_11char_traitsIcEEEE = linkonce_odr dso_local unnamed_addr constant [4 x ptr] [ptr getelementptr inbounds ({ [5 x ptr], [5 x ptr] }, ptr @_ZTVNSt3__114basic_ofstreamIcNS_11char_traitsIcEEEE, i32 0, inrange i32 0, i32 3), ptr getelementptr inbounds ({ [5 x ptr], [5 x ptr] }, ptr @_ZTCNSt3__114basic_ofstreamIcNS_11char_traitsIcEEEE0_NS_13basic_ostreamIcS2_EE, i32 0, inrange i32 0, i32 3), ptr getelementptr inbounds ({ [5 x ptr], [5 x ptr] }, ptr @_ZTCNSt3__114basic_ofstreamIcNS_11char_traitsIcEEEE0_NS_13basic_ostreamIcS2_EE, i32 0, inrange i32 1, i32 3), ptr getelementptr inbounds ({ [5 x ptr], [5 x ptr] }, ptr @_ZTVNSt3__114basic_ofstreamIcNS_11char_traitsIcEEEE, i32 0, inrange i32 1, i32 3)], comdat, align 8
@_ZTCNSt3__114basic_ofstreamIcNS_11char_traitsIcEEEE0_NS_13basic_ostreamIcS2_EE = linkonce_odr dso_local unnamed_addr constant { [5 x ptr], [5 x ptr] } { [5 x ptr] [ptr inttoptr (i64 176 to ptr), ptr null, ptr @_ZTINSt3__113basic_ostreamIcNS_11char_traitsIcEEEE, ptr @_ZNSt3__113basic_ostreamIcNS_11char_traitsIcEEED1Ev, ptr @_ZNSt3__113basic_ostreamIcNS_11char_traitsIcEEED0Ev], [5 x ptr] [ptr inttoptr (i64 -176 to ptr), ptr inttoptr (i64 -176 to ptr), ptr @_ZTINSt3__113basic_ostreamIcNS_11char_traitsIcEEEE, ptr @_ZTv0_n24_NSt3__113basic_ostreamIcNS_11char_traitsIcEEED1Ev, ptr @_ZTv0_n24_NSt3__113basic_ostreamIcNS_11char_traitsIcEEED0Ev] }, comdat, align 8
@_ZTINSt3__113basic_ostreamIcNS_11char_traitsIcEEEE = external constant ptr
@_ZTVN10__cxxabiv120__si_class_type_infoE = external global ptr
@_ZTSNSt3__114basic_ofstreamIcNS_11char_traitsIcEEEE = linkonce_odr dso_local constant [48 x i8] c"NSt3__114basic_ofstreamIcNS_11char_traitsIcEEEE\00", comdat, align 1
@_ZTINSt3__114basic_ofstreamIcNS_11char_traitsIcEEEE = linkonce_odr dso_local constant { ptr, ptr, ptr } { ptr getelementptr inbounds (ptr, ptr @_ZTVN10__cxxabiv120__si_class_type_infoE, i64 2), ptr @_ZTSNSt3__114basic_ofstreamIcNS_11char_traitsIcEEEE, ptr @_ZTINSt3__113basic_ostreamIcNS_11char_traitsIcEEEE }, comdat, align 8
@_ZTVNSt3__113basic_filebufIcNS_11char_traitsIcEEEE = linkonce_odr dso_local unnamed_addr constant { [16 x ptr] } { [16 x ptr] [ptr null, ptr @_ZTINSt3__113basic_filebufIcNS_11char_traitsIcEEEE, ptr @_ZNSt3__113basic_filebufIcNS_11char_traitsIcEEED2Ev, ptr @_ZNSt3__113basic_filebufIcNS_11char_traitsIcEEED0Ev, ptr @_ZNSt3__113basic_filebufIcNS_11char_traitsIcEEE5imbueERKNS_6localeE, ptr @_ZNSt3__113basic_filebufIcNS_11char_traitsIcEEE6setbufEPcl, ptr @_ZNSt3__113basic_filebufIcNS_11char_traitsIcEEE7seekoffExNS_8ios_base7seekdirEj, ptr @_ZNSt3__113basic_filebufIcNS_11char_traitsIcEEE7seekposENS_4fposI11__mbstate_tEEj, ptr @_ZNSt3__113basic_filebufIcNS_11char_traitsIcEEE4syncEv, ptr @_ZNSt3__115basic_streambufIcNS_11char_traitsIcEEE9showmanycEv, ptr @_ZNSt3__115basic_streambufIcNS_11char_traitsIcEEE6xsgetnEPcl, ptr @_ZNSt3__113basic_filebufIcNS_11char_traitsIcEEE9underflowEv, ptr @_ZNSt3__115basic_streambufIcNS_11char_traitsIcEEE5uflowEv, ptr @_ZNSt3__113basic_filebufIcNS_11char_traitsIcEEE9pbackfailEi, ptr @_ZNSt3__115basic_streambufIcNS_11char_traitsIcEEE6xsputnEPKcl, ptr @_ZNSt3__113basic_filebufIcNS_11char_traitsIcEEE8overflowEi] }, comdat, align 8
@_ZTSNSt3__113basic_filebufIcNS_11char_traitsIcEEEE = linkonce_odr dso_local constant [47 x i8] c"NSt3__113basic_filebufIcNS_11char_traitsIcEEEE\00", comdat, align 1
@_ZTINSt3__115basic_streambufIcNS_11char_traitsIcEEEE = external constant ptr
@_ZTINSt3__113basic_filebufIcNS_11char_traitsIcEEEE = linkonce_odr dso_local constant { ptr, ptr, ptr } { ptr getelementptr inbounds (ptr, ptr @_ZTVN10__cxxabiv120__si_class_type_infoE, i64 2), ptr @_ZTSNSt3__113basic_filebufIcNS_11char_traitsIcEEEE, ptr @_ZTINSt3__115basic_streambufIcNS_11char_traitsIcEEEE }, comdat, align 8
@_ZNSt3__17codecvtIcc11__mbstate_tE2idE = external global %"class.std::__1::locale::id", align 8
@_ZTISt8bad_cast = external constant ptr
@_ZTVNSt3__114basic_ifstreamIcNS_11char_traitsIcEEEE = linkonce_odr dso_local unnamed_addr constant { [5 x ptr], [5 x ptr] } { [5 x ptr] [ptr inttoptr (i64 184 to ptr), ptr null, ptr @_ZTINSt3__114basic_ifstreamIcNS_11char_traitsIcEEEE, ptr @_ZNSt3__114basic_ifstreamIcNS_11char_traitsIcEEED1Ev, ptr @_ZNSt3__114basic_ifstreamIcNS_11char_traitsIcEEED0Ev], [5 x ptr] [ptr inttoptr (i64 -184 to ptr), ptr inttoptr (i64 -184 to ptr), ptr @_ZTINSt3__114basic_ifstreamIcNS_11char_traitsIcEEEE, ptr @_ZTv0_n24_NSt3__114basic_ifstreamIcNS_11char_traitsIcEEED1Ev, ptr @_ZTv0_n24_NSt3__114basic_ifstreamIcNS_11char_traitsIcEEED0Ev] }, comdat, align 8
@_ZTTNSt3__114basic_ifstreamIcNS_11char_traitsIcEEEE = linkonce_odr dso_local unnamed_addr constant [4 x ptr] [ptr getelementptr inbounds ({ [5 x ptr], [5 x ptr] }, ptr @_ZTVNSt3__114basic_ifstreamIcNS_11char_traitsIcEEEE, i32 0, inrange i32 0, i32 3), ptr getelementptr inbounds ({ [5 x ptr], [5 x ptr] }, ptr @_ZTCNSt3__114basic_ifstreamIcNS_11char_traitsIcEEEE0_NS_13basic_istreamIcS2_EE, i32 0, inrange i32 0, i32 3), ptr getelementptr inbounds ({ [5 x ptr], [5 x ptr] }, ptr @_ZTCNSt3__114basic_ifstreamIcNS_11char_traitsIcEEEE0_NS_13basic_istreamIcS2_EE, i32 0, inrange i32 1, i32 3), ptr getelementptr inbounds ({ [5 x ptr], [5 x ptr] }, ptr @_ZTVNSt3__114basic_ifstreamIcNS_11char_traitsIcEEEE, i32 0, inrange i32 1, i32 3)], comdat, align 8
@_ZTCNSt3__114basic_ifstreamIcNS_11char_traitsIcEEEE0_NS_13basic_istreamIcS2_EE = linkonce_odr dso_local unnamed_addr constant { [5 x ptr], [5 x ptr] } { [5 x ptr] [ptr inttoptr (i64 184 to ptr), ptr null, ptr @_ZTINSt3__113basic_istreamIcNS_11char_traitsIcEEEE, ptr @_ZNSt3__113basic_istreamIcNS_11char_traitsIcEEED1Ev, ptr @_ZNSt3__113basic_istreamIcNS_11char_traitsIcEEED0Ev], [5 x ptr] [ptr inttoptr (i64 -184 to ptr), ptr inttoptr (i64 -184 to ptr), ptr @_ZTINSt3__113basic_istreamIcNS_11char_traitsIcEEEE, ptr @_ZTv0_n24_NSt3__113basic_istreamIcNS_11char_traitsIcEEED1Ev, ptr @_ZTv0_n24_NSt3__113basic_istreamIcNS_11char_traitsIcEEED0Ev] }, comdat, align 8
@_ZTINSt3__113basic_istreamIcNS_11char_traitsIcEEEE = external constant ptr
@_ZTSNSt3__114basic_ifstreamIcNS_11char_traitsIcEEEE = linkonce_odr dso_local constant [48 x i8] c"NSt3__114basic_ifstreamIcNS_11char_traitsIcEEEE\00", comdat, align 1
@_ZTINSt3__114basic_ifstreamIcNS_11char_traitsIcEEEE = linkonce_odr dso_local constant { ptr, ptr, ptr } { ptr getelementptr inbounds (ptr, ptr @_ZTVN10__cxxabiv120__si_class_type_infoE, i64 2), ptr @_ZTSNSt3__114basic_ifstreamIcNS_11char_traitsIcEEEE, ptr @_ZTINSt3__113basic_istreamIcNS_11char_traitsIcEEEE }, comdat, align 8
@.str.2 = private unnamed_addr constant [2 x i8] c"w\00", align 1
@.str.10 = private unnamed_addr constant [3 x i8] c"rb\00", align 1
@_ZNSt3__15ctypeIcE2idE = external global %"class.std::__1::locale::id", align 8

; Function Attrs: mustprogress uwtable
define dso_local void @_Z21initializeRandomImagePiii(ptr nocapture noundef writeonly %image, i32 noundef %height, i32 noundef %width) local_unnamed_addr #0 {
entry:
  tail call void @glibc_compat_srand(i32 noundef 7)
  %cmp15 = icmp sgt i32 %height, 0
  %cmp213 = icmp sgt i32 %width, 0
  %or.cond = and i1 %cmp15, %cmp213
  br i1 %or.cond, label %for.cond1.preheader.us.preheader, label %for.cond.cleanup

for.cond1.preheader.us.preheader:                 ; preds = %entry
  %0 = zext i32 %width to i64
  %wide.trip.count24 = zext i32 %height to i64
  %wide.trip.count = zext i32 %width to i64
  br label %for.cond1.preheader.us

for.cond1.preheader.us:                           ; preds = %for.cond1.preheader.us.preheader, %for.cond1.for.cond.cleanup3_crit_edge.us
  %indvars.iv20 = phi i64 [ 0, %for.cond1.preheader.us.preheader ], [ %indvars.iv.next21, %for.cond1.for.cond.cleanup3_crit_edge.us ]
  %1 = mul nsw i64 %indvars.iv20, %0
  br label %for.body4.us

for.body4.us:                                     ; preds = %for.cond1.preheader.us, %for.body4.us
  %indvars.iv = phi i64 [ 0, %for.cond1.preheader.us ], [ %indvars.iv.next, %for.body4.us ]
  %call.us = tail call i32 @glibc_compat_rand()
  %rem.us = srem i32 %call.us, 256
  %2 = add nuw nsw i64 %indvars.iv, %1
  %arrayidx.us = getelementptr inbounds i32, ptr %image, i64 %2
  store i32 %rem.us, ptr %arrayidx.us, align 4, !tbaa !5
  %indvars.iv.next = add nuw nsw i64 %indvars.iv, 1
  %exitcond.not = icmp eq i64 %indvars.iv.next, %wide.trip.count
  br i1 %exitcond.not, label %for.cond1.for.cond.cleanup3_crit_edge.us, label %for.body4.us, !llvm.loop !9

for.cond1.for.cond.cleanup3_crit_edge.us:         ; preds = %for.body4.us
  %indvars.iv.next21 = add nuw nsw i64 %indvars.iv20, 1
  %exitcond25.not = icmp eq i64 %indvars.iv.next21, %wide.trip.count24
  br i1 %exitcond25.not, label %for.cond.cleanup, label %for.cond1.preheader.us, !llvm.loop !11

for.cond.cleanup:                                 ; preds = %for.cond1.for.cond.cleanup3_crit_edge.us, %entry
  ret void
}

declare void @glibc_compat_srand(i32 noundef) local_unnamed_addr #1

; Function Attrs: mustprogress nocallback nofree nosync nounwind willreturn memory(argmem: readwrite)
declare void @llvm.lifetime.start.p0(i64 immarg, ptr nocapture) #2

declare i32 @glibc_compat_rand() local_unnamed_addr #1

; Function Attrs: mustprogress nocallback nofree nosync nounwind willreturn memory(argmem: readwrite)
declare void @llvm.lifetime.end.p0(i64 immarg, ptr nocapture) #2

; Function Attrs: uwtable
define dso_local void @_Z9saveImagePiPKcii(ptr nocapture noundef readonly %image, ptr nocapture noundef readonly %outputFile, i32 noundef %height, i32 noundef %width) local_unnamed_addr #3 personality ptr @__gxx_personality_v0 {
entry:
  %ref.tmp.i.i = alloca %"class.std::__1::locale", align 8
  %outfile = alloca %"class.std::__1::basic_ofstream", align 8
  call void @llvm.lifetime.start.p0(i64 328, ptr nonnull %outfile) #19
  %0 = getelementptr inbounds i8, ptr %outfile, i64 176
  %__sb_.i = getelementptr inbounds %"class.std::__1::basic_ofstream", ptr %outfile, i64 0, i32 1
  store ptr getelementptr inbounds ({ [5 x ptr], [5 x ptr] }, ptr @_ZTCNSt3__114basic_ofstreamIcNS_11char_traitsIcEEEE0_NS_13basic_ostreamIcS2_EE, i64 0, inrange i32 0, i64 3), ptr %outfile, align 8, !tbaa !12
  store ptr getelementptr inbounds ({ [5 x ptr], [5 x ptr] }, ptr @_ZTCNSt3__114basic_ofstreamIcNS_11char_traitsIcEEEE0_NS_13basic_ostreamIcS2_EE, i64 0, inrange i32 1, i64 3), ptr %0, align 8, !tbaa !12
  invoke void @_ZNSt3__18ios_base4initEPv(ptr noundef nonnull align 8 dereferenceable(136) %0, ptr noundef nonnull %__sb_.i)
          to label %invoke.cont.i unwind label %lpad.i

invoke.cont.i:                                    ; preds = %entry
  %__tie_.i.i.i = getelementptr inbounds i8, ptr %outfile, i64 312
  store ptr null, ptr %__tie_.i.i.i, align 8, !tbaa !14
  %__fill_.i.i.i = getelementptr inbounds i8, ptr %outfile, i64 320
  store i32 -1, ptr %__fill_.i.i.i, align 8, !tbaa !19
  store ptr getelementptr inbounds ({ [5 x ptr], [5 x ptr] }, ptr @_ZTVNSt3__114basic_ofstreamIcNS_11char_traitsIcEEEE, i64 0, inrange i32 0, i64 3), ptr %outfile, align 8, !tbaa !12
  store ptr getelementptr inbounds ({ [5 x ptr], [5 x ptr] }, ptr @_ZTVNSt3__114basic_ofstreamIcNS_11char_traitsIcEEEE, i64 0, inrange i32 1, i64 3), ptr %0, align 8, !tbaa !12
  invoke void @_ZNSt3__113basic_filebufIcNS_11char_traitsIcEEEC2Ev(ptr noundef nonnull align 8 dereferenceable(163) %__sb_.i)
          to label %_ZNSt3__114basic_ofstreamIcNS_11char_traitsIcEEEC1Ev.exit unwind label %lpad4.i

lpad.i:                                           ; preds = %entry
  %1 = landingpad { ptr, i32 }
          cleanup
  br label %ehcleanup.i

lpad4.i:                                          ; preds = %invoke.cont.i
  %2 = landingpad { ptr, i32 }
          cleanup
  call void @_ZNSt3__113basic_ostreamIcNS_11char_traitsIcEEED2Ev(ptr noundef nonnull align 8 dereferenceable(8) %outfile, ptr noundef nonnull getelementptr inbounds ([4 x ptr], ptr @_ZTTNSt3__114basic_ofstreamIcNS_11char_traitsIcEEEE, i64 0, i64 1)) #19
  br label %ehcleanup.i

common.resume:                                    ; preds = %ehcleanup36, %ehcleanup.i
  %common.resume.op = phi { ptr, i32 } [ %.pn.i, %ehcleanup.i ], [ %.pn.pn, %ehcleanup36 ]
  resume { ptr, i32 } %common.resume.op

ehcleanup.i:                                      ; preds = %lpad4.i, %lpad.i
  %.pn.i = phi { ptr, i32 } [ %2, %lpad4.i ], [ %1, %lpad.i ]
  call void @_ZNSt3__19basic_iosIcNS_11char_traitsIcEEED2Ev(ptr noundef nonnull align 8 dereferenceable(148) %0) #19
  br label %common.resume

_ZNSt3__114basic_ofstreamIcNS_11char_traitsIcEEEC1Ev.exit: ; preds = %invoke.cont.i
  %__file_.i = getelementptr inbounds %"class.std::__1::basic_ofstream", ptr %outfile, i64 0, i32 1, i32 8
  %3 = load ptr, ptr %__file_.i, align 8, !tbaa !20
  %cmp.i = icmp eq ptr %3, null
  br i1 %cmp.i, label %if.then.i, label %if.else.i

if.then.i:                                        ; preds = %_ZNSt3__114basic_ofstreamIcNS_11char_traitsIcEEEC1Ev.exit
  %call3.i = call ptr @fopen(ptr noundef %outputFile, ptr noundef nonnull @.str.2)
  store ptr %call3.i, ptr %__file_.i, align 8, !tbaa !20
  %tobool6.not.i = icmp eq ptr %call3.i, null
  br i1 %tobool6.not.i, label %if.else.i, label %call.i.noexc

call.i.noexc:                                     ; preds = %if.then.i
  %__om_.i = getelementptr inbounds %"class.std::__1::basic_ofstream", ptr %outfile, i64 0, i32 1, i32 12
  store i32 48, ptr %__om_.i, align 8, !tbaa !26
  %vtable2.i = load ptr, ptr %outfile, align 8, !tbaa !12
  %vbase.offset.ptr3.i = getelementptr i8, ptr %vtable2.i, i64 -24
  %vbase.offset4.i = load i64, ptr %vbase.offset.ptr3.i, align 8
  %add.ptr5.i = getelementptr inbounds i8, ptr %outfile, i64 %vbase.offset4.i
  br label %if.end.i

if.else.i:                                        ; preds = %_ZNSt3__114basic_ofstreamIcNS_11char_traitsIcEEEC1Ev.exit, %if.then.i
  %vtable2.i69 = load ptr, ptr %outfile, align 8, !tbaa !12
  %vbase.offset.ptr3.i70 = getelementptr i8, ptr %vtable2.i69, i64 -24
  %vbase.offset4.i71 = load i64, ptr %vbase.offset.ptr3.i70, align 8
  %add.ptr5.i72 = getelementptr inbounds i8, ptr %outfile, i64 %vbase.offset4.i71
  %__rdstate_.i.i.i = getelementptr inbounds %"class.std::__1::ios_base", ptr %add.ptr5.i72, i64 0, i32 4
  %4 = load i32, ptr %__rdstate_.i.i.i, align 8, !tbaa !27
  %or.i.i.i = or i32 %4, 4
  br label %if.end.i

if.end.i:                                         ; preds = %call.i.noexc, %if.else.i
  %add.ptr5.i74 = phi ptr [ %add.ptr5.i72, %if.else.i ], [ %add.ptr5.i, %call.i.noexc ]
  %or.i.i.sink.i = phi i32 [ %or.i.i.i, %if.else.i ], [ 0, %call.i.noexc ]
  invoke void @_ZNSt3__18ios_base5clearEj(ptr noundef nonnull align 8 dereferenceable(136) %add.ptr5.i74, i32 noundef %or.i.i.sink.i)
          to label %for.cond.preheader unwind label %lpad

for.cond.preheader:                               ; preds = %if.end.i
  %cmp77 = icmp sgt i32 %height, 0
  br i1 %cmp77, label %for.cond1.preheader.lr.ph, label %for.cond.cleanup

for.cond1.preheader.lr.ph:                        ; preds = %for.cond.preheader
  %cmp275 = icmp sgt i32 %width, 0
  br i1 %cmp275, label %for.cond1.preheader.us.preheader, label %for.cond1.preheader

for.cond1.preheader.us.preheader:                 ; preds = %for.cond1.preheader.lr.ph
  %5 = zext i32 %width to i64
  %wide.trip.count89 = zext i32 %height to i64
  %wide.trip.count = zext i32 %width to i64
  br label %for.cond1.preheader.us

for.cond1.preheader.us:                           ; preds = %for.cond1.preheader.us.preheader, %for.inc33.us
  %indvars.iv85 = phi i64 [ 0, %for.cond1.preheader.us.preheader ], [ %indvars.iv.next86, %for.inc33.us ]
  %6 = mul nsw i64 %indvars.iv85, %5
  br label %for.body4.us

.noexc.us:                                        ; preds = %for.cond1.for.cond.cleanup3_crit_edge.us
  %call.i5.i.i.us = invoke noundef ptr @_ZNKSt3__16locale9use_facetERNS0_2idE(ptr noundef nonnull align 8 dereferenceable(8) %ref.tmp.i.i, ptr noundef nonnull align 8 dereferenceable(12) @_ZNSt3__15ctypeIcE2idE)
          to label %invoke.cont.i.i.us unwind label %lpad.i.i.split.us

invoke.cont.i.i.us:                               ; preds = %.noexc.us
  %vtable.i.i.i.us = load ptr, ptr %call.i5.i.i.us, align 8, !tbaa !12
  %vfn.i.i.i.us = getelementptr inbounds ptr, ptr %vtable.i.i.i.us, i64 7
  %7 = load ptr, ptr %vfn.i.i.i.us, align 8
  %call.i6.i.i.us = invoke noundef signext i8 %7(ptr noundef nonnull align 8 dereferenceable(25) %call.i5.i.i.us, i8 noundef signext 10)
          to label %_ZNKSt3__19basic_iosIcNS_11char_traitsIcEEE5widenB7v170000Ec.exit.i.us unwind label %lpad.i.i.split.us

_ZNKSt3__19basic_iosIcNS_11char_traitsIcEEE5widenB7v170000Ec.exit.i.us: ; preds = %invoke.cont.i.i.us
  call void @_ZNSt3__16localeD1Ev(ptr noundef nonnull align 8 dereferenceable(8) %ref.tmp.i.i) #19
  call void @llvm.lifetime.end.p0(i64 8, ptr nonnull %ref.tmp.i.i) #19
  %call1.i65.us = invoke noundef nonnull align 8 dereferenceable(8) ptr @_ZNSt3__113basic_ostreamIcNS_11char_traitsIcEEE3putEc(ptr noundef nonnull align 8 dereferenceable(8) %outfile, i8 noundef signext %call.i6.i.i.us)
          to label %call1.i.noexc.us unwind label %lpad30.split.us

call1.i.noexc.us:                                 ; preds = %_ZNKSt3__19basic_iosIcNS_11char_traitsIcEEE5widenB7v170000Ec.exit.i.us
  %call2.i66.us = invoke noundef nonnull align 8 dereferenceable(8) ptr @_ZNSt3__113basic_ostreamIcNS_11char_traitsIcEEE5flushEv(ptr noundef nonnull align 8 dereferenceable(8) %outfile)
          to label %for.inc33.us unwind label %lpad30.split.us

for.inc33.us:                                     ; preds = %call1.i.noexc.us
  %indvars.iv.next86 = add nuw nsw i64 %indvars.iv85, 1
  %exitcond90.not = icmp eq i64 %indvars.iv.next86, %wide.trip.count89
  br i1 %exitcond90.not, label %for.cond.cleanup, label %for.cond1.preheader.us, !llvm.loop !28

for.body4.us:                                     ; preds = %for.cond1.preheader.us, %for.inc.us
  %indvars.iv = phi i64 [ 0, %for.cond1.preheader.us ], [ %indvars.iv.next, %for.inc.us ]
  %8 = add nuw nsw i64 %indvars.iv, %6
  %arrayidx.us = getelementptr inbounds i32, ptr %image, i64 %8
  %9 = load i32, ptr %arrayidx.us, align 4, !tbaa !5
  %. = call i32 @llvm.smax.i32(i32 %9, i32 0)
  %10 = call i32 @llvm.smin.i32(i32 %., i32 255)
  %11 = invoke noundef nonnull align 8 dereferenceable(8) ptr @_ZNSt3__113basic_ostreamIcNS_11char_traitsIcEEElsEi(ptr noundef nonnull align 8 dereferenceable(8) %outfile, i32 noundef %10)
          to label %invoke.cont7.us.invoke unwind label %lpad6.split.us

invoke.cont7.us.invoke:                           ; preds = %for.body4.us
  %12 = invoke noundef nonnull align 8 dereferenceable(8) ptr @_ZNSt3__124__put_character_sequenceB7v170000IcNS_11char_traitsIcEEEERNS_13basic_ostreamIT_T0_EES7_PKS4_m(ptr noundef nonnull align 8 dereferenceable(8) %11, ptr noundef nonnull @.str, i64 noundef 1)
          to label %for.inc.us unwind label %lpad6.split.us

for.inc.us:                                       ; preds = %invoke.cont7.us.invoke
  %indvars.iv.next = add nuw nsw i64 %indvars.iv, 1
  %exitcond84.not = icmp eq i64 %indvars.iv.next, %wide.trip.count
  br i1 %exitcond84.not, label %for.cond1.for.cond.cleanup3_crit_edge.us, label %for.body4.us, !llvm.loop !29

for.cond1.for.cond.cleanup3_crit_edge.us:         ; preds = %for.inc.us
  %vtable.i.us = load ptr, ptr %outfile, align 8, !tbaa !12
  %vbase.offset.ptr.i.us = getelementptr i8, ptr %vtable.i.us, i64 -24
  %vbase.offset.i.us = load i64, ptr %vbase.offset.ptr.i.us, align 8
  %add.ptr.i.us = getelementptr inbounds i8, ptr %outfile, i64 %vbase.offset.i.us
  call void @llvm.lifetime.start.p0(i64 8, ptr nonnull %ref.tmp.i.i) #19
  invoke void @_ZNKSt3__18ios_base6getlocEv(ptr nonnull sret(%"class.std::__1::locale") align 8 %ref.tmp.i.i, ptr noundef nonnull align 8 dereferenceable(136) %add.ptr.i.us)
          to label %.noexc.us unwind label %lpad30.split.us

lpad30.split.us:                                  ; preds = %call1.i.noexc.us, %_ZNKSt3__19basic_iosIcNS_11char_traitsIcEEE5widenB7v170000Ec.exit.i.us, %for.cond1.for.cond.cleanup3_crit_edge.us
  %13 = landingpad { ptr, i32 }
          cleanup
  br label %ehcleanup36

lpad.i.i.split.us:                                ; preds = %invoke.cont.i.i.us, %.noexc.us
  %14 = landingpad { ptr, i32 }
          cleanup
  br label %lpad.i.i

lpad6.split.us:                                   ; preds = %for.body4.us, %invoke.cont7.us.invoke
  %15 = landingpad { ptr, i32 }
          cleanup
  br label %ehcleanup36

for.cond1.preheader:                              ; preds = %for.cond1.preheader.lr.ph, %for.inc33
  %i.078 = phi i32 [ %inc34, %for.inc33 ], [ 0, %for.cond1.preheader.lr.ph ]
  %vtable.i = load ptr, ptr %outfile, align 8, !tbaa !12
  %vbase.offset.ptr.i = getelementptr i8, ptr %vtable.i, i64 -24
  %vbase.offset.i = load i64, ptr %vbase.offset.ptr.i, align 8
  %add.ptr.i = getelementptr inbounds i8, ptr %outfile, i64 %vbase.offset.i
  call void @llvm.lifetime.start.p0(i64 8, ptr nonnull %ref.tmp.i.i) #19
  invoke void @_ZNKSt3__18ios_base6getlocEv(ptr nonnull sret(%"class.std::__1::locale") align 8 %ref.tmp.i.i, ptr noundef nonnull align 8 dereferenceable(136) %add.ptr.i)
          to label %.noexc unwind label %lpad30.split

for.cond.cleanup:                                 ; preds = %for.inc33, %for.inc33.us, %for.cond.preheader
  store ptr getelementptr inbounds ({ [5 x ptr], [5 x ptr] }, ptr @_ZTVNSt3__114basic_ofstreamIcNS_11char_traitsIcEEEE, i64 0, inrange i32 0, i64 3), ptr %outfile, align 8, !tbaa !12
  store ptr getelementptr inbounds ({ [5 x ptr], [5 x ptr] }, ptr @_ZTVNSt3__114basic_ofstreamIcNS_11char_traitsIcEEEE, i64 0, inrange i32 1, i64 3), ptr %0, align 8, !tbaa !12
  call void @_ZNSt3__113basic_filebufIcNS_11char_traitsIcEEED2Ev(ptr noundef nonnull align 8 dereferenceable(163) %__sb_.i) #19
  call void @_ZNSt3__113basic_ostreamIcNS_11char_traitsIcEEED2Ev(ptr noundef nonnull align 8 dereferenceable(8) %outfile, ptr noundef nonnull getelementptr inbounds ([4 x ptr], ptr @_ZTTNSt3__114basic_ofstreamIcNS_11char_traitsIcEEEE, i64 0, i64 1)) #19
  call void @_ZNSt3__19basic_iosIcNS_11char_traitsIcEEED2Ev(ptr noundef nonnull align 8 dereferenceable(148) %0) #19
  call void @llvm.lifetime.end.p0(i64 328, ptr nonnull %outfile) #19
  ret void

lpad:                                             ; preds = %if.end.i
  %16 = landingpad { ptr, i32 }
          cleanup
  br label %ehcleanup36

.noexc:                                           ; preds = %for.cond1.preheader
  %call.i5.i.i = invoke noundef ptr @_ZNKSt3__16locale9use_facetERNS0_2idE(ptr noundef nonnull align 8 dereferenceable(8) %ref.tmp.i.i, ptr noundef nonnull align 8 dereferenceable(12) @_ZNSt3__15ctypeIcE2idE)
          to label %invoke.cont.i.i unwind label %lpad.i.i.split

invoke.cont.i.i:                                  ; preds = %.noexc
  %vtable.i.i.i = load ptr, ptr %call.i5.i.i, align 8, !tbaa !12
  %vfn.i.i.i = getelementptr inbounds ptr, ptr %vtable.i.i.i, i64 7
  %17 = load ptr, ptr %vfn.i.i.i, align 8
  %call.i6.i.i = invoke noundef signext i8 %17(ptr noundef nonnull align 8 dereferenceable(25) %call.i5.i.i, i8 noundef signext 10)
          to label %_ZNKSt3__19basic_iosIcNS_11char_traitsIcEEE5widenB7v170000Ec.exit.i unwind label %lpad.i.i.split

lpad.i.i.split:                                   ; preds = %invoke.cont.i.i, %.noexc
  %18 = landingpad { ptr, i32 }
          cleanup
  br label %lpad.i.i

lpad.i.i:                                         ; preds = %lpad.i.i.split.us, %lpad.i.i.split
  %.us-phi79 = phi { ptr, i32 } [ %18, %lpad.i.i.split ], [ %14, %lpad.i.i.split.us ]
  call void @_ZNSt3__16localeD1Ev(ptr noundef nonnull align 8 dereferenceable(8) %ref.tmp.i.i) #19
  call void @llvm.lifetime.end.p0(i64 8, ptr nonnull %ref.tmp.i.i) #19
  br label %ehcleanup36

_ZNKSt3__19basic_iosIcNS_11char_traitsIcEEE5widenB7v170000Ec.exit.i: ; preds = %invoke.cont.i.i
  call void @_ZNSt3__16localeD1Ev(ptr noundef nonnull align 8 dereferenceable(8) %ref.tmp.i.i) #19
  call void @llvm.lifetime.end.p0(i64 8, ptr nonnull %ref.tmp.i.i) #19
  %call1.i65 = invoke noundef nonnull align 8 dereferenceable(8) ptr @_ZNSt3__113basic_ostreamIcNS_11char_traitsIcEEE3putEc(ptr noundef nonnull align 8 dereferenceable(8) %outfile, i8 noundef signext %call.i6.i.i)
          to label %call1.i.noexc unwind label %lpad30.split

call1.i.noexc:                                    ; preds = %_ZNKSt3__19basic_iosIcNS_11char_traitsIcEEE5widenB7v170000Ec.exit.i
  %call2.i66 = invoke noundef nonnull align 8 dereferenceable(8) ptr @_ZNSt3__113basic_ostreamIcNS_11char_traitsIcEEE5flushEv(ptr noundef nonnull align 8 dereferenceable(8) %outfile)
          to label %for.inc33 unwind label %lpad30.split

for.inc33:                                        ; preds = %call1.i.noexc
  %inc34 = add nuw nsw i32 %i.078, 1
  %exitcond.not = icmp eq i32 %inc34, %height
  br i1 %exitcond.not, label %for.cond.cleanup, label %for.cond1.preheader, !llvm.loop !28

lpad30.split:                                     ; preds = %call1.i.noexc, %_ZNKSt3__19basic_iosIcNS_11char_traitsIcEEE5widenB7v170000Ec.exit.i, %for.cond1.preheader
  %19 = landingpad { ptr, i32 }
          cleanup
  br label %ehcleanup36

ehcleanup36:                                      ; preds = %lpad30.split, %lpad30.split.us, %lpad.i.i, %lpad6.split.us, %lpad
  %.pn.pn = phi { ptr, i32 } [ %16, %lpad ], [ %15, %lpad6.split.us ], [ %.us-phi79, %lpad.i.i ], [ %19, %lpad30.split ], [ %13, %lpad30.split.us ]
  call void @_ZNSt3__114basic_ofstreamIcNS_11char_traitsIcEEED1Ev(ptr noundef nonnull align 8 dereferenceable(176) %outfile) #19
  call void @llvm.lifetime.end.p0(i64 328, ptr nonnull %outfile) #19
  br label %common.resume
}

declare i32 @__gxx_personality_v0(...)

declare noundef nonnull align 8 dereferenceable(8) ptr @_ZNSt3__113basic_ostreamIcNS_11char_traitsIcEEElsEi(ptr noundef nonnull align 8 dereferenceable(8), i32 noundef) local_unnamed_addr #1

; Function Attrs: inlinehint mustprogress uwtable
define linkonce_odr hidden noundef nonnull align 8 dereferenceable(8) ptr @_ZNSt3__14endlB7v170000IcNS_11char_traitsIcEEEERNS_13basic_ostreamIT_T0_EES7_(ptr noundef nonnull align 8 dereferenceable(8) %__os) local_unnamed_addr #4 comdat personality ptr @__gxx_personality_v0 {
entry:
  %ref.tmp.i = alloca %"class.std::__1::locale", align 8
  %vtable = load ptr, ptr %__os, align 8, !tbaa !12
  %vbase.offset.ptr = getelementptr i8, ptr %vtable, i64 -24
  %vbase.offset = load i64, ptr %vbase.offset.ptr, align 8
  %add.ptr = getelementptr inbounds i8, ptr %__os, i64 %vbase.offset
  call void @llvm.lifetime.start.p0(i64 8, ptr nonnull %ref.tmp.i) #19
  call void @_ZNKSt3__18ios_base6getlocEv(ptr nonnull sret(%"class.std::__1::locale") align 8 %ref.tmp.i, ptr noundef nonnull align 8 dereferenceable(136) %add.ptr)
  %call.i5.i = invoke noundef ptr @_ZNKSt3__16locale9use_facetERNS0_2idE(ptr noundef nonnull align 8 dereferenceable(8) %ref.tmp.i, ptr noundef nonnull align 8 dereferenceable(12) @_ZNSt3__15ctypeIcE2idE)
          to label %invoke.cont.i unwind label %lpad.i

invoke.cont.i:                                    ; preds = %entry
  %vtable.i.i = load ptr, ptr %call.i5.i, align 8, !tbaa !12
  %vfn.i.i = getelementptr inbounds ptr, ptr %vtable.i.i, i64 7
  %0 = load ptr, ptr %vfn.i.i, align 8
  %call.i6.i = invoke noundef signext i8 %0(ptr noundef nonnull align 8 dereferenceable(25) %call.i5.i, i8 noundef signext 10)
          to label %_ZNKSt3__19basic_iosIcNS_11char_traitsIcEEE5widenB7v170000Ec.exit unwind label %lpad.i

lpad.i:                                           ; preds = %invoke.cont.i, %entry
  %1 = landingpad { ptr, i32 }
          cleanup
  call void @_ZNSt3__16localeD1Ev(ptr noundef nonnull align 8 dereferenceable(8) %ref.tmp.i) #19
  call void @llvm.lifetime.end.p0(i64 8, ptr nonnull %ref.tmp.i) #19
  resume { ptr, i32 } %1

_ZNKSt3__19basic_iosIcNS_11char_traitsIcEEE5widenB7v170000Ec.exit: ; preds = %invoke.cont.i
  call void @_ZNSt3__16localeD1Ev(ptr noundef nonnull align 8 dereferenceable(8) %ref.tmp.i) #19
  call void @llvm.lifetime.end.p0(i64 8, ptr nonnull %ref.tmp.i) #19
  %call1 = call noundef nonnull align 8 dereferenceable(8) ptr @_ZNSt3__113basic_ostreamIcNS_11char_traitsIcEEE3putEc(ptr noundef nonnull align 8 dereferenceable(8) %__os, i8 noundef signext %call.i6.i)
  %call2 = call noundef nonnull align 8 dereferenceable(8) ptr @_ZNSt3__113basic_ostreamIcNS_11char_traitsIcEEE5flushEv(ptr noundef nonnull align 8 dereferenceable(8) %__os)
  ret ptr %__os
}

; Function Attrs: inlinehint nounwind uwtable
define linkonce_odr dso_local void @_ZNSt3__114basic_ofstreamIcNS_11char_traitsIcEEED1Ev(ptr noundef nonnull align 8 dereferenceable(176) %this) unnamed_addr #5 comdat align 2 {
entry:
  store ptr getelementptr inbounds ({ [5 x ptr], [5 x ptr] }, ptr @_ZTVNSt3__114basic_ofstreamIcNS_11char_traitsIcEEEE, i64 0, inrange i32 0, i64 3), ptr %this, align 8, !tbaa !12
  %add.ptr.i = getelementptr inbounds i8, ptr %this, i64 176
  store ptr getelementptr inbounds ({ [5 x ptr], [5 x ptr] }, ptr @_ZTVNSt3__114basic_ofstreamIcNS_11char_traitsIcEEEE, i64 0, inrange i32 1, i64 3), ptr %add.ptr.i, align 8, !tbaa !12
  %__sb_.i = getelementptr inbounds %"class.std::__1::basic_ofstream", ptr %this, i64 0, i32 1
  tail call void @_ZNSt3__113basic_filebufIcNS_11char_traitsIcEEED2Ev(ptr noundef nonnull align 8 dereferenceable(163) %__sb_.i) #19
  tail call void @_ZNSt3__113basic_ostreamIcNS_11char_traitsIcEEED2Ev(ptr noundef nonnull align 8 dereferenceable(8) %this, ptr noundef nonnull getelementptr inbounds ([4 x ptr], ptr @_ZTTNSt3__114basic_ofstreamIcNS_11char_traitsIcEEEE, i64 0, i64 1)) #19
  tail call void @_ZNSt3__19basic_iosIcNS_11char_traitsIcEEED2Ev(ptr noundef nonnull align 8 dereferenceable(148) %add.ptr.i) #19
  ret void
}

; Function Attrs: mustprogress uwtable
define dso_local void @_Z29initializeRandomColouredImagePiii(ptr nocapture noundef writeonly %image, i32 noundef %height, i32 noundef %width) local_unnamed_addr #0 {
entry:
  tail call void @glibc_compat_srand(i32 noundef 7)
  %cmp44 = icmp sgt i32 %height, 0
  %cmp242 = icmp sgt i32 %width, 0
  %or.cond = and i1 %cmp44, %cmp242
  br i1 %or.cond, label %for.cond1.preheader.us.preheader, label %for.cond.cleanup

for.cond1.preheader.us.preheader:                 ; preds = %entry
  %wide.trip.count = zext i32 %width to i64
  br label %for.cond1.preheader.us

for.cond1.preheader.us:                           ; preds = %for.cond1.preheader.us.preheader, %for.cond1.for.cond.cleanup3_crit_edge.us
  %i.045.us = phi i32 [ %inc27.us, %for.cond1.for.cond.cleanup3_crit_edge.us ], [ 0, %for.cond1.preheader.us.preheader ]
  %mul5.us = mul i32 %i.045.us, %width
  br label %for.body4.us

for.body4.us:                                     ; preds = %for.cond1.preheader.us, %for.body4.us
  %indvars.iv = phi i64 [ 0, %for.cond1.preheader.us ], [ %indvars.iv.next, %for.body4.us ]
  %call.us = tail call i32 @glibc_compat_rand()
  %rem.us = srem i32 %call.us, 256
  %0 = trunc i64 %indvars.iv to i32
  %reass.add.us = add i32 %mul5.us, %0
  %reass.mul.us = mul i32 %reass.add.us, 3
  %idxprom.us = sext i32 %reass.mul.us to i64
  %arrayidx.us = getelementptr inbounds i32, ptr %image, i64 %idxprom.us
  store i32 %rem.us, ptr %arrayidx.us, align 4, !tbaa !5
  %call8.us = tail call i32 @glibc_compat_rand()
  %rem9.us = srem i32 %call8.us, 256
  %add14.us = add nsw i32 %reass.mul.us, 1
  %idxprom15.us = sext i32 %add14.us to i64
  %arrayidx16.us = getelementptr inbounds i32, ptr %image, i64 %idxprom15.us
  store i32 %rem9.us, ptr %arrayidx16.us, align 4, !tbaa !5
  %call17.us = tail call i32 @glibc_compat_rand()
  %rem18.us = srem i32 %call17.us, 256
  %add23.us = add nsw i32 %reass.mul.us, 2
  %idxprom24.us = sext i32 %add23.us to i64
  %arrayidx25.us = getelementptr inbounds i32, ptr %image, i64 %idxprom24.us
  store i32 %rem18.us, ptr %arrayidx25.us, align 4, !tbaa !5
  %indvars.iv.next = add nuw nsw i64 %indvars.iv, 1
  %exitcond.not = icmp eq i64 %indvars.iv.next, %wide.trip.count
  br i1 %exitcond.not, label %for.cond1.for.cond.cleanup3_crit_edge.us, label %for.body4.us, !llvm.loop !30

for.cond1.for.cond.cleanup3_crit_edge.us:         ; preds = %for.body4.us
  %inc27.us = add nuw nsw i32 %i.045.us, 1
  %exitcond48.not = icmp eq i32 %inc27.us, %height
  br i1 %exitcond48.not, label %for.cond.cleanup, label %for.cond1.preheader.us, !llvm.loop !31

for.cond.cleanup:                                 ; preds = %for.cond1.for.cond.cleanup3_crit_edge.us, %entry
  ret void
}

; Function Attrs: uwtable
define dso_local void @_Z15initializeImagePiPcii(ptr noundef %image, ptr noundef %inputFile, i32 noundef %height, i32 noundef %width) local_unnamed_addr #3 personality ptr @__gxx_personality_v0 {
entry:
  %inFile = alloca %"class.std::__1::basic_ifstream", align 8
  call void @llvm.lifetime.start.p0(i64 336, ptr nonnull %inFile) #19
  %0 = getelementptr inbounds i8, ptr %inFile, i64 184
  %__sb_.i = getelementptr inbounds %"class.std::__1::basic_ifstream", ptr %inFile, i64 0, i32 1
  store ptr getelementptr inbounds ({ [5 x ptr], [5 x ptr] }, ptr @_ZTCNSt3__114basic_ifstreamIcNS_11char_traitsIcEEEE0_NS_13basic_istreamIcS2_EE, i64 0, inrange i32 0, i64 3), ptr %inFile, align 8, !tbaa !12
  store ptr getelementptr inbounds ({ [5 x ptr], [5 x ptr] }, ptr @_ZTCNSt3__114basic_ifstreamIcNS_11char_traitsIcEEEE0_NS_13basic_istreamIcS2_EE, i64 0, inrange i32 1, i64 3), ptr %0, align 8, !tbaa !12
  %__gc_.i.i = getelementptr inbounds %"class.std::__1::basic_istream", ptr %inFile, i64 0, i32 1
  store i64 0, ptr %__gc_.i.i, align 8, !tbaa !32
  invoke void @_ZNSt3__18ios_base4initEPv(ptr noundef nonnull align 8 dereferenceable(136) %0, ptr noundef nonnull %__sb_.i)
          to label %invoke.cont.i unwind label %lpad.i

invoke.cont.i:                                    ; preds = %entry
  %__tie_.i.i.i = getelementptr inbounds i8, ptr %inFile, i64 320
  store ptr null, ptr %__tie_.i.i.i, align 8, !tbaa !14
  %__fill_.i.i.i = getelementptr inbounds i8, ptr %inFile, i64 328
  store i32 -1, ptr %__fill_.i.i.i, align 8, !tbaa !19
  store ptr getelementptr inbounds ({ [5 x ptr], [5 x ptr] }, ptr @_ZTVNSt3__114basic_ifstreamIcNS_11char_traitsIcEEEE, i64 0, inrange i32 0, i64 3), ptr %inFile, align 8, !tbaa !12
  store ptr getelementptr inbounds ({ [5 x ptr], [5 x ptr] }, ptr @_ZTVNSt3__114basic_ifstreamIcNS_11char_traitsIcEEEE, i64 0, inrange i32 1, i64 3), ptr %0, align 8, !tbaa !12
  invoke void @_ZNSt3__113basic_filebufIcNS_11char_traitsIcEEEC2Ev(ptr noundef nonnull align 8 dereferenceable(163) %__sb_.i)
          to label %invoke.cont5.i unwind label %lpad4.i

invoke.cont5.i:                                   ; preds = %invoke.cont.i
  %__file_.i = getelementptr inbounds %"class.std::__1::basic_ifstream", ptr %inFile, i64 0, i32 1, i32 8
  %1 = load ptr, ptr %__file_.i, align 8, !tbaa !20
  %cmp.i42 = icmp eq ptr %1, null
  br i1 %cmp.i42, label %if.then.i43, label %if.then.i

if.then.i43:                                      ; preds = %invoke.cont5.i
  %call3.i = call ptr @fopen(ptr noundef %inputFile, ptr noundef nonnull @.str.10)
  store ptr %call3.i, ptr %__file_.i, align 8, !tbaa !20
  %tobool6.not.i = icmp eq ptr %call3.i, null
  br i1 %tobool6.not.i, label %if.then.i, label %invoke.cont8.i

invoke.cont8.i:                                   ; preds = %if.then.i43
  %__om_.i = getelementptr inbounds %"class.std::__1::basic_ifstream", ptr %inFile, i64 0, i32 1, i32 12
  store i32 12, ptr %__om_.i, align 8, !tbaa !26
  br label %invoke.cont

if.then.i:                                        ; preds = %invoke.cont5.i, %if.then.i43
  %vtable.i = load ptr, ptr %inFile, align 8, !tbaa !12
  %vbase.offset.ptr.i = getelementptr i8, ptr %vtable.i, i64 -24
  %vbase.offset.i = load i64, ptr %vbase.offset.ptr.i, align 8
  %add.ptr9.i = getelementptr inbounds i8, ptr %inFile, i64 %vbase.offset.i
  %__rdstate_.i.i.i = getelementptr inbounds %"class.std::__1::ios_base", ptr %add.ptr9.i, i64 0, i32 4
  %2 = load i32, ptr %__rdstate_.i.i.i, align 8, !tbaa !27
  %or.i.i.i = or i32 %2, 4
  invoke void @_ZNSt3__18ios_base5clearEj(ptr noundef nonnull align 8 dereferenceable(136) %add.ptr9.i, i32 noundef %or.i.i.i)
          to label %invoke.cont unwind label %lpad7.i

lpad.i:                                           ; preds = %entry
  %3 = landingpad { ptr, i32 }
          cleanup
  br label %ehcleanup11.i

lpad4.i:                                          ; preds = %invoke.cont.i
  %4 = landingpad { ptr, i32 }
          cleanup
  br label %ehcleanup.i

lpad7.i:                                          ; preds = %if.then.i
  %5 = landingpad { ptr, i32 }
          cleanup
  call void @_ZNSt3__113basic_filebufIcNS_11char_traitsIcEEED2Ev(ptr noundef nonnull align 8 dereferenceable(163) %__sb_.i) #19
  br label %ehcleanup.i

ehcleanup.i:                                      ; preds = %lpad7.i, %lpad4.i
  %.pn.i = phi { ptr, i32 } [ %5, %lpad7.i ], [ %4, %lpad4.i ]
  call void @_ZNSt3__113basic_istreamIcNS_11char_traitsIcEEED2Ev(ptr noundef nonnull align 8 dereferenceable(16) %inFile, ptr noundef nonnull getelementptr inbounds ([4 x ptr], ptr @_ZTTNSt3__114basic_ifstreamIcNS_11char_traitsIcEEEE, i64 0, i64 1)) #19
  br label %ehcleanup11.i

common.resume:                                    ; preds = %ehcleanup, %ehcleanup11.i
  %common.resume.op = phi { ptr, i32 } [ %.pn.pn.i, %ehcleanup11.i ], [ %.pn, %ehcleanup ]
  resume { ptr, i32 } %common.resume.op

ehcleanup11.i:                                    ; preds = %ehcleanup.i, %lpad.i
  %.pn.pn.i = phi { ptr, i32 } [ %.pn.i, %ehcleanup.i ], [ %3, %lpad.i ]
  call void @_ZNSt3__19basic_iosIcNS_11char_traitsIcEEED2Ev(ptr noundef nonnull align 8 dereferenceable(148) %0) #19
  br label %common.resume

invoke.cont:                                      ; preds = %if.then.i, %invoke.cont8.i
  %vtable = load ptr, ptr %inFile, align 8, !tbaa !12
  %vbase.offset.ptr = getelementptr i8, ptr %vtable, i64 -24
  %vbase.offset = load i64, ptr %vbase.offset.ptr, align 8
  %add.ptr = getelementptr inbounds i8, ptr %inFile, i64 %vbase.offset
  %__rdstate_.i.i.i27 = getelementptr inbounds %"class.std::__1::ios_base", ptr %add.ptr, i64 0, i32 4
  %6 = load i32, ptr %__rdstate_.i.i.i27, align 8, !tbaa !27
  %and.i.i.i = and i32 %6, 5
  %cmp.i.i.i.not = icmp eq i32 %and.i.i.i, 0
  br i1 %cmp.i.i.i.not, label %for.cond.preheader, label %if.then

for.cond.preheader:                               ; preds = %invoke.cont
  %cmp48 = icmp sgt i32 %height, 0
  %cmp846 = icmp sgt i32 %width, 0
  %or.cond = and i1 %cmp48, %cmp846
  br i1 %or.cond, label %for.cond7.preheader.us.preheader, label %for.cond.cleanup

for.cond7.preheader.us.preheader:                 ; preds = %for.cond.preheader
  %7 = zext i32 %width to i64
  %wide.trip.count57 = zext i32 %height to i64
  %wide.trip.count = zext i32 %width to i64
  br label %for.cond7.preheader.us

for.cond7.preheader.us:                           ; preds = %for.cond7.preheader.us.preheader, %for.cond7.for.cond.cleanup9_crit_edge.us
  %indvars.iv53 = phi i64 [ 0, %for.cond7.preheader.us.preheader ], [ %indvars.iv.next54, %for.cond7.for.cond.cleanup9_crit_edge.us ]
  %8 = mul nsw i64 %indvars.iv53, %7
  br label %for.body10.us

for.body10.us:                                    ; preds = %for.cond7.preheader.us, %for.inc.us
  %indvars.iv = phi i64 [ 0, %for.cond7.preheader.us ], [ %indvars.iv.next, %for.inc.us ]
  %9 = add nuw nsw i64 %indvars.iv, %8
  %arrayidx.us = getelementptr inbounds i32, ptr %image, i64 %9
  %call13.us = invoke noundef nonnull align 8 dereferenceable(16) ptr @_ZNSt3__113basic_istreamIcNS_11char_traitsIcEEErsERi(ptr noundef nonnull align 8 dereferenceable(16) %inFile, ptr noundef nonnull align 4 dereferenceable(4) %arrayidx.us)
          to label %for.inc.us unwind label %lpad11.split.us

for.inc.us:                                       ; preds = %for.body10.us
  %indvars.iv.next = add nuw nsw i64 %indvars.iv, 1
  %exitcond.not = icmp eq i64 %indvars.iv.next, %wide.trip.count
  br i1 %exitcond.not, label %for.cond7.for.cond.cleanup9_crit_edge.us, label %for.body10.us, !llvm.loop !34

for.cond7.for.cond.cleanup9_crit_edge.us:         ; preds = %for.inc.us
  %indvars.iv.next54 = add nuw nsw i64 %indvars.iv53, 1
  %exitcond58.not = icmp eq i64 %indvars.iv.next54, %wide.trip.count57
  br i1 %exitcond58.not, label %for.cond.cleanup, label %for.cond7.preheader.us, !llvm.loop !35

lpad11.split.us:                                  ; preds = %for.body10.us
  %10 = landingpad { ptr, i32 }
          cleanup
  br label %ehcleanup

if.then:                                          ; preds = %invoke.cont
  %call1.i28 = invoke noundef nonnull align 8 dereferenceable(8) ptr @_ZNSt3__124__put_character_sequenceB7v170000IcNS_11char_traitsIcEEEERNS_13basic_ostreamIT_T0_EES7_PKS4_m(ptr noundef nonnull align 8 dereferenceable(8) @_ZNSt3__14cerrE, ptr noundef nonnull @.str.1, i64 noundef 17)
          to label %invoke.cont1 unwind label %lpad

invoke.cont1:                                     ; preds = %if.then
  %call.i.i.i29 = call i64 @strlen(ptr noundef nonnull dereferenceable(1) %inputFile) #19
  %call1.i30 = invoke noundef nonnull align 8 dereferenceable(8) ptr @_ZNSt3__124__put_character_sequenceB7v170000IcNS_11char_traitsIcEEEERNS_13basic_ostreamIT_T0_EES7_PKS4_m(ptr noundef nonnull align 8 dereferenceable(8) %call1.i28, ptr noundef %inputFile, i64 noundef %call.i.i.i29)
          to label %invoke.cont3 unwind label %lpad

invoke.cont3:                                     ; preds = %invoke.cont1
  %call.i3233 = invoke noundef nonnull align 8 dereferenceable(8) ptr @_ZNSt3__14endlB7v170000IcNS_11char_traitsIcEEEERNS_13basic_ostreamIT_T0_EES7_(ptr noundef nonnull align 8 dereferenceable(8) %call1.i30)
          to label %invoke.cont5 unwind label %lpad

invoke.cont5:                                     ; preds = %invoke.cont3
  call void @exit(i32 noundef 1) #20
  unreachable

lpad:                                             ; preds = %if.then.i40, %invoke.cont.i.i, %invoke.cont3, %invoke.cont1, %if.then
  %11 = landingpad { ptr, i32 }
          cleanup
  br label %ehcleanup

for.cond.cleanup:                                 ; preds = %for.cond7.for.cond.cleanup9_crit_edge.us, %for.cond.preheader
  %12 = load ptr, ptr %__file_.i, align 8, !tbaa !20
  %tobool.not.i.i = icmp eq ptr %12, null
  br i1 %tobool.not.i.i, label %if.then.i40, label %if.then.i.i

if.then.i.i:                                      ; preds = %for.cond.cleanup
  %vtable.i.i = load ptr, ptr %__sb_.i, align 8, !tbaa !12
  %vfn.i.i = getelementptr inbounds ptr, ptr %vtable.i.i, i64 6
  %13 = load ptr, ptr %vfn.i.i, align 8
  %call.i.i = invoke noundef i32 %13(ptr noundef nonnull align 8 dereferenceable(163) %__sb_.i)
          to label %invoke.cont.i.i unwind label %if.then.i.i.i.i

invoke.cont.i.i:                                  ; preds = %if.then.i.i
  %call7.i.i = call i32 @fclose(ptr noundef nonnull %12)
  store ptr null, ptr %__file_.i, align 8, !tbaa !20
  %vtable12.i.i = load ptr, ptr %__sb_.i, align 8, !tbaa !12
  %vfn13.i.i = getelementptr inbounds ptr, ptr %vtable12.i.i, i64 3
  %14 = load ptr, ptr %vfn13.i.i, align 8
  %call15.i.i41 = invoke noundef ptr %14(ptr noundef nonnull align 8 dereferenceable(163) %__sb_.i, ptr noundef null, i64 noundef 0)
          to label %call15.i.i.noexc unwind label %lpad

call15.i.i.noexc:                                 ; preds = %invoke.cont.i.i
  %15 = or i32 %call7.i.i, %call.i.i
  %16 = icmp eq i32 %15, 0
  br i1 %16, label %invoke.cont17, label %if.then.i40

if.then.i.i.i.i:                                  ; preds = %if.then.i.i
  %17 = landingpad { ptr, i32 }
          cleanup
  %call6.i.i.i.i = call noundef i32 @fclose(ptr noundef nonnull %12)
  br label %ehcleanup

if.then.i40:                                      ; preds = %call15.i.i.noexc, %for.cond.cleanup
  %vtable.i35 = load ptr, ptr %inFile, align 8, !tbaa !12
  %vbase.offset.ptr.i36 = getelementptr i8, ptr %vtable.i35, i64 -24
  %vbase.offset.i37 = load i64, ptr %vbase.offset.ptr.i36, align 8
  %add.ptr.i = getelementptr inbounds i8, ptr %inFile, i64 %vbase.offset.i37
  %__rdstate_.i.i.i38 = getelementptr inbounds %"class.std::__1::ios_base", ptr %add.ptr.i, i64 0, i32 4
  %18 = load i32, ptr %__rdstate_.i.i.i38, align 8, !tbaa !27
  %or.i.i.i39 = or i32 %18, 4
  invoke void @_ZNSt3__18ios_base5clearEj(ptr noundef nonnull align 8 dereferenceable(136) %add.ptr.i, i32 noundef %or.i.i.i39)
          to label %invoke.cont17 unwind label %lpad

invoke.cont17:                                    ; preds = %call15.i.i.noexc, %if.then.i40
  store ptr getelementptr inbounds ({ [5 x ptr], [5 x ptr] }, ptr @_ZTVNSt3__114basic_ifstreamIcNS_11char_traitsIcEEEE, i64 0, inrange i32 0, i64 3), ptr %inFile, align 8, !tbaa !12
  store ptr getelementptr inbounds ({ [5 x ptr], [5 x ptr] }, ptr @_ZTVNSt3__114basic_ifstreamIcNS_11char_traitsIcEEEE, i64 0, inrange i32 1, i64 3), ptr %0, align 8, !tbaa !12
  call void @_ZNSt3__113basic_filebufIcNS_11char_traitsIcEEED2Ev(ptr noundef nonnull align 8 dereferenceable(163) %__sb_.i) #19
  call void @_ZNSt3__113basic_istreamIcNS_11char_traitsIcEEED2Ev(ptr noundef nonnull align 8 dereferenceable(16) %inFile, ptr noundef nonnull getelementptr inbounds ([4 x ptr], ptr @_ZTTNSt3__114basic_ifstreamIcNS_11char_traitsIcEEEE, i64 0, i64 1)) #19
  call void @_ZNSt3__19basic_iosIcNS_11char_traitsIcEEED2Ev(ptr noundef nonnull align 8 dereferenceable(148) %0) #19
  call void @llvm.lifetime.end.p0(i64 336, ptr nonnull %inFile) #19
  ret void

ehcleanup:                                        ; preds = %lpad, %if.then.i.i.i.i, %lpad11.split.us
  %.pn = phi { ptr, i32 } [ %10, %lpad11.split.us ], [ %11, %lpad ], [ %17, %if.then.i.i.i.i ]
  call void @_ZNSt3__114basic_ifstreamIcNS_11char_traitsIcEEED1Ev(ptr noundef nonnull align 8 dereferenceable(184) %inFile) #19
  call void @llvm.lifetime.end.p0(i64 336, ptr nonnull %inFile) #19
  br label %common.resume
}

; Function Attrs: noreturn nounwind
declare void @exit(i32 noundef) local_unnamed_addr #6

declare noundef nonnull align 8 dereferenceable(16) ptr @_ZNSt3__113basic_istreamIcNS_11char_traitsIcEEErsERi(ptr noundef nonnull align 8 dereferenceable(16), ptr noundef nonnull align 4 dereferenceable(4)) local_unnamed_addr #1

; Function Attrs: inlinehint nounwind uwtable
define linkonce_odr dso_local void @_ZNSt3__114basic_ifstreamIcNS_11char_traitsIcEEED1Ev(ptr noundef nonnull align 8 dereferenceable(184) %this) unnamed_addr #5 comdat align 2 {
entry:
  store ptr getelementptr inbounds ({ [5 x ptr], [5 x ptr] }, ptr @_ZTVNSt3__114basic_ifstreamIcNS_11char_traitsIcEEEE, i64 0, inrange i32 0, i64 3), ptr %this, align 8, !tbaa !12
  %add.ptr.i = getelementptr inbounds i8, ptr %this, i64 184
  store ptr getelementptr inbounds ({ [5 x ptr], [5 x ptr] }, ptr @_ZTVNSt3__114basic_ifstreamIcNS_11char_traitsIcEEEE, i64 0, inrange i32 1, i64 3), ptr %add.ptr.i, align 8, !tbaa !12
  %__sb_.i = getelementptr inbounds %"class.std::__1::basic_ifstream", ptr %this, i64 0, i32 1
  tail call void @_ZNSt3__113basic_filebufIcNS_11char_traitsIcEEED2Ev(ptr noundef nonnull align 8 dereferenceable(163) %__sb_.i) #19
  tail call void @_ZNSt3__113basic_istreamIcNS_11char_traitsIcEEED2Ev(ptr noundef nonnull align 8 dereferenceable(16) %this, ptr noundef nonnull getelementptr inbounds ([4 x ptr], ptr @_ZTTNSt3__114basic_ifstreamIcNS_11char_traitsIcEEEE, i64 0, i64 1)) #19
  tail call void @_ZNSt3__19basic_iosIcNS_11char_traitsIcEEED2Ev(ptr noundef nonnull align 8 dereferenceable(148) %add.ptr.i) #19
  ret void
}

; Function Attrs: uwtable
define dso_local void @_Z22initializeColoredImagePiPcii(ptr noundef %image, ptr noundef %inputFile, i32 noundef %height, i32 noundef %width) local_unnamed_addr #3 personality ptr @__gxx_personality_v0 {
entry:
  %inFile = alloca %"class.std::__1::basic_ifstream", align 8
  call void @llvm.lifetime.start.p0(i64 336, ptr nonnull %inFile) #19
  %0 = getelementptr inbounds i8, ptr %inFile, i64 184
  %__sb_.i = getelementptr inbounds %"class.std::__1::basic_ifstream", ptr %inFile, i64 0, i32 1
  store ptr getelementptr inbounds ({ [5 x ptr], [5 x ptr] }, ptr @_ZTCNSt3__114basic_ifstreamIcNS_11char_traitsIcEEEE0_NS_13basic_istreamIcS2_EE, i64 0, inrange i32 0, i64 3), ptr %inFile, align 8, !tbaa !12
  store ptr getelementptr inbounds ({ [5 x ptr], [5 x ptr] }, ptr @_ZTCNSt3__114basic_ifstreamIcNS_11char_traitsIcEEEE0_NS_13basic_istreamIcS2_EE, i64 0, inrange i32 1, i64 3), ptr %0, align 8, !tbaa !12
  %__gc_.i.i = getelementptr inbounds %"class.std::__1::basic_istream", ptr %inFile, i64 0, i32 1
  store i64 0, ptr %__gc_.i.i, align 8, !tbaa !32
  invoke void @_ZNSt3__18ios_base4initEPv(ptr noundef nonnull align 8 dereferenceable(136) %0, ptr noundef nonnull %__sb_.i)
          to label %invoke.cont.i unwind label %lpad.i

invoke.cont.i:                                    ; preds = %entry
  %__tie_.i.i.i = getelementptr inbounds i8, ptr %inFile, i64 320
  store ptr null, ptr %__tie_.i.i.i, align 8, !tbaa !14
  %__fill_.i.i.i = getelementptr inbounds i8, ptr %inFile, i64 328
  store i32 -1, ptr %__fill_.i.i.i, align 8, !tbaa !19
  store ptr getelementptr inbounds ({ [5 x ptr], [5 x ptr] }, ptr @_ZTVNSt3__114basic_ifstreamIcNS_11char_traitsIcEEEE, i64 0, inrange i32 0, i64 3), ptr %inFile, align 8, !tbaa !12
  store ptr getelementptr inbounds ({ [5 x ptr], [5 x ptr] }, ptr @_ZTVNSt3__114basic_ifstreamIcNS_11char_traitsIcEEEE, i64 0, inrange i32 1, i64 3), ptr %0, align 8, !tbaa !12
  invoke void @_ZNSt3__113basic_filebufIcNS_11char_traitsIcEEEC2Ev(ptr noundef nonnull align 8 dereferenceable(163) %__sb_.i)
          to label %invoke.cont5.i unwind label %lpad4.i

invoke.cont5.i:                                   ; preds = %invoke.cont.i
  %__file_.i = getelementptr inbounds %"class.std::__1::basic_ifstream", ptr %inFile, i64 0, i32 1, i32 8
  %1 = load ptr, ptr %__file_.i, align 8, !tbaa !20
  %cmp.i65 = icmp eq ptr %1, null
  br i1 %cmp.i65, label %if.then.i66, label %if.then.i

if.then.i66:                                      ; preds = %invoke.cont5.i
  %call3.i = call ptr @fopen(ptr noundef %inputFile, ptr noundef nonnull @.str.10)
  store ptr %call3.i, ptr %__file_.i, align 8, !tbaa !20
  %tobool6.not.i = icmp eq ptr %call3.i, null
  br i1 %tobool6.not.i, label %if.then.i, label %invoke.cont8.i

invoke.cont8.i:                                   ; preds = %if.then.i66
  %__om_.i = getelementptr inbounds %"class.std::__1::basic_ifstream", ptr %inFile, i64 0, i32 1, i32 12
  store i32 12, ptr %__om_.i, align 8, !tbaa !26
  br label %invoke.cont

if.then.i:                                        ; preds = %invoke.cont5.i, %if.then.i66
  %vtable.i = load ptr, ptr %inFile, align 8, !tbaa !12
  %vbase.offset.ptr.i = getelementptr i8, ptr %vtable.i, i64 -24
  %vbase.offset.i = load i64, ptr %vbase.offset.ptr.i, align 8
  %add.ptr9.i = getelementptr inbounds i8, ptr %inFile, i64 %vbase.offset.i
  %__rdstate_.i.i.i = getelementptr inbounds %"class.std::__1::ios_base", ptr %add.ptr9.i, i64 0, i32 4
  %2 = load i32, ptr %__rdstate_.i.i.i, align 8, !tbaa !27
  %or.i.i.i = or i32 %2, 4
  invoke void @_ZNSt3__18ios_base5clearEj(ptr noundef nonnull align 8 dereferenceable(136) %add.ptr9.i, i32 noundef %or.i.i.i)
          to label %invoke.cont unwind label %lpad7.i

lpad.i:                                           ; preds = %entry
  %3 = landingpad { ptr, i32 }
          cleanup
  br label %ehcleanup11.i

lpad4.i:                                          ; preds = %invoke.cont.i
  %4 = landingpad { ptr, i32 }
          cleanup
  br label %ehcleanup.i

lpad7.i:                                          ; preds = %if.then.i
  %5 = landingpad { ptr, i32 }
          cleanup
  call void @_ZNSt3__113basic_filebufIcNS_11char_traitsIcEEED2Ev(ptr noundef nonnull align 8 dereferenceable(163) %__sb_.i) #19
  br label %ehcleanup.i

ehcleanup.i:                                      ; preds = %lpad7.i, %lpad4.i
  %.pn.i = phi { ptr, i32 } [ %5, %lpad7.i ], [ %4, %lpad4.i ]
  call void @_ZNSt3__113basic_istreamIcNS_11char_traitsIcEEED2Ev(ptr noundef nonnull align 8 dereferenceable(16) %inFile, ptr noundef nonnull getelementptr inbounds ([4 x ptr], ptr @_ZTTNSt3__114basic_ifstreamIcNS_11char_traitsIcEEEE, i64 0, i64 1)) #19
  br label %ehcleanup11.i

common.resume:                                    ; preds = %ehcleanup, %ehcleanup11.i
  %common.resume.op = phi { ptr, i32 } [ %.pn.pn.i, %ehcleanup11.i ], [ %.pn, %ehcleanup ]
  resume { ptr, i32 } %common.resume.op

ehcleanup11.i:                                    ; preds = %ehcleanup.i, %lpad.i
  %.pn.pn.i = phi { ptr, i32 } [ %.pn.i, %ehcleanup.i ], [ %3, %lpad.i ]
  call void @_ZNSt3__19basic_iosIcNS_11char_traitsIcEEED2Ev(ptr noundef nonnull align 8 dereferenceable(148) %0) #19
  br label %common.resume

invoke.cont:                                      ; preds = %if.then.i, %invoke.cont8.i
  %vtable = load ptr, ptr %inFile, align 8, !tbaa !12
  %vbase.offset.ptr = getelementptr i8, ptr %vtable, i64 -24
  %vbase.offset = load i64, ptr %vbase.offset.ptr, align 8
  %add.ptr = getelementptr inbounds i8, ptr %inFile, i64 %vbase.offset
  %__rdstate_.i.i.i50 = getelementptr inbounds %"class.std::__1::ios_base", ptr %add.ptr, i64 0, i32 4
  %6 = load i32, ptr %__rdstate_.i.i.i50, align 8, !tbaa !27
  %and.i.i.i = and i32 %6, 5
  %cmp.i.i.i.not = icmp eq i32 %and.i.i.i, 0
  br i1 %cmp.i.i.i.not, label %for.cond.preheader, label %if.then

for.cond.preheader:                               ; preds = %invoke.cont
  %cmp71 = icmp sgt i32 %height, 0
  %cmp869 = icmp sgt i32 %width, 0
  %or.cond = and i1 %cmp71, %cmp869
  br i1 %or.cond, label %for.cond7.preheader.us.preheader, label %for.cond.cleanup

for.cond7.preheader.us.preheader:                 ; preds = %for.cond.preheader
  %7 = zext i32 %width to i64
  %wide.trip.count82 = zext i32 %height to i64
  %wide.trip.count = zext i32 %width to i64
  br label %for.cond7.preheader.us

for.cond7.preheader.us:                           ; preds = %for.cond7.preheader.us.preheader, %for.cond7.for.cond.cleanup9_crit_edge.us
  %indvars.iv78 = phi i64 [ 0, %for.cond7.preheader.us.preheader ], [ %indvars.iv.next79, %for.cond7.for.cond.cleanup9_crit_edge.us ]
  %8 = mul nsw i64 %indvars.iv78, %7
  br label %for.body10.us

for.body10.us:                                    ; preds = %for.cond7.preheader.us, %for.inc.us
  %indvars.iv = phi i64 [ 0, %for.cond7.preheader.us ], [ %indvars.iv.next, %for.inc.us ]
  %9 = add nuw nsw i64 %indvars.iv, %8
  %arrayidx.us = getelementptr inbounds i32, ptr %image, i64 %9
  %call14.us = invoke noundef nonnull align 8 dereferenceable(16) ptr @_ZNSt3__113basic_istreamIcNS_11char_traitsIcEEErsERi(ptr noundef nonnull align 8 dereferenceable(16) %inFile, ptr noundef nonnull align 4 dereferenceable(4) %arrayidx.us)
          to label %invoke.cont13.us unwind label %lpad12.split.us

invoke.cont13.us:                                 ; preds = %for.body10.us
  %10 = add nuw nsw i64 %9, 1
  %arrayidx19.us = getelementptr inbounds i32, ptr %image, i64 %10
  %call21.us = invoke noundef nonnull align 8 dereferenceable(16) ptr @_ZNSt3__113basic_istreamIcNS_11char_traitsIcEEErsERi(ptr noundef nonnull align 8 dereferenceable(16) %inFile, ptr noundef nonnull align 4 dereferenceable(4) %arrayidx19.us)
          to label %invoke.cont20.us unwind label %lpad12.split.us

invoke.cont20.us:                                 ; preds = %invoke.cont13.us
  %11 = add nuw nsw i64 %9, 2
  %arrayidx26.us = getelementptr inbounds i32, ptr %image, i64 %11
  %call28.us = invoke noundef nonnull align 8 dereferenceable(16) ptr @_ZNSt3__113basic_istreamIcNS_11char_traitsIcEEErsERi(ptr noundef nonnull align 8 dereferenceable(16) %inFile, ptr noundef nonnull align 4 dereferenceable(4) %arrayidx26.us)
          to label %for.inc.us unwind label %lpad12.split.us

for.inc.us:                                       ; preds = %invoke.cont20.us
  %indvars.iv.next = add nuw nsw i64 %indvars.iv, 1
  %exitcond.not = icmp eq i64 %indvars.iv.next, %wide.trip.count
  br i1 %exitcond.not, label %for.cond7.for.cond.cleanup9_crit_edge.us, label %for.body10.us, !llvm.loop !36

for.cond7.for.cond.cleanup9_crit_edge.us:         ; preds = %for.inc.us
  %indvars.iv.next79 = add nuw nsw i64 %indvars.iv78, 1
  %exitcond83.not = icmp eq i64 %indvars.iv.next79, %wide.trip.count82
  br i1 %exitcond83.not, label %for.cond.cleanup, label %for.cond7.preheader.us, !llvm.loop !37

lpad12.split.us:                                  ; preds = %invoke.cont20.us, %invoke.cont13.us, %for.body10.us
  %12 = landingpad { ptr, i32 }
          cleanup
  br label %ehcleanup

if.then:                                          ; preds = %invoke.cont
  %call1.i51 = invoke noundef nonnull align 8 dereferenceable(8) ptr @_ZNSt3__124__put_character_sequenceB7v170000IcNS_11char_traitsIcEEEERNS_13basic_ostreamIT_T0_EES7_PKS4_m(ptr noundef nonnull align 8 dereferenceable(8) @_ZNSt3__14cerrE, ptr noundef nonnull @.str.1, i64 noundef 17)
          to label %invoke.cont1 unwind label %lpad

invoke.cont1:                                     ; preds = %if.then
  %call.i.i.i52 = call i64 @strlen(ptr noundef nonnull dereferenceable(1) %inputFile) #19
  %call1.i53 = invoke noundef nonnull align 8 dereferenceable(8) ptr @_ZNSt3__124__put_character_sequenceB7v170000IcNS_11char_traitsIcEEEERNS_13basic_ostreamIT_T0_EES7_PKS4_m(ptr noundef nonnull align 8 dereferenceable(8) %call1.i51, ptr noundef %inputFile, i64 noundef %call.i.i.i52)
          to label %invoke.cont3 unwind label %lpad

invoke.cont3:                                     ; preds = %invoke.cont1
  %call.i5556 = invoke noundef nonnull align 8 dereferenceable(8) ptr @_ZNSt3__14endlB7v170000IcNS_11char_traitsIcEEEERNS_13basic_ostreamIT_T0_EES7_(ptr noundef nonnull align 8 dereferenceable(8) %call1.i53)
          to label %invoke.cont5 unwind label %lpad

invoke.cont5:                                     ; preds = %invoke.cont3
  call void @exit(i32 noundef 1) #20
  unreachable

lpad:                                             ; preds = %if.then.i63, %invoke.cont.i.i, %invoke.cont3, %invoke.cont1, %if.then
  %13 = landingpad { ptr, i32 }
          cleanup
  br label %ehcleanup

for.cond.cleanup:                                 ; preds = %for.cond7.for.cond.cleanup9_crit_edge.us, %for.cond.preheader
  %14 = load ptr, ptr %__file_.i, align 8, !tbaa !20
  %tobool.not.i.i = icmp eq ptr %14, null
  br i1 %tobool.not.i.i, label %if.then.i63, label %if.then.i.i

if.then.i.i:                                      ; preds = %for.cond.cleanup
  %vtable.i.i = load ptr, ptr %__sb_.i, align 8, !tbaa !12
  %vfn.i.i = getelementptr inbounds ptr, ptr %vtable.i.i, i64 6
  %15 = load ptr, ptr %vfn.i.i, align 8
  %call.i.i = invoke noundef i32 %15(ptr noundef nonnull align 8 dereferenceable(163) %__sb_.i)
          to label %invoke.cont.i.i unwind label %if.then.i.i.i.i

invoke.cont.i.i:                                  ; preds = %if.then.i.i
  %call7.i.i = call i32 @fclose(ptr noundef nonnull %14)
  store ptr null, ptr %__file_.i, align 8, !tbaa !20
  %vtable12.i.i = load ptr, ptr %__sb_.i, align 8, !tbaa !12
  %vfn13.i.i = getelementptr inbounds ptr, ptr %vtable12.i.i, i64 3
  %16 = load ptr, ptr %vfn13.i.i, align 8
  %call15.i.i64 = invoke noundef ptr %16(ptr noundef nonnull align 8 dereferenceable(163) %__sb_.i, ptr noundef null, i64 noundef 0)
          to label %call15.i.i.noexc unwind label %lpad

call15.i.i.noexc:                                 ; preds = %invoke.cont.i.i
  %17 = or i32 %call7.i.i, %call.i.i
  %18 = icmp eq i32 %17, 0
  br i1 %18, label %invoke.cont32, label %if.then.i63

if.then.i.i.i.i:                                  ; preds = %if.then.i.i
  %19 = landingpad { ptr, i32 }
          cleanup
  %call6.i.i.i.i = call noundef i32 @fclose(ptr noundef nonnull %14)
  br label %ehcleanup

if.then.i63:                                      ; preds = %call15.i.i.noexc, %for.cond.cleanup
  %vtable.i58 = load ptr, ptr %inFile, align 8, !tbaa !12
  %vbase.offset.ptr.i59 = getelementptr i8, ptr %vtable.i58, i64 -24
  %vbase.offset.i60 = load i64, ptr %vbase.offset.ptr.i59, align 8
  %add.ptr.i = getelementptr inbounds i8, ptr %inFile, i64 %vbase.offset.i60
  %__rdstate_.i.i.i61 = getelementptr inbounds %"class.std::__1::ios_base", ptr %add.ptr.i, i64 0, i32 4
  %20 = load i32, ptr %__rdstate_.i.i.i61, align 8, !tbaa !27
  %or.i.i.i62 = or i32 %20, 4
  invoke void @_ZNSt3__18ios_base5clearEj(ptr noundef nonnull align 8 dereferenceable(136) %add.ptr.i, i32 noundef %or.i.i.i62)
          to label %invoke.cont32 unwind label %lpad

invoke.cont32:                                    ; preds = %call15.i.i.noexc, %if.then.i63
  store ptr getelementptr inbounds ({ [5 x ptr], [5 x ptr] }, ptr @_ZTVNSt3__114basic_ifstreamIcNS_11char_traitsIcEEEE, i64 0, inrange i32 0, i64 3), ptr %inFile, align 8, !tbaa !12
  store ptr getelementptr inbounds ({ [5 x ptr], [5 x ptr] }, ptr @_ZTVNSt3__114basic_ifstreamIcNS_11char_traitsIcEEEE, i64 0, inrange i32 1, i64 3), ptr %0, align 8, !tbaa !12
  call void @_ZNSt3__113basic_filebufIcNS_11char_traitsIcEEED2Ev(ptr noundef nonnull align 8 dereferenceable(163) %__sb_.i) #19
  call void @_ZNSt3__113basic_istreamIcNS_11char_traitsIcEEED2Ev(ptr noundef nonnull align 8 dereferenceable(16) %inFile, ptr noundef nonnull getelementptr inbounds ([4 x ptr], ptr @_ZTTNSt3__114basic_ifstreamIcNS_11char_traitsIcEEEE, i64 0, i64 1)) #19
  call void @_ZNSt3__19basic_iosIcNS_11char_traitsIcEEED2Ev(ptr noundef nonnull align 8 dereferenceable(148) %0) #19
  call void @llvm.lifetime.end.p0(i64 336, ptr nonnull %inFile) #19
  ret void

ehcleanup:                                        ; preds = %lpad, %if.then.i.i.i.i, %lpad12.split.us
  %.pn = phi { ptr, i32 } [ %12, %lpad12.split.us ], [ %13, %lpad ], [ %19, %if.then.i.i.i.i ]
  call void @_ZNSt3__114basic_ifstreamIcNS_11char_traitsIcEEED1Ev(ptr noundef nonnull align 8 dereferenceable(184) %inFile) #19
  call void @llvm.lifetime.end.p0(i64 336, ptr nonnull %inFile) #19
  br label %common.resume
}

; Function Attrs: nounwind
declare void @_ZNSt3__19basic_iosIcNS_11char_traitsIcEEED2Ev(ptr noundef nonnull align 8 dereferenceable(148)) unnamed_addr #7

; Function Attrs: inlinehint nounwind uwtable
define linkonce_odr dso_local void @_ZTv0_n24_NSt3__114basic_ofstreamIcNS_11char_traitsIcEEED1Ev(ptr noundef %this) unnamed_addr #5 comdat align 2 {
entry:
  %0 = load ptr, ptr %this, align 8
  %1 = getelementptr inbounds i8, ptr %0, i64 -24
  %2 = load i64, ptr %1, align 8
  %3 = getelementptr inbounds i8, ptr %this, i64 %2
  store ptr getelementptr inbounds ({ [5 x ptr], [5 x ptr] }, ptr @_ZTVNSt3__114basic_ofstreamIcNS_11char_traitsIcEEEE, i64 0, inrange i32 0, i64 3), ptr %3, align 8, !tbaa !12
  %add.ptr.i.i = getelementptr inbounds i8, ptr %3, i64 176
  store ptr getelementptr inbounds ({ [5 x ptr], [5 x ptr] }, ptr @_ZTVNSt3__114basic_ofstreamIcNS_11char_traitsIcEEEE, i64 0, inrange i32 1, i64 3), ptr %add.ptr.i.i, align 8, !tbaa !12
  %__sb_.i.i = getelementptr inbounds %"class.std::__1::basic_ofstream", ptr %3, i64 0, i32 1
  tail call void @_ZNSt3__113basic_filebufIcNS_11char_traitsIcEEED2Ev(ptr noundef nonnull align 8 dereferenceable(163) %__sb_.i.i) #19
  tail call void @_ZNSt3__113basic_ostreamIcNS_11char_traitsIcEEED2Ev(ptr noundef nonnull align 8 dereferenceable(8) %3, ptr noundef nonnull getelementptr inbounds ([4 x ptr], ptr @_ZTTNSt3__114basic_ofstreamIcNS_11char_traitsIcEEEE, i64 0, i64 1)) #19
  tail call void @_ZNSt3__19basic_iosIcNS_11char_traitsIcEEED2Ev(ptr noundef nonnull align 8 dereferenceable(148) %add.ptr.i.i) #19
  ret void
}

; Function Attrs: nounwind
declare void @_ZNSt3__113basic_ostreamIcNS_11char_traitsIcEEED1Ev(ptr noundef nonnull align 8 dereferenceable(8)) unnamed_addr #7

; Function Attrs: nounwind
declare void @_ZNSt3__113basic_ostreamIcNS_11char_traitsIcEEED0Ev(ptr noundef nonnull align 8 dereferenceable(8)) unnamed_addr #7

; Function Attrs: nounwind uwtable
declare void @_ZTv0_n24_NSt3__113basic_ostreamIcNS_11char_traitsIcEEED1Ev(ptr noundef) unnamed_addr #8 align 2

; Function Attrs: nounwind uwtable
declare void @_ZTv0_n24_NSt3__113basic_ostreamIcNS_11char_traitsIcEEED0Ev(ptr noundef) unnamed_addr #8 align 2

; Function Attrs: inlinehint nounwind uwtable
define linkonce_odr dso_local void @_ZNSt3__114basic_ofstreamIcNS_11char_traitsIcEEED0Ev(ptr noundef nonnull align 8 dereferenceable(176) %this) unnamed_addr #5 comdat align 2 {
entry:
  store ptr getelementptr inbounds ({ [5 x ptr], [5 x ptr] }, ptr @_ZTVNSt3__114basic_ofstreamIcNS_11char_traitsIcEEEE, i64 0, inrange i32 0, i64 3), ptr %this, align 8, !tbaa !12
  %add.ptr.i.i = getelementptr inbounds i8, ptr %this, i64 176
  store ptr getelementptr inbounds ({ [5 x ptr], [5 x ptr] }, ptr @_ZTVNSt3__114basic_ofstreamIcNS_11char_traitsIcEEEE, i64 0, inrange i32 1, i64 3), ptr %add.ptr.i.i, align 8, !tbaa !12
  %__sb_.i.i = getelementptr inbounds %"class.std::__1::basic_ofstream", ptr %this, i64 0, i32 1
  tail call void @_ZNSt3__113basic_filebufIcNS_11char_traitsIcEEED2Ev(ptr noundef nonnull align 8 dereferenceable(163) %__sb_.i.i) #19
  tail call void @_ZNSt3__113basic_ostreamIcNS_11char_traitsIcEEED2Ev(ptr noundef nonnull align 8 dereferenceable(8) %this, ptr noundef nonnull getelementptr inbounds ([4 x ptr], ptr @_ZTTNSt3__114basic_ofstreamIcNS_11char_traitsIcEEEE, i64 0, i64 1)) #19
  tail call void @_ZNSt3__19basic_iosIcNS_11char_traitsIcEEED2Ev(ptr noundef nonnull align 8 dereferenceable(148) %add.ptr.i.i) #19
  tail call void @_ZdlPv(ptr noundef nonnull %this) #21
  ret void
}

; Function Attrs: inlinehint nounwind uwtable
define linkonce_odr dso_local void @_ZTv0_n24_NSt3__114basic_ofstreamIcNS_11char_traitsIcEEED0Ev(ptr noundef %this) unnamed_addr #5 comdat align 2 {
entry:
  %0 = load ptr, ptr %this, align 8
  %1 = getelementptr inbounds i8, ptr %0, i64 -24
  %2 = load i64, ptr %1, align 8
  %3 = getelementptr inbounds i8, ptr %this, i64 %2
  store ptr getelementptr inbounds ({ [5 x ptr], [5 x ptr] }, ptr @_ZTVNSt3__114basic_ofstreamIcNS_11char_traitsIcEEEE, i64 0, inrange i32 0, i64 3), ptr %3, align 8, !tbaa !12
  %add.ptr.i.i.i = getelementptr inbounds i8, ptr %3, i64 176
  store ptr getelementptr inbounds ({ [5 x ptr], [5 x ptr] }, ptr @_ZTVNSt3__114basic_ofstreamIcNS_11char_traitsIcEEEE, i64 0, inrange i32 1, i64 3), ptr %add.ptr.i.i.i, align 8, !tbaa !12
  %__sb_.i.i.i = getelementptr inbounds %"class.std::__1::basic_ofstream", ptr %3, i64 0, i32 1
  tail call void @_ZNSt3__113basic_filebufIcNS_11char_traitsIcEEED2Ev(ptr noundef nonnull align 8 dereferenceable(163) %__sb_.i.i.i) #19
  tail call void @_ZNSt3__113basic_ostreamIcNS_11char_traitsIcEEED2Ev(ptr noundef nonnull align 8 dereferenceable(8) %3, ptr noundef nonnull getelementptr inbounds ([4 x ptr], ptr @_ZTTNSt3__114basic_ofstreamIcNS_11char_traitsIcEEEE, i64 0, i64 1)) #19
  tail call void @_ZNSt3__19basic_iosIcNS_11char_traitsIcEEED2Ev(ptr noundef nonnull align 8 dereferenceable(148) %add.ptr.i.i.i) #19
  tail call void @_ZdlPv(ptr noundef nonnull %3) #21
  ret void
}

; Function Attrs: nounwind uwtable
define linkonce_odr dso_local void @_ZNSt3__113basic_filebufIcNS_11char_traitsIcEEED2Ev(ptr noundef nonnull align 8 dereferenceable(163) %this) unnamed_addr #8 comdat align 2 personality ptr @__gxx_personality_v0 {
entry:
  store ptr getelementptr inbounds ({ [16 x ptr] }, ptr @_ZTVNSt3__113basic_filebufIcNS_11char_traitsIcEEEE, i64 0, inrange i32 0, i64 2), ptr %this, align 8, !tbaa !12
  %__file_.i = getelementptr inbounds %"class.std::__1::basic_filebuf", ptr %this, i64 0, i32 8
  %0 = load ptr, ptr %__file_.i, align 8, !tbaa !20
  %tobool.not.i = icmp eq ptr %0, null
  br i1 %tobool.not.i, label %try.cont, label %if.then.i

if.then.i:                                        ; preds = %entry
  %call.i = invoke noundef i32 @_ZNSt3__113basic_filebufIcNS_11char_traitsIcEEE4syncEv(ptr noundef nonnull align 8 dereferenceable(163) %this)
          to label %invoke.cont.i unwind label %if.then.i.i.i

invoke.cont.i:                                    ; preds = %if.then.i
  %call7.i = tail call i32 @fclose(ptr noundef nonnull %0)
  store ptr null, ptr %__file_.i, align 8, !tbaa !20
  %vtable12.i = load ptr, ptr %this, align 8, !tbaa !12
  %vfn13.i = getelementptr inbounds ptr, ptr %vtable12.i, i64 3
  %1 = load ptr, ptr %vfn13.i, align 8
  %call15.i10 = invoke noundef ptr %1(ptr noundef nonnull align 8 dereferenceable(163) %this, ptr noundef null, i64 noundef 0)
          to label %try.cont unwind label %lpad

if.then.i.i.i:                                    ; preds = %if.then.i
  %2 = landingpad { ptr, i32 }
          catch ptr null
  %call6.i.i.i = tail call noundef i32 @fclose(ptr noundef nonnull %0)
  br label %lpad.body

lpad:                                             ; preds = %invoke.cont.i
  %3 = landingpad { ptr, i32 }
          catch ptr null
  br label %lpad.body

lpad.body:                                        ; preds = %if.then.i.i.i, %lpad
  %eh.lpad-body = phi { ptr, i32 } [ %3, %lpad ], [ %2, %if.then.i.i.i ]
  %4 = extractvalue { ptr, i32 } %eh.lpad-body, 0
  %5 = tail call ptr @__cxa_begin_catch(ptr %4) #19
  invoke void @__cxa_end_catch()
          to label %try.cont unwind label %terminate.lpad

try.cont:                                         ; preds = %entry, %invoke.cont.i, %lpad.body
  %__owns_eb_ = getelementptr inbounds %"class.std::__1::basic_filebuf", ptr %this, i64 0, i32 14
  %6 = load i8, ptr %__owns_eb_, align 8, !tbaa !38, !range !39, !noundef !40
  %tobool.not = icmp eq i8 %6, 0
  br i1 %tobool.not, label %if.end, label %if.then

if.then:                                          ; preds = %try.cont
  %__extbuf_ = getelementptr inbounds %"class.std::__1::basic_filebuf", ptr %this, i64 0, i32 1
  %7 = load ptr, ptr %__extbuf_, align 8, !tbaa !41
  %isnull = icmp eq ptr %7, null
  br i1 %isnull, label %if.end, label %delete.notnull

delete.notnull:                                   ; preds = %if.then
  tail call void @_ZdaPv(ptr noundef nonnull %7) #21
  br label %if.end

if.end:                                           ; preds = %if.then, %delete.notnull, %try.cont
  %__owns_ib_ = getelementptr inbounds %"class.std::__1::basic_filebuf", ptr %this, i64 0, i32 15
  %8 = load i8, ptr %__owns_ib_, align 1, !tbaa !42, !range !39, !noundef !40
  %tobool3.not = icmp eq i8 %8, 0
  br i1 %tobool3.not, label %if.end8, label %if.then4

if.then4:                                         ; preds = %if.end
  %__intbuf_ = getelementptr inbounds %"class.std::__1::basic_filebuf", ptr %this, i64 0, i32 6
  %9 = load ptr, ptr %__intbuf_, align 8, !tbaa !43
  %isnull5 = icmp eq ptr %9, null
  br i1 %isnull5, label %if.end8, label %delete.notnull6

delete.notnull6:                                  ; preds = %if.then4
  tail call void @_ZdaPv(ptr noundef nonnull %9) #21
  br label %if.end8

if.end8:                                          ; preds = %if.then4, %delete.notnull6, %if.end
  tail call void @_ZNSt3__115basic_streambufIcNS_11char_traitsIcEEED2Ev(ptr noundef nonnull align 8 dereferenceable(64) %this) #19
  ret void

terminate.lpad:                                   ; preds = %lpad.body
  %10 = landingpad { ptr, i32 }
          catch ptr null
  %11 = extractvalue { ptr, i32 } %10, 0
  tail call void @__clang_call_terminate(ptr %11) #20
  unreachable
}

; Function Attrs: nounwind
declare void @_ZNSt3__113basic_ostreamIcNS_11char_traitsIcEEED2Ev(ptr noundef nonnull align 8 dereferenceable(8), ptr noundef) unnamed_addr #7

declare ptr @__cxa_begin_catch(ptr) local_unnamed_addr

declare void @__cxa_end_catch() local_unnamed_addr

; Function Attrs: noinline noreturn nounwind
define linkonce_odr hidden void @__clang_call_terminate(ptr noundef %0) local_unnamed_addr #9 comdat {
  %2 = tail call ptr @__cxa_begin_catch(ptr %0) #19
  tail call void @_ZSt9terminatev() #20
  unreachable
}

declare void @_ZSt9terminatev() local_unnamed_addr

; Function Attrs: nobuiltin nounwind
declare void @_ZdaPv(ptr noundef) local_unnamed_addr #10

; Function Attrs: nounwind
declare void @_ZNSt3__115basic_streambufIcNS_11char_traitsIcEEED2Ev(ptr noundef nonnull align 8 dereferenceable(64)) unnamed_addr #7

; Function Attrs: nounwind uwtable
define linkonce_odr dso_local void @_ZNSt3__113basic_filebufIcNS_11char_traitsIcEEED0Ev(ptr noundef nonnull align 8 dereferenceable(163) %this) unnamed_addr #8 comdat align 2 {
entry:
  tail call void @_ZNSt3__113basic_filebufIcNS_11char_traitsIcEEED2Ev(ptr noundef nonnull align 8 dereferenceable(163) %this) #19
  tail call void @_ZdlPv(ptr noundef nonnull %this) #21
  ret void
}

; Function Attrs: mustprogress uwtable
define linkonce_odr dso_local void @_ZNSt3__113basic_filebufIcNS_11char_traitsIcEEE5imbueERKNS_6localeE(ptr noundef nonnull align 8 dereferenceable(163) %this, ptr noundef nonnull align 8 dereferenceable(8) %__loc) unnamed_addr #0 comdat align 2 {
entry:
  %vtable = load ptr, ptr %this, align 8, !tbaa !12
  %vfn = getelementptr inbounds ptr, ptr %vtable, i64 6
  %0 = load ptr, ptr %vfn, align 8
  %call = tail call noundef i32 %0(ptr noundef nonnull align 8 dereferenceable(163) %this)
  %call.i = tail call noundef ptr @_ZNKSt3__16locale9use_facetERNS0_2idE(ptr noundef nonnull align 8 dereferenceable(8) %__loc, ptr noundef nonnull align 8 dereferenceable(12) @_ZNSt3__17codecvtIcc11__mbstate_tE2idE)
  %__cv_ = getelementptr inbounds %"class.std::__1::basic_filebuf", ptr %this, i64 0, i32 9
  store ptr %call.i, ptr %__cv_, align 8, !tbaa !44
  %__always_noconv_ = getelementptr inbounds %"class.std::__1::basic_filebuf", ptr %this, i64 0, i32 16
  %1 = load i8, ptr %__always_noconv_, align 2, !tbaa !45, !range !39, !noundef !40
  %vtable.i = load ptr, ptr %call.i, align 8, !tbaa !12
  %vfn.i = getelementptr inbounds ptr, ptr %vtable.i, i64 7
  %2 = load ptr, ptr %vfn.i, align 8
  %call.i47 = tail call noundef zeroext i1 %2(ptr noundef nonnull align 8 dereferenceable(16) %call.i) #19
  %frombool6 = zext i1 %call.i47 to i8
  store i8 %frombool6, ptr %__always_noconv_, align 2, !tbaa !45
  %cmp.not = icmp eq i8 %1, %frombool6
  br i1 %cmp.not, label %if.end46, label %if.then

if.then:                                          ; preds = %entry
  %__binp_.i = getelementptr inbounds %"class.std::__1::basic_streambuf", ptr %this, i64 0, i32 2
  tail call void @llvm.memset.p0.i64(ptr noundef nonnull align 8 dereferenceable(48) %__binp_.i, i8 0, i64 48, i1 false)
  %__owns_eb_ = getelementptr inbounds %"class.std::__1::basic_filebuf", ptr %this, i64 0, i32 14
  %3 = load i8, ptr %__owns_eb_, align 8, !tbaa !38, !range !39
  %tobool14.not = icmp eq i8 %3, 0
  br i1 %call.i47, label %if.then13, label %if.else

if.then13:                                        ; preds = %if.then
  br i1 %tobool14.not, label %if.end, label %if.then15

if.then15:                                        ; preds = %if.then13
  %__extbuf_ = getelementptr inbounds %"class.std::__1::basic_filebuf", ptr %this, i64 0, i32 1
  %4 = load ptr, ptr %__extbuf_, align 8, !tbaa !41
  %isnull = icmp eq ptr %4, null
  br i1 %isnull, label %if.end, label %delete.notnull

delete.notnull:                                   ; preds = %if.then15
  tail call void @_ZdaPv(ptr noundef nonnull %4) #21
  br label %if.end

if.end:                                           ; preds = %if.then15, %delete.notnull, %if.then13
  %__owns_ib_ = getelementptr inbounds %"class.std::__1::basic_filebuf", ptr %this, i64 0, i32 15
  %5 = load i8, ptr %__owns_ib_, align 1, !tbaa !42, !range !39, !noundef !40
  store i8 %5, ptr %__owns_eb_, align 8, !tbaa !38
  %__ibs_ = getelementptr inbounds %"class.std::__1::basic_filebuf", ptr %this, i64 0, i32 7
  %6 = load i64, ptr %__ibs_, align 8, !tbaa !46
  %__ebs_ = getelementptr inbounds %"class.std::__1::basic_filebuf", ptr %this, i64 0, i32 5
  store i64 %6, ptr %__ebs_, align 8, !tbaa !47
  %__intbuf_ = getelementptr inbounds %"class.std::__1::basic_filebuf", ptr %this, i64 0, i32 6
  %7 = load ptr, ptr %__intbuf_, align 8, !tbaa !43
  %__extbuf_19 = getelementptr inbounds %"class.std::__1::basic_filebuf", ptr %this, i64 0, i32 1
  store ptr %7, ptr %__extbuf_19, align 8, !tbaa !41
  store i8 0, ptr %__owns_ib_, align 1, !tbaa !42
  tail call void @llvm.memset.p0.i64(ptr noundef nonnull align 8 dereferenceable(16) %__intbuf_, i8 0, i64 16, i1 false)
  br label %if.end46

if.else:                                          ; preds = %if.then
  br i1 %tobool14.not, label %land.lhs.true, label %if.else37

land.lhs.true:                                    ; preds = %if.else
  %__extbuf_25 = getelementptr inbounds %"class.std::__1::basic_filebuf", ptr %this, i64 0, i32 1
  %8 = load ptr, ptr %__extbuf_25, align 8, !tbaa !41
  %__extbuf_min_ = getelementptr inbounds %"class.std::__1::basic_filebuf", ptr %this, i64 0, i32 4
  %cmp26.not = icmp eq ptr %8, %__extbuf_min_
  br i1 %cmp26.not, label %if.else37, label %if.then27

if.then27:                                        ; preds = %land.lhs.true
  %__ebs_28 = getelementptr inbounds %"class.std::__1::basic_filebuf", ptr %this, i64 0, i32 5
  %9 = load i64, ptr %__ebs_28, align 8, !tbaa !47
  %__ibs_29 = getelementptr inbounds %"class.std::__1::basic_filebuf", ptr %this, i64 0, i32 7
  store i64 %9, ptr %__ibs_29, align 8, !tbaa !46
  %__intbuf_31 = getelementptr inbounds %"class.std::__1::basic_filebuf", ptr %this, i64 0, i32 6
  store ptr %8, ptr %__intbuf_31, align 8, !tbaa !43
  %__owns_ib_32 = getelementptr inbounds %"class.std::__1::basic_filebuf", ptr %this, i64 0, i32 15
  store i8 0, ptr %__owns_ib_32, align 1, !tbaa !42
  %call34 = tail call noalias noundef nonnull ptr @_Znam(i64 noundef %9) #22
  store ptr %call34, ptr %__extbuf_25, align 8, !tbaa !41
  store i8 1, ptr %__owns_eb_, align 8, !tbaa !38
  br label %if.end46

if.else37:                                        ; preds = %land.lhs.true, %if.else
  %__ebs_38 = getelementptr inbounds %"class.std::__1::basic_filebuf", ptr %this, i64 0, i32 5
  %10 = load i64, ptr %__ebs_38, align 8, !tbaa !47
  %__ibs_39 = getelementptr inbounds %"class.std::__1::basic_filebuf", ptr %this, i64 0, i32 7
  store i64 %10, ptr %__ibs_39, align 8, !tbaa !46
  %call41 = tail call noalias noundef nonnull ptr @_Znam(i64 noundef %10) #22
  %__intbuf_42 = getelementptr inbounds %"class.std::__1::basic_filebuf", ptr %this, i64 0, i32 6
  store ptr %call41, ptr %__intbuf_42, align 8, !tbaa !43
  %__owns_ib_43 = getelementptr inbounds %"class.std::__1::basic_filebuf", ptr %this, i64 0, i32 15
  store i8 1, ptr %__owns_ib_43, align 1, !tbaa !42
  br label %if.end46

if.end46:                                         ; preds = %if.end, %if.else37, %if.then27, %entry
  ret void
}

; Function Attrs: mustprogress uwtable
define linkonce_odr dso_local noundef ptr @_ZNSt3__113basic_filebufIcNS_11char_traitsIcEEE6setbufEPcl(ptr noundef nonnull align 8 dereferenceable(163) %this, ptr noundef %__s, i64 noundef %__n) unnamed_addr #0 comdat align 2 {
entry:
  %__binp_.i = getelementptr inbounds %"class.std::__1::basic_streambuf", ptr %this, i64 0, i32 2
  %__owns_eb_ = getelementptr inbounds %"class.std::__1::basic_filebuf", ptr %this, i64 0, i32 14
  tail call void @llvm.memset.p0.i64(ptr noundef nonnull align 8 dereferenceable(48) %__binp_.i, i8 0, i64 48, i1 false)
  %0 = load i8, ptr %__owns_eb_, align 8, !tbaa !38, !range !39, !noundef !40
  %tobool.not = icmp eq i8 %0, 0
  br i1 %tobool.not, label %if.end, label %if.then

if.then:                                          ; preds = %entry
  %__extbuf_ = getelementptr inbounds %"class.std::__1::basic_filebuf", ptr %this, i64 0, i32 1
  %1 = load ptr, ptr %__extbuf_, align 8, !tbaa !41
  %isnull = icmp eq ptr %1, null
  br i1 %isnull, label %if.end, label %delete.notnull

delete.notnull:                                   ; preds = %if.then
  tail call void @_ZdaPv(ptr noundef nonnull %1) #21
  br label %if.end

if.end:                                           ; preds = %if.then, %delete.notnull, %entry
  %__owns_ib_ = getelementptr inbounds %"class.std::__1::basic_filebuf", ptr %this, i64 0, i32 15
  %2 = load i8, ptr %__owns_ib_, align 1, !tbaa !42, !range !39, !noundef !40
  %tobool2.not = icmp eq i8 %2, 0
  br i1 %tobool2.not, label %if.end7, label %if.then3

if.then3:                                         ; preds = %if.end
  %__intbuf_ = getelementptr inbounds %"class.std::__1::basic_filebuf", ptr %this, i64 0, i32 6
  %3 = load ptr, ptr %__intbuf_, align 8, !tbaa !43
  %isnull4 = icmp eq ptr %3, null
  br i1 %isnull4, label %if.end7, label %delete.notnull5

delete.notnull5:                                  ; preds = %if.then3
  tail call void @_ZdaPv(ptr noundef nonnull %3) #21
  br label %if.end7

if.end7:                                          ; preds = %if.then3, %delete.notnull5, %if.end
  %__ebs_ = getelementptr inbounds %"class.std::__1::basic_filebuf", ptr %this, i64 0, i32 5
  store i64 %__n, ptr %__ebs_, align 8, !tbaa !47
  %cmp = icmp ugt i64 %__n, 8
  br i1 %cmp, label %if.then9, label %if.else19

if.then9:                                         ; preds = %if.end7
  %__always_noconv_ = getelementptr inbounds %"class.std::__1::basic_filebuf", ptr %this, i64 0, i32 16
  %4 = load i8, ptr %__always_noconv_, align 2, !tbaa !45, !range !39, !noundef !40
  %tobool10 = icmp ne i8 %4, 0
  %tobool11 = icmp ne ptr %__s, null
  %or.cond = and i1 %tobool11, %tobool10
  br i1 %or.cond, label %if.end23.thread, label %if.else

if.end23.thread:                                  ; preds = %if.then9
  %__extbuf_13 = getelementptr inbounds %"class.std::__1::basic_filebuf", ptr %this, i64 0, i32 1
  store ptr %__s, ptr %__extbuf_13, align 8, !tbaa !41
  store i8 0, ptr %__owns_eb_, align 8, !tbaa !38
  br label %if.else41

if.else:                                          ; preds = %if.then9
  %call = tail call noalias noundef nonnull ptr @_Znam(i64 noundef %__n) #22
  %__extbuf_16 = getelementptr inbounds %"class.std::__1::basic_filebuf", ptr %this, i64 0, i32 1
  store ptr %call, ptr %__extbuf_16, align 8, !tbaa !41
  store i8 1, ptr %__owns_eb_, align 8, !tbaa !38
  br label %if.end23

if.else19:                                        ; preds = %if.end7
  %__extbuf_min_ = getelementptr inbounds %"class.std::__1::basic_filebuf", ptr %this, i64 0, i32 4
  %__extbuf_20 = getelementptr inbounds %"class.std::__1::basic_filebuf", ptr %this, i64 0, i32 1
  store ptr %__extbuf_min_, ptr %__extbuf_20, align 8, !tbaa !41
  store i64 8, ptr %__ebs_, align 8, !tbaa !47
  store i8 0, ptr %__owns_eb_, align 8, !tbaa !38
  %__always_noconv_24.phi.trans.insert = getelementptr inbounds %"class.std::__1::basic_filebuf", ptr %this, i64 0, i32 16
  %.pre = load i8, ptr %__always_noconv_24.phi.trans.insert, align 2, !tbaa !45, !range !39
  br label %if.end23

if.end23:                                         ; preds = %if.else, %if.else19
  %5 = phi i8 [ %4, %if.else ], [ %.pre, %if.else19 ]
  %tobool25.not = icmp eq i8 %5, 0
  br i1 %tobool25.not, label %if.then26, label %if.else41

if.then26:                                        ; preds = %if.end23
  %.sroa.speculated = tail call i64 @llvm.smax.i64(i64 %__n, i64 8)
  %__ibs_ = getelementptr inbounds %"class.std::__1::basic_filebuf", ptr %this, i64 0, i32 7
  store i64 %.sroa.speculated, ptr %__ibs_, align 8, !tbaa !46
  %tobool28.not.not = icmp eq ptr %__s, null
  br i1 %tobool28.not.not, label %if.else35, label %if.then32

if.then32:                                        ; preds = %if.then26
  %__intbuf_33 = getelementptr inbounds %"class.std::__1::basic_filebuf", ptr %this, i64 0, i32 6
  store ptr %__s, ptr %__intbuf_33, align 8, !tbaa !43
  store i8 0, ptr %__owns_ib_, align 1, !tbaa !42
  br label %if.end45

if.else35:                                        ; preds = %if.then26
  %call37 = tail call noalias noundef nonnull ptr @_Znam(i64 noundef %.sroa.speculated) #22
  %__intbuf_38 = getelementptr inbounds %"class.std::__1::basic_filebuf", ptr %this, i64 0, i32 6
  store ptr %call37, ptr %__intbuf_38, align 8, !tbaa !43
  store i8 1, ptr %__owns_ib_, align 1, !tbaa !42
  br label %if.end45

if.else41:                                        ; preds = %if.end23.thread, %if.end23
  %__intbuf_43 = getelementptr inbounds %"class.std::__1::basic_filebuf", ptr %this, i64 0, i32 6
  store i8 0, ptr %__owns_ib_, align 1, !tbaa !42
  tail call void @llvm.memset.p0.i64(ptr noundef nonnull align 8 dereferenceable(16) %__intbuf_43, i8 0, i64 16, i1 false)
  br label %if.end45

if.end45:                                         ; preds = %if.then32, %if.else35, %if.else41
  ret ptr %this
}

; Function Attrs: uwtable
define linkonce_odr dso_local { i64, i64 } @_ZNSt3__113basic_filebufIcNS_11char_traitsIcEEE7seekoffExNS_8ios_base7seekdirEj(ptr noundef nonnull align 8 dereferenceable(163) %this, i64 noundef %__off, i32 noundef %__way, i32 noundef %0) unnamed_addr #3 comdat align 2 {
entry:
  %__cv_ = getelementptr inbounds %"class.std::__1::basic_filebuf", ptr %this, i64 0, i32 9
  %1 = load ptr, ptr %__cv_, align 8, !tbaa !44
  %tobool.not = icmp eq ptr %1, null
  br i1 %tobool.not, label %if.then, label %if.end

if.then:                                          ; preds = %entry
  tail call void @_ZNSt3__116__throw_bad_castB7v170000Ev() #23
  unreachable

if.end:                                           ; preds = %entry
  %vtable.i = load ptr, ptr %1, align 8, !tbaa !12
  %vfn.i = getelementptr inbounds ptr, ptr %vtable.i, i64 6
  %2 = load ptr, ptr %vfn.i, align 8
  %call.i = tail call noundef i32 %2(ptr noundef nonnull align 8 dereferenceable(16) %1) #19
  %__file_ = getelementptr inbounds %"class.std::__1::basic_filebuf", ptr %this, i64 0, i32 8
  %3 = load ptr, ptr %__file_, align 8, !tbaa !20
  %cmp = icmp eq ptr %3, null
  br i1 %cmp, label %cleanup20, label %lor.lhs.false

lor.lhs.false:                                    ; preds = %if.end
  %cmp3 = icmp slt i32 %call.i, 1
  %cmp4 = icmp ne i64 %__off, 0
  %or.cond = and i1 %cmp4, %cmp3
  br i1 %or.cond, label %cleanup20, label %lor.lhs.false5

lor.lhs.false5:                                   ; preds = %lor.lhs.false
  %vtable = load ptr, ptr %this, align 8, !tbaa !12
  %vfn = getelementptr inbounds ptr, ptr %vtable, i64 6
  %4 = load ptr, ptr %vfn, align 8
  %call6 = tail call noundef i32 %4(ptr noundef nonnull align 8 dereferenceable(163) %this)
  %tobool7.not = icmp eq i32 %call6, 0
  %switch = icmp ult i32 %__way, 3
  %or.cond27 = and i1 %switch, %tobool7.not
  br i1 %or.cond27, label %sw.epilog, label %cleanup20

sw.epilog:                                        ; preds = %lor.lhs.false5
  %5 = load ptr, ptr %__file_, align 8, !tbaa !20
  %cmp13 = icmp sgt i32 %call.i, 0
  %conv = zext i32 %call.i to i64
  %mul = mul nsw i64 %conv, %__off
  %cond = select i1 %cmp13, i64 %mul, i64 0
  %call14 = tail call i32 @fseeko(ptr noundef %5, i64 noundef %cond, i32 noundef %__way)
  %tobool15.not = icmp eq i32 %call14, 0
  br i1 %tobool15.not, label %if.end17, label %cleanup20

if.end17:                                         ; preds = %sw.epilog
  %6 = load ptr, ptr %__file_, align 8, !tbaa !20
  %call19 = tail call i64 @ftello(ptr noundef %6)
  %__st_ = getelementptr inbounds %"class.std::__1::basic_filebuf", ptr %this, i64 0, i32 10
  %agg.tmp.sroa.0.0.copyload = load i64, ptr %__st_, align 8, !tbaa.struct !48
  br label %cleanup20

cleanup20:                                        ; preds = %sw.epilog, %if.end, %lor.lhs.false5, %lor.lhs.false, %if.end17
  %retval.sroa.6.0 = phi i64 [ %call19, %if.end17 ], [ -1, %lor.lhs.false ], [ -1, %lor.lhs.false5 ], [ -1, %if.end ], [ -1, %sw.epilog ]
  %retval.sroa.0.0 = phi i64 [ %agg.tmp.sroa.0.0.copyload, %if.end17 ], [ 0, %lor.lhs.false ], [ 0, %lor.lhs.false5 ], [ 0, %if.end ], [ 0, %sw.epilog ]
  %.fca.0.insert = insertvalue { i64, i64 } poison, i64 %retval.sroa.0.0, 0
  %.fca.1.insert = insertvalue { i64, i64 } %.fca.0.insert, i64 %retval.sroa.6.0, 1
  ret { i64, i64 } %.fca.1.insert
}

; Function Attrs: uwtable
define linkonce_odr dso_local { i64, i64 } @_ZNSt3__113basic_filebufIcNS_11char_traitsIcEEE7seekposENS_4fposI11__mbstate_tEEj(ptr noundef nonnull align 8 dereferenceable(163) %this, i64 %__sp.coerce0, i64 %__sp.coerce1, i32 noundef %0) unnamed_addr #3 comdat align 2 {
entry:
  %__file_ = getelementptr inbounds %"class.std::__1::basic_filebuf", ptr %this, i64 0, i32 8
  %1 = load ptr, ptr %__file_, align 8, !tbaa !20
  %cmp = icmp eq ptr %1, null
  br i1 %cmp, label %return, label %lor.lhs.false

lor.lhs.false:                                    ; preds = %entry
  %vtable = load ptr, ptr %this, align 8, !tbaa !12
  %vfn = getelementptr inbounds ptr, ptr %vtable, i64 6
  %2 = load ptr, ptr %vfn, align 8
  %call = tail call noundef i32 %2(ptr noundef nonnull align 8 dereferenceable(163) %this)
  %tobool.not = icmp eq i32 %call, 0
  br i1 %tobool.not, label %if.end, label %return

if.end:                                           ; preds = %lor.lhs.false
  %3 = load ptr, ptr %__file_, align 8, !tbaa !20
  %call4 = tail call i32 @fseeko(ptr noundef %3, i64 noundef %__sp.coerce1, i32 noundef 0)
  %tobool5.not = icmp eq i32 %call4, 0
  br i1 %tobool5.not, label %if.end7, label %return

if.end7:                                          ; preds = %if.end
  %__st_ = getelementptr inbounds %"class.std::__1::basic_filebuf", ptr %this, i64 0, i32 10
  store i64 %__sp.coerce0, ptr %__st_, align 8, !tbaa.struct !48
  br label %return

return:                                           ; preds = %if.end, %entry, %lor.lhs.false, %if.end7
  %retval.sroa.0.0 = phi i64 [ %__sp.coerce0, %if.end7 ], [ 0, %lor.lhs.false ], [ 0, %entry ], [ 0, %if.end ]
  %retval.sroa.4.0 = phi i64 [ %__sp.coerce1, %if.end7 ], [ -1, %lor.lhs.false ], [ -1, %entry ], [ -1, %if.end ]
  %.fca.0.insert = insertvalue { i64, i64 } poison, i64 %retval.sroa.0.0, 0
  %.fca.1.insert = insertvalue { i64, i64 } %.fca.0.insert, i64 %retval.sroa.4.0, 1
  ret { i64, i64 } %.fca.1.insert
}

; Function Attrs: mustprogress uwtable
define linkonce_odr dso_local noundef i32 @_ZNSt3__113basic_filebufIcNS_11char_traitsIcEEE4syncEv(ptr noundef nonnull align 8 dereferenceable(163) %this) unnamed_addr #0 comdat align 2 {
entry:
  %__extbe = alloca ptr, align 8
  %__state = alloca %struct.__mbstate_t, align 8
  %__file_ = getelementptr inbounds %"class.std::__1::basic_filebuf", ptr %this, i64 0, i32 8
  %0 = load ptr, ptr %__file_, align 8, !tbaa !20
  %cmp = icmp eq ptr %0, null
  br i1 %cmp, label %return, label %if.end

if.end:                                           ; preds = %entry
  %__cv_ = getelementptr inbounds %"class.std::__1::basic_filebuf", ptr %this, i64 0, i32 9
  %1 = load ptr, ptr %__cv_, align 8, !tbaa !44
  %tobool.not = icmp eq ptr %1, null
  br i1 %tobool.not, label %if.then2, label %if.end3

if.then2:                                         ; preds = %if.end
  tail call void @_ZNSt3__116__throw_bad_castB7v170000Ev() #23
  unreachable

if.end3:                                          ; preds = %if.end
  %__cm_ = getelementptr inbounds %"class.std::__1::basic_filebuf", ptr %this, i64 0, i32 13
  %2 = load i32, ptr %__cm_, align 4, !tbaa !50
  %and = and i32 %2, 16
  %tobool4.not = icmp eq i32 %and, 0
  br i1 %tobool4.not, label %if.else, label %if.then5

if.then5:                                         ; preds = %if.end3
  %__nout_.i = getelementptr inbounds %"class.std::__1::basic_streambuf", ptr %this, i64 0, i32 6
  %3 = load ptr, ptr %__nout_.i, align 8, !tbaa !51
  %__bout_.i = getelementptr inbounds %"class.std::__1::basic_streambuf", ptr %this, i64 0, i32 5
  %4 = load ptr, ptr %__bout_.i, align 8, !tbaa !52
  %cmp7.not = icmp eq ptr %3, %4
  br i1 %cmp7.not, label %if.end15, label %if.then8

if.then8:                                         ; preds = %if.then5
  %vtable = load ptr, ptr %this, align 8, !tbaa !12
  %vfn = getelementptr inbounds ptr, ptr %vtable, i64 13
  %5 = load ptr, ptr %vfn, align 8
  %call10 = tail call noundef i32 %5(ptr noundef nonnull align 8 dereferenceable(163) %this, i32 noundef -1)
  %cmp12 = icmp eq i32 %call10, -1
  br i1 %cmp12, label %return, label %if.end15

if.end15:                                         ; preds = %if.then8, %if.then5
  %__st_ = getelementptr inbounds %"class.std::__1::basic_filebuf", ptr %this, i64 0, i32 10
  %__extbuf_ = getelementptr inbounds %"class.std::__1::basic_filebuf", ptr %this, i64 0, i32 1
  %__ebs_ = getelementptr inbounds %"class.std::__1::basic_filebuf", ptr %this, i64 0, i32 5
  br label %do.body

do.body:                                          ; preds = %do.cond, %if.end15
  call void @llvm.lifetime.start.p0(i64 8, ptr nonnull %__extbe) #19
  %6 = load ptr, ptr %__cv_, align 8, !tbaa !44
  %7 = load ptr, ptr %__extbuf_, align 8, !tbaa !41
  %8 = load i64, ptr %__ebs_, align 8, !tbaa !47
  %add.ptr = getelementptr inbounds i8, ptr %7, i64 %8
  %vtable.i = load ptr, ptr %6, align 8, !tbaa !12
  %vfn.i = getelementptr inbounds ptr, ptr %vtable.i, i64 5
  %9 = load ptr, ptr %vfn.i, align 8
  %call.i = call noundef i32 %9(ptr noundef nonnull align 8 dereferenceable(16) %6, ptr noundef nonnull align 4 dereferenceable(8) %__st_, ptr noundef %7, ptr noundef %add.ptr, ptr noundef nonnull align 8 dereferenceable(8) %__extbe)
  %10 = load ptr, ptr %__extbe, align 8, !tbaa !53
  %11 = load ptr, ptr %__extbuf_, align 8, !tbaa !41
  %sub.ptr.lhs.cast = ptrtoint ptr %10 to i64
  %sub.ptr.rhs.cast = ptrtoint ptr %11 to i64
  %sub.ptr.sub = sub i64 %sub.ptr.lhs.cast, %sub.ptr.rhs.cast
  %12 = load ptr, ptr %__file_, align 8, !tbaa !20
  %call22 = call i64 @fwrite(ptr noundef %11, i64 noundef 1, i64 noundef %sub.ptr.sub, ptr noundef %12)
  %cmp23.not = icmp eq i64 %call22, %sub.ptr.sub
  call void @llvm.lifetime.end.p0(i64 8, ptr nonnull %__extbe) #19
  br i1 %cmp23.not, label %do.cond, label %cleanup36.thread

do.cond:                                          ; preds = %do.body
  switch i32 %call.i, label %if.end30 [
    i32 1, label %do.body
    i32 2, label %cleanup36.thread
  ]

if.end30:                                         ; preds = %do.cond
  %13 = load ptr, ptr %__file_, align 8, !tbaa !20
  %call32 = call i32 @fflush(ptr noundef %13)
  %tobool33.not = icmp eq i32 %call32, 0
  br i1 %tobool33.not, label %return, label %cleanup36.thread

cleanup36.thread:                                 ; preds = %do.body, %do.cond, %if.end30
  br label %return

if.else:                                          ; preds = %if.end3
  %and40 = and i32 %2, 8
  %tobool41.not = icmp eq i32 %and40, 0
  br i1 %tobool41.not, label %return, label %if.then42

if.then42:                                        ; preds = %if.else
  call void @llvm.lifetime.start.p0(i64 8, ptr nonnull %__state) #19
  %__st_last_ = getelementptr inbounds %"class.std::__1::basic_filebuf", ptr %this, i64 0, i32 11
  %14 = load i64, ptr %__st_last_, align 8
  store i64 %14, ptr %__state, align 8
  %__always_noconv_ = getelementptr inbounds %"class.std::__1::basic_filebuf", ptr %this, i64 0, i32 16
  %15 = load i8, ptr %__always_noconv_, align 2, !tbaa !45, !range !39, !noundef !40
  %tobool43.not = icmp eq i8 %15, 0
  br i1 %tobool43.not, label %if.else50, label %if.then44

if.then44:                                        ; preds = %if.then42
  %__einp_.i = getelementptr inbounds %"class.std::__1::basic_streambuf", ptr %this, i64 0, i32 4
  %16 = load ptr, ptr %__einp_.i, align 8, !tbaa !54
  %__ninp_.i = getelementptr inbounds %"class.std::__1::basic_streambuf", ptr %this, i64 0, i32 3
  %17 = load ptr, ptr %__ninp_.i, align 8, !tbaa !55
  %sub.ptr.lhs.cast47 = ptrtoint ptr %16 to i64
  %sub.ptr.rhs.cast48 = ptrtoint ptr %17 to i64
  %sub.ptr.sub49 = sub i64 %sub.ptr.lhs.cast47, %sub.ptr.rhs.cast48
  br label %if.end86

if.else50:                                        ; preds = %if.then42
  %vtable.i116 = load ptr, ptr %1, align 8, !tbaa !12
  %vfn.i117 = getelementptr inbounds ptr, ptr %vtable.i116, i64 6
  %18 = load ptr, ptr %vfn.i117, align 8
  %call.i118 = tail call noundef i32 %18(ptr noundef nonnull align 8 dereferenceable(16) %1) #19
  %__extbufend_ = getelementptr inbounds %"class.std::__1::basic_filebuf", ptr %this, i64 0, i32 3
  %19 = load ptr, ptr %__extbufend_, align 8, !tbaa !56
  %__extbufnext_ = getelementptr inbounds %"class.std::__1::basic_filebuf", ptr %this, i64 0, i32 2
  %20 = load ptr, ptr %__extbufnext_, align 8, !tbaa !57
  %sub.ptr.lhs.cast53 = ptrtoint ptr %19 to i64
  %sub.ptr.rhs.cast54 = ptrtoint ptr %20 to i64
  %sub.ptr.sub55 = sub i64 %sub.ptr.lhs.cast53, %sub.ptr.rhs.cast54
  %cmp56 = icmp sgt i32 %call.i118, 0
  br i1 %cmp56, label %if.then57, label %if.else63

if.then57:                                        ; preds = %if.else50
  %conv = zext i32 %call.i118 to i64
  %__einp_.i119 = getelementptr inbounds %"class.std::__1::basic_streambuf", ptr %this, i64 0, i32 4
  %21 = load ptr, ptr %__einp_.i119, align 8, !tbaa !54
  %__ninp_.i120 = getelementptr inbounds %"class.std::__1::basic_streambuf", ptr %this, i64 0, i32 3
  %22 = load ptr, ptr %__ninp_.i120, align 8, !tbaa !55
  %sub.ptr.lhs.cast60 = ptrtoint ptr %21 to i64
  %sub.ptr.rhs.cast61 = ptrtoint ptr %22 to i64
  %sub.ptr.sub62 = sub i64 %sub.ptr.lhs.cast60, %sub.ptr.rhs.cast61
  %mul = mul nsw i64 %sub.ptr.sub62, %conv
  %add = add nsw i64 %mul, %sub.ptr.sub55
  br label %if.end86

if.else63:                                        ; preds = %if.else50
  %__ninp_.i121 = getelementptr inbounds %"class.std::__1::basic_streambuf", ptr %this, i64 0, i32 3
  %23 = load ptr, ptr %__ninp_.i121, align 8, !tbaa !55
  %__einp_.i122 = getelementptr inbounds %"class.std::__1::basic_streambuf", ptr %this, i64 0, i32 4
  %24 = load ptr, ptr %__einp_.i122, align 8, !tbaa !54
  %cmp66.not = icmp eq ptr %23, %24
  br i1 %cmp66.not, label %if.end86, label %if.then67

if.then67:                                        ; preds = %if.else63
  %25 = load ptr, ptr %__cv_, align 8, !tbaa !44
  %__extbuf_69 = getelementptr inbounds %"class.std::__1::basic_filebuf", ptr %this, i64 0, i32 1
  %26 = load ptr, ptr %__extbuf_69, align 8, !tbaa !41
  %__binp_.i = getelementptr inbounds %"class.std::__1::basic_streambuf", ptr %this, i64 0, i32 2
  %27 = load ptr, ptr %__binp_.i, align 8, !tbaa !58
  %sub.ptr.lhs.cast73 = ptrtoint ptr %23 to i64
  %sub.ptr.rhs.cast74 = ptrtoint ptr %27 to i64
  %sub.ptr.sub75 = sub i64 %sub.ptr.lhs.cast73, %sub.ptr.rhs.cast74
  %vtable.i124 = load ptr, ptr %25, align 8, !tbaa !12
  %vfn.i125 = getelementptr inbounds ptr, ptr %vtable.i124, i64 8
  %28 = load ptr, ptr %vfn.i125, align 8
  %call.i126 = call noundef i32 %28(ptr noundef nonnull align 8 dereferenceable(16) %25, ptr noundef nonnull align 4 dereferenceable(8) %__state, ptr noundef %26, ptr noundef %20, i64 noundef %sub.ptr.sub75)
  %29 = load ptr, ptr %__extbufnext_, align 8, !tbaa !57
  %30 = load ptr, ptr %__extbuf_69, align 8, !tbaa !41
  %sub.ptr.lhs.cast79 = ptrtoint ptr %29 to i64
  %sub.ptr.rhs.cast80 = ptrtoint ptr %30 to i64
  %conv82 = sext i32 %call.i126 to i64
  %31 = add i64 %sub.ptr.sub55, %sub.ptr.lhs.cast79
  %32 = add i64 %conv82, %sub.ptr.rhs.cast80
  %add83 = sub i64 %31, %32
  br label %if.end86

if.end86:                                         ; preds = %if.then57, %if.then67, %if.else63, %if.then44
  %__c.1 = phi i64 [ %sub.ptr.sub49, %if.then44 ], [ %add, %if.then57 ], [ %add83, %if.then67 ], [ %sub.ptr.sub55, %if.else63 ]
  %__update_st.1 = phi i1 [ false, %if.then44 ], [ false, %if.then57 ], [ true, %if.then67 ], [ false, %if.else63 ]
  %33 = load ptr, ptr %__file_, align 8, !tbaa !20
  %sub88 = sub nsw i64 0, %__c.1
  %call89 = call i32 @fseeko(ptr noundef %33, i64 noundef %sub88, i32 noundef 1)
  %tobool90.not.not = icmp eq i32 %call89, 0
  br i1 %tobool90.not.not, label %if.end92, label %cleanup101

if.end92:                                         ; preds = %if.end86
  br i1 %__update_st.1, label %if.then94, label %cleanup101.thread

if.then94:                                        ; preds = %if.end92
  %__st_95 = getelementptr inbounds %"class.std::__1::basic_filebuf", ptr %this, i64 0, i32 10
  %34 = load i64, ptr %__state, align 8
  store i64 %34, ptr %__st_95, align 8
  br label %cleanup101.thread

cleanup101.thread:                                ; preds = %if.end92, %if.then94
  %__extbuf_97 = getelementptr inbounds %"class.std::__1::basic_filebuf", ptr %this, i64 0, i32 1
  %35 = load ptr, ptr %__extbuf_97, align 8, !tbaa !41
  %__extbufend_98 = getelementptr inbounds %"class.std::__1::basic_filebuf", ptr %this, i64 0, i32 3
  store ptr %35, ptr %__extbufend_98, align 8, !tbaa !56
  %__extbufnext_99 = getelementptr inbounds %"class.std::__1::basic_filebuf", ptr %this, i64 0, i32 2
  store ptr %35, ptr %__extbufnext_99, align 8, !tbaa !57
  %__binp_.i127 = getelementptr inbounds %"class.std::__1::basic_streambuf", ptr %this, i64 0, i32 2
  store i32 0, ptr %__cm_, align 4, !tbaa !50
  call void @llvm.memset.p0.i64(ptr noundef nonnull align 8 dereferenceable(24) %__binp_.i127, i8 0, i64 24, i1 false)
  call void @llvm.lifetime.end.p0(i64 8, ptr nonnull %__state) #19
  br label %return

cleanup101:                                       ; preds = %if.end86
  call void @llvm.lifetime.end.p0(i64 8, ptr nonnull %__state) #19
  br label %return

return:                                           ; preds = %if.else, %if.end30, %cleanup101.thread, %cleanup101, %cleanup36.thread, %if.then8, %entry
  %retval.4 = phi i32 [ -1, %cleanup101 ], [ 0, %entry ], [ -1, %if.then8 ], [ -1, %cleanup36.thread ], [ 0, %cleanup101.thread ], [ 0, %if.end30 ], [ 0, %if.else ]
  ret i32 %retval.4
}

declare noundef i64 @_ZNSt3__115basic_streambufIcNS_11char_traitsIcEEE9showmanycEv(ptr noundef nonnull align 8 dereferenceable(64)) unnamed_addr #1

declare noundef i64 @_ZNSt3__115basic_streambufIcNS_11char_traitsIcEEE6xsgetnEPcl(ptr noundef nonnull align 8 dereferenceable(64), ptr noundef, i64 noundef) unnamed_addr #1

; Function Attrs: mustprogress uwtable
define linkonce_odr dso_local noundef i32 @_ZNSt3__113basic_filebufIcNS_11char_traitsIcEEE9underflowEv(ptr noundef nonnull align 8 dereferenceable(163) %this) unnamed_addr #0 comdat align 2 {
entry:
  %__1buf = alloca i8, align 1
  %__inext = alloca ptr, align 8
  %__file_ = getelementptr inbounds %"class.std::__1::basic_filebuf", ptr %this, i64 0, i32 8
  %0 = load ptr, ptr %__file_, align 8, !tbaa !20
  %cmp = icmp eq ptr %0, null
  br i1 %cmp, label %return, label %if.end

if.end:                                           ; preds = %entry
  %__cm_.i = getelementptr inbounds %"class.std::__1::basic_filebuf", ptr %this, i64 0, i32 13
  %1 = load i32, ptr %__cm_.i, align 4, !tbaa !50
  %and.i = and i32 %1, 8
  %tobool.not.i = icmp eq i32 %and.i, 0
  br i1 %tobool.not.i, label %if.then.i, label %if.end._ZNSt3__113basic_filebufIcNS_11char_traitsIcEEE11__read_modeEv.exit_crit_edge

if.end._ZNSt3__113basic_filebufIcNS_11char_traitsIcEEE11__read_modeEv.exit_crit_edge: ; preds = %if.end
  %__ninp_.i.phi.trans.insert = getelementptr inbounds %"class.std::__1::basic_streambuf", ptr %this, i64 0, i32 3
  %.pre = load ptr, ptr %__ninp_.i.phi.trans.insert, align 8, !tbaa !55
  br label %_ZNSt3__113basic_filebufIcNS_11char_traitsIcEEE11__read_modeEv.exit

if.then.i:                                        ; preds = %if.end
  %__bout_.i.i = getelementptr inbounds %"class.std::__1::basic_streambuf", ptr %this, i64 0, i32 5
  %__always_noconv_.i = getelementptr inbounds %"class.std::__1::basic_filebuf", ptr %this, i64 0, i32 16
  tail call void @llvm.memset.p0.i64(ptr noundef nonnull align 8 dereferenceable(24) %__bout_.i.i, i8 0, i64 24, i1 false)
  %2 = load i8, ptr %__always_noconv_.i, align 2, !tbaa !45, !range !39, !noundef !40
  %tobool2.not.i = icmp eq i8 %2, 0
  %__intbuf_.i = getelementptr inbounds %"class.std::__1::basic_filebuf", ptr %this, i64 0, i32 6
  %3 = load ptr, ptr %__intbuf_.i, align 8
  %__ibs_.i = getelementptr inbounds %"class.std::__1::basic_filebuf", ptr %this, i64 0, i32 7
  %__extbuf_.i = getelementptr inbounds %"class.std::__1::basic_filebuf", ptr %this, i64 0, i32 1
  %4 = load ptr, ptr %__extbuf_.i, align 8
  %__ebs_.i = getelementptr inbounds %"class.std::__1::basic_filebuf", ptr %this, i64 0, i32 5
  %.sink19.i = select i1 %tobool2.not.i, ptr %3, ptr %4
  %__ibs_.val.i = load i64, ptr %__ibs_.i, align 8
  %__ebs_.val.i = load i64, ptr %__ebs_.i, align 8
  %5 = select i1 %tobool2.not.i, i64 %__ibs_.val.i, i64 %__ebs_.val.i
  %add.ptr9.i = getelementptr inbounds i8, ptr %.sink19.i, i64 %5
  %6 = getelementptr inbounds %"class.std::__1::basic_streambuf", ptr %this, i64 0, i32 2
  store ptr %.sink19.i, ptr %6, align 8
  %7 = getelementptr inbounds %"class.std::__1::basic_streambuf", ptr %this, i64 0, i32 3
  store ptr %add.ptr9.i, ptr %7, align 8
  %8 = getelementptr inbounds %"class.std::__1::basic_streambuf", ptr %this, i64 0, i32 4
  store ptr %add.ptr9.i, ptr %8, align 8
  store i32 8, ptr %__cm_.i, align 4, !tbaa !50
  br label %_ZNSt3__113basic_filebufIcNS_11char_traitsIcEEE11__read_modeEv.exit

_ZNSt3__113basic_filebufIcNS_11char_traitsIcEEE11__read_modeEv.exit: ; preds = %if.end._ZNSt3__113basic_filebufIcNS_11char_traitsIcEEE11__read_modeEv.exit_crit_edge, %if.then.i
  %9 = phi ptr [ %.pre, %if.end._ZNSt3__113basic_filebufIcNS_11char_traitsIcEEE11__read_modeEv.exit_crit_edge ], [ %add.ptr9.i, %if.then.i ]
  call void @llvm.lifetime.start.p0(i64 1, ptr nonnull %__1buf) #19
  %__ninp_.i = getelementptr inbounds %"class.std::__1::basic_streambuf", ptr %this, i64 0, i32 3
  %cmp4 = icmp eq ptr %9, null
  br i1 %cmp4, label %if.then5, label %if.end7

if.then5:                                         ; preds = %_ZNSt3__113basic_filebufIcNS_11char_traitsIcEEE11__read_modeEv.exit
  %add.ptr = getelementptr inbounds i8, ptr %__1buf, i64 1
  %__binp_.i = getelementptr inbounds %"class.std::__1::basic_streambuf", ptr %this, i64 0, i32 2
  store ptr %__1buf, ptr %__binp_.i, align 8, !tbaa !58
  store ptr %add.ptr, ptr %__ninp_.i, align 8, !tbaa !55
  %__einp_.i = getelementptr inbounds %"class.std::__1::basic_streambuf", ptr %this, i64 0, i32 4
  store ptr %add.ptr, ptr %__einp_.i, align 8, !tbaa !54
  br label %if.end7

if.end7:                                          ; preds = %if.then5, %_ZNSt3__113basic_filebufIcNS_11char_traitsIcEEE11__read_modeEv.exit
  %10 = phi ptr [ %add.ptr, %if.then5 ], [ %9, %_ZNSt3__113basic_filebufIcNS_11char_traitsIcEEE11__read_modeEv.exit ]
  %__einp_.i150.phi.trans.insert = getelementptr inbounds %"class.std::__1::basic_streambuf", ptr %this, i64 0, i32 4
  %.pre191 = load ptr, ptr %__einp_.i150.phi.trans.insert, align 8, !tbaa !54
  br i1 %tobool.not.i, label %cond.end, label %cond.false

cond.false:                                       ; preds = %if.end7
  %__binp_.i148 = getelementptr inbounds %"class.std::__1::basic_streambuf", ptr %this, i64 0, i32 2
  %11 = load ptr, ptr %__binp_.i148, align 8, !tbaa !58
  %sub.ptr.lhs.cast = ptrtoint ptr %.pre191 to i64
  %sub.ptr.rhs.cast = ptrtoint ptr %11 to i64
  %sub.ptr.sub = sub i64 %sub.ptr.lhs.cast, %sub.ptr.rhs.cast
  %div = sdiv i64 %sub.ptr.sub, 2
  %.sroa.speculated188 = call i64 @llvm.umin.i64(i64 %div, i64 4)
  br label %cond.end

cond.end:                                         ; preds = %if.end7, %cond.false
  %cond = phi i64 [ %.sroa.speculated188, %cond.false ], [ 0, %if.end7 ]
  %__einp_.i150 = getelementptr inbounds %"class.std::__1::basic_streambuf", ptr %this, i64 0, i32 4
  %cmp15 = icmp eq ptr %10, %.pre191
  br i1 %cmp15, label %if.then16, label %if.else125

if.then16:                                        ; preds = %cond.end
  %idx.neg = sub nsw i64 0, %cond
  %__binp_.i151 = getelementptr inbounds %"class.std::__1::basic_streambuf", ptr %this, i64 0, i32 2
  %12 = load ptr, ptr %__binp_.i151, align 8, !tbaa !58
  %add.ptr19 = getelementptr inbounds i8, ptr %.pre191, i64 %idx.neg
  call void @llvm.memmove.p0.p0.i64(ptr align 1 %12, ptr align 1 %add.ptr19, i64 %cond, i1 false)
  %__always_noconv_ = getelementptr inbounds %"class.std::__1::basic_filebuf", ptr %this, i64 0, i32 16
  %13 = load i8, ptr %__always_noconv_, align 2, !tbaa !45, !range !39, !noundef !40
  %tobool20.not = icmp eq i8 %13, 0
  br i1 %tobool20.not, label %if.else, label %if.then21

if.then21:                                        ; preds = %if.then16
  %14 = load ptr, ptr %__einp_.i150, align 8, !tbaa !54
  %15 = load ptr, ptr %__binp_.i151, align 8, !tbaa !58
  %sub.ptr.lhs.cast24 = ptrtoint ptr %14 to i64
  %sub.ptr.rhs.cast25 = ptrtoint ptr %15 to i64
  %16 = add i64 %cond, %sub.ptr.rhs.cast25
  %sub = sub i64 %sub.ptr.lhs.cast24, %16
  %add.ptr28 = getelementptr inbounds i8, ptr %15, i64 %cond
  %17 = load ptr, ptr %__file_, align 8, !tbaa !20
  %call30 = call i64 @fread(ptr noundef %add.ptr28, i64 noundef 1, i64 noundef %sub, ptr noundef %17)
  %cmp31.not = icmp eq i64 %call30, 0
  br i1 %cmp31.not, label %if.end128, label %if.then32

if.then32:                                        ; preds = %if.then21
  %18 = load ptr, ptr %__binp_.i151, align 8, !tbaa !58
  %add.ptr35 = getelementptr inbounds i8, ptr %18, i64 %cond
  %add.ptr38 = getelementptr inbounds i8, ptr %add.ptr35, i64 %call30
  store ptr %add.ptr35, ptr %__ninp_.i, align 8, !tbaa !55
  store ptr %add.ptr38, ptr %__einp_.i150, align 8, !tbaa !54
  %19 = load i8, ptr %add.ptr35, align 1, !tbaa !49
  %conv.i = zext i8 %19 to i32
  br label %if.end128

if.else:                                          ; preds = %if.then16
  %__extbufend_ = getelementptr inbounds %"class.std::__1::basic_filebuf", ptr %this, i64 0, i32 3
  %20 = load ptr, ptr %__extbufend_, align 8, !tbaa !56
  %__extbufnext_ = getelementptr inbounds %"class.std::__1::basic_filebuf", ptr %this, i64 0, i32 2
  %21 = load ptr, ptr %__extbufnext_, align 8, !tbaa !57
  %cmp42.not = icmp eq ptr %20, %21
  br i1 %cmp42.not, label %if.end54, label %if.then43

if.then43:                                        ; preds = %if.else
  %cmp45 = icmp ne ptr %21, null
  call void @llvm.assume(i1 %cmp45)
  %__extbuf_ = getelementptr inbounds %"class.std::__1::basic_filebuf", ptr %this, i64 0, i32 1
  %22 = load ptr, ptr %__extbuf_, align 8, !tbaa !41, !nonnull !40
  %sub.ptr.lhs.cast51 = ptrtoint ptr %20 to i64
  %sub.ptr.rhs.cast52 = ptrtoint ptr %21 to i64
  %sub.ptr.sub53 = sub i64 %sub.ptr.lhs.cast51, %sub.ptr.rhs.cast52
  call void @llvm.memmove.p0.p0.i64(ptr nonnull align 1 %22, ptr nonnull align 1 %21, i64 %sub.ptr.sub53, i1 false)
  %.pre192 = load ptr, ptr %__extbufend_, align 8, !tbaa !56
  %.pre193 = load ptr, ptr %__extbufnext_, align 8, !tbaa !57
  br label %if.end54

if.end54:                                         ; preds = %if.then43, %if.else
  %23 = phi ptr [ %.pre193, %if.then43 ], [ %21, %if.else ]
  %24 = phi ptr [ %.pre192, %if.then43 ], [ %20, %if.else ]
  %__extbuf_55 = getelementptr inbounds %"class.std::__1::basic_filebuf", ptr %this, i64 0, i32 1
  %25 = load ptr, ptr %__extbuf_55, align 8, !tbaa !41
  %sub.ptr.lhs.cast58 = ptrtoint ptr %24 to i64
  %sub.ptr.rhs.cast59 = ptrtoint ptr %23 to i64
  %sub.ptr.sub60 = sub i64 %sub.ptr.lhs.cast58, %sub.ptr.rhs.cast59
  %add.ptr61 = getelementptr inbounds i8, ptr %25, i64 %sub.ptr.sub60
  store ptr %add.ptr61, ptr %__extbufnext_, align 8, !tbaa !57
  %__extbuf_min_ = getelementptr inbounds %"class.std::__1::basic_filebuf", ptr %this, i64 0, i32 4
  %cmp65 = icmp eq ptr %25, %__extbuf_min_
  %__ebs_ = getelementptr inbounds %"class.std::__1::basic_filebuf", ptr %this, i64 0, i32 5
  %26 = load i64, ptr %__ebs_, align 8
  %cond69 = select i1 %cmp65, i64 8, i64 %26
  %add.ptr70 = getelementptr inbounds i8, ptr %25, i64 %cond69
  store ptr %add.ptr70, ptr %__extbufend_, align 8, !tbaa !56
  %__ibs_ = getelementptr inbounds %"class.std::__1::basic_filebuf", ptr %this, i64 0, i32 7
  %27 = load i64, ptr %__ibs_, align 8, !tbaa !46
  %sub74 = sub i64 %27, %cond
  %sub.ptr.lhs.cast78 = ptrtoint ptr %add.ptr70 to i64
  %sub.ptr.rhs.cast79 = ptrtoint ptr %add.ptr61 to i64
  %sub.ptr.sub80 = sub i64 %sub.ptr.lhs.cast78, %sub.ptr.rhs.cast79
  %.sroa.speculated = call i64 @llvm.umin.i64(i64 %sub.ptr.sub80, i64 %sub74)
  %__st_ = getelementptr inbounds %"class.std::__1::basic_filebuf", ptr %this, i64 0, i32 10
  %__st_last_ = getelementptr inbounds %"class.std::__1::basic_filebuf", ptr %this, i64 0, i32 11
  %28 = load i64, ptr %__st_, align 8
  store i64 %28, ptr %__st_last_, align 8
  %29 = load ptr, ptr %__file_, align 8, !tbaa !20
  %call84 = call i64 @fread(ptr noundef %add.ptr61, i64 noundef 1, i64 noundef %.sroa.speculated, ptr noundef %29)
  %cmp85.not = icmp eq i64 %call84, 0
  br i1 %cmp85.not, label %if.end128, label %if.then86

if.then86:                                        ; preds = %if.end54
  %__cv_ = getelementptr inbounds %"class.std::__1::basic_filebuf", ptr %this, i64 0, i32 9
  %30 = load ptr, ptr %__cv_, align 8, !tbaa !44
  %tobool87.not = icmp eq ptr %30, null
  br i1 %tobool87.not, label %if.then88, label %if.end89

if.then88:                                        ; preds = %if.then86
  call void @_ZNSt3__116__throw_bad_castB7v170000Ev() #23
  unreachable

if.end89:                                         ; preds = %if.then86
  %31 = load ptr, ptr %__extbufnext_, align 8, !tbaa !57
  %add.ptr91 = getelementptr inbounds i8, ptr %31, i64 %call84
  store ptr %add.ptr91, ptr %__extbufend_, align 8, !tbaa !56
  call void @llvm.lifetime.start.p0(i64 8, ptr nonnull %__inext) #19
  %32 = load ptr, ptr %__extbuf_55, align 8, !tbaa !41
  %33 = load ptr, ptr %__binp_.i151, align 8, !tbaa !58
  %add.ptr99 = getelementptr inbounds i8, ptr %33, i64 %cond
  %34 = load i64, ptr %__ibs_, align 8, !tbaa !46
  %add.ptr102 = getelementptr inbounds i8, ptr %33, i64 %34
  %vtable.i = load ptr, ptr %30, align 8, !tbaa !12
  %vfn.i = getelementptr inbounds ptr, ptr %vtable.i, i64 4
  %35 = load ptr, ptr %vfn.i, align 8
  %call.i = call noundef i32 %35(ptr noundef nonnull align 8 dereferenceable(16) %30, ptr noundef nonnull align 4 dereferenceable(8) %__st_, ptr noundef %32, ptr noundef nonnull %add.ptr91, ptr noundef nonnull align 8 dereferenceable(8) %__extbufnext_, ptr noundef %add.ptr99, ptr noundef %add.ptr102, ptr noundef nonnull align 8 dereferenceable(8) %__inext)
  %cmp104 = icmp eq i32 %call.i, 3
  br i1 %cmp104, label %if.then105, label %if.else111

if.then105:                                       ; preds = %if.end89
  %36 = load ptr, ptr %__extbuf_55, align 8, !tbaa !41
  %37 = load ptr, ptr %__extbufend_, align 8, !tbaa !56
  store ptr %36, ptr %__binp_.i151, align 8, !tbaa !58
  br label %if.end122.sink.split

if.else111:                                       ; preds = %if.end89
  %38 = load ptr, ptr %__inext, align 8, !tbaa !53
  %39 = load ptr, ptr %__binp_.i151, align 8, !tbaa !58
  %add.ptr113 = getelementptr inbounds i8, ptr %39, i64 %cond
  %cmp114.not = icmp eq ptr %38, %add.ptr113
  br i1 %cmp114.not, label %if.end122, label %if.end122.sink.split

if.end122.sink.split:                             ; preds = %if.else111, %if.then105
  %add.ptr113.sink194 = phi ptr [ %36, %if.then105 ], [ %add.ptr113, %if.else111 ]
  %.sink = phi ptr [ %37, %if.then105 ], [ %38, %if.else111 ]
  store ptr %add.ptr113.sink194, ptr %__ninp_.i, align 8, !tbaa !55
  store ptr %.sink, ptr %__einp_.i150, align 8, !tbaa !54
  %40 = load i8, ptr %add.ptr113.sink194, align 1, !tbaa !49
  %conv.i179 = zext i8 %40 to i32
  br label %if.end122

if.end122:                                        ; preds = %if.end122.sink.split, %if.else111
  %__c.1 = phi i32 [ -1, %if.else111 ], [ %conv.i179, %if.end122.sink.split ]
  call void @llvm.lifetime.end.p0(i64 8, ptr nonnull %__inext) #19
  br label %if.end128

if.else125:                                       ; preds = %cond.end
  %41 = load i8, ptr %10, align 1, !tbaa !49
  %conv.i181 = zext i8 %41 to i32
  br label %if.end128

if.end128:                                        ; preds = %if.end54, %if.end122, %if.then21, %if.then32, %if.else125
  %__c.3 = phi i32 [ %conv.i181, %if.else125 ], [ %conv.i, %if.then32 ], [ -1, %if.then21 ], [ %__c.1, %if.end122 ], [ -1, %if.end54 ]
  %__binp_.i182 = getelementptr inbounds %"class.std::__1::basic_streambuf", ptr %this, i64 0, i32 2
  %42 = load ptr, ptr %__binp_.i182, align 8, !tbaa !58
  %cmp130 = icmp eq ptr %42, %__1buf
  br i1 %cmp130, label %if.then131, label %if.end132

if.then131:                                       ; preds = %if.end128
  call void @llvm.memset.p0.i64(ptr noundef nonnull align 8 dereferenceable(24) %__binp_.i182, i8 0, i64 24, i1 false)
  br label %if.end132

if.end132:                                        ; preds = %if.then131, %if.end128
  call void @llvm.lifetime.end.p0(i64 1, ptr nonnull %__1buf) #19
  br label %return

return:                                           ; preds = %entry, %if.end132
  %retval.0 = phi i32 [ %__c.3, %if.end132 ], [ -1, %entry ]
  ret i32 %retval.0
}

declare noundef i32 @_ZNSt3__115basic_streambufIcNS_11char_traitsIcEEE5uflowEv(ptr noundef nonnull align 8 dereferenceable(64)) unnamed_addr #1

; Function Attrs: mustprogress uwtable
define linkonce_odr dso_local noundef i32 @_ZNSt3__113basic_filebufIcNS_11char_traitsIcEEE9pbackfailEi(ptr noundef nonnull align 8 dereferenceable(163) %this, i32 noundef %__c) unnamed_addr #0 comdat align 2 {
entry:
  %__file_ = getelementptr inbounds %"class.std::__1::basic_filebuf", ptr %this, i64 0, i32 8
  %0 = load ptr, ptr %__file_, align 8, !tbaa !20
  %tobool.not = icmp eq ptr %0, null
  br i1 %tobool.not, label %return, label %land.lhs.true

land.lhs.true:                                    ; preds = %entry
  %__binp_.i = getelementptr inbounds %"class.std::__1::basic_streambuf", ptr %this, i64 0, i32 2
  %1 = load ptr, ptr %__binp_.i, align 8, !tbaa !58
  %__ninp_.i = getelementptr inbounds %"class.std::__1::basic_streambuf", ptr %this, i64 0, i32 3
  %2 = load ptr, ptr %__ninp_.i, align 8, !tbaa !55
  %cmp = icmp ult ptr %1, %2
  br i1 %cmp, label %if.then, label %return

if.then:                                          ; preds = %land.lhs.true
  %cmp.i = icmp eq i32 %__c, -1
  br i1 %cmp.i, label %if.then5, label %if.end

if.then5:                                         ; preds = %if.then
  %add.ptr.i = getelementptr inbounds i8, ptr %2, i64 -1
  store ptr %add.ptr.i, ptr %__ninp_.i, align 8, !tbaa !55
  br label %return

if.end:                                           ; preds = %if.then
  %__om_ = getelementptr inbounds %"class.std::__1::basic_filebuf", ptr %this, i64 0, i32 12
  %3 = load i32, ptr %__om_, align 8, !tbaa !26
  %and = and i32 %3, 16
  %tobool7.not = icmp eq i32 %and, 0
  %conv.i = trunc i32 %__c to i8
  br i1 %tobool7.not, label %lor.lhs.false, label %if.then11

lor.lhs.false:                                    ; preds = %if.end
  %arrayidx = getelementptr inbounds i8, ptr %2, i64 -1
  %4 = load i8, ptr %arrayidx, align 1, !tbaa !49
  %cmp.i23 = icmp eq i8 %4, %conv.i
  br i1 %cmp.i23, label %if.then11, label %return

if.then11:                                        ; preds = %if.end, %lor.lhs.false
  %add.ptr.i25 = getelementptr inbounds i8, ptr %2, i64 -1
  store ptr %add.ptr.i25, ptr %__ninp_.i, align 8, !tbaa !55
  store i8 %conv.i, ptr %add.ptr.i25, align 1, !tbaa !49
  br label %return

return:                                           ; preds = %entry, %land.lhs.true, %lor.lhs.false, %if.then11, %if.then5
  %retval.0 = phi i32 [ 0, %if.then5 ], [ %__c, %if.then11 ], [ -1, %lor.lhs.false ], [ -1, %land.lhs.true ], [ -1, %entry ]
  ret i32 %retval.0
}

declare noundef i64 @_ZNSt3__115basic_streambufIcNS_11char_traitsIcEEE6xsputnEPKcl(ptr noundef nonnull align 8 dereferenceable(64), ptr noundef, i64 noundef) unnamed_addr #1

; Function Attrs: mustprogress uwtable
define linkonce_odr dso_local noundef i32 @_ZNSt3__113basic_filebufIcNS_11char_traitsIcEEE8overflowEi(ptr noundef nonnull align 8 dereferenceable(163) %this, i32 noundef %__c) unnamed_addr #0 comdat align 2 {
entry:
  %__1buf = alloca i8, align 1
  %__extbe = alloca ptr, align 8
  %__e = alloca ptr, align 8
  %__file_ = getelementptr inbounds %"class.std::__1::basic_filebuf", ptr %this, i64 0, i32 8
  %0 = load ptr, ptr %__file_, align 8, !tbaa !20
  %cmp = icmp eq ptr %0, null
  br i1 %cmp, label %return, label %if.end

if.end:                                           ; preds = %entry
  %__cm_.i = getelementptr inbounds %"class.std::__1::basic_filebuf", ptr %this, i64 0, i32 13
  %1 = load i32, ptr %__cm_.i, align 4, !tbaa !50
  %and.i = and i32 %1, 16
  %tobool.not.i = icmp eq i32 %and.i, 0
  br i1 %tobool.not.i, label %if.then.i, label %if.end._ZNSt3__113basic_filebufIcNS_11char_traitsIcEEE12__write_modeEv.exit_crit_edge

if.end._ZNSt3__113basic_filebufIcNS_11char_traitsIcEEE12__write_modeEv.exit_crit_edge: ; preds = %if.end
  %__bout_.i.phi.trans.insert = getelementptr inbounds %"class.std::__1::basic_streambuf", ptr %this, i64 0, i32 5
  %.pre = load ptr, ptr %__bout_.i.phi.trans.insert, align 8, !tbaa !52
  %__eout_.i.phi.trans.insert = getelementptr inbounds %"class.std::__1::basic_streambuf", ptr %this, i64 0, i32 7
  %.pre169 = load ptr, ptr %__eout_.i.phi.trans.insert, align 8, !tbaa !59
  br label %_ZNSt3__113basic_filebufIcNS_11char_traitsIcEEE12__write_modeEv.exit

if.then.i:                                        ; preds = %if.end
  %__binp_.i.i = getelementptr inbounds %"class.std::__1::basic_streambuf", ptr %this, i64 0, i32 2
  %__ebs_.i = getelementptr inbounds %"class.std::__1::basic_filebuf", ptr %this, i64 0, i32 5
  tail call void @llvm.memset.p0.i64(ptr noundef nonnull align 8 dereferenceable(24) %__binp_.i.i, i8 0, i64 24, i1 false)
  %2 = load i64, ptr %__ebs_.i, align 8, !tbaa !47
  %cmp.i = icmp ugt i64 %2, 8
  br i1 %cmp.i, label %if.then2.i, label %if.else10.i

if.then2.i:                                       ; preds = %if.then.i
  %__always_noconv_.i = getelementptr inbounds %"class.std::__1::basic_filebuf", ptr %this, i64 0, i32 16
  %3 = load i8, ptr %__always_noconv_.i, align 2, !tbaa !45, !range !39, !noundef !40
  %tobool3.not.i = icmp eq i8 %3, 0
  br i1 %tobool3.not.i, label %if.else.i, label %if.then4.i

if.then4.i:                                       ; preds = %if.then2.i
  %__extbuf_.i = getelementptr inbounds %"class.std::__1::basic_filebuf", ptr %this, i64 0, i32 1
  %4 = load ptr, ptr %__extbuf_.i, align 8, !tbaa !41
  %sub.i = add i64 %2, -1
  %add.ptr.i = getelementptr inbounds i8, ptr %4, i64 %sub.i
  %__nout_.i.i = getelementptr inbounds %"class.std::__1::basic_streambuf", ptr %this, i64 0, i32 6
  store ptr %4, ptr %__nout_.i.i, align 8, !tbaa !51
  %__bout_.i.i = getelementptr inbounds %"class.std::__1::basic_streambuf", ptr %this, i64 0, i32 5
  store ptr %4, ptr %__bout_.i.i, align 8, !tbaa !52
  %__eout_.i.i = getelementptr inbounds %"class.std::__1::basic_streambuf", ptr %this, i64 0, i32 7
  store ptr %add.ptr.i, ptr %__eout_.i.i, align 8, !tbaa !59
  br label %if.end11.i

if.else.i:                                        ; preds = %if.then2.i
  %__intbuf_.i = getelementptr inbounds %"class.std::__1::basic_filebuf", ptr %this, i64 0, i32 6
  %5 = load ptr, ptr %__intbuf_.i, align 8, !tbaa !43
  %__ibs_.i = getelementptr inbounds %"class.std::__1::basic_filebuf", ptr %this, i64 0, i32 7
  %6 = load i64, ptr %__ibs_.i, align 8, !tbaa !46
  %sub8.i = add i64 %6, -1
  %add.ptr9.i = getelementptr inbounds i8, ptr %5, i64 %sub8.i
  %__nout_.i14.i = getelementptr inbounds %"class.std::__1::basic_streambuf", ptr %this, i64 0, i32 6
  store ptr %5, ptr %__nout_.i14.i, align 8, !tbaa !51
  %__bout_.i15.i = getelementptr inbounds %"class.std::__1::basic_streambuf", ptr %this, i64 0, i32 5
  store ptr %5, ptr %__bout_.i15.i, align 8, !tbaa !52
  %__eout_.i16.i = getelementptr inbounds %"class.std::__1::basic_streambuf", ptr %this, i64 0, i32 7
  store ptr %add.ptr9.i, ptr %__eout_.i16.i, align 8, !tbaa !59
  br label %if.end11.i

if.else10.i:                                      ; preds = %if.then.i
  %__bout_.i18.i = getelementptr inbounds %"class.std::__1::basic_streambuf", ptr %this, i64 0, i32 5
  tail call void @llvm.memset.p0.i64(ptr noundef nonnull align 8 dereferenceable(24) %__bout_.i18.i, i8 0, i64 24, i1 false)
  br label %if.end11.i

if.end11.i:                                       ; preds = %if.else10.i, %if.else.i, %if.then4.i
  %7 = phi ptr [ null, %if.else10.i ], [ %add.ptr9.i, %if.else.i ], [ %add.ptr.i, %if.then4.i ]
  %8 = phi ptr [ null, %if.else10.i ], [ %5, %if.else.i ], [ %4, %if.then4.i ]
  store i32 16, ptr %__cm_.i, align 4, !tbaa !50
  br label %_ZNSt3__113basic_filebufIcNS_11char_traitsIcEEE12__write_modeEv.exit

_ZNSt3__113basic_filebufIcNS_11char_traitsIcEEE12__write_modeEv.exit: ; preds = %if.end._ZNSt3__113basic_filebufIcNS_11char_traitsIcEEE12__write_modeEv.exit_crit_edge, %if.end11.i
  %9 = phi ptr [ %.pre169, %if.end._ZNSt3__113basic_filebufIcNS_11char_traitsIcEEE12__write_modeEv.exit_crit_edge ], [ %7, %if.end11.i ]
  %10 = phi ptr [ %.pre, %if.end._ZNSt3__113basic_filebufIcNS_11char_traitsIcEEE12__write_modeEv.exit_crit_edge ], [ %8, %if.end11.i ]
  call void @llvm.lifetime.start.p0(i64 1, ptr nonnull %__1buf) #19
  %__bout_.i = getelementptr inbounds %"class.std::__1::basic_streambuf", ptr %this, i64 0, i32 5
  %__eout_.i = getelementptr inbounds %"class.std::__1::basic_streambuf", ptr %this, i64 0, i32 7
  %cmp.i124 = icmp eq i32 %__c, -1
  %__nout_.i131.phi.trans.insert = getelementptr inbounds %"class.std::__1::basic_streambuf", ptr %this, i64 0, i32 6
  %.pre170 = load ptr, ptr %__nout_.i131.phi.trans.insert, align 8, !tbaa !51
  br i1 %cmp.i124, label %if.end13, label %if.then6

if.then6:                                         ; preds = %_ZNSt3__113basic_filebufIcNS_11char_traitsIcEEE12__write_modeEv.exit
  %cmp8 = icmp eq ptr %.pre170, null
  br i1 %cmp8, label %if.then9, label %if.end10

if.then9:                                         ; preds = %if.then6
  %add.ptr = getelementptr inbounds i8, ptr %__1buf, i64 1
  store ptr %__1buf, ptr %__nout_.i131.phi.trans.insert, align 8, !tbaa !51
  store ptr %__1buf, ptr %__bout_.i, align 8, !tbaa !52
  store ptr %add.ptr, ptr %__eout_.i, align 8, !tbaa !59
  br label %if.end10

if.end10:                                         ; preds = %if.then9, %if.then6
  %11 = phi ptr [ %__1buf, %if.then9 ], [ %.pre170, %if.then6 ]
  %conv.i = trunc i32 %__c to i8
  store i8 %conv.i, ptr %11, align 1, !tbaa !49
  %12 = load ptr, ptr %__nout_.i131.phi.trans.insert, align 8, !tbaa !51
  %add.ptr.i130 = getelementptr inbounds i8, ptr %12, i64 1
  store ptr %add.ptr.i130, ptr %__nout_.i131.phi.trans.insert, align 8, !tbaa !51
  %.pre171 = load ptr, ptr %__bout_.i, align 8, !tbaa !52
  br label %if.end13

if.end13:                                         ; preds = %_ZNSt3__113basic_filebufIcNS_11char_traitsIcEEE12__write_modeEv.exit, %if.end10
  %13 = phi ptr [ %.pre171, %if.end10 ], [ %10, %_ZNSt3__113basic_filebufIcNS_11char_traitsIcEEE12__write_modeEv.exit ]
  %14 = phi ptr [ %add.ptr.i130, %if.end10 ], [ %.pre170, %_ZNSt3__113basic_filebufIcNS_11char_traitsIcEEE12__write_modeEv.exit ]
  %__nout_.i131 = getelementptr inbounds %"class.std::__1::basic_streambuf", ptr %this, i64 0, i32 6
  %cmp16.not = icmp eq ptr %14, %13
  br i1 %cmp16.not, label %if.end102, label %if.then17

if.then17:                                        ; preds = %if.end13
  %__always_noconv_ = getelementptr inbounds %"class.std::__1::basic_filebuf", ptr %this, i64 0, i32 16
  %15 = load i8, ptr %__always_noconv_, align 2, !tbaa !45, !range !39, !noundef !40
  %tobool.not = icmp eq i8 %15, 0
  br i1 %tobool.not, label %if.else, label %if.then18

if.then18:                                        ; preds = %if.then17
  %sub.ptr.lhs.cast = ptrtoint ptr %14 to i64
  %sub.ptr.rhs.cast = ptrtoint ptr %13 to i64
  %sub.ptr.sub = sub i64 %sub.ptr.lhs.cast, %sub.ptr.rhs.cast
  %16 = load ptr, ptr %__file_, align 8, !tbaa !20
  %call23 = call i64 @fwrite(ptr noundef %13, i64 noundef 1, i64 noundef %sub.ptr.sub, ptr noundef %16)
  %cmp24.not = icmp eq i64 %call23, %sub.ptr.sub
  br i1 %cmp24.not, label %if.end101, label %cleanup104

if.else:                                          ; preds = %if.then17
  call void @llvm.lifetime.start.p0(i64 8, ptr nonnull %__extbe) #19
  %__extbuf_ = getelementptr inbounds %"class.std::__1::basic_filebuf", ptr %this, i64 0, i32 1
  %17 = load ptr, ptr %__extbuf_, align 8, !tbaa !41
  store ptr %17, ptr %__extbe, align 8, !tbaa !53
  %__cv_ = getelementptr inbounds %"class.std::__1::basic_filebuf", ptr %this, i64 0, i32 9
  %18 = load ptr, ptr %__cv_, align 8, !tbaa !44
  %tobool28.not165 = icmp eq ptr %18, null
  br i1 %tobool28.not165, label %if.then29, label %if.end30.lr.ph

if.end30.lr.ph:                                   ; preds = %if.else
  %__st_ = getelementptr inbounds %"class.std::__1::basic_filebuf", ptr %this, i64 0, i32 10
  %__ebs_ = getelementptr inbounds %"class.std::__1::basic_filebuf", ptr %this, i64 0, i32 5
  br label %if.end30

if.then29:                                        ; preds = %do.cond, %if.else
  call void @_ZNSt3__116__throw_bad_castB7v170000Ev() #23
  unreachable

if.end30:                                         ; preds = %if.end30.lr.ph, %do.cond
  %19 = phi ptr [ %14, %if.end30.lr.ph ], [ %add.ptr.i149, %do.cond ]
  %20 = phi ptr [ %13, %if.end30.lr.ph ], [ %32, %do.cond ]
  %21 = phi ptr [ %18, %if.end30.lr.ph ], [ %34, %do.cond ]
  call void @llvm.lifetime.start.p0(i64 8, ptr nonnull %__e) #19
  %22 = load ptr, ptr %__extbuf_, align 8, !tbaa !41
  %23 = load i64, ptr %__ebs_, align 8, !tbaa !47
  %add.ptr36 = getelementptr inbounds i8, ptr %22, i64 %23
  %vtable.i = load ptr, ptr %21, align 8, !tbaa !12
  %vfn.i = getelementptr inbounds ptr, ptr %vtable.i, i64 3
  %24 = load ptr, ptr %vfn.i, align 8
  %call.i = call noundef i32 %24(ptr noundef nonnull align 8 dereferenceable(16) %21, ptr noundef nonnull align 4 dereferenceable(8) %__st_, ptr noundef %20, ptr noundef %19, ptr noundef nonnull align 8 dereferenceable(8) %__e, ptr noundef %22, ptr noundef %add.ptr36, ptr noundef nonnull align 8 dereferenceable(8) %__extbe)
  %25 = load ptr, ptr %__e, align 8, !tbaa !53
  %26 = load ptr, ptr %__bout_.i, align 8, !tbaa !52
  %cmp39 = icmp eq ptr %25, %26
  br i1 %cmp39, label %cleanup104.critedge, label %if.end42

if.end42:                                         ; preds = %if.end30
  %cmp43 = icmp eq i32 %call.i, 3
  br i1 %cmp43, label %if.then44, label %if.else61

if.then44:                                        ; preds = %if.end42
  %27 = load ptr, ptr %__nout_.i131, align 8, !tbaa !51
  %sub.ptr.lhs.cast48 = ptrtoint ptr %27 to i64
  %sub.ptr.rhs.cast49 = ptrtoint ptr %26 to i64
  %sub.ptr.sub50 = sub i64 %sub.ptr.lhs.cast48, %sub.ptr.rhs.cast49
  %28 = load ptr, ptr %__file_, align 8, !tbaa !20
  %call53 = call i64 @fwrite(ptr noundef %26, i64 noundef 1, i64 noundef %sub.ptr.sub50, ptr noundef %28)
  %cmp54.not = icmp eq i64 %call53, %sub.ptr.sub50
  br i1 %cmp54.not, label %do.cond.thread, label %cleanup104.critedge

do.cond.thread:                                   ; preds = %if.then44
  call void @llvm.lifetime.end.p0(i64 8, ptr nonnull %__e) #19
  br label %cleanup97

if.else61:                                        ; preds = %if.end42
  %cmp63 = icmp eq i32 %call.i, 1
  %or.cond = icmp ult i32 %call.i, 2
  br i1 %or.cond, label %if.then64, label %cleanup104.critedge

if.then64:                                        ; preds = %if.else61
  %29 = load ptr, ptr %__extbe, align 8, !tbaa !53
  %30 = load ptr, ptr %__extbuf_, align 8, !tbaa !41
  %sub.ptr.lhs.cast67 = ptrtoint ptr %29 to i64
  %sub.ptr.rhs.cast68 = ptrtoint ptr %30 to i64
  %sub.ptr.sub69 = sub i64 %sub.ptr.lhs.cast67, %sub.ptr.rhs.cast68
  %31 = load ptr, ptr %__file_, align 8, !tbaa !20
  %call72 = call i64 @fwrite(ptr noundef %30, i64 noundef 1, i64 noundef %sub.ptr.sub69, ptr noundef %31)
  %cmp73.not = icmp eq i64 %call72, %sub.ptr.sub69
  br i1 %cmp73.not, label %if.end76, label %cleanup104.critedge

if.end76:                                         ; preds = %if.then64
  br i1 %cmp63, label %do.cond, label %do.cond.thread161

do.cond.thread161:                                ; preds = %if.end76
  call void @llvm.lifetime.end.p0(i64 8, ptr nonnull %__e) #19
  br label %cleanup97

do.cond:                                          ; preds = %if.end76
  %32 = load ptr, ptr %__e, align 8, !tbaa !53
  %33 = load ptr, ptr %__nout_.i131, align 8, !tbaa !51
  store ptr %32, ptr %__bout_.i, align 8, !tbaa !52
  store ptr %33, ptr %__eout_.i, align 8, !tbaa !59
  %sub.ptr.lhs.cast82 = ptrtoint ptr %33 to i64
  %sub.ptr.rhs.cast83 = ptrtoint ptr %32 to i64
  %sub.ptr.sub84 = sub i64 %sub.ptr.lhs.cast82, %sub.ptr.rhs.cast83
  %add.ptr.i149 = getelementptr inbounds i8, ptr %32, i64 %sub.ptr.sub84
  store ptr %add.ptr.i149, ptr %__nout_.i131, align 8, !tbaa !51
  call void @llvm.lifetime.end.p0(i64 8, ptr nonnull %__e) #19
  %34 = load ptr, ptr %__cv_, align 8, !tbaa !44
  %tobool28.not = icmp eq ptr %34, null
  br i1 %tobool28.not, label %if.then29, label %if.end30, !llvm.loop !60

cleanup97:                                        ; preds = %do.cond.thread161, %do.cond.thread
  call void @llvm.lifetime.end.p0(i64 8, ptr nonnull %__extbe) #19
  br label %if.end101

if.end101:                                        ; preds = %cleanup97, %if.then18
  store ptr %10, ptr %__nout_.i131, align 8, !tbaa !51
  store ptr %10, ptr %__bout_.i, align 8, !tbaa !52
  store ptr %9, ptr %__eout_.i, align 8, !tbaa !59
  br label %if.end102

if.end102:                                        ; preds = %if.end101, %if.end13
  %spec.select.i = select i1 %cmp.i124, i32 0, i32 %__c
  br label %cleanup104

cleanup104.critedge:                              ; preds = %if.end30, %if.then64, %if.else61, %if.then44
  call void @llvm.lifetime.end.p0(i64 8, ptr nonnull %__e) #19
  call void @llvm.lifetime.end.p0(i64 8, ptr nonnull %__extbe) #19
  br label %cleanup104

cleanup104:                                       ; preds = %cleanup104.critedge, %if.then18, %if.end102
  %retval.6 = phi i32 [ %spec.select.i, %if.end102 ], [ -1, %if.then18 ], [ -1, %cleanup104.critedge ]
  call void @llvm.lifetime.end.p0(i64 1, ptr nonnull %__1buf) #19
  br label %return

return:                                           ; preds = %entry, %cleanup104
  %retval.7 = phi i32 [ %retval.6, %cleanup104 ], [ -1, %entry ]
  ret i32 %retval.7
}

; Function Attrs: nofree nounwind
declare noundef i32 @fclose(ptr nocapture noundef) local_unnamed_addr #11

; Function Attrs: nobuiltin nounwind
declare void @_ZdlPv(ptr noundef) local_unnamed_addr #10

; Function Attrs: nobuiltin allocsize(0)
declare noundef nonnull ptr @_Znam(i64 noundef) local_unnamed_addr #12

declare noundef ptr @_ZNKSt3__16locale9use_facetERNS0_2idE(ptr noundef nonnull align 8 dereferenceable(8), ptr noundef nonnull align 8 dereferenceable(12)) local_unnamed_addr #1

; Function Attrs: inlinehint mustprogress noreturn uwtable
define linkonce_odr hidden void @_ZNSt3__116__throw_bad_castB7v170000Ev() local_unnamed_addr #13 comdat {
entry:
  %exception = tail call ptr @__cxa_allocate_exception(i64 8) #19
  tail call void @_ZNSt8bad_castC1Ev(ptr noundef nonnull align 8 dereferenceable(8) %exception) #19
  tail call void @__cxa_throw(ptr nonnull %exception, ptr nonnull @_ZTISt8bad_cast, ptr nonnull @_ZNSt8bad_castD1Ev) #23
  unreachable
}

; Function Attrs: nofree nounwind
declare noundef i32 @fseeko(ptr nocapture noundef, i64 noundef, i32 noundef) local_unnamed_addr #11

; Function Attrs: nofree nounwind
declare noundef i64 @ftello(ptr nocapture noundef) local_unnamed_addr #11

declare ptr @__cxa_allocate_exception(i64) local_unnamed_addr

; Function Attrs: nounwind
declare void @_ZNSt8bad_castC1Ev(ptr noundef nonnull align 8 dereferenceable(8)) unnamed_addr #7

; Function Attrs: nounwind
declare void @_ZNSt8bad_castD1Ev(ptr noundef nonnull align 8 dereferenceable(8)) unnamed_addr #7

declare void @__cxa_throw(ptr, ptr, ptr) local_unnamed_addr

; Function Attrs: mustprogress nocallback nofree nounwind willreturn memory(argmem: write)
declare void @llvm.memset.p0.i64(ptr nocapture writeonly, i8, i64, i1 immarg) #14

; Function Attrs: nofree nounwind
declare noundef i64 @fwrite(ptr nocapture noundef, i64 noundef, i64 noundef, ptr nocapture noundef) local_unnamed_addr #11

; Function Attrs: nofree nounwind
declare noundef i32 @fflush(ptr nocapture noundef) local_unnamed_addr #11

; Function Attrs: mustprogress nocallback nofree nounwind willreturn memory(argmem: readwrite)
declare void @llvm.memmove.p0.p0.i64(ptr nocapture writeonly, ptr nocapture readonly, i64, i1 immarg) #15

; Function Attrs: nofree nounwind
declare noundef i64 @fread(ptr nocapture noundef, i64 noundef, i64 noundef, ptr nocapture noundef) local_unnamed_addr #11

; Function Attrs: mustprogress nocallback nofree nosync nounwind willreturn memory(inaccessiblemem: readwrite)
declare void @llvm.assume(i1 noundef) #16

; Function Attrs: inlinehint nounwind uwtable
define linkonce_odr dso_local void @_ZTv0_n24_NSt3__114basic_ifstreamIcNS_11char_traitsIcEEED1Ev(ptr noundef %this) unnamed_addr #5 comdat align 2 {
entry:
  %0 = load ptr, ptr %this, align 8
  %1 = getelementptr inbounds i8, ptr %0, i64 -24
  %2 = load i64, ptr %1, align 8
  %3 = getelementptr inbounds i8, ptr %this, i64 %2
  store ptr getelementptr inbounds ({ [5 x ptr], [5 x ptr] }, ptr @_ZTVNSt3__114basic_ifstreamIcNS_11char_traitsIcEEEE, i64 0, inrange i32 0, i64 3), ptr %3, align 8, !tbaa !12
  %add.ptr.i.i = getelementptr inbounds i8, ptr %3, i64 184
  store ptr getelementptr inbounds ({ [5 x ptr], [5 x ptr] }, ptr @_ZTVNSt3__114basic_ifstreamIcNS_11char_traitsIcEEEE, i64 0, inrange i32 1, i64 3), ptr %add.ptr.i.i, align 8, !tbaa !12
  %__sb_.i.i = getelementptr inbounds %"class.std::__1::basic_ifstream", ptr %3, i64 0, i32 1
  tail call void @_ZNSt3__113basic_filebufIcNS_11char_traitsIcEEED2Ev(ptr noundef nonnull align 8 dereferenceable(163) %__sb_.i.i) #19
  tail call void @_ZNSt3__113basic_istreamIcNS_11char_traitsIcEEED2Ev(ptr noundef nonnull align 8 dereferenceable(16) %3, ptr noundef nonnull getelementptr inbounds ([4 x ptr], ptr @_ZTTNSt3__114basic_ifstreamIcNS_11char_traitsIcEEEE, i64 0, i64 1)) #19
  tail call void @_ZNSt3__19basic_iosIcNS_11char_traitsIcEEED2Ev(ptr noundef nonnull align 8 dereferenceable(148) %add.ptr.i.i) #19
  ret void
}

; Function Attrs: nounwind
declare void @_ZNSt3__113basic_istreamIcNS_11char_traitsIcEEED1Ev(ptr noundef nonnull align 8 dereferenceable(16)) unnamed_addr #7

; Function Attrs: nounwind
declare void @_ZNSt3__113basic_istreamIcNS_11char_traitsIcEEED0Ev(ptr noundef nonnull align 8 dereferenceable(16)) unnamed_addr #7

; Function Attrs: nounwind uwtable
declare void @_ZTv0_n24_NSt3__113basic_istreamIcNS_11char_traitsIcEEED1Ev(ptr noundef) unnamed_addr #8 align 2

; Function Attrs: nounwind uwtable
declare void @_ZTv0_n24_NSt3__113basic_istreamIcNS_11char_traitsIcEEED0Ev(ptr noundef) unnamed_addr #8 align 2

; Function Attrs: inlinehint nounwind uwtable
define linkonce_odr dso_local void @_ZNSt3__114basic_ifstreamIcNS_11char_traitsIcEEED0Ev(ptr noundef nonnull align 8 dereferenceable(184) %this) unnamed_addr #5 comdat align 2 {
entry:
  store ptr getelementptr inbounds ({ [5 x ptr], [5 x ptr] }, ptr @_ZTVNSt3__114basic_ifstreamIcNS_11char_traitsIcEEEE, i64 0, inrange i32 0, i64 3), ptr %this, align 8, !tbaa !12
  %add.ptr.i.i = getelementptr inbounds i8, ptr %this, i64 184
  store ptr getelementptr inbounds ({ [5 x ptr], [5 x ptr] }, ptr @_ZTVNSt3__114basic_ifstreamIcNS_11char_traitsIcEEEE, i64 0, inrange i32 1, i64 3), ptr %add.ptr.i.i, align 8, !tbaa !12
  %__sb_.i.i = getelementptr inbounds %"class.std::__1::basic_ifstream", ptr %this, i64 0, i32 1
  tail call void @_ZNSt3__113basic_filebufIcNS_11char_traitsIcEEED2Ev(ptr noundef nonnull align 8 dereferenceable(163) %__sb_.i.i) #19
  tail call void @_ZNSt3__113basic_istreamIcNS_11char_traitsIcEEED2Ev(ptr noundef nonnull align 8 dereferenceable(16) %this, ptr noundef nonnull getelementptr inbounds ([4 x ptr], ptr @_ZTTNSt3__114basic_ifstreamIcNS_11char_traitsIcEEEE, i64 0, i64 1)) #19
  tail call void @_ZNSt3__19basic_iosIcNS_11char_traitsIcEEED2Ev(ptr noundef nonnull align 8 dereferenceable(148) %add.ptr.i.i) #19
  tail call void @_ZdlPv(ptr noundef nonnull %this) #21
  ret void
}

; Function Attrs: inlinehint nounwind uwtable
define linkonce_odr dso_local void @_ZTv0_n24_NSt3__114basic_ifstreamIcNS_11char_traitsIcEEED0Ev(ptr noundef %this) unnamed_addr #5 comdat align 2 {
entry:
  %0 = load ptr, ptr %this, align 8
  %1 = getelementptr inbounds i8, ptr %0, i64 -24
  %2 = load i64, ptr %1, align 8
  %3 = getelementptr inbounds i8, ptr %this, i64 %2
  store ptr getelementptr inbounds ({ [5 x ptr], [5 x ptr] }, ptr @_ZTVNSt3__114basic_ifstreamIcNS_11char_traitsIcEEEE, i64 0, inrange i32 0, i64 3), ptr %3, align 8, !tbaa !12
  %add.ptr.i.i.i = getelementptr inbounds i8, ptr %3, i64 184
  store ptr getelementptr inbounds ({ [5 x ptr], [5 x ptr] }, ptr @_ZTVNSt3__114basic_ifstreamIcNS_11char_traitsIcEEEE, i64 0, inrange i32 1, i64 3), ptr %add.ptr.i.i.i, align 8, !tbaa !12
  %__sb_.i.i.i = getelementptr inbounds %"class.std::__1::basic_ifstream", ptr %3, i64 0, i32 1
  tail call void @_ZNSt3__113basic_filebufIcNS_11char_traitsIcEEED2Ev(ptr noundef nonnull align 8 dereferenceable(163) %__sb_.i.i.i) #19
  tail call void @_ZNSt3__113basic_istreamIcNS_11char_traitsIcEEED2Ev(ptr noundef nonnull align 8 dereferenceable(16) %3, ptr noundef nonnull getelementptr inbounds ([4 x ptr], ptr @_ZTTNSt3__114basic_ifstreamIcNS_11char_traitsIcEEEE, i64 0, i64 1)) #19
  tail call void @_ZNSt3__19basic_iosIcNS_11char_traitsIcEEED2Ev(ptr noundef nonnull align 8 dereferenceable(148) %add.ptr.i.i.i) #19
  tail call void @_ZdlPv(ptr noundef nonnull %3) #21
  ret void
}

; Function Attrs: nounwind
declare void @_ZNSt3__113basic_istreamIcNS_11char_traitsIcEEED2Ev(ptr noundef nonnull align 8 dereferenceable(16), ptr noundef) unnamed_addr #7

; Function Attrs: uwtable
define linkonce_odr dso_local void @_ZNSt3__113basic_filebufIcNS_11char_traitsIcEEEC2Ev(ptr noundef nonnull align 8 dereferenceable(163) %this) unnamed_addr #3 comdat align 2 personality ptr @__gxx_personality_v0 {
entry:
  %ref.tmp = alloca %"class.std::__1::locale", align 8
  %ref.tmp2 = alloca %"class.std::__1::locale", align 8
  tail call void @_ZNSt3__115basic_streambufIcNS_11char_traitsIcEEEC2Ev(ptr noundef nonnull align 8 dereferenceable(64) %this)
  store ptr getelementptr inbounds ({ [16 x ptr] }, ptr @_ZTVNSt3__113basic_filebufIcNS_11char_traitsIcEEEE, i64 0, inrange i32 0, i64 2), ptr %this, align 8, !tbaa !12
  %__extbuf_ = getelementptr inbounds %"class.std::__1::basic_filebuf", ptr %this, i64 0, i32 1
  %__ebs_ = getelementptr inbounds %"class.std::__1::basic_filebuf", ptr %this, i64 0, i32 5
  %__cv_ = getelementptr inbounds %"class.std::__1::basic_filebuf", ptr %this, i64 0, i32 9
  %__always_noconv_ = getelementptr inbounds %"class.std::__1::basic_filebuf", ptr %this, i64 0, i32 16
  tail call void @llvm.memset.p0.i64(ptr noundef nonnull align 8 dereferenceable(24) %__extbuf_, i8 0, i64 24, i1 false)
  tail call void @llvm.memset.p0.i64(ptr noundef nonnull align 8 dereferenceable(67) %__ebs_, i8 0, i64 67, i1 false)
  call void @llvm.lifetime.start.p0(i64 8, ptr nonnull %ref.tmp) #19
  %__loc_.i = getelementptr inbounds %"class.std::__1::basic_streambuf", ptr %this, i64 0, i32 1
  call void @_ZNSt3__16localeC1ERKS0_(ptr noundef nonnull align 8 dereferenceable(8) %ref.tmp, ptr noundef nonnull align 8 dereferenceable(8) %__loc_.i) #19
  %call.i = invoke noundef zeroext i1 @_ZNKSt3__16locale9has_facetERNS0_2idE(ptr noundef nonnull align 8 dereferenceable(8) %ref.tmp, ptr noundef nonnull align 8 dereferenceable(12) @_ZNSt3__17codecvtIcc11__mbstate_tE2idE)
          to label %_ZNSt3__19has_facetB7v170000INS_7codecvtIcc11__mbstate_tEEEEbRKNS_6localeE.exit unwind label %terminate.lpad.i

terminate.lpad.i:                                 ; preds = %entry
  %0 = landingpad { ptr, i32 }
          catch ptr null
  %1 = extractvalue { ptr, i32 } %0, 0
  call void @__clang_call_terminate(ptr %1) #20
  unreachable

_ZNSt3__19has_facetB7v170000INS_7codecvtIcc11__mbstate_tEEEEbRKNS_6localeE.exit: ; preds = %entry
  call void @_ZNSt3__16localeD1Ev(ptr noundef nonnull align 8 dereferenceable(8) %ref.tmp) #19
  call void @llvm.lifetime.end.p0(i64 8, ptr nonnull %ref.tmp) #19
  br i1 %call.i, label %if.then, label %if.end

if.then:                                          ; preds = %_ZNSt3__19has_facetB7v170000INS_7codecvtIcc11__mbstate_tEEEEbRKNS_6localeE.exit
  call void @llvm.lifetime.start.p0(i64 8, ptr nonnull %ref.tmp2) #19
  call void @_ZNSt3__16localeC1ERKS0_(ptr noundef nonnull align 8 dereferenceable(8) %ref.tmp2, ptr noundef nonnull align 8 dereferenceable(8) %__loc_.i) #19
  %call.i1920 = invoke noundef ptr @_ZNKSt3__16locale9use_facetERNS0_2idE(ptr noundef nonnull align 8 dereferenceable(8) %ref.tmp2, ptr noundef nonnull align 8 dereferenceable(12) @_ZNSt3__17codecvtIcc11__mbstate_tE2idE)
          to label %invoke.cont6 unwind label %lpad5

invoke.cont6:                                     ; preds = %if.then
  store ptr %call.i1920, ptr %__cv_, align 8, !tbaa !44
  call void @_ZNSt3__16localeD1Ev(ptr noundef nonnull align 8 dereferenceable(8) %ref.tmp2) #19
  call void @llvm.lifetime.end.p0(i64 8, ptr nonnull %ref.tmp2) #19
  %2 = load ptr, ptr %__cv_, align 8, !tbaa !44
  %vtable.i = load ptr, ptr %2, align 8, !tbaa !12
  %vfn.i = getelementptr inbounds ptr, ptr %vtable.i, i64 7
  %3 = load ptr, ptr %vfn.i, align 8
  %call.i21 = call noundef zeroext i1 %3(ptr noundef nonnull align 8 dereferenceable(16) %2) #19
  %frombool = zext i1 %call.i21 to i8
  store i8 %frombool, ptr %__always_noconv_, align 2, !tbaa !45
  br label %if.end

lpad5:                                            ; preds = %if.then
  %4 = landingpad { ptr, i32 }
          cleanup
  call void @_ZNSt3__16localeD1Ev(ptr noundef nonnull align 8 dereferenceable(8) %ref.tmp2) #19
  call void @llvm.lifetime.end.p0(i64 8, ptr nonnull %ref.tmp2) #19
  br label %ehcleanup15

if.end:                                           ; preds = %invoke.cont6, %_ZNSt3__19has_facetB7v170000INS_7codecvtIcc11__mbstate_tEEEEbRKNS_6localeE.exit
  %vtable = load ptr, ptr %this, align 8, !tbaa !12
  %vfn = getelementptr inbounds ptr, ptr %vtable, i64 3
  %5 = load ptr, ptr %vfn, align 8
  %call14 = invoke noundef ptr %5(ptr noundef nonnull align 8 dereferenceable(163) %this, ptr noundef null, i64 noundef 4096)
          to label %invoke.cont13 unwind label %lpad12

invoke.cont13:                                    ; preds = %if.end
  ret void

lpad12:                                           ; preds = %if.end
  %6 = landingpad { ptr, i32 }
          cleanup
  br label %ehcleanup15

ehcleanup15:                                      ; preds = %lpad12, %lpad5
  %.pn = phi { ptr, i32 } [ %6, %lpad12 ], [ %4, %lpad5 ]
  call void @_ZNSt3__115basic_streambufIcNS_11char_traitsIcEEED2Ev(ptr noundef nonnull align 8 dereferenceable(64) %this) #19
  resume { ptr, i32 } %.pn
}

declare void @_ZNSt3__18ios_base4initEPv(ptr noundef nonnull align 8 dereferenceable(136), ptr noundef) local_unnamed_addr #1

declare void @_ZNSt3__115basic_streambufIcNS_11char_traitsIcEEEC2Ev(ptr noundef nonnull align 8 dereferenceable(64)) unnamed_addr #1

; Function Attrs: nounwind
declare void @_ZNSt3__16localeD1Ev(ptr noundef nonnull align 8 dereferenceable(8)) unnamed_addr #7

declare noundef zeroext i1 @_ZNKSt3__16locale9has_facetERNS0_2idE(ptr noundef nonnull align 8 dereferenceable(8), ptr noundef nonnull align 8 dereferenceable(12)) local_unnamed_addr #1

; Function Attrs: nounwind
declare void @_ZNSt3__16localeC1ERKS0_(ptr noundef nonnull align 8 dereferenceable(8), ptr noundef nonnull align 8 dereferenceable(8)) unnamed_addr #7

; Function Attrs: nofree nounwind
declare noalias noundef ptr @fopen(ptr nocapture noundef readonly, ptr nocapture noundef readonly) local_unnamed_addr #11

declare void @_ZNSt3__18ios_base5clearEj(ptr noundef nonnull align 8 dereferenceable(136), i32 noundef) local_unnamed_addr #1

; Function Attrs: uwtable
define linkonce_odr hidden noundef nonnull align 8 dereferenceable(8) ptr @_ZNSt3__124__put_character_sequenceB7v170000IcNS_11char_traitsIcEEEERNS_13basic_ostreamIT_T0_EES7_PKS4_m(ptr noundef nonnull align 8 dereferenceable(8) %__os, ptr noundef %__str, i64 noundef %__len) local_unnamed_addr #3 comdat personality ptr @__gxx_personality_v0 {
entry:
  %ref.tmp.i.i = alloca %"class.std::__1::locale", align 8
  %__s = alloca %"class.std::__1::basic_ostream<char>::sentry", align 8
  call void @llvm.lifetime.start.p0(i64 16, ptr nonnull %__s) #19
  invoke void @_ZNSt3__113basic_ostreamIcNS_11char_traitsIcEEE6sentryC1ERS3_(ptr noundef nonnull align 8 dereferenceable(16) %__s, ptr noundef nonnull align 8 dereferenceable(8) %__os)
          to label %invoke.cont unwind label %lpad

invoke.cont:                                      ; preds = %entry
  %0 = load i8, ptr %__s, align 8, !tbaa !61, !range !39, !noundef !40
  %tobool.i.not = icmp eq i8 %0, 0
  br i1 %tobool.i.not, label %if.end28, label %if.then

if.then:                                          ; preds = %invoke.cont
  %vtable.i = load ptr, ptr %__os, align 8, !tbaa !12
  %vbase.offset.ptr.i = getelementptr i8, ptr %vtable.i, i64 -24
  %vbase.offset.i = load i64, ptr %vbase.offset.ptr.i, align 8
  %add.ptr.i = getelementptr inbounds i8, ptr %__os, i64 %vbase.offset.i
  %__rdbuf_.i.i.i = getelementptr inbounds %"class.std::__1::ios_base", ptr %add.ptr.i, i64 0, i32 6
  %1 = load ptr, ptr %__rdbuf_.i.i.i, align 8, !tbaa !63
  %__fmtflags_.i = getelementptr inbounds %"class.std::__1::ios_base", ptr %add.ptr.i, i64 0, i32 1
  %2 = load i32, ptr %__fmtflags_.i, align 8, !tbaa !64
  %__fill_.i = getelementptr inbounds %"class.std::__1::basic_ios", ptr %add.ptr.i, i64 0, i32 2
  %3 = load i32, ptr %__fill_.i, align 8, !tbaa !19
  %cmp.i.i = icmp eq i32 %3, -1
  br i1 %cmp.i.i, label %if.then.i, label %invoke.cont16

if.then.i:                                        ; preds = %if.then
  call void @llvm.lifetime.start.p0(i64 8, ptr nonnull %ref.tmp.i.i) #19
  invoke void @_ZNKSt3__18ios_base6getlocEv(ptr nonnull sret(%"class.std::__1::locale") align 8 %ref.tmp.i.i, ptr noundef nonnull align 8 dereferenceable(136) %add.ptr.i)
          to label %.noexc unwind label %lpad3

.noexc:                                           ; preds = %if.then.i
  %call.i5.i.i = invoke noundef ptr @_ZNKSt3__16locale9use_facetERNS0_2idE(ptr noundef nonnull align 8 dereferenceable(8) %ref.tmp.i.i, ptr noundef nonnull align 8 dereferenceable(12) @_ZNSt3__15ctypeIcE2idE)
          to label %invoke.cont.i.i unwind label %lpad.i.i

invoke.cont.i.i:                                  ; preds = %.noexc
  %vtable.i.i.i = load ptr, ptr %call.i5.i.i, align 8, !tbaa !12
  %vfn.i.i.i = getelementptr inbounds ptr, ptr %vtable.i.i.i, i64 7
  %4 = load ptr, ptr %vfn.i.i.i, align 8
  %call.i6.i.i = invoke noundef signext i8 %4(ptr noundef nonnull align 8 dereferenceable(25) %call.i5.i.i, i8 noundef signext 32)
          to label %_ZNKSt3__19basic_iosIcNS_11char_traitsIcEEE5widenB7v170000Ec.exit.i unwind label %lpad.i.i

lpad.i.i:                                         ; preds = %invoke.cont.i.i, %.noexc
  %5 = landingpad { ptr, i32 }
          catch ptr null
  call void @_ZNSt3__16localeD1Ev(ptr noundef nonnull align 8 dereferenceable(8) %ref.tmp.i.i) #19
  call void @llvm.lifetime.end.p0(i64 8, ptr nonnull %ref.tmp.i.i) #19
  br label %ehcleanup

_ZNKSt3__19basic_iosIcNS_11char_traitsIcEEE5widenB7v170000Ec.exit.i: ; preds = %invoke.cont.i.i
  call void @_ZNSt3__16localeD1Ev(ptr noundef nonnull align 8 dereferenceable(8) %ref.tmp.i.i) #19
  call void @llvm.lifetime.end.p0(i64 8, ptr nonnull %ref.tmp.i.i) #19
  %conv.i = sext i8 %call.i6.i.i to i32
  store i32 %conv.i, ptr %__fill_.i, align 8, !tbaa !19
  br label %invoke.cont16

invoke.cont16:                                    ; preds = %_ZNKSt3__19basic_iosIcNS_11char_traitsIcEEE5widenB7v170000Ec.exit.i, %if.then
  %6 = phi i32 [ %conv.i, %_ZNKSt3__19basic_iosIcNS_11char_traitsIcEEE5widenB7v170000Ec.exit.i ], [ %3, %if.then ]
  %conv6.i = trunc i32 %6 to i8
  %and = and i32 %2, 176
  %cmp = icmp eq i32 %and, 32
  %add.ptr6 = getelementptr inbounds i8, ptr %__str, i64 %__len
  %cond = select i1 %cmp, ptr %add.ptr6, ptr %__str
  %call19 = invoke ptr @_ZNSt3__116__pad_and_outputB7v170000IcNS_11char_traitsIcEEEENS_19ostreambuf_iteratorIT_T0_EES6_PKS4_S8_S8_RNS_8ios_baseES4_(ptr %1, ptr noundef %__str, ptr noundef %cond, ptr noundef %add.ptr6, ptr noundef nonnull align 8 dereferenceable(136) %add.ptr.i, i8 noundef signext %conv6.i)
          to label %invoke.cont18 unwind label %lpad3

invoke.cont18:                                    ; preds = %invoke.cont16
  %cmp.i = icmp eq ptr %call19, null
  br i1 %cmp.i, label %if.then22, label %if.end28

if.then22:                                        ; preds = %invoke.cont18
  %vtable23 = load ptr, ptr %__os, align 8, !tbaa !12
  %vbase.offset.ptr24 = getelementptr i8, ptr %vtable23, i64 -24
  %vbase.offset25 = load i64, ptr %vbase.offset.ptr24, align 8
  %add.ptr26 = getelementptr inbounds i8, ptr %__os, i64 %vbase.offset25
  %__rdstate_.i.i = getelementptr inbounds %"class.std::__1::ios_base", ptr %add.ptr26, i64 0, i32 4
  %7 = load i32, ptr %__rdstate_.i.i, align 8, !tbaa !27
  %or.i.i = or i32 %7, 5
  invoke void @_ZNSt3__18ios_base5clearEj(ptr noundef nonnull align 8 dereferenceable(136) %add.ptr26, i32 noundef %or.i.i)
          to label %if.end28 unwind label %lpad1

lpad:                                             ; preds = %entry
  %8 = landingpad { ptr, i32 }
          catch ptr null
  br label %ehcleanup29

lpad1:                                            ; preds = %if.then22
  %9 = landingpad { ptr, i32 }
          catch ptr null
  br label %ehcleanup

lpad3:                                            ; preds = %if.then.i, %invoke.cont16
  %10 = landingpad { ptr, i32 }
          catch ptr null
  br label %ehcleanup

if.end28:                                         ; preds = %if.then22, %invoke.cont18, %invoke.cont
  call void @_ZNSt3__113basic_ostreamIcNS_11char_traitsIcEEE6sentryD1Ev(ptr noundef nonnull align 8 dereferenceable(16) %__s) #19
  call void @llvm.lifetime.end.p0(i64 16, ptr nonnull %__s) #19
  br label %try.cont

ehcleanup:                                        ; preds = %lpad3, %lpad.i.i, %lpad1
  %.pn = phi { ptr, i32 } [ %9, %lpad1 ], [ %10, %lpad3 ], [ %5, %lpad.i.i ]
  call void @_ZNSt3__113basic_ostreamIcNS_11char_traitsIcEEE6sentryD1Ev(ptr noundef nonnull align 8 dereferenceable(16) %__s) #19
  br label %ehcleanup29

ehcleanup29:                                      ; preds = %ehcleanup, %lpad
  %.pn.pn = phi { ptr, i32 } [ %.pn, %ehcleanup ], [ %8, %lpad ]
  %exn.slot.1 = extractvalue { ptr, i32 } %.pn.pn, 0
  call void @llvm.lifetime.end.p0(i64 16, ptr nonnull %__s) #19
  %11 = call ptr @__cxa_begin_catch(ptr %exn.slot.1) #19
  %vtable30 = load ptr, ptr %__os, align 8, !tbaa !12
  %vbase.offset.ptr31 = getelementptr i8, ptr %vtable30, i64 -24
  %vbase.offset32 = load i64, ptr %vbase.offset.ptr31, align 8
  %add.ptr33 = getelementptr inbounds i8, ptr %__os, i64 %vbase.offset32
  invoke void @_ZNSt3__18ios_base33__set_badbit_and_consider_rethrowEv(ptr noundef nonnull align 8 dereferenceable(136) %add.ptr33)
          to label %invoke.cont35 unwind label %lpad34

invoke.cont35:                                    ; preds = %ehcleanup29
  call void @__cxa_end_catch()
  br label %try.cont

try.cont:                                         ; preds = %invoke.cont35, %if.end28
  ret ptr %__os

lpad34:                                           ; preds = %ehcleanup29
  %12 = landingpad { ptr, i32 }
          cleanup
  invoke void @__cxa_end_catch()
          to label %eh.resume unwind label %terminate.lpad

eh.resume:                                        ; preds = %lpad34
  resume { ptr, i32 } %12

terminate.lpad:                                   ; preds = %lpad34
  %13 = landingpad { ptr, i32 }
          catch ptr null
  %14 = extractvalue { ptr, i32 } %13, 0
  call void @__clang_call_terminate(ptr %14) #20
  unreachable
}

declare void @_ZNSt3__113basic_ostreamIcNS_11char_traitsIcEEE6sentryC1ERS3_(ptr noundef nonnull align 8 dereferenceable(16), ptr noundef nonnull align 8 dereferenceable(8)) unnamed_addr #1

; Function Attrs: uwtable
define linkonce_odr hidden ptr @_ZNSt3__116__pad_and_outputB7v170000IcNS_11char_traitsIcEEEENS_19ostreambuf_iteratorIT_T0_EES6_PKS4_S8_S8_RNS_8ios_baseES4_(ptr %__s.coerce, ptr noundef %__ob, ptr noundef %__op, ptr noundef %__oe, ptr noundef nonnull align 8 dereferenceable(136) %__iob, i8 noundef signext %__fl) local_unnamed_addr #3 comdat personality ptr @__gxx_personality_v0 {
entry:
  %__sp = alloca %"class.std::__1::basic_string", align 8
  %cmp = icmp eq ptr %__s.coerce, null
  br i1 %cmp, label %return, label %if.end

if.end:                                           ; preds = %entry
  %sub.ptr.lhs.cast = ptrtoint ptr %__oe to i64
  %sub.ptr.rhs.cast = ptrtoint ptr %__ob to i64
  %sub.ptr.sub = sub i64 %sub.ptr.lhs.cast, %sub.ptr.rhs.cast
  %__width_.i = getelementptr inbounds %"class.std::__1::ios_base", ptr %__iob, i64 0, i32 3
  %0 = load i64, ptr %__width_.i, align 8, !tbaa !65
  %cmp1 = icmp sgt i64 %0, %sub.ptr.sub
  %sub = sub nsw i64 %0, %sub.ptr.sub
  %__ns.0 = select i1 %cmp1, i64 %sub, i64 0
  %sub.ptr.lhs.cast4 = ptrtoint ptr %__op to i64
  %sub.ptr.sub6 = sub i64 %sub.ptr.lhs.cast4, %sub.ptr.rhs.cast
  %cmp7 = icmp sgt i64 %sub.ptr.sub6, 0
  br i1 %cmp7, label %if.then8, label %if.end15

if.then8:                                         ; preds = %if.end
  %vtable.i = load ptr, ptr %__s.coerce, align 8, !tbaa !12
  %vfn.i = getelementptr inbounds ptr, ptr %vtable.i, i64 12
  %1 = load ptr, ptr %vfn.i, align 8
  %call.i = tail call noundef i64 %1(ptr noundef nonnull align 8 dereferenceable(64) %__s.coerce, ptr noundef %__ob, i64 noundef %sub.ptr.sub6)
  %cmp11.not = icmp eq i64 %call.i, %sub.ptr.sub6
  br i1 %cmp11.not, label %if.end15, label %return

if.end15:                                         ; preds = %if.then8, %if.end
  %cmp16 = icmp sgt i64 %__ns.0, 0
  br i1 %cmp16, label %if.end.i.i, label %if.end26

if.end.i.i:                                       ; preds = %if.end15
  call void @llvm.lifetime.start.p0(i64 24, ptr nonnull %__sp) #19
  %cmp.i.i.i = icmp ult i64 %__ns.0, 23
  br i1 %cmp.i.i.i, label %if.end9.i.i, label %if.end9.thread.i.i

if.end9.thread.i.i:                               ; preds = %if.end.i.i
  %sub.i.i.i = or i64 %__ns.0, 15
  %add.i.i = add nuw i64 %sub.i.i.i, 1
  %call.i5.i.i.i.i.i = tail call noalias noundef nonnull ptr @_Znwm(i64 noundef %add.i.i) #22
  %__data_.i23.i.i = getelementptr inbounds %"struct.std::__1::basic_string<char>::__long", ptr %__sp, i64 0, i32 2
  store ptr %call.i5.i.i.i.i.i, ptr %__data_.i23.i.i, align 8, !tbaa !49
  %bf.set6.i.i.i = or i64 %add.i.i, 1
  store i64 %bf.set6.i.i.i, ptr %__sp, align 8
  %__size_.i.i.i = getelementptr inbounds %"struct.std::__1::basic_string<char>::__long", ptr %__sp, i64 0, i32 1
  store i64 %__ns.0, ptr %__size_.i.i.i, align 8, !tbaa !49
  br label %_ZNSt3__112basic_stringIcNS_11char_traitsIcEENS_9allocatorIcEEEC2B7v170000Emc.exit

if.end9.i.i:                                      ; preds = %if.end.i.i
  %conv.i.i.i = trunc i64 %__ns.0 to i8
  %bf.shl.i.i.i = shl nuw nsw i8 %conv.i.i.i, 1
  store i8 %bf.shl.i.i.i, ptr %__sp, align 8
  %__data_.i.i.i = getelementptr inbounds %"struct.std::__1::basic_string<char>::__short", ptr %__sp, i64 0, i32 2
  br label %_ZNSt3__112basic_stringIcNS_11char_traitsIcEENS_9allocatorIcEEEC2B7v170000Emc.exit

_ZNSt3__112basic_stringIcNS_11char_traitsIcEENS_9allocatorIcEEEC2B7v170000Emc.exit: ; preds = %if.end9.thread.i.i, %if.end9.i.i
  %__p.026.i.i = phi ptr [ %call.i5.i.i.i.i.i, %if.end9.thread.i.i ], [ %__data_.i.i.i, %if.end9.i.i ]
  call void @llvm.memset.p0.i64(ptr nonnull align 1 %__p.026.i.i, i8 %__fl, i64 %__ns.0, i1 false), !tbaa !49
  %arrayidx.i.i = getelementptr inbounds i8, ptr %__p.026.i.i, i64 %__ns.0
  store i8 0, ptr %arrayidx.i.i, align 1, !tbaa !49
  %bf.load.i.i.i = load i8, ptr %__sp, align 8
  %bf.clear.i.i.i = and i8 %bf.load.i.i.i, 1
  %tobool.i.not.i.i = icmp eq i8 %bf.clear.i.i.i, 0
  %__data_.i.i.i69 = getelementptr inbounds %"struct.std::__1::basic_string<char>::__long", ptr %__sp, i64 0, i32 2
  %2 = load ptr, ptr %__data_.i.i.i69, align 8
  %__data_.i4.i.i = getelementptr inbounds %"struct.std::__1::basic_string<char>::__short", ptr %__sp, i64 0, i32 2
  %cond.i.i = select i1 %tobool.i.not.i.i, ptr %__data_.i4.i.i, ptr %2
  %vtable.i70 = load ptr, ptr %__s.coerce, align 8, !tbaa !12
  %vfn.i71 = getelementptr inbounds ptr, ptr %vtable.i70, i64 12
  %3 = load ptr, ptr %vfn.i71, align 8
  %call.i7273 = invoke noundef i64 %3(ptr noundef nonnull align 8 dereferenceable(64) %__s.coerce, ptr noundef %cond.i.i, i64 noundef %__ns.0)
          to label %invoke.cont unwind label %lpad

invoke.cont:                                      ; preds = %_ZNSt3__112basic_stringIcNS_11char_traitsIcEENS_9allocatorIcEEEC2B7v170000Emc.exit
  %cmp21.not = icmp eq i64 %call.i7273, %__ns.0
  %bf.load.i.i = load i8, ptr %__sp, align 8
  %bf.clear.i.i = and i8 %bf.load.i.i, 1
  %tobool.i.not.i = icmp eq i8 %bf.clear.i.i, 0
  br i1 %tobool.i.not.i, label %_ZNSt3__112basic_stringIcNS_11char_traitsIcEENS_9allocatorIcEEED2Ev.exit, label %if.then.i

if.then.i:                                        ; preds = %invoke.cont
  %4 = load ptr, ptr %__data_.i.i.i69, align 8, !tbaa !49
  call void @_ZdlPv(ptr noundef %4) #21
  br label %_ZNSt3__112basic_stringIcNS_11char_traitsIcEENS_9allocatorIcEEED2Ev.exit

_ZNSt3__112basic_stringIcNS_11char_traitsIcEENS_9allocatorIcEEED2Ev.exit: ; preds = %invoke.cont, %if.then.i
  call void @llvm.lifetime.end.p0(i64 24, ptr nonnull %__sp) #19
  br i1 %cmp21.not, label %if.end26, label %return

lpad:                                             ; preds = %_ZNSt3__112basic_stringIcNS_11char_traitsIcEENS_9allocatorIcEEEC2B7v170000Emc.exit
  %5 = landingpad { ptr, i32 }
          cleanup
  %bf.load.i.i74 = load i8, ptr %__sp, align 8
  %bf.clear.i.i75 = and i8 %bf.load.i.i74, 1
  %tobool.i.not.i76 = icmp eq i8 %bf.clear.i.i75, 0
  br i1 %tobool.i.not.i76, label %_ZNSt3__112basic_stringIcNS_11char_traitsIcEENS_9allocatorIcEEED2Ev.exit79, label %if.then.i78

if.then.i78:                                      ; preds = %lpad
  %6 = load ptr, ptr %__data_.i.i.i69, align 8, !tbaa !49
  call void @_ZdlPv(ptr noundef %6) #21
  br label %_ZNSt3__112basic_stringIcNS_11char_traitsIcEENS_9allocatorIcEEED2Ev.exit79

_ZNSt3__112basic_stringIcNS_11char_traitsIcEENS_9allocatorIcEEED2Ev.exit79: ; preds = %lpad, %if.then.i78
  call void @llvm.lifetime.end.p0(i64 24, ptr nonnull %__sp) #19
  resume { ptr, i32 } %5

if.end26:                                         ; preds = %_ZNSt3__112basic_stringIcNS_11char_traitsIcEENS_9allocatorIcEEED2Ev.exit, %if.end15
  %sub.ptr.sub29 = sub i64 %sub.ptr.lhs.cast, %sub.ptr.lhs.cast4
  %cmp30 = icmp sgt i64 %sub.ptr.sub29, 0
  br i1 %cmp30, label %if.then31, label %if.end38

if.then31:                                        ; preds = %if.end26
  %vtable.i80 = load ptr, ptr %__s.coerce, align 8, !tbaa !12
  %vfn.i81 = getelementptr inbounds ptr, ptr %vtable.i80, i64 12
  %7 = load ptr, ptr %vfn.i81, align 8
  %call.i82 = call noundef i64 %7(ptr noundef nonnull align 8 dereferenceable(64) %__s.coerce, ptr noundef %__op, i64 noundef %sub.ptr.sub29)
  %cmp34.not = icmp eq i64 %call.i82, %sub.ptr.sub29
  br i1 %cmp34.not, label %if.end38, label %return

if.end38:                                         ; preds = %if.then31, %if.end26
  store i64 0, ptr %__width_.i, align 8, !tbaa !65
  br label %return

return:                                           ; preds = %if.end38, %_ZNSt3__112basic_stringIcNS_11char_traitsIcEENS_9allocatorIcEEED2Ev.exit, %if.then8, %if.then31, %entry
  %retval.sroa.0.2 = phi ptr [ null, %entry ], [ %__s.coerce, %if.end38 ], [ null, %_ZNSt3__112basic_stringIcNS_11char_traitsIcEENS_9allocatorIcEEED2Ev.exit ], [ null, %if.then8 ], [ null, %if.then31 ]
  ret ptr %retval.sroa.0.2
}

; Function Attrs: nounwind
declare void @_ZNSt3__113basic_ostreamIcNS_11char_traitsIcEEE6sentryD1Ev(ptr noundef nonnull align 8 dereferenceable(16)) unnamed_addr #7

declare void @_ZNSt3__18ios_base33__set_badbit_and_consider_rethrowEv(ptr noundef nonnull align 8 dereferenceable(136)) local_unnamed_addr #1

; Function Attrs: nobuiltin allocsize(0)
declare noundef nonnull ptr @_Znwm(i64 noundef) local_unnamed_addr #12

declare void @_ZNKSt3__18ios_base6getlocEv(ptr sret(%"class.std::__1::locale") align 8, ptr noundef nonnull align 8 dereferenceable(136)) local_unnamed_addr #1

; Function Attrs: mustprogress nofree nounwind willreturn memory(argmem: read)
declare i64 @strlen(ptr nocapture noundef) local_unnamed_addr #17

declare noundef nonnull align 8 dereferenceable(8) ptr @_ZNSt3__113basic_ostreamIcNS_11char_traitsIcEEE3putEc(ptr noundef nonnull align 8 dereferenceable(8), i8 noundef signext) local_unnamed_addr #1

declare noundef nonnull align 8 dereferenceable(8) ptr @_ZNSt3__113basic_ostreamIcNS_11char_traitsIcEEE5flushEv(ptr noundef nonnull align 8 dereferenceable(8)) local_unnamed_addr #1

; Function Attrs: nocallback nofree nosync nounwind speculatable willreturn memory(none)
declare i64 @llvm.umin.i64(i64, i64) #18

; Function Attrs: nocallback nofree nosync nounwind speculatable willreturn memory(none)
declare i64 @llvm.smax.i64(i64, i64) #18

; Function Attrs: nocallback nofree nosync nounwind speculatable willreturn memory(none)
declare i32 @llvm.smax.i32(i32, i32) #18

; Function Attrs: nocallback nofree nosync nounwind speculatable willreturn memory(none)
declare i32 @llvm.smin.i32(i32, i32) #18

attributes #0 = { mustprogress uwtable "min-legal-vector-width"="0" "no-trapping-math"="true" "stack-protector-buffer-size"="8" "target-cpu"="x86-64" "target-features"="+cx8,+fxsr,+mmx,+sse,+sse2,+x87" "tune-cpu"="generic" }
attributes #1 = { "no-trapping-math"="true" "stack-protector-buffer-size"="8" "target-cpu"="x86-64" "target-features"="+cx8,+fxsr,+mmx,+sse,+sse2,+x87" "tune-cpu"="generic" }
attributes #2 = { mustprogress nocallback nofree nosync nounwind willreturn memory(argmem: readwrite) }
attributes #3 = { uwtable "min-legal-vector-width"="0" "no-trapping-math"="true" "stack-protector-buffer-size"="8" "target-cpu"="x86-64" "target-features"="+cx8,+fxsr,+mmx,+sse,+sse2,+x87" "tune-cpu"="generic" }
attributes #4 = { inlinehint mustprogress uwtable "min-legal-vector-width"="0" "no-trapping-math"="true" "stack-protector-buffer-size"="8" "target-cpu"="x86-64" "target-features"="+cx8,+fxsr,+mmx,+sse,+sse2,+x87" "tune-cpu"="generic" }
attributes #5 = { inlinehint nounwind uwtable "min-legal-vector-width"="0" "no-trapping-math"="true" "stack-protector-buffer-size"="8" "target-cpu"="x86-64" "target-features"="+cx8,+fxsr,+mmx,+sse,+sse2,+x87" "tune-cpu"="generic" }
attributes #6 = { noreturn nounwind "no-trapping-math"="true" "stack-protector-buffer-size"="8" "target-cpu"="x86-64" "target-features"="+cx8,+fxsr,+mmx,+sse,+sse2,+x87" "tune-cpu"="generic" }
attributes #7 = { nounwind "no-trapping-math"="true" "stack-protector-buffer-size"="8" "target-cpu"="x86-64" "target-features"="+cx8,+fxsr,+mmx,+sse,+sse2,+x87" "tune-cpu"="generic" }
attributes #8 = { nounwind uwtable "min-legal-vector-width"="0" "no-trapping-math"="true" "stack-protector-buffer-size"="8" "target-cpu"="x86-64" "target-features"="+cx8,+fxsr,+mmx,+sse,+sse2,+x87" "tune-cpu"="generic" }
attributes #9 = { noinline noreturn nounwind "no-trapping-math"="true" "stack-protector-buffer-size"="8" "target-cpu"="x86-64" "target-features"="+cx8,+fxsr,+mmx,+sse,+sse2,+x87" "tune-cpu"="generic" }
attributes #10 = { nobuiltin nounwind "no-trapping-math"="true" "stack-protector-buffer-size"="8" "target-cpu"="x86-64" "target-features"="+cx8,+fxsr,+mmx,+sse,+sse2,+x87" "tune-cpu"="generic" }
attributes #11 = { nofree nounwind "no-trapping-math"="true" "stack-protector-buffer-size"="8" "target-cpu"="x86-64" "target-features"="+cx8,+fxsr,+mmx,+sse,+sse2,+x87" "tune-cpu"="generic" }
attributes #12 = { nobuiltin allocsize(0) "no-trapping-math"="true" "stack-protector-buffer-size"="8" "target-cpu"="x86-64" "target-features"="+cx8,+fxsr,+mmx,+sse,+sse2,+x87" "tune-cpu"="generic" }
attributes #13 = { inlinehint mustprogress noreturn uwtable "min-legal-vector-width"="0" "no-trapping-math"="true" "stack-protector-buffer-size"="8" "target-cpu"="x86-64" "target-features"="+cx8,+fxsr,+mmx,+sse,+sse2,+x87" "tune-cpu"="generic" }
attributes #14 = { mustprogress nocallback nofree nounwind willreturn memory(argmem: write) }
attributes #15 = { mustprogress nocallback nofree nounwind willreturn memory(argmem: readwrite) }
attributes #16 = { mustprogress nocallback nofree nosync nounwind willreturn memory(inaccessiblemem: readwrite) }
attributes #17 = { mustprogress nofree nounwind willreturn memory(argmem: read) "no-trapping-math"="true" "stack-protector-buffer-size"="8" "target-cpu"="x86-64" "target-features"="+cx8,+fxsr,+mmx,+sse,+sse2,+x87" "tune-cpu"="generic" }
attributes #18 = { nocallback nofree nosync nounwind speculatable willreturn memory(none) }
attributes #19 = { nounwind }
attributes #20 = { noreturn nounwind }
attributes #21 = { builtin nounwind }
attributes #22 = { builtin allocsize(0) }
attributes #23 = { noreturn }

!llvm.module.flags = !{!0, !1, !2, !3}
!llvm.ident = !{!4}

!0 = !{i32 1, !"wchar_size", i32 4}
!1 = !{i32 8, !"PIC Level", i32 2}
!2 = !{i32 7, !"PIE Level", i32 2}
!3 = !{i32 7, !"uwtable", i32 2}
!4 = !{!"clang version 17.0.0 (https://github.com/llvm/llvm-project.git 6f27fecf90d850dbda4ced023eae0b1c90145a8b)"}
!5 = !{!6, !6, i64 0}
!6 = !{!"int", !7, i64 0}
!7 = !{!"omnipotent char", !8, i64 0}
!8 = !{!"Simple C++ TBAA"}
!9 = distinct !{!9, !10}
!10 = !{!"llvm.loop.mustprogress"}
!11 = distinct !{!11, !10}
!12 = !{!13, !13, i64 0}
!13 = !{!"vtable pointer", !8, i64 0}
!14 = !{!15, !18, i64 136}
!15 = !{!"_ZTSNSt3__19basic_iosIcNS_11char_traitsIcEEEE", !16, i64 0, !18, i64 136, !6, i64 144}
!16 = !{!"_ZTSNSt3__18ios_baseE", !6, i64 8, !17, i64 16, !17, i64 24, !6, i64 32, !6, i64 36, !18, i64 40, !18, i64 48, !18, i64 56, !18, i64 64, !17, i64 72, !17, i64 80, !18, i64 88, !17, i64 96, !17, i64 104, !18, i64 112, !17, i64 120, !17, i64 128}
!17 = !{!"long", !7, i64 0}
!18 = !{!"any pointer", !7, i64 0}
!19 = !{!15, !6, i64 144}
!20 = !{!21, !18, i64 120}
!21 = !{!"_ZTSNSt3__113basic_filebufIcNS_11char_traitsIcEEEE", !22, i64 0, !18, i64 64, !18, i64 72, !18, i64 80, !7, i64 88, !17, i64 96, !18, i64 104, !17, i64 112, !18, i64 120, !18, i64 128, !24, i64 136, !24, i64 144, !6, i64 152, !6, i64 156, !25, i64 160, !25, i64 161, !25, i64 162}
!22 = !{!"_ZTSNSt3__115basic_streambufIcNS_11char_traitsIcEEEE", !23, i64 8, !18, i64 16, !18, i64 24, !18, i64 32, !18, i64 40, !18, i64 48, !18, i64 56}
!23 = !{!"_ZTSNSt3__16localeE", !18, i64 0}
!24 = !{!"_ZTS11__mbstate_t", !6, i64 0, !7, i64 4}
!25 = !{!"bool", !7, i64 0}
!26 = !{!21, !6, i64 152}
!27 = !{!16, !6, i64 32}
!28 = distinct !{!28, !10}
!29 = distinct !{!29, !10}
!30 = distinct !{!30, !10}
!31 = distinct !{!31, !10}
!32 = !{!33, !17, i64 8}
!33 = !{!"_ZTSNSt3__113basic_istreamIcNS_11char_traitsIcEEEE", !17, i64 8}
!34 = distinct !{!34, !10}
!35 = distinct !{!35, !10}
!36 = distinct !{!36, !10}
!37 = distinct !{!37, !10}
!38 = !{!21, !25, i64 160}
!39 = !{i8 0, i8 2}
!40 = !{}
!41 = !{!21, !18, i64 64}
!42 = !{!21, !25, i64 161}
!43 = !{!21, !18, i64 104}
!44 = !{!21, !18, i64 128}
!45 = !{!21, !25, i64 162}
!46 = !{!21, !17, i64 112}
!47 = !{!21, !17, i64 96}
!48 = !{i64 0, i64 4, !5, i64 4, i64 4, !5, i64 4, i64 4, !49}
!49 = !{!7, !7, i64 0}
!50 = !{!21, !6, i64 156}
!51 = !{!22, !18, i64 48}
!52 = !{!22, !18, i64 40}
!53 = !{!18, !18, i64 0}
!54 = !{!22, !18, i64 32}
!55 = !{!22, !18, i64 24}
!56 = !{!21, !18, i64 80}
!57 = !{!21, !18, i64 72}
!58 = !{!22, !18, i64 16}
!59 = !{!22, !18, i64 56}
!60 = distinct !{!60, !10}
!61 = !{!62, !25, i64 0}
!62 = !{!"_ZTSNSt3__113basic_ostreamIcNS_11char_traitsIcEEE6sentryE", !25, i64 0, !18, i64 8}
!63 = !{!16, !18, i64 40}
!64 = !{!16, !6, i64 8}
!65 = !{!16, !17, i64 24}
