; ModuleID = '/local/mnt2/workspace2/mnadeem/llvm/llvm-test-suite/MicroBenchmarks/LoopVectorization/VectorOperations.cpp'
source_filename = "/local/mnt2/workspace2/mnadeem/llvm/llvm-test-suite/MicroBenchmarks/LoopVectorization/VectorOperations.cpp"
target datalayout = "e-m:e-p270:32:32-p271:32:32-p272:64:64-i64:64-f80:128-n8:16:32:64-S128"
target triple = "x86_64-unknown-linux-gnu"

%"class.std::__1::mersenne_twister_engine" = type { [624 x i64], i64 }
%"class.std::__1::basic_ostream" = type { ptr, %"class.std::__1::basic_ios.base" }
%"class.std::__1::basic_ios.base" = type <{ %"class.std::__1::ios_base", ptr, i32 }>
%"class.std::__1::ios_base" = type { ptr, i32, i64, i64, i32, i32, ptr, ptr, ptr, ptr, i64, i64, ptr, i64, i64, ptr, i64, i64 }
%"class.std::__1::locale::id" = type <{ %"struct.std::__1::once_flag", i32, [4 x i8] }>
%"struct.std::__1::once_flag" = type { i64 }
%"class.std::__1::uniform_int_distribution" = type { %"class.std::__1::uniform_int_distribution<unsigned short>::param_type" }
%"class.std::__1::uniform_int_distribution<unsigned short>::param_type" = type { i16, i16 }
%"class.std::__1::unique_ptr.55" = type { %"class.std::__1::__compressed_pair.56" }
%"class.std::__1::__compressed_pair.56" = type { %"struct.std::__1::__compressed_pair_elem.57" }
%"struct.std::__1::__compressed_pair_elem.57" = type { ptr }
%"class.benchmark::State" = type { i64, i64, i64, i8, i8, i8, %"class.std::__1::vector", i64, %"class.std::__1::map", i32, i32, ptr, ptr, ptr }
%"class.std::__1::vector" = type { ptr, ptr, %"class.std::__1::__compressed_pair" }
%"class.std::__1::__compressed_pair" = type { %"struct.std::__1::__compressed_pair_elem" }
%"struct.std::__1::__compressed_pair_elem" = type { ptr }
%"class.std::__1::map" = type { %"class.std::__1::__tree" }
%"class.std::__1::__tree" = type { ptr, %"class.std::__1::__compressed_pair.1", %"class.std::__1::__compressed_pair.7" }
%"class.std::__1::__compressed_pair.1" = type { %"struct.std::__1::__compressed_pair_elem.2" }
%"struct.std::__1::__compressed_pair_elem.2" = type { %"class.std::__1::__tree_end_node" }
%"class.std::__1::__tree_end_node" = type { ptr }
%"class.std::__1::__compressed_pair.7" = type { %"struct.std::__1::__compressed_pair_elem.8" }
%"struct.std::__1::__compressed_pair_elem.8" = type { i64 }
%"class.std::__1::uniform_int_distribution.61" = type { %"class.std::__1::uniform_int_distribution<unsigned char>::param_type" }
%"class.std::__1::uniform_int_distribution<unsigned char>::param_type" = type { i8, i8 }
%"class.std::__1::uniform_int_distribution.68" = type { %"class.std::__1::uniform_int_distribution<unsigned int>::param_type" }
%"class.std::__1::uniform_int_distribution<unsigned int>::param_type" = type { i32, i32 }
%"class.std::__1::uniform_int_distribution.75" = type { %"class.std::__1::uniform_int_distribution<unsigned long>::param_type" }
%"class.std::__1::uniform_int_distribution<unsigned long>::param_type" = type { i64, i64 }
%"class.std::__1::unique_ptr" = type { %"class.std::__1::__compressed_pair.52" }
%"class.std::__1::__compressed_pair.52" = type { %"struct.std::__1::__compressed_pair_elem.53" }
%"struct.std::__1::__compressed_pair_elem.53" = type { ptr }
%"class.std::__1::unique_ptr.62" = type { %"class.std::__1::__compressed_pair.63" }
%"class.std::__1::__compressed_pair.63" = type { %"struct.std::__1::__compressed_pair_elem.64" }
%"struct.std::__1::__compressed_pair_elem.64" = type { ptr }
%"class.std::__1::unique_ptr.69" = type { %"class.std::__1::__compressed_pair.70" }
%"class.std::__1::__compressed_pair.70" = type { %"struct.std::__1::__compressed_pair_elem.71" }
%"struct.std::__1::__compressed_pair_elem.71" = type { ptr }
%"class.std::__1::__independent_bits_engine" = type { ptr, i64, i64, i64, i64, i64, i64, i64, i64 }
%"class.std::__1::locale" = type { ptr }
%"class.std::__1::basic_ostream<char>::sentry" = type { i8, ptr }
%"class.std::__1::basic_ios" = type <{ %"class.std::__1::ios_base", ptr, i32, [4 x i8] }>
%"class.std::__1::basic_string" = type { %"class.std::__1::__compressed_pair.10" }
%"class.std::__1::__compressed_pair.10" = type { %"struct.std::__1::__compressed_pair_elem.11" }
%"struct.std::__1::__compressed_pair_elem.11" = type { %"struct.std::__1::basic_string<char>::__rep" }
%"struct.std::__1::basic_string<char>::__rep" = type { %union.anon }
%union.anon = type { %"struct.std::__1::basic_string<char>::__long" }
%"struct.std::__1::basic_string<char>::__long" = type { %struct.anon, i64, ptr }
%struct.anon = type { i64 }
%"struct.std::__1::basic_string<char>::__short" = type { %struct.anon.12, [0 x i8], [23 x i8] }
%struct.anon.12 = type { i8 }
%"class.std::__1::__independent_bits_engine.76" = type { ptr, i64, i64, i64, i64, i64, i64, i64, i64 }
%"class.benchmark::internal::FunctionBenchmark" = type { %"class.benchmark::internal::Benchmark", ptr }
%"class.benchmark::internal::Benchmark" = type { ptr, %"class.std::__1::basic_string", i32, %"class.std::__1::vector.17", %"class.std::__1::vector.24", i32, i8, i32, double, i64, i32, i8, i8, i8, i32, ptr, %"class.std::__1::vector.31", %"class.std::__1::vector.45", ptr, ptr }
%"class.std::__1::vector.17" = type { ptr, ptr, %"class.std::__1::__compressed_pair.18" }
%"class.std::__1::__compressed_pair.18" = type { %"struct.std::__1::__compressed_pair_elem.19" }
%"struct.std::__1::__compressed_pair_elem.19" = type { ptr }
%"class.std::__1::vector.24" = type { ptr, ptr, %"class.std::__1::__compressed_pair.25" }
%"class.std::__1::__compressed_pair.25" = type { %"struct.std::__1::__compressed_pair_elem.26" }
%"struct.std::__1::__compressed_pair_elem.26" = type { ptr }
%"class.std::__1::vector.31" = type { ptr, ptr, %"class.std::__1::__compressed_pair.39" }
%"class.std::__1::__compressed_pair.39" = type { %"struct.std::__1::__compressed_pair_elem.40" }
%"struct.std::__1::__compressed_pair_elem.40" = type { ptr }
%"class.std::__1::vector.45" = type { ptr, ptr, %"class.std::__1::__compressed_pair.46" }
%"class.std::__1::__compressed_pair.46" = type { %"struct.std::__1::__compressed_pair_elem.47" }
%"struct.std::__1::__compressed_pair_elem.47" = type { ptr }

$_ZNSt3__1lsB7v170000INS_11char_traitsIcEEEERNS_13basic_ostreamIcT_EES6_PKc = comdat any

$__clang_call_terminate = comdat any

$_ZNSt3__124uniform_int_distributionItEclINS_23mersenne_twister_engineImLm32ELm624ELm397ELm31ELm2567483615ELm11ELm4294967295ELm7ELm2636928640ELm15ELm4022730752ELm18ELm1812433253EEEEEtRT_RKNS1_10param_typeE = comdat any

$_ZNSt3__125__independent_bits_engineINS_23mersenne_twister_engineImLm32ELm624ELm397ELm31ELm2567483615ELm11ELm4294967295ELm7ELm2636928640ELm15ELm4022730752ELm18ELm1812433253EEEjE6__evalENS_17integral_constantIbLb1EEE = comdat any

$_ZNSt3__124__put_character_sequenceB7v170000IcNS_11char_traitsIcEEEERNS_13basic_ostreamIT_T0_EES7_PKS4_m = comdat any

$_ZNSt3__116__pad_and_outputB7v170000IcNS_11char_traitsIcEEEENS_19ostreambuf_iteratorIT_T0_EES6_PKS4_S8_S8_RNS_8ios_baseES4_ = comdat any

$_ZNSt3__124uniform_int_distributionIhEclINS_23mersenne_twister_engineImLm32ELm624ELm397ELm31ELm2567483615ELm11ELm4294967295ELm7ELm2636928640ELm15ELm4022730752ELm18ELm1812433253EEEEEhRT_RKNS1_10param_typeE = comdat any

$_ZNSt3__124uniform_int_distributionIjEclINS_23mersenne_twister_engineImLm32ELm624ELm397ELm31ELm2567483615ELm11ELm4294967295ELm7ELm2636928640ELm15ELm4022730752ELm18ELm1812433253EEEEEjRT_RKNS1_10param_typeE = comdat any

$_ZNSt3__124uniform_int_distributionImEclINS_23mersenne_twister_engineImLm32ELm624ELm397ELm31ELm2567483615ELm11ELm4294967295ELm7ELm2636928640ELm15ELm4022730752ELm18ELm1812433253EEEEEmRT_RKNS1_10param_typeE = comdat any

$_ZNSt3__125__independent_bits_engineINS_23mersenne_twister_engineImLm32ELm624ELm397ELm31ELm2567483615ELm11ELm4294967295ELm7ELm2636928640ELm15ELm4022730752ELm18ELm1812433253EEEmE6__evalENS_17integral_constantIbLb1EEE = comdat any

@_ZL3rng = internal global %"class.std::__1::mersenne_twister_engine" zeroinitializer, align 8
@_ZL27benchmark_uniq_2_benchmark_ = internal unnamed_addr global ptr null, align 8
@.str = private unnamed_addr constant [61 x i8] c"benchForTruncOrZextVecInLoopWithVW8From_uint16_t_To_uint8_t_\00", align 1
@_ZL27benchmark_uniq_3_benchmark_ = internal unnamed_addr global ptr null, align 8
@.str.4 = private unnamed_addr constant [62 x i8] c"benchForTruncOrZextVecInLoopWithVW16From_uint16_t_To_uint8_t_\00", align 1
@_ZL27benchmark_uniq_4_benchmark_ = internal unnamed_addr global ptr null, align 8
@.str.6 = private unnamed_addr constant [54 x i8] c"benchForTruncOrZextVecInLoopFrom_uint16_t_To_uint8_t_\00", align 1
@_ZL27benchmark_uniq_5_benchmark_ = internal unnamed_addr global ptr null, align 8
@.str.8 = private unnamed_addr constant [68 x i8] c"benchForTruncOrZextVecWithAddInLoopWithVW8From_uint16_t_To_uint8_t_\00", align 1
@_ZL27benchmark_uniq_6_benchmark_ = internal unnamed_addr global ptr null, align 8
@.str.10 = private unnamed_addr constant [69 x i8] c"benchForTruncOrZextVecWithAddInLoopWithVW16From_uint16_t_To_uint8_t_\00", align 1
@_ZL27benchmark_uniq_7_benchmark_ = internal unnamed_addr global ptr null, align 8
@.str.12 = private unnamed_addr constant [61 x i8] c"benchForTruncOrZextVecWithAddInLoopFrom_uint16_t_To_uint8_t_\00", align 1
@_ZL27benchmark_uniq_8_benchmark_ = internal unnamed_addr global ptr null, align 8
@.str.14 = private unnamed_addr constant [61 x i8] c"benchForTruncOrZextVecInLoopWithVW8From_uint32_t_To_uint8_t_\00", align 1
@_ZL27benchmark_uniq_9_benchmark_ = internal unnamed_addr global ptr null, align 8
@.str.16 = private unnamed_addr constant [62 x i8] c"benchForTruncOrZextVecInLoopWithVW16From_uint32_t_To_uint8_t_\00", align 1
@_ZL28benchmark_uniq_10_benchmark_ = internal unnamed_addr global ptr null, align 8
@.str.18 = private unnamed_addr constant [54 x i8] c"benchForTruncOrZextVecInLoopFrom_uint32_t_To_uint8_t_\00", align 1
@_ZL28benchmark_uniq_11_benchmark_ = internal unnamed_addr global ptr null, align 8
@.str.20 = private unnamed_addr constant [68 x i8] c"benchForTruncOrZextVecWithAddInLoopWithVW8From_uint32_t_To_uint8_t_\00", align 1
@_ZL28benchmark_uniq_12_benchmark_ = internal unnamed_addr global ptr null, align 8
@.str.22 = private unnamed_addr constant [69 x i8] c"benchForTruncOrZextVecWithAddInLoopWithVW16From_uint32_t_To_uint8_t_\00", align 1
@_ZL28benchmark_uniq_13_benchmark_ = internal unnamed_addr global ptr null, align 8
@.str.24 = private unnamed_addr constant [61 x i8] c"benchForTruncOrZextVecWithAddInLoopFrom_uint32_t_To_uint8_t_\00", align 1
@_ZL28benchmark_uniq_14_benchmark_ = internal unnamed_addr global ptr null, align 8
@.str.26 = private unnamed_addr constant [61 x i8] c"benchForTruncOrZextVecInLoopWithVW8From_uint64_t_To_uint8_t_\00", align 1
@_ZL28benchmark_uniq_15_benchmark_ = internal unnamed_addr global ptr null, align 8
@.str.28 = private unnamed_addr constant [62 x i8] c"benchForTruncOrZextVecInLoopWithVW16From_uint64_t_To_uint8_t_\00", align 1
@_ZL28benchmark_uniq_16_benchmark_ = internal unnamed_addr global ptr null, align 8
@.str.30 = private unnamed_addr constant [54 x i8] c"benchForTruncOrZextVecInLoopFrom_uint64_t_To_uint8_t_\00", align 1
@_ZL28benchmark_uniq_17_benchmark_ = internal unnamed_addr global ptr null, align 8
@.str.32 = private unnamed_addr constant [68 x i8] c"benchForTruncOrZextVecWithAddInLoopWithVW8From_uint64_t_To_uint8_t_\00", align 1
@_ZL28benchmark_uniq_18_benchmark_ = internal unnamed_addr global ptr null, align 8
@.str.34 = private unnamed_addr constant [69 x i8] c"benchForTruncOrZextVecWithAddInLoopWithVW16From_uint64_t_To_uint8_t_\00", align 1
@_ZL28benchmark_uniq_19_benchmark_ = internal unnamed_addr global ptr null, align 8
@.str.36 = private unnamed_addr constant [61 x i8] c"benchForTruncOrZextVecWithAddInLoopFrom_uint64_t_To_uint8_t_\00", align 1
@_ZL28benchmark_uniq_20_benchmark_ = internal unnamed_addr global ptr null, align 8
@.str.38 = private unnamed_addr constant [62 x i8] c"benchForTruncOrZextVecInLoopWithVW8From_uint32_t_To_uint16_t_\00", align 1
@_ZL28benchmark_uniq_21_benchmark_ = internal unnamed_addr global ptr null, align 8
@.str.40 = private unnamed_addr constant [63 x i8] c"benchForTruncOrZextVecInLoopWithVW16From_uint32_t_To_uint16_t_\00", align 1
@_ZL28benchmark_uniq_22_benchmark_ = internal unnamed_addr global ptr null, align 8
@.str.42 = private unnamed_addr constant [55 x i8] c"benchForTruncOrZextVecInLoopFrom_uint32_t_To_uint16_t_\00", align 1
@_ZL28benchmark_uniq_23_benchmark_ = internal unnamed_addr global ptr null, align 8
@.str.44 = private unnamed_addr constant [69 x i8] c"benchForTruncOrZextVecWithAddInLoopWithVW8From_uint32_t_To_uint16_t_\00", align 1
@_ZL28benchmark_uniq_24_benchmark_ = internal unnamed_addr global ptr null, align 8
@.str.46 = private unnamed_addr constant [70 x i8] c"benchForTruncOrZextVecWithAddInLoopWithVW16From_uint32_t_To_uint16_t_\00", align 1
@_ZL28benchmark_uniq_25_benchmark_ = internal unnamed_addr global ptr null, align 8
@.str.48 = private unnamed_addr constant [62 x i8] c"benchForTruncOrZextVecWithAddInLoopFrom_uint32_t_To_uint16_t_\00", align 1
@_ZL28benchmark_uniq_26_benchmark_ = internal unnamed_addr global ptr null, align 8
@.str.50 = private unnamed_addr constant [62 x i8] c"benchForTruncOrZextVecInLoopWithVW8From_uint64_t_To_uint16_t_\00", align 1
@_ZL28benchmark_uniq_27_benchmark_ = internal unnamed_addr global ptr null, align 8
@.str.52 = private unnamed_addr constant [63 x i8] c"benchForTruncOrZextVecInLoopWithVW16From_uint64_t_To_uint16_t_\00", align 1
@_ZL28benchmark_uniq_28_benchmark_ = internal unnamed_addr global ptr null, align 8
@.str.54 = private unnamed_addr constant [55 x i8] c"benchForTruncOrZextVecInLoopFrom_uint64_t_To_uint16_t_\00", align 1
@_ZL28benchmark_uniq_29_benchmark_ = internal unnamed_addr global ptr null, align 8
@.str.56 = private unnamed_addr constant [69 x i8] c"benchForTruncOrZextVecWithAddInLoopWithVW8From_uint64_t_To_uint16_t_\00", align 1
@_ZL28benchmark_uniq_30_benchmark_ = internal unnamed_addr global ptr null, align 8
@.str.58 = private unnamed_addr constant [70 x i8] c"benchForTruncOrZextVecWithAddInLoopWithVW16From_uint64_t_To_uint16_t_\00", align 1
@_ZL28benchmark_uniq_31_benchmark_ = internal unnamed_addr global ptr null, align 8
@.str.60 = private unnamed_addr constant [62 x i8] c"benchForTruncOrZextVecWithAddInLoopFrom_uint64_t_To_uint16_t_\00", align 1
@_ZL28benchmark_uniq_32_benchmark_ = internal unnamed_addr global ptr null, align 8
@.str.62 = private unnamed_addr constant [62 x i8] c"benchForTruncOrZextVecInLoopWithVW8From_uint64_t_To_uint32_t_\00", align 1
@_ZL28benchmark_uniq_33_benchmark_ = internal unnamed_addr global ptr null, align 8
@.str.64 = private unnamed_addr constant [63 x i8] c"benchForTruncOrZextVecInLoopWithVW16From_uint64_t_To_uint32_t_\00", align 1
@_ZL28benchmark_uniq_34_benchmark_ = internal unnamed_addr global ptr null, align 8
@.str.66 = private unnamed_addr constant [55 x i8] c"benchForTruncOrZextVecInLoopFrom_uint64_t_To_uint32_t_\00", align 1
@_ZL28benchmark_uniq_35_benchmark_ = internal unnamed_addr global ptr null, align 8
@.str.68 = private unnamed_addr constant [69 x i8] c"benchForTruncOrZextVecWithAddInLoopWithVW8From_uint64_t_To_uint32_t_\00", align 1
@_ZL28benchmark_uniq_36_benchmark_ = internal unnamed_addr global ptr null, align 8
@.str.70 = private unnamed_addr constant [70 x i8] c"benchForTruncOrZextVecWithAddInLoopWithVW16From_uint64_t_To_uint32_t_\00", align 1
@_ZL28benchmark_uniq_37_benchmark_ = internal unnamed_addr global ptr null, align 8
@.str.72 = private unnamed_addr constant [62 x i8] c"benchForTruncOrZextVecWithAddInLoopFrom_uint64_t_To_uint32_t_\00", align 1
@_ZL28benchmark_uniq_38_benchmark_ = internal unnamed_addr global ptr null, align 8
@.str.74 = private unnamed_addr constant [61 x i8] c"benchForTruncOrZextVecInLoopWithVW8From_uint8_t_To_uint16_t_\00", align 1
@_ZL28benchmark_uniq_39_benchmark_ = internal unnamed_addr global ptr null, align 8
@.str.76 = private unnamed_addr constant [62 x i8] c"benchForTruncOrZextVecInLoopWithVW16From_uint8_t_To_uint16_t_\00", align 1
@_ZL28benchmark_uniq_40_benchmark_ = internal unnamed_addr global ptr null, align 8
@.str.78 = private unnamed_addr constant [54 x i8] c"benchForTruncOrZextVecInLoopFrom_uint8_t_To_uint16_t_\00", align 1
@_ZL28benchmark_uniq_41_benchmark_ = internal unnamed_addr global ptr null, align 8
@.str.80 = private unnamed_addr constant [68 x i8] c"benchForTruncOrZextVecWithAddInLoopWithVW8From_uint8_t_To_uint16_t_\00", align 1
@_ZL28benchmark_uniq_42_benchmark_ = internal unnamed_addr global ptr null, align 8
@.str.82 = private unnamed_addr constant [69 x i8] c"benchForTruncOrZextVecWithAddInLoopWithVW16From_uint8_t_To_uint16_t_\00", align 1
@_ZL28benchmark_uniq_43_benchmark_ = internal unnamed_addr global ptr null, align 8
@.str.84 = private unnamed_addr constant [61 x i8] c"benchForTruncOrZextVecWithAddInLoopFrom_uint8_t_To_uint16_t_\00", align 1
@_ZL28benchmark_uniq_44_benchmark_ = internal unnamed_addr global ptr null, align 8
@.str.86 = private unnamed_addr constant [61 x i8] c"benchForTruncOrZextVecInLoopWithVW8From_uint8_t_To_uint32_t_\00", align 1
@_ZL28benchmark_uniq_45_benchmark_ = internal unnamed_addr global ptr null, align 8
@.str.88 = private unnamed_addr constant [62 x i8] c"benchForTruncOrZextVecInLoopWithVW16From_uint8_t_To_uint32_t_\00", align 1
@_ZL28benchmark_uniq_46_benchmark_ = internal unnamed_addr global ptr null, align 8
@.str.90 = private unnamed_addr constant [54 x i8] c"benchForTruncOrZextVecInLoopFrom_uint8_t_To_uint32_t_\00", align 1
@_ZL28benchmark_uniq_47_benchmark_ = internal unnamed_addr global ptr null, align 8
@.str.92 = private unnamed_addr constant [68 x i8] c"benchForTruncOrZextVecWithAddInLoopWithVW8From_uint8_t_To_uint32_t_\00", align 1
@_ZL28benchmark_uniq_48_benchmark_ = internal unnamed_addr global ptr null, align 8
@.str.94 = private unnamed_addr constant [69 x i8] c"benchForTruncOrZextVecWithAddInLoopWithVW16From_uint8_t_To_uint32_t_\00", align 1
@_ZL28benchmark_uniq_49_benchmark_ = internal unnamed_addr global ptr null, align 8
@.str.96 = private unnamed_addr constant [61 x i8] c"benchForTruncOrZextVecWithAddInLoopFrom_uint8_t_To_uint32_t_\00", align 1
@_ZL28benchmark_uniq_50_benchmark_ = internal unnamed_addr global ptr null, align 8
@.str.98 = private unnamed_addr constant [61 x i8] c"benchForTruncOrZextVecInLoopWithVW8From_uint8_t_To_uint64_t_\00", align 1
@_ZL28benchmark_uniq_51_benchmark_ = internal unnamed_addr global ptr null, align 8
@.str.100 = private unnamed_addr constant [62 x i8] c"benchForTruncOrZextVecInLoopWithVW16From_uint8_t_To_uint64_t_\00", align 1
@_ZL28benchmark_uniq_52_benchmark_ = internal unnamed_addr global ptr null, align 8
@.str.102 = private unnamed_addr constant [54 x i8] c"benchForTruncOrZextVecInLoopFrom_uint8_t_To_uint64_t_\00", align 1
@_ZL28benchmark_uniq_53_benchmark_ = internal unnamed_addr global ptr null, align 8
@.str.104 = private unnamed_addr constant [68 x i8] c"benchForTruncOrZextVecWithAddInLoopWithVW8From_uint8_t_To_uint64_t_\00", align 1
@_ZL28benchmark_uniq_54_benchmark_ = internal unnamed_addr global ptr null, align 8
@.str.106 = private unnamed_addr constant [69 x i8] c"benchForTruncOrZextVecWithAddInLoopWithVW16From_uint8_t_To_uint64_t_\00", align 1
@_ZL28benchmark_uniq_55_benchmark_ = internal unnamed_addr global ptr null, align 8
@.str.108 = private unnamed_addr constant [61 x i8] c"benchForTruncOrZextVecWithAddInLoopFrom_uint8_t_To_uint64_t_\00", align 1
@_ZL28benchmark_uniq_56_benchmark_ = internal unnamed_addr global ptr null, align 8
@.str.110 = private unnamed_addr constant [62 x i8] c"benchForTruncOrZextVecInLoopWithVW8From_uint16_t_To_uint32_t_\00", align 1
@_ZL28benchmark_uniq_57_benchmark_ = internal unnamed_addr global ptr null, align 8
@.str.112 = private unnamed_addr constant [63 x i8] c"benchForTruncOrZextVecInLoopWithVW16From_uint16_t_To_uint32_t_\00", align 1
@_ZL28benchmark_uniq_58_benchmark_ = internal unnamed_addr global ptr null, align 8
@.str.114 = private unnamed_addr constant [55 x i8] c"benchForTruncOrZextVecInLoopFrom_uint16_t_To_uint32_t_\00", align 1
@_ZL28benchmark_uniq_59_benchmark_ = internal unnamed_addr global ptr null, align 8
@.str.116 = private unnamed_addr constant [69 x i8] c"benchForTruncOrZextVecWithAddInLoopWithVW8From_uint16_t_To_uint32_t_\00", align 1
@_ZL28benchmark_uniq_60_benchmark_ = internal unnamed_addr global ptr null, align 8
@.str.118 = private unnamed_addr constant [70 x i8] c"benchForTruncOrZextVecWithAddInLoopWithVW16From_uint16_t_To_uint32_t_\00", align 1
@_ZL28benchmark_uniq_61_benchmark_ = internal unnamed_addr global ptr null, align 8
@.str.120 = private unnamed_addr constant [62 x i8] c"benchForTruncOrZextVecWithAddInLoopFrom_uint16_t_To_uint32_t_\00", align 1
@_ZL28benchmark_uniq_62_benchmark_ = internal unnamed_addr global ptr null, align 8
@.str.122 = private unnamed_addr constant [62 x i8] c"benchForTruncOrZextVecInLoopWithVW8From_uint16_t_To_uint64_t_\00", align 1
@_ZL28benchmark_uniq_63_benchmark_ = internal unnamed_addr global ptr null, align 8
@.str.124 = private unnamed_addr constant [63 x i8] c"benchForTruncOrZextVecInLoopWithVW16From_uint16_t_To_uint64_t_\00", align 1
@_ZL28benchmark_uniq_64_benchmark_ = internal unnamed_addr global ptr null, align 8
@.str.126 = private unnamed_addr constant [55 x i8] c"benchForTruncOrZextVecInLoopFrom_uint16_t_To_uint64_t_\00", align 1
@_ZL28benchmark_uniq_65_benchmark_ = internal unnamed_addr global ptr null, align 8
@.str.128 = private unnamed_addr constant [69 x i8] c"benchForTruncOrZextVecWithAddInLoopWithVW8From_uint16_t_To_uint64_t_\00", align 1
@_ZL28benchmark_uniq_66_benchmark_ = internal unnamed_addr global ptr null, align 8
@.str.130 = private unnamed_addr constant [70 x i8] c"benchForTruncOrZextVecWithAddInLoopWithVW16From_uint16_t_To_uint64_t_\00", align 1
@_ZL28benchmark_uniq_67_benchmark_ = internal unnamed_addr global ptr null, align 8
@.str.132 = private unnamed_addr constant [62 x i8] c"benchForTruncOrZextVecWithAddInLoopFrom_uint16_t_To_uint64_t_\00", align 1
@_ZL28benchmark_uniq_68_benchmark_ = internal unnamed_addr global ptr null, align 8
@.str.134 = private unnamed_addr constant [62 x i8] c"benchForTruncOrZextVecInLoopWithVW8From_uint32_t_To_uint64_t_\00", align 1
@_ZL28benchmark_uniq_69_benchmark_ = internal unnamed_addr global ptr null, align 8
@.str.136 = private unnamed_addr constant [63 x i8] c"benchForTruncOrZextVecInLoopWithVW16From_uint32_t_To_uint64_t_\00", align 1
@_ZL28benchmark_uniq_70_benchmark_ = internal unnamed_addr global ptr null, align 8
@.str.138 = private unnamed_addr constant [55 x i8] c"benchForTruncOrZextVecInLoopFrom_uint32_t_To_uint64_t_\00", align 1
@_ZL28benchmark_uniq_71_benchmark_ = internal unnamed_addr global ptr null, align 8
@.str.140 = private unnamed_addr constant [69 x i8] c"benchForTruncOrZextVecWithAddInLoopWithVW8From_uint32_t_To_uint64_t_\00", align 1
@_ZL28benchmark_uniq_72_benchmark_ = internal unnamed_addr global ptr null, align 8
@.str.142 = private unnamed_addr constant [70 x i8] c"benchForTruncOrZextVecWithAddInLoopWithVW16From_uint32_t_To_uint64_t_\00", align 1
@_ZL28benchmark_uniq_73_benchmark_ = internal unnamed_addr global ptr null, align 8
@.str.144 = private unnamed_addr constant [62 x i8] c"benchForTruncOrZextVecWithAddInLoopFrom_uint32_t_To_uint64_t_\00", align 1
@_ZTVN9benchmark8internal17FunctionBenchmarkE = external unnamed_addr constant { [5 x ptr] }, align 8
@_ZNSt3__14cerrE = external global %"class.std::__1::basic_ostream", align 8
@.str.145 = private unnamed_addr constant [35 x i8] c"ERROR: Trunc or ZExt operation on \00", align 1
@.str.146 = private unnamed_addr constant [20 x i8] c" is showing result \00", align 1
@.str.147 = private unnamed_addr constant [13 x i8] c" instead of \00", align 1
@.str.148 = private unnamed_addr constant [2 x i8] c"\0A\00", align 1
@_ZNSt3__15ctypeIcE2idE = external global %"class.std::__1::locale::id", align 8
@llvm.global_ctors = appending global [1 x { i32, ptr, ptr }] [{ i32, ptr, ptr } { i32 65535, ptr @_GLOBAL__sub_I_VectorOperations.cpp, ptr null }]

declare noundef i32 @_ZN9benchmark8internal17InitializeStreamsEv() local_unnamed_addr #0

; Function Attrs: uwtable
define dso_local void @_Z60benchForTruncOrZextVecInLoopWithVW8From_uint16_t_To_uint8_t_RN9benchmark5StateE(ptr noundef nonnull align 8 dereferenceable(120) %state) #1 personality ptr @__gxx_personality_v0 {
entry:
  %__c.addr.i114.i = alloca i8, align 1
  %__c.addr.i.i = alloca i8, align 1
  %distrib.i.i = alloca %"class.std::__1::uniform_int_distribution", align 2
  %B.i = alloca %"class.std::__1::unique_ptr.55", align 8
  %call.i = tail call noalias noundef nonnull dereferenceable(20000) ptr @_Znam(i64 noundef 20000) #12
  call void @llvm.lifetime.start.p0(i64 8, ptr nonnull %B.i) #13
  %call1.i = invoke noalias noundef nonnull dereferenceable(10000) ptr @_Znam(i64 noundef 10000) #12
          to label %invoke.cont.i unwind label %lpad.i

invoke.cont.i:                                    ; preds = %entry
  store ptr %call1.i, ptr %B.i, align 8, !tbaa !5
  %call4.i = invoke noalias noundef nonnull dereferenceable(10000) ptr @_Znam(i64 noundef 10000) #12
          to label %invoke.cont3.i unwind label %ehcleanup76.thread.i

invoke.cont3.i:                                   ; preds = %invoke.cont.i
  call void @llvm.lifetime.start.p0(i64 4, ptr nonnull %distrib.i.i) #13
  store i16 0, ptr %distrib.i.i, align 2, !tbaa !10
  %__b_.i.i.i.i = getelementptr inbounds %"class.std::__1::uniform_int_distribution<unsigned short>::param_type", ptr %distrib.i.i, i64 0, i32 1
  store i16 -1, ptr %__b_.i.i.i.i, align 2, !tbaa !13
  br label %for.body.i.i

for.body.i.i:                                     ; preds = %call.i.i.noexc.i, %invoke.cont3.i
  %indvars.iv.i.i = phi i64 [ 0, %invoke.cont3.i ], [ %indvars.iv.next.i.i, %call.i.i.noexc.i ]
  %call.i.i96.i = invoke noundef zeroext i16 @_ZNSt3__124uniform_int_distributionItEclINS_23mersenne_twister_engineImLm32ELm624ELm397ELm31ELm2567483615ELm11ELm4294967295ELm7ELm2636928640ELm15ELm4022730752ELm18ELm1812433253EEEEEtRT_RKNS1_10param_typeE(ptr noundef nonnull align 2 dereferenceable(4) %distrib.i.i, ptr noundef nonnull align 8 dereferenceable(5000) @_ZL3rng, ptr noundef nonnull align 2 dereferenceable(4) %distrib.i.i)
          to label %call.i.i.noexc.i unwind label %lpad5.loopexit.i

call.i.i.noexc.i:                                 ; preds = %for.body.i.i
  %arrayidx.i.i.i = getelementptr inbounds i16, ptr %call.i, i64 %indvars.iv.i.i
  store i16 %call.i.i96.i, ptr %arrayidx.i.i.i, align 2, !tbaa !14
  %indvars.iv.next.i.i = add nuw nsw i64 %indvars.iv.i.i, 1
  %exitcond.not.i.i = icmp eq i64 %indvars.iv.next.i.i, 10000
  br i1 %exitcond.not.i.i, label %invoke.cont6.i, label %for.body.i.i, !llvm.loop !15

invoke.cont6.i:                                   ; preds = %call.i.i.noexc.i
  call void @llvm.lifetime.end.p0(i64 4, ptr nonnull %distrib.i.i) #13
  br label %for.body.i100.i

for.body.i100.i:                                  ; preds = %for.body.i100.i, %invoke.cont6.i
  %indvars.iv.i97.i = phi i64 [ 0, %invoke.cont6.i ], [ %indvars.iv.next.i98.i.4, %for.body.i100.i ]
  %arrayidx.i.i = getelementptr inbounds i16, ptr %call.i, i64 %indvars.iv.i97.i
  %0 = load i16, ptr %arrayidx.i.i, align 2, !tbaa !14
  %conv.i.i = trunc i16 %0 to i8
  %arrayidx2.i.i = getelementptr inbounds i8, ptr %call4.i, i64 %indvars.iv.i97.i
  store i8 %conv.i.i, ptr %arrayidx2.i.i, align 1, !tbaa !17
  %indvars.iv.next.i98.i = add nuw nsw i64 %indvars.iv.i97.i, 1
  %arrayidx.i.i.1 = getelementptr inbounds i16, ptr %call.i, i64 %indvars.iv.next.i98.i
  %1 = load i16, ptr %arrayidx.i.i.1, align 2, !tbaa !14
  %conv.i.i.1 = trunc i16 %1 to i8
  %arrayidx2.i.i.1 = getelementptr inbounds i8, ptr %call4.i, i64 %indvars.iv.next.i98.i
  store i8 %conv.i.i.1, ptr %arrayidx2.i.i.1, align 1, !tbaa !17
  %indvars.iv.next.i98.i.1 = add nuw nsw i64 %indvars.iv.i97.i, 2
  %arrayidx.i.i.2 = getelementptr inbounds i16, ptr %call.i, i64 %indvars.iv.next.i98.i.1
  %2 = load i16, ptr %arrayidx.i.i.2, align 2, !tbaa !14
  %conv.i.i.2 = trunc i16 %2 to i8
  %arrayidx2.i.i.2 = getelementptr inbounds i8, ptr %call4.i, i64 %indvars.iv.next.i98.i.1
  store i8 %conv.i.i.2, ptr %arrayidx2.i.i.2, align 1, !tbaa !17
  %indvars.iv.next.i98.i.2 = add nuw nsw i64 %indvars.iv.i97.i, 3
  %arrayidx.i.i.3 = getelementptr inbounds i16, ptr %call.i, i64 %indvars.iv.next.i98.i.2
  %3 = load i16, ptr %arrayidx.i.i.3, align 2, !tbaa !14
  %conv.i.i.3 = trunc i16 %3 to i8
  %arrayidx2.i.i.3 = getelementptr inbounds i8, ptr %call4.i, i64 %indvars.iv.next.i98.i.2
  store i8 %conv.i.i.3, ptr %arrayidx2.i.i.3, align 1, !tbaa !17
  %indvars.iv.next.i98.i.3 = add nuw nsw i64 %indvars.iv.i97.i, 4
  %arrayidx.i.i.4 = getelementptr inbounds i16, ptr %call.i, i64 %indvars.iv.next.i98.i.3
  %4 = load i16, ptr %arrayidx.i.i.4, align 2, !tbaa !14
  %conv.i.i.4 = trunc i16 %4 to i8
  %arrayidx2.i.i.4 = getelementptr inbounds i8, ptr %call4.i, i64 %indvars.iv.next.i98.i.3
  store i8 %conv.i.i.4, ptr %arrayidx2.i.i.4, align 1, !tbaa !17
  %indvars.iv.next.i98.i.4 = add nuw nsw i64 %indvars.iv.i97.i, 5
  %exitcond.not.i99.i.4 = icmp eq i64 %indvars.iv.next.i98.i.4, 10000
  br i1 %exitcond.not.i99.i.4, label %vector.body, label %for.body.i100.i, !llvm.loop !18

vector.body:                                      ; preds = %for.body.i100.i, %vector.body
  %index = phi i64 [ %index.next, %vector.body ], [ 0, %for.body.i100.i ]
  %5 = getelementptr inbounds i16, ptr %call.i, i64 %index
  %wide.load = load <8 x i16>, ptr %5, align 2, !tbaa !14
  %6 = getelementptr inbounds i16, ptr %5, i64 8
  %wide.load17 = load <8 x i16>, ptr %6, align 2, !tbaa !14
  %7 = getelementptr inbounds i16, ptr %5, i64 16
  %wide.load18 = load <8 x i16>, ptr %7, align 2, !tbaa !14
  %8 = getelementptr inbounds i16, ptr %5, i64 24
  %wide.load19 = load <8 x i16>, ptr %8, align 2, !tbaa !14
  %9 = trunc <8 x i16> %wide.load to <8 x i8>
  %10 = trunc <8 x i16> %wide.load17 to <8 x i8>
  %11 = trunc <8 x i16> %wide.load18 to <8 x i8>
  %12 = trunc <8 x i16> %wide.load19 to <8 x i8>
  %13 = getelementptr inbounds i8, ptr %call1.i, i64 %index
  store <8 x i8> %9, ptr %13, align 1, !tbaa !17
  %14 = getelementptr inbounds i8, ptr %13, i64 8
  store <8 x i8> %10, ptr %14, align 1, !tbaa !17
  %15 = getelementptr inbounds i8, ptr %13, i64 16
  store <8 x i8> %11, ptr %15, align 1, !tbaa !17
  %16 = getelementptr inbounds i8, ptr %13, i64 24
  store <8 x i8> %12, ptr %16, align 1, !tbaa !17
  %index.next = add nuw i64 %index, 32
  %17 = icmp eq i64 %index.next, 9984
  br i1 %17, label %for.body.i4, label %vector.body, !llvm.loop !20

for.body.i4:                                      ; preds = %vector.body
  %arrayidx.i = getelementptr inbounds i16, ptr %call.i, i64 9984
  %18 = load i16, ptr %arrayidx.i, align 2, !tbaa !14
  %conv.i = trunc i16 %18 to i8
  %arrayidx2.i = getelementptr inbounds i8, ptr %call1.i, i64 9984
  store i8 %conv.i, ptr %arrayidx2.i, align 1, !tbaa !17
  %arrayidx.i.1 = getelementptr inbounds i16, ptr %call.i, i64 9985
  %19 = load i16, ptr %arrayidx.i.1, align 2, !tbaa !14
  %conv.i.1 = trunc i16 %19 to i8
  %arrayidx2.i.1 = getelementptr inbounds i8, ptr %call1.i, i64 9985
  store i8 %conv.i.1, ptr %arrayidx2.i.1, align 1, !tbaa !17
  %arrayidx.i.2 = getelementptr inbounds i16, ptr %call.i, i64 9986
  %20 = load i16, ptr %arrayidx.i.2, align 2, !tbaa !14
  %conv.i.2 = trunc i16 %20 to i8
  %arrayidx2.i.2 = getelementptr inbounds i8, ptr %call1.i, i64 9986
  store i8 %conv.i.2, ptr %arrayidx2.i.2, align 1, !tbaa !17
  %arrayidx.i.3 = getelementptr inbounds i16, ptr %call.i, i64 9987
  %21 = load i16, ptr %arrayidx.i.3, align 2, !tbaa !14
  %conv.i.3 = trunc i16 %21 to i8
  %arrayidx2.i.3 = getelementptr inbounds i8, ptr %call1.i, i64 9987
  store i8 %conv.i.3, ptr %arrayidx2.i.3, align 1, !tbaa !17
  %arrayidx.i.4 = getelementptr inbounds i16, ptr %call.i, i64 9988
  %22 = load i16, ptr %arrayidx.i.4, align 2, !tbaa !14
  %conv.i.4 = trunc i16 %22 to i8
  %arrayidx2.i.4 = getelementptr inbounds i8, ptr %call1.i, i64 9988
  store i8 %conv.i.4, ptr %arrayidx2.i.4, align 1, !tbaa !17
  %arrayidx.i.5 = getelementptr inbounds i16, ptr %call.i, i64 9989
  %23 = load i16, ptr %arrayidx.i.5, align 2, !tbaa !14
  %conv.i.5 = trunc i16 %23 to i8
  %arrayidx2.i.5 = getelementptr inbounds i8, ptr %call1.i, i64 9989
  store i8 %conv.i.5, ptr %arrayidx2.i.5, align 1, !tbaa !17
  %arrayidx.i.6 = getelementptr inbounds i16, ptr %call.i, i64 9990
  %24 = load i16, ptr %arrayidx.i.6, align 2, !tbaa !14
  %conv.i.6 = trunc i16 %24 to i8
  %arrayidx2.i.6 = getelementptr inbounds i8, ptr %call1.i, i64 9990
  store i8 %conv.i.6, ptr %arrayidx2.i.6, align 1, !tbaa !17
  %arrayidx.i.7 = getelementptr inbounds i16, ptr %call.i, i64 9991
  %25 = load i16, ptr %arrayidx.i.7, align 2, !tbaa !14
  %conv.i.7 = trunc i16 %25 to i8
  %arrayidx2.i.7 = getelementptr inbounds i8, ptr %call1.i, i64 9991
  store i8 %conv.i.7, ptr %arrayidx2.i.7, align 1, !tbaa !17
  %arrayidx.i.8 = getelementptr inbounds i16, ptr %call.i, i64 9992
  %26 = load i16, ptr %arrayidx.i.8, align 2, !tbaa !14
  %conv.i.8 = trunc i16 %26 to i8
  %arrayidx2.i.8 = getelementptr inbounds i8, ptr %call1.i, i64 9992
  store i8 %conv.i.8, ptr %arrayidx2.i.8, align 1, !tbaa !17
  %arrayidx.i.9 = getelementptr inbounds i16, ptr %call.i, i64 9993
  %27 = load i16, ptr %arrayidx.i.9, align 2, !tbaa !14
  %conv.i.9 = trunc i16 %27 to i8
  %arrayidx2.i.9 = getelementptr inbounds i8, ptr %call1.i, i64 9993
  store i8 %conv.i.9, ptr %arrayidx2.i.9, align 1, !tbaa !17
  %arrayidx.i.10 = getelementptr inbounds i16, ptr %call.i, i64 9994
  %28 = load i16, ptr %arrayidx.i.10, align 2, !tbaa !14
  %conv.i.10 = trunc i16 %28 to i8
  %arrayidx2.i.10 = getelementptr inbounds i8, ptr %call1.i, i64 9994
  store i8 %conv.i.10, ptr %arrayidx2.i.10, align 1, !tbaa !17
  %arrayidx.i.11 = getelementptr inbounds i16, ptr %call.i, i64 9995
  %29 = load i16, ptr %arrayidx.i.11, align 2, !tbaa !14
  %conv.i.11 = trunc i16 %29 to i8
  %arrayidx2.i.11 = getelementptr inbounds i8, ptr %call1.i, i64 9995
  store i8 %conv.i.11, ptr %arrayidx2.i.11, align 1, !tbaa !17
  %arrayidx.i.12 = getelementptr inbounds i16, ptr %call.i, i64 9996
  %30 = load i16, ptr %arrayidx.i.12, align 2, !tbaa !14
  %conv.i.12 = trunc i16 %30 to i8
  %arrayidx2.i.12 = getelementptr inbounds i8, ptr %call1.i, i64 9996
  store i8 %conv.i.12, ptr %arrayidx2.i.12, align 1, !tbaa !17
  %arrayidx.i.13 = getelementptr inbounds i16, ptr %call.i, i64 9997
  %31 = load i16, ptr %arrayidx.i.13, align 2, !tbaa !14
  %conv.i.13 = trunc i16 %31 to i8
  %arrayidx2.i.13 = getelementptr inbounds i8, ptr %call1.i, i64 9997
  store i8 %conv.i.13, ptr %arrayidx2.i.13, align 1, !tbaa !17
  %arrayidx.i.14 = getelementptr inbounds i16, ptr %call.i, i64 9998
  %32 = load i16, ptr %arrayidx.i.14, align 2, !tbaa !14
  %conv.i.14 = trunc i16 %32 to i8
  %arrayidx2.i.14 = getelementptr inbounds i8, ptr %call1.i, i64 9998
  store i8 %conv.i.14, ptr %arrayidx2.i.14, align 1, !tbaa !17
  %arrayidx.i.15 = getelementptr inbounds i16, ptr %call.i, i64 9999
  %33 = load i16, ptr %arrayidx.i.15, align 2, !tbaa !14
  %conv.i.15 = trunc i16 %33 to i8
  %arrayidx2.i.15 = getelementptr inbounds i8, ptr %call1.i, i64 9999
  store i8 %conv.i.15, ptr %arrayidx2.i.15, align 1, !tbaa !17
  br label %for.body.i

lpad.i:                                           ; preds = %entry
  %34 = landingpad { ptr, i32 }
          cleanup
  br label %_ZNSt3__110unique_ptrIA_tNS_14default_deleteIS1_EEED2B7v170000Ev.exit130.i

ehcleanup76.thread.i:                             ; preds = %invoke.cont.i
  %35 = landingpad { ptr, i32 }
          cleanup
  store ptr null, ptr %B.i, align 8, !tbaa !23
  br label %_ZNKSt3__114default_deleteIA_hEclB7v170000IhEENS2_20_EnableIfConvertibleIT_E4typeEPS5_.exit.i.i126.i

lpad5.loopexit.i:                                 ; preds = %for.body.i.i
  %lpad.loopexit.i = landingpad { ptr, i32 }
          cleanup
  br label %ehcleanup76.i

for.body.i:                                       ; preds = %for.inc.i.4, %for.body.i4
  %indvars.iv.i = phi i64 [ 0, %for.body.i4 ], [ %indvars.iv.next.i.4, %for.inc.i.4 ]
  %arrayidx.i101.i = getelementptr inbounds i8, ptr %call1.i, i64 %indvars.iv.i
  %36 = load i8, ptr %arrayidx.i101.i, align 1, !tbaa !17
  %arrayidx.i102.i = getelementptr inbounds i8, ptr %call4.i, i64 %indvars.iv.i
  %37 = load i8, ptr %arrayidx.i102.i, align 1, !tbaa !17
  %cmp25.not.i = icmp eq i8 %36, %37
  br i1 %cmp25.not.i, label %for.inc.i, label %if.then.i

if.then.i:                                        ; preds = %for.inc.i.3, %for.inc.i.2, %for.inc.i.1, %for.inc.i, %for.body.i
  %indvars.iv.i.lcssa = phi i64 [ %indvars.iv.i, %for.body.i ], [ %indvars.iv.next.i, %for.inc.i ], [ %indvars.iv.next.i.1, %for.inc.i.1 ], [ %indvars.iv.next.i.2, %for.inc.i.2 ], [ %indvars.iv.next.i.3, %for.inc.i.3 ]
  %conv.le.i = and i64 %indvars.iv.i.lcssa, 4294967295
  %arrayidx.i102.le.i = getelementptr inbounds i8, ptr %call4.i, i64 %conv.le.i
  %call1.i103.i = invoke noundef nonnull align 8 dereferenceable(8) ptr @_ZNSt3__124__put_character_sequenceB7v170000IcNS_11char_traitsIcEEEERNS_13basic_ostreamIT_T0_EES7_PKS4_m(ptr noundef nonnull align 8 dereferenceable(8) @_ZNSt3__14cerrE, ptr noundef nonnull @.str.145, i64 noundef 34)
          to label %invoke.cont26.i unwind label %lpad17.i

invoke.cont26.i:                                  ; preds = %if.then.i
  %arrayidx.i104.i = getelementptr inbounds i16, ptr %call.i, i64 %conv.le.i
  %38 = load i16, ptr %arrayidx.i104.i, align 2, !tbaa !14
  %call32.i = invoke noundef nonnull align 8 dereferenceable(8) ptr @_ZNSt3__113basic_ostreamIcNS_11char_traitsIcEEElsEt(ptr noundef nonnull align 8 dereferenceable(8) %call1.i103.i, i16 noundef zeroext %38)
          to label %invoke.cont31.i unwind label %lpad17.i

invoke.cont31.i:                                  ; preds = %invoke.cont26.i
  %call1.i106.i = invoke noundef nonnull align 8 dereferenceable(8) ptr @_ZNSt3__124__put_character_sequenceB7v170000IcNS_11char_traitsIcEEEERNS_13basic_ostreamIT_T0_EES7_PKS4_m(ptr noundef nonnull align 8 dereferenceable(8) %call32.i, ptr noundef nonnull @.str.146, i64 noundef 19)
          to label %invoke.cont33.i unwind label %lpad17.i

invoke.cont33.i:                                  ; preds = %invoke.cont31.i
  %arrayidx.i108.i = getelementptr inbounds i8, ptr %call1.i, i64 %conv.le.i
  %39 = load i8, ptr %arrayidx.i108.i, align 1, !tbaa !17
  call void @llvm.lifetime.start.p0(i64 1, ptr nonnull %__c.addr.i.i)
  store i8 %39, ptr %__c.addr.i.i, align 1, !tbaa !17
  %call.i109.i = invoke noundef nonnull align 8 dereferenceable(8) ptr @_ZNSt3__124__put_character_sequenceB7v170000IcNS_11char_traitsIcEEEERNS_13basic_ostreamIT_T0_EES7_PKS4_m(ptr noundef nonnull align 8 dereferenceable(8) %call1.i106.i, ptr noundef nonnull %__c.addr.i.i, i64 noundef 1)
          to label %invoke.cont38.i unwind label %lpad17.i

invoke.cont38.i:                                  ; preds = %invoke.cont33.i
  call void @llvm.lifetime.end.p0(i64 1, ptr nonnull %__c.addr.i.i)
  %call1.i111.i = invoke noundef nonnull align 8 dereferenceable(8) ptr @_ZNSt3__124__put_character_sequenceB7v170000IcNS_11char_traitsIcEEEERNS_13basic_ostreamIT_T0_EES7_PKS4_m(ptr noundef nonnull align 8 dereferenceable(8) %call.i109.i, ptr noundef nonnull @.str.147, i64 noundef 12)
          to label %invoke.cont40.i unwind label %lpad17.i

invoke.cont40.i:                                  ; preds = %invoke.cont38.i
  %40 = load i8, ptr %arrayidx.i102.le.i, align 1, !tbaa !17
  call void @llvm.lifetime.start.p0(i64 1, ptr nonnull %__c.addr.i114.i)
  store i8 %40, ptr %__c.addr.i114.i, align 1, !tbaa !17
  %call.i115.i = invoke noundef nonnull align 8 dereferenceable(8) ptr @_ZNSt3__124__put_character_sequenceB7v170000IcNS_11char_traitsIcEEEERNS_13basic_ostreamIT_T0_EES7_PKS4_m(ptr noundef nonnull align 8 dereferenceable(8) %call1.i111.i, ptr noundef nonnull %__c.addr.i114.i, i64 noundef 1)
          to label %invoke.cont45.i unwind label %lpad17.i

invoke.cont45.i:                                  ; preds = %invoke.cont40.i
  call void @llvm.lifetime.end.p0(i64 1, ptr nonnull %__c.addr.i114.i)
  %call48.i = invoke noundef nonnull align 8 dereferenceable(8) ptr @_ZNSt3__1lsB7v170000INS_11char_traitsIcEEEERNS_13basic_ostreamIcT_EES6_PKc(ptr noundef nonnull align 8 dereferenceable(8) %call.i115.i, ptr noundef nonnull @.str.148)
          to label %invoke.cont47.i unwind label %lpad17.i

invoke.cont47.i:                                  ; preds = %invoke.cont45.i
  call void @exit(i32 noundef 1) #14
  unreachable

lpad17.i:                                         ; preds = %invoke.cont45.i, %invoke.cont40.i, %invoke.cont38.i, %invoke.cont33.i, %invoke.cont31.i, %invoke.cont26.i, %if.then.i
  %41 = landingpad { ptr, i32 }
          cleanup
  br label %ehcleanup76.i

for.inc.i:                                        ; preds = %for.body.i
  %indvars.iv.next.i = add nuw nsw i64 %indvars.iv.i, 1
  %arrayidx.i101.i.1 = getelementptr inbounds i8, ptr %call1.i, i64 %indvars.iv.next.i
  %42 = load i8, ptr %arrayidx.i101.i.1, align 1, !tbaa !17
  %arrayidx.i102.i.1 = getelementptr inbounds i8, ptr %call4.i, i64 %indvars.iv.next.i
  %43 = load i8, ptr %arrayidx.i102.i.1, align 1, !tbaa !17
  %cmp25.not.i.1 = icmp eq i8 %42, %43
  br i1 %cmp25.not.i.1, label %for.inc.i.1, label %if.then.i

for.inc.i.1:                                      ; preds = %for.inc.i
  %indvars.iv.next.i.1 = add nuw nsw i64 %indvars.iv.i, 2
  %arrayidx.i101.i.2 = getelementptr inbounds i8, ptr %call1.i, i64 %indvars.iv.next.i.1
  %44 = load i8, ptr %arrayidx.i101.i.2, align 1, !tbaa !17
  %arrayidx.i102.i.2 = getelementptr inbounds i8, ptr %call4.i, i64 %indvars.iv.next.i.1
  %45 = load i8, ptr %arrayidx.i102.i.2, align 1, !tbaa !17
  %cmp25.not.i.2 = icmp eq i8 %44, %45
  br i1 %cmp25.not.i.2, label %for.inc.i.2, label %if.then.i

for.inc.i.2:                                      ; preds = %for.inc.i.1
  %indvars.iv.next.i.2 = add nuw nsw i64 %indvars.iv.i, 3
  %arrayidx.i101.i.3 = getelementptr inbounds i8, ptr %call1.i, i64 %indvars.iv.next.i.2
  %46 = load i8, ptr %arrayidx.i101.i.3, align 1, !tbaa !17
  %arrayidx.i102.i.3 = getelementptr inbounds i8, ptr %call4.i, i64 %indvars.iv.next.i.2
  %47 = load i8, ptr %arrayidx.i102.i.3, align 1, !tbaa !17
  %cmp25.not.i.3 = icmp eq i8 %46, %47
  br i1 %cmp25.not.i.3, label %for.inc.i.3, label %if.then.i

for.inc.i.3:                                      ; preds = %for.inc.i.2
  %indvars.iv.next.i.3 = add nuw nsw i64 %indvars.iv.i, 4
  %arrayidx.i101.i.4 = getelementptr inbounds i8, ptr %call1.i, i64 %indvars.iv.next.i.3
  %48 = load i8, ptr %arrayidx.i101.i.4, align 1, !tbaa !17
  %arrayidx.i102.i.4 = getelementptr inbounds i8, ptr %call4.i, i64 %indvars.iv.next.i.3
  %49 = load i8, ptr %arrayidx.i102.i.4, align 1, !tbaa !17
  %cmp25.not.i.4 = icmp eq i8 %48, %49
  br i1 %cmp25.not.i.4, label %for.inc.i.4, label %if.then.i

for.inc.i.4:                                      ; preds = %for.inc.i.3
  %indvars.iv.next.i.4 = add nuw nsw i64 %indvars.iv.i, 5
  %exitcond.not.i.4 = icmp eq i64 %indvars.iv.next.i.4, 10000
  br i1 %exitcond.not.i.4, label %invoke.cont50.i, label %for.body.i, !llvm.loop !24

invoke.cont50.i:                                  ; preds = %for.inc.i.4
  %error_occurred_.i.i.i = getelementptr inbounds %"class.benchmark::State", ptr %state, i64 0, i32 5
  %50 = load i8, ptr %error_occurred_.i.i.i, align 2, !tbaa !25, !range !40, !noundef !41
  %max_iterations.i.i.i = getelementptr inbounds %"class.benchmark::State", ptr %state, i64 0, i32 2
  %51 = load i64, ptr %max_iterations.i.i.i, align 8
  invoke void @_ZN9benchmark5State16StartKeepRunningEv(ptr noundef nonnull align 8 dereferenceable(120) %state)
          to label %for.cond55.preheader.i unwind label %lpad52.i

for.cond55.preheader.i:                           ; preds = %invoke.cont50.i
  %tobool.not.i.i.i = icmp ne i8 %50, 0
  %cmp.not.i.not148152.i = icmp eq i64 %51, 0
  %cmp.not.i.not148.i = select i1 %tobool.not.i.i.i, i1 true, i1 %cmp.not.i.not148152.i
  br i1 %cmp.not.i.not148.i, label %if.end.i.i, label %for.body59.i.preheader, !prof !42

for.body59.i.preheader:                           ; preds = %for.cond55.preheader.i
  %uglygep20 = getelementptr i8, ptr %call.i, i64 20000
  br label %for.body59.i

if.end.i.i:                                       ; preds = %invoke.cont68.i, %for.cond55.preheader.i
  invoke void @_ZN9benchmark5State17FinishKeepRunningEv(ptr noundef nonnull align 8 dereferenceable(120) %state)
          to label %_ZNSt3__110unique_ptrIA_hNS_14default_deleteIS1_EEED2B7v170000Ev.exit.i unwind label %lpad52.i

_ZNSt3__110unique_ptrIA_hNS_14default_deleteIS1_EEED2B7v170000Ev.exit.i: ; preds = %if.end.i.i
  call void @_ZdaPv(ptr noundef nonnull %call4.i) #15
  %52 = load ptr, ptr %B.i, align 8, !tbaa !23
  store ptr null, ptr %B.i, align 8, !tbaa !23
  %tobool.not.i.i118.i = icmp eq ptr %52, null
  br i1 %tobool.not.i.i118.i, label %_ZL28benchForTruncOrZextVecInLoopIthEvRN9benchmark5StateEPFvPKT_PT0_iE.exit, label %_ZNKSt3__114default_deleteIA_hEclB7v170000IhEENS2_20_EnableIfConvertibleIT_E4typeEPS5_.exit.i.i119.i

_ZNKSt3__114default_deleteIA_hEclB7v170000IhEENS2_20_EnableIfConvertibleIT_E4typeEPS5_.exit.i.i119.i: ; preds = %_ZNSt3__110unique_ptrIA_hNS_14default_deleteIS1_EEED2B7v170000Ev.exit.i
  call void @_ZdaPv(ptr noundef nonnull %52) #15
  br label %_ZL28benchForTruncOrZextVecInLoopIthEvRN9benchmark5StateEPFvPKT_PT0_iE.exit

lpad52.i:                                         ; preds = %if.end.i.i, %invoke.cont50.i
  %53 = landingpad { ptr, i32 }
          cleanup
  br label %ehcleanup76.i

for.body59.i:                                     ; preds = %for.body59.i.preheader, %invoke.cont68.i
  %__begin1.sroa.0.0149.i = phi i64 [ %dec.i.i, %invoke.cont68.i ], [ %51, %for.body59.i.preheader ]
  %54 = load i64, ptr %B.i, align 8
  call void asm sideeffect "", "=*r|m,0,~{memory},~{dirflag},~{fpsr},~{flags}"(ptr nonnull elementtype(%"class.std::__1::unique_ptr.55") %B.i, i64 %54) #13, !srcloc !43
  fence syncscope("singlethread") acq_rel
  %55 = load ptr, ptr %B.i, align 8, !tbaa !23
  %uglygep = getelementptr i8, ptr %55, i64 10000
  %bound0 = icmp ult ptr %55, %uglygep20
  %bound1 = icmp ult ptr %call.i, %uglygep
  %found.conflict = and i1 %bound0, %bound1
  br i1 %found.conflict, label %for.body.i11.preheader, label %vector.body26

vector.body26:                                    ; preds = %for.body59.i, %vector.body26
  %index27 = phi i64 [ %index.next32, %vector.body26 ], [ 0, %for.body59.i ]
  %56 = getelementptr inbounds i16, ptr %call.i, i64 %index27
  %wide.load28 = load <8 x i16>, ptr %56, align 2, !tbaa !14, !alias.scope !44
  %57 = getelementptr inbounds i16, ptr %56, i64 8
  %wide.load29 = load <8 x i16>, ptr %57, align 2, !tbaa !14, !alias.scope !44
  %58 = getelementptr inbounds i16, ptr %56, i64 16
  %wide.load30 = load <8 x i16>, ptr %58, align 2, !tbaa !14, !alias.scope !44
  %59 = getelementptr inbounds i16, ptr %56, i64 24
  %wide.load31 = load <8 x i16>, ptr %59, align 2, !tbaa !14, !alias.scope !44
  %60 = trunc <8 x i16> %wide.load28 to <8 x i8>
  %61 = trunc <8 x i16> %wide.load29 to <8 x i8>
  %62 = trunc <8 x i16> %wide.load30 to <8 x i8>
  %63 = trunc <8 x i16> %wide.load31 to <8 x i8>
  %64 = getelementptr inbounds i8, ptr %55, i64 %index27
  store <8 x i8> %60, ptr %64, align 1, !tbaa !17, !alias.scope !47, !noalias !44
  %65 = getelementptr inbounds i8, ptr %64, i64 8
  store <8 x i8> %61, ptr %65, align 1, !tbaa !17, !alias.scope !47, !noalias !44
  %66 = getelementptr inbounds i8, ptr %64, i64 16
  store <8 x i8> %62, ptr %66, align 1, !tbaa !17, !alias.scope !47, !noalias !44
  %67 = getelementptr inbounds i8, ptr %64, i64 24
  store <8 x i8> %63, ptr %67, align 1, !tbaa !17, !alias.scope !47, !noalias !44
  %index.next32 = add nuw i64 %index27, 32
  %68 = icmp eq i64 %index.next32, 9984
  br i1 %68, label %for.body.i11.preheader, label %vector.body26, !llvm.loop !49

for.body.i11.preheader:                           ; preds = %vector.body26, %for.body59.i
  %indvars.iv.i5.ph = phi i64 [ 0, %for.body59.i ], [ 9984, %vector.body26 ]
  br label %for.body.i11

for.body.i11:                                     ; preds = %for.body.i11, %for.body.i11.preheader
  %indvars.iv.i5 = phi i64 [ %indvars.iv.i5.ph, %for.body.i11.preheader ], [ %indvars.iv.next.i9.3, %for.body.i11 ]
  %arrayidx.i6 = getelementptr inbounds i16, ptr %call.i, i64 %indvars.iv.i5
  %69 = load i16, ptr %arrayidx.i6, align 2, !tbaa !14
  %conv.i7 = trunc i16 %69 to i8
  %arrayidx2.i8 = getelementptr inbounds i8, ptr %55, i64 %indvars.iv.i5
  store i8 %conv.i7, ptr %arrayidx2.i8, align 1, !tbaa !17
  %indvars.iv.next.i9 = or i64 %indvars.iv.i5, 1
  %arrayidx.i6.1 = getelementptr inbounds i16, ptr %call.i, i64 %indvars.iv.next.i9
  %70 = load i16, ptr %arrayidx.i6.1, align 2, !tbaa !14
  %conv.i7.1 = trunc i16 %70 to i8
  %arrayidx2.i8.1 = getelementptr inbounds i8, ptr %55, i64 %indvars.iv.next.i9
  store i8 %conv.i7.1, ptr %arrayidx2.i8.1, align 1, !tbaa !17
  %indvars.iv.next.i9.1 = or i64 %indvars.iv.i5, 2
  %arrayidx.i6.2 = getelementptr inbounds i16, ptr %call.i, i64 %indvars.iv.next.i9.1
  %71 = load i16, ptr %arrayidx.i6.2, align 2, !tbaa !14
  %conv.i7.2 = trunc i16 %71 to i8
  %arrayidx2.i8.2 = getelementptr inbounds i8, ptr %55, i64 %indvars.iv.next.i9.1
  store i8 %conv.i7.2, ptr %arrayidx2.i8.2, align 1, !tbaa !17
  %indvars.iv.next.i9.2 = or i64 %indvars.iv.i5, 3
  %arrayidx.i6.3 = getelementptr inbounds i16, ptr %call.i, i64 %indvars.iv.next.i9.2
  %72 = load i16, ptr %arrayidx.i6.3, align 2, !tbaa !14
  %conv.i7.3 = trunc i16 %72 to i8
  %arrayidx2.i8.3 = getelementptr inbounds i8, ptr %55, i64 %indvars.iv.next.i9.2
  store i8 %conv.i7.3, ptr %arrayidx2.i8.3, align 1, !tbaa !17
  %indvars.iv.next.i9.3 = add nuw nsw i64 %indvars.iv.i5, 4
  %exitcond.not.i10.3 = icmp eq i64 %indvars.iv.next.i9.3, 10000
  br i1 %exitcond.not.i10.3, label %invoke.cont68.i, label %for.body.i11, !llvm.loop !50

invoke.cont68.i:                                  ; preds = %for.body.i11
  %dec.i.i = add i64 %__begin1.sroa.0.0149.i, -1
  %cmp.not.i.not.i = icmp eq i64 %dec.i.i, 0
  br i1 %cmp.not.i.not.i, label %if.end.i.i, label %for.body59.i, !prof !42

ehcleanup76.i:                                    ; preds = %lpad52.i, %lpad17.i, %lpad5.loopexit.i
  %.pn90.i = phi { ptr, i32 } [ %41, %lpad17.i ], [ %53, %lpad52.i ], [ %lpad.loopexit.i, %lpad5.loopexit.i ]
  call void @_ZdaPv(ptr noundef nonnull %call4.i) #15
  %.pr.i = load ptr, ptr %B.i, align 8, !tbaa !23
  store ptr null, ptr %B.i, align 8, !tbaa !23
  %tobool.not.i.i125.i = icmp eq ptr %.pr.i, null
  br i1 %tobool.not.i.i125.i, label %_ZNSt3__110unique_ptrIA_tNS_14default_deleteIS1_EEED2B7v170000Ev.exit130.i, label %_ZNKSt3__114default_deleteIA_hEclB7v170000IhEENS2_20_EnableIfConvertibleIT_E4typeEPS5_.exit.i.i126.i

_ZNKSt3__114default_deleteIA_hEclB7v170000IhEENS2_20_EnableIfConvertibleIT_E4typeEPS5_.exit.i.i126.i: ; preds = %ehcleanup76.i, %ehcleanup76.thread.i
  %.pn90.pn144.i = phi { ptr, i32 } [ %35, %ehcleanup76.thread.i ], [ %.pn90.i, %ehcleanup76.i ]
  %73 = phi ptr [ %call1.i, %ehcleanup76.thread.i ], [ %.pr.i, %ehcleanup76.i ]
  call void @_ZdaPv(ptr noundef nonnull %73) #15
  br label %_ZNSt3__110unique_ptrIA_tNS_14default_deleteIS1_EEED2B7v170000Ev.exit130.i

_ZNSt3__110unique_ptrIA_tNS_14default_deleteIS1_EEED2B7v170000Ev.exit130.i: ; preds = %_ZNKSt3__114default_deleteIA_hEclB7v170000IhEENS2_20_EnableIfConvertibleIT_E4typeEPS5_.exit.i.i126.i, %ehcleanup76.i, %lpad.i
  %.pn90.pn.pn.i = phi { ptr, i32 } [ %34, %lpad.i ], [ %.pn90.i, %ehcleanup76.i ], [ %.pn90.pn144.i, %_ZNKSt3__114default_deleteIA_hEclB7v170000IhEENS2_20_EnableIfConvertibleIT_E4typeEPS5_.exit.i.i126.i ]
  call void @llvm.lifetime.end.p0(i64 8, ptr nonnull %B.i) #13
  call void @_ZdaPv(ptr noundef nonnull %call.i) #15
  resume { ptr, i32 } %.pn90.pn.pn.i

_ZL28benchForTruncOrZextVecInLoopIthEvRN9benchmark5StateEPFvPKT_PT0_iE.exit: ; preds = %_ZNSt3__110unique_ptrIA_hNS_14default_deleteIS1_EEED2B7v170000Ev.exit.i, %_ZNKSt3__114default_deleteIA_hEclB7v170000IhEENS2_20_EnableIfConvertibleIT_E4typeEPS5_.exit.i.i119.i
  call void @llvm.lifetime.end.p0(i64 8, ptr nonnull %B.i) #13
  call void @_ZdaPv(ptr noundef nonnull %call.i) #15
  ret void
}

declare noundef ptr @_ZN9benchmark8internal25RegisterBenchmarkInternalEPNS0_9BenchmarkE(ptr noundef) local_unnamed_addr #0

; Function Attrs: nobuiltin allocsize(0)
declare noundef nonnull ptr @_Znwm(i64 noundef) local_unnamed_addr #2

declare i32 @__gxx_personality_v0(...)

; Function Attrs: nobuiltin nounwind
declare void @_ZdlPv(ptr noundef) local_unnamed_addr #3

; Function Attrs: uwtable
define dso_local void @_Z61benchForTruncOrZextVecInLoopWithVW16From_uint16_t_To_uint8_t_RN9benchmark5StateE(ptr noundef nonnull align 8 dereferenceable(120) %state) #1 personality ptr @__gxx_personality_v0 {
entry:
  %__c.addr.i114.i = alloca i8, align 1
  %__c.addr.i.i = alloca i8, align 1
  %distrib.i.i = alloca %"class.std::__1::uniform_int_distribution", align 2
  %B.i = alloca %"class.std::__1::unique_ptr.55", align 8
  %call.i = tail call noalias noundef nonnull dereferenceable(20000) ptr @_Znam(i64 noundef 20000) #12
  call void @llvm.lifetime.start.p0(i64 8, ptr nonnull %B.i) #13
  %call1.i = invoke noalias noundef nonnull dereferenceable(10000) ptr @_Znam(i64 noundef 10000) #12
          to label %invoke.cont.i unwind label %lpad.i

invoke.cont.i:                                    ; preds = %entry
  store ptr %call1.i, ptr %B.i, align 8, !tbaa !5
  %call4.i = invoke noalias noundef nonnull dereferenceable(10000) ptr @_Znam(i64 noundef 10000) #12
          to label %invoke.cont3.i unwind label %ehcleanup76.thread.i

invoke.cont3.i:                                   ; preds = %invoke.cont.i
  call void @llvm.lifetime.start.p0(i64 4, ptr nonnull %distrib.i.i) #13
  store i16 0, ptr %distrib.i.i, align 2, !tbaa !10
  %__b_.i.i.i.i = getelementptr inbounds %"class.std::__1::uniform_int_distribution<unsigned short>::param_type", ptr %distrib.i.i, i64 0, i32 1
  store i16 -1, ptr %__b_.i.i.i.i, align 2, !tbaa !13
  br label %for.body.i.i

for.body.i.i:                                     ; preds = %call.i.i.noexc.i, %invoke.cont3.i
  %indvars.iv.i.i = phi i64 [ 0, %invoke.cont3.i ], [ %indvars.iv.next.i.i, %call.i.i.noexc.i ]
  %call.i.i96.i = invoke noundef zeroext i16 @_ZNSt3__124uniform_int_distributionItEclINS_23mersenne_twister_engineImLm32ELm624ELm397ELm31ELm2567483615ELm11ELm4294967295ELm7ELm2636928640ELm15ELm4022730752ELm18ELm1812433253EEEEEtRT_RKNS1_10param_typeE(ptr noundef nonnull align 2 dereferenceable(4) %distrib.i.i, ptr noundef nonnull align 8 dereferenceable(5000) @_ZL3rng, ptr noundef nonnull align 2 dereferenceable(4) %distrib.i.i)
          to label %call.i.i.noexc.i unwind label %lpad5.loopexit.i

call.i.i.noexc.i:                                 ; preds = %for.body.i.i
  %arrayidx.i.i.i = getelementptr inbounds i16, ptr %call.i, i64 %indvars.iv.i.i
  store i16 %call.i.i96.i, ptr %arrayidx.i.i.i, align 2, !tbaa !14
  %indvars.iv.next.i.i = add nuw nsw i64 %indvars.iv.i.i, 1
  %exitcond.not.i.i = icmp eq i64 %indvars.iv.next.i.i, 10000
  br i1 %exitcond.not.i.i, label %invoke.cont6.i, label %for.body.i.i, !llvm.loop !15

invoke.cont6.i:                                   ; preds = %call.i.i.noexc.i
  call void @llvm.lifetime.end.p0(i64 4, ptr nonnull %distrib.i.i) #13
  br label %for.body.i100.i

for.body.i100.i:                                  ; preds = %for.body.i100.i, %invoke.cont6.i
  %indvars.iv.i97.i = phi i64 [ 0, %invoke.cont6.i ], [ %indvars.iv.next.i98.i.4, %for.body.i100.i ]
  %arrayidx.i.i = getelementptr inbounds i16, ptr %call.i, i64 %indvars.iv.i97.i
  %0 = load i16, ptr %arrayidx.i.i, align 2, !tbaa !14
  %conv.i.i = trunc i16 %0 to i8
  %arrayidx2.i.i = getelementptr inbounds i8, ptr %call4.i, i64 %indvars.iv.i97.i
  store i8 %conv.i.i, ptr %arrayidx2.i.i, align 1, !tbaa !17
  %indvars.iv.next.i98.i = add nuw nsw i64 %indvars.iv.i97.i, 1
  %arrayidx.i.i.1 = getelementptr inbounds i16, ptr %call.i, i64 %indvars.iv.next.i98.i
  %1 = load i16, ptr %arrayidx.i.i.1, align 2, !tbaa !14
  %conv.i.i.1 = trunc i16 %1 to i8
  %arrayidx2.i.i.1 = getelementptr inbounds i8, ptr %call4.i, i64 %indvars.iv.next.i98.i
  store i8 %conv.i.i.1, ptr %arrayidx2.i.i.1, align 1, !tbaa !17
  %indvars.iv.next.i98.i.1 = add nuw nsw i64 %indvars.iv.i97.i, 2
  %arrayidx.i.i.2 = getelementptr inbounds i16, ptr %call.i, i64 %indvars.iv.next.i98.i.1
  %2 = load i16, ptr %arrayidx.i.i.2, align 2, !tbaa !14
  %conv.i.i.2 = trunc i16 %2 to i8
  %arrayidx2.i.i.2 = getelementptr inbounds i8, ptr %call4.i, i64 %indvars.iv.next.i98.i.1
  store i8 %conv.i.i.2, ptr %arrayidx2.i.i.2, align 1, !tbaa !17
  %indvars.iv.next.i98.i.2 = add nuw nsw i64 %indvars.iv.i97.i, 3
  %arrayidx.i.i.3 = getelementptr inbounds i16, ptr %call.i, i64 %indvars.iv.next.i98.i.2
  %3 = load i16, ptr %arrayidx.i.i.3, align 2, !tbaa !14
  %conv.i.i.3 = trunc i16 %3 to i8
  %arrayidx2.i.i.3 = getelementptr inbounds i8, ptr %call4.i, i64 %indvars.iv.next.i98.i.2
  store i8 %conv.i.i.3, ptr %arrayidx2.i.i.3, align 1, !tbaa !17
  %indvars.iv.next.i98.i.3 = add nuw nsw i64 %indvars.iv.i97.i, 4
  %arrayidx.i.i.4 = getelementptr inbounds i16, ptr %call.i, i64 %indvars.iv.next.i98.i.3
  %4 = load i16, ptr %arrayidx.i.i.4, align 2, !tbaa !14
  %conv.i.i.4 = trunc i16 %4 to i8
  %arrayidx2.i.i.4 = getelementptr inbounds i8, ptr %call4.i, i64 %indvars.iv.next.i98.i.3
  store i8 %conv.i.i.4, ptr %arrayidx2.i.i.4, align 1, !tbaa !17
  %indvars.iv.next.i98.i.4 = add nuw nsw i64 %indvars.iv.i97.i, 5
  %exitcond.not.i99.i.4 = icmp eq i64 %indvars.iv.next.i98.i.4, 10000
  br i1 %exitcond.not.i99.i.4, label %vector.body, label %for.body.i100.i, !llvm.loop !18

vector.body:                                      ; preds = %for.body.i100.i, %vector.body
  %index = phi i64 [ %index.next, %vector.body ], [ 0, %for.body.i100.i ]
  %5 = getelementptr inbounds i16, ptr %call.i, i64 %index
  %wide.load = load <16 x i16>, ptr %5, align 2, !tbaa !14
  %6 = getelementptr inbounds i16, ptr %5, i64 16
  %wide.load17 = load <16 x i16>, ptr %6, align 2, !tbaa !14
  %7 = getelementptr inbounds i16, ptr %5, i64 32
  %wide.load18 = load <16 x i16>, ptr %7, align 2, !tbaa !14
  %8 = getelementptr inbounds i16, ptr %5, i64 48
  %wide.load19 = load <16 x i16>, ptr %8, align 2, !tbaa !14
  %9 = trunc <16 x i16> %wide.load to <16 x i8>
  %10 = trunc <16 x i16> %wide.load17 to <16 x i8>
  %11 = trunc <16 x i16> %wide.load18 to <16 x i8>
  %12 = trunc <16 x i16> %wide.load19 to <16 x i8>
  %13 = getelementptr inbounds i8, ptr %call1.i, i64 %index
  store <16 x i8> %9, ptr %13, align 1, !tbaa !17
  %14 = getelementptr inbounds i8, ptr %13, i64 16
  store <16 x i8> %10, ptr %14, align 1, !tbaa !17
  %15 = getelementptr inbounds i8, ptr %13, i64 32
  store <16 x i8> %11, ptr %15, align 1, !tbaa !17
  %16 = getelementptr inbounds i8, ptr %13, i64 48
  store <16 x i8> %12, ptr %16, align 1, !tbaa !17
  %index.next = add nuw i64 %index, 64
  %17 = icmp eq i64 %index.next, 9984
  br i1 %17, label %for.body.i4, label %vector.body, !llvm.loop !51

for.body.i4:                                      ; preds = %vector.body
  %arrayidx.i = getelementptr inbounds i16, ptr %call.i, i64 9984
  %18 = load i16, ptr %arrayidx.i, align 2, !tbaa !14
  %conv.i = trunc i16 %18 to i8
  %arrayidx2.i = getelementptr inbounds i8, ptr %call1.i, i64 9984
  store i8 %conv.i, ptr %arrayidx2.i, align 1, !tbaa !17
  %arrayidx.i.1 = getelementptr inbounds i16, ptr %call.i, i64 9985
  %19 = load i16, ptr %arrayidx.i.1, align 2, !tbaa !14
  %conv.i.1 = trunc i16 %19 to i8
  %arrayidx2.i.1 = getelementptr inbounds i8, ptr %call1.i, i64 9985
  store i8 %conv.i.1, ptr %arrayidx2.i.1, align 1, !tbaa !17
  %arrayidx.i.2 = getelementptr inbounds i16, ptr %call.i, i64 9986
  %20 = load i16, ptr %arrayidx.i.2, align 2, !tbaa !14
  %conv.i.2 = trunc i16 %20 to i8
  %arrayidx2.i.2 = getelementptr inbounds i8, ptr %call1.i, i64 9986
  store i8 %conv.i.2, ptr %arrayidx2.i.2, align 1, !tbaa !17
  %arrayidx.i.3 = getelementptr inbounds i16, ptr %call.i, i64 9987
  %21 = load i16, ptr %arrayidx.i.3, align 2, !tbaa !14
  %conv.i.3 = trunc i16 %21 to i8
  %arrayidx2.i.3 = getelementptr inbounds i8, ptr %call1.i, i64 9987
  store i8 %conv.i.3, ptr %arrayidx2.i.3, align 1, !tbaa !17
  %arrayidx.i.4 = getelementptr inbounds i16, ptr %call.i, i64 9988
  %22 = load i16, ptr %arrayidx.i.4, align 2, !tbaa !14
  %conv.i.4 = trunc i16 %22 to i8
  %arrayidx2.i.4 = getelementptr inbounds i8, ptr %call1.i, i64 9988
  store i8 %conv.i.4, ptr %arrayidx2.i.4, align 1, !tbaa !17
  %arrayidx.i.5 = getelementptr inbounds i16, ptr %call.i, i64 9989
  %23 = load i16, ptr %arrayidx.i.5, align 2, !tbaa !14
  %conv.i.5 = trunc i16 %23 to i8
  %arrayidx2.i.5 = getelementptr inbounds i8, ptr %call1.i, i64 9989
  store i8 %conv.i.5, ptr %arrayidx2.i.5, align 1, !tbaa !17
  %arrayidx.i.6 = getelementptr inbounds i16, ptr %call.i, i64 9990
  %24 = load i16, ptr %arrayidx.i.6, align 2, !tbaa !14
  %conv.i.6 = trunc i16 %24 to i8
  %arrayidx2.i.6 = getelementptr inbounds i8, ptr %call1.i, i64 9990
  store i8 %conv.i.6, ptr %arrayidx2.i.6, align 1, !tbaa !17
  %arrayidx.i.7 = getelementptr inbounds i16, ptr %call.i, i64 9991
  %25 = load i16, ptr %arrayidx.i.7, align 2, !tbaa !14
  %conv.i.7 = trunc i16 %25 to i8
  %arrayidx2.i.7 = getelementptr inbounds i8, ptr %call1.i, i64 9991
  store i8 %conv.i.7, ptr %arrayidx2.i.7, align 1, !tbaa !17
  %arrayidx.i.8 = getelementptr inbounds i16, ptr %call.i, i64 9992
  %26 = load i16, ptr %arrayidx.i.8, align 2, !tbaa !14
  %conv.i.8 = trunc i16 %26 to i8
  %arrayidx2.i.8 = getelementptr inbounds i8, ptr %call1.i, i64 9992
  store i8 %conv.i.8, ptr %arrayidx2.i.8, align 1, !tbaa !17
  %arrayidx.i.9 = getelementptr inbounds i16, ptr %call.i, i64 9993
  %27 = load i16, ptr %arrayidx.i.9, align 2, !tbaa !14
  %conv.i.9 = trunc i16 %27 to i8
  %arrayidx2.i.9 = getelementptr inbounds i8, ptr %call1.i, i64 9993
  store i8 %conv.i.9, ptr %arrayidx2.i.9, align 1, !tbaa !17
  %arrayidx.i.10 = getelementptr inbounds i16, ptr %call.i, i64 9994
  %28 = load i16, ptr %arrayidx.i.10, align 2, !tbaa !14
  %conv.i.10 = trunc i16 %28 to i8
  %arrayidx2.i.10 = getelementptr inbounds i8, ptr %call1.i, i64 9994
  store i8 %conv.i.10, ptr %arrayidx2.i.10, align 1, !tbaa !17
  %arrayidx.i.11 = getelementptr inbounds i16, ptr %call.i, i64 9995
  %29 = load i16, ptr %arrayidx.i.11, align 2, !tbaa !14
  %conv.i.11 = trunc i16 %29 to i8
  %arrayidx2.i.11 = getelementptr inbounds i8, ptr %call1.i, i64 9995
  store i8 %conv.i.11, ptr %arrayidx2.i.11, align 1, !tbaa !17
  %arrayidx.i.12 = getelementptr inbounds i16, ptr %call.i, i64 9996
  %30 = load i16, ptr %arrayidx.i.12, align 2, !tbaa !14
  %conv.i.12 = trunc i16 %30 to i8
  %arrayidx2.i.12 = getelementptr inbounds i8, ptr %call1.i, i64 9996
  store i8 %conv.i.12, ptr %arrayidx2.i.12, align 1, !tbaa !17
  %arrayidx.i.13 = getelementptr inbounds i16, ptr %call.i, i64 9997
  %31 = load i16, ptr %arrayidx.i.13, align 2, !tbaa !14
  %conv.i.13 = trunc i16 %31 to i8
  %arrayidx2.i.13 = getelementptr inbounds i8, ptr %call1.i, i64 9997
  store i8 %conv.i.13, ptr %arrayidx2.i.13, align 1, !tbaa !17
  %arrayidx.i.14 = getelementptr inbounds i16, ptr %call.i, i64 9998
  %32 = load i16, ptr %arrayidx.i.14, align 2, !tbaa !14
  %conv.i.14 = trunc i16 %32 to i8
  %arrayidx2.i.14 = getelementptr inbounds i8, ptr %call1.i, i64 9998
  store i8 %conv.i.14, ptr %arrayidx2.i.14, align 1, !tbaa !17
  %arrayidx.i.15 = getelementptr inbounds i16, ptr %call.i, i64 9999
  %33 = load i16, ptr %arrayidx.i.15, align 2, !tbaa !14
  %conv.i.15 = trunc i16 %33 to i8
  %arrayidx2.i.15 = getelementptr inbounds i8, ptr %call1.i, i64 9999
  store i8 %conv.i.15, ptr %arrayidx2.i.15, align 1, !tbaa !17
  br label %for.body.i

lpad.i:                                           ; preds = %entry
  %34 = landingpad { ptr, i32 }
          cleanup
  br label %_ZNSt3__110unique_ptrIA_tNS_14default_deleteIS1_EEED2B7v170000Ev.exit130.i

ehcleanup76.thread.i:                             ; preds = %invoke.cont.i
  %35 = landingpad { ptr, i32 }
          cleanup
  store ptr null, ptr %B.i, align 8, !tbaa !23
  br label %_ZNKSt3__114default_deleteIA_hEclB7v170000IhEENS2_20_EnableIfConvertibleIT_E4typeEPS5_.exit.i.i126.i

lpad5.loopexit.i:                                 ; preds = %for.body.i.i
  %lpad.loopexit.i = landingpad { ptr, i32 }
          cleanup
  br label %ehcleanup76.i

for.body.i:                                       ; preds = %for.inc.i.4, %for.body.i4
  %indvars.iv.i = phi i64 [ 0, %for.body.i4 ], [ %indvars.iv.next.i.4, %for.inc.i.4 ]
  %arrayidx.i101.i = getelementptr inbounds i8, ptr %call1.i, i64 %indvars.iv.i
  %36 = load i8, ptr %arrayidx.i101.i, align 1, !tbaa !17
  %arrayidx.i102.i = getelementptr inbounds i8, ptr %call4.i, i64 %indvars.iv.i
  %37 = load i8, ptr %arrayidx.i102.i, align 1, !tbaa !17
  %cmp25.not.i = icmp eq i8 %36, %37
  br i1 %cmp25.not.i, label %for.inc.i, label %if.then.i

if.then.i:                                        ; preds = %for.inc.i.3, %for.inc.i.2, %for.inc.i.1, %for.inc.i, %for.body.i
  %indvars.iv.i.lcssa = phi i64 [ %indvars.iv.i, %for.body.i ], [ %indvars.iv.next.i, %for.inc.i ], [ %indvars.iv.next.i.1, %for.inc.i.1 ], [ %indvars.iv.next.i.2, %for.inc.i.2 ], [ %indvars.iv.next.i.3, %for.inc.i.3 ]
  %conv.le.i = and i64 %indvars.iv.i.lcssa, 4294967295
  %arrayidx.i102.le.i = getelementptr inbounds i8, ptr %call4.i, i64 %conv.le.i
  %call1.i103.i = invoke noundef nonnull align 8 dereferenceable(8) ptr @_ZNSt3__124__put_character_sequenceB7v170000IcNS_11char_traitsIcEEEERNS_13basic_ostreamIT_T0_EES7_PKS4_m(ptr noundef nonnull align 8 dereferenceable(8) @_ZNSt3__14cerrE, ptr noundef nonnull @.str.145, i64 noundef 34)
          to label %invoke.cont26.i unwind label %lpad17.i

invoke.cont26.i:                                  ; preds = %if.then.i
  %arrayidx.i104.i = getelementptr inbounds i16, ptr %call.i, i64 %conv.le.i
  %38 = load i16, ptr %arrayidx.i104.i, align 2, !tbaa !14
  %call32.i = invoke noundef nonnull align 8 dereferenceable(8) ptr @_ZNSt3__113basic_ostreamIcNS_11char_traitsIcEEElsEt(ptr noundef nonnull align 8 dereferenceable(8) %call1.i103.i, i16 noundef zeroext %38)
          to label %invoke.cont31.i unwind label %lpad17.i

invoke.cont31.i:                                  ; preds = %invoke.cont26.i
  %call1.i106.i = invoke noundef nonnull align 8 dereferenceable(8) ptr @_ZNSt3__124__put_character_sequenceB7v170000IcNS_11char_traitsIcEEEERNS_13basic_ostreamIT_T0_EES7_PKS4_m(ptr noundef nonnull align 8 dereferenceable(8) %call32.i, ptr noundef nonnull @.str.146, i64 noundef 19)
          to label %invoke.cont33.i unwind label %lpad17.i

invoke.cont33.i:                                  ; preds = %invoke.cont31.i
  %arrayidx.i108.i = getelementptr inbounds i8, ptr %call1.i, i64 %conv.le.i
  %39 = load i8, ptr %arrayidx.i108.i, align 1, !tbaa !17
  call void @llvm.lifetime.start.p0(i64 1, ptr nonnull %__c.addr.i.i)
  store i8 %39, ptr %__c.addr.i.i, align 1, !tbaa !17
  %call.i109.i = invoke noundef nonnull align 8 dereferenceable(8) ptr @_ZNSt3__124__put_character_sequenceB7v170000IcNS_11char_traitsIcEEEERNS_13basic_ostreamIT_T0_EES7_PKS4_m(ptr noundef nonnull align 8 dereferenceable(8) %call1.i106.i, ptr noundef nonnull %__c.addr.i.i, i64 noundef 1)
          to label %invoke.cont38.i unwind label %lpad17.i

invoke.cont38.i:                                  ; preds = %invoke.cont33.i
  call void @llvm.lifetime.end.p0(i64 1, ptr nonnull %__c.addr.i.i)
  %call1.i111.i = invoke noundef nonnull align 8 dereferenceable(8) ptr @_ZNSt3__124__put_character_sequenceB7v170000IcNS_11char_traitsIcEEEERNS_13basic_ostreamIT_T0_EES7_PKS4_m(ptr noundef nonnull align 8 dereferenceable(8) %call.i109.i, ptr noundef nonnull @.str.147, i64 noundef 12)
          to label %invoke.cont40.i unwind label %lpad17.i

invoke.cont40.i:                                  ; preds = %invoke.cont38.i
  %40 = load i8, ptr %arrayidx.i102.le.i, align 1, !tbaa !17
  call void @llvm.lifetime.start.p0(i64 1, ptr nonnull %__c.addr.i114.i)
  store i8 %40, ptr %__c.addr.i114.i, align 1, !tbaa !17
  %call.i115.i = invoke noundef nonnull align 8 dereferenceable(8) ptr @_ZNSt3__124__put_character_sequenceB7v170000IcNS_11char_traitsIcEEEERNS_13basic_ostreamIT_T0_EES7_PKS4_m(ptr noundef nonnull align 8 dereferenceable(8) %call1.i111.i, ptr noundef nonnull %__c.addr.i114.i, i64 noundef 1)
          to label %invoke.cont45.i unwind label %lpad17.i

invoke.cont45.i:                                  ; preds = %invoke.cont40.i
  call void @llvm.lifetime.end.p0(i64 1, ptr nonnull %__c.addr.i114.i)
  %call48.i = invoke noundef nonnull align 8 dereferenceable(8) ptr @_ZNSt3__1lsB7v170000INS_11char_traitsIcEEEERNS_13basic_ostreamIcT_EES6_PKc(ptr noundef nonnull align 8 dereferenceable(8) %call.i115.i, ptr noundef nonnull @.str.148)
          to label %invoke.cont47.i unwind label %lpad17.i

invoke.cont47.i:                                  ; preds = %invoke.cont45.i
  call void @exit(i32 noundef 1) #14
  unreachable

lpad17.i:                                         ; preds = %invoke.cont45.i, %invoke.cont40.i, %invoke.cont38.i, %invoke.cont33.i, %invoke.cont31.i, %invoke.cont26.i, %if.then.i
  %41 = landingpad { ptr, i32 }
          cleanup
  br label %ehcleanup76.i

for.inc.i:                                        ; preds = %for.body.i
  %indvars.iv.next.i = add nuw nsw i64 %indvars.iv.i, 1
  %arrayidx.i101.i.1 = getelementptr inbounds i8, ptr %call1.i, i64 %indvars.iv.next.i
  %42 = load i8, ptr %arrayidx.i101.i.1, align 1, !tbaa !17
  %arrayidx.i102.i.1 = getelementptr inbounds i8, ptr %call4.i, i64 %indvars.iv.next.i
  %43 = load i8, ptr %arrayidx.i102.i.1, align 1, !tbaa !17
  %cmp25.not.i.1 = icmp eq i8 %42, %43
  br i1 %cmp25.not.i.1, label %for.inc.i.1, label %if.then.i

for.inc.i.1:                                      ; preds = %for.inc.i
  %indvars.iv.next.i.1 = add nuw nsw i64 %indvars.iv.i, 2
  %arrayidx.i101.i.2 = getelementptr inbounds i8, ptr %call1.i, i64 %indvars.iv.next.i.1
  %44 = load i8, ptr %arrayidx.i101.i.2, align 1, !tbaa !17
  %arrayidx.i102.i.2 = getelementptr inbounds i8, ptr %call4.i, i64 %indvars.iv.next.i.1
  %45 = load i8, ptr %arrayidx.i102.i.2, align 1, !tbaa !17
  %cmp25.not.i.2 = icmp eq i8 %44, %45
  br i1 %cmp25.not.i.2, label %for.inc.i.2, label %if.then.i

for.inc.i.2:                                      ; preds = %for.inc.i.1
  %indvars.iv.next.i.2 = add nuw nsw i64 %indvars.iv.i, 3
  %arrayidx.i101.i.3 = getelementptr inbounds i8, ptr %call1.i, i64 %indvars.iv.next.i.2
  %46 = load i8, ptr %arrayidx.i101.i.3, align 1, !tbaa !17
  %arrayidx.i102.i.3 = getelementptr inbounds i8, ptr %call4.i, i64 %indvars.iv.next.i.2
  %47 = load i8, ptr %arrayidx.i102.i.3, align 1, !tbaa !17
  %cmp25.not.i.3 = icmp eq i8 %46, %47
  br i1 %cmp25.not.i.3, label %for.inc.i.3, label %if.then.i

for.inc.i.3:                                      ; preds = %for.inc.i.2
  %indvars.iv.next.i.3 = add nuw nsw i64 %indvars.iv.i, 4
  %arrayidx.i101.i.4 = getelementptr inbounds i8, ptr %call1.i, i64 %indvars.iv.next.i.3
  %48 = load i8, ptr %arrayidx.i101.i.4, align 1, !tbaa !17
  %arrayidx.i102.i.4 = getelementptr inbounds i8, ptr %call4.i, i64 %indvars.iv.next.i.3
  %49 = load i8, ptr %arrayidx.i102.i.4, align 1, !tbaa !17
  %cmp25.not.i.4 = icmp eq i8 %48, %49
  br i1 %cmp25.not.i.4, label %for.inc.i.4, label %if.then.i

for.inc.i.4:                                      ; preds = %for.inc.i.3
  %indvars.iv.next.i.4 = add nuw nsw i64 %indvars.iv.i, 5
  %exitcond.not.i.4 = icmp eq i64 %indvars.iv.next.i.4, 10000
  br i1 %exitcond.not.i.4, label %invoke.cont50.i, label %for.body.i, !llvm.loop !24

invoke.cont50.i:                                  ; preds = %for.inc.i.4
  %error_occurred_.i.i.i = getelementptr inbounds %"class.benchmark::State", ptr %state, i64 0, i32 5
  %50 = load i8, ptr %error_occurred_.i.i.i, align 2, !tbaa !25, !range !40, !noundef !41
  %max_iterations.i.i.i = getelementptr inbounds %"class.benchmark::State", ptr %state, i64 0, i32 2
  %51 = load i64, ptr %max_iterations.i.i.i, align 8
  invoke void @_ZN9benchmark5State16StartKeepRunningEv(ptr noundef nonnull align 8 dereferenceable(120) %state)
          to label %for.cond55.preheader.i unwind label %lpad52.i

for.cond55.preheader.i:                           ; preds = %invoke.cont50.i
  %tobool.not.i.i.i = icmp ne i8 %50, 0
  %cmp.not.i.not148152.i = icmp eq i64 %51, 0
  %cmp.not.i.not148.i = select i1 %tobool.not.i.i.i, i1 true, i1 %cmp.not.i.not148152.i
  br i1 %cmp.not.i.not148.i, label %if.end.i.i, label %for.body59.i.preheader, !prof !42

for.body59.i.preheader:                           ; preds = %for.cond55.preheader.i
  %uglygep20 = getelementptr i8, ptr %call.i, i64 20000
  br label %for.body59.i

if.end.i.i:                                       ; preds = %invoke.cont68.i, %for.cond55.preheader.i
  invoke void @_ZN9benchmark5State17FinishKeepRunningEv(ptr noundef nonnull align 8 dereferenceable(120) %state)
          to label %_ZNSt3__110unique_ptrIA_hNS_14default_deleteIS1_EEED2B7v170000Ev.exit.i unwind label %lpad52.i

_ZNSt3__110unique_ptrIA_hNS_14default_deleteIS1_EEED2B7v170000Ev.exit.i: ; preds = %if.end.i.i
  call void @_ZdaPv(ptr noundef nonnull %call4.i) #15
  %52 = load ptr, ptr %B.i, align 8, !tbaa !23
  store ptr null, ptr %B.i, align 8, !tbaa !23
  %tobool.not.i.i118.i = icmp eq ptr %52, null
  br i1 %tobool.not.i.i118.i, label %_ZL28benchForTruncOrZextVecInLoopIthEvRN9benchmark5StateEPFvPKT_PT0_iE.exit, label %_ZNKSt3__114default_deleteIA_hEclB7v170000IhEENS2_20_EnableIfConvertibleIT_E4typeEPS5_.exit.i.i119.i

_ZNKSt3__114default_deleteIA_hEclB7v170000IhEENS2_20_EnableIfConvertibleIT_E4typeEPS5_.exit.i.i119.i: ; preds = %_ZNSt3__110unique_ptrIA_hNS_14default_deleteIS1_EEED2B7v170000Ev.exit.i
  call void @_ZdaPv(ptr noundef nonnull %52) #15
  br label %_ZL28benchForTruncOrZextVecInLoopIthEvRN9benchmark5StateEPFvPKT_PT0_iE.exit

lpad52.i:                                         ; preds = %if.end.i.i, %invoke.cont50.i
  %53 = landingpad { ptr, i32 }
          cleanup
  br label %ehcleanup76.i

for.body59.i:                                     ; preds = %for.body59.i.preheader, %invoke.cont68.i
  %__begin1.sroa.0.0149.i = phi i64 [ %dec.i.i, %invoke.cont68.i ], [ %51, %for.body59.i.preheader ]
  %54 = load i64, ptr %B.i, align 8
  call void asm sideeffect "", "=*r|m,0,~{memory},~{dirflag},~{fpsr},~{flags}"(ptr nonnull elementtype(%"class.std::__1::unique_ptr.55") %B.i, i64 %54) #13, !srcloc !43
  fence syncscope("singlethread") acq_rel
  %55 = load ptr, ptr %B.i, align 8, !tbaa !23
  %uglygep = getelementptr i8, ptr %55, i64 10000
  %bound0 = icmp ult ptr %55, %uglygep20
  %bound1 = icmp ult ptr %call.i, %uglygep
  %found.conflict = and i1 %bound0, %bound1
  br i1 %found.conflict, label %for.body.i11.preheader, label %vector.body26

vector.body26:                                    ; preds = %for.body59.i, %vector.body26
  %index27 = phi i64 [ %index.next32, %vector.body26 ], [ 0, %for.body59.i ]
  %56 = getelementptr inbounds i16, ptr %call.i, i64 %index27
  %wide.load28 = load <16 x i16>, ptr %56, align 2, !tbaa !14, !alias.scope !52
  %57 = getelementptr inbounds i16, ptr %56, i64 16
  %wide.load29 = load <16 x i16>, ptr %57, align 2, !tbaa !14, !alias.scope !52
  %58 = getelementptr inbounds i16, ptr %56, i64 32
  %wide.load30 = load <16 x i16>, ptr %58, align 2, !tbaa !14, !alias.scope !52
  %59 = getelementptr inbounds i16, ptr %56, i64 48
  %wide.load31 = load <16 x i16>, ptr %59, align 2, !tbaa !14, !alias.scope !52
  %60 = trunc <16 x i16> %wide.load28 to <16 x i8>
  %61 = trunc <16 x i16> %wide.load29 to <16 x i8>
  %62 = trunc <16 x i16> %wide.load30 to <16 x i8>
  %63 = trunc <16 x i16> %wide.load31 to <16 x i8>
  %64 = getelementptr inbounds i8, ptr %55, i64 %index27
  store <16 x i8> %60, ptr %64, align 1, !tbaa !17, !alias.scope !55, !noalias !52
  %65 = getelementptr inbounds i8, ptr %64, i64 16
  store <16 x i8> %61, ptr %65, align 1, !tbaa !17, !alias.scope !55, !noalias !52
  %66 = getelementptr inbounds i8, ptr %64, i64 32
  store <16 x i8> %62, ptr %66, align 1, !tbaa !17, !alias.scope !55, !noalias !52
  %67 = getelementptr inbounds i8, ptr %64, i64 48
  store <16 x i8> %63, ptr %67, align 1, !tbaa !17, !alias.scope !55, !noalias !52
  %index.next32 = add nuw i64 %index27, 64
  %68 = icmp eq i64 %index.next32, 9984
  br i1 %68, label %for.body.i11.preheader, label %vector.body26, !llvm.loop !57

for.body.i11.preheader:                           ; preds = %vector.body26, %for.body59.i
  %indvars.iv.i5.ph = phi i64 [ 0, %for.body59.i ], [ 9984, %vector.body26 ]
  br label %for.body.i11

for.body.i11:                                     ; preds = %for.body.i11, %for.body.i11.preheader
  %indvars.iv.i5 = phi i64 [ %indvars.iv.i5.ph, %for.body.i11.preheader ], [ %indvars.iv.next.i9.3, %for.body.i11 ]
  %arrayidx.i6 = getelementptr inbounds i16, ptr %call.i, i64 %indvars.iv.i5
  %69 = load i16, ptr %arrayidx.i6, align 2, !tbaa !14
  %conv.i7 = trunc i16 %69 to i8
  %arrayidx2.i8 = getelementptr inbounds i8, ptr %55, i64 %indvars.iv.i5
  store i8 %conv.i7, ptr %arrayidx2.i8, align 1, !tbaa !17
  %indvars.iv.next.i9 = or i64 %indvars.iv.i5, 1
  %arrayidx.i6.1 = getelementptr inbounds i16, ptr %call.i, i64 %indvars.iv.next.i9
  %70 = load i16, ptr %arrayidx.i6.1, align 2, !tbaa !14
  %conv.i7.1 = trunc i16 %70 to i8
  %arrayidx2.i8.1 = getelementptr inbounds i8, ptr %55, i64 %indvars.iv.next.i9
  store i8 %conv.i7.1, ptr %arrayidx2.i8.1, align 1, !tbaa !17
  %indvars.iv.next.i9.1 = or i64 %indvars.iv.i5, 2
  %arrayidx.i6.2 = getelementptr inbounds i16, ptr %call.i, i64 %indvars.iv.next.i9.1
  %71 = load i16, ptr %arrayidx.i6.2, align 2, !tbaa !14
  %conv.i7.2 = trunc i16 %71 to i8
  %arrayidx2.i8.2 = getelementptr inbounds i8, ptr %55, i64 %indvars.iv.next.i9.1
  store i8 %conv.i7.2, ptr %arrayidx2.i8.2, align 1, !tbaa !17
  %indvars.iv.next.i9.2 = or i64 %indvars.iv.i5, 3
  %arrayidx.i6.3 = getelementptr inbounds i16, ptr %call.i, i64 %indvars.iv.next.i9.2
  %72 = load i16, ptr %arrayidx.i6.3, align 2, !tbaa !14
  %conv.i7.3 = trunc i16 %72 to i8
  %arrayidx2.i8.3 = getelementptr inbounds i8, ptr %55, i64 %indvars.iv.next.i9.2
  store i8 %conv.i7.3, ptr %arrayidx2.i8.3, align 1, !tbaa !17
  %indvars.iv.next.i9.3 = add nuw nsw i64 %indvars.iv.i5, 4
  %exitcond.not.i10.3 = icmp eq i64 %indvars.iv.next.i9.3, 10000
  br i1 %exitcond.not.i10.3, label %invoke.cont68.i, label %for.body.i11, !llvm.loop !58

invoke.cont68.i:                                  ; preds = %for.body.i11
  %dec.i.i = add i64 %__begin1.sroa.0.0149.i, -1
  %cmp.not.i.not.i = icmp eq i64 %dec.i.i, 0
  br i1 %cmp.not.i.not.i, label %if.end.i.i, label %for.body59.i, !prof !42

ehcleanup76.i:                                    ; preds = %lpad52.i, %lpad17.i, %lpad5.loopexit.i
  %.pn90.i = phi { ptr, i32 } [ %41, %lpad17.i ], [ %53, %lpad52.i ], [ %lpad.loopexit.i, %lpad5.loopexit.i ]
  call void @_ZdaPv(ptr noundef nonnull %call4.i) #15
  %.pr.i = load ptr, ptr %B.i, align 8, !tbaa !23
  store ptr null, ptr %B.i, align 8, !tbaa !23
  %tobool.not.i.i125.i = icmp eq ptr %.pr.i, null
  br i1 %tobool.not.i.i125.i, label %_ZNSt3__110unique_ptrIA_tNS_14default_deleteIS1_EEED2B7v170000Ev.exit130.i, label %_ZNKSt3__114default_deleteIA_hEclB7v170000IhEENS2_20_EnableIfConvertibleIT_E4typeEPS5_.exit.i.i126.i

_ZNKSt3__114default_deleteIA_hEclB7v170000IhEENS2_20_EnableIfConvertibleIT_E4typeEPS5_.exit.i.i126.i: ; preds = %ehcleanup76.i, %ehcleanup76.thread.i
  %.pn90.pn144.i = phi { ptr, i32 } [ %35, %ehcleanup76.thread.i ], [ %.pn90.i, %ehcleanup76.i ]
  %73 = phi ptr [ %call1.i, %ehcleanup76.thread.i ], [ %.pr.i, %ehcleanup76.i ]
  call void @_ZdaPv(ptr noundef nonnull %73) #15
  br label %_ZNSt3__110unique_ptrIA_tNS_14default_deleteIS1_EEED2B7v170000Ev.exit130.i

_ZNSt3__110unique_ptrIA_tNS_14default_deleteIS1_EEED2B7v170000Ev.exit130.i: ; preds = %_ZNKSt3__114default_deleteIA_hEclB7v170000IhEENS2_20_EnableIfConvertibleIT_E4typeEPS5_.exit.i.i126.i, %ehcleanup76.i, %lpad.i
  %.pn90.pn.pn.i = phi { ptr, i32 } [ %34, %lpad.i ], [ %.pn90.i, %ehcleanup76.i ], [ %.pn90.pn144.i, %_ZNKSt3__114default_deleteIA_hEclB7v170000IhEENS2_20_EnableIfConvertibleIT_E4typeEPS5_.exit.i.i126.i ]
  call void @llvm.lifetime.end.p0(i64 8, ptr nonnull %B.i) #13
  call void @_ZdaPv(ptr noundef nonnull %call.i) #15
  resume { ptr, i32 } %.pn90.pn.pn.i

_ZL28benchForTruncOrZextVecInLoopIthEvRN9benchmark5StateEPFvPKT_PT0_iE.exit: ; preds = %_ZNSt3__110unique_ptrIA_hNS_14default_deleteIS1_EEED2B7v170000Ev.exit.i, %_ZNKSt3__114default_deleteIA_hEclB7v170000IhEENS2_20_EnableIfConvertibleIT_E4typeEPS5_.exit.i.i119.i
  call void @llvm.lifetime.end.p0(i64 8, ptr nonnull %B.i) #13
  call void @_ZdaPv(ptr noundef nonnull %call.i) #15
  ret void
}

; Function Attrs: uwtable
define dso_local void @_Z53benchForTruncOrZextVecInLoopFrom_uint16_t_To_uint8_t_RN9benchmark5StateE(ptr noundef nonnull align 8 dereferenceable(120) %state) #1 personality ptr @__gxx_personality_v0 {
entry:
  %__c.addr.i114.i = alloca i8, align 1
  %__c.addr.i.i = alloca i8, align 1
  %distrib.i.i = alloca %"class.std::__1::uniform_int_distribution", align 2
  %B.i = alloca %"class.std::__1::unique_ptr.55", align 8
  %call.i = tail call noalias noundef nonnull dereferenceable(20000) ptr @_Znam(i64 noundef 20000) #12
  call void @llvm.lifetime.start.p0(i64 8, ptr nonnull %B.i) #13
  %call1.i = invoke noalias noundef nonnull dereferenceable(10000) ptr @_Znam(i64 noundef 10000) #12
          to label %invoke.cont.i unwind label %lpad.i

invoke.cont.i:                                    ; preds = %entry
  store ptr %call1.i, ptr %B.i, align 8, !tbaa !5
  %call4.i = invoke noalias noundef nonnull dereferenceable(10000) ptr @_Znam(i64 noundef 10000) #12
          to label %invoke.cont3.i unwind label %ehcleanup76.thread.i

invoke.cont3.i:                                   ; preds = %invoke.cont.i
  call void @llvm.lifetime.start.p0(i64 4, ptr nonnull %distrib.i.i) #13
  store i16 0, ptr %distrib.i.i, align 2, !tbaa !10
  %__b_.i.i.i.i = getelementptr inbounds %"class.std::__1::uniform_int_distribution<unsigned short>::param_type", ptr %distrib.i.i, i64 0, i32 1
  store i16 -1, ptr %__b_.i.i.i.i, align 2, !tbaa !13
  br label %for.body.i.i

for.body.i.i:                                     ; preds = %call.i.i.noexc.i, %invoke.cont3.i
  %indvars.iv.i.i = phi i64 [ 0, %invoke.cont3.i ], [ %indvars.iv.next.i.i, %call.i.i.noexc.i ]
  %call.i.i96.i = invoke noundef zeroext i16 @_ZNSt3__124uniform_int_distributionItEclINS_23mersenne_twister_engineImLm32ELm624ELm397ELm31ELm2567483615ELm11ELm4294967295ELm7ELm2636928640ELm15ELm4022730752ELm18ELm1812433253EEEEEtRT_RKNS1_10param_typeE(ptr noundef nonnull align 2 dereferenceable(4) %distrib.i.i, ptr noundef nonnull align 8 dereferenceable(5000) @_ZL3rng, ptr noundef nonnull align 2 dereferenceable(4) %distrib.i.i)
          to label %call.i.i.noexc.i unwind label %lpad5.loopexit.i

call.i.i.noexc.i:                                 ; preds = %for.body.i.i
  %arrayidx.i.i.i = getelementptr inbounds i16, ptr %call.i, i64 %indvars.iv.i.i
  store i16 %call.i.i96.i, ptr %arrayidx.i.i.i, align 2, !tbaa !14
  %indvars.iv.next.i.i = add nuw nsw i64 %indvars.iv.i.i, 1
  %exitcond.not.i.i = icmp eq i64 %indvars.iv.next.i.i, 10000
  br i1 %exitcond.not.i.i, label %invoke.cont6.i, label %for.body.i.i, !llvm.loop !15

invoke.cont6.i:                                   ; preds = %call.i.i.noexc.i
  call void @llvm.lifetime.end.p0(i64 4, ptr nonnull %distrib.i.i) #13
  br label %for.body.i100.i

for.body.i100.i:                                  ; preds = %for.body.i100.i, %invoke.cont6.i
  %indvars.iv.i97.i = phi i64 [ 0, %invoke.cont6.i ], [ %indvars.iv.next.i98.i.4, %for.body.i100.i ]
  %arrayidx.i.i = getelementptr inbounds i16, ptr %call.i, i64 %indvars.iv.i97.i
  %0 = load i16, ptr %arrayidx.i.i, align 2, !tbaa !14
  %conv.i.i = trunc i16 %0 to i8
  %arrayidx2.i.i = getelementptr inbounds i8, ptr %call4.i, i64 %indvars.iv.i97.i
  store i8 %conv.i.i, ptr %arrayidx2.i.i, align 1, !tbaa !17
  %indvars.iv.next.i98.i = add nuw nsw i64 %indvars.iv.i97.i, 1
  %arrayidx.i.i.1 = getelementptr inbounds i16, ptr %call.i, i64 %indvars.iv.next.i98.i
  %1 = load i16, ptr %arrayidx.i.i.1, align 2, !tbaa !14
  %conv.i.i.1 = trunc i16 %1 to i8
  %arrayidx2.i.i.1 = getelementptr inbounds i8, ptr %call4.i, i64 %indvars.iv.next.i98.i
  store i8 %conv.i.i.1, ptr %arrayidx2.i.i.1, align 1, !tbaa !17
  %indvars.iv.next.i98.i.1 = add nuw nsw i64 %indvars.iv.i97.i, 2
  %arrayidx.i.i.2 = getelementptr inbounds i16, ptr %call.i, i64 %indvars.iv.next.i98.i.1
  %2 = load i16, ptr %arrayidx.i.i.2, align 2, !tbaa !14
  %conv.i.i.2 = trunc i16 %2 to i8
  %arrayidx2.i.i.2 = getelementptr inbounds i8, ptr %call4.i, i64 %indvars.iv.next.i98.i.1
  store i8 %conv.i.i.2, ptr %arrayidx2.i.i.2, align 1, !tbaa !17
  %indvars.iv.next.i98.i.2 = add nuw nsw i64 %indvars.iv.i97.i, 3
  %arrayidx.i.i.3 = getelementptr inbounds i16, ptr %call.i, i64 %indvars.iv.next.i98.i.2
  %3 = load i16, ptr %arrayidx.i.i.3, align 2, !tbaa !14
  %conv.i.i.3 = trunc i16 %3 to i8
  %arrayidx2.i.i.3 = getelementptr inbounds i8, ptr %call4.i, i64 %indvars.iv.next.i98.i.2
  store i8 %conv.i.i.3, ptr %arrayidx2.i.i.3, align 1, !tbaa !17
  %indvars.iv.next.i98.i.3 = add nuw nsw i64 %indvars.iv.i97.i, 4
  %arrayidx.i.i.4 = getelementptr inbounds i16, ptr %call.i, i64 %indvars.iv.next.i98.i.3
  %4 = load i16, ptr %arrayidx.i.i.4, align 2, !tbaa !14
  %conv.i.i.4 = trunc i16 %4 to i8
  %arrayidx2.i.i.4 = getelementptr inbounds i8, ptr %call4.i, i64 %indvars.iv.next.i98.i.3
  store i8 %conv.i.i.4, ptr %arrayidx2.i.i.4, align 1, !tbaa !17
  %indvars.iv.next.i98.i.4 = add nuw nsw i64 %indvars.iv.i97.i, 5
  %exitcond.not.i99.i.4 = icmp eq i64 %indvars.iv.next.i98.i.4, 10000
  br i1 %exitcond.not.i99.i.4, label %vector.body, label %for.body.i100.i, !llvm.loop !18

vector.body:                                      ; preds = %for.body.i100.i, %vector.body.1
  %index = phi i64 [ %index.next.1, %vector.body.1 ], [ 0, %for.body.i100.i ]
  %5 = getelementptr inbounds i16, ptr %call.i, i64 %index
  %wide.load = load <8 x i16>, ptr %5, align 2, !tbaa !14
  %6 = getelementptr inbounds i16, ptr %5, i64 8
  %wide.load17 = load <8 x i16>, ptr %6, align 2, !tbaa !14
  %7 = trunc <8 x i16> %wide.load to <8 x i8>
  %8 = trunc <8 x i16> %wide.load17 to <8 x i8>
  %9 = getelementptr inbounds i8, ptr %call1.i, i64 %index
  store <8 x i8> %7, ptr %9, align 1, !tbaa !17
  %10 = getelementptr inbounds i8, ptr %9, i64 8
  store <8 x i8> %8, ptr %10, align 1, !tbaa !17
  %index.next = or i64 %index, 16
  %11 = icmp eq i64 %index.next, 10000
  br i1 %11, label %for.body.i, label %vector.body.1, !llvm.loop !59

vector.body.1:                                    ; preds = %vector.body
  %12 = getelementptr inbounds i16, ptr %call.i, i64 %index.next
  %wide.load.1 = load <8 x i16>, ptr %12, align 2, !tbaa !14
  %13 = getelementptr inbounds i16, ptr %12, i64 8
  %wide.load17.1 = load <8 x i16>, ptr %13, align 2, !tbaa !14
  %14 = trunc <8 x i16> %wide.load.1 to <8 x i8>
  %15 = trunc <8 x i16> %wide.load17.1 to <8 x i8>
  %16 = getelementptr inbounds i8, ptr %call1.i, i64 %index.next
  store <8 x i8> %14, ptr %16, align 1, !tbaa !17
  %17 = getelementptr inbounds i8, ptr %16, i64 8
  store <8 x i8> %15, ptr %17, align 1, !tbaa !17
  %index.next.1 = add nuw nsw i64 %index, 32
  br label %vector.body

lpad.i:                                           ; preds = %entry
  %18 = landingpad { ptr, i32 }
          cleanup
  br label %_ZNSt3__110unique_ptrIA_tNS_14default_deleteIS1_EEED2B7v170000Ev.exit130.i

ehcleanup76.thread.i:                             ; preds = %invoke.cont.i
  %19 = landingpad { ptr, i32 }
          cleanup
  store ptr null, ptr %B.i, align 8, !tbaa !23
  br label %_ZNKSt3__114default_deleteIA_hEclB7v170000IhEENS2_20_EnableIfConvertibleIT_E4typeEPS5_.exit.i.i126.i

lpad5.loopexit.i:                                 ; preds = %for.body.i.i
  %lpad.loopexit.i = landingpad { ptr, i32 }
          cleanup
  br label %ehcleanup76.i

for.body.i:                                       ; preds = %vector.body, %for.inc.i.4
  %indvars.iv.i = phi i64 [ %indvars.iv.next.i.4, %for.inc.i.4 ], [ 0, %vector.body ]
  %arrayidx.i101.i = getelementptr inbounds i8, ptr %call1.i, i64 %indvars.iv.i
  %20 = load i8, ptr %arrayidx.i101.i, align 1, !tbaa !17
  %arrayidx.i102.i = getelementptr inbounds i8, ptr %call4.i, i64 %indvars.iv.i
  %21 = load i8, ptr %arrayidx.i102.i, align 1, !tbaa !17
  %cmp25.not.i = icmp eq i8 %20, %21
  br i1 %cmp25.not.i, label %for.inc.i, label %if.then.i

if.then.i:                                        ; preds = %for.inc.i.3, %for.inc.i.2, %for.inc.i.1, %for.inc.i, %for.body.i
  %indvars.iv.i.lcssa = phi i64 [ %indvars.iv.i, %for.body.i ], [ %indvars.iv.next.i, %for.inc.i ], [ %indvars.iv.next.i.1, %for.inc.i.1 ], [ %indvars.iv.next.i.2, %for.inc.i.2 ], [ %indvars.iv.next.i.3, %for.inc.i.3 ]
  %conv.le.i = and i64 %indvars.iv.i.lcssa, 4294967295
  %arrayidx.i102.le.i = getelementptr inbounds i8, ptr %call4.i, i64 %conv.le.i
  %call1.i103.i = invoke noundef nonnull align 8 dereferenceable(8) ptr @_ZNSt3__124__put_character_sequenceB7v170000IcNS_11char_traitsIcEEEERNS_13basic_ostreamIT_T0_EES7_PKS4_m(ptr noundef nonnull align 8 dereferenceable(8) @_ZNSt3__14cerrE, ptr noundef nonnull @.str.145, i64 noundef 34)
          to label %invoke.cont26.i unwind label %lpad17.i

invoke.cont26.i:                                  ; preds = %if.then.i
  %arrayidx.i104.i = getelementptr inbounds i16, ptr %call.i, i64 %conv.le.i
  %22 = load i16, ptr %arrayidx.i104.i, align 2, !tbaa !14
  %call32.i = invoke noundef nonnull align 8 dereferenceable(8) ptr @_ZNSt3__113basic_ostreamIcNS_11char_traitsIcEEElsEt(ptr noundef nonnull align 8 dereferenceable(8) %call1.i103.i, i16 noundef zeroext %22)
          to label %invoke.cont31.i unwind label %lpad17.i

invoke.cont31.i:                                  ; preds = %invoke.cont26.i
  %call1.i106.i = invoke noundef nonnull align 8 dereferenceable(8) ptr @_ZNSt3__124__put_character_sequenceB7v170000IcNS_11char_traitsIcEEEERNS_13basic_ostreamIT_T0_EES7_PKS4_m(ptr noundef nonnull align 8 dereferenceable(8) %call32.i, ptr noundef nonnull @.str.146, i64 noundef 19)
          to label %invoke.cont33.i unwind label %lpad17.i

invoke.cont33.i:                                  ; preds = %invoke.cont31.i
  %arrayidx.i108.i = getelementptr inbounds i8, ptr %call1.i, i64 %conv.le.i
  %23 = load i8, ptr %arrayidx.i108.i, align 1, !tbaa !17
  call void @llvm.lifetime.start.p0(i64 1, ptr nonnull %__c.addr.i.i)
  store i8 %23, ptr %__c.addr.i.i, align 1, !tbaa !17
  %call.i109.i = invoke noundef nonnull align 8 dereferenceable(8) ptr @_ZNSt3__124__put_character_sequenceB7v170000IcNS_11char_traitsIcEEEERNS_13basic_ostreamIT_T0_EES7_PKS4_m(ptr noundef nonnull align 8 dereferenceable(8) %call1.i106.i, ptr noundef nonnull %__c.addr.i.i, i64 noundef 1)
          to label %invoke.cont38.i unwind label %lpad17.i

invoke.cont38.i:                                  ; preds = %invoke.cont33.i
  call void @llvm.lifetime.end.p0(i64 1, ptr nonnull %__c.addr.i.i)
  %call1.i111.i = invoke noundef nonnull align 8 dereferenceable(8) ptr @_ZNSt3__124__put_character_sequenceB7v170000IcNS_11char_traitsIcEEEERNS_13basic_ostreamIT_T0_EES7_PKS4_m(ptr noundef nonnull align 8 dereferenceable(8) %call.i109.i, ptr noundef nonnull @.str.147, i64 noundef 12)
          to label %invoke.cont40.i unwind label %lpad17.i

invoke.cont40.i:                                  ; preds = %invoke.cont38.i
  %24 = load i8, ptr %arrayidx.i102.le.i, align 1, !tbaa !17
  call void @llvm.lifetime.start.p0(i64 1, ptr nonnull %__c.addr.i114.i)
  store i8 %24, ptr %__c.addr.i114.i, align 1, !tbaa !17
  %call.i115.i = invoke noundef nonnull align 8 dereferenceable(8) ptr @_ZNSt3__124__put_character_sequenceB7v170000IcNS_11char_traitsIcEEEERNS_13basic_ostreamIT_T0_EES7_PKS4_m(ptr noundef nonnull align 8 dereferenceable(8) %call1.i111.i, ptr noundef nonnull %__c.addr.i114.i, i64 noundef 1)
          to label %invoke.cont45.i unwind label %lpad17.i

invoke.cont45.i:                                  ; preds = %invoke.cont40.i
  call void @llvm.lifetime.end.p0(i64 1, ptr nonnull %__c.addr.i114.i)
  %call48.i = invoke noundef nonnull align 8 dereferenceable(8) ptr @_ZNSt3__1lsB7v170000INS_11char_traitsIcEEEERNS_13basic_ostreamIcT_EES6_PKc(ptr noundef nonnull align 8 dereferenceable(8) %call.i115.i, ptr noundef nonnull @.str.148)
          to label %invoke.cont47.i unwind label %lpad17.i

invoke.cont47.i:                                  ; preds = %invoke.cont45.i
  call void @exit(i32 noundef 1) #14
  unreachable

lpad17.i:                                         ; preds = %invoke.cont45.i, %invoke.cont40.i, %invoke.cont38.i, %invoke.cont33.i, %invoke.cont31.i, %invoke.cont26.i, %if.then.i
  %25 = landingpad { ptr, i32 }
          cleanup
  br label %ehcleanup76.i

for.inc.i:                                        ; preds = %for.body.i
  %indvars.iv.next.i = add nuw nsw i64 %indvars.iv.i, 1
  %arrayidx.i101.i.1 = getelementptr inbounds i8, ptr %call1.i, i64 %indvars.iv.next.i
  %26 = load i8, ptr %arrayidx.i101.i.1, align 1, !tbaa !17
  %arrayidx.i102.i.1 = getelementptr inbounds i8, ptr %call4.i, i64 %indvars.iv.next.i
  %27 = load i8, ptr %arrayidx.i102.i.1, align 1, !tbaa !17
  %cmp25.not.i.1 = icmp eq i8 %26, %27
  br i1 %cmp25.not.i.1, label %for.inc.i.1, label %if.then.i

for.inc.i.1:                                      ; preds = %for.inc.i
  %indvars.iv.next.i.1 = add nuw nsw i64 %indvars.iv.i, 2
  %arrayidx.i101.i.2 = getelementptr inbounds i8, ptr %call1.i, i64 %indvars.iv.next.i.1
  %28 = load i8, ptr %arrayidx.i101.i.2, align 1, !tbaa !17
  %arrayidx.i102.i.2 = getelementptr inbounds i8, ptr %call4.i, i64 %indvars.iv.next.i.1
  %29 = load i8, ptr %arrayidx.i102.i.2, align 1, !tbaa !17
  %cmp25.not.i.2 = icmp eq i8 %28, %29
  br i1 %cmp25.not.i.2, label %for.inc.i.2, label %if.then.i

for.inc.i.2:                                      ; preds = %for.inc.i.1
  %indvars.iv.next.i.2 = add nuw nsw i64 %indvars.iv.i, 3
  %arrayidx.i101.i.3 = getelementptr inbounds i8, ptr %call1.i, i64 %indvars.iv.next.i.2
  %30 = load i8, ptr %arrayidx.i101.i.3, align 1, !tbaa !17
  %arrayidx.i102.i.3 = getelementptr inbounds i8, ptr %call4.i, i64 %indvars.iv.next.i.2
  %31 = load i8, ptr %arrayidx.i102.i.3, align 1, !tbaa !17
  %cmp25.not.i.3 = icmp eq i8 %30, %31
  br i1 %cmp25.not.i.3, label %for.inc.i.3, label %if.then.i

for.inc.i.3:                                      ; preds = %for.inc.i.2
  %indvars.iv.next.i.3 = add nuw nsw i64 %indvars.iv.i, 4
  %arrayidx.i101.i.4 = getelementptr inbounds i8, ptr %call1.i, i64 %indvars.iv.next.i.3
  %32 = load i8, ptr %arrayidx.i101.i.4, align 1, !tbaa !17
  %arrayidx.i102.i.4 = getelementptr inbounds i8, ptr %call4.i, i64 %indvars.iv.next.i.3
  %33 = load i8, ptr %arrayidx.i102.i.4, align 1, !tbaa !17
  %cmp25.not.i.4 = icmp eq i8 %32, %33
  br i1 %cmp25.not.i.4, label %for.inc.i.4, label %if.then.i

for.inc.i.4:                                      ; preds = %for.inc.i.3
  %indvars.iv.next.i.4 = add nuw nsw i64 %indvars.iv.i, 5
  %exitcond.not.i.4 = icmp eq i64 %indvars.iv.next.i.4, 10000
  br i1 %exitcond.not.i.4, label %invoke.cont50.i, label %for.body.i, !llvm.loop !24

invoke.cont50.i:                                  ; preds = %for.inc.i.4
  %error_occurred_.i.i.i = getelementptr inbounds %"class.benchmark::State", ptr %state, i64 0, i32 5
  %34 = load i8, ptr %error_occurred_.i.i.i, align 2, !tbaa !25, !range !40, !noundef !41
  %max_iterations.i.i.i = getelementptr inbounds %"class.benchmark::State", ptr %state, i64 0, i32 2
  %35 = load i64, ptr %max_iterations.i.i.i, align 8
  invoke void @_ZN9benchmark5State16StartKeepRunningEv(ptr noundef nonnull align 8 dereferenceable(120) %state)
          to label %for.cond55.preheader.i unwind label %lpad52.i

for.cond55.preheader.i:                           ; preds = %invoke.cont50.i
  %tobool.not.i.i.i = icmp ne i8 %34, 0
  %cmp.not.i.not148152.i = icmp eq i64 %35, 0
  %cmp.not.i.not148.i = select i1 %tobool.not.i.i.i, i1 true, i1 %cmp.not.i.not148152.i
  br i1 %cmp.not.i.not148.i, label %if.end.i.i, label %for.body59.i.preheader, !prof !42

for.body59.i.preheader:                           ; preds = %for.cond55.preheader.i
  %uglygep18 = getelementptr i8, ptr %call.i, i64 20000
  br label %for.body59.i

if.end.i.i:                                       ; preds = %invoke.cont68.i, %for.cond55.preheader.i
  invoke void @_ZN9benchmark5State17FinishKeepRunningEv(ptr noundef nonnull align 8 dereferenceable(120) %state)
          to label %_ZNSt3__110unique_ptrIA_hNS_14default_deleteIS1_EEED2B7v170000Ev.exit.i unwind label %lpad52.i

_ZNSt3__110unique_ptrIA_hNS_14default_deleteIS1_EEED2B7v170000Ev.exit.i: ; preds = %if.end.i.i
  call void @_ZdaPv(ptr noundef nonnull %call4.i) #15
  %36 = load ptr, ptr %B.i, align 8, !tbaa !23
  store ptr null, ptr %B.i, align 8, !tbaa !23
  %tobool.not.i.i118.i = icmp eq ptr %36, null
  br i1 %tobool.not.i.i118.i, label %_ZL28benchForTruncOrZextVecInLoopIthEvRN9benchmark5StateEPFvPKT_PT0_iE.exit, label %_ZNKSt3__114default_deleteIA_hEclB7v170000IhEENS2_20_EnableIfConvertibleIT_E4typeEPS5_.exit.i.i119.i

_ZNKSt3__114default_deleteIA_hEclB7v170000IhEENS2_20_EnableIfConvertibleIT_E4typeEPS5_.exit.i.i119.i: ; preds = %_ZNSt3__110unique_ptrIA_hNS_14default_deleteIS1_EEED2B7v170000Ev.exit.i
  call void @_ZdaPv(ptr noundef nonnull %36) #15
  br label %_ZL28benchForTruncOrZextVecInLoopIthEvRN9benchmark5StateEPFvPKT_PT0_iE.exit

lpad52.i:                                         ; preds = %if.end.i.i, %invoke.cont50.i
  %37 = landingpad { ptr, i32 }
          cleanup
  br label %ehcleanup76.i

for.body59.i:                                     ; preds = %for.body59.i.preheader, %invoke.cont68.i
  %__begin1.sroa.0.0149.i = phi i64 [ %dec.i.i, %invoke.cont68.i ], [ %35, %for.body59.i.preheader ]
  %38 = load i64, ptr %B.i, align 8
  call void asm sideeffect "", "=*r|m,0,~{memory},~{dirflag},~{fpsr},~{flags}"(ptr nonnull elementtype(%"class.std::__1::unique_ptr.55") %B.i, i64 %38) #13, !srcloc !43
  fence syncscope("singlethread") acq_rel
  %39 = load ptr, ptr %B.i, align 8, !tbaa !23
  %uglygep = getelementptr i8, ptr %39, i64 10000
  %bound0 = icmp ult ptr %39, %uglygep18
  %bound1 = icmp ult ptr %call.i, %uglygep
  %found.conflict = and i1 %bound0, %bound1
  br i1 %found.conflict, label %for.body.i11, label %vector.body24

vector.body24:                                    ; preds = %for.body59.i, %vector.body24.1
  %index25 = phi i64 [ %index.next28.1, %vector.body24.1 ], [ 0, %for.body59.i ]
  %40 = getelementptr inbounds i16, ptr %call.i, i64 %index25
  %wide.load26 = load <8 x i16>, ptr %40, align 2, !tbaa !14, !alias.scope !60
  %41 = getelementptr inbounds i16, ptr %40, i64 8
  %wide.load27 = load <8 x i16>, ptr %41, align 2, !tbaa !14, !alias.scope !60
  %42 = trunc <8 x i16> %wide.load26 to <8 x i8>
  %43 = trunc <8 x i16> %wide.load27 to <8 x i8>
  %44 = getelementptr inbounds i8, ptr %39, i64 %index25
  store <8 x i8> %42, ptr %44, align 1, !tbaa !17, !alias.scope !63, !noalias !60
  %45 = getelementptr inbounds i8, ptr %44, i64 8
  store <8 x i8> %43, ptr %45, align 1, !tbaa !17, !alias.scope !63, !noalias !60
  %index.next28 = or i64 %index25, 16
  %46 = icmp eq i64 %index.next28, 10000
  br i1 %46, label %invoke.cont68.i, label %vector.body24.1, !llvm.loop !65

vector.body24.1:                                  ; preds = %vector.body24
  %47 = getelementptr inbounds i16, ptr %call.i, i64 %index.next28
  %wide.load26.1 = load <8 x i16>, ptr %47, align 2, !tbaa !14, !alias.scope !60
  %48 = getelementptr inbounds i16, ptr %47, i64 8
  %wide.load27.1 = load <8 x i16>, ptr %48, align 2, !tbaa !14, !alias.scope !60
  %49 = trunc <8 x i16> %wide.load26.1 to <8 x i8>
  %50 = trunc <8 x i16> %wide.load27.1 to <8 x i8>
  %51 = getelementptr inbounds i8, ptr %39, i64 %index.next28
  store <8 x i8> %49, ptr %51, align 1, !tbaa !17, !alias.scope !63, !noalias !60
  %52 = getelementptr inbounds i8, ptr %51, i64 8
  store <8 x i8> %50, ptr %52, align 1, !tbaa !17, !alias.scope !63, !noalias !60
  %index.next28.1 = add nuw nsw i64 %index25, 32
  br label %vector.body24

for.body.i11:                                     ; preds = %for.body59.i, %for.body.i11
  %indvars.iv.i5 = phi i64 [ %indvars.iv.next.i9.4, %for.body.i11 ], [ 0, %for.body59.i ]
  %arrayidx.i6 = getelementptr inbounds i16, ptr %call.i, i64 %indvars.iv.i5
  %53 = load i16, ptr %arrayidx.i6, align 2, !tbaa !14
  %conv.i7 = trunc i16 %53 to i8
  %arrayidx2.i8 = getelementptr inbounds i8, ptr %39, i64 %indvars.iv.i5
  store i8 %conv.i7, ptr %arrayidx2.i8, align 1, !tbaa !17
  %indvars.iv.next.i9 = add nuw nsw i64 %indvars.iv.i5, 1
  %arrayidx.i6.1 = getelementptr inbounds i16, ptr %call.i, i64 %indvars.iv.next.i9
  %54 = load i16, ptr %arrayidx.i6.1, align 2, !tbaa !14
  %conv.i7.1 = trunc i16 %54 to i8
  %arrayidx2.i8.1 = getelementptr inbounds i8, ptr %39, i64 %indvars.iv.next.i9
  store i8 %conv.i7.1, ptr %arrayidx2.i8.1, align 1, !tbaa !17
  %indvars.iv.next.i9.1 = add nuw nsw i64 %indvars.iv.i5, 2
  %arrayidx.i6.2 = getelementptr inbounds i16, ptr %call.i, i64 %indvars.iv.next.i9.1
  %55 = load i16, ptr %arrayidx.i6.2, align 2, !tbaa !14
  %conv.i7.2 = trunc i16 %55 to i8
  %arrayidx2.i8.2 = getelementptr inbounds i8, ptr %39, i64 %indvars.iv.next.i9.1
  store i8 %conv.i7.2, ptr %arrayidx2.i8.2, align 1, !tbaa !17
  %indvars.iv.next.i9.2 = add nuw nsw i64 %indvars.iv.i5, 3
  %arrayidx.i6.3 = getelementptr inbounds i16, ptr %call.i, i64 %indvars.iv.next.i9.2
  %56 = load i16, ptr %arrayidx.i6.3, align 2, !tbaa !14
  %conv.i7.3 = trunc i16 %56 to i8
  %arrayidx2.i8.3 = getelementptr inbounds i8, ptr %39, i64 %indvars.iv.next.i9.2
  store i8 %conv.i7.3, ptr %arrayidx2.i8.3, align 1, !tbaa !17
  %indvars.iv.next.i9.3 = add nuw nsw i64 %indvars.iv.i5, 4
  %arrayidx.i6.4 = getelementptr inbounds i16, ptr %call.i, i64 %indvars.iv.next.i9.3
  %57 = load i16, ptr %arrayidx.i6.4, align 2, !tbaa !14
  %conv.i7.4 = trunc i16 %57 to i8
  %arrayidx2.i8.4 = getelementptr inbounds i8, ptr %39, i64 %indvars.iv.next.i9.3
  store i8 %conv.i7.4, ptr %arrayidx2.i8.4, align 1, !tbaa !17
  %indvars.iv.next.i9.4 = add nuw nsw i64 %indvars.iv.i5, 5
  %exitcond.not.i10.4 = icmp eq i64 %indvars.iv.next.i9.4, 10000
  br i1 %exitcond.not.i10.4, label %invoke.cont68.i, label %for.body.i11, !llvm.loop !66

invoke.cont68.i:                                  ; preds = %vector.body24, %for.body.i11
  %dec.i.i = add i64 %__begin1.sroa.0.0149.i, -1
  %cmp.not.i.not.i = icmp eq i64 %dec.i.i, 0
  br i1 %cmp.not.i.not.i, label %if.end.i.i, label %for.body59.i, !prof !42

ehcleanup76.i:                                    ; preds = %lpad52.i, %lpad17.i, %lpad5.loopexit.i
  %.pn90.i = phi { ptr, i32 } [ %25, %lpad17.i ], [ %37, %lpad52.i ], [ %lpad.loopexit.i, %lpad5.loopexit.i ]
  call void @_ZdaPv(ptr noundef nonnull %call4.i) #15
  %.pr.i = load ptr, ptr %B.i, align 8, !tbaa !23
  store ptr null, ptr %B.i, align 8, !tbaa !23
  %tobool.not.i.i125.i = icmp eq ptr %.pr.i, null
  br i1 %tobool.not.i.i125.i, label %_ZNSt3__110unique_ptrIA_tNS_14default_deleteIS1_EEED2B7v170000Ev.exit130.i, label %_ZNKSt3__114default_deleteIA_hEclB7v170000IhEENS2_20_EnableIfConvertibleIT_E4typeEPS5_.exit.i.i126.i

_ZNKSt3__114default_deleteIA_hEclB7v170000IhEENS2_20_EnableIfConvertibleIT_E4typeEPS5_.exit.i.i126.i: ; preds = %ehcleanup76.i, %ehcleanup76.thread.i
  %.pn90.pn144.i = phi { ptr, i32 } [ %19, %ehcleanup76.thread.i ], [ %.pn90.i, %ehcleanup76.i ]
  %58 = phi ptr [ %call1.i, %ehcleanup76.thread.i ], [ %.pr.i, %ehcleanup76.i ]
  call void @_ZdaPv(ptr noundef nonnull %58) #15
  br label %_ZNSt3__110unique_ptrIA_tNS_14default_deleteIS1_EEED2B7v170000Ev.exit130.i

_ZNSt3__110unique_ptrIA_tNS_14default_deleteIS1_EEED2B7v170000Ev.exit130.i: ; preds = %_ZNKSt3__114default_deleteIA_hEclB7v170000IhEENS2_20_EnableIfConvertibleIT_E4typeEPS5_.exit.i.i126.i, %ehcleanup76.i, %lpad.i
  %.pn90.pn.pn.i = phi { ptr, i32 } [ %18, %lpad.i ], [ %.pn90.i, %ehcleanup76.i ], [ %.pn90.pn144.i, %_ZNKSt3__114default_deleteIA_hEclB7v170000IhEENS2_20_EnableIfConvertibleIT_E4typeEPS5_.exit.i.i126.i ]
  call void @llvm.lifetime.end.p0(i64 8, ptr nonnull %B.i) #13
  call void @_ZdaPv(ptr noundef nonnull %call.i) #15
  resume { ptr, i32 } %.pn90.pn.pn.i

_ZL28benchForTruncOrZextVecInLoopIthEvRN9benchmark5StateEPFvPKT_PT0_iE.exit: ; preds = %_ZNSt3__110unique_ptrIA_hNS_14default_deleteIS1_EEED2B7v170000Ev.exit.i, %_ZNKSt3__114default_deleteIA_hEclB7v170000IhEENS2_20_EnableIfConvertibleIT_E4typeEPS5_.exit.i.i119.i
  call void @llvm.lifetime.end.p0(i64 8, ptr nonnull %B.i) #13
  call void @_ZdaPv(ptr noundef nonnull %call.i) #15
  ret void
}

; Function Attrs: uwtable
define dso_local void @_Z67benchForTruncOrZextVecWithAddInLoopWithVW8From_uint16_t_To_uint8_t_RN9benchmark5StateE(ptr noundef nonnull align 8 dereferenceable(120) %state) #1 personality ptr @__gxx_personality_v0 {
entry:
  %distrib.i37.i = alloca %"class.std::__1::uniform_int_distribution.61", align 1
  %distrib.i.i = alloca %"class.std::__1::uniform_int_distribution", align 2
  %B.i = alloca %"class.std::__1::unique_ptr.55", align 8
  %call.i = tail call noalias noundef nonnull dereferenceable(20000) ptr @_Znam(i64 noundef 20000) #12
  call void @llvm.lifetime.start.p0(i64 8, ptr nonnull %B.i) #13
  %call1.i = invoke noalias noundef nonnull dereferenceable(10000) ptr @_Znam(i64 noundef 10000) #12
          to label %invoke.cont.i unwind label %lpad.i

invoke.cont.i:                                    ; preds = %entry
  store ptr %call1.i, ptr %B.i, align 8, !tbaa !5
  call void @llvm.lifetime.start.p0(i64 4, ptr nonnull %distrib.i.i) #13
  store i16 0, ptr %distrib.i.i, align 2, !tbaa !10
  %__b_.i.i.i.i = getelementptr inbounds %"class.std::__1::uniform_int_distribution<unsigned short>::param_type", ptr %distrib.i.i, i64 0, i32 1
  store i16 -1, ptr %__b_.i.i.i.i, align 2, !tbaa !13
  br label %for.body.i.i

for.body.i.i:                                     ; preds = %call.i.i.noexc.i, %invoke.cont.i
  %indvars.iv.i.i = phi i64 [ 0, %invoke.cont.i ], [ %indvars.iv.next.i.i, %call.i.i.noexc.i ]
  %call.i.i36.i = invoke noundef zeroext i16 @_ZNSt3__124uniform_int_distributionItEclINS_23mersenne_twister_engineImLm32ELm624ELm397ELm31ELm2567483615ELm11ELm4294967295ELm7ELm2636928640ELm15ELm4022730752ELm18ELm1812433253EEEEEtRT_RKNS1_10param_typeE(ptr noundef nonnull align 2 dereferenceable(4) %distrib.i.i, ptr noundef nonnull align 8 dereferenceable(5000) @_ZL3rng, ptr noundef nonnull align 2 dereferenceable(4) %distrib.i.i)
          to label %call.i.i.noexc.i unwind label %lpad5.loopexit.split-lp.i

call.i.i.noexc.i:                                 ; preds = %for.body.i.i
  %arrayidx.i.i.i = getelementptr inbounds i16, ptr %call.i, i64 %indvars.iv.i.i
  store i16 %call.i.i36.i, ptr %arrayidx.i.i.i, align 2, !tbaa !14
  %indvars.iv.next.i.i = add nuw nsw i64 %indvars.iv.i.i, 1
  %exitcond.not.i.i = icmp eq i64 %indvars.iv.next.i.i, 10000
  br i1 %exitcond.not.i.i, label %invoke.cont6.i, label %for.body.i.i, !llvm.loop !15

invoke.cont6.i:                                   ; preds = %call.i.i.noexc.i
  call void @llvm.lifetime.end.p0(i64 4, ptr nonnull %distrib.i.i) #13
  call void @llvm.lifetime.start.p0(i64 2, ptr nonnull %distrib.i37.i) #13
  store i8 0, ptr %distrib.i37.i, align 1, !tbaa !67
  %__b_.i.i.i38.i = getelementptr inbounds %"class.std::__1::uniform_int_distribution<unsigned char>::param_type", ptr %distrib.i37.i, i64 0, i32 1
  store i8 -1, ptr %__b_.i.i.i38.i, align 1, !tbaa !69
  br label %for.body.i43.i

for.body.i43.i:                                   ; preds = %call.i.i.noexc44.i, %invoke.cont6.i
  %indvars.iv.i39.i = phi i64 [ 0, %invoke.cont6.i ], [ %indvars.iv.next.i41.i, %call.i.i.noexc44.i ]
  %call.i.i45.i = invoke noundef zeroext i8 @_ZNSt3__124uniform_int_distributionIhEclINS_23mersenne_twister_engineImLm32ELm624ELm397ELm31ELm2567483615ELm11ELm4294967295ELm7ELm2636928640ELm15ELm4022730752ELm18ELm1812433253EEEEEhRT_RKNS1_10param_typeE(ptr noundef nonnull align 1 dereferenceable(2) %distrib.i37.i, ptr noundef nonnull align 8 dereferenceable(5000) @_ZL3rng, ptr noundef nonnull align 1 dereferenceable(2) %distrib.i37.i)
          to label %call.i.i.noexc44.i unwind label %lpad5.loopexit.i

call.i.i.noexc44.i:                               ; preds = %for.body.i43.i
  %0 = load ptr, ptr %B.i, align 8, !tbaa !23
  %arrayidx.i.i40.i = getelementptr inbounds i8, ptr %0, i64 %indvars.iv.i39.i
  store i8 %call.i.i45.i, ptr %arrayidx.i.i40.i, align 1, !tbaa !17
  %indvars.iv.next.i41.i = add nuw nsw i64 %indvars.iv.i39.i, 1
  %exitcond.not.i42.i = icmp eq i64 %indvars.iv.next.i41.i, 10000
  br i1 %exitcond.not.i42.i, label %invoke.cont9.i, label %for.body.i43.i, !llvm.loop !70

invoke.cont9.i:                                   ; preds = %call.i.i.noexc44.i
  call void @llvm.lifetime.end.p0(i64 2, ptr nonnull %distrib.i37.i) #13
  %error_occurred_.i.i.i = getelementptr inbounds %"class.benchmark::State", ptr %state, i64 0, i32 5
  %1 = load i8, ptr %error_occurred_.i.i.i, align 2, !tbaa !25, !range !40, !noundef !41
  %max_iterations.i.i.i = getelementptr inbounds %"class.benchmark::State", ptr %state, i64 0, i32 2
  %2 = load i64, ptr %max_iterations.i.i.i, align 8
  invoke void @_ZN9benchmark5State16StartKeepRunningEv(ptr noundef nonnull align 8 dereferenceable(120) %state)
          to label %for.cond.preheader.i unwind label %lpad11.i

for.cond.preheader.i:                             ; preds = %invoke.cont9.i
  %tobool.not.i.i.i = icmp ne i8 %1, 0
  %cmp.not.i.not6971.i = icmp eq i64 %2, 0
  %cmp.not.i.not69.i = select i1 %tobool.not.i.i.i, i1 true, i1 %cmp.not.i.not6971.i
  br i1 %cmp.not.i.not69.i, label %if.end.i.i, label %for.body.i.preheader, !prof !42

for.body.i.preheader:                             ; preds = %for.cond.preheader.i
  %uglygep2 = getelementptr i8, ptr %call.i, i64 20000
  br label %for.body.i

if.end.i.i:                                       ; preds = %invoke.cont19.i, %for.cond.preheader.i
  invoke void @_ZN9benchmark5State17FinishKeepRunningEv(ptr noundef nonnull align 8 dereferenceable(120) %state)
          to label %_ZNSt3__110unique_ptrIA_hNS_14default_deleteIS1_EEED2B7v170000Ev.exit.i unwind label %lpad11.i

_ZNSt3__110unique_ptrIA_hNS_14default_deleteIS1_EEED2B7v170000Ev.exit.i: ; preds = %if.end.i.i
  %3 = load ptr, ptr %B.i, align 8, !tbaa !23
  store ptr null, ptr %B.i, align 8, !tbaa !23
  %tobool.not.i.i47.i = icmp eq ptr %3, null
  br i1 %tobool.not.i.i47.i, label %_ZL35benchForTruncOrZextVecWithAddInLoopIthEvRN9benchmark5StateEPFvPKT_PT0_iE.exit, label %_ZNKSt3__114default_deleteIA_hEclB7v170000IhEENS2_20_EnableIfConvertibleIT_E4typeEPS5_.exit.i.i48.i

_ZNKSt3__114default_deleteIA_hEclB7v170000IhEENS2_20_EnableIfConvertibleIT_E4typeEPS5_.exit.i.i48.i: ; preds = %_ZNSt3__110unique_ptrIA_hNS_14default_deleteIS1_EEED2B7v170000Ev.exit.i
  call void @_ZdaPv(ptr noundef nonnull %3) #15
  br label %_ZL35benchForTruncOrZextVecWithAddInLoopIthEvRN9benchmark5StateEPFvPKT_PT0_iE.exit

lpad.i:                                           ; preds = %entry
  %4 = landingpad { ptr, i32 }
          cleanup
  br label %_ZNSt3__110unique_ptrIA_tNS_14default_deleteIS1_EEED2B7v170000Ev.exit59.i

lpad5.loopexit.i:                                 ; preds = %for.body.i43.i
  %lpad.loopexit.i = landingpad { ptr, i32 }
          cleanup
  br label %ehcleanup24.i

lpad5.loopexit.split-lp.i:                        ; preds = %for.body.i.i
  %lpad.loopexit.split-lp.i = landingpad { ptr, i32 }
          cleanup
  br label %ehcleanup24.i

lpad11.i:                                         ; preds = %if.end.i.i, %invoke.cont9.i
  %5 = landingpad { ptr, i32 }
          cleanup
  br label %ehcleanup24.i

for.body.i:                                       ; preds = %for.body.i.preheader, %invoke.cont19.i
  %__begin1.sroa.0.070.i = phi i64 [ %dec.i.i, %invoke.cont19.i ], [ %2, %for.body.i.preheader ]
  %6 = load i64, ptr %B.i, align 8
  call void asm sideeffect "", "=*r|m,0,~{memory},~{dirflag},~{fpsr},~{flags}"(ptr nonnull elementtype(%"class.std::__1::unique_ptr.55") %B.i, i64 %6) #13, !srcloc !43
  fence syncscope("singlethread") acq_rel
  %7 = load ptr, ptr %B.i, align 8, !tbaa !23
  %uglygep = getelementptr i8, ptr %7, i64 10000
  %bound0 = icmp ult ptr %7, %uglygep2
  %bound1 = icmp ult ptr %call.i, %uglygep
  %found.conflict = and i1 %bound0, %bound1
  br i1 %found.conflict, label %for.body.i1.preheader, label %vector.body

vector.body:                                      ; preds = %for.body.i, %vector.body
  %index = phi i64 [ %index.next, %vector.body ], [ 0, %for.body.i ]
  %8 = getelementptr inbounds i16, ptr %call.i, i64 %index
  %wide.load = load <8 x i16>, ptr %8, align 2, !tbaa !14, !alias.scope !71
  %9 = getelementptr inbounds i16, ptr %8, i64 8
  %wide.load3 = load <8 x i16>, ptr %9, align 2, !tbaa !14, !alias.scope !71
  %10 = getelementptr inbounds i16, ptr %8, i64 16
  %wide.load4 = load <8 x i16>, ptr %10, align 2, !tbaa !14, !alias.scope !71
  %11 = getelementptr inbounds i16, ptr %8, i64 24
  %wide.load5 = load <8 x i16>, ptr %11, align 2, !tbaa !14, !alias.scope !71
  %12 = trunc <8 x i16> %wide.load to <8 x i8>
  %13 = trunc <8 x i16> %wide.load3 to <8 x i8>
  %14 = trunc <8 x i16> %wide.load4 to <8 x i8>
  %15 = trunc <8 x i16> %wide.load5 to <8 x i8>
  %16 = getelementptr inbounds i8, ptr %7, i64 %index
  %wide.load6 = load <8 x i8>, ptr %16, align 1, !tbaa !17, !alias.scope !74, !noalias !71
  %17 = getelementptr inbounds i8, ptr %16, i64 8
  %wide.load7 = load <8 x i8>, ptr %17, align 1, !tbaa !17, !alias.scope !74, !noalias !71
  %18 = getelementptr inbounds i8, ptr %16, i64 16
  %wide.load8 = load <8 x i8>, ptr %18, align 1, !tbaa !17, !alias.scope !74, !noalias !71
  %19 = getelementptr inbounds i8, ptr %16, i64 24
  %wide.load9 = load <8 x i8>, ptr %19, align 1, !tbaa !17, !alias.scope !74, !noalias !71
  %20 = add <8 x i8> %wide.load6, %12
  %21 = add <8 x i8> %wide.load7, %13
  %22 = add <8 x i8> %wide.load8, %14
  %23 = add <8 x i8> %wide.load9, %15
  store <8 x i8> %20, ptr %16, align 1, !tbaa !17, !alias.scope !74, !noalias !71
  store <8 x i8> %21, ptr %17, align 1, !tbaa !17, !alias.scope !74, !noalias !71
  store <8 x i8> %22, ptr %18, align 1, !tbaa !17, !alias.scope !74, !noalias !71
  store <8 x i8> %23, ptr %19, align 1, !tbaa !17, !alias.scope !74, !noalias !71
  %index.next = add nuw i64 %index, 32
  %24 = icmp eq i64 %index.next, 9984
  br i1 %24, label %for.body.i1.preheader, label %vector.body, !llvm.loop !76

for.body.i1.preheader:                            ; preds = %vector.body, %for.body.i
  %indvars.iv.i.ph = phi i64 [ 0, %for.body.i ], [ 9984, %vector.body ]
  br label %for.body.i1

for.body.i1:                                      ; preds = %for.body.i1, %for.body.i1.preheader
  %indvars.iv.i = phi i64 [ %indvars.iv.i.ph, %for.body.i1.preheader ], [ %indvars.iv.next.i.3, %for.body.i1 ]
  %arrayidx.i = getelementptr inbounds i16, ptr %call.i, i64 %indvars.iv.i
  %25 = load i16, ptr %arrayidx.i, align 2, !tbaa !14
  %conv.i = trunc i16 %25 to i8
  %arrayidx2.i = getelementptr inbounds i8, ptr %7, i64 %indvars.iv.i
  %26 = load i8, ptr %arrayidx2.i, align 1, !tbaa !17
  %add.i = add i8 %26, %conv.i
  store i8 %add.i, ptr %arrayidx2.i, align 1, !tbaa !17
  %indvars.iv.next.i = or i64 %indvars.iv.i, 1
  %arrayidx.i.1 = getelementptr inbounds i16, ptr %call.i, i64 %indvars.iv.next.i
  %27 = load i16, ptr %arrayidx.i.1, align 2, !tbaa !14
  %conv.i.1 = trunc i16 %27 to i8
  %arrayidx2.i.1 = getelementptr inbounds i8, ptr %7, i64 %indvars.iv.next.i
  %28 = load i8, ptr %arrayidx2.i.1, align 1, !tbaa !17
  %add.i.1 = add i8 %28, %conv.i.1
  store i8 %add.i.1, ptr %arrayidx2.i.1, align 1, !tbaa !17
  %indvars.iv.next.i.1 = or i64 %indvars.iv.i, 2
  %arrayidx.i.2 = getelementptr inbounds i16, ptr %call.i, i64 %indvars.iv.next.i.1
  %29 = load i16, ptr %arrayidx.i.2, align 2, !tbaa !14
  %conv.i.2 = trunc i16 %29 to i8
  %arrayidx2.i.2 = getelementptr inbounds i8, ptr %7, i64 %indvars.iv.next.i.1
  %30 = load i8, ptr %arrayidx2.i.2, align 1, !tbaa !17
  %add.i.2 = add i8 %30, %conv.i.2
  store i8 %add.i.2, ptr %arrayidx2.i.2, align 1, !tbaa !17
  %indvars.iv.next.i.2 = or i64 %indvars.iv.i, 3
  %arrayidx.i.3 = getelementptr inbounds i16, ptr %call.i, i64 %indvars.iv.next.i.2
  %31 = load i16, ptr %arrayidx.i.3, align 2, !tbaa !14
  %conv.i.3 = trunc i16 %31 to i8
  %arrayidx2.i.3 = getelementptr inbounds i8, ptr %7, i64 %indvars.iv.next.i.2
  %32 = load i8, ptr %arrayidx2.i.3, align 1, !tbaa !17
  %add.i.3 = add i8 %32, %conv.i.3
  store i8 %add.i.3, ptr %arrayidx2.i.3, align 1, !tbaa !17
  %indvars.iv.next.i.3 = add nuw nsw i64 %indvars.iv.i, 4
  %exitcond.not.i.3 = icmp eq i64 %indvars.iv.next.i.3, 10000
  br i1 %exitcond.not.i.3, label %invoke.cont19.i, label %for.body.i1, !llvm.loop !77

invoke.cont19.i:                                  ; preds = %for.body.i1
  %dec.i.i = add i64 %__begin1.sroa.0.070.i, -1
  %cmp.not.i.not.i = icmp eq i64 %dec.i.i, 0
  br i1 %cmp.not.i.not.i, label %if.end.i.i, label %for.body.i, !prof !42

ehcleanup24.i:                                    ; preds = %lpad11.i, %lpad5.loopexit.split-lp.i, %lpad5.loopexit.i
  %.pn.pn.pn.i = phi { ptr, i32 } [ %5, %lpad11.i ], [ %lpad.loopexit.i, %lpad5.loopexit.i ], [ %lpad.loopexit.split-lp.i, %lpad5.loopexit.split-lp.i ]
  %.pr.i = load ptr, ptr %B.i, align 8, !tbaa !23
  store ptr null, ptr %B.i, align 8, !tbaa !23
  %tobool.not.i.i54.i = icmp eq ptr %.pr.i, null
  br i1 %tobool.not.i.i54.i, label %_ZNSt3__110unique_ptrIA_tNS_14default_deleteIS1_EEED2B7v170000Ev.exit59.i, label %_ZNKSt3__114default_deleteIA_hEclB7v170000IhEENS2_20_EnableIfConvertibleIT_E4typeEPS5_.exit.i.i55.i

_ZNKSt3__114default_deleteIA_hEclB7v170000IhEENS2_20_EnableIfConvertibleIT_E4typeEPS5_.exit.i.i55.i: ; preds = %ehcleanup24.i
  call void @_ZdaPv(ptr noundef nonnull %.pr.i) #15
  br label %_ZNSt3__110unique_ptrIA_tNS_14default_deleteIS1_EEED2B7v170000Ev.exit59.i

_ZNSt3__110unique_ptrIA_tNS_14default_deleteIS1_EEED2B7v170000Ev.exit59.i: ; preds = %_ZNKSt3__114default_deleteIA_hEclB7v170000IhEENS2_20_EnableIfConvertibleIT_E4typeEPS5_.exit.i.i55.i, %ehcleanup24.i, %lpad.i
  %.pn.pn.pn.pn.pn.i = phi { ptr, i32 } [ %4, %lpad.i ], [ %.pn.pn.pn.i, %ehcleanup24.i ], [ %.pn.pn.pn.i, %_ZNKSt3__114default_deleteIA_hEclB7v170000IhEENS2_20_EnableIfConvertibleIT_E4typeEPS5_.exit.i.i55.i ]
  call void @llvm.lifetime.end.p0(i64 8, ptr nonnull %B.i) #13
  call void @_ZdaPv(ptr noundef nonnull %call.i) #15
  resume { ptr, i32 } %.pn.pn.pn.pn.pn.i

_ZL35benchForTruncOrZextVecWithAddInLoopIthEvRN9benchmark5StateEPFvPKT_PT0_iE.exit: ; preds = %_ZNSt3__110unique_ptrIA_hNS_14default_deleteIS1_EEED2B7v170000Ev.exit.i, %_ZNKSt3__114default_deleteIA_hEclB7v170000IhEENS2_20_EnableIfConvertibleIT_E4typeEPS5_.exit.i.i48.i
  call void @llvm.lifetime.end.p0(i64 8, ptr nonnull %B.i) #13
  call void @_ZdaPv(ptr noundef nonnull %call.i) #15
  ret void
}

; Function Attrs: uwtable
define dso_local void @_Z68benchForTruncOrZextVecWithAddInLoopWithVW16From_uint16_t_To_uint8_t_RN9benchmark5StateE(ptr noundef nonnull align 8 dereferenceable(120) %state) #1 personality ptr @__gxx_personality_v0 {
entry:
  %distrib.i37.i = alloca %"class.std::__1::uniform_int_distribution.61", align 1
  %distrib.i.i = alloca %"class.std::__1::uniform_int_distribution", align 2
  %B.i = alloca %"class.std::__1::unique_ptr.55", align 8
  %call.i = tail call noalias noundef nonnull dereferenceable(20000) ptr @_Znam(i64 noundef 20000) #12
  call void @llvm.lifetime.start.p0(i64 8, ptr nonnull %B.i) #13
  %call1.i = invoke noalias noundef nonnull dereferenceable(10000) ptr @_Znam(i64 noundef 10000) #12
          to label %invoke.cont.i unwind label %lpad.i

invoke.cont.i:                                    ; preds = %entry
  store ptr %call1.i, ptr %B.i, align 8, !tbaa !5
  call void @llvm.lifetime.start.p0(i64 4, ptr nonnull %distrib.i.i) #13
  store i16 0, ptr %distrib.i.i, align 2, !tbaa !10
  %__b_.i.i.i.i = getelementptr inbounds %"class.std::__1::uniform_int_distribution<unsigned short>::param_type", ptr %distrib.i.i, i64 0, i32 1
  store i16 -1, ptr %__b_.i.i.i.i, align 2, !tbaa !13
  br label %for.body.i.i

for.body.i.i:                                     ; preds = %call.i.i.noexc.i, %invoke.cont.i
  %indvars.iv.i.i = phi i64 [ 0, %invoke.cont.i ], [ %indvars.iv.next.i.i, %call.i.i.noexc.i ]
  %call.i.i36.i = invoke noundef zeroext i16 @_ZNSt3__124uniform_int_distributionItEclINS_23mersenne_twister_engineImLm32ELm624ELm397ELm31ELm2567483615ELm11ELm4294967295ELm7ELm2636928640ELm15ELm4022730752ELm18ELm1812433253EEEEEtRT_RKNS1_10param_typeE(ptr noundef nonnull align 2 dereferenceable(4) %distrib.i.i, ptr noundef nonnull align 8 dereferenceable(5000) @_ZL3rng, ptr noundef nonnull align 2 dereferenceable(4) %distrib.i.i)
          to label %call.i.i.noexc.i unwind label %lpad5.loopexit.split-lp.i

call.i.i.noexc.i:                                 ; preds = %for.body.i.i
  %arrayidx.i.i.i = getelementptr inbounds i16, ptr %call.i, i64 %indvars.iv.i.i
  store i16 %call.i.i36.i, ptr %arrayidx.i.i.i, align 2, !tbaa !14
  %indvars.iv.next.i.i = add nuw nsw i64 %indvars.iv.i.i, 1
  %exitcond.not.i.i = icmp eq i64 %indvars.iv.next.i.i, 10000
  br i1 %exitcond.not.i.i, label %invoke.cont6.i, label %for.body.i.i, !llvm.loop !15

invoke.cont6.i:                                   ; preds = %call.i.i.noexc.i
  call void @llvm.lifetime.end.p0(i64 4, ptr nonnull %distrib.i.i) #13
  call void @llvm.lifetime.start.p0(i64 2, ptr nonnull %distrib.i37.i) #13
  store i8 0, ptr %distrib.i37.i, align 1, !tbaa !67
  %__b_.i.i.i38.i = getelementptr inbounds %"class.std::__1::uniform_int_distribution<unsigned char>::param_type", ptr %distrib.i37.i, i64 0, i32 1
  store i8 -1, ptr %__b_.i.i.i38.i, align 1, !tbaa !69
  br label %for.body.i43.i

for.body.i43.i:                                   ; preds = %call.i.i.noexc44.i, %invoke.cont6.i
  %indvars.iv.i39.i = phi i64 [ 0, %invoke.cont6.i ], [ %indvars.iv.next.i41.i, %call.i.i.noexc44.i ]
  %call.i.i45.i = invoke noundef zeroext i8 @_ZNSt3__124uniform_int_distributionIhEclINS_23mersenne_twister_engineImLm32ELm624ELm397ELm31ELm2567483615ELm11ELm4294967295ELm7ELm2636928640ELm15ELm4022730752ELm18ELm1812433253EEEEEhRT_RKNS1_10param_typeE(ptr noundef nonnull align 1 dereferenceable(2) %distrib.i37.i, ptr noundef nonnull align 8 dereferenceable(5000) @_ZL3rng, ptr noundef nonnull align 1 dereferenceable(2) %distrib.i37.i)
          to label %call.i.i.noexc44.i unwind label %lpad5.loopexit.i

call.i.i.noexc44.i:                               ; preds = %for.body.i43.i
  %0 = load ptr, ptr %B.i, align 8, !tbaa !23
  %arrayidx.i.i40.i = getelementptr inbounds i8, ptr %0, i64 %indvars.iv.i39.i
  store i8 %call.i.i45.i, ptr %arrayidx.i.i40.i, align 1, !tbaa !17
  %indvars.iv.next.i41.i = add nuw nsw i64 %indvars.iv.i39.i, 1
  %exitcond.not.i42.i = icmp eq i64 %indvars.iv.next.i41.i, 10000
  br i1 %exitcond.not.i42.i, label %invoke.cont9.i, label %for.body.i43.i, !llvm.loop !70

invoke.cont9.i:                                   ; preds = %call.i.i.noexc44.i
  call void @llvm.lifetime.end.p0(i64 2, ptr nonnull %distrib.i37.i) #13
  %error_occurred_.i.i.i = getelementptr inbounds %"class.benchmark::State", ptr %state, i64 0, i32 5
  %1 = load i8, ptr %error_occurred_.i.i.i, align 2, !tbaa !25, !range !40, !noundef !41
  %max_iterations.i.i.i = getelementptr inbounds %"class.benchmark::State", ptr %state, i64 0, i32 2
  %2 = load i64, ptr %max_iterations.i.i.i, align 8
  invoke void @_ZN9benchmark5State16StartKeepRunningEv(ptr noundef nonnull align 8 dereferenceable(120) %state)
          to label %for.cond.preheader.i unwind label %lpad11.i

for.cond.preheader.i:                             ; preds = %invoke.cont9.i
  %tobool.not.i.i.i = icmp ne i8 %1, 0
  %cmp.not.i.not6971.i = icmp eq i64 %2, 0
  %cmp.not.i.not69.i = select i1 %tobool.not.i.i.i, i1 true, i1 %cmp.not.i.not6971.i
  br i1 %cmp.not.i.not69.i, label %if.end.i.i, label %for.body.i.preheader, !prof !42

for.body.i.preheader:                             ; preds = %for.cond.preheader.i
  %uglygep2 = getelementptr i8, ptr %call.i, i64 20000
  br label %for.body.i

if.end.i.i:                                       ; preds = %invoke.cont19.i, %for.cond.preheader.i
  invoke void @_ZN9benchmark5State17FinishKeepRunningEv(ptr noundef nonnull align 8 dereferenceable(120) %state)
          to label %_ZNSt3__110unique_ptrIA_hNS_14default_deleteIS1_EEED2B7v170000Ev.exit.i unwind label %lpad11.i

_ZNSt3__110unique_ptrIA_hNS_14default_deleteIS1_EEED2B7v170000Ev.exit.i: ; preds = %if.end.i.i
  %3 = load ptr, ptr %B.i, align 8, !tbaa !23
  store ptr null, ptr %B.i, align 8, !tbaa !23
  %tobool.not.i.i47.i = icmp eq ptr %3, null
  br i1 %tobool.not.i.i47.i, label %_ZL35benchForTruncOrZextVecWithAddInLoopIthEvRN9benchmark5StateEPFvPKT_PT0_iE.exit, label %_ZNKSt3__114default_deleteIA_hEclB7v170000IhEENS2_20_EnableIfConvertibleIT_E4typeEPS5_.exit.i.i48.i

_ZNKSt3__114default_deleteIA_hEclB7v170000IhEENS2_20_EnableIfConvertibleIT_E4typeEPS5_.exit.i.i48.i: ; preds = %_ZNSt3__110unique_ptrIA_hNS_14default_deleteIS1_EEED2B7v170000Ev.exit.i
  call void @_ZdaPv(ptr noundef nonnull %3) #15
  br label %_ZL35benchForTruncOrZextVecWithAddInLoopIthEvRN9benchmark5StateEPFvPKT_PT0_iE.exit

lpad.i:                                           ; preds = %entry
  %4 = landingpad { ptr, i32 }
          cleanup
  br label %_ZNSt3__110unique_ptrIA_tNS_14default_deleteIS1_EEED2B7v170000Ev.exit59.i

lpad5.loopexit.i:                                 ; preds = %for.body.i43.i
  %lpad.loopexit.i = landingpad { ptr, i32 }
          cleanup
  br label %ehcleanup24.i

lpad5.loopexit.split-lp.i:                        ; preds = %for.body.i.i
  %lpad.loopexit.split-lp.i = landingpad { ptr, i32 }
          cleanup
  br label %ehcleanup24.i

lpad11.i:                                         ; preds = %if.end.i.i, %invoke.cont9.i
  %5 = landingpad { ptr, i32 }
          cleanup
  br label %ehcleanup24.i

for.body.i:                                       ; preds = %for.body.i.preheader, %invoke.cont19.i
  %__begin1.sroa.0.070.i = phi i64 [ %dec.i.i, %invoke.cont19.i ], [ %2, %for.body.i.preheader ]
  %6 = load i64, ptr %B.i, align 8
  call void asm sideeffect "", "=*r|m,0,~{memory},~{dirflag},~{fpsr},~{flags}"(ptr nonnull elementtype(%"class.std::__1::unique_ptr.55") %B.i, i64 %6) #13, !srcloc !43
  fence syncscope("singlethread") acq_rel
  %7 = load ptr, ptr %B.i, align 8, !tbaa !23
  %uglygep = getelementptr i8, ptr %7, i64 10000
  %bound0 = icmp ult ptr %7, %uglygep2
  %bound1 = icmp ult ptr %call.i, %uglygep
  %found.conflict = and i1 %bound0, %bound1
  br i1 %found.conflict, label %for.body.i1.preheader, label %vector.body

vector.body:                                      ; preds = %for.body.i, %vector.body
  %index = phi i64 [ %index.next, %vector.body ], [ 0, %for.body.i ]
  %8 = getelementptr inbounds i16, ptr %call.i, i64 %index
  %wide.load = load <16 x i16>, ptr %8, align 2, !tbaa !14, !alias.scope !78
  %9 = getelementptr inbounds i16, ptr %8, i64 16
  %wide.load3 = load <16 x i16>, ptr %9, align 2, !tbaa !14, !alias.scope !78
  %10 = getelementptr inbounds i16, ptr %8, i64 32
  %wide.load4 = load <16 x i16>, ptr %10, align 2, !tbaa !14, !alias.scope !78
  %11 = getelementptr inbounds i16, ptr %8, i64 48
  %wide.load5 = load <16 x i16>, ptr %11, align 2, !tbaa !14, !alias.scope !78
  %12 = trunc <16 x i16> %wide.load to <16 x i8>
  %13 = trunc <16 x i16> %wide.load3 to <16 x i8>
  %14 = trunc <16 x i16> %wide.load4 to <16 x i8>
  %15 = trunc <16 x i16> %wide.load5 to <16 x i8>
  %16 = getelementptr inbounds i8, ptr %7, i64 %index
  %wide.load6 = load <16 x i8>, ptr %16, align 1, !tbaa !17, !alias.scope !81, !noalias !78
  %17 = getelementptr inbounds i8, ptr %16, i64 16
  %wide.load7 = load <16 x i8>, ptr %17, align 1, !tbaa !17, !alias.scope !81, !noalias !78
  %18 = getelementptr inbounds i8, ptr %16, i64 32
  %wide.load8 = load <16 x i8>, ptr %18, align 1, !tbaa !17, !alias.scope !81, !noalias !78
  %19 = getelementptr inbounds i8, ptr %16, i64 48
  %wide.load9 = load <16 x i8>, ptr %19, align 1, !tbaa !17, !alias.scope !81, !noalias !78
  %20 = add <16 x i8> %wide.load6, %12
  %21 = add <16 x i8> %wide.load7, %13
  %22 = add <16 x i8> %wide.load8, %14
  %23 = add <16 x i8> %wide.load9, %15
  store <16 x i8> %20, ptr %16, align 1, !tbaa !17, !alias.scope !81, !noalias !78
  store <16 x i8> %21, ptr %17, align 1, !tbaa !17, !alias.scope !81, !noalias !78
  store <16 x i8> %22, ptr %18, align 1, !tbaa !17, !alias.scope !81, !noalias !78
  store <16 x i8> %23, ptr %19, align 1, !tbaa !17, !alias.scope !81, !noalias !78
  %index.next = add nuw i64 %index, 64
  %24 = icmp eq i64 %index.next, 9984
  br i1 %24, label %for.body.i1.preheader, label %vector.body, !llvm.loop !83

for.body.i1.preheader:                            ; preds = %vector.body, %for.body.i
  %indvars.iv.i.ph = phi i64 [ 0, %for.body.i ], [ 9984, %vector.body ]
  br label %for.body.i1

for.body.i1:                                      ; preds = %for.body.i1, %for.body.i1.preheader
  %indvars.iv.i = phi i64 [ %indvars.iv.i.ph, %for.body.i1.preheader ], [ %indvars.iv.next.i.3, %for.body.i1 ]
  %arrayidx.i = getelementptr inbounds i16, ptr %call.i, i64 %indvars.iv.i
  %25 = load i16, ptr %arrayidx.i, align 2, !tbaa !14
  %conv.i = trunc i16 %25 to i8
  %arrayidx2.i = getelementptr inbounds i8, ptr %7, i64 %indvars.iv.i
  %26 = load i8, ptr %arrayidx2.i, align 1, !tbaa !17
  %add.i = add i8 %26, %conv.i
  store i8 %add.i, ptr %arrayidx2.i, align 1, !tbaa !17
  %indvars.iv.next.i = or i64 %indvars.iv.i, 1
  %arrayidx.i.1 = getelementptr inbounds i16, ptr %call.i, i64 %indvars.iv.next.i
  %27 = load i16, ptr %arrayidx.i.1, align 2, !tbaa !14
  %conv.i.1 = trunc i16 %27 to i8
  %arrayidx2.i.1 = getelementptr inbounds i8, ptr %7, i64 %indvars.iv.next.i
  %28 = load i8, ptr %arrayidx2.i.1, align 1, !tbaa !17
  %add.i.1 = add i8 %28, %conv.i.1
  store i8 %add.i.1, ptr %arrayidx2.i.1, align 1, !tbaa !17
  %indvars.iv.next.i.1 = or i64 %indvars.iv.i, 2
  %arrayidx.i.2 = getelementptr inbounds i16, ptr %call.i, i64 %indvars.iv.next.i.1
  %29 = load i16, ptr %arrayidx.i.2, align 2, !tbaa !14
  %conv.i.2 = trunc i16 %29 to i8
  %arrayidx2.i.2 = getelementptr inbounds i8, ptr %7, i64 %indvars.iv.next.i.1
  %30 = load i8, ptr %arrayidx2.i.2, align 1, !tbaa !17
  %add.i.2 = add i8 %30, %conv.i.2
  store i8 %add.i.2, ptr %arrayidx2.i.2, align 1, !tbaa !17
  %indvars.iv.next.i.2 = or i64 %indvars.iv.i, 3
  %arrayidx.i.3 = getelementptr inbounds i16, ptr %call.i, i64 %indvars.iv.next.i.2
  %31 = load i16, ptr %arrayidx.i.3, align 2, !tbaa !14
  %conv.i.3 = trunc i16 %31 to i8
  %arrayidx2.i.3 = getelementptr inbounds i8, ptr %7, i64 %indvars.iv.next.i.2
  %32 = load i8, ptr %arrayidx2.i.3, align 1, !tbaa !17
  %add.i.3 = add i8 %32, %conv.i.3
  store i8 %add.i.3, ptr %arrayidx2.i.3, align 1, !tbaa !17
  %indvars.iv.next.i.3 = add nuw nsw i64 %indvars.iv.i, 4
  %exitcond.not.i.3 = icmp eq i64 %indvars.iv.next.i.3, 10000
  br i1 %exitcond.not.i.3, label %invoke.cont19.i, label %for.body.i1, !llvm.loop !84

invoke.cont19.i:                                  ; preds = %for.body.i1
  %dec.i.i = add i64 %__begin1.sroa.0.070.i, -1
  %cmp.not.i.not.i = icmp eq i64 %dec.i.i, 0
  br i1 %cmp.not.i.not.i, label %if.end.i.i, label %for.body.i, !prof !42

ehcleanup24.i:                                    ; preds = %lpad11.i, %lpad5.loopexit.split-lp.i, %lpad5.loopexit.i
  %.pn.pn.pn.i = phi { ptr, i32 } [ %5, %lpad11.i ], [ %lpad.loopexit.i, %lpad5.loopexit.i ], [ %lpad.loopexit.split-lp.i, %lpad5.loopexit.split-lp.i ]
  %.pr.i = load ptr, ptr %B.i, align 8, !tbaa !23
  store ptr null, ptr %B.i, align 8, !tbaa !23
  %tobool.not.i.i54.i = icmp eq ptr %.pr.i, null
  br i1 %tobool.not.i.i54.i, label %_ZNSt3__110unique_ptrIA_tNS_14default_deleteIS1_EEED2B7v170000Ev.exit59.i, label %_ZNKSt3__114default_deleteIA_hEclB7v170000IhEENS2_20_EnableIfConvertibleIT_E4typeEPS5_.exit.i.i55.i

_ZNKSt3__114default_deleteIA_hEclB7v170000IhEENS2_20_EnableIfConvertibleIT_E4typeEPS5_.exit.i.i55.i: ; preds = %ehcleanup24.i
  call void @_ZdaPv(ptr noundef nonnull %.pr.i) #15
  br label %_ZNSt3__110unique_ptrIA_tNS_14default_deleteIS1_EEED2B7v170000Ev.exit59.i

_ZNSt3__110unique_ptrIA_tNS_14default_deleteIS1_EEED2B7v170000Ev.exit59.i: ; preds = %_ZNKSt3__114default_deleteIA_hEclB7v170000IhEENS2_20_EnableIfConvertibleIT_E4typeEPS5_.exit.i.i55.i, %ehcleanup24.i, %lpad.i
  %.pn.pn.pn.pn.pn.i = phi { ptr, i32 } [ %4, %lpad.i ], [ %.pn.pn.pn.i, %ehcleanup24.i ], [ %.pn.pn.pn.i, %_ZNKSt3__114default_deleteIA_hEclB7v170000IhEENS2_20_EnableIfConvertibleIT_E4typeEPS5_.exit.i.i55.i ]
  call void @llvm.lifetime.end.p0(i64 8, ptr nonnull %B.i) #13
  call void @_ZdaPv(ptr noundef nonnull %call.i) #15
  resume { ptr, i32 } %.pn.pn.pn.pn.pn.i

_ZL35benchForTruncOrZextVecWithAddInLoopIthEvRN9benchmark5StateEPFvPKT_PT0_iE.exit: ; preds = %_ZNSt3__110unique_ptrIA_hNS_14default_deleteIS1_EEED2B7v170000Ev.exit.i, %_ZNKSt3__114default_deleteIA_hEclB7v170000IhEENS2_20_EnableIfConvertibleIT_E4typeEPS5_.exit.i.i48.i
  call void @llvm.lifetime.end.p0(i64 8, ptr nonnull %B.i) #13
  call void @_ZdaPv(ptr noundef nonnull %call.i) #15
  ret void
}

; Function Attrs: uwtable
define dso_local void @_Z60benchForTruncOrZextVecWithAddInLoopFrom_uint16_t_To_uint8_t_RN9benchmark5StateE(ptr noundef nonnull align 8 dereferenceable(120) %state) #1 personality ptr @__gxx_personality_v0 {
entry:
  %distrib.i37.i = alloca %"class.std::__1::uniform_int_distribution.61", align 1
  %distrib.i.i = alloca %"class.std::__1::uniform_int_distribution", align 2
  %B.i = alloca %"class.std::__1::unique_ptr.55", align 8
  %call.i = tail call noalias noundef nonnull dereferenceable(20000) ptr @_Znam(i64 noundef 20000) #12
  call void @llvm.lifetime.start.p0(i64 8, ptr nonnull %B.i) #13
  %call1.i = invoke noalias noundef nonnull dereferenceable(10000) ptr @_Znam(i64 noundef 10000) #12
          to label %invoke.cont.i unwind label %lpad.i

invoke.cont.i:                                    ; preds = %entry
  store ptr %call1.i, ptr %B.i, align 8, !tbaa !5
  call void @llvm.lifetime.start.p0(i64 4, ptr nonnull %distrib.i.i) #13
  store i16 0, ptr %distrib.i.i, align 2, !tbaa !10
  %__b_.i.i.i.i = getelementptr inbounds %"class.std::__1::uniform_int_distribution<unsigned short>::param_type", ptr %distrib.i.i, i64 0, i32 1
  store i16 -1, ptr %__b_.i.i.i.i, align 2, !tbaa !13
  br label %for.body.i.i

for.body.i.i:                                     ; preds = %call.i.i.noexc.i, %invoke.cont.i
  %indvars.iv.i.i = phi i64 [ 0, %invoke.cont.i ], [ %indvars.iv.next.i.i, %call.i.i.noexc.i ]
  %call.i.i36.i = invoke noundef zeroext i16 @_ZNSt3__124uniform_int_distributionItEclINS_23mersenne_twister_engineImLm32ELm624ELm397ELm31ELm2567483615ELm11ELm4294967295ELm7ELm2636928640ELm15ELm4022730752ELm18ELm1812433253EEEEEtRT_RKNS1_10param_typeE(ptr noundef nonnull align 2 dereferenceable(4) %distrib.i.i, ptr noundef nonnull align 8 dereferenceable(5000) @_ZL3rng, ptr noundef nonnull align 2 dereferenceable(4) %distrib.i.i)
          to label %call.i.i.noexc.i unwind label %lpad5.loopexit.split-lp.i

call.i.i.noexc.i:                                 ; preds = %for.body.i.i
  %arrayidx.i.i.i = getelementptr inbounds i16, ptr %call.i, i64 %indvars.iv.i.i
  store i16 %call.i.i36.i, ptr %arrayidx.i.i.i, align 2, !tbaa !14
  %indvars.iv.next.i.i = add nuw nsw i64 %indvars.iv.i.i, 1
  %exitcond.not.i.i = icmp eq i64 %indvars.iv.next.i.i, 10000
  br i1 %exitcond.not.i.i, label %invoke.cont6.i, label %for.body.i.i, !llvm.loop !15

invoke.cont6.i:                                   ; preds = %call.i.i.noexc.i
  call void @llvm.lifetime.end.p0(i64 4, ptr nonnull %distrib.i.i) #13
  call void @llvm.lifetime.start.p0(i64 2, ptr nonnull %distrib.i37.i) #13
  store i8 0, ptr %distrib.i37.i, align 1, !tbaa !67
  %__b_.i.i.i38.i = getelementptr inbounds %"class.std::__1::uniform_int_distribution<unsigned char>::param_type", ptr %distrib.i37.i, i64 0, i32 1
  store i8 -1, ptr %__b_.i.i.i38.i, align 1, !tbaa !69
  br label %for.body.i43.i

for.body.i43.i:                                   ; preds = %call.i.i.noexc44.i, %invoke.cont6.i
  %indvars.iv.i39.i = phi i64 [ 0, %invoke.cont6.i ], [ %indvars.iv.next.i41.i, %call.i.i.noexc44.i ]
  %call.i.i45.i = invoke noundef zeroext i8 @_ZNSt3__124uniform_int_distributionIhEclINS_23mersenne_twister_engineImLm32ELm624ELm397ELm31ELm2567483615ELm11ELm4294967295ELm7ELm2636928640ELm15ELm4022730752ELm18ELm1812433253EEEEEhRT_RKNS1_10param_typeE(ptr noundef nonnull align 1 dereferenceable(2) %distrib.i37.i, ptr noundef nonnull align 8 dereferenceable(5000) @_ZL3rng, ptr noundef nonnull align 1 dereferenceable(2) %distrib.i37.i)
          to label %call.i.i.noexc44.i unwind label %lpad5.loopexit.i

call.i.i.noexc44.i:                               ; preds = %for.body.i43.i
  %0 = load ptr, ptr %B.i, align 8, !tbaa !23
  %arrayidx.i.i40.i = getelementptr inbounds i8, ptr %0, i64 %indvars.iv.i39.i
  store i8 %call.i.i45.i, ptr %arrayidx.i.i40.i, align 1, !tbaa !17
  %indvars.iv.next.i41.i = add nuw nsw i64 %indvars.iv.i39.i, 1
  %exitcond.not.i42.i = icmp eq i64 %indvars.iv.next.i41.i, 10000
  br i1 %exitcond.not.i42.i, label %invoke.cont9.i, label %for.body.i43.i, !llvm.loop !70

invoke.cont9.i:                                   ; preds = %call.i.i.noexc44.i
  call void @llvm.lifetime.end.p0(i64 2, ptr nonnull %distrib.i37.i) #13
  %error_occurred_.i.i.i = getelementptr inbounds %"class.benchmark::State", ptr %state, i64 0, i32 5
  %1 = load i8, ptr %error_occurred_.i.i.i, align 2, !tbaa !25, !range !40, !noundef !41
  %max_iterations.i.i.i = getelementptr inbounds %"class.benchmark::State", ptr %state, i64 0, i32 2
  %2 = load i64, ptr %max_iterations.i.i.i, align 8
  invoke void @_ZN9benchmark5State16StartKeepRunningEv(ptr noundef nonnull align 8 dereferenceable(120) %state)
          to label %for.cond.preheader.i unwind label %lpad11.i

for.cond.preheader.i:                             ; preds = %invoke.cont9.i
  %tobool.not.i.i.i = icmp ne i8 %1, 0
  %cmp.not.i.not6971.i = icmp eq i64 %2, 0
  %cmp.not.i.not69.i = select i1 %tobool.not.i.i.i, i1 true, i1 %cmp.not.i.not6971.i
  br i1 %cmp.not.i.not69.i, label %if.end.i.i, label %for.body.i.preheader, !prof !42

for.body.i.preheader:                             ; preds = %for.cond.preheader.i
  %uglygep2 = getelementptr i8, ptr %call.i, i64 20000
  br label %for.body.i

if.end.i.i:                                       ; preds = %invoke.cont19.i, %for.cond.preheader.i
  invoke void @_ZN9benchmark5State17FinishKeepRunningEv(ptr noundef nonnull align 8 dereferenceable(120) %state)
          to label %_ZNSt3__110unique_ptrIA_hNS_14default_deleteIS1_EEED2B7v170000Ev.exit.i unwind label %lpad11.i

_ZNSt3__110unique_ptrIA_hNS_14default_deleteIS1_EEED2B7v170000Ev.exit.i: ; preds = %if.end.i.i
  %3 = load ptr, ptr %B.i, align 8, !tbaa !23
  store ptr null, ptr %B.i, align 8, !tbaa !23
  %tobool.not.i.i47.i = icmp eq ptr %3, null
  br i1 %tobool.not.i.i47.i, label %_ZL35benchForTruncOrZextVecWithAddInLoopIthEvRN9benchmark5StateEPFvPKT_PT0_iE.exit, label %_ZNKSt3__114default_deleteIA_hEclB7v170000IhEENS2_20_EnableIfConvertibleIT_E4typeEPS5_.exit.i.i48.i

_ZNKSt3__114default_deleteIA_hEclB7v170000IhEENS2_20_EnableIfConvertibleIT_E4typeEPS5_.exit.i.i48.i: ; preds = %_ZNSt3__110unique_ptrIA_hNS_14default_deleteIS1_EEED2B7v170000Ev.exit.i
  call void @_ZdaPv(ptr noundef nonnull %3) #15
  br label %_ZL35benchForTruncOrZextVecWithAddInLoopIthEvRN9benchmark5StateEPFvPKT_PT0_iE.exit

lpad.i:                                           ; preds = %entry
  %4 = landingpad { ptr, i32 }
          cleanup
  br label %_ZNSt3__110unique_ptrIA_tNS_14default_deleteIS1_EEED2B7v170000Ev.exit59.i

lpad5.loopexit.i:                                 ; preds = %for.body.i43.i
  %lpad.loopexit.i = landingpad { ptr, i32 }
          cleanup
  br label %ehcleanup24.i

lpad5.loopexit.split-lp.i:                        ; preds = %for.body.i.i
  %lpad.loopexit.split-lp.i = landingpad { ptr, i32 }
          cleanup
  br label %ehcleanup24.i

lpad11.i:                                         ; preds = %if.end.i.i, %invoke.cont9.i
  %5 = landingpad { ptr, i32 }
          cleanup
  br label %ehcleanup24.i

for.body.i:                                       ; preds = %for.body.i.preheader, %invoke.cont19.i
  %__begin1.sroa.0.070.i = phi i64 [ %dec.i.i, %invoke.cont19.i ], [ %2, %for.body.i.preheader ]
  %6 = load i64, ptr %B.i, align 8
  call void asm sideeffect "", "=*r|m,0,~{memory},~{dirflag},~{fpsr},~{flags}"(ptr nonnull elementtype(%"class.std::__1::unique_ptr.55") %B.i, i64 %6) #13, !srcloc !43
  fence syncscope("singlethread") acq_rel
  %7 = load ptr, ptr %B.i, align 8, !tbaa !23
  %uglygep = getelementptr i8, ptr %7, i64 10000
  %bound0 = icmp ult ptr %7, %uglygep2
  %bound1 = icmp ult ptr %call.i, %uglygep
  %found.conflict = and i1 %bound0, %bound1
  br i1 %found.conflict, label %for.body.i1, label %vector.body

vector.body:                                      ; preds = %for.body.i, %vector.body.1
  %index = phi i64 [ %index.next.1, %vector.body.1 ], [ 0, %for.body.i ]
  %8 = getelementptr inbounds i16, ptr %call.i, i64 %index
  %wide.load = load <8 x i16>, ptr %8, align 2, !tbaa !14, !alias.scope !85
  %9 = getelementptr inbounds i16, ptr %8, i64 8
  %wide.load3 = load <8 x i16>, ptr %9, align 2, !tbaa !14, !alias.scope !85
  %10 = trunc <8 x i16> %wide.load to <8 x i8>
  %11 = trunc <8 x i16> %wide.load3 to <8 x i8>
  %12 = getelementptr inbounds i8, ptr %7, i64 %index
  %wide.load4 = load <8 x i8>, ptr %12, align 1, !tbaa !17, !alias.scope !88, !noalias !85
  %13 = getelementptr inbounds i8, ptr %12, i64 8
  %wide.load5 = load <8 x i8>, ptr %13, align 1, !tbaa !17, !alias.scope !88, !noalias !85
  %14 = add <8 x i8> %wide.load4, %10
  %15 = add <8 x i8> %wide.load5, %11
  store <8 x i8> %14, ptr %12, align 1, !tbaa !17, !alias.scope !88, !noalias !85
  store <8 x i8> %15, ptr %13, align 1, !tbaa !17, !alias.scope !88, !noalias !85
  %index.next = or i64 %index, 16
  %16 = icmp eq i64 %index.next, 10000
  br i1 %16, label %invoke.cont19.i, label %vector.body.1, !llvm.loop !90

vector.body.1:                                    ; preds = %vector.body
  %17 = getelementptr inbounds i16, ptr %call.i, i64 %index.next
  %wide.load.1 = load <8 x i16>, ptr %17, align 2, !tbaa !14, !alias.scope !85
  %18 = getelementptr inbounds i16, ptr %17, i64 8
  %wide.load3.1 = load <8 x i16>, ptr %18, align 2, !tbaa !14, !alias.scope !85
  %19 = trunc <8 x i16> %wide.load.1 to <8 x i8>
  %20 = trunc <8 x i16> %wide.load3.1 to <8 x i8>
  %21 = getelementptr inbounds i8, ptr %7, i64 %index.next
  %wide.load4.1 = load <8 x i8>, ptr %21, align 1, !tbaa !17, !alias.scope !88, !noalias !85
  %22 = getelementptr inbounds i8, ptr %21, i64 8
  %wide.load5.1 = load <8 x i8>, ptr %22, align 1, !tbaa !17, !alias.scope !88, !noalias !85
  %23 = add <8 x i8> %wide.load4.1, %19
  %24 = add <8 x i8> %wide.load5.1, %20
  store <8 x i8> %23, ptr %21, align 1, !tbaa !17, !alias.scope !88, !noalias !85
  store <8 x i8> %24, ptr %22, align 1, !tbaa !17, !alias.scope !88, !noalias !85
  %index.next.1 = add nuw nsw i64 %index, 32
  br label %vector.body

for.body.i1:                                      ; preds = %for.body.i, %for.body.i1
  %indvars.iv.i = phi i64 [ %indvars.iv.next.i.3, %for.body.i1 ], [ 0, %for.body.i ]
  %arrayidx.i = getelementptr inbounds i16, ptr %call.i, i64 %indvars.iv.i
  %25 = load i16, ptr %arrayidx.i, align 2, !tbaa !14
  %conv.i = trunc i16 %25 to i8
  %arrayidx2.i = getelementptr inbounds i8, ptr %7, i64 %indvars.iv.i
  %26 = load i8, ptr %arrayidx2.i, align 1, !tbaa !17
  %add.i = add i8 %26, %conv.i
  store i8 %add.i, ptr %arrayidx2.i, align 1, !tbaa !17
  %indvars.iv.next.i = or i64 %indvars.iv.i, 1
  %arrayidx.i.1 = getelementptr inbounds i16, ptr %call.i, i64 %indvars.iv.next.i
  %27 = load i16, ptr %arrayidx.i.1, align 2, !tbaa !14
  %conv.i.1 = trunc i16 %27 to i8
  %arrayidx2.i.1 = getelementptr inbounds i8, ptr %7, i64 %indvars.iv.next.i
  %28 = load i8, ptr %arrayidx2.i.1, align 1, !tbaa !17
  %add.i.1 = add i8 %28, %conv.i.1
  store i8 %add.i.1, ptr %arrayidx2.i.1, align 1, !tbaa !17
  %indvars.iv.next.i.1 = or i64 %indvars.iv.i, 2
  %arrayidx.i.2 = getelementptr inbounds i16, ptr %call.i, i64 %indvars.iv.next.i.1
  %29 = load i16, ptr %arrayidx.i.2, align 2, !tbaa !14
  %conv.i.2 = trunc i16 %29 to i8
  %arrayidx2.i.2 = getelementptr inbounds i8, ptr %7, i64 %indvars.iv.next.i.1
  %30 = load i8, ptr %arrayidx2.i.2, align 1, !tbaa !17
  %add.i.2 = add i8 %30, %conv.i.2
  store i8 %add.i.2, ptr %arrayidx2.i.2, align 1, !tbaa !17
  %indvars.iv.next.i.2 = or i64 %indvars.iv.i, 3
  %arrayidx.i.3 = getelementptr inbounds i16, ptr %call.i, i64 %indvars.iv.next.i.2
  %31 = load i16, ptr %arrayidx.i.3, align 2, !tbaa !14
  %conv.i.3 = trunc i16 %31 to i8
  %arrayidx2.i.3 = getelementptr inbounds i8, ptr %7, i64 %indvars.iv.next.i.2
  %32 = load i8, ptr %arrayidx2.i.3, align 1, !tbaa !17
  %add.i.3 = add i8 %32, %conv.i.3
  store i8 %add.i.3, ptr %arrayidx2.i.3, align 1, !tbaa !17
  %indvars.iv.next.i.3 = add nuw nsw i64 %indvars.iv.i, 4
  %exitcond.not.i.3 = icmp eq i64 %indvars.iv.next.i.3, 10000
  br i1 %exitcond.not.i.3, label %invoke.cont19.i, label %for.body.i1, !llvm.loop !91

invoke.cont19.i:                                  ; preds = %vector.body, %for.body.i1
  %dec.i.i = add i64 %__begin1.sroa.0.070.i, -1
  %cmp.not.i.not.i = icmp eq i64 %dec.i.i, 0
  br i1 %cmp.not.i.not.i, label %if.end.i.i, label %for.body.i, !prof !42

ehcleanup24.i:                                    ; preds = %lpad11.i, %lpad5.loopexit.split-lp.i, %lpad5.loopexit.i
  %.pn.pn.pn.i = phi { ptr, i32 } [ %5, %lpad11.i ], [ %lpad.loopexit.i, %lpad5.loopexit.i ], [ %lpad.loopexit.split-lp.i, %lpad5.loopexit.split-lp.i ]
  %.pr.i = load ptr, ptr %B.i, align 8, !tbaa !23
  store ptr null, ptr %B.i, align 8, !tbaa !23
  %tobool.not.i.i54.i = icmp eq ptr %.pr.i, null
  br i1 %tobool.not.i.i54.i, label %_ZNSt3__110unique_ptrIA_tNS_14default_deleteIS1_EEED2B7v170000Ev.exit59.i, label %_ZNKSt3__114default_deleteIA_hEclB7v170000IhEENS2_20_EnableIfConvertibleIT_E4typeEPS5_.exit.i.i55.i

_ZNKSt3__114default_deleteIA_hEclB7v170000IhEENS2_20_EnableIfConvertibleIT_E4typeEPS5_.exit.i.i55.i: ; preds = %ehcleanup24.i
  call void @_ZdaPv(ptr noundef nonnull %.pr.i) #15
  br label %_ZNSt3__110unique_ptrIA_tNS_14default_deleteIS1_EEED2B7v170000Ev.exit59.i

_ZNSt3__110unique_ptrIA_tNS_14default_deleteIS1_EEED2B7v170000Ev.exit59.i: ; preds = %_ZNKSt3__114default_deleteIA_hEclB7v170000IhEENS2_20_EnableIfConvertibleIT_E4typeEPS5_.exit.i.i55.i, %ehcleanup24.i, %lpad.i
  %.pn.pn.pn.pn.pn.i = phi { ptr, i32 } [ %4, %lpad.i ], [ %.pn.pn.pn.i, %ehcleanup24.i ], [ %.pn.pn.pn.i, %_ZNKSt3__114default_deleteIA_hEclB7v170000IhEENS2_20_EnableIfConvertibleIT_E4typeEPS5_.exit.i.i55.i ]
  call void @llvm.lifetime.end.p0(i64 8, ptr nonnull %B.i) #13
  call void @_ZdaPv(ptr noundef nonnull %call.i) #15
  resume { ptr, i32 } %.pn.pn.pn.pn.pn.i

_ZL35benchForTruncOrZextVecWithAddInLoopIthEvRN9benchmark5StateEPFvPKT_PT0_iE.exit: ; preds = %_ZNSt3__110unique_ptrIA_hNS_14default_deleteIS1_EEED2B7v170000Ev.exit.i, %_ZNKSt3__114default_deleteIA_hEclB7v170000IhEENS2_20_EnableIfConvertibleIT_E4typeEPS5_.exit.i.i48.i
  call void @llvm.lifetime.end.p0(i64 8, ptr nonnull %B.i) #13
  call void @_ZdaPv(ptr noundef nonnull %call.i) #15
  ret void
}

; Function Attrs: uwtable
define dso_local void @_Z60benchForTruncOrZextVecInLoopWithVW8From_uint32_t_To_uint8_t_RN9benchmark5StateE(ptr noundef nonnull align 8 dereferenceable(120) %state) #1 personality ptr @__gxx_personality_v0 {
entry:
  %__c.addr.i103.i = alloca i8, align 1
  %__c.addr.i.i = alloca i8, align 1
  %distrib.i.i = alloca %"class.std::__1::uniform_int_distribution.68", align 4
  %B.i = alloca %"class.std::__1::unique_ptr.55", align 8
  %call.i = tail call noalias noundef nonnull dereferenceable(40000) ptr @_Znam(i64 noundef 40000) #12
  call void @llvm.lifetime.start.p0(i64 8, ptr nonnull %B.i) #13
  %call1.i = invoke noalias noundef nonnull dereferenceable(10000) ptr @_Znam(i64 noundef 10000) #12
          to label %invoke.cont.i unwind label %lpad.i

invoke.cont.i:                                    ; preds = %entry
  store ptr %call1.i, ptr %B.i, align 8, !tbaa !5
  %call4.i = invoke noalias noundef nonnull dereferenceable(10000) ptr @_Znam(i64 noundef 10000) #12
          to label %invoke.cont3.i unwind label %ehcleanup65.thread.i

invoke.cont3.i:                                   ; preds = %invoke.cont.i
  call void @llvm.lifetime.start.p0(i64 8, ptr nonnull %distrib.i.i) #13
  store i32 0, ptr %distrib.i.i, align 4, !tbaa !92
  %__b_.i.i.i.i = getelementptr inbounds %"class.std::__1::uniform_int_distribution<unsigned int>::param_type", ptr %distrib.i.i, i64 0, i32 1
  store i32 -1, ptr %__b_.i.i.i.i, align 4, !tbaa !94
  br label %for.body.i.i

for.body.i.i:                                     ; preds = %call.i.i.noexc.i, %invoke.cont3.i
  %indvars.iv.i.i = phi i64 [ 0, %invoke.cont3.i ], [ %indvars.iv.next.i.i, %call.i.i.noexc.i ]
  %call.i.i85.i = invoke noundef i32 @_ZNSt3__124uniform_int_distributionIjEclINS_23mersenne_twister_engineImLm32ELm624ELm397ELm31ELm2567483615ELm11ELm4294967295ELm7ELm2636928640ELm15ELm4022730752ELm18ELm1812433253EEEEEjRT_RKNS1_10param_typeE(ptr noundef nonnull align 4 dereferenceable(8) %distrib.i.i, ptr noundef nonnull align 8 dereferenceable(5000) @_ZL3rng, ptr noundef nonnull align 4 dereferenceable(8) %distrib.i.i)
          to label %call.i.i.noexc.i unwind label %lpad5.loopexit.i

call.i.i.noexc.i:                                 ; preds = %for.body.i.i
  %arrayidx.i.i.i = getelementptr inbounds i32, ptr %call.i, i64 %indvars.iv.i.i
  store i32 %call.i.i85.i, ptr %arrayidx.i.i.i, align 4, !tbaa !95
  %indvars.iv.next.i.i = add nuw nsw i64 %indvars.iv.i.i, 1
  %exitcond.not.i.i = icmp eq i64 %indvars.iv.next.i.i, 10000
  br i1 %exitcond.not.i.i, label %invoke.cont6.i, label %for.body.i.i, !llvm.loop !96

invoke.cont6.i:                                   ; preds = %call.i.i.noexc.i
  call void @llvm.lifetime.end.p0(i64 8, ptr nonnull %distrib.i.i) #13
  br label %for.body.i89.i

for.body.i89.i:                                   ; preds = %for.body.i89.i, %invoke.cont6.i
  %indvars.iv.i86.i = phi i64 [ 0, %invoke.cont6.i ], [ %indvars.iv.next.i87.i.4, %for.body.i89.i ]
  %arrayidx.i.i = getelementptr inbounds i32, ptr %call.i, i64 %indvars.iv.i86.i
  %0 = load i32, ptr %arrayidx.i.i, align 4, !tbaa !95
  %conv.i.i = trunc i32 %0 to i8
  %arrayidx2.i.i = getelementptr inbounds i8, ptr %call4.i, i64 %indvars.iv.i86.i
  store i8 %conv.i.i, ptr %arrayidx2.i.i, align 1, !tbaa !17
  %indvars.iv.next.i87.i = add nuw nsw i64 %indvars.iv.i86.i, 1
  %arrayidx.i.i.1 = getelementptr inbounds i32, ptr %call.i, i64 %indvars.iv.next.i87.i
  %1 = load i32, ptr %arrayidx.i.i.1, align 4, !tbaa !95
  %conv.i.i.1 = trunc i32 %1 to i8
  %arrayidx2.i.i.1 = getelementptr inbounds i8, ptr %call4.i, i64 %indvars.iv.next.i87.i
  store i8 %conv.i.i.1, ptr %arrayidx2.i.i.1, align 1, !tbaa !17
  %indvars.iv.next.i87.i.1 = add nuw nsw i64 %indvars.iv.i86.i, 2
  %arrayidx.i.i.2 = getelementptr inbounds i32, ptr %call.i, i64 %indvars.iv.next.i87.i.1
  %2 = load i32, ptr %arrayidx.i.i.2, align 4, !tbaa !95
  %conv.i.i.2 = trunc i32 %2 to i8
  %arrayidx2.i.i.2 = getelementptr inbounds i8, ptr %call4.i, i64 %indvars.iv.next.i87.i.1
  store i8 %conv.i.i.2, ptr %arrayidx2.i.i.2, align 1, !tbaa !17
  %indvars.iv.next.i87.i.2 = add nuw nsw i64 %indvars.iv.i86.i, 3
  %arrayidx.i.i.3 = getelementptr inbounds i32, ptr %call.i, i64 %indvars.iv.next.i87.i.2
  %3 = load i32, ptr %arrayidx.i.i.3, align 4, !tbaa !95
  %conv.i.i.3 = trunc i32 %3 to i8
  %arrayidx2.i.i.3 = getelementptr inbounds i8, ptr %call4.i, i64 %indvars.iv.next.i87.i.2
  store i8 %conv.i.i.3, ptr %arrayidx2.i.i.3, align 1, !tbaa !17
  %indvars.iv.next.i87.i.3 = add nuw nsw i64 %indvars.iv.i86.i, 4
  %arrayidx.i.i.4 = getelementptr inbounds i32, ptr %call.i, i64 %indvars.iv.next.i87.i.3
  %4 = load i32, ptr %arrayidx.i.i.4, align 4, !tbaa !95
  %conv.i.i.4 = trunc i32 %4 to i8
  %arrayidx2.i.i.4 = getelementptr inbounds i8, ptr %call4.i, i64 %indvars.iv.next.i87.i.3
  store i8 %conv.i.i.4, ptr %arrayidx2.i.i.4, align 1, !tbaa !17
  %indvars.iv.next.i87.i.4 = add nuw nsw i64 %indvars.iv.i86.i, 5
  %exitcond.not.i88.i.4 = icmp eq i64 %indvars.iv.next.i87.i.4, 10000
  br i1 %exitcond.not.i88.i.4, label %vector.body, label %for.body.i89.i, !llvm.loop !97

vector.body:                                      ; preds = %for.body.i89.i, %vector.body
  %index = phi i64 [ %index.next, %vector.body ], [ 0, %for.body.i89.i ]
  %5 = getelementptr inbounds i32, ptr %call.i, i64 %index
  %wide.load = load <8 x i32>, ptr %5, align 4, !tbaa !95
  %6 = getelementptr inbounds i32, ptr %5, i64 8
  %wide.load17 = load <8 x i32>, ptr %6, align 4, !tbaa !95
  %7 = getelementptr inbounds i32, ptr %5, i64 16
  %wide.load18 = load <8 x i32>, ptr %7, align 4, !tbaa !95
  %8 = getelementptr inbounds i32, ptr %5, i64 24
  %wide.load19 = load <8 x i32>, ptr %8, align 4, !tbaa !95
  %9 = trunc <8 x i32> %wide.load to <8 x i8>
  %10 = trunc <8 x i32> %wide.load17 to <8 x i8>
  %11 = trunc <8 x i32> %wide.load18 to <8 x i8>
  %12 = trunc <8 x i32> %wide.load19 to <8 x i8>
  %13 = getelementptr inbounds i8, ptr %call1.i, i64 %index
  store <8 x i8> %9, ptr %13, align 1, !tbaa !17
  %14 = getelementptr inbounds i8, ptr %13, i64 8
  store <8 x i8> %10, ptr %14, align 1, !tbaa !17
  %15 = getelementptr inbounds i8, ptr %13, i64 16
  store <8 x i8> %11, ptr %15, align 1, !tbaa !17
  %16 = getelementptr inbounds i8, ptr %13, i64 24
  store <8 x i8> %12, ptr %16, align 1, !tbaa !17
  %index.next = add nuw i64 %index, 32
  %17 = icmp eq i64 %index.next, 9984
  br i1 %17, label %for.body.i4, label %vector.body, !llvm.loop !98

for.body.i4:                                      ; preds = %vector.body
  %arrayidx.i = getelementptr inbounds i32, ptr %call.i, i64 9984
  %18 = load i32, ptr %arrayidx.i, align 4, !tbaa !95
  %conv.i = trunc i32 %18 to i8
  %arrayidx2.i = getelementptr inbounds i8, ptr %call1.i, i64 9984
  store i8 %conv.i, ptr %arrayidx2.i, align 1, !tbaa !17
  %arrayidx.i.1 = getelementptr inbounds i32, ptr %call.i, i64 9985
  %19 = load i32, ptr %arrayidx.i.1, align 4, !tbaa !95
  %conv.i.1 = trunc i32 %19 to i8
  %arrayidx2.i.1 = getelementptr inbounds i8, ptr %call1.i, i64 9985
  store i8 %conv.i.1, ptr %arrayidx2.i.1, align 1, !tbaa !17
  %arrayidx.i.2 = getelementptr inbounds i32, ptr %call.i, i64 9986
  %20 = load i32, ptr %arrayidx.i.2, align 4, !tbaa !95
  %conv.i.2 = trunc i32 %20 to i8
  %arrayidx2.i.2 = getelementptr inbounds i8, ptr %call1.i, i64 9986
  store i8 %conv.i.2, ptr %arrayidx2.i.2, align 1, !tbaa !17
  %arrayidx.i.3 = getelementptr inbounds i32, ptr %call.i, i64 9987
  %21 = load i32, ptr %arrayidx.i.3, align 4, !tbaa !95
  %conv.i.3 = trunc i32 %21 to i8
  %arrayidx2.i.3 = getelementptr inbounds i8, ptr %call1.i, i64 9987
  store i8 %conv.i.3, ptr %arrayidx2.i.3, align 1, !tbaa !17
  %arrayidx.i.4 = getelementptr inbounds i32, ptr %call.i, i64 9988
  %22 = load i32, ptr %arrayidx.i.4, align 4, !tbaa !95
  %conv.i.4 = trunc i32 %22 to i8
  %arrayidx2.i.4 = getelementptr inbounds i8, ptr %call1.i, i64 9988
  store i8 %conv.i.4, ptr %arrayidx2.i.4, align 1, !tbaa !17
  %arrayidx.i.5 = getelementptr inbounds i32, ptr %call.i, i64 9989
  %23 = load i32, ptr %arrayidx.i.5, align 4, !tbaa !95
  %conv.i.5 = trunc i32 %23 to i8
  %arrayidx2.i.5 = getelementptr inbounds i8, ptr %call1.i, i64 9989
  store i8 %conv.i.5, ptr %arrayidx2.i.5, align 1, !tbaa !17
  %arrayidx.i.6 = getelementptr inbounds i32, ptr %call.i, i64 9990
  %24 = load i32, ptr %arrayidx.i.6, align 4, !tbaa !95
  %conv.i.6 = trunc i32 %24 to i8
  %arrayidx2.i.6 = getelementptr inbounds i8, ptr %call1.i, i64 9990
  store i8 %conv.i.6, ptr %arrayidx2.i.6, align 1, !tbaa !17
  %arrayidx.i.7 = getelementptr inbounds i32, ptr %call.i, i64 9991
  %25 = load i32, ptr %arrayidx.i.7, align 4, !tbaa !95
  %conv.i.7 = trunc i32 %25 to i8
  %arrayidx2.i.7 = getelementptr inbounds i8, ptr %call1.i, i64 9991
  store i8 %conv.i.7, ptr %arrayidx2.i.7, align 1, !tbaa !17
  %arrayidx.i.8 = getelementptr inbounds i32, ptr %call.i, i64 9992
  %26 = load i32, ptr %arrayidx.i.8, align 4, !tbaa !95
  %conv.i.8 = trunc i32 %26 to i8
  %arrayidx2.i.8 = getelementptr inbounds i8, ptr %call1.i, i64 9992
  store i8 %conv.i.8, ptr %arrayidx2.i.8, align 1, !tbaa !17
  %arrayidx.i.9 = getelementptr inbounds i32, ptr %call.i, i64 9993
  %27 = load i32, ptr %arrayidx.i.9, align 4, !tbaa !95
  %conv.i.9 = trunc i32 %27 to i8
  %arrayidx2.i.9 = getelementptr inbounds i8, ptr %call1.i, i64 9993
  store i8 %conv.i.9, ptr %arrayidx2.i.9, align 1, !tbaa !17
  %arrayidx.i.10 = getelementptr inbounds i32, ptr %call.i, i64 9994
  %28 = load i32, ptr %arrayidx.i.10, align 4, !tbaa !95
  %conv.i.10 = trunc i32 %28 to i8
  %arrayidx2.i.10 = getelementptr inbounds i8, ptr %call1.i, i64 9994
  store i8 %conv.i.10, ptr %arrayidx2.i.10, align 1, !tbaa !17
  %arrayidx.i.11 = getelementptr inbounds i32, ptr %call.i, i64 9995
  %29 = load i32, ptr %arrayidx.i.11, align 4, !tbaa !95
  %conv.i.11 = trunc i32 %29 to i8
  %arrayidx2.i.11 = getelementptr inbounds i8, ptr %call1.i, i64 9995
  store i8 %conv.i.11, ptr %arrayidx2.i.11, align 1, !tbaa !17
  %arrayidx.i.12 = getelementptr inbounds i32, ptr %call.i, i64 9996
  %30 = load i32, ptr %arrayidx.i.12, align 4, !tbaa !95
  %conv.i.12 = trunc i32 %30 to i8
  %arrayidx2.i.12 = getelementptr inbounds i8, ptr %call1.i, i64 9996
  store i8 %conv.i.12, ptr %arrayidx2.i.12, align 1, !tbaa !17
  %arrayidx.i.13 = getelementptr inbounds i32, ptr %call.i, i64 9997
  %31 = load i32, ptr %arrayidx.i.13, align 4, !tbaa !95
  %conv.i.13 = trunc i32 %31 to i8
  %arrayidx2.i.13 = getelementptr inbounds i8, ptr %call1.i, i64 9997
  store i8 %conv.i.13, ptr %arrayidx2.i.13, align 1, !tbaa !17
  %arrayidx.i.14 = getelementptr inbounds i32, ptr %call.i, i64 9998
  %32 = load i32, ptr %arrayidx.i.14, align 4, !tbaa !95
  %conv.i.14 = trunc i32 %32 to i8
  %arrayidx2.i.14 = getelementptr inbounds i8, ptr %call1.i, i64 9998
  store i8 %conv.i.14, ptr %arrayidx2.i.14, align 1, !tbaa !17
  %arrayidx.i.15 = getelementptr inbounds i32, ptr %call.i, i64 9999
  %33 = load i32, ptr %arrayidx.i.15, align 4, !tbaa !95
  %conv.i.15 = trunc i32 %33 to i8
  %arrayidx2.i.15 = getelementptr inbounds i8, ptr %call1.i, i64 9999
  store i8 %conv.i.15, ptr %arrayidx2.i.15, align 1, !tbaa !17
  br label %for.body.i

lpad.i:                                           ; preds = %entry
  %34 = landingpad { ptr, i32 }
          cleanup
  br label %_ZNSt3__110unique_ptrIA_jNS_14default_deleteIS1_EEED2B7v170000Ev.exit119.i

ehcleanup65.thread.i:                             ; preds = %invoke.cont.i
  %35 = landingpad { ptr, i32 }
          cleanup
  store ptr null, ptr %B.i, align 8, !tbaa !23
  br label %_ZNKSt3__114default_deleteIA_hEclB7v170000IhEENS2_20_EnableIfConvertibleIT_E4typeEPS5_.exit.i.i115.i

lpad5.loopexit.i:                                 ; preds = %for.body.i.i
  %lpad.loopexit.i = landingpad { ptr, i32 }
          cleanup
  br label %ehcleanup65.i

for.body.i:                                       ; preds = %for.inc.i.4, %for.body.i4
  %indvars.iv.i = phi i64 [ 0, %for.body.i4 ], [ %indvars.iv.next.i.4, %for.inc.i.4 ]
  %arrayidx.i90.i = getelementptr inbounds i8, ptr %call1.i, i64 %indvars.iv.i
  %36 = load i8, ptr %arrayidx.i90.i, align 1, !tbaa !17
  %arrayidx.i91.i = getelementptr inbounds i8, ptr %call4.i, i64 %indvars.iv.i
  %37 = load i8, ptr %arrayidx.i91.i, align 1, !tbaa !17
  %cmp20.not.i = icmp eq i8 %36, %37
  br i1 %cmp20.not.i, label %for.inc.i, label %if.then.i

if.then.i:                                        ; preds = %for.inc.i.3, %for.inc.i.2, %for.inc.i.1, %for.inc.i, %for.body.i
  %indvars.iv.i.lcssa = phi i64 [ %indvars.iv.i, %for.body.i ], [ %indvars.iv.next.i, %for.inc.i ], [ %indvars.iv.next.i.1, %for.inc.i.1 ], [ %indvars.iv.next.i.2, %for.inc.i.2 ], [ %indvars.iv.next.i.3, %for.inc.i.3 ]
  %conv.le.i = and i64 %indvars.iv.i.lcssa, 4294967295
  %arrayidx.i91.le.i = getelementptr inbounds i8, ptr %call4.i, i64 %conv.le.i
  %call1.i92.i = invoke noundef nonnull align 8 dereferenceable(8) ptr @_ZNSt3__124__put_character_sequenceB7v170000IcNS_11char_traitsIcEEEERNS_13basic_ostreamIT_T0_EES7_PKS4_m(ptr noundef nonnull align 8 dereferenceable(8) @_ZNSt3__14cerrE, ptr noundef nonnull @.str.145, i64 noundef 34)
          to label %invoke.cont22.i unwind label %lpad21.i

invoke.cont22.i:                                  ; preds = %if.then.i
  %arrayidx.i93.i = getelementptr inbounds i32, ptr %call.i, i64 %conv.le.i
  %38 = load i32, ptr %arrayidx.i93.i, align 4, !tbaa !95
  %call28.i = invoke noundef nonnull align 8 dereferenceable(8) ptr @_ZNSt3__113basic_ostreamIcNS_11char_traitsIcEEElsEj(ptr noundef nonnull align 8 dereferenceable(8) %call1.i92.i, i32 noundef %38)
          to label %invoke.cont27.i unwind label %lpad21.i

invoke.cont27.i:                                  ; preds = %invoke.cont22.i
  %call1.i95.i = invoke noundef nonnull align 8 dereferenceable(8) ptr @_ZNSt3__124__put_character_sequenceB7v170000IcNS_11char_traitsIcEEEERNS_13basic_ostreamIT_T0_EES7_PKS4_m(ptr noundef nonnull align 8 dereferenceable(8) %call28.i, ptr noundef nonnull @.str.146, i64 noundef 19)
          to label %invoke.cont29.i unwind label %lpad21.i

invoke.cont29.i:                                  ; preds = %invoke.cont27.i
  %arrayidx.i97.i = getelementptr inbounds i8, ptr %call1.i, i64 %conv.le.i
  %39 = load i8, ptr %arrayidx.i97.i, align 1, !tbaa !17
  call void @llvm.lifetime.start.p0(i64 1, ptr nonnull %__c.addr.i.i)
  store i8 %39, ptr %__c.addr.i.i, align 1, !tbaa !17
  %call.i98.i = invoke noundef nonnull align 8 dereferenceable(8) ptr @_ZNSt3__124__put_character_sequenceB7v170000IcNS_11char_traitsIcEEEERNS_13basic_ostreamIT_T0_EES7_PKS4_m(ptr noundef nonnull align 8 dereferenceable(8) %call1.i95.i, ptr noundef nonnull %__c.addr.i.i, i64 noundef 1)
          to label %invoke.cont33.i unwind label %lpad21.i

invoke.cont33.i:                                  ; preds = %invoke.cont29.i
  call void @llvm.lifetime.end.p0(i64 1, ptr nonnull %__c.addr.i.i)
  %call1.i100.i = invoke noundef nonnull align 8 dereferenceable(8) ptr @_ZNSt3__124__put_character_sequenceB7v170000IcNS_11char_traitsIcEEEERNS_13basic_ostreamIT_T0_EES7_PKS4_m(ptr noundef nonnull align 8 dereferenceable(8) %call.i98.i, ptr noundef nonnull @.str.147, i64 noundef 12)
          to label %invoke.cont35.i unwind label %lpad21.i

invoke.cont35.i:                                  ; preds = %invoke.cont33.i
  %40 = load i8, ptr %arrayidx.i91.le.i, align 1, !tbaa !17
  call void @llvm.lifetime.start.p0(i64 1, ptr nonnull %__c.addr.i103.i)
  store i8 %40, ptr %__c.addr.i103.i, align 1, !tbaa !17
  %call.i104.i = invoke noundef nonnull align 8 dereferenceable(8) ptr @_ZNSt3__124__put_character_sequenceB7v170000IcNS_11char_traitsIcEEEERNS_13basic_ostreamIT_T0_EES7_PKS4_m(ptr noundef nonnull align 8 dereferenceable(8) %call1.i100.i, ptr noundef nonnull %__c.addr.i103.i, i64 noundef 1)
          to label %invoke.cont39.i unwind label %lpad21.i

invoke.cont39.i:                                  ; preds = %invoke.cont35.i
  call void @llvm.lifetime.end.p0(i64 1, ptr nonnull %__c.addr.i103.i)
  %call42.i = invoke noundef nonnull align 8 dereferenceable(8) ptr @_ZNSt3__1lsB7v170000INS_11char_traitsIcEEEERNS_13basic_ostreamIcT_EES6_PKc(ptr noundef nonnull align 8 dereferenceable(8) %call.i104.i, ptr noundef nonnull @.str.148)
          to label %invoke.cont41.i unwind label %lpad21.i

invoke.cont41.i:                                  ; preds = %invoke.cont39.i
  call void @exit(i32 noundef 1) #14
  unreachable

lpad21.i:                                         ; preds = %invoke.cont39.i, %invoke.cont35.i, %invoke.cont33.i, %invoke.cont29.i, %invoke.cont27.i, %invoke.cont22.i, %if.then.i
  %41 = landingpad { ptr, i32 }
          cleanup
  br label %ehcleanup65.i

for.inc.i:                                        ; preds = %for.body.i
  %indvars.iv.next.i = add nuw nsw i64 %indvars.iv.i, 1
  %arrayidx.i90.i.1 = getelementptr inbounds i8, ptr %call1.i, i64 %indvars.iv.next.i
  %42 = load i8, ptr %arrayidx.i90.i.1, align 1, !tbaa !17
  %arrayidx.i91.i.1 = getelementptr inbounds i8, ptr %call4.i, i64 %indvars.iv.next.i
  %43 = load i8, ptr %arrayidx.i91.i.1, align 1, !tbaa !17
  %cmp20.not.i.1 = icmp eq i8 %42, %43
  br i1 %cmp20.not.i.1, label %for.inc.i.1, label %if.then.i

for.inc.i.1:                                      ; preds = %for.inc.i
  %indvars.iv.next.i.1 = add nuw nsw i64 %indvars.iv.i, 2
  %arrayidx.i90.i.2 = getelementptr inbounds i8, ptr %call1.i, i64 %indvars.iv.next.i.1
  %44 = load i8, ptr %arrayidx.i90.i.2, align 1, !tbaa !17
  %arrayidx.i91.i.2 = getelementptr inbounds i8, ptr %call4.i, i64 %indvars.iv.next.i.1
  %45 = load i8, ptr %arrayidx.i91.i.2, align 1, !tbaa !17
  %cmp20.not.i.2 = icmp eq i8 %44, %45
  br i1 %cmp20.not.i.2, label %for.inc.i.2, label %if.then.i

for.inc.i.2:                                      ; preds = %for.inc.i.1
  %indvars.iv.next.i.2 = add nuw nsw i64 %indvars.iv.i, 3
  %arrayidx.i90.i.3 = getelementptr inbounds i8, ptr %call1.i, i64 %indvars.iv.next.i.2
  %46 = load i8, ptr %arrayidx.i90.i.3, align 1, !tbaa !17
  %arrayidx.i91.i.3 = getelementptr inbounds i8, ptr %call4.i, i64 %indvars.iv.next.i.2
  %47 = load i8, ptr %arrayidx.i91.i.3, align 1, !tbaa !17
  %cmp20.not.i.3 = icmp eq i8 %46, %47
  br i1 %cmp20.not.i.3, label %for.inc.i.3, label %if.then.i

for.inc.i.3:                                      ; preds = %for.inc.i.2
  %indvars.iv.next.i.3 = add nuw nsw i64 %indvars.iv.i, 4
  %arrayidx.i90.i.4 = getelementptr inbounds i8, ptr %call1.i, i64 %indvars.iv.next.i.3
  %48 = load i8, ptr %arrayidx.i90.i.4, align 1, !tbaa !17
  %arrayidx.i91.i.4 = getelementptr inbounds i8, ptr %call4.i, i64 %indvars.iv.next.i.3
  %49 = load i8, ptr %arrayidx.i91.i.4, align 1, !tbaa !17
  %cmp20.not.i.4 = icmp eq i8 %48, %49
  br i1 %cmp20.not.i.4, label %for.inc.i.4, label %if.then.i

for.inc.i.4:                                      ; preds = %for.inc.i.3
  %indvars.iv.next.i.4 = add nuw nsw i64 %indvars.iv.i, 5
  %exitcond.not.i.4 = icmp eq i64 %indvars.iv.next.i.4, 10000
  br i1 %exitcond.not.i.4, label %invoke.cont44.i, label %for.body.i, !llvm.loop !99

invoke.cont44.i:                                  ; preds = %for.inc.i.4
  %error_occurred_.i.i.i = getelementptr inbounds %"class.benchmark::State", ptr %state, i64 0, i32 5
  %50 = load i8, ptr %error_occurred_.i.i.i, align 2, !tbaa !25, !range !40, !noundef !41
  %max_iterations.i.i.i = getelementptr inbounds %"class.benchmark::State", ptr %state, i64 0, i32 2
  %51 = load i64, ptr %max_iterations.i.i.i, align 8
  invoke void @_ZN9benchmark5State16StartKeepRunningEv(ptr noundef nonnull align 8 dereferenceable(120) %state)
          to label %for.cond49.preheader.i unwind label %lpad46.i

for.cond49.preheader.i:                           ; preds = %invoke.cont44.i
  %tobool.not.i.i.i = icmp ne i8 %50, 0
  %cmp.not.i.not137141.i = icmp eq i64 %51, 0
  %cmp.not.i.not137.i = select i1 %tobool.not.i.i.i, i1 true, i1 %cmp.not.i.not137141.i
  br i1 %cmp.not.i.not137.i, label %if.end.i.i, label %for.body53.i.preheader, !prof !42

for.body53.i.preheader:                           ; preds = %for.cond49.preheader.i
  %uglygep20 = getelementptr i8, ptr %call.i, i64 40000
  br label %for.body53.i

if.end.i.i:                                       ; preds = %invoke.cont58.i, %for.cond49.preheader.i
  invoke void @_ZN9benchmark5State17FinishKeepRunningEv(ptr noundef nonnull align 8 dereferenceable(120) %state)
          to label %_ZNSt3__110unique_ptrIA_hNS_14default_deleteIS1_EEED2B7v170000Ev.exit.i unwind label %lpad46.i

_ZNSt3__110unique_ptrIA_hNS_14default_deleteIS1_EEED2B7v170000Ev.exit.i: ; preds = %if.end.i.i
  call void @_ZdaPv(ptr noundef nonnull %call4.i) #15
  %52 = load ptr, ptr %B.i, align 8, !tbaa !23
  store ptr null, ptr %B.i, align 8, !tbaa !23
  %tobool.not.i.i107.i = icmp eq ptr %52, null
  br i1 %tobool.not.i.i107.i, label %_ZL28benchForTruncOrZextVecInLoopIjhEvRN9benchmark5StateEPFvPKT_PT0_iE.exit, label %_ZNKSt3__114default_deleteIA_hEclB7v170000IhEENS2_20_EnableIfConvertibleIT_E4typeEPS5_.exit.i.i108.i

_ZNKSt3__114default_deleteIA_hEclB7v170000IhEENS2_20_EnableIfConvertibleIT_E4typeEPS5_.exit.i.i108.i: ; preds = %_ZNSt3__110unique_ptrIA_hNS_14default_deleteIS1_EEED2B7v170000Ev.exit.i
  call void @_ZdaPv(ptr noundef nonnull %52) #15
  br label %_ZL28benchForTruncOrZextVecInLoopIjhEvRN9benchmark5StateEPFvPKT_PT0_iE.exit

lpad46.i:                                         ; preds = %if.end.i.i, %invoke.cont44.i
  %53 = landingpad { ptr, i32 }
          cleanup
  br label %ehcleanup65.i

for.body53.i:                                     ; preds = %for.body53.i.preheader, %invoke.cont58.i
  %__begin1.sroa.0.0138.i = phi i64 [ %dec.i.i, %invoke.cont58.i ], [ %51, %for.body53.i.preheader ]
  %54 = load i64, ptr %B.i, align 8
  call void asm sideeffect "", "=*r|m,0,~{memory},~{dirflag},~{fpsr},~{flags}"(ptr nonnull elementtype(%"class.std::__1::unique_ptr.55") %B.i, i64 %54) #13, !srcloc !43
  fence syncscope("singlethread") acq_rel
  %55 = load ptr, ptr %B.i, align 8, !tbaa !23
  %uglygep = getelementptr i8, ptr %55, i64 10000
  %bound0 = icmp ult ptr %55, %uglygep20
  %bound1 = icmp ult ptr %call.i, %uglygep
  %found.conflict = and i1 %bound0, %bound1
  br i1 %found.conflict, label %for.body.i11.preheader, label %vector.body26

vector.body26:                                    ; preds = %for.body53.i, %vector.body26
  %index27 = phi i64 [ %index.next32, %vector.body26 ], [ 0, %for.body53.i ]
  %56 = getelementptr inbounds i32, ptr %call.i, i64 %index27
  %wide.load28 = load <8 x i32>, ptr %56, align 4, !tbaa !95, !alias.scope !100
  %57 = getelementptr inbounds i32, ptr %56, i64 8
  %wide.load29 = load <8 x i32>, ptr %57, align 4, !tbaa !95, !alias.scope !100
  %58 = getelementptr inbounds i32, ptr %56, i64 16
  %wide.load30 = load <8 x i32>, ptr %58, align 4, !tbaa !95, !alias.scope !100
  %59 = getelementptr inbounds i32, ptr %56, i64 24
  %wide.load31 = load <8 x i32>, ptr %59, align 4, !tbaa !95, !alias.scope !100
  %60 = trunc <8 x i32> %wide.load28 to <8 x i8>
  %61 = trunc <8 x i32> %wide.load29 to <8 x i8>
  %62 = trunc <8 x i32> %wide.load30 to <8 x i8>
  %63 = trunc <8 x i32> %wide.load31 to <8 x i8>
  %64 = getelementptr inbounds i8, ptr %55, i64 %index27
  store <8 x i8> %60, ptr %64, align 1, !tbaa !17, !alias.scope !103, !noalias !100
  %65 = getelementptr inbounds i8, ptr %64, i64 8
  store <8 x i8> %61, ptr %65, align 1, !tbaa !17, !alias.scope !103, !noalias !100
  %66 = getelementptr inbounds i8, ptr %64, i64 16
  store <8 x i8> %62, ptr %66, align 1, !tbaa !17, !alias.scope !103, !noalias !100
  %67 = getelementptr inbounds i8, ptr %64, i64 24
  store <8 x i8> %63, ptr %67, align 1, !tbaa !17, !alias.scope !103, !noalias !100
  %index.next32 = add nuw i64 %index27, 32
  %68 = icmp eq i64 %index.next32, 9984
  br i1 %68, label %for.body.i11.preheader, label %vector.body26, !llvm.loop !105

for.body.i11.preheader:                           ; preds = %vector.body26, %for.body53.i
  %indvars.iv.i5.ph = phi i64 [ 0, %for.body53.i ], [ 9984, %vector.body26 ]
  br label %for.body.i11

for.body.i11:                                     ; preds = %for.body.i11, %for.body.i11.preheader
  %indvars.iv.i5 = phi i64 [ %indvars.iv.i5.ph, %for.body.i11.preheader ], [ %indvars.iv.next.i9.3, %for.body.i11 ]
  %arrayidx.i6 = getelementptr inbounds i32, ptr %call.i, i64 %indvars.iv.i5
  %69 = load i32, ptr %arrayidx.i6, align 4, !tbaa !95
  %conv.i7 = trunc i32 %69 to i8
  %arrayidx2.i8 = getelementptr inbounds i8, ptr %55, i64 %indvars.iv.i5
  store i8 %conv.i7, ptr %arrayidx2.i8, align 1, !tbaa !17
  %indvars.iv.next.i9 = or i64 %indvars.iv.i5, 1
  %arrayidx.i6.1 = getelementptr inbounds i32, ptr %call.i, i64 %indvars.iv.next.i9
  %70 = load i32, ptr %arrayidx.i6.1, align 4, !tbaa !95
  %conv.i7.1 = trunc i32 %70 to i8
  %arrayidx2.i8.1 = getelementptr inbounds i8, ptr %55, i64 %indvars.iv.next.i9
  store i8 %conv.i7.1, ptr %arrayidx2.i8.1, align 1, !tbaa !17
  %indvars.iv.next.i9.1 = or i64 %indvars.iv.i5, 2
  %arrayidx.i6.2 = getelementptr inbounds i32, ptr %call.i, i64 %indvars.iv.next.i9.1
  %71 = load i32, ptr %arrayidx.i6.2, align 4, !tbaa !95
  %conv.i7.2 = trunc i32 %71 to i8
  %arrayidx2.i8.2 = getelementptr inbounds i8, ptr %55, i64 %indvars.iv.next.i9.1
  store i8 %conv.i7.2, ptr %arrayidx2.i8.2, align 1, !tbaa !17
  %indvars.iv.next.i9.2 = or i64 %indvars.iv.i5, 3
  %arrayidx.i6.3 = getelementptr inbounds i32, ptr %call.i, i64 %indvars.iv.next.i9.2
  %72 = load i32, ptr %arrayidx.i6.3, align 4, !tbaa !95
  %conv.i7.3 = trunc i32 %72 to i8
  %arrayidx2.i8.3 = getelementptr inbounds i8, ptr %55, i64 %indvars.iv.next.i9.2
  store i8 %conv.i7.3, ptr %arrayidx2.i8.3, align 1, !tbaa !17
  %indvars.iv.next.i9.3 = add nuw nsw i64 %indvars.iv.i5, 4
  %exitcond.not.i10.3 = icmp eq i64 %indvars.iv.next.i9.3, 10000
  br i1 %exitcond.not.i10.3, label %invoke.cont58.i, label %for.body.i11, !llvm.loop !106

invoke.cont58.i:                                  ; preds = %for.body.i11
  %dec.i.i = add i64 %__begin1.sroa.0.0138.i, -1
  %cmp.not.i.not.i = icmp eq i64 %dec.i.i, 0
  br i1 %cmp.not.i.not.i, label %if.end.i.i, label %for.body53.i, !prof !42

ehcleanup65.i:                                    ; preds = %lpad46.i, %lpad21.i, %lpad5.loopexit.i
  %.pn79.i = phi { ptr, i32 } [ %41, %lpad21.i ], [ %53, %lpad46.i ], [ %lpad.loopexit.i, %lpad5.loopexit.i ]
  call void @_ZdaPv(ptr noundef nonnull %call4.i) #15
  %.pr.i = load ptr, ptr %B.i, align 8, !tbaa !23
  store ptr null, ptr %B.i, align 8, !tbaa !23
  %tobool.not.i.i114.i = icmp eq ptr %.pr.i, null
  br i1 %tobool.not.i.i114.i, label %_ZNSt3__110unique_ptrIA_jNS_14default_deleteIS1_EEED2B7v170000Ev.exit119.i, label %_ZNKSt3__114default_deleteIA_hEclB7v170000IhEENS2_20_EnableIfConvertibleIT_E4typeEPS5_.exit.i.i115.i

_ZNKSt3__114default_deleteIA_hEclB7v170000IhEENS2_20_EnableIfConvertibleIT_E4typeEPS5_.exit.i.i115.i: ; preds = %ehcleanup65.i, %ehcleanup65.thread.i
  %.pn79.pn133.i = phi { ptr, i32 } [ %35, %ehcleanup65.thread.i ], [ %.pn79.i, %ehcleanup65.i ]
  %73 = phi ptr [ %call1.i, %ehcleanup65.thread.i ], [ %.pr.i, %ehcleanup65.i ]
  call void @_ZdaPv(ptr noundef nonnull %73) #15
  br label %_ZNSt3__110unique_ptrIA_jNS_14default_deleteIS1_EEED2B7v170000Ev.exit119.i

_ZNSt3__110unique_ptrIA_jNS_14default_deleteIS1_EEED2B7v170000Ev.exit119.i: ; preds = %_ZNKSt3__114default_deleteIA_hEclB7v170000IhEENS2_20_EnableIfConvertibleIT_E4typeEPS5_.exit.i.i115.i, %ehcleanup65.i, %lpad.i
  %.pn79.pn.pn.i = phi { ptr, i32 } [ %34, %lpad.i ], [ %.pn79.i, %ehcleanup65.i ], [ %.pn79.pn133.i, %_ZNKSt3__114default_deleteIA_hEclB7v170000IhEENS2_20_EnableIfConvertibleIT_E4typeEPS5_.exit.i.i115.i ]
  call void @llvm.lifetime.end.p0(i64 8, ptr nonnull %B.i) #13
  call void @_ZdaPv(ptr noundef nonnull %call.i) #15
  resume { ptr, i32 } %.pn79.pn.pn.i

_ZL28benchForTruncOrZextVecInLoopIjhEvRN9benchmark5StateEPFvPKT_PT0_iE.exit: ; preds = %_ZNSt3__110unique_ptrIA_hNS_14default_deleteIS1_EEED2B7v170000Ev.exit.i, %_ZNKSt3__114default_deleteIA_hEclB7v170000IhEENS2_20_EnableIfConvertibleIT_E4typeEPS5_.exit.i.i108.i
  call void @llvm.lifetime.end.p0(i64 8, ptr nonnull %B.i) #13
  call void @_ZdaPv(ptr noundef nonnull %call.i) #15
  ret void
}

; Function Attrs: uwtable
define dso_local void @_Z61benchForTruncOrZextVecInLoopWithVW16From_uint32_t_To_uint8_t_RN9benchmark5StateE(ptr noundef nonnull align 8 dereferenceable(120) %state) #1 personality ptr @__gxx_personality_v0 {
entry:
  %__c.addr.i103.i = alloca i8, align 1
  %__c.addr.i.i = alloca i8, align 1
  %distrib.i.i = alloca %"class.std::__1::uniform_int_distribution.68", align 4
  %B.i = alloca %"class.std::__1::unique_ptr.55", align 8
  %call.i = tail call noalias noundef nonnull dereferenceable(40000) ptr @_Znam(i64 noundef 40000) #12
  call void @llvm.lifetime.start.p0(i64 8, ptr nonnull %B.i) #13
  %call1.i = invoke noalias noundef nonnull dereferenceable(10000) ptr @_Znam(i64 noundef 10000) #12
          to label %invoke.cont.i unwind label %lpad.i

invoke.cont.i:                                    ; preds = %entry
  store ptr %call1.i, ptr %B.i, align 8, !tbaa !5
  %call4.i = invoke noalias noundef nonnull dereferenceable(10000) ptr @_Znam(i64 noundef 10000) #12
          to label %invoke.cont3.i unwind label %ehcleanup65.thread.i

invoke.cont3.i:                                   ; preds = %invoke.cont.i
  call void @llvm.lifetime.start.p0(i64 8, ptr nonnull %distrib.i.i) #13
  store i32 0, ptr %distrib.i.i, align 4, !tbaa !92
  %__b_.i.i.i.i = getelementptr inbounds %"class.std::__1::uniform_int_distribution<unsigned int>::param_type", ptr %distrib.i.i, i64 0, i32 1
  store i32 -1, ptr %__b_.i.i.i.i, align 4, !tbaa !94
  br label %for.body.i.i

for.body.i.i:                                     ; preds = %call.i.i.noexc.i, %invoke.cont3.i
  %indvars.iv.i.i = phi i64 [ 0, %invoke.cont3.i ], [ %indvars.iv.next.i.i, %call.i.i.noexc.i ]
  %call.i.i85.i = invoke noundef i32 @_ZNSt3__124uniform_int_distributionIjEclINS_23mersenne_twister_engineImLm32ELm624ELm397ELm31ELm2567483615ELm11ELm4294967295ELm7ELm2636928640ELm15ELm4022730752ELm18ELm1812433253EEEEEjRT_RKNS1_10param_typeE(ptr noundef nonnull align 4 dereferenceable(8) %distrib.i.i, ptr noundef nonnull align 8 dereferenceable(5000) @_ZL3rng, ptr noundef nonnull align 4 dereferenceable(8) %distrib.i.i)
          to label %call.i.i.noexc.i unwind label %lpad5.loopexit.i

call.i.i.noexc.i:                                 ; preds = %for.body.i.i
  %arrayidx.i.i.i = getelementptr inbounds i32, ptr %call.i, i64 %indvars.iv.i.i
  store i32 %call.i.i85.i, ptr %arrayidx.i.i.i, align 4, !tbaa !95
  %indvars.iv.next.i.i = add nuw nsw i64 %indvars.iv.i.i, 1
  %exitcond.not.i.i = icmp eq i64 %indvars.iv.next.i.i, 10000
  br i1 %exitcond.not.i.i, label %invoke.cont6.i, label %for.body.i.i, !llvm.loop !96

invoke.cont6.i:                                   ; preds = %call.i.i.noexc.i
  call void @llvm.lifetime.end.p0(i64 8, ptr nonnull %distrib.i.i) #13
  br label %for.body.i89.i

for.body.i89.i:                                   ; preds = %for.body.i89.i, %invoke.cont6.i
  %indvars.iv.i86.i = phi i64 [ 0, %invoke.cont6.i ], [ %indvars.iv.next.i87.i.4, %for.body.i89.i ]
  %arrayidx.i.i = getelementptr inbounds i32, ptr %call.i, i64 %indvars.iv.i86.i
  %0 = load i32, ptr %arrayidx.i.i, align 4, !tbaa !95
  %conv.i.i = trunc i32 %0 to i8
  %arrayidx2.i.i = getelementptr inbounds i8, ptr %call4.i, i64 %indvars.iv.i86.i
  store i8 %conv.i.i, ptr %arrayidx2.i.i, align 1, !tbaa !17
  %indvars.iv.next.i87.i = add nuw nsw i64 %indvars.iv.i86.i, 1
  %arrayidx.i.i.1 = getelementptr inbounds i32, ptr %call.i, i64 %indvars.iv.next.i87.i
  %1 = load i32, ptr %arrayidx.i.i.1, align 4, !tbaa !95
  %conv.i.i.1 = trunc i32 %1 to i8
  %arrayidx2.i.i.1 = getelementptr inbounds i8, ptr %call4.i, i64 %indvars.iv.next.i87.i
  store i8 %conv.i.i.1, ptr %arrayidx2.i.i.1, align 1, !tbaa !17
  %indvars.iv.next.i87.i.1 = add nuw nsw i64 %indvars.iv.i86.i, 2
  %arrayidx.i.i.2 = getelementptr inbounds i32, ptr %call.i, i64 %indvars.iv.next.i87.i.1
  %2 = load i32, ptr %arrayidx.i.i.2, align 4, !tbaa !95
  %conv.i.i.2 = trunc i32 %2 to i8
  %arrayidx2.i.i.2 = getelementptr inbounds i8, ptr %call4.i, i64 %indvars.iv.next.i87.i.1
  store i8 %conv.i.i.2, ptr %arrayidx2.i.i.2, align 1, !tbaa !17
  %indvars.iv.next.i87.i.2 = add nuw nsw i64 %indvars.iv.i86.i, 3
  %arrayidx.i.i.3 = getelementptr inbounds i32, ptr %call.i, i64 %indvars.iv.next.i87.i.2
  %3 = load i32, ptr %arrayidx.i.i.3, align 4, !tbaa !95
  %conv.i.i.3 = trunc i32 %3 to i8
  %arrayidx2.i.i.3 = getelementptr inbounds i8, ptr %call4.i, i64 %indvars.iv.next.i87.i.2
  store i8 %conv.i.i.3, ptr %arrayidx2.i.i.3, align 1, !tbaa !17
  %indvars.iv.next.i87.i.3 = add nuw nsw i64 %indvars.iv.i86.i, 4
  %arrayidx.i.i.4 = getelementptr inbounds i32, ptr %call.i, i64 %indvars.iv.next.i87.i.3
  %4 = load i32, ptr %arrayidx.i.i.4, align 4, !tbaa !95
  %conv.i.i.4 = trunc i32 %4 to i8
  %arrayidx2.i.i.4 = getelementptr inbounds i8, ptr %call4.i, i64 %indvars.iv.next.i87.i.3
  store i8 %conv.i.i.4, ptr %arrayidx2.i.i.4, align 1, !tbaa !17
  %indvars.iv.next.i87.i.4 = add nuw nsw i64 %indvars.iv.i86.i, 5
  %exitcond.not.i88.i.4 = icmp eq i64 %indvars.iv.next.i87.i.4, 10000
  br i1 %exitcond.not.i88.i.4, label %vector.body, label %for.body.i89.i, !llvm.loop !97

vector.body:                                      ; preds = %for.body.i89.i, %vector.body
  %index = phi i64 [ %index.next, %vector.body ], [ 0, %for.body.i89.i ]
  %5 = getelementptr inbounds i32, ptr %call.i, i64 %index
  %wide.load = load <16 x i32>, ptr %5, align 4, !tbaa !95
  %6 = getelementptr inbounds i32, ptr %5, i64 16
  %wide.load17 = load <16 x i32>, ptr %6, align 4, !tbaa !95
  %7 = getelementptr inbounds i32, ptr %5, i64 32
  %wide.load18 = load <16 x i32>, ptr %7, align 4, !tbaa !95
  %8 = getelementptr inbounds i32, ptr %5, i64 48
  %wide.load19 = load <16 x i32>, ptr %8, align 4, !tbaa !95
  %9 = trunc <16 x i32> %wide.load to <16 x i8>
  %10 = trunc <16 x i32> %wide.load17 to <16 x i8>
  %11 = trunc <16 x i32> %wide.load18 to <16 x i8>
  %12 = trunc <16 x i32> %wide.load19 to <16 x i8>
  %13 = getelementptr inbounds i8, ptr %call1.i, i64 %index
  store <16 x i8> %9, ptr %13, align 1, !tbaa !17
  %14 = getelementptr inbounds i8, ptr %13, i64 16
  store <16 x i8> %10, ptr %14, align 1, !tbaa !17
  %15 = getelementptr inbounds i8, ptr %13, i64 32
  store <16 x i8> %11, ptr %15, align 1, !tbaa !17
  %16 = getelementptr inbounds i8, ptr %13, i64 48
  store <16 x i8> %12, ptr %16, align 1, !tbaa !17
  %index.next = add nuw i64 %index, 64
  %17 = icmp eq i64 %index.next, 9984
  br i1 %17, label %for.body.i4, label %vector.body, !llvm.loop !107

for.body.i4:                                      ; preds = %vector.body
  %arrayidx.i = getelementptr inbounds i32, ptr %call.i, i64 9984
  %18 = load i32, ptr %arrayidx.i, align 4, !tbaa !95
  %conv.i = trunc i32 %18 to i8
  %arrayidx2.i = getelementptr inbounds i8, ptr %call1.i, i64 9984
  store i8 %conv.i, ptr %arrayidx2.i, align 1, !tbaa !17
  %arrayidx.i.1 = getelementptr inbounds i32, ptr %call.i, i64 9985
  %19 = load i32, ptr %arrayidx.i.1, align 4, !tbaa !95
  %conv.i.1 = trunc i32 %19 to i8
  %arrayidx2.i.1 = getelementptr inbounds i8, ptr %call1.i, i64 9985
  store i8 %conv.i.1, ptr %arrayidx2.i.1, align 1, !tbaa !17
  %arrayidx.i.2 = getelementptr inbounds i32, ptr %call.i, i64 9986
  %20 = load i32, ptr %arrayidx.i.2, align 4, !tbaa !95
  %conv.i.2 = trunc i32 %20 to i8
  %arrayidx2.i.2 = getelementptr inbounds i8, ptr %call1.i, i64 9986
  store i8 %conv.i.2, ptr %arrayidx2.i.2, align 1, !tbaa !17
  %arrayidx.i.3 = getelementptr inbounds i32, ptr %call.i, i64 9987
  %21 = load i32, ptr %arrayidx.i.3, align 4, !tbaa !95
  %conv.i.3 = trunc i32 %21 to i8
  %arrayidx2.i.3 = getelementptr inbounds i8, ptr %call1.i, i64 9987
  store i8 %conv.i.3, ptr %arrayidx2.i.3, align 1, !tbaa !17
  %arrayidx.i.4 = getelementptr inbounds i32, ptr %call.i, i64 9988
  %22 = load i32, ptr %arrayidx.i.4, align 4, !tbaa !95
  %conv.i.4 = trunc i32 %22 to i8
  %arrayidx2.i.4 = getelementptr inbounds i8, ptr %call1.i, i64 9988
  store i8 %conv.i.4, ptr %arrayidx2.i.4, align 1, !tbaa !17
  %arrayidx.i.5 = getelementptr inbounds i32, ptr %call.i, i64 9989
  %23 = load i32, ptr %arrayidx.i.5, align 4, !tbaa !95
  %conv.i.5 = trunc i32 %23 to i8
  %arrayidx2.i.5 = getelementptr inbounds i8, ptr %call1.i, i64 9989
  store i8 %conv.i.5, ptr %arrayidx2.i.5, align 1, !tbaa !17
  %arrayidx.i.6 = getelementptr inbounds i32, ptr %call.i, i64 9990
  %24 = load i32, ptr %arrayidx.i.6, align 4, !tbaa !95
  %conv.i.6 = trunc i32 %24 to i8
  %arrayidx2.i.6 = getelementptr inbounds i8, ptr %call1.i, i64 9990
  store i8 %conv.i.6, ptr %arrayidx2.i.6, align 1, !tbaa !17
  %arrayidx.i.7 = getelementptr inbounds i32, ptr %call.i, i64 9991
  %25 = load i32, ptr %arrayidx.i.7, align 4, !tbaa !95
  %conv.i.7 = trunc i32 %25 to i8
  %arrayidx2.i.7 = getelementptr inbounds i8, ptr %call1.i, i64 9991
  store i8 %conv.i.7, ptr %arrayidx2.i.7, align 1, !tbaa !17
  %arrayidx.i.8 = getelementptr inbounds i32, ptr %call.i, i64 9992
  %26 = load i32, ptr %arrayidx.i.8, align 4, !tbaa !95
  %conv.i.8 = trunc i32 %26 to i8
  %arrayidx2.i.8 = getelementptr inbounds i8, ptr %call1.i, i64 9992
  store i8 %conv.i.8, ptr %arrayidx2.i.8, align 1, !tbaa !17
  %arrayidx.i.9 = getelementptr inbounds i32, ptr %call.i, i64 9993
  %27 = load i32, ptr %arrayidx.i.9, align 4, !tbaa !95
  %conv.i.9 = trunc i32 %27 to i8
  %arrayidx2.i.9 = getelementptr inbounds i8, ptr %call1.i, i64 9993
  store i8 %conv.i.9, ptr %arrayidx2.i.9, align 1, !tbaa !17
  %arrayidx.i.10 = getelementptr inbounds i32, ptr %call.i, i64 9994
  %28 = load i32, ptr %arrayidx.i.10, align 4, !tbaa !95
  %conv.i.10 = trunc i32 %28 to i8
  %arrayidx2.i.10 = getelementptr inbounds i8, ptr %call1.i, i64 9994
  store i8 %conv.i.10, ptr %arrayidx2.i.10, align 1, !tbaa !17
  %arrayidx.i.11 = getelementptr inbounds i32, ptr %call.i, i64 9995
  %29 = load i32, ptr %arrayidx.i.11, align 4, !tbaa !95
  %conv.i.11 = trunc i32 %29 to i8
  %arrayidx2.i.11 = getelementptr inbounds i8, ptr %call1.i, i64 9995
  store i8 %conv.i.11, ptr %arrayidx2.i.11, align 1, !tbaa !17
  %arrayidx.i.12 = getelementptr inbounds i32, ptr %call.i, i64 9996
  %30 = load i32, ptr %arrayidx.i.12, align 4, !tbaa !95
  %conv.i.12 = trunc i32 %30 to i8
  %arrayidx2.i.12 = getelementptr inbounds i8, ptr %call1.i, i64 9996
  store i8 %conv.i.12, ptr %arrayidx2.i.12, align 1, !tbaa !17
  %arrayidx.i.13 = getelementptr inbounds i32, ptr %call.i, i64 9997
  %31 = load i32, ptr %arrayidx.i.13, align 4, !tbaa !95
  %conv.i.13 = trunc i32 %31 to i8
  %arrayidx2.i.13 = getelementptr inbounds i8, ptr %call1.i, i64 9997
  store i8 %conv.i.13, ptr %arrayidx2.i.13, align 1, !tbaa !17
  %arrayidx.i.14 = getelementptr inbounds i32, ptr %call.i, i64 9998
  %32 = load i32, ptr %arrayidx.i.14, align 4, !tbaa !95
  %conv.i.14 = trunc i32 %32 to i8
  %arrayidx2.i.14 = getelementptr inbounds i8, ptr %call1.i, i64 9998
  store i8 %conv.i.14, ptr %arrayidx2.i.14, align 1, !tbaa !17
  %arrayidx.i.15 = getelementptr inbounds i32, ptr %call.i, i64 9999
  %33 = load i32, ptr %arrayidx.i.15, align 4, !tbaa !95
  %conv.i.15 = trunc i32 %33 to i8
  %arrayidx2.i.15 = getelementptr inbounds i8, ptr %call1.i, i64 9999
  store i8 %conv.i.15, ptr %arrayidx2.i.15, align 1, !tbaa !17
  br label %for.body.i

lpad.i:                                           ; preds = %entry
  %34 = landingpad { ptr, i32 }
          cleanup
  br label %_ZNSt3__110unique_ptrIA_jNS_14default_deleteIS1_EEED2B7v170000Ev.exit119.i

ehcleanup65.thread.i:                             ; preds = %invoke.cont.i
  %35 = landingpad { ptr, i32 }
          cleanup
  store ptr null, ptr %B.i, align 8, !tbaa !23
  br label %_ZNKSt3__114default_deleteIA_hEclB7v170000IhEENS2_20_EnableIfConvertibleIT_E4typeEPS5_.exit.i.i115.i

lpad5.loopexit.i:                                 ; preds = %for.body.i.i
  %lpad.loopexit.i = landingpad { ptr, i32 }
          cleanup
  br label %ehcleanup65.i

for.body.i:                                       ; preds = %for.inc.i.4, %for.body.i4
  %indvars.iv.i = phi i64 [ 0, %for.body.i4 ], [ %indvars.iv.next.i.4, %for.inc.i.4 ]
  %arrayidx.i90.i = getelementptr inbounds i8, ptr %call1.i, i64 %indvars.iv.i
  %36 = load i8, ptr %arrayidx.i90.i, align 1, !tbaa !17
  %arrayidx.i91.i = getelementptr inbounds i8, ptr %call4.i, i64 %indvars.iv.i
  %37 = load i8, ptr %arrayidx.i91.i, align 1, !tbaa !17
  %cmp20.not.i = icmp eq i8 %36, %37
  br i1 %cmp20.not.i, label %for.inc.i, label %if.then.i

if.then.i:                                        ; preds = %for.inc.i.3, %for.inc.i.2, %for.inc.i.1, %for.inc.i, %for.body.i
  %indvars.iv.i.lcssa = phi i64 [ %indvars.iv.i, %for.body.i ], [ %indvars.iv.next.i, %for.inc.i ], [ %indvars.iv.next.i.1, %for.inc.i.1 ], [ %indvars.iv.next.i.2, %for.inc.i.2 ], [ %indvars.iv.next.i.3, %for.inc.i.3 ]
  %conv.le.i = and i64 %indvars.iv.i.lcssa, 4294967295
  %arrayidx.i91.le.i = getelementptr inbounds i8, ptr %call4.i, i64 %conv.le.i
  %call1.i92.i = invoke noundef nonnull align 8 dereferenceable(8) ptr @_ZNSt3__124__put_character_sequenceB7v170000IcNS_11char_traitsIcEEEERNS_13basic_ostreamIT_T0_EES7_PKS4_m(ptr noundef nonnull align 8 dereferenceable(8) @_ZNSt3__14cerrE, ptr noundef nonnull @.str.145, i64 noundef 34)
          to label %invoke.cont22.i unwind label %lpad21.i

invoke.cont22.i:                                  ; preds = %if.then.i
  %arrayidx.i93.i = getelementptr inbounds i32, ptr %call.i, i64 %conv.le.i
  %38 = load i32, ptr %arrayidx.i93.i, align 4, !tbaa !95
  %call28.i = invoke noundef nonnull align 8 dereferenceable(8) ptr @_ZNSt3__113basic_ostreamIcNS_11char_traitsIcEEElsEj(ptr noundef nonnull align 8 dereferenceable(8) %call1.i92.i, i32 noundef %38)
          to label %invoke.cont27.i unwind label %lpad21.i

invoke.cont27.i:                                  ; preds = %invoke.cont22.i
  %call1.i95.i = invoke noundef nonnull align 8 dereferenceable(8) ptr @_ZNSt3__124__put_character_sequenceB7v170000IcNS_11char_traitsIcEEEERNS_13basic_ostreamIT_T0_EES7_PKS4_m(ptr noundef nonnull align 8 dereferenceable(8) %call28.i, ptr noundef nonnull @.str.146, i64 noundef 19)
          to label %invoke.cont29.i unwind label %lpad21.i

invoke.cont29.i:                                  ; preds = %invoke.cont27.i
  %arrayidx.i97.i = getelementptr inbounds i8, ptr %call1.i, i64 %conv.le.i
  %39 = load i8, ptr %arrayidx.i97.i, align 1, !tbaa !17
  call void @llvm.lifetime.start.p0(i64 1, ptr nonnull %__c.addr.i.i)
  store i8 %39, ptr %__c.addr.i.i, align 1, !tbaa !17
  %call.i98.i = invoke noundef nonnull align 8 dereferenceable(8) ptr @_ZNSt3__124__put_character_sequenceB7v170000IcNS_11char_traitsIcEEEERNS_13basic_ostreamIT_T0_EES7_PKS4_m(ptr noundef nonnull align 8 dereferenceable(8) %call1.i95.i, ptr noundef nonnull %__c.addr.i.i, i64 noundef 1)
          to label %invoke.cont33.i unwind label %lpad21.i

invoke.cont33.i:                                  ; preds = %invoke.cont29.i
  call void @llvm.lifetime.end.p0(i64 1, ptr nonnull %__c.addr.i.i)
  %call1.i100.i = invoke noundef nonnull align 8 dereferenceable(8) ptr @_ZNSt3__124__put_character_sequenceB7v170000IcNS_11char_traitsIcEEEERNS_13basic_ostreamIT_T0_EES7_PKS4_m(ptr noundef nonnull align 8 dereferenceable(8) %call.i98.i, ptr noundef nonnull @.str.147, i64 noundef 12)
          to label %invoke.cont35.i unwind label %lpad21.i

invoke.cont35.i:                                  ; preds = %invoke.cont33.i
  %40 = load i8, ptr %arrayidx.i91.le.i, align 1, !tbaa !17
  call void @llvm.lifetime.start.p0(i64 1, ptr nonnull %__c.addr.i103.i)
  store i8 %40, ptr %__c.addr.i103.i, align 1, !tbaa !17
  %call.i104.i = invoke noundef nonnull align 8 dereferenceable(8) ptr @_ZNSt3__124__put_character_sequenceB7v170000IcNS_11char_traitsIcEEEERNS_13basic_ostreamIT_T0_EES7_PKS4_m(ptr noundef nonnull align 8 dereferenceable(8) %call1.i100.i, ptr noundef nonnull %__c.addr.i103.i, i64 noundef 1)
          to label %invoke.cont39.i unwind label %lpad21.i

invoke.cont39.i:                                  ; preds = %invoke.cont35.i
  call void @llvm.lifetime.end.p0(i64 1, ptr nonnull %__c.addr.i103.i)
  %call42.i = invoke noundef nonnull align 8 dereferenceable(8) ptr @_ZNSt3__1lsB7v170000INS_11char_traitsIcEEEERNS_13basic_ostreamIcT_EES6_PKc(ptr noundef nonnull align 8 dereferenceable(8) %call.i104.i, ptr noundef nonnull @.str.148)
          to label %invoke.cont41.i unwind label %lpad21.i

invoke.cont41.i:                                  ; preds = %invoke.cont39.i
  call void @exit(i32 noundef 1) #14
  unreachable

lpad21.i:                                         ; preds = %invoke.cont39.i, %invoke.cont35.i, %invoke.cont33.i, %invoke.cont29.i, %invoke.cont27.i, %invoke.cont22.i, %if.then.i
  %41 = landingpad { ptr, i32 }
          cleanup
  br label %ehcleanup65.i

for.inc.i:                                        ; preds = %for.body.i
  %indvars.iv.next.i = add nuw nsw i64 %indvars.iv.i, 1
  %arrayidx.i90.i.1 = getelementptr inbounds i8, ptr %call1.i, i64 %indvars.iv.next.i
  %42 = load i8, ptr %arrayidx.i90.i.1, align 1, !tbaa !17
  %arrayidx.i91.i.1 = getelementptr inbounds i8, ptr %call4.i, i64 %indvars.iv.next.i
  %43 = load i8, ptr %arrayidx.i91.i.1, align 1, !tbaa !17
  %cmp20.not.i.1 = icmp eq i8 %42, %43
  br i1 %cmp20.not.i.1, label %for.inc.i.1, label %if.then.i

for.inc.i.1:                                      ; preds = %for.inc.i
  %indvars.iv.next.i.1 = add nuw nsw i64 %indvars.iv.i, 2
  %arrayidx.i90.i.2 = getelementptr inbounds i8, ptr %call1.i, i64 %indvars.iv.next.i.1
  %44 = load i8, ptr %arrayidx.i90.i.2, align 1, !tbaa !17
  %arrayidx.i91.i.2 = getelementptr inbounds i8, ptr %call4.i, i64 %indvars.iv.next.i.1
  %45 = load i8, ptr %arrayidx.i91.i.2, align 1, !tbaa !17
  %cmp20.not.i.2 = icmp eq i8 %44, %45
  br i1 %cmp20.not.i.2, label %for.inc.i.2, label %if.then.i

for.inc.i.2:                                      ; preds = %for.inc.i.1
  %indvars.iv.next.i.2 = add nuw nsw i64 %indvars.iv.i, 3
  %arrayidx.i90.i.3 = getelementptr inbounds i8, ptr %call1.i, i64 %indvars.iv.next.i.2
  %46 = load i8, ptr %arrayidx.i90.i.3, align 1, !tbaa !17
  %arrayidx.i91.i.3 = getelementptr inbounds i8, ptr %call4.i, i64 %indvars.iv.next.i.2
  %47 = load i8, ptr %arrayidx.i91.i.3, align 1, !tbaa !17
  %cmp20.not.i.3 = icmp eq i8 %46, %47
  br i1 %cmp20.not.i.3, label %for.inc.i.3, label %if.then.i

for.inc.i.3:                                      ; preds = %for.inc.i.2
  %indvars.iv.next.i.3 = add nuw nsw i64 %indvars.iv.i, 4
  %arrayidx.i90.i.4 = getelementptr inbounds i8, ptr %call1.i, i64 %indvars.iv.next.i.3
  %48 = load i8, ptr %arrayidx.i90.i.4, align 1, !tbaa !17
  %arrayidx.i91.i.4 = getelementptr inbounds i8, ptr %call4.i, i64 %indvars.iv.next.i.3
  %49 = load i8, ptr %arrayidx.i91.i.4, align 1, !tbaa !17
  %cmp20.not.i.4 = icmp eq i8 %48, %49
  br i1 %cmp20.not.i.4, label %for.inc.i.4, label %if.then.i

for.inc.i.4:                                      ; preds = %for.inc.i.3
  %indvars.iv.next.i.4 = add nuw nsw i64 %indvars.iv.i, 5
  %exitcond.not.i.4 = icmp eq i64 %indvars.iv.next.i.4, 10000
  br i1 %exitcond.not.i.4, label %invoke.cont44.i, label %for.body.i, !llvm.loop !99

invoke.cont44.i:                                  ; preds = %for.inc.i.4
  %error_occurred_.i.i.i = getelementptr inbounds %"class.benchmark::State", ptr %state, i64 0, i32 5
  %50 = load i8, ptr %error_occurred_.i.i.i, align 2, !tbaa !25, !range !40, !noundef !41
  %max_iterations.i.i.i = getelementptr inbounds %"class.benchmark::State", ptr %state, i64 0, i32 2
  %51 = load i64, ptr %max_iterations.i.i.i, align 8
  invoke void @_ZN9benchmark5State16StartKeepRunningEv(ptr noundef nonnull align 8 dereferenceable(120) %state)
          to label %for.cond49.preheader.i unwind label %lpad46.i

for.cond49.preheader.i:                           ; preds = %invoke.cont44.i
  %tobool.not.i.i.i = icmp ne i8 %50, 0
  %cmp.not.i.not137141.i = icmp eq i64 %51, 0
  %cmp.not.i.not137.i = select i1 %tobool.not.i.i.i, i1 true, i1 %cmp.not.i.not137141.i
  br i1 %cmp.not.i.not137.i, label %if.end.i.i, label %for.body53.i.preheader, !prof !42

for.body53.i.preheader:                           ; preds = %for.cond49.preheader.i
  %uglygep20 = getelementptr i8, ptr %call.i, i64 40000
  br label %for.body53.i

if.end.i.i:                                       ; preds = %invoke.cont58.i, %for.cond49.preheader.i
  invoke void @_ZN9benchmark5State17FinishKeepRunningEv(ptr noundef nonnull align 8 dereferenceable(120) %state)
          to label %_ZNSt3__110unique_ptrIA_hNS_14default_deleteIS1_EEED2B7v170000Ev.exit.i unwind label %lpad46.i

_ZNSt3__110unique_ptrIA_hNS_14default_deleteIS1_EEED2B7v170000Ev.exit.i: ; preds = %if.end.i.i
  call void @_ZdaPv(ptr noundef nonnull %call4.i) #15
  %52 = load ptr, ptr %B.i, align 8, !tbaa !23
  store ptr null, ptr %B.i, align 8, !tbaa !23
  %tobool.not.i.i107.i = icmp eq ptr %52, null
  br i1 %tobool.not.i.i107.i, label %_ZL28benchForTruncOrZextVecInLoopIjhEvRN9benchmark5StateEPFvPKT_PT0_iE.exit, label %_ZNKSt3__114default_deleteIA_hEclB7v170000IhEENS2_20_EnableIfConvertibleIT_E4typeEPS5_.exit.i.i108.i

_ZNKSt3__114default_deleteIA_hEclB7v170000IhEENS2_20_EnableIfConvertibleIT_E4typeEPS5_.exit.i.i108.i: ; preds = %_ZNSt3__110unique_ptrIA_hNS_14default_deleteIS1_EEED2B7v170000Ev.exit.i
  call void @_ZdaPv(ptr noundef nonnull %52) #15
  br label %_ZL28benchForTruncOrZextVecInLoopIjhEvRN9benchmark5StateEPFvPKT_PT0_iE.exit

lpad46.i:                                         ; preds = %if.end.i.i, %invoke.cont44.i
  %53 = landingpad { ptr, i32 }
          cleanup
  br label %ehcleanup65.i

for.body53.i:                                     ; preds = %for.body53.i.preheader, %invoke.cont58.i
  %__begin1.sroa.0.0138.i = phi i64 [ %dec.i.i, %invoke.cont58.i ], [ %51, %for.body53.i.preheader ]
  %54 = load i64, ptr %B.i, align 8
  call void asm sideeffect "", "=*r|m,0,~{memory},~{dirflag},~{fpsr},~{flags}"(ptr nonnull elementtype(%"class.std::__1::unique_ptr.55") %B.i, i64 %54) #13, !srcloc !43
  fence syncscope("singlethread") acq_rel
  %55 = load ptr, ptr %B.i, align 8, !tbaa !23
  %uglygep = getelementptr i8, ptr %55, i64 10000
  %bound0 = icmp ult ptr %55, %uglygep20
  %bound1 = icmp ult ptr %call.i, %uglygep
  %found.conflict = and i1 %bound0, %bound1
  br i1 %found.conflict, label %for.body.i11.preheader, label %vector.body26

vector.body26:                                    ; preds = %for.body53.i, %vector.body26
  %index27 = phi i64 [ %index.next32, %vector.body26 ], [ 0, %for.body53.i ]
  %56 = getelementptr inbounds i32, ptr %call.i, i64 %index27
  %wide.load28 = load <16 x i32>, ptr %56, align 4, !tbaa !95, !alias.scope !108
  %57 = getelementptr inbounds i32, ptr %56, i64 16
  %wide.load29 = load <16 x i32>, ptr %57, align 4, !tbaa !95, !alias.scope !108
  %58 = getelementptr inbounds i32, ptr %56, i64 32
  %wide.load30 = load <16 x i32>, ptr %58, align 4, !tbaa !95, !alias.scope !108
  %59 = getelementptr inbounds i32, ptr %56, i64 48
  %wide.load31 = load <16 x i32>, ptr %59, align 4, !tbaa !95, !alias.scope !108
  %60 = trunc <16 x i32> %wide.load28 to <16 x i8>
  %61 = trunc <16 x i32> %wide.load29 to <16 x i8>
  %62 = trunc <16 x i32> %wide.load30 to <16 x i8>
  %63 = trunc <16 x i32> %wide.load31 to <16 x i8>
  %64 = getelementptr inbounds i8, ptr %55, i64 %index27
  store <16 x i8> %60, ptr %64, align 1, !tbaa !17, !alias.scope !111, !noalias !108
  %65 = getelementptr inbounds i8, ptr %64, i64 16
  store <16 x i8> %61, ptr %65, align 1, !tbaa !17, !alias.scope !111, !noalias !108
  %66 = getelementptr inbounds i8, ptr %64, i64 32
  store <16 x i8> %62, ptr %66, align 1, !tbaa !17, !alias.scope !111, !noalias !108
  %67 = getelementptr inbounds i8, ptr %64, i64 48
  store <16 x i8> %63, ptr %67, align 1, !tbaa !17, !alias.scope !111, !noalias !108
  %index.next32 = add nuw i64 %index27, 64
  %68 = icmp eq i64 %index.next32, 9984
  br i1 %68, label %for.body.i11.preheader, label %vector.body26, !llvm.loop !113

for.body.i11.preheader:                           ; preds = %vector.body26, %for.body53.i
  %indvars.iv.i5.ph = phi i64 [ 0, %for.body53.i ], [ 9984, %vector.body26 ]
  br label %for.body.i11

for.body.i11:                                     ; preds = %for.body.i11, %for.body.i11.preheader
  %indvars.iv.i5 = phi i64 [ %indvars.iv.i5.ph, %for.body.i11.preheader ], [ %indvars.iv.next.i9.3, %for.body.i11 ]
  %arrayidx.i6 = getelementptr inbounds i32, ptr %call.i, i64 %indvars.iv.i5
  %69 = load i32, ptr %arrayidx.i6, align 4, !tbaa !95
  %conv.i7 = trunc i32 %69 to i8
  %arrayidx2.i8 = getelementptr inbounds i8, ptr %55, i64 %indvars.iv.i5
  store i8 %conv.i7, ptr %arrayidx2.i8, align 1, !tbaa !17
  %indvars.iv.next.i9 = or i64 %indvars.iv.i5, 1
  %arrayidx.i6.1 = getelementptr inbounds i32, ptr %call.i, i64 %indvars.iv.next.i9
  %70 = load i32, ptr %arrayidx.i6.1, align 4, !tbaa !95
  %conv.i7.1 = trunc i32 %70 to i8
  %arrayidx2.i8.1 = getelementptr inbounds i8, ptr %55, i64 %indvars.iv.next.i9
  store i8 %conv.i7.1, ptr %arrayidx2.i8.1, align 1, !tbaa !17
  %indvars.iv.next.i9.1 = or i64 %indvars.iv.i5, 2
  %arrayidx.i6.2 = getelementptr inbounds i32, ptr %call.i, i64 %indvars.iv.next.i9.1
  %71 = load i32, ptr %arrayidx.i6.2, align 4, !tbaa !95
  %conv.i7.2 = trunc i32 %71 to i8
  %arrayidx2.i8.2 = getelementptr inbounds i8, ptr %55, i64 %indvars.iv.next.i9.1
  store i8 %conv.i7.2, ptr %arrayidx2.i8.2, align 1, !tbaa !17
  %indvars.iv.next.i9.2 = or i64 %indvars.iv.i5, 3
  %arrayidx.i6.3 = getelementptr inbounds i32, ptr %call.i, i64 %indvars.iv.next.i9.2
  %72 = load i32, ptr %arrayidx.i6.3, align 4, !tbaa !95
  %conv.i7.3 = trunc i32 %72 to i8
  %arrayidx2.i8.3 = getelementptr inbounds i8, ptr %55, i64 %indvars.iv.next.i9.2
  store i8 %conv.i7.3, ptr %arrayidx2.i8.3, align 1, !tbaa !17
  %indvars.iv.next.i9.3 = add nuw nsw i64 %indvars.iv.i5, 4
  %exitcond.not.i10.3 = icmp eq i64 %indvars.iv.next.i9.3, 10000
  br i1 %exitcond.not.i10.3, label %invoke.cont58.i, label %for.body.i11, !llvm.loop !114

invoke.cont58.i:                                  ; preds = %for.body.i11
  %dec.i.i = add i64 %__begin1.sroa.0.0138.i, -1
  %cmp.not.i.not.i = icmp eq i64 %dec.i.i, 0
  br i1 %cmp.not.i.not.i, label %if.end.i.i, label %for.body53.i, !prof !42

ehcleanup65.i:                                    ; preds = %lpad46.i, %lpad21.i, %lpad5.loopexit.i
  %.pn79.i = phi { ptr, i32 } [ %41, %lpad21.i ], [ %53, %lpad46.i ], [ %lpad.loopexit.i, %lpad5.loopexit.i ]
  call void @_ZdaPv(ptr noundef nonnull %call4.i) #15
  %.pr.i = load ptr, ptr %B.i, align 8, !tbaa !23
  store ptr null, ptr %B.i, align 8, !tbaa !23
  %tobool.not.i.i114.i = icmp eq ptr %.pr.i, null
  br i1 %tobool.not.i.i114.i, label %_ZNSt3__110unique_ptrIA_jNS_14default_deleteIS1_EEED2B7v170000Ev.exit119.i, label %_ZNKSt3__114default_deleteIA_hEclB7v170000IhEENS2_20_EnableIfConvertibleIT_E4typeEPS5_.exit.i.i115.i

_ZNKSt3__114default_deleteIA_hEclB7v170000IhEENS2_20_EnableIfConvertibleIT_E4typeEPS5_.exit.i.i115.i: ; preds = %ehcleanup65.i, %ehcleanup65.thread.i
  %.pn79.pn133.i = phi { ptr, i32 } [ %35, %ehcleanup65.thread.i ], [ %.pn79.i, %ehcleanup65.i ]
  %73 = phi ptr [ %call1.i, %ehcleanup65.thread.i ], [ %.pr.i, %ehcleanup65.i ]
  call void @_ZdaPv(ptr noundef nonnull %73) #15
  br label %_ZNSt3__110unique_ptrIA_jNS_14default_deleteIS1_EEED2B7v170000Ev.exit119.i

_ZNSt3__110unique_ptrIA_jNS_14default_deleteIS1_EEED2B7v170000Ev.exit119.i: ; preds = %_ZNKSt3__114default_deleteIA_hEclB7v170000IhEENS2_20_EnableIfConvertibleIT_E4typeEPS5_.exit.i.i115.i, %ehcleanup65.i, %lpad.i
  %.pn79.pn.pn.i = phi { ptr, i32 } [ %34, %lpad.i ], [ %.pn79.i, %ehcleanup65.i ], [ %.pn79.pn133.i, %_ZNKSt3__114default_deleteIA_hEclB7v170000IhEENS2_20_EnableIfConvertibleIT_E4typeEPS5_.exit.i.i115.i ]
  call void @llvm.lifetime.end.p0(i64 8, ptr nonnull %B.i) #13
  call void @_ZdaPv(ptr noundef nonnull %call.i) #15
  resume { ptr, i32 } %.pn79.pn.pn.i

_ZL28benchForTruncOrZextVecInLoopIjhEvRN9benchmark5StateEPFvPKT_PT0_iE.exit: ; preds = %_ZNSt3__110unique_ptrIA_hNS_14default_deleteIS1_EEED2B7v170000Ev.exit.i, %_ZNKSt3__114default_deleteIA_hEclB7v170000IhEENS2_20_EnableIfConvertibleIT_E4typeEPS5_.exit.i.i108.i
  call void @llvm.lifetime.end.p0(i64 8, ptr nonnull %B.i) #13
  call void @_ZdaPv(ptr noundef nonnull %call.i) #15
  ret void
}

; Function Attrs: uwtable
define dso_local void @_Z53benchForTruncOrZextVecInLoopFrom_uint32_t_To_uint8_t_RN9benchmark5StateE(ptr noundef nonnull align 8 dereferenceable(120) %state) #1 personality ptr @__gxx_personality_v0 {
entry:
  %__c.addr.i103.i = alloca i8, align 1
  %__c.addr.i.i = alloca i8, align 1
  %distrib.i.i = alloca %"class.std::__1::uniform_int_distribution.68", align 4
  %B.i = alloca %"class.std::__1::unique_ptr.55", align 8
  %call.i = tail call noalias noundef nonnull dereferenceable(40000) ptr @_Znam(i64 noundef 40000) #12
  call void @llvm.lifetime.start.p0(i64 8, ptr nonnull %B.i) #13
  %call1.i = invoke noalias noundef nonnull dereferenceable(10000) ptr @_Znam(i64 noundef 10000) #12
          to label %invoke.cont.i unwind label %lpad.i

invoke.cont.i:                                    ; preds = %entry
  store ptr %call1.i, ptr %B.i, align 8, !tbaa !5
  %call4.i = invoke noalias noundef nonnull dereferenceable(10000) ptr @_Znam(i64 noundef 10000) #12
          to label %invoke.cont3.i unwind label %ehcleanup65.thread.i

invoke.cont3.i:                                   ; preds = %invoke.cont.i
  call void @llvm.lifetime.start.p0(i64 8, ptr nonnull %distrib.i.i) #13
  store i32 0, ptr %distrib.i.i, align 4, !tbaa !92
  %__b_.i.i.i.i = getelementptr inbounds %"class.std::__1::uniform_int_distribution<unsigned int>::param_type", ptr %distrib.i.i, i64 0, i32 1
  store i32 -1, ptr %__b_.i.i.i.i, align 4, !tbaa !94
  br label %for.body.i.i

for.body.i.i:                                     ; preds = %call.i.i.noexc.i, %invoke.cont3.i
  %indvars.iv.i.i = phi i64 [ 0, %invoke.cont3.i ], [ %indvars.iv.next.i.i, %call.i.i.noexc.i ]
  %call.i.i85.i = invoke noundef i32 @_ZNSt3__124uniform_int_distributionIjEclINS_23mersenne_twister_engineImLm32ELm624ELm397ELm31ELm2567483615ELm11ELm4294967295ELm7ELm2636928640ELm15ELm4022730752ELm18ELm1812433253EEEEEjRT_RKNS1_10param_typeE(ptr noundef nonnull align 4 dereferenceable(8) %distrib.i.i, ptr noundef nonnull align 8 dereferenceable(5000) @_ZL3rng, ptr noundef nonnull align 4 dereferenceable(8) %distrib.i.i)
          to label %call.i.i.noexc.i unwind label %lpad5.loopexit.i

call.i.i.noexc.i:                                 ; preds = %for.body.i.i
  %arrayidx.i.i.i = getelementptr inbounds i32, ptr %call.i, i64 %indvars.iv.i.i
  store i32 %call.i.i85.i, ptr %arrayidx.i.i.i, align 4, !tbaa !95
  %indvars.iv.next.i.i = add nuw nsw i64 %indvars.iv.i.i, 1
  %exitcond.not.i.i = icmp eq i64 %indvars.iv.next.i.i, 10000
  br i1 %exitcond.not.i.i, label %invoke.cont6.i, label %for.body.i.i, !llvm.loop !96

invoke.cont6.i:                                   ; preds = %call.i.i.noexc.i
  call void @llvm.lifetime.end.p0(i64 8, ptr nonnull %distrib.i.i) #13
  br label %for.body.i89.i

for.body.i89.i:                                   ; preds = %for.body.i89.i, %invoke.cont6.i
  %indvars.iv.i86.i = phi i64 [ 0, %invoke.cont6.i ], [ %indvars.iv.next.i87.i.4, %for.body.i89.i ]
  %arrayidx.i.i = getelementptr inbounds i32, ptr %call.i, i64 %indvars.iv.i86.i
  %0 = load i32, ptr %arrayidx.i.i, align 4, !tbaa !95
  %conv.i.i = trunc i32 %0 to i8
  %arrayidx2.i.i = getelementptr inbounds i8, ptr %call4.i, i64 %indvars.iv.i86.i
  store i8 %conv.i.i, ptr %arrayidx2.i.i, align 1, !tbaa !17
  %indvars.iv.next.i87.i = add nuw nsw i64 %indvars.iv.i86.i, 1
  %arrayidx.i.i.1 = getelementptr inbounds i32, ptr %call.i, i64 %indvars.iv.next.i87.i
  %1 = load i32, ptr %arrayidx.i.i.1, align 4, !tbaa !95
  %conv.i.i.1 = trunc i32 %1 to i8
  %arrayidx2.i.i.1 = getelementptr inbounds i8, ptr %call4.i, i64 %indvars.iv.next.i87.i
  store i8 %conv.i.i.1, ptr %arrayidx2.i.i.1, align 1, !tbaa !17
  %indvars.iv.next.i87.i.1 = add nuw nsw i64 %indvars.iv.i86.i, 2
  %arrayidx.i.i.2 = getelementptr inbounds i32, ptr %call.i, i64 %indvars.iv.next.i87.i.1
  %2 = load i32, ptr %arrayidx.i.i.2, align 4, !tbaa !95
  %conv.i.i.2 = trunc i32 %2 to i8
  %arrayidx2.i.i.2 = getelementptr inbounds i8, ptr %call4.i, i64 %indvars.iv.next.i87.i.1
  store i8 %conv.i.i.2, ptr %arrayidx2.i.i.2, align 1, !tbaa !17
  %indvars.iv.next.i87.i.2 = add nuw nsw i64 %indvars.iv.i86.i, 3
  %arrayidx.i.i.3 = getelementptr inbounds i32, ptr %call.i, i64 %indvars.iv.next.i87.i.2
  %3 = load i32, ptr %arrayidx.i.i.3, align 4, !tbaa !95
  %conv.i.i.3 = trunc i32 %3 to i8
  %arrayidx2.i.i.3 = getelementptr inbounds i8, ptr %call4.i, i64 %indvars.iv.next.i87.i.2
  store i8 %conv.i.i.3, ptr %arrayidx2.i.i.3, align 1, !tbaa !17
  %indvars.iv.next.i87.i.3 = add nuw nsw i64 %indvars.iv.i86.i, 4
  %arrayidx.i.i.4 = getelementptr inbounds i32, ptr %call.i, i64 %indvars.iv.next.i87.i.3
  %4 = load i32, ptr %arrayidx.i.i.4, align 4, !tbaa !95
  %conv.i.i.4 = trunc i32 %4 to i8
  %arrayidx2.i.i.4 = getelementptr inbounds i8, ptr %call4.i, i64 %indvars.iv.next.i87.i.3
  store i8 %conv.i.i.4, ptr %arrayidx2.i.i.4, align 1, !tbaa !17
  %indvars.iv.next.i87.i.4 = add nuw nsw i64 %indvars.iv.i86.i, 5
  %exitcond.not.i88.i.4 = icmp eq i64 %indvars.iv.next.i87.i.4, 10000
  br i1 %exitcond.not.i88.i.4, label %vector.body, label %for.body.i89.i, !llvm.loop !97

vector.body:                                      ; preds = %for.body.i89.i, %vector.body
  %index = phi i64 [ %index.next.1, %vector.body ], [ 0, %for.body.i89.i ]
  %5 = getelementptr inbounds i32, ptr %call.i, i64 %index
  %wide.load = load <4 x i32>, ptr %5, align 4, !tbaa !95
  %6 = getelementptr inbounds i32, ptr %5, i64 4
  %wide.load17 = load <4 x i32>, ptr %6, align 4, !tbaa !95
  %7 = trunc <4 x i32> %wide.load to <4 x i8>
  %8 = trunc <4 x i32> %wide.load17 to <4 x i8>
  %9 = getelementptr inbounds i8, ptr %call1.i, i64 %index
  store <4 x i8> %7, ptr %9, align 1, !tbaa !17
  %10 = getelementptr inbounds i8, ptr %9, i64 4
  store <4 x i8> %8, ptr %10, align 1, !tbaa !17
  %index.next = or i64 %index, 8
  %11 = getelementptr inbounds i32, ptr %call.i, i64 %index.next
  %wide.load.1 = load <4 x i32>, ptr %11, align 4, !tbaa !95
  %12 = getelementptr inbounds i32, ptr %11, i64 4
  %wide.load17.1 = load <4 x i32>, ptr %12, align 4, !tbaa !95
  %13 = trunc <4 x i32> %wide.load.1 to <4 x i8>
  %14 = trunc <4 x i32> %wide.load17.1 to <4 x i8>
  %15 = getelementptr inbounds i8, ptr %call1.i, i64 %index.next
  store <4 x i8> %13, ptr %15, align 1, !tbaa !17
  %16 = getelementptr inbounds i8, ptr %15, i64 4
  store <4 x i8> %14, ptr %16, align 1, !tbaa !17
  %index.next.1 = add nuw nsw i64 %index, 16
  %17 = icmp eq i64 %index.next.1, 10000
  br i1 %17, label %for.body.i, label %vector.body, !llvm.loop !115

lpad.i:                                           ; preds = %entry
  %18 = landingpad { ptr, i32 }
          cleanup
  br label %_ZNSt3__110unique_ptrIA_jNS_14default_deleteIS1_EEED2B7v170000Ev.exit119.i

ehcleanup65.thread.i:                             ; preds = %invoke.cont.i
  %19 = landingpad { ptr, i32 }
          cleanup
  store ptr null, ptr %B.i, align 8, !tbaa !23
  br label %_ZNKSt3__114default_deleteIA_hEclB7v170000IhEENS2_20_EnableIfConvertibleIT_E4typeEPS5_.exit.i.i115.i

lpad5.loopexit.i:                                 ; preds = %for.body.i.i
  %lpad.loopexit.i = landingpad { ptr, i32 }
          cleanup
  br label %ehcleanup65.i

for.body.i:                                       ; preds = %vector.body, %for.inc.i.4
  %indvars.iv.i = phi i64 [ %indvars.iv.next.i.4, %for.inc.i.4 ], [ 0, %vector.body ]
  %arrayidx.i90.i = getelementptr inbounds i8, ptr %call1.i, i64 %indvars.iv.i
  %20 = load i8, ptr %arrayidx.i90.i, align 1, !tbaa !17
  %arrayidx.i91.i = getelementptr inbounds i8, ptr %call4.i, i64 %indvars.iv.i
  %21 = load i8, ptr %arrayidx.i91.i, align 1, !tbaa !17
  %cmp20.not.i = icmp eq i8 %20, %21
  br i1 %cmp20.not.i, label %for.inc.i, label %if.then.i

if.then.i:                                        ; preds = %for.inc.i.3, %for.inc.i.2, %for.inc.i.1, %for.inc.i, %for.body.i
  %indvars.iv.i.lcssa = phi i64 [ %indvars.iv.i, %for.body.i ], [ %indvars.iv.next.i, %for.inc.i ], [ %indvars.iv.next.i.1, %for.inc.i.1 ], [ %indvars.iv.next.i.2, %for.inc.i.2 ], [ %indvars.iv.next.i.3, %for.inc.i.3 ]
  %conv.le.i = and i64 %indvars.iv.i.lcssa, 4294967295
  %arrayidx.i91.le.i = getelementptr inbounds i8, ptr %call4.i, i64 %conv.le.i
  %call1.i92.i = invoke noundef nonnull align 8 dereferenceable(8) ptr @_ZNSt3__124__put_character_sequenceB7v170000IcNS_11char_traitsIcEEEERNS_13basic_ostreamIT_T0_EES7_PKS4_m(ptr noundef nonnull align 8 dereferenceable(8) @_ZNSt3__14cerrE, ptr noundef nonnull @.str.145, i64 noundef 34)
          to label %invoke.cont22.i unwind label %lpad21.i

invoke.cont22.i:                                  ; preds = %if.then.i
  %arrayidx.i93.i = getelementptr inbounds i32, ptr %call.i, i64 %conv.le.i
  %22 = load i32, ptr %arrayidx.i93.i, align 4, !tbaa !95
  %call28.i = invoke noundef nonnull align 8 dereferenceable(8) ptr @_ZNSt3__113basic_ostreamIcNS_11char_traitsIcEEElsEj(ptr noundef nonnull align 8 dereferenceable(8) %call1.i92.i, i32 noundef %22)
          to label %invoke.cont27.i unwind label %lpad21.i

invoke.cont27.i:                                  ; preds = %invoke.cont22.i
  %call1.i95.i = invoke noundef nonnull align 8 dereferenceable(8) ptr @_ZNSt3__124__put_character_sequenceB7v170000IcNS_11char_traitsIcEEEERNS_13basic_ostreamIT_T0_EES7_PKS4_m(ptr noundef nonnull align 8 dereferenceable(8) %call28.i, ptr noundef nonnull @.str.146, i64 noundef 19)
          to label %invoke.cont29.i unwind label %lpad21.i

invoke.cont29.i:                                  ; preds = %invoke.cont27.i
  %arrayidx.i97.i = getelementptr inbounds i8, ptr %call1.i, i64 %conv.le.i
  %23 = load i8, ptr %arrayidx.i97.i, align 1, !tbaa !17
  call void @llvm.lifetime.start.p0(i64 1, ptr nonnull %__c.addr.i.i)
  store i8 %23, ptr %__c.addr.i.i, align 1, !tbaa !17
  %call.i98.i = invoke noundef nonnull align 8 dereferenceable(8) ptr @_ZNSt3__124__put_character_sequenceB7v170000IcNS_11char_traitsIcEEEERNS_13basic_ostreamIT_T0_EES7_PKS4_m(ptr noundef nonnull align 8 dereferenceable(8) %call1.i95.i, ptr noundef nonnull %__c.addr.i.i, i64 noundef 1)
          to label %invoke.cont33.i unwind label %lpad21.i

invoke.cont33.i:                                  ; preds = %invoke.cont29.i
  call void @llvm.lifetime.end.p0(i64 1, ptr nonnull %__c.addr.i.i)
  %call1.i100.i = invoke noundef nonnull align 8 dereferenceable(8) ptr @_ZNSt3__124__put_character_sequenceB7v170000IcNS_11char_traitsIcEEEERNS_13basic_ostreamIT_T0_EES7_PKS4_m(ptr noundef nonnull align 8 dereferenceable(8) %call.i98.i, ptr noundef nonnull @.str.147, i64 noundef 12)
          to label %invoke.cont35.i unwind label %lpad21.i

invoke.cont35.i:                                  ; preds = %invoke.cont33.i
  %24 = load i8, ptr %arrayidx.i91.le.i, align 1, !tbaa !17
  call void @llvm.lifetime.start.p0(i64 1, ptr nonnull %__c.addr.i103.i)
  store i8 %24, ptr %__c.addr.i103.i, align 1, !tbaa !17
  %call.i104.i = invoke noundef nonnull align 8 dereferenceable(8) ptr @_ZNSt3__124__put_character_sequenceB7v170000IcNS_11char_traitsIcEEEERNS_13basic_ostreamIT_T0_EES7_PKS4_m(ptr noundef nonnull align 8 dereferenceable(8) %call1.i100.i, ptr noundef nonnull %__c.addr.i103.i, i64 noundef 1)
          to label %invoke.cont39.i unwind label %lpad21.i

invoke.cont39.i:                                  ; preds = %invoke.cont35.i
  call void @llvm.lifetime.end.p0(i64 1, ptr nonnull %__c.addr.i103.i)
  %call42.i = invoke noundef nonnull align 8 dereferenceable(8) ptr @_ZNSt3__1lsB7v170000INS_11char_traitsIcEEEERNS_13basic_ostreamIcT_EES6_PKc(ptr noundef nonnull align 8 dereferenceable(8) %call.i104.i, ptr noundef nonnull @.str.148)
          to label %invoke.cont41.i unwind label %lpad21.i

invoke.cont41.i:                                  ; preds = %invoke.cont39.i
  call void @exit(i32 noundef 1) #14
  unreachable

lpad21.i:                                         ; preds = %invoke.cont39.i, %invoke.cont35.i, %invoke.cont33.i, %invoke.cont29.i, %invoke.cont27.i, %invoke.cont22.i, %if.then.i
  %25 = landingpad { ptr, i32 }
          cleanup
  br label %ehcleanup65.i

for.inc.i:                                        ; preds = %for.body.i
  %indvars.iv.next.i = add nuw nsw i64 %indvars.iv.i, 1
  %arrayidx.i90.i.1 = getelementptr inbounds i8, ptr %call1.i, i64 %indvars.iv.next.i
  %26 = load i8, ptr %arrayidx.i90.i.1, align 1, !tbaa !17
  %arrayidx.i91.i.1 = getelementptr inbounds i8, ptr %call4.i, i64 %indvars.iv.next.i
  %27 = load i8, ptr %arrayidx.i91.i.1, align 1, !tbaa !17
  %cmp20.not.i.1 = icmp eq i8 %26, %27
  br i1 %cmp20.not.i.1, label %for.inc.i.1, label %if.then.i

for.inc.i.1:                                      ; preds = %for.inc.i
  %indvars.iv.next.i.1 = add nuw nsw i64 %indvars.iv.i, 2
  %arrayidx.i90.i.2 = getelementptr inbounds i8, ptr %call1.i, i64 %indvars.iv.next.i.1
  %28 = load i8, ptr %arrayidx.i90.i.2, align 1, !tbaa !17
  %arrayidx.i91.i.2 = getelementptr inbounds i8, ptr %call4.i, i64 %indvars.iv.next.i.1
  %29 = load i8, ptr %arrayidx.i91.i.2, align 1, !tbaa !17
  %cmp20.not.i.2 = icmp eq i8 %28, %29
  br i1 %cmp20.not.i.2, label %for.inc.i.2, label %if.then.i

for.inc.i.2:                                      ; preds = %for.inc.i.1
  %indvars.iv.next.i.2 = add nuw nsw i64 %indvars.iv.i, 3
  %arrayidx.i90.i.3 = getelementptr inbounds i8, ptr %call1.i, i64 %indvars.iv.next.i.2
  %30 = load i8, ptr %arrayidx.i90.i.3, align 1, !tbaa !17
  %arrayidx.i91.i.3 = getelementptr inbounds i8, ptr %call4.i, i64 %indvars.iv.next.i.2
  %31 = load i8, ptr %arrayidx.i91.i.3, align 1, !tbaa !17
  %cmp20.not.i.3 = icmp eq i8 %30, %31
  br i1 %cmp20.not.i.3, label %for.inc.i.3, label %if.then.i

for.inc.i.3:                                      ; preds = %for.inc.i.2
  %indvars.iv.next.i.3 = add nuw nsw i64 %indvars.iv.i, 4
  %arrayidx.i90.i.4 = getelementptr inbounds i8, ptr %call1.i, i64 %indvars.iv.next.i.3
  %32 = load i8, ptr %arrayidx.i90.i.4, align 1, !tbaa !17
  %arrayidx.i91.i.4 = getelementptr inbounds i8, ptr %call4.i, i64 %indvars.iv.next.i.3
  %33 = load i8, ptr %arrayidx.i91.i.4, align 1, !tbaa !17
  %cmp20.not.i.4 = icmp eq i8 %32, %33
  br i1 %cmp20.not.i.4, label %for.inc.i.4, label %if.then.i

for.inc.i.4:                                      ; preds = %for.inc.i.3
  %indvars.iv.next.i.4 = add nuw nsw i64 %indvars.iv.i, 5
  %exitcond.not.i.4 = icmp eq i64 %indvars.iv.next.i.4, 10000
  br i1 %exitcond.not.i.4, label %invoke.cont44.i, label %for.body.i, !llvm.loop !99

invoke.cont44.i:                                  ; preds = %for.inc.i.4
  %error_occurred_.i.i.i = getelementptr inbounds %"class.benchmark::State", ptr %state, i64 0, i32 5
  %34 = load i8, ptr %error_occurred_.i.i.i, align 2, !tbaa !25, !range !40, !noundef !41
  %max_iterations.i.i.i = getelementptr inbounds %"class.benchmark::State", ptr %state, i64 0, i32 2
  %35 = load i64, ptr %max_iterations.i.i.i, align 8
  invoke void @_ZN9benchmark5State16StartKeepRunningEv(ptr noundef nonnull align 8 dereferenceable(120) %state)
          to label %for.cond49.preheader.i unwind label %lpad46.i

for.cond49.preheader.i:                           ; preds = %invoke.cont44.i
  %tobool.not.i.i.i = icmp ne i8 %34, 0
  %cmp.not.i.not137141.i = icmp eq i64 %35, 0
  %cmp.not.i.not137.i = select i1 %tobool.not.i.i.i, i1 true, i1 %cmp.not.i.not137141.i
  br i1 %cmp.not.i.not137.i, label %if.end.i.i, label %for.body53.i.preheader, !prof !42

for.body53.i.preheader:                           ; preds = %for.cond49.preheader.i
  %uglygep18 = getelementptr i8, ptr %call.i, i64 40000
  br label %for.body53.i

if.end.i.i:                                       ; preds = %invoke.cont58.i, %for.cond49.preheader.i
  invoke void @_ZN9benchmark5State17FinishKeepRunningEv(ptr noundef nonnull align 8 dereferenceable(120) %state)
          to label %_ZNSt3__110unique_ptrIA_hNS_14default_deleteIS1_EEED2B7v170000Ev.exit.i unwind label %lpad46.i

_ZNSt3__110unique_ptrIA_hNS_14default_deleteIS1_EEED2B7v170000Ev.exit.i: ; preds = %if.end.i.i
  call void @_ZdaPv(ptr noundef nonnull %call4.i) #15
  %36 = load ptr, ptr %B.i, align 8, !tbaa !23
  store ptr null, ptr %B.i, align 8, !tbaa !23
  %tobool.not.i.i107.i = icmp eq ptr %36, null
  br i1 %tobool.not.i.i107.i, label %_ZL28benchForTruncOrZextVecInLoopIjhEvRN9benchmark5StateEPFvPKT_PT0_iE.exit, label %_ZNKSt3__114default_deleteIA_hEclB7v170000IhEENS2_20_EnableIfConvertibleIT_E4typeEPS5_.exit.i.i108.i

_ZNKSt3__114default_deleteIA_hEclB7v170000IhEENS2_20_EnableIfConvertibleIT_E4typeEPS5_.exit.i.i108.i: ; preds = %_ZNSt3__110unique_ptrIA_hNS_14default_deleteIS1_EEED2B7v170000Ev.exit.i
  call void @_ZdaPv(ptr noundef nonnull %36) #15
  br label %_ZL28benchForTruncOrZextVecInLoopIjhEvRN9benchmark5StateEPFvPKT_PT0_iE.exit

lpad46.i:                                         ; preds = %if.end.i.i, %invoke.cont44.i
  %37 = landingpad { ptr, i32 }
          cleanup
  br label %ehcleanup65.i

for.body53.i:                                     ; preds = %for.body53.i.preheader, %invoke.cont58.i
  %__begin1.sroa.0.0138.i = phi i64 [ %dec.i.i, %invoke.cont58.i ], [ %35, %for.body53.i.preheader ]
  %38 = load i64, ptr %B.i, align 8
  call void asm sideeffect "", "=*r|m,0,~{memory},~{dirflag},~{fpsr},~{flags}"(ptr nonnull elementtype(%"class.std::__1::unique_ptr.55") %B.i, i64 %38) #13, !srcloc !43
  fence syncscope("singlethread") acq_rel
  %39 = load ptr, ptr %B.i, align 8, !tbaa !23
  %uglygep = getelementptr i8, ptr %39, i64 10000
  %bound0 = icmp ult ptr %39, %uglygep18
  %bound1 = icmp ult ptr %call.i, %uglygep
  %found.conflict = and i1 %bound0, %bound1
  br i1 %found.conflict, label %for.body.i11, label %vector.body24

vector.body24:                                    ; preds = %for.body53.i, %vector.body24
  %index25 = phi i64 [ %index.next28.1, %vector.body24 ], [ 0, %for.body53.i ]
  %40 = getelementptr inbounds i32, ptr %call.i, i64 %index25
  %wide.load26 = load <4 x i32>, ptr %40, align 4, !tbaa !95, !alias.scope !116
  %41 = getelementptr inbounds i32, ptr %40, i64 4
  %wide.load27 = load <4 x i32>, ptr %41, align 4, !tbaa !95, !alias.scope !116
  %42 = trunc <4 x i32> %wide.load26 to <4 x i8>
  %43 = trunc <4 x i32> %wide.load27 to <4 x i8>
  %44 = getelementptr inbounds i8, ptr %39, i64 %index25
  store <4 x i8> %42, ptr %44, align 1, !tbaa !17, !alias.scope !119, !noalias !116
  %45 = getelementptr inbounds i8, ptr %44, i64 4
  store <4 x i8> %43, ptr %45, align 1, !tbaa !17, !alias.scope !119, !noalias !116
  %index.next28 = or i64 %index25, 8
  %46 = getelementptr inbounds i32, ptr %call.i, i64 %index.next28
  %wide.load26.1 = load <4 x i32>, ptr %46, align 4, !tbaa !95, !alias.scope !116
  %47 = getelementptr inbounds i32, ptr %46, i64 4
  %wide.load27.1 = load <4 x i32>, ptr %47, align 4, !tbaa !95, !alias.scope !116
  %48 = trunc <4 x i32> %wide.load26.1 to <4 x i8>
  %49 = trunc <4 x i32> %wide.load27.1 to <4 x i8>
  %50 = getelementptr inbounds i8, ptr %39, i64 %index.next28
  store <4 x i8> %48, ptr %50, align 1, !tbaa !17, !alias.scope !119, !noalias !116
  %51 = getelementptr inbounds i8, ptr %50, i64 4
  store <4 x i8> %49, ptr %51, align 1, !tbaa !17, !alias.scope !119, !noalias !116
  %index.next28.1 = add nuw nsw i64 %index25, 16
  %52 = icmp eq i64 %index.next28.1, 10000
  br i1 %52, label %invoke.cont58.i, label %vector.body24, !llvm.loop !121

for.body.i11:                                     ; preds = %for.body53.i, %for.body.i11
  %indvars.iv.i5 = phi i64 [ %indvars.iv.next.i9.4, %for.body.i11 ], [ 0, %for.body53.i ]
  %arrayidx.i6 = getelementptr inbounds i32, ptr %call.i, i64 %indvars.iv.i5
  %53 = load i32, ptr %arrayidx.i6, align 4, !tbaa !95
  %conv.i7 = trunc i32 %53 to i8
  %arrayidx2.i8 = getelementptr inbounds i8, ptr %39, i64 %indvars.iv.i5
  store i8 %conv.i7, ptr %arrayidx2.i8, align 1, !tbaa !17
  %indvars.iv.next.i9 = add nuw nsw i64 %indvars.iv.i5, 1
  %arrayidx.i6.1 = getelementptr inbounds i32, ptr %call.i, i64 %indvars.iv.next.i9
  %54 = load i32, ptr %arrayidx.i6.1, align 4, !tbaa !95
  %conv.i7.1 = trunc i32 %54 to i8
  %arrayidx2.i8.1 = getelementptr inbounds i8, ptr %39, i64 %indvars.iv.next.i9
  store i8 %conv.i7.1, ptr %arrayidx2.i8.1, align 1, !tbaa !17
  %indvars.iv.next.i9.1 = add nuw nsw i64 %indvars.iv.i5, 2
  %arrayidx.i6.2 = getelementptr inbounds i32, ptr %call.i, i64 %indvars.iv.next.i9.1
  %55 = load i32, ptr %arrayidx.i6.2, align 4, !tbaa !95
  %conv.i7.2 = trunc i32 %55 to i8
  %arrayidx2.i8.2 = getelementptr inbounds i8, ptr %39, i64 %indvars.iv.next.i9.1
  store i8 %conv.i7.2, ptr %arrayidx2.i8.2, align 1, !tbaa !17
  %indvars.iv.next.i9.2 = add nuw nsw i64 %indvars.iv.i5, 3
  %arrayidx.i6.3 = getelementptr inbounds i32, ptr %call.i, i64 %indvars.iv.next.i9.2
  %56 = load i32, ptr %arrayidx.i6.3, align 4, !tbaa !95
  %conv.i7.3 = trunc i32 %56 to i8
  %arrayidx2.i8.3 = getelementptr inbounds i8, ptr %39, i64 %indvars.iv.next.i9.2
  store i8 %conv.i7.3, ptr %arrayidx2.i8.3, align 1, !tbaa !17
  %indvars.iv.next.i9.3 = add nuw nsw i64 %indvars.iv.i5, 4
  %arrayidx.i6.4 = getelementptr inbounds i32, ptr %call.i, i64 %indvars.iv.next.i9.3
  %57 = load i32, ptr %arrayidx.i6.4, align 4, !tbaa !95
  %conv.i7.4 = trunc i32 %57 to i8
  %arrayidx2.i8.4 = getelementptr inbounds i8, ptr %39, i64 %indvars.iv.next.i9.3
  store i8 %conv.i7.4, ptr %arrayidx2.i8.4, align 1, !tbaa !17
  %indvars.iv.next.i9.4 = add nuw nsw i64 %indvars.iv.i5, 5
  %exitcond.not.i10.4 = icmp eq i64 %indvars.iv.next.i9.4, 10000
  br i1 %exitcond.not.i10.4, label %invoke.cont58.i, label %for.body.i11, !llvm.loop !122

invoke.cont58.i:                                  ; preds = %vector.body24, %for.body.i11
  %dec.i.i = add i64 %__begin1.sroa.0.0138.i, -1
  %cmp.not.i.not.i = icmp eq i64 %dec.i.i, 0
  br i1 %cmp.not.i.not.i, label %if.end.i.i, label %for.body53.i, !prof !42

ehcleanup65.i:                                    ; preds = %lpad46.i, %lpad21.i, %lpad5.loopexit.i
  %.pn79.i = phi { ptr, i32 } [ %25, %lpad21.i ], [ %37, %lpad46.i ], [ %lpad.loopexit.i, %lpad5.loopexit.i ]
  call void @_ZdaPv(ptr noundef nonnull %call4.i) #15
  %.pr.i = load ptr, ptr %B.i, align 8, !tbaa !23
  store ptr null, ptr %B.i, align 8, !tbaa !23
  %tobool.not.i.i114.i = icmp eq ptr %.pr.i, null
  br i1 %tobool.not.i.i114.i, label %_ZNSt3__110unique_ptrIA_jNS_14default_deleteIS1_EEED2B7v170000Ev.exit119.i, label %_ZNKSt3__114default_deleteIA_hEclB7v170000IhEENS2_20_EnableIfConvertibleIT_E4typeEPS5_.exit.i.i115.i

_ZNKSt3__114default_deleteIA_hEclB7v170000IhEENS2_20_EnableIfConvertibleIT_E4typeEPS5_.exit.i.i115.i: ; preds = %ehcleanup65.i, %ehcleanup65.thread.i
  %.pn79.pn133.i = phi { ptr, i32 } [ %19, %ehcleanup65.thread.i ], [ %.pn79.i, %ehcleanup65.i ]
  %58 = phi ptr [ %call1.i, %ehcleanup65.thread.i ], [ %.pr.i, %ehcleanup65.i ]
  call void @_ZdaPv(ptr noundef nonnull %58) #15
  br label %_ZNSt3__110unique_ptrIA_jNS_14default_deleteIS1_EEED2B7v170000Ev.exit119.i

_ZNSt3__110unique_ptrIA_jNS_14default_deleteIS1_EEED2B7v170000Ev.exit119.i: ; preds = %_ZNKSt3__114default_deleteIA_hEclB7v170000IhEENS2_20_EnableIfConvertibleIT_E4typeEPS5_.exit.i.i115.i, %ehcleanup65.i, %lpad.i
  %.pn79.pn.pn.i = phi { ptr, i32 } [ %18, %lpad.i ], [ %.pn79.i, %ehcleanup65.i ], [ %.pn79.pn133.i, %_ZNKSt3__114default_deleteIA_hEclB7v170000IhEENS2_20_EnableIfConvertibleIT_E4typeEPS5_.exit.i.i115.i ]
  call void @llvm.lifetime.end.p0(i64 8, ptr nonnull %B.i) #13
  call void @_ZdaPv(ptr noundef nonnull %call.i) #15
  resume { ptr, i32 } %.pn79.pn.pn.i

_ZL28benchForTruncOrZextVecInLoopIjhEvRN9benchmark5StateEPFvPKT_PT0_iE.exit: ; preds = %_ZNSt3__110unique_ptrIA_hNS_14default_deleteIS1_EEED2B7v170000Ev.exit.i, %_ZNKSt3__114default_deleteIA_hEclB7v170000IhEENS2_20_EnableIfConvertibleIT_E4typeEPS5_.exit.i.i108.i
  call void @llvm.lifetime.end.p0(i64 8, ptr nonnull %B.i) #13
  call void @_ZdaPv(ptr noundef nonnull %call.i) #15
  ret void
}

; Function Attrs: uwtable
define dso_local void @_Z67benchForTruncOrZextVecWithAddInLoopWithVW8From_uint32_t_To_uint8_t_RN9benchmark5StateE(ptr noundef nonnull align 8 dereferenceable(120) %state) #1 personality ptr @__gxx_personality_v0 {
entry:
  %distrib.i37.i = alloca %"class.std::__1::uniform_int_distribution.61", align 1
  %distrib.i.i = alloca %"class.std::__1::uniform_int_distribution.68", align 4
  %B.i = alloca %"class.std::__1::unique_ptr.55", align 8
  %call.i = tail call noalias noundef nonnull dereferenceable(40000) ptr @_Znam(i64 noundef 40000) #12
  call void @llvm.lifetime.start.p0(i64 8, ptr nonnull %B.i) #13
  %call1.i = invoke noalias noundef nonnull dereferenceable(10000) ptr @_Znam(i64 noundef 10000) #12
          to label %invoke.cont.i unwind label %lpad.i

invoke.cont.i:                                    ; preds = %entry
  store ptr %call1.i, ptr %B.i, align 8, !tbaa !5
  call void @llvm.lifetime.start.p0(i64 8, ptr nonnull %distrib.i.i) #13
  store i32 0, ptr %distrib.i.i, align 4, !tbaa !92
  %__b_.i.i.i.i = getelementptr inbounds %"class.std::__1::uniform_int_distribution<unsigned int>::param_type", ptr %distrib.i.i, i64 0, i32 1
  store i32 -1, ptr %__b_.i.i.i.i, align 4, !tbaa !94
  br label %for.body.i.i

for.body.i.i:                                     ; preds = %call.i.i.noexc.i, %invoke.cont.i
  %indvars.iv.i.i = phi i64 [ 0, %invoke.cont.i ], [ %indvars.iv.next.i.i, %call.i.i.noexc.i ]
  %call.i.i36.i = invoke noundef i32 @_ZNSt3__124uniform_int_distributionIjEclINS_23mersenne_twister_engineImLm32ELm624ELm397ELm31ELm2567483615ELm11ELm4294967295ELm7ELm2636928640ELm15ELm4022730752ELm18ELm1812433253EEEEEjRT_RKNS1_10param_typeE(ptr noundef nonnull align 4 dereferenceable(8) %distrib.i.i, ptr noundef nonnull align 8 dereferenceable(5000) @_ZL3rng, ptr noundef nonnull align 4 dereferenceable(8) %distrib.i.i)
          to label %call.i.i.noexc.i unwind label %lpad5.loopexit.split-lp.i

call.i.i.noexc.i:                                 ; preds = %for.body.i.i
  %arrayidx.i.i.i = getelementptr inbounds i32, ptr %call.i, i64 %indvars.iv.i.i
  store i32 %call.i.i36.i, ptr %arrayidx.i.i.i, align 4, !tbaa !95
  %indvars.iv.next.i.i = add nuw nsw i64 %indvars.iv.i.i, 1
  %exitcond.not.i.i = icmp eq i64 %indvars.iv.next.i.i, 10000
  br i1 %exitcond.not.i.i, label %invoke.cont6.i, label %for.body.i.i, !llvm.loop !96

invoke.cont6.i:                                   ; preds = %call.i.i.noexc.i
  call void @llvm.lifetime.end.p0(i64 8, ptr nonnull %distrib.i.i) #13
  call void @llvm.lifetime.start.p0(i64 2, ptr nonnull %distrib.i37.i) #13
  store i8 0, ptr %distrib.i37.i, align 1, !tbaa !67
  %__b_.i.i.i38.i = getelementptr inbounds %"class.std::__1::uniform_int_distribution<unsigned char>::param_type", ptr %distrib.i37.i, i64 0, i32 1
  store i8 -1, ptr %__b_.i.i.i38.i, align 1, !tbaa !69
  br label %for.body.i43.i

for.body.i43.i:                                   ; preds = %call.i.i.noexc44.i, %invoke.cont6.i
  %indvars.iv.i39.i = phi i64 [ 0, %invoke.cont6.i ], [ %indvars.iv.next.i41.i, %call.i.i.noexc44.i ]
  %call.i.i45.i = invoke noundef zeroext i8 @_ZNSt3__124uniform_int_distributionIhEclINS_23mersenne_twister_engineImLm32ELm624ELm397ELm31ELm2567483615ELm11ELm4294967295ELm7ELm2636928640ELm15ELm4022730752ELm18ELm1812433253EEEEEhRT_RKNS1_10param_typeE(ptr noundef nonnull align 1 dereferenceable(2) %distrib.i37.i, ptr noundef nonnull align 8 dereferenceable(5000) @_ZL3rng, ptr noundef nonnull align 1 dereferenceable(2) %distrib.i37.i)
          to label %call.i.i.noexc44.i unwind label %lpad5.loopexit.i

call.i.i.noexc44.i:                               ; preds = %for.body.i43.i
  %0 = load ptr, ptr %B.i, align 8, !tbaa !23
  %arrayidx.i.i40.i = getelementptr inbounds i8, ptr %0, i64 %indvars.iv.i39.i
  store i8 %call.i.i45.i, ptr %arrayidx.i.i40.i, align 1, !tbaa !17
  %indvars.iv.next.i41.i = add nuw nsw i64 %indvars.iv.i39.i, 1
  %exitcond.not.i42.i = icmp eq i64 %indvars.iv.next.i41.i, 10000
  br i1 %exitcond.not.i42.i, label %invoke.cont9.i, label %for.body.i43.i, !llvm.loop !70

invoke.cont9.i:                                   ; preds = %call.i.i.noexc44.i
  call void @llvm.lifetime.end.p0(i64 2, ptr nonnull %distrib.i37.i) #13
  %error_occurred_.i.i.i = getelementptr inbounds %"class.benchmark::State", ptr %state, i64 0, i32 5
  %1 = load i8, ptr %error_occurred_.i.i.i, align 2, !tbaa !25, !range !40, !noundef !41
  %max_iterations.i.i.i = getelementptr inbounds %"class.benchmark::State", ptr %state, i64 0, i32 2
  %2 = load i64, ptr %max_iterations.i.i.i, align 8
  invoke void @_ZN9benchmark5State16StartKeepRunningEv(ptr noundef nonnull align 8 dereferenceable(120) %state)
          to label %for.cond.preheader.i unwind label %lpad11.i

for.cond.preheader.i:                             ; preds = %invoke.cont9.i
  %tobool.not.i.i.i = icmp ne i8 %1, 0
  %cmp.not.i.not6971.i = icmp eq i64 %2, 0
  %cmp.not.i.not69.i = select i1 %tobool.not.i.i.i, i1 true, i1 %cmp.not.i.not6971.i
  br i1 %cmp.not.i.not69.i, label %if.end.i.i, label %for.body.i.preheader, !prof !42

for.body.i.preheader:                             ; preds = %for.cond.preheader.i
  %uglygep2 = getelementptr i8, ptr %call.i, i64 40000
  br label %for.body.i

if.end.i.i:                                       ; preds = %invoke.cont19.i, %for.cond.preheader.i
  invoke void @_ZN9benchmark5State17FinishKeepRunningEv(ptr noundef nonnull align 8 dereferenceable(120) %state)
          to label %_ZNSt3__110unique_ptrIA_hNS_14default_deleteIS1_EEED2B7v170000Ev.exit.i unwind label %lpad11.i

_ZNSt3__110unique_ptrIA_hNS_14default_deleteIS1_EEED2B7v170000Ev.exit.i: ; preds = %if.end.i.i
  %3 = load ptr, ptr %B.i, align 8, !tbaa !23
  store ptr null, ptr %B.i, align 8, !tbaa !23
  %tobool.not.i.i47.i = icmp eq ptr %3, null
  br i1 %tobool.not.i.i47.i, label %_ZL35benchForTruncOrZextVecWithAddInLoopIjhEvRN9benchmark5StateEPFvPKT_PT0_iE.exit, label %_ZNKSt3__114default_deleteIA_hEclB7v170000IhEENS2_20_EnableIfConvertibleIT_E4typeEPS5_.exit.i.i48.i

_ZNKSt3__114default_deleteIA_hEclB7v170000IhEENS2_20_EnableIfConvertibleIT_E4typeEPS5_.exit.i.i48.i: ; preds = %_ZNSt3__110unique_ptrIA_hNS_14default_deleteIS1_EEED2B7v170000Ev.exit.i
  call void @_ZdaPv(ptr noundef nonnull %3) #15
  br label %_ZL35benchForTruncOrZextVecWithAddInLoopIjhEvRN9benchmark5StateEPFvPKT_PT0_iE.exit

lpad.i:                                           ; preds = %entry
  %4 = landingpad { ptr, i32 }
          cleanup
  br label %_ZNSt3__110unique_ptrIA_jNS_14default_deleteIS1_EEED2B7v170000Ev.exit59.i

lpad5.loopexit.i:                                 ; preds = %for.body.i43.i
  %lpad.loopexit.i = landingpad { ptr, i32 }
          cleanup
  br label %ehcleanup24.i

lpad5.loopexit.split-lp.i:                        ; preds = %for.body.i.i
  %lpad.loopexit.split-lp.i = landingpad { ptr, i32 }
          cleanup
  br label %ehcleanup24.i

lpad11.i:                                         ; preds = %if.end.i.i, %invoke.cont9.i
  %5 = landingpad { ptr, i32 }
          cleanup
  br label %ehcleanup24.i

for.body.i:                                       ; preds = %for.body.i.preheader, %invoke.cont19.i
  %__begin1.sroa.0.070.i = phi i64 [ %dec.i.i, %invoke.cont19.i ], [ %2, %for.body.i.preheader ]
  %6 = load i64, ptr %B.i, align 8
  call void asm sideeffect "", "=*r|m,0,~{memory},~{dirflag},~{fpsr},~{flags}"(ptr nonnull elementtype(%"class.std::__1::unique_ptr.55") %B.i, i64 %6) #13, !srcloc !43
  fence syncscope("singlethread") acq_rel
  %7 = load ptr, ptr %B.i, align 8, !tbaa !23
  %uglygep = getelementptr i8, ptr %7, i64 10000
  %bound0 = icmp ult ptr %7, %uglygep2
  %bound1 = icmp ult ptr %call.i, %uglygep
  %found.conflict = and i1 %bound0, %bound1
  br i1 %found.conflict, label %for.body.i1.preheader, label %vector.body

vector.body:                                      ; preds = %for.body.i, %vector.body
  %index = phi i64 [ %index.next, %vector.body ], [ 0, %for.body.i ]
  %8 = getelementptr inbounds i32, ptr %call.i, i64 %index
  %wide.load = load <8 x i32>, ptr %8, align 4, !tbaa !95, !alias.scope !123
  %9 = getelementptr inbounds i32, ptr %8, i64 8
  %wide.load3 = load <8 x i32>, ptr %9, align 4, !tbaa !95, !alias.scope !123
  %10 = getelementptr inbounds i32, ptr %8, i64 16
  %wide.load4 = load <8 x i32>, ptr %10, align 4, !tbaa !95, !alias.scope !123
  %11 = getelementptr inbounds i32, ptr %8, i64 24
  %wide.load5 = load <8 x i32>, ptr %11, align 4, !tbaa !95, !alias.scope !123
  %12 = getelementptr inbounds i8, ptr %7, i64 %index
  %wide.load6 = load <8 x i8>, ptr %12, align 1, !tbaa !17, !alias.scope !126, !noalias !123
  %13 = getelementptr inbounds i8, ptr %12, i64 8
  %wide.load7 = load <8 x i8>, ptr %13, align 1, !tbaa !17, !alias.scope !126, !noalias !123
  %14 = getelementptr inbounds i8, ptr %12, i64 16
  %wide.load8 = load <8 x i8>, ptr %14, align 1, !tbaa !17, !alias.scope !126, !noalias !123
  %15 = getelementptr inbounds i8, ptr %12, i64 24
  %wide.load9 = load <8 x i8>, ptr %15, align 1, !tbaa !17, !alias.scope !126, !noalias !123
  %16 = trunc <8 x i32> %wide.load to <8 x i8>
  %17 = trunc <8 x i32> %wide.load3 to <8 x i8>
  %18 = trunc <8 x i32> %wide.load4 to <8 x i8>
  %19 = trunc <8 x i32> %wide.load5 to <8 x i8>
  %20 = add <8 x i8> %wide.load6, %16
  %21 = add <8 x i8> %wide.load7, %17
  %22 = add <8 x i8> %wide.load8, %18
  %23 = add <8 x i8> %wide.load9, %19
  store <8 x i8> %20, ptr %12, align 1, !tbaa !17, !alias.scope !126, !noalias !123
  store <8 x i8> %21, ptr %13, align 1, !tbaa !17, !alias.scope !126, !noalias !123
  store <8 x i8> %22, ptr %14, align 1, !tbaa !17, !alias.scope !126, !noalias !123
  store <8 x i8> %23, ptr %15, align 1, !tbaa !17, !alias.scope !126, !noalias !123
  %index.next = add nuw i64 %index, 32
  %24 = icmp eq i64 %index.next, 9984
  br i1 %24, label %for.body.i1.preheader, label %vector.body, !llvm.loop !128

for.body.i1.preheader:                            ; preds = %vector.body, %for.body.i
  %indvars.iv.i.ph = phi i64 [ 0, %for.body.i ], [ 9984, %vector.body ]
  br label %for.body.i1

for.body.i1:                                      ; preds = %for.body.i1, %for.body.i1.preheader
  %indvars.iv.i = phi i64 [ %indvars.iv.i.ph, %for.body.i1.preheader ], [ %indvars.iv.next.i.3, %for.body.i1 ]
  %arrayidx.i = getelementptr inbounds i32, ptr %call.i, i64 %indvars.iv.i
  %25 = load i32, ptr %arrayidx.i, align 4, !tbaa !95
  %arrayidx2.i = getelementptr inbounds i8, ptr %7, i64 %indvars.iv.i
  %26 = load i8, ptr %arrayidx2.i, align 1, !tbaa !17
  %27 = trunc i32 %25 to i8
  %conv3.i = add i8 %26, %27
  store i8 %conv3.i, ptr %arrayidx2.i, align 1, !tbaa !17
  %indvars.iv.next.i = or i64 %indvars.iv.i, 1
  %arrayidx.i.1 = getelementptr inbounds i32, ptr %call.i, i64 %indvars.iv.next.i
  %28 = load i32, ptr %arrayidx.i.1, align 4, !tbaa !95
  %arrayidx2.i.1 = getelementptr inbounds i8, ptr %7, i64 %indvars.iv.next.i
  %29 = load i8, ptr %arrayidx2.i.1, align 1, !tbaa !17
  %30 = trunc i32 %28 to i8
  %conv3.i.1 = add i8 %29, %30
  store i8 %conv3.i.1, ptr %arrayidx2.i.1, align 1, !tbaa !17
  %indvars.iv.next.i.1 = or i64 %indvars.iv.i, 2
  %arrayidx.i.2 = getelementptr inbounds i32, ptr %call.i, i64 %indvars.iv.next.i.1
  %31 = load i32, ptr %arrayidx.i.2, align 4, !tbaa !95
  %arrayidx2.i.2 = getelementptr inbounds i8, ptr %7, i64 %indvars.iv.next.i.1
  %32 = load i8, ptr %arrayidx2.i.2, align 1, !tbaa !17
  %33 = trunc i32 %31 to i8
  %conv3.i.2 = add i8 %32, %33
  store i8 %conv3.i.2, ptr %arrayidx2.i.2, align 1, !tbaa !17
  %indvars.iv.next.i.2 = or i64 %indvars.iv.i, 3
  %arrayidx.i.3 = getelementptr inbounds i32, ptr %call.i, i64 %indvars.iv.next.i.2
  %34 = load i32, ptr %arrayidx.i.3, align 4, !tbaa !95
  %arrayidx2.i.3 = getelementptr inbounds i8, ptr %7, i64 %indvars.iv.next.i.2
  %35 = load i8, ptr %arrayidx2.i.3, align 1, !tbaa !17
  %36 = trunc i32 %34 to i8
  %conv3.i.3 = add i8 %35, %36
  store i8 %conv3.i.3, ptr %arrayidx2.i.3, align 1, !tbaa !17
  %indvars.iv.next.i.3 = add nuw nsw i64 %indvars.iv.i, 4
  %exitcond.not.i.3 = icmp eq i64 %indvars.iv.next.i.3, 10000
  br i1 %exitcond.not.i.3, label %invoke.cont19.i, label %for.body.i1, !llvm.loop !129

invoke.cont19.i:                                  ; preds = %for.body.i1
  %dec.i.i = add i64 %__begin1.sroa.0.070.i, -1
  %cmp.not.i.not.i = icmp eq i64 %dec.i.i, 0
  br i1 %cmp.not.i.not.i, label %if.end.i.i, label %for.body.i, !prof !42

ehcleanup24.i:                                    ; preds = %lpad11.i, %lpad5.loopexit.split-lp.i, %lpad5.loopexit.i
  %.pn.pn.pn.i = phi { ptr, i32 } [ %5, %lpad11.i ], [ %lpad.loopexit.i, %lpad5.loopexit.i ], [ %lpad.loopexit.split-lp.i, %lpad5.loopexit.split-lp.i ]
  %.pr.i = load ptr, ptr %B.i, align 8, !tbaa !23
  store ptr null, ptr %B.i, align 8, !tbaa !23
  %tobool.not.i.i54.i = icmp eq ptr %.pr.i, null
  br i1 %tobool.not.i.i54.i, label %_ZNSt3__110unique_ptrIA_jNS_14default_deleteIS1_EEED2B7v170000Ev.exit59.i, label %_ZNKSt3__114default_deleteIA_hEclB7v170000IhEENS2_20_EnableIfConvertibleIT_E4typeEPS5_.exit.i.i55.i

_ZNKSt3__114default_deleteIA_hEclB7v170000IhEENS2_20_EnableIfConvertibleIT_E4typeEPS5_.exit.i.i55.i: ; preds = %ehcleanup24.i
  call void @_ZdaPv(ptr noundef nonnull %.pr.i) #15
  br label %_ZNSt3__110unique_ptrIA_jNS_14default_deleteIS1_EEED2B7v170000Ev.exit59.i

_ZNSt3__110unique_ptrIA_jNS_14default_deleteIS1_EEED2B7v170000Ev.exit59.i: ; preds = %_ZNKSt3__114default_deleteIA_hEclB7v170000IhEENS2_20_EnableIfConvertibleIT_E4typeEPS5_.exit.i.i55.i, %ehcleanup24.i, %lpad.i
  %.pn.pn.pn.pn.pn.i = phi { ptr, i32 } [ %4, %lpad.i ], [ %.pn.pn.pn.i, %ehcleanup24.i ], [ %.pn.pn.pn.i, %_ZNKSt3__114default_deleteIA_hEclB7v170000IhEENS2_20_EnableIfConvertibleIT_E4typeEPS5_.exit.i.i55.i ]
  call void @llvm.lifetime.end.p0(i64 8, ptr nonnull %B.i) #13
  call void @_ZdaPv(ptr noundef nonnull %call.i) #15
  resume { ptr, i32 } %.pn.pn.pn.pn.pn.i

_ZL35benchForTruncOrZextVecWithAddInLoopIjhEvRN9benchmark5StateEPFvPKT_PT0_iE.exit: ; preds = %_ZNSt3__110unique_ptrIA_hNS_14default_deleteIS1_EEED2B7v170000Ev.exit.i, %_ZNKSt3__114default_deleteIA_hEclB7v170000IhEENS2_20_EnableIfConvertibleIT_E4typeEPS5_.exit.i.i48.i
  call void @llvm.lifetime.end.p0(i64 8, ptr nonnull %B.i) #13
  call void @_ZdaPv(ptr noundef nonnull %call.i) #15
  ret void
}

; Function Attrs: uwtable
define dso_local void @_Z68benchForTruncOrZextVecWithAddInLoopWithVW16From_uint32_t_To_uint8_t_RN9benchmark5StateE(ptr noundef nonnull align 8 dereferenceable(120) %state) #1 personality ptr @__gxx_personality_v0 {
entry:
  %distrib.i37.i = alloca %"class.std::__1::uniform_int_distribution.61", align 1
  %distrib.i.i = alloca %"class.std::__1::uniform_int_distribution.68", align 4
  %B.i = alloca %"class.std::__1::unique_ptr.55", align 8
  %call.i = tail call noalias noundef nonnull dereferenceable(40000) ptr @_Znam(i64 noundef 40000) #12
  call void @llvm.lifetime.start.p0(i64 8, ptr nonnull %B.i) #13
  %call1.i = invoke noalias noundef nonnull dereferenceable(10000) ptr @_Znam(i64 noundef 10000) #12
          to label %invoke.cont.i unwind label %lpad.i

invoke.cont.i:                                    ; preds = %entry
  store ptr %call1.i, ptr %B.i, align 8, !tbaa !5
  call void @llvm.lifetime.start.p0(i64 8, ptr nonnull %distrib.i.i) #13
  store i32 0, ptr %distrib.i.i, align 4, !tbaa !92
  %__b_.i.i.i.i = getelementptr inbounds %"class.std::__1::uniform_int_distribution<unsigned int>::param_type", ptr %distrib.i.i, i64 0, i32 1
  store i32 -1, ptr %__b_.i.i.i.i, align 4, !tbaa !94
  br label %for.body.i.i

for.body.i.i:                                     ; preds = %call.i.i.noexc.i, %invoke.cont.i
  %indvars.iv.i.i = phi i64 [ 0, %invoke.cont.i ], [ %indvars.iv.next.i.i, %call.i.i.noexc.i ]
  %call.i.i36.i = invoke noundef i32 @_ZNSt3__124uniform_int_distributionIjEclINS_23mersenne_twister_engineImLm32ELm624ELm397ELm31ELm2567483615ELm11ELm4294967295ELm7ELm2636928640ELm15ELm4022730752ELm18ELm1812433253EEEEEjRT_RKNS1_10param_typeE(ptr noundef nonnull align 4 dereferenceable(8) %distrib.i.i, ptr noundef nonnull align 8 dereferenceable(5000) @_ZL3rng, ptr noundef nonnull align 4 dereferenceable(8) %distrib.i.i)
          to label %call.i.i.noexc.i unwind label %lpad5.loopexit.split-lp.i

call.i.i.noexc.i:                                 ; preds = %for.body.i.i
  %arrayidx.i.i.i = getelementptr inbounds i32, ptr %call.i, i64 %indvars.iv.i.i
  store i32 %call.i.i36.i, ptr %arrayidx.i.i.i, align 4, !tbaa !95
  %indvars.iv.next.i.i = add nuw nsw i64 %indvars.iv.i.i, 1
  %exitcond.not.i.i = icmp eq i64 %indvars.iv.next.i.i, 10000
  br i1 %exitcond.not.i.i, label %invoke.cont6.i, label %for.body.i.i, !llvm.loop !96

invoke.cont6.i:                                   ; preds = %call.i.i.noexc.i
  call void @llvm.lifetime.end.p0(i64 8, ptr nonnull %distrib.i.i) #13
  call void @llvm.lifetime.start.p0(i64 2, ptr nonnull %distrib.i37.i) #13
  store i8 0, ptr %distrib.i37.i, align 1, !tbaa !67
  %__b_.i.i.i38.i = getelementptr inbounds %"class.std::__1::uniform_int_distribution<unsigned char>::param_type", ptr %distrib.i37.i, i64 0, i32 1
  store i8 -1, ptr %__b_.i.i.i38.i, align 1, !tbaa !69
  br label %for.body.i43.i

for.body.i43.i:                                   ; preds = %call.i.i.noexc44.i, %invoke.cont6.i
  %indvars.iv.i39.i = phi i64 [ 0, %invoke.cont6.i ], [ %indvars.iv.next.i41.i, %call.i.i.noexc44.i ]
  %call.i.i45.i = invoke noundef zeroext i8 @_ZNSt3__124uniform_int_distributionIhEclINS_23mersenne_twister_engineImLm32ELm624ELm397ELm31ELm2567483615ELm11ELm4294967295ELm7ELm2636928640ELm15ELm4022730752ELm18ELm1812433253EEEEEhRT_RKNS1_10param_typeE(ptr noundef nonnull align 1 dereferenceable(2) %distrib.i37.i, ptr noundef nonnull align 8 dereferenceable(5000) @_ZL3rng, ptr noundef nonnull align 1 dereferenceable(2) %distrib.i37.i)
          to label %call.i.i.noexc44.i unwind label %lpad5.loopexit.i

call.i.i.noexc44.i:                               ; preds = %for.body.i43.i
  %0 = load ptr, ptr %B.i, align 8, !tbaa !23
  %arrayidx.i.i40.i = getelementptr inbounds i8, ptr %0, i64 %indvars.iv.i39.i
  store i8 %call.i.i45.i, ptr %arrayidx.i.i40.i, align 1, !tbaa !17
  %indvars.iv.next.i41.i = add nuw nsw i64 %indvars.iv.i39.i, 1
  %exitcond.not.i42.i = icmp eq i64 %indvars.iv.next.i41.i, 10000
  br i1 %exitcond.not.i42.i, label %invoke.cont9.i, label %for.body.i43.i, !llvm.loop !70

invoke.cont9.i:                                   ; preds = %call.i.i.noexc44.i
  call void @llvm.lifetime.end.p0(i64 2, ptr nonnull %distrib.i37.i) #13
  %error_occurred_.i.i.i = getelementptr inbounds %"class.benchmark::State", ptr %state, i64 0, i32 5
  %1 = load i8, ptr %error_occurred_.i.i.i, align 2, !tbaa !25, !range !40, !noundef !41
  %max_iterations.i.i.i = getelementptr inbounds %"class.benchmark::State", ptr %state, i64 0, i32 2
  %2 = load i64, ptr %max_iterations.i.i.i, align 8
  invoke void @_ZN9benchmark5State16StartKeepRunningEv(ptr noundef nonnull align 8 dereferenceable(120) %state)
          to label %for.cond.preheader.i unwind label %lpad11.i

for.cond.preheader.i:                             ; preds = %invoke.cont9.i
  %tobool.not.i.i.i = icmp ne i8 %1, 0
  %cmp.not.i.not6971.i = icmp eq i64 %2, 0
  %cmp.not.i.not69.i = select i1 %tobool.not.i.i.i, i1 true, i1 %cmp.not.i.not6971.i
  br i1 %cmp.not.i.not69.i, label %if.end.i.i, label %for.body.i.preheader, !prof !42

for.body.i.preheader:                             ; preds = %for.cond.preheader.i
  %uglygep2 = getelementptr i8, ptr %call.i, i64 40000
  br label %for.body.i

if.end.i.i:                                       ; preds = %invoke.cont19.i, %for.cond.preheader.i
  invoke void @_ZN9benchmark5State17FinishKeepRunningEv(ptr noundef nonnull align 8 dereferenceable(120) %state)
          to label %_ZNSt3__110unique_ptrIA_hNS_14default_deleteIS1_EEED2B7v170000Ev.exit.i unwind label %lpad11.i

_ZNSt3__110unique_ptrIA_hNS_14default_deleteIS1_EEED2B7v170000Ev.exit.i: ; preds = %if.end.i.i
  %3 = load ptr, ptr %B.i, align 8, !tbaa !23
  store ptr null, ptr %B.i, align 8, !tbaa !23
  %tobool.not.i.i47.i = icmp eq ptr %3, null
  br i1 %tobool.not.i.i47.i, label %_ZL35benchForTruncOrZextVecWithAddInLoopIjhEvRN9benchmark5StateEPFvPKT_PT0_iE.exit, label %_ZNKSt3__114default_deleteIA_hEclB7v170000IhEENS2_20_EnableIfConvertibleIT_E4typeEPS5_.exit.i.i48.i

_ZNKSt3__114default_deleteIA_hEclB7v170000IhEENS2_20_EnableIfConvertibleIT_E4typeEPS5_.exit.i.i48.i: ; preds = %_ZNSt3__110unique_ptrIA_hNS_14default_deleteIS1_EEED2B7v170000Ev.exit.i
  call void @_ZdaPv(ptr noundef nonnull %3) #15
  br label %_ZL35benchForTruncOrZextVecWithAddInLoopIjhEvRN9benchmark5StateEPFvPKT_PT0_iE.exit

lpad.i:                                           ; preds = %entry
  %4 = landingpad { ptr, i32 }
          cleanup
  br label %_ZNSt3__110unique_ptrIA_jNS_14default_deleteIS1_EEED2B7v170000Ev.exit59.i

lpad5.loopexit.i:                                 ; preds = %for.body.i43.i
  %lpad.loopexit.i = landingpad { ptr, i32 }
          cleanup
  br label %ehcleanup24.i

lpad5.loopexit.split-lp.i:                        ; preds = %for.body.i.i
  %lpad.loopexit.split-lp.i = landingpad { ptr, i32 }
          cleanup
  br label %ehcleanup24.i

lpad11.i:                                         ; preds = %if.end.i.i, %invoke.cont9.i
  %5 = landingpad { ptr, i32 }
          cleanup
