; ModuleID = '/local/mnt2/workspace2/mnadeem/llvm/llvm-test-suite/MicroBenchmarks/MemFunctions/main.cpp'
source_filename = "/local/mnt2/workspace2/mnadeem/llvm/llvm-test-suite/MicroBenchmarks/MemFunctions/main.cpp"
target datalayout = "e-m:e-p270:32:32-p271:32:32-p272:64:64-i64:64-f80:128-n8:16:32:64-S128"
target triple = "x86_64-unknown-linux-gnu"

%"class.std::__1::basic_ostream" = type { ptr, %"class.std::__1::basic_ios.base" }
%"class.std::__1::basic_ios.base" = type <{ %"class.std::__1::ios_base", ptr, i32 }>
%"class.std::__1::ios_base" = type { ptr, i32, i64, i64, i32, i32, ptr, ptr, ptr, ptr, i64, i64, ptr, i64, i64, ptr, i64, i64 }
%"class.std::__1::locale::id" = type <{ %"struct.std::__1::once_flag", i32, [4 x i8] }>
%"struct.std::__1::once_flag" = type { i64 }
%"class.std::__1::basic_string" = type { %"class.std::__1::__compressed_pair" }
%"class.std::__1::__compressed_pair" = type { %"struct.std::__1::__compressed_pair_elem" }
%"struct.std::__1::__compressed_pair_elem" = type { %"struct.std::__1::basic_string<char>::__rep" }
%"struct.std::__1::basic_string<char>::__rep" = type { %union.anon }
%union.anon = type { %"struct.std::__1::basic_string<char>::__long" }
%"struct.std::__1::basic_string<char>::__long" = type { %struct.anon, i64, ptr }
%struct.anon = type { i64 }
%"class.benchmark::State" = type { i64, i64, i64, i8, i8, i8, %"class.std::__1::vector.9", i64, %"class.std::__1::map", i32, i32, ptr, ptr, ptr }
%"class.std::__1::vector.9" = type { ptr, ptr, %"class.std::__1::__compressed_pair.10" }
%"class.std::__1::__compressed_pair.10" = type { %"struct.std::__1::__compressed_pair_elem.11" }
%"struct.std::__1::__compressed_pair_elem.11" = type { ptr }
%"class.std::__1::map" = type { %"class.std::__1::__tree" }
%"class.std::__1::__tree" = type { ptr, %"class.std::__1::__compressed_pair.43", %"class.std::__1::__compressed_pair.49" }
%"class.std::__1::__compressed_pair.43" = type { %"struct.std::__1::__compressed_pair_elem.44" }
%"struct.std::__1::__compressed_pair_elem.44" = type { %"class.std::__1::__tree_end_node" }
%"class.std::__1::__tree_end_node" = type { ptr }
%"class.std::__1::__compressed_pair.49" = type { %"struct.std::__1::__compressed_pair_elem.50" }
%"struct.std::__1::__compressed_pair_elem.50" = type { i64 }
%"struct.std::__1::basic_string<char>::__short" = type { %struct.anon.0, [0 x i8], [23 x i8] }
%struct.anon.0 = type { i8 }
%"class.std::__1::__tree_node" = type { %"class.std::__1::__tree_node_base.base", %"struct.std::__1::__value_type" }
%"class.std::__1::__tree_node_base.base" = type <{ %"class.std::__1::__tree_end_node", ptr, ptr, i8 }>
%"struct.std::__1::__value_type" = type { %"struct.std::__1::pair" }
%"struct.std::__1::pair" = type { %"class.std::__1::basic_string", %"class.benchmark::Counter" }
%"class.benchmark::Counter" = type { double, i32, i32 }
%"class.std::__1::__tree_node_base" = type <{ %"class.std::__1::__tree_end_node", ptr, ptr, i8, [7 x i8] }>
%"class.std::__1::locale" = type { ptr }
%"class.std::__1::basic_ostream<char>::sentry" = type { i8, ptr }
%"class.std::__1::basic_ios" = type <{ %"class.std::__1::ios_base", ptr, i32, [4 x i8] }>
%"class.benchmark::internal::FunctionBenchmark" = type { %"class.benchmark::internal::Benchmark", ptr }
%"class.benchmark::internal::Benchmark" = type { ptr, %"class.std::__1::basic_string", i32, %"class.std::__1::vector", %"class.std::__1::vector.8", i32, i8, i32, double, i64, i32, i8, i8, i8, i32, ptr, %"class.std::__1::vector.22", %"class.std::__1::vector.36", ptr, ptr }
%"class.std::__1::vector" = type { ptr, ptr, %"class.std::__1::__compressed_pair.2" }
%"class.std::__1::__compressed_pair.2" = type { %"struct.std::__1::__compressed_pair_elem.3" }
%"struct.std::__1::__compressed_pair_elem.3" = type { ptr }
%"class.std::__1::vector.8" = type { ptr, ptr, %"class.std::__1::__compressed_pair.16" }
%"class.std::__1::__compressed_pair.16" = type { %"struct.std::__1::__compressed_pair_elem.17" }
%"struct.std::__1::__compressed_pair_elem.17" = type { ptr }
%"class.std::__1::vector.22" = type { ptr, ptr, %"class.std::__1::__compressed_pair.30" }
%"class.std::__1::__compressed_pair.30" = type { %"struct.std::__1::__compressed_pair_elem.31" }
%"struct.std::__1::__compressed_pair_elem.31" = type { ptr }
%"class.std::__1::vector.36" = type { ptr, ptr, %"class.std::__1::__compressed_pair.37" }
%"class.std::__1::__compressed_pair.37" = type { %"struct.std::__1::__compressed_pair_elem.38" }
%"struct.std::__1::__compressed_pair_elem.38" = type { ptr }

$_Z9BM_MemCmpILi1E6EqZero4NoneEvRN9benchmark5StateE = comdat any

$_Z9BM_MemCmpILi1E6EqZero5FirstEvRN9benchmark5StateE = comdat any

$_Z9BM_MemCmpILi1E6EqZero3MidEvRN9benchmark5StateE = comdat any

$_Z9BM_MemCmpILi1E6EqZero4LastEvRN9benchmark5StateE = comdat any

$_Z9BM_MemCmpILi1E12LessThanZero4NoneEvRN9benchmark5StateE = comdat any

$_Z9BM_MemCmpILi1E12LessThanZero5FirstEvRN9benchmark5StateE = comdat any

$_Z9BM_MemCmpILi1E12LessThanZero3MidEvRN9benchmark5StateE = comdat any

$_Z9BM_MemCmpILi1E12LessThanZero4LastEvRN9benchmark5StateE = comdat any

$_Z9BM_MemCmpILi1E15GreaterThanZero4NoneEvRN9benchmark5StateE = comdat any

$_Z9BM_MemCmpILi1E15GreaterThanZero5FirstEvRN9benchmark5StateE = comdat any

$_Z9BM_MemCmpILi1E15GreaterThanZero3MidEvRN9benchmark5StateE = comdat any

$_Z9BM_MemCmpILi1E15GreaterThanZero4LastEvRN9benchmark5StateE = comdat any

$_Z9BM_MemCmpILi2E6EqZero4NoneEvRN9benchmark5StateE = comdat any

$_Z9BM_MemCmpILi2E6EqZero5FirstEvRN9benchmark5StateE = comdat any

$_Z9BM_MemCmpILi2E6EqZero3MidEvRN9benchmark5StateE = comdat any

$_Z9BM_MemCmpILi2E6EqZero4LastEvRN9benchmark5StateE = comdat any

$_Z9BM_MemCmpILi2E12LessThanZero4NoneEvRN9benchmark5StateE = comdat any

$_Z9BM_MemCmpILi2E12LessThanZero5FirstEvRN9benchmark5StateE = comdat any

$_Z9BM_MemCmpILi2E12LessThanZero3MidEvRN9benchmark5StateE = comdat any

$_Z9BM_MemCmpILi2E12LessThanZero4LastEvRN9benchmark5StateE = comdat any

$_Z9BM_MemCmpILi2E15GreaterThanZero4NoneEvRN9benchmark5StateE = comdat any

$_Z9BM_MemCmpILi2E15GreaterThanZero5FirstEvRN9benchmark5StateE = comdat any

$_Z9BM_MemCmpILi2E15GreaterThanZero3MidEvRN9benchmark5StateE = comdat any

$_Z9BM_MemCmpILi2E15GreaterThanZero4LastEvRN9benchmark5StateE = comdat any

$_Z9BM_MemCmpILi3E6EqZero4NoneEvRN9benchmark5StateE = comdat any

$_Z9BM_MemCmpILi3E6EqZero5FirstEvRN9benchmark5StateE = comdat any

$_Z9BM_MemCmpILi3E6EqZero3MidEvRN9benchmark5StateE = comdat any

$_Z9BM_MemCmpILi3E6EqZero4LastEvRN9benchmark5StateE = comdat any

$_Z9BM_MemCmpILi3E12LessThanZero4NoneEvRN9benchmark5StateE = comdat any

$_Z9BM_MemCmpILi3E12LessThanZero5FirstEvRN9benchmark5StateE = comdat any

$_Z9BM_MemCmpILi3E12LessThanZero3MidEvRN9benchmark5StateE = comdat any

$_Z9BM_MemCmpILi3E12LessThanZero4LastEvRN9benchmark5StateE = comdat any

$_Z9BM_MemCmpILi3E15GreaterThanZero4NoneEvRN9benchmark5StateE = comdat any

$_Z9BM_MemCmpILi3E15GreaterThanZero5FirstEvRN9benchmark5StateE = comdat any

$_Z9BM_MemCmpILi3E15GreaterThanZero3MidEvRN9benchmark5StateE = comdat any

$_Z9BM_MemCmpILi3E15GreaterThanZero4LastEvRN9benchmark5StateE = comdat any

$_Z9BM_MemCmpILi4E6EqZero4NoneEvRN9benchmark5StateE = comdat any

$_Z9BM_MemCmpILi4E6EqZero5FirstEvRN9benchmark5StateE = comdat any

$_Z9BM_MemCmpILi4E6EqZero3MidEvRN9benchmark5StateE = comdat any

$_Z9BM_MemCmpILi4E6EqZero4LastEvRN9benchmark5StateE = comdat any

$_Z9BM_MemCmpILi4E12LessThanZero4NoneEvRN9benchmark5StateE = comdat any

$_Z9BM_MemCmpILi4E12LessThanZero5FirstEvRN9benchmark5StateE = comdat any

$_Z9BM_MemCmpILi4E12LessThanZero3MidEvRN9benchmark5StateE = comdat any

$_Z9BM_MemCmpILi4E12LessThanZero4LastEvRN9benchmark5StateE = comdat any

$_Z9BM_MemCmpILi4E15GreaterThanZero4NoneEvRN9benchmark5StateE = comdat any

$_Z9BM_MemCmpILi4E15GreaterThanZero5FirstEvRN9benchmark5StateE = comdat any

$_Z9BM_MemCmpILi4E15GreaterThanZero3MidEvRN9benchmark5StateE = comdat any

$_Z9BM_MemCmpILi4E15GreaterThanZero4LastEvRN9benchmark5StateE = comdat any

$_Z9BM_MemCmpILi5E6EqZero4NoneEvRN9benchmark5StateE = comdat any

$_Z9BM_MemCmpILi5E6EqZero5FirstEvRN9benchmark5StateE = comdat any

$_Z9BM_MemCmpILi5E6EqZero3MidEvRN9benchmark5StateE = comdat any

$_Z9BM_MemCmpILi5E6EqZero4LastEvRN9benchmark5StateE = comdat any

$_Z9BM_MemCmpILi5E12LessThanZero4NoneEvRN9benchmark5StateE = comdat any

$_Z9BM_MemCmpILi5E12LessThanZero5FirstEvRN9benchmark5StateE = comdat any

$_Z9BM_MemCmpILi5E12LessThanZero3MidEvRN9benchmark5StateE = comdat any

$_Z9BM_MemCmpILi5E12LessThanZero4LastEvRN9benchmark5StateE = comdat any

$_Z9BM_MemCmpILi5E15GreaterThanZero4NoneEvRN9benchmark5StateE = comdat any

$_Z9BM_MemCmpILi5E15GreaterThanZero5FirstEvRN9benchmark5StateE = comdat any

$_Z9BM_MemCmpILi5E15GreaterThanZero3MidEvRN9benchmark5StateE = comdat any

$_Z9BM_MemCmpILi5E15GreaterThanZero4LastEvRN9benchmark5StateE = comdat any

$_Z9BM_MemCmpILi6E6EqZero4NoneEvRN9benchmark5StateE = comdat any

$_Z9BM_MemCmpILi6E6EqZero5FirstEvRN9benchmark5StateE = comdat any

$_Z9BM_MemCmpILi6E6EqZero3MidEvRN9benchmark5StateE = comdat any

$_Z9BM_MemCmpILi6E6EqZero4LastEvRN9benchmark5StateE = comdat any

$_Z9BM_MemCmpILi6E12LessThanZero4NoneEvRN9benchmark5StateE = comdat any

$_Z9BM_MemCmpILi6E12LessThanZero5FirstEvRN9benchmark5StateE = comdat any

$_Z9BM_MemCmpILi6E12LessThanZero3MidEvRN9benchmark5StateE = comdat any

$_Z9BM_MemCmpILi6E12LessThanZero4LastEvRN9benchmark5StateE = comdat any

$_Z9BM_MemCmpILi6E15GreaterThanZero4NoneEvRN9benchmark5StateE = comdat any

$_Z9BM_MemCmpILi6E15GreaterThanZero5FirstEvRN9benchmark5StateE = comdat any

$_Z9BM_MemCmpILi6E15GreaterThanZero3MidEvRN9benchmark5StateE = comdat any

$_Z9BM_MemCmpILi6E15GreaterThanZero4LastEvRN9benchmark5StateE = comdat any

$_Z9BM_MemCmpILi7E6EqZero4NoneEvRN9benchmark5StateE = comdat any

$_Z9BM_MemCmpILi7E6EqZero5FirstEvRN9benchmark5StateE = comdat any

$_Z9BM_MemCmpILi7E6EqZero3MidEvRN9benchmark5StateE = comdat any

$_Z9BM_MemCmpILi7E6EqZero4LastEvRN9benchmark5StateE = comdat any

$_Z9BM_MemCmpILi7E12LessThanZero4NoneEvRN9benchmark5StateE = comdat any

$_Z9BM_MemCmpILi7E12LessThanZero5FirstEvRN9benchmark5StateE = comdat any

$_Z9BM_MemCmpILi7E12LessThanZero3MidEvRN9benchmark5StateE = comdat any

$_Z9BM_MemCmpILi7E12LessThanZero4LastEvRN9benchmark5StateE = comdat any

$_Z9BM_MemCmpILi7E15GreaterThanZero4NoneEvRN9benchmark5StateE = comdat any

$_Z9BM_MemCmpILi7E15GreaterThanZero5FirstEvRN9benchmark5StateE = comdat any

$_Z9BM_MemCmpILi7E15GreaterThanZero3MidEvRN9benchmark5StateE = comdat any

$_Z9BM_MemCmpILi7E15GreaterThanZero4LastEvRN9benchmark5StateE = comdat any

$_Z9BM_MemCmpILi8E6EqZero4NoneEvRN9benchmark5StateE = comdat any

$_Z9BM_MemCmpILi8E6EqZero5FirstEvRN9benchmark5StateE = comdat any

$_Z9BM_MemCmpILi8E6EqZero3MidEvRN9benchmark5StateE = comdat any

$_Z9BM_MemCmpILi8E6EqZero4LastEvRN9benchmark5StateE = comdat any

$_Z9BM_MemCmpILi8E12LessThanZero4NoneEvRN9benchmark5StateE = comdat any

$_Z9BM_MemCmpILi8E12LessThanZero5FirstEvRN9benchmark5StateE = comdat any

$_Z9BM_MemCmpILi8E12LessThanZero3MidEvRN9benchmark5StateE = comdat any

$_Z9BM_MemCmpILi8E12LessThanZero4LastEvRN9benchmark5StateE = comdat any

$_Z9BM_MemCmpILi8E15GreaterThanZero4NoneEvRN9benchmark5StateE = comdat any

$_Z9BM_MemCmpILi8E15GreaterThanZero5FirstEvRN9benchmark5StateE = comdat any

$_Z9BM_MemCmpILi8E15GreaterThanZero3MidEvRN9benchmark5StateE = comdat any

$_Z9BM_MemCmpILi8E15GreaterThanZero4LastEvRN9benchmark5StateE = comdat any

$_Z9BM_MemCmpILi15E6EqZero4NoneEvRN9benchmark5StateE = comdat any

$_Z9BM_MemCmpILi15E6EqZero5FirstEvRN9benchmark5StateE = comdat any

$_Z9BM_MemCmpILi15E6EqZero3MidEvRN9benchmark5StateE = comdat any

$_Z9BM_MemCmpILi15E6EqZero4LastEvRN9benchmark5StateE = comdat any

$_Z9BM_MemCmpILi15E12LessThanZero4NoneEvRN9benchmark5StateE = comdat any

$_Z9BM_MemCmpILi15E12LessThanZero5FirstEvRN9benchmark5StateE = comdat any

$_Z9BM_MemCmpILi15E12LessThanZero3MidEvRN9benchmark5StateE = comdat any

$_Z9BM_MemCmpILi15E12LessThanZero4LastEvRN9benchmark5StateE = comdat any

$_Z9BM_MemCmpILi15E15GreaterThanZero4NoneEvRN9benchmark5StateE = comdat any

$_Z9BM_MemCmpILi15E15GreaterThanZero5FirstEvRN9benchmark5StateE = comdat any

$_Z9BM_MemCmpILi15E15GreaterThanZero3MidEvRN9benchmark5StateE = comdat any

$_Z9BM_MemCmpILi15E15GreaterThanZero4LastEvRN9benchmark5StateE = comdat any

$_Z9BM_MemCmpILi16E6EqZero4NoneEvRN9benchmark5StateE = comdat any

$_Z9BM_MemCmpILi16E6EqZero5FirstEvRN9benchmark5StateE = comdat any

$_Z9BM_MemCmpILi16E6EqZero3MidEvRN9benchmark5StateE = comdat any

$_Z9BM_MemCmpILi16E6EqZero4LastEvRN9benchmark5StateE = comdat any

$_Z9BM_MemCmpILi16E12LessThanZero4NoneEvRN9benchmark5StateE = comdat any

$_Z9BM_MemCmpILi16E12LessThanZero5FirstEvRN9benchmark5StateE = comdat any

$_Z9BM_MemCmpILi16E12LessThanZero3MidEvRN9benchmark5StateE = comdat any

$_Z9BM_MemCmpILi16E12LessThanZero4LastEvRN9benchmark5StateE = comdat any

$_Z9BM_MemCmpILi16E15GreaterThanZero4NoneEvRN9benchmark5StateE = comdat any

$_Z9BM_MemCmpILi16E15GreaterThanZero5FirstEvRN9benchmark5StateE = comdat any

$_Z9BM_MemCmpILi16E15GreaterThanZero3MidEvRN9benchmark5StateE = comdat any

$_Z9BM_MemCmpILi16E15GreaterThanZero4LastEvRN9benchmark5StateE = comdat any

$_Z9BM_MemCmpILi31E6EqZero4NoneEvRN9benchmark5StateE = comdat any

$_Z9BM_MemCmpILi31E6EqZero5FirstEvRN9benchmark5StateE = comdat any

$_Z9BM_MemCmpILi31E6EqZero3MidEvRN9benchmark5StateE = comdat any

$_Z9BM_MemCmpILi31E6EqZero4LastEvRN9benchmark5StateE = comdat any

$_Z9BM_MemCmpILi31E12LessThanZero4NoneEvRN9benchmark5StateE = comdat any

$_Z9BM_MemCmpILi31E12LessThanZero5FirstEvRN9benchmark5StateE = comdat any

$_Z9BM_MemCmpILi31E12LessThanZero3MidEvRN9benchmark5StateE = comdat any

$_Z9BM_MemCmpILi31E12LessThanZero4LastEvRN9benchmark5StateE = comdat any

$_Z9BM_MemCmpILi31E15GreaterThanZero4NoneEvRN9benchmark5StateE = comdat any

$_Z9BM_MemCmpILi31E15GreaterThanZero5FirstEvRN9benchmark5StateE = comdat any

$_Z9BM_MemCmpILi31E15GreaterThanZero3MidEvRN9benchmark5StateE = comdat any

$_Z9BM_MemCmpILi31E15GreaterThanZero4LastEvRN9benchmark5StateE = comdat any

$_Z9BM_MemCmpILi32E6EqZero4NoneEvRN9benchmark5StateE = comdat any

$_Z9BM_MemCmpILi32E6EqZero5FirstEvRN9benchmark5StateE = comdat any

$_Z9BM_MemCmpILi32E6EqZero3MidEvRN9benchmark5StateE = comdat any

$_Z9BM_MemCmpILi32E6EqZero4LastEvRN9benchmark5StateE = comdat any

$_Z9BM_MemCmpILi32E12LessThanZero4NoneEvRN9benchmark5StateE = comdat any

$_Z9BM_MemCmpILi32E12LessThanZero5FirstEvRN9benchmark5StateE = comdat any

$_Z9BM_MemCmpILi32E12LessThanZero3MidEvRN9benchmark5StateE = comdat any

$_Z9BM_MemCmpILi32E12LessThanZero4LastEvRN9benchmark5StateE = comdat any

$_Z9BM_MemCmpILi32E15GreaterThanZero4NoneEvRN9benchmark5StateE = comdat any

$_Z9BM_MemCmpILi32E15GreaterThanZero5FirstEvRN9benchmark5StateE = comdat any

$_Z9BM_MemCmpILi32E15GreaterThanZero3MidEvRN9benchmark5StateE = comdat any

$_Z9BM_MemCmpILi32E15GreaterThanZero4LastEvRN9benchmark5StateE = comdat any

$_Z9BM_MemCmpILi63E6EqZero4NoneEvRN9benchmark5StateE = comdat any

$_Z9BM_MemCmpILi63E6EqZero5FirstEvRN9benchmark5StateE = comdat any

$_Z9BM_MemCmpILi63E6EqZero3MidEvRN9benchmark5StateE = comdat any

$_Z9BM_MemCmpILi63E6EqZero4LastEvRN9benchmark5StateE = comdat any

$_Z9BM_MemCmpILi63E12LessThanZero4NoneEvRN9benchmark5StateE = comdat any

$_Z9BM_MemCmpILi63E12LessThanZero5FirstEvRN9benchmark5StateE = comdat any

$_Z9BM_MemCmpILi63E12LessThanZero3MidEvRN9benchmark5StateE = comdat any

$_Z9BM_MemCmpILi63E12LessThanZero4LastEvRN9benchmark5StateE = comdat any

$_Z9BM_MemCmpILi63E15GreaterThanZero4NoneEvRN9benchmark5StateE = comdat any

$_Z9BM_MemCmpILi63E15GreaterThanZero5FirstEvRN9benchmark5StateE = comdat any

$_Z9BM_MemCmpILi63E15GreaterThanZero3MidEvRN9benchmark5StateE = comdat any

$_Z9BM_MemCmpILi63E15GreaterThanZero4LastEvRN9benchmark5StateE = comdat any

$_Z9BM_MemCmpILi64E6EqZero4NoneEvRN9benchmark5StateE = comdat any

$_Z9BM_MemCmpILi64E6EqZero5FirstEvRN9benchmark5StateE = comdat any

$_Z9BM_MemCmpILi64E6EqZero3MidEvRN9benchmark5StateE = comdat any

$_Z9BM_MemCmpILi64E6EqZero4LastEvRN9benchmark5StateE = comdat any

$_Z9BM_MemCmpILi64E12LessThanZero4NoneEvRN9benchmark5StateE = comdat any

$_Z9BM_MemCmpILi64E12LessThanZero5FirstEvRN9benchmark5StateE = comdat any

$_Z9BM_MemCmpILi64E12LessThanZero3MidEvRN9benchmark5StateE = comdat any

$_Z9BM_MemCmpILi64E12LessThanZero4LastEvRN9benchmark5StateE = comdat any

$_Z9BM_MemCmpILi64E15GreaterThanZero4NoneEvRN9benchmark5StateE = comdat any

$_Z9BM_MemCmpILi64E15GreaterThanZero5FirstEvRN9benchmark5StateE = comdat any

$_Z9BM_MemCmpILi64E15GreaterThanZero3MidEvRN9benchmark5StateE = comdat any

$_Z9BM_MemCmpILi64E15GreaterThanZero4LastEvRN9benchmark5StateE = comdat any

$_ZNSt3__14endlB7v170000IcNS_11char_traitsIcEEEERNS_13basic_ostreamIT_T0_EES7_ = comdat any

$__clang_call_terminate = comdat any

$_ZNSt3__124__put_character_sequenceB7v170000IcNS_11char_traitsIcEEEERNS_13basic_ostreamIT_T0_EES7_PKS4_m = comdat any

$_ZNSt3__116__pad_and_outputB7v170000IcNS_11char_traitsIcEEEENS_19ostreambuf_iteratorIT_T0_EES6_PKS4_S8_S8_RNS_8ios_baseES4_ = comdat any

$_ZNSt3__16__treeINS_12__value_typeINS_12basic_stringIcNS_11char_traitsIcEENS_9allocatorIcEEEEN9benchmark7CounterEEENS_19__map_value_compareIS7_SA_NS_4lessIS7_EELb1EEENS5_ISA_EEE12__find_equalIS7_EERPNS_16__tree_node_baseIPvEERPNS_15__tree_end_nodeISL_EERKT_ = comdat any

$_ZNSt3__127__tree_balance_after_insertB7v170000IPNS_16__tree_node_baseIPvEEEEvT_S5_ = comdat any

$_ZN6EqZero8kDisplayE = comdat any

$_ZN4None8kDisplayE = comdat any

$_ZN5First8kDisplayE = comdat any

$_ZN3Mid8kDisplayE = comdat any

$_ZN4Last8kDisplayE = comdat any

$_ZN12LessThanZero8kDisplayE = comdat any

$_ZN15GreaterThanZero8kDisplayE = comdat any

@_ZL25benchmark_uniq_2BM_MemCmp = internal unnamed_addr global ptr null, align 8
@.str = private unnamed_addr constant [27 x i8] c"BM_MemCmp<1, EqZero, None>\00", align 1
@_ZL25benchmark_uniq_3BM_MemCmp = internal unnamed_addr global ptr null, align 8
@.str.3 = private unnamed_addr constant [28 x i8] c"BM_MemCmp<1, EqZero, First>\00", align 1
@_ZL25benchmark_uniq_4BM_MemCmp = internal unnamed_addr global ptr null, align 8
@.str.5 = private unnamed_addr constant [26 x i8] c"BM_MemCmp<1, EqZero, Mid>\00", align 1
@_ZL25benchmark_uniq_5BM_MemCmp = internal unnamed_addr global ptr null, align 8
@.str.7 = private unnamed_addr constant [27 x i8] c"BM_MemCmp<1, EqZero, Last>\00", align 1
@_ZL25benchmark_uniq_6BM_MemCmp = internal unnamed_addr global ptr null, align 8
@.str.9 = private unnamed_addr constant [33 x i8] c"BM_MemCmp<1, LessThanZero, None>\00", align 1
@_ZL25benchmark_uniq_7BM_MemCmp = internal unnamed_addr global ptr null, align 8
@.str.11 = private unnamed_addr constant [34 x i8] c"BM_MemCmp<1, LessThanZero, First>\00", align 1
@_ZL25benchmark_uniq_8BM_MemCmp = internal unnamed_addr global ptr null, align 8
@.str.13 = private unnamed_addr constant [32 x i8] c"BM_MemCmp<1, LessThanZero, Mid>\00", align 1
@_ZL25benchmark_uniq_9BM_MemCmp = internal unnamed_addr global ptr null, align 8
@.str.15 = private unnamed_addr constant [33 x i8] c"BM_MemCmp<1, LessThanZero, Last>\00", align 1
@_ZL26benchmark_uniq_10BM_MemCmp = internal unnamed_addr global ptr null, align 8
@.str.17 = private unnamed_addr constant [36 x i8] c"BM_MemCmp<1, GreaterThanZero, None>\00", align 1
@_ZL26benchmark_uniq_11BM_MemCmp = internal unnamed_addr global ptr null, align 8
@.str.19 = private unnamed_addr constant [37 x i8] c"BM_MemCmp<1, GreaterThanZero, First>\00", align 1
@_ZL26benchmark_uniq_12BM_MemCmp = internal unnamed_addr global ptr null, align 8
@.str.21 = private unnamed_addr constant [35 x i8] c"BM_MemCmp<1, GreaterThanZero, Mid>\00", align 1
@_ZL26benchmark_uniq_13BM_MemCmp = internal unnamed_addr global ptr null, align 8
@.str.23 = private unnamed_addr constant [36 x i8] c"BM_MemCmp<1, GreaterThanZero, Last>\00", align 1
@_ZL26benchmark_uniq_14BM_MemCmp = internal unnamed_addr global ptr null, align 8
@.str.25 = private unnamed_addr constant [27 x i8] c"BM_MemCmp<2, EqZero, None>\00", align 1
@_ZL26benchmark_uniq_15BM_MemCmp = internal unnamed_addr global ptr null, align 8
@.str.27 = private unnamed_addr constant [28 x i8] c"BM_MemCmp<2, EqZero, First>\00", align 1
@_ZL26benchmark_uniq_16BM_MemCmp = internal unnamed_addr global ptr null, align 8
@.str.29 = private unnamed_addr constant [26 x i8] c"BM_MemCmp<2, EqZero, Mid>\00", align 1
@_ZL26benchmark_uniq_17BM_MemCmp = internal unnamed_addr global ptr null, align 8
@.str.31 = private unnamed_addr constant [27 x i8] c"BM_MemCmp<2, EqZero, Last>\00", align 1
@_ZL26benchmark_uniq_18BM_MemCmp = internal unnamed_addr global ptr null, align 8
@.str.33 = private unnamed_addr constant [33 x i8] c"BM_MemCmp<2, LessThanZero, None>\00", align 1
@_ZL26benchmark_uniq_19BM_MemCmp = internal unnamed_addr global ptr null, align 8
@.str.35 = private unnamed_addr constant [34 x i8] c"BM_MemCmp<2, LessThanZero, First>\00", align 1
@_ZL26benchmark_uniq_20BM_MemCmp = internal unnamed_addr global ptr null, align 8
@.str.37 = private unnamed_addr constant [32 x i8] c"BM_MemCmp<2, LessThanZero, Mid>\00", align 1
@_ZL26benchmark_uniq_21BM_MemCmp = internal unnamed_addr global ptr null, align 8
@.str.39 = private unnamed_addr constant [33 x i8] c"BM_MemCmp<2, LessThanZero, Last>\00", align 1
@_ZL26benchmark_uniq_22BM_MemCmp = internal unnamed_addr global ptr null, align 8
@.str.41 = private unnamed_addr constant [36 x i8] c"BM_MemCmp<2, GreaterThanZero, None>\00", align 1
@_ZL26benchmark_uniq_23BM_MemCmp = internal unnamed_addr global ptr null, align 8
@.str.43 = private unnamed_addr constant [37 x i8] c"BM_MemCmp<2, GreaterThanZero, First>\00", align 1
@_ZL26benchmark_uniq_24BM_MemCmp = internal unnamed_addr global ptr null, align 8
@.str.45 = private unnamed_addr constant [35 x i8] c"BM_MemCmp<2, GreaterThanZero, Mid>\00", align 1
@_ZL26benchmark_uniq_25BM_MemCmp = internal unnamed_addr global ptr null, align 8
@.str.47 = private unnamed_addr constant [36 x i8] c"BM_MemCmp<2, GreaterThanZero, Last>\00", align 1
@_ZL26benchmark_uniq_26BM_MemCmp = internal unnamed_addr global ptr null, align 8
@.str.49 = private unnamed_addr constant [27 x i8] c"BM_MemCmp<3, EqZero, None>\00", align 1
@_ZL26benchmark_uniq_27BM_MemCmp = internal unnamed_addr global ptr null, align 8
@.str.51 = private unnamed_addr constant [28 x i8] c"BM_MemCmp<3, EqZero, First>\00", align 1
@_ZL26benchmark_uniq_28BM_MemCmp = internal unnamed_addr global ptr null, align 8
@.str.53 = private unnamed_addr constant [26 x i8] c"BM_MemCmp<3, EqZero, Mid>\00", align 1
@_ZL26benchmark_uniq_29BM_MemCmp = internal unnamed_addr global ptr null, align 8
@.str.55 = private unnamed_addr constant [27 x i8] c"BM_MemCmp<3, EqZero, Last>\00", align 1
@_ZL26benchmark_uniq_30BM_MemCmp = internal unnamed_addr global ptr null, align 8
@.str.57 = private unnamed_addr constant [33 x i8] c"BM_MemCmp<3, LessThanZero, None>\00", align 1
@_ZL26benchmark_uniq_31BM_MemCmp = internal unnamed_addr global ptr null, align 8
@.str.59 = private unnamed_addr constant [34 x i8] c"BM_MemCmp<3, LessThanZero, First>\00", align 1
@_ZL26benchmark_uniq_32BM_MemCmp = internal unnamed_addr global ptr null, align 8
@.str.61 = private unnamed_addr constant [32 x i8] c"BM_MemCmp<3, LessThanZero, Mid>\00", align 1
@_ZL26benchmark_uniq_33BM_MemCmp = internal unnamed_addr global ptr null, align 8
@.str.63 = private unnamed_addr constant [33 x i8] c"BM_MemCmp<3, LessThanZero, Last>\00", align 1
@_ZL26benchmark_uniq_34BM_MemCmp = internal unnamed_addr global ptr null, align 8
@.str.65 = private unnamed_addr constant [36 x i8] c"BM_MemCmp<3, GreaterThanZero, None>\00", align 1
@_ZL26benchmark_uniq_35BM_MemCmp = internal unnamed_addr global ptr null, align 8
@.str.67 = private unnamed_addr constant [37 x i8] c"BM_MemCmp<3, GreaterThanZero, First>\00", align 1
@_ZL26benchmark_uniq_36BM_MemCmp = internal unnamed_addr global ptr null, align 8
@.str.69 = private unnamed_addr constant [35 x i8] c"BM_MemCmp<3, GreaterThanZero, Mid>\00", align 1
@_ZL26benchmark_uniq_37BM_MemCmp = internal unnamed_addr global ptr null, align 8
@.str.71 = private unnamed_addr constant [36 x i8] c"BM_MemCmp<3, GreaterThanZero, Last>\00", align 1
@_ZL26benchmark_uniq_38BM_MemCmp = internal unnamed_addr global ptr null, align 8
@.str.73 = private unnamed_addr constant [27 x i8] c"BM_MemCmp<4, EqZero, None>\00", align 1
@_ZL26benchmark_uniq_39BM_MemCmp = internal unnamed_addr global ptr null, align 8
@.str.75 = private unnamed_addr constant [28 x i8] c"BM_MemCmp<4, EqZero, First>\00", align 1
@_ZL26benchmark_uniq_40BM_MemCmp = internal unnamed_addr global ptr null, align 8
@.str.77 = private unnamed_addr constant [26 x i8] c"BM_MemCmp<4, EqZero, Mid>\00", align 1
@_ZL26benchmark_uniq_41BM_MemCmp = internal unnamed_addr global ptr null, align 8
@.str.79 = private unnamed_addr constant [27 x i8] c"BM_MemCmp<4, EqZero, Last>\00", align 1
@_ZL26benchmark_uniq_42BM_MemCmp = internal unnamed_addr global ptr null, align 8
@.str.81 = private unnamed_addr constant [33 x i8] c"BM_MemCmp<4, LessThanZero, None>\00", align 1
@_ZL26benchmark_uniq_43BM_MemCmp = internal unnamed_addr global ptr null, align 8
@.str.83 = private unnamed_addr constant [34 x i8] c"BM_MemCmp<4, LessThanZero, First>\00", align 1
@_ZL26benchmark_uniq_44BM_MemCmp = internal unnamed_addr global ptr null, align 8
@.str.85 = private unnamed_addr constant [32 x i8] c"BM_MemCmp<4, LessThanZero, Mid>\00", align 1
@_ZL26benchmark_uniq_45BM_MemCmp = internal unnamed_addr global ptr null, align 8
@.str.87 = private unnamed_addr constant [33 x i8] c"BM_MemCmp<4, LessThanZero, Last>\00", align 1
@_ZL26benchmark_uniq_46BM_MemCmp = internal unnamed_addr global ptr null, align 8
@.str.89 = private unnamed_addr constant [36 x i8] c"BM_MemCmp<4, GreaterThanZero, None>\00", align 1
@_ZL26benchmark_uniq_47BM_MemCmp = internal unnamed_addr global ptr null, align 8
@.str.91 = private unnamed_addr constant [37 x i8] c"BM_MemCmp<4, GreaterThanZero, First>\00", align 1
@_ZL26benchmark_uniq_48BM_MemCmp = internal unnamed_addr global ptr null, align 8
@.str.93 = private unnamed_addr constant [35 x i8] c"BM_MemCmp<4, GreaterThanZero, Mid>\00", align 1
@_ZL26benchmark_uniq_49BM_MemCmp = internal unnamed_addr global ptr null, align 8
@.str.95 = private unnamed_addr constant [36 x i8] c"BM_MemCmp<4, GreaterThanZero, Last>\00", align 1
@_ZL26benchmark_uniq_50BM_MemCmp = internal unnamed_addr global ptr null, align 8
@.str.97 = private unnamed_addr constant [27 x i8] c"BM_MemCmp<5, EqZero, None>\00", align 1
@_ZL26benchmark_uniq_51BM_MemCmp = internal unnamed_addr global ptr null, align 8
@.str.99 = private unnamed_addr constant [28 x i8] c"BM_MemCmp<5, EqZero, First>\00", align 1
@_ZL26benchmark_uniq_52BM_MemCmp = internal unnamed_addr global ptr null, align 8
@.str.101 = private unnamed_addr constant [26 x i8] c"BM_MemCmp<5, EqZero, Mid>\00", align 1
@_ZL26benchmark_uniq_53BM_MemCmp = internal unnamed_addr global ptr null, align 8
@.str.103 = private unnamed_addr constant [27 x i8] c"BM_MemCmp<5, EqZero, Last>\00", align 1
@_ZL26benchmark_uniq_54BM_MemCmp = internal unnamed_addr global ptr null, align 8
@.str.105 = private unnamed_addr constant [33 x i8] c"BM_MemCmp<5, LessThanZero, None>\00", align 1
@_ZL26benchmark_uniq_55BM_MemCmp = internal unnamed_addr global ptr null, align 8
@.str.107 = private unnamed_addr constant [34 x i8] c"BM_MemCmp<5, LessThanZero, First>\00", align 1
@_ZL26benchmark_uniq_56BM_MemCmp = internal unnamed_addr global ptr null, align 8
@.str.109 = private unnamed_addr constant [32 x i8] c"BM_MemCmp<5, LessThanZero, Mid>\00", align 1
@_ZL26benchmark_uniq_57BM_MemCmp = internal unnamed_addr global ptr null, align 8
@.str.111 = private unnamed_addr constant [33 x i8] c"BM_MemCmp<5, LessThanZero, Last>\00", align 1
@_ZL26benchmark_uniq_58BM_MemCmp = internal unnamed_addr global ptr null, align 8
@.str.113 = private unnamed_addr constant [36 x i8] c"BM_MemCmp<5, GreaterThanZero, None>\00", align 1
@_ZL26benchmark_uniq_59BM_MemCmp = internal unnamed_addr global ptr null, align 8
@.str.115 = private unnamed_addr constant [37 x i8] c"BM_MemCmp<5, GreaterThanZero, First>\00", align 1
@_ZL26benchmark_uniq_60BM_MemCmp = internal unnamed_addr global ptr null, align 8
@.str.117 = private unnamed_addr constant [35 x i8] c"BM_MemCmp<5, GreaterThanZero, Mid>\00", align 1
@_ZL26benchmark_uniq_61BM_MemCmp = internal unnamed_addr global ptr null, align 8
@.str.119 = private unnamed_addr constant [36 x i8] c"BM_MemCmp<5, GreaterThanZero, Last>\00", align 1
@_ZL26benchmark_uniq_62BM_MemCmp = internal unnamed_addr global ptr null, align 8
@.str.121 = private unnamed_addr constant [27 x i8] c"BM_MemCmp<6, EqZero, None>\00", align 1
@_ZL26benchmark_uniq_63BM_MemCmp = internal unnamed_addr global ptr null, align 8
@.str.123 = private unnamed_addr constant [28 x i8] c"BM_MemCmp<6, EqZero, First>\00", align 1
@_ZL26benchmark_uniq_64BM_MemCmp = internal unnamed_addr global ptr null, align 8
@.str.125 = private unnamed_addr constant [26 x i8] c"BM_MemCmp<6, EqZero, Mid>\00", align 1
@_ZL26benchmark_uniq_65BM_MemCmp = internal unnamed_addr global ptr null, align 8
@.str.127 = private unnamed_addr constant [27 x i8] c"BM_MemCmp<6, EqZero, Last>\00", align 1
@_ZL26benchmark_uniq_66BM_MemCmp = internal unnamed_addr global ptr null, align 8
@.str.129 = private unnamed_addr constant [33 x i8] c"BM_MemCmp<6, LessThanZero, None>\00", align 1
@_ZL26benchmark_uniq_67BM_MemCmp = internal unnamed_addr global ptr null, align 8
@.str.131 = private unnamed_addr constant [34 x i8] c"BM_MemCmp<6, LessThanZero, First>\00", align 1
@_ZL26benchmark_uniq_68BM_MemCmp = internal unnamed_addr global ptr null, align 8
@.str.133 = private unnamed_addr constant [32 x i8] c"BM_MemCmp<6, LessThanZero, Mid>\00", align 1
@_ZL26benchmark_uniq_69BM_MemCmp = internal unnamed_addr global ptr null, align 8
@.str.135 = private unnamed_addr constant [33 x i8] c"BM_MemCmp<6, LessThanZero, Last>\00", align 1
@_ZL26benchmark_uniq_70BM_MemCmp = internal unnamed_addr global ptr null, align 8
@.str.137 = private unnamed_addr constant [36 x i8] c"BM_MemCmp<6, GreaterThanZero, None>\00", align 1
@_ZL26benchmark_uniq_71BM_MemCmp = internal unnamed_addr global ptr null, align 8
@.str.139 = private unnamed_addr constant [37 x i8] c"BM_MemCmp<6, GreaterThanZero, First>\00", align 1
@_ZL26benchmark_uniq_72BM_MemCmp = internal unnamed_addr global ptr null, align 8
@.str.141 = private unnamed_addr constant [35 x i8] c"BM_MemCmp<6, GreaterThanZero, Mid>\00", align 1
@_ZL26benchmark_uniq_73BM_MemCmp = internal unnamed_addr global ptr null, align 8
@.str.143 = private unnamed_addr constant [36 x i8] c"BM_MemCmp<6, GreaterThanZero, Last>\00", align 1
@_ZL26benchmark_uniq_74BM_MemCmp = internal unnamed_addr global ptr null, align 8
@.str.145 = private unnamed_addr constant [27 x i8] c"BM_MemCmp<7, EqZero, None>\00", align 1
@_ZL26benchmark_uniq_75BM_MemCmp = internal unnamed_addr global ptr null, align 8
@.str.147 = private unnamed_addr constant [28 x i8] c"BM_MemCmp<7, EqZero, First>\00", align 1
@_ZL26benchmark_uniq_76BM_MemCmp = internal unnamed_addr global ptr null, align 8
@.str.149 = private unnamed_addr constant [26 x i8] c"BM_MemCmp<7, EqZero, Mid>\00", align 1
@_ZL26benchmark_uniq_77BM_MemCmp = internal unnamed_addr global ptr null, align 8
@.str.151 = private unnamed_addr constant [27 x i8] c"BM_MemCmp<7, EqZero, Last>\00", align 1
@_ZL26benchmark_uniq_78BM_MemCmp = internal unnamed_addr global ptr null, align 8
@.str.153 = private unnamed_addr constant [33 x i8] c"BM_MemCmp<7, LessThanZero, None>\00", align 1
@_ZL26benchmark_uniq_79BM_MemCmp = internal unnamed_addr global ptr null, align 8
@.str.155 = private unnamed_addr constant [34 x i8] c"BM_MemCmp<7, LessThanZero, First>\00", align 1
@_ZL26benchmark_uniq_80BM_MemCmp = internal unnamed_addr global ptr null, align 8
@.str.157 = private unnamed_addr constant [32 x i8] c"BM_MemCmp<7, LessThanZero, Mid>\00", align 1
@_ZL26benchmark_uniq_81BM_MemCmp = internal unnamed_addr global ptr null, align 8
@.str.159 = private unnamed_addr constant [33 x i8] c"BM_MemCmp<7, LessThanZero, Last>\00", align 1
@_ZL26benchmark_uniq_82BM_MemCmp = internal unnamed_addr global ptr null, align 8
@.str.161 = private unnamed_addr constant [36 x i8] c"BM_MemCmp<7, GreaterThanZero, None>\00", align 1
@_ZL26benchmark_uniq_83BM_MemCmp = internal unnamed_addr global ptr null, align 8
@.str.163 = private unnamed_addr constant [37 x i8] c"BM_MemCmp<7, GreaterThanZero, First>\00", align 1
@_ZL26benchmark_uniq_84BM_MemCmp = internal unnamed_addr global ptr null, align 8
@.str.165 = private unnamed_addr constant [35 x i8] c"BM_MemCmp<7, GreaterThanZero, Mid>\00", align 1
@_ZL26benchmark_uniq_85BM_MemCmp = internal unnamed_addr global ptr null, align 8
@.str.167 = private unnamed_addr constant [36 x i8] c"BM_MemCmp<7, GreaterThanZero, Last>\00", align 1
@_ZL26benchmark_uniq_86BM_MemCmp = internal unnamed_addr global ptr null, align 8
@.str.169 = private unnamed_addr constant [27 x i8] c"BM_MemCmp<8, EqZero, None>\00", align 1
@_ZL26benchmark_uniq_87BM_MemCmp = internal unnamed_addr global ptr null, align 8
@.str.171 = private unnamed_addr constant [28 x i8] c"BM_MemCmp<8, EqZero, First>\00", align 1
@_ZL26benchmark_uniq_88BM_MemCmp = internal unnamed_addr global ptr null, align 8
@.str.173 = private unnamed_addr constant [26 x i8] c"BM_MemCmp<8, EqZero, Mid>\00", align 1
@_ZL26benchmark_uniq_89BM_MemCmp = internal unnamed_addr global ptr null, align 8
@.str.175 = private unnamed_addr constant [27 x i8] c"BM_MemCmp<8, EqZero, Last>\00", align 1
@_ZL26benchmark_uniq_90BM_MemCmp = internal unnamed_addr global ptr null, align 8
@.str.177 = private unnamed_addr constant [33 x i8] c"BM_MemCmp<8, LessThanZero, None>\00", align 1
@_ZL26benchmark_uniq_91BM_MemCmp = internal unnamed_addr global ptr null, align 8
@.str.179 = private unnamed_addr constant [34 x i8] c"BM_MemCmp<8, LessThanZero, First>\00", align 1
@_ZL26benchmark_uniq_92BM_MemCmp = internal unnamed_addr global ptr null, align 8
@.str.181 = private unnamed_addr constant [32 x i8] c"BM_MemCmp<8, LessThanZero, Mid>\00", align 1
@_ZL26benchmark_uniq_93BM_MemCmp = internal unnamed_addr global ptr null, align 8
@.str.183 = private unnamed_addr constant [33 x i8] c"BM_MemCmp<8, LessThanZero, Last>\00", align 1
@_ZL26benchmark_uniq_94BM_MemCmp = internal unnamed_addr global ptr null, align 8
@.str.185 = private unnamed_addr constant [36 x i8] c"BM_MemCmp<8, GreaterThanZero, None>\00", align 1
@_ZL26benchmark_uniq_95BM_MemCmp = internal unnamed_addr global ptr null, align 8
@.str.187 = private unnamed_addr constant [37 x i8] c"BM_MemCmp<8, GreaterThanZero, First>\00", align 1
@_ZL26benchmark_uniq_96BM_MemCmp = internal unnamed_addr global ptr null, align 8
@.str.189 = private unnamed_addr constant [35 x i8] c"BM_MemCmp<8, GreaterThanZero, Mid>\00", align 1
@_ZL26benchmark_uniq_97BM_MemCmp = internal unnamed_addr global ptr null, align 8
@.str.191 = private unnamed_addr constant [36 x i8] c"BM_MemCmp<8, GreaterThanZero, Last>\00", align 1
@_ZL26benchmark_uniq_98BM_MemCmp = internal unnamed_addr global ptr null, align 8
@.str.193 = private unnamed_addr constant [28 x i8] c"BM_MemCmp<15, EqZero, None>\00", align 1
@_ZL26benchmark_uniq_99BM_MemCmp = internal unnamed_addr global ptr null, align 8
@.str.195 = private unnamed_addr constant [29 x i8] c"BM_MemCmp<15, EqZero, First>\00", align 1
@_ZL27benchmark_uniq_100BM_MemCmp = internal unnamed_addr global ptr null, align 8
@.str.197 = private unnamed_addr constant [27 x i8] c"BM_MemCmp<15, EqZero, Mid>\00", align 1
@_ZL27benchmark_uniq_101BM_MemCmp = internal unnamed_addr global ptr null, align 8
@.str.199 = private unnamed_addr constant [28 x i8] c"BM_MemCmp<15, EqZero, Last>\00", align 1
@_ZL27benchmark_uniq_102BM_MemCmp = internal unnamed_addr global ptr null, align 8
@.str.201 = private unnamed_addr constant [34 x i8] c"BM_MemCmp<15, LessThanZero, None>\00", align 1
@_ZL27benchmark_uniq_103BM_MemCmp = internal unnamed_addr global ptr null, align 8
@.str.203 = private unnamed_addr constant [35 x i8] c"BM_MemCmp<15, LessThanZero, First>\00", align 1
@_ZL27benchmark_uniq_104BM_MemCmp = internal unnamed_addr global ptr null, align 8
@.str.205 = private unnamed_addr constant [33 x i8] c"BM_MemCmp<15, LessThanZero, Mid>\00", align 1
@_ZL27benchmark_uniq_105BM_MemCmp = internal unnamed_addr global ptr null, align 8
@.str.207 = private unnamed_addr constant [34 x i8] c"BM_MemCmp<15, LessThanZero, Last>\00", align 1
@_ZL27benchmark_uniq_106BM_MemCmp = internal unnamed_addr global ptr null, align 8
@.str.209 = private unnamed_addr constant [37 x i8] c"BM_MemCmp<15, GreaterThanZero, None>\00", align 1
@_ZL27benchmark_uniq_107BM_MemCmp = internal unnamed_addr global ptr null, align 8
@.str.211 = private unnamed_addr constant [38 x i8] c"BM_MemCmp<15, GreaterThanZero, First>\00", align 1
@_ZL27benchmark_uniq_108BM_MemCmp = internal unnamed_addr global ptr null, align 8
@.str.213 = private unnamed_addr constant [36 x i8] c"BM_MemCmp<15, GreaterThanZero, Mid>\00", align 1
@_ZL27benchmark_uniq_109BM_MemCmp = internal unnamed_addr global ptr null, align 8
@.str.215 = private unnamed_addr constant [37 x i8] c"BM_MemCmp<15, GreaterThanZero, Last>\00", align 1
@_ZL27benchmark_uniq_110BM_MemCmp = internal unnamed_addr global ptr null, align 8
@.str.217 = private unnamed_addr constant [28 x i8] c"BM_MemCmp<16, EqZero, None>\00", align 1
@_ZL27benchmark_uniq_111BM_MemCmp = internal unnamed_addr global ptr null, align 8
@.str.219 = private unnamed_addr constant [29 x i8] c"BM_MemCmp<16, EqZero, First>\00", align 1
@_ZL27benchmark_uniq_112BM_MemCmp = internal unnamed_addr global ptr null, align 8
@.str.221 = private unnamed_addr constant [27 x i8] c"BM_MemCmp<16, EqZero, Mid>\00", align 1
@_ZL27benchmark_uniq_113BM_MemCmp = internal unnamed_addr global ptr null, align 8
@.str.223 = private unnamed_addr constant [28 x i8] c"BM_MemCmp<16, EqZero, Last>\00", align 1
@_ZL27benchmark_uniq_114BM_MemCmp = internal unnamed_addr global ptr null, align 8
@.str.225 = private unnamed_addr constant [34 x i8] c"BM_MemCmp<16, LessThanZero, None>\00", align 1
@_ZL27benchmark_uniq_115BM_MemCmp = internal unnamed_addr global ptr null, align 8
@.str.227 = private unnamed_addr constant [35 x i8] c"BM_MemCmp<16, LessThanZero, First>\00", align 1
@_ZL27benchmark_uniq_116BM_MemCmp = internal unnamed_addr global ptr null, align 8
@.str.229 = private unnamed_addr constant [33 x i8] c"BM_MemCmp<16, LessThanZero, Mid>\00", align 1
@_ZL27benchmark_uniq_117BM_MemCmp = internal unnamed_addr global ptr null, align 8
@.str.231 = private unnamed_addr constant [34 x i8] c"BM_MemCmp<16, LessThanZero, Last>\00", align 1
@_ZL27benchmark_uniq_118BM_MemCmp = internal unnamed_addr global ptr null, align 8
@.str.233 = private unnamed_addr constant [37 x i8] c"BM_MemCmp<16, GreaterThanZero, None>\00", align 1
@_ZL27benchmark_uniq_119BM_MemCmp = internal unnamed_addr global ptr null, align 8
@.str.235 = private unnamed_addr constant [38 x i8] c"BM_MemCmp<16, GreaterThanZero, First>\00", align 1
@_ZL27benchmark_uniq_120BM_MemCmp = internal unnamed_addr global ptr null, align 8
@.str.237 = private unnamed_addr constant [36 x i8] c"BM_MemCmp<16, GreaterThanZero, Mid>\00", align 1
@_ZL27benchmark_uniq_121BM_MemCmp = internal unnamed_addr global ptr null, align 8
@.str.239 = private unnamed_addr constant [37 x i8] c"BM_MemCmp<16, GreaterThanZero, Last>\00", align 1
@_ZL27benchmark_uniq_122BM_MemCmp = internal unnamed_addr global ptr null, align 8
@.str.241 = private unnamed_addr constant [28 x i8] c"BM_MemCmp<31, EqZero, None>\00", align 1
@_ZL27benchmark_uniq_123BM_MemCmp = internal unnamed_addr global ptr null, align 8
@.str.243 = private unnamed_addr constant [29 x i8] c"BM_MemCmp<31, EqZero, First>\00", align 1
@_ZL27benchmark_uniq_124BM_MemCmp = internal unnamed_addr global ptr null, align 8
@.str.245 = private unnamed_addr constant [27 x i8] c"BM_MemCmp<31, EqZero, Mid>\00", align 1
@_ZL27benchmark_uniq_125BM_MemCmp = internal unnamed_addr global ptr null, align 8
@.str.247 = private unnamed_addr constant [28 x i8] c"BM_MemCmp<31, EqZero, Last>\00", align 1
@_ZL27benchmark_uniq_126BM_MemCmp = internal unnamed_addr global ptr null, align 8
@.str.249 = private unnamed_addr constant [34 x i8] c"BM_MemCmp<31, LessThanZero, None>\00", align 1
@_ZL27benchmark_uniq_127BM_MemCmp = internal unnamed_addr global ptr null, align 8
@.str.251 = private unnamed_addr constant [35 x i8] c"BM_MemCmp<31, LessThanZero, First>\00", align 1
@_ZL27benchmark_uniq_128BM_MemCmp = internal unnamed_addr global ptr null, align 8
@.str.253 = private unnamed_addr constant [33 x i8] c"BM_MemCmp<31, LessThanZero, Mid>\00", align 1
@_ZL27benchmark_uniq_129BM_MemCmp = internal unnamed_addr global ptr null, align 8
@.str.255 = private unnamed_addr constant [34 x i8] c"BM_MemCmp<31, LessThanZero, Last>\00", align 1
@_ZL27benchmark_uniq_130BM_MemCmp = internal unnamed_addr global ptr null, align 8
@.str.257 = private unnamed_addr constant [37 x i8] c"BM_MemCmp<31, GreaterThanZero, None>\00", align 1
@_ZL27benchmark_uniq_131BM_MemCmp = internal unnamed_addr global ptr null, align 8
@.str.259 = private unnamed_addr constant [38 x i8] c"BM_MemCmp<31, GreaterThanZero, First>\00", align 1
@_ZL27benchmark_uniq_132BM_MemCmp = internal unnamed_addr global ptr null, align 8
@.str.261 = private unnamed_addr constant [36 x i8] c"BM_MemCmp<31, GreaterThanZero, Mid>\00", align 1
@_ZL27benchmark_uniq_133BM_MemCmp = internal unnamed_addr global ptr null, align 8
@.str.263 = private unnamed_addr constant [37 x i8] c"BM_MemCmp<31, GreaterThanZero, Last>\00", align 1
@_ZL27benchmark_uniq_134BM_MemCmp = internal unnamed_addr global ptr null, align 8
@.str.265 = private unnamed_addr constant [28 x i8] c"BM_MemCmp<32, EqZero, None>\00", align 1
@_ZL27benchmark_uniq_135BM_MemCmp = internal unnamed_addr global ptr null, align 8
@.str.267 = private unnamed_addr constant [29 x i8] c"BM_MemCmp<32, EqZero, First>\00", align 1
@_ZL27benchmark_uniq_136BM_MemCmp = internal unnamed_addr global ptr null, align 8
@.str.269 = private unnamed_addr constant [27 x i8] c"BM_MemCmp<32, EqZero, Mid>\00", align 1
@_ZL27benchmark_uniq_137BM_MemCmp = internal unnamed_addr global ptr null, align 8
@.str.271 = private unnamed_addr constant [28 x i8] c"BM_MemCmp<32, EqZero, Last>\00", align 1
@_ZL27benchmark_uniq_138BM_MemCmp = internal unnamed_addr global ptr null, align 8
@.str.273 = private unnamed_addr constant [34 x i8] c"BM_MemCmp<32, LessThanZero, None>\00", align 1
@_ZL27benchmark_uniq_139BM_MemCmp = internal unnamed_addr global ptr null, align 8
@.str.275 = private unnamed_addr constant [35 x i8] c"BM_MemCmp<32, LessThanZero, First>\00", align 1
@_ZL27benchmark_uniq_140BM_MemCmp = internal unnamed_addr global ptr null, align 8
@.str.277 = private unnamed_addr constant [33 x i8] c"BM_MemCmp<32, LessThanZero, Mid>\00", align 1
@_ZL27benchmark_uniq_141BM_MemCmp = internal unnamed_addr global ptr null, align 8
@.str.279 = private unnamed_addr constant [34 x i8] c"BM_MemCmp<32, LessThanZero, Last>\00", align 1
@_ZL27benchmark_uniq_142BM_MemCmp = internal unnamed_addr global ptr null, align 8
@.str.281 = private unnamed_addr constant [37 x i8] c"BM_MemCmp<32, GreaterThanZero, None>\00", align 1
@_ZL27benchmark_uniq_143BM_MemCmp = internal unnamed_addr global ptr null, align 8
@.str.283 = private unnamed_addr constant [38 x i8] c"BM_MemCmp<32, GreaterThanZero, First>\00", align 1
@_ZL27benchmark_uniq_144BM_MemCmp = internal unnamed_addr global ptr null, align 8
@.str.285 = private unnamed_addr constant [36 x i8] c"BM_MemCmp<32, GreaterThanZero, Mid>\00", align 1
@_ZL27benchmark_uniq_145BM_MemCmp = internal unnamed_addr global ptr null, align 8
@.str.287 = private unnamed_addr constant [37 x i8] c"BM_MemCmp<32, GreaterThanZero, Last>\00", align 1
@_ZL27benchmark_uniq_146BM_MemCmp = internal unnamed_addr global ptr null, align 8
@.str.289 = private unnamed_addr constant [28 x i8] c"BM_MemCmp<63, EqZero, None>\00", align 1
@_ZL27benchmark_uniq_147BM_MemCmp = internal unnamed_addr global ptr null, align 8
@.str.291 = private unnamed_addr constant [29 x i8] c"BM_MemCmp<63, EqZero, First>\00", align 1
@_ZL27benchmark_uniq_148BM_MemCmp = internal unnamed_addr global ptr null, align 8
@.str.293 = private unnamed_addr constant [27 x i8] c"BM_MemCmp<63, EqZero, Mid>\00", align 1
@_ZL27benchmark_uniq_149BM_MemCmp = internal unnamed_addr global ptr null, align 8
@.str.295 = private unnamed_addr constant [28 x i8] c"BM_MemCmp<63, EqZero, Last>\00", align 1
@_ZL27benchmark_uniq_150BM_MemCmp = internal unnamed_addr global ptr null, align 8
@.str.297 = private unnamed_addr constant [34 x i8] c"BM_MemCmp<63, LessThanZero, None>\00", align 1
@_ZL27benchmark_uniq_151BM_MemCmp = internal unnamed_addr global ptr null, align 8
@.str.299 = private unnamed_addr constant [35 x i8] c"BM_MemCmp<63, LessThanZero, First>\00", align 1
@_ZL27benchmark_uniq_152BM_MemCmp = internal unnamed_addr global ptr null, align 8
@.str.301 = private unnamed_addr constant [33 x i8] c"BM_MemCmp<63, LessThanZero, Mid>\00", align 1
@_ZL27benchmark_uniq_153BM_MemCmp = internal unnamed_addr global ptr null, align 8
@.str.303 = private unnamed_addr constant [34 x i8] c"BM_MemCmp<63, LessThanZero, Last>\00", align 1
@_ZL27benchmark_uniq_154BM_MemCmp = internal unnamed_addr global ptr null, align 8
@.str.305 = private unnamed_addr constant [37 x i8] c"BM_MemCmp<63, GreaterThanZero, None>\00", align 1
@_ZL27benchmark_uniq_155BM_MemCmp = internal unnamed_addr global ptr null, align 8
@.str.307 = private unnamed_addr constant [38 x i8] c"BM_MemCmp<63, GreaterThanZero, First>\00", align 1
@_ZL27benchmark_uniq_156BM_MemCmp = internal unnamed_addr global ptr null, align 8
@.str.309 = private unnamed_addr constant [36 x i8] c"BM_MemCmp<63, GreaterThanZero, Mid>\00", align 1
@_ZL27benchmark_uniq_157BM_MemCmp = internal unnamed_addr global ptr null, align 8
@.str.311 = private unnamed_addr constant [37 x i8] c"BM_MemCmp<63, GreaterThanZero, Last>\00", align 1
@_ZL27benchmark_uniq_158BM_MemCmp = internal unnamed_addr global ptr null, align 8
@.str.313 = private unnamed_addr constant [28 x i8] c"BM_MemCmp<64, EqZero, None>\00", align 1
@_ZL27benchmark_uniq_159BM_MemCmp = internal unnamed_addr global ptr null, align 8
@.str.315 = private unnamed_addr constant [29 x i8] c"BM_MemCmp<64, EqZero, First>\00", align 1
@_ZL27benchmark_uniq_160BM_MemCmp = internal unnamed_addr global ptr null, align 8
@.str.317 = private unnamed_addr constant [27 x i8] c"BM_MemCmp<64, EqZero, Mid>\00", align 1
@_ZL27benchmark_uniq_161BM_MemCmp = internal unnamed_addr global ptr null, align 8
@.str.319 = private unnamed_addr constant [28 x i8] c"BM_MemCmp<64, EqZero, Last>\00", align 1
@_ZL27benchmark_uniq_162BM_MemCmp = internal unnamed_addr global ptr null, align 8
@.str.321 = private unnamed_addr constant [34 x i8] c"BM_MemCmp<64, LessThanZero, None>\00", align 1
@_ZL27benchmark_uniq_163BM_MemCmp = internal unnamed_addr global ptr null, align 8
@.str.323 = private unnamed_addr constant [35 x i8] c"BM_MemCmp<64, LessThanZero, First>\00", align 1
@_ZL27benchmark_uniq_164BM_MemCmp = internal unnamed_addr global ptr null, align 8
@.str.325 = private unnamed_addr constant [33 x i8] c"BM_MemCmp<64, LessThanZero, Mid>\00", align 1
@_ZL27benchmark_uniq_165BM_MemCmp = internal unnamed_addr global ptr null, align 8
@.str.327 = private unnamed_addr constant [34 x i8] c"BM_MemCmp<64, LessThanZero, Last>\00", align 1
@_ZL27benchmark_uniq_166BM_MemCmp = internal unnamed_addr global ptr null, align 8
@.str.329 = private unnamed_addr constant [37 x i8] c"BM_MemCmp<64, GreaterThanZero, None>\00", align 1
@_ZL27benchmark_uniq_167BM_MemCmp = internal unnamed_addr global ptr null, align 8
@.str.331 = private unnamed_addr constant [38 x i8] c"BM_MemCmp<64, GreaterThanZero, First>\00", align 1
@_ZL27benchmark_uniq_168BM_MemCmp = internal unnamed_addr global ptr null, align 8
@.str.333 = private unnamed_addr constant [36 x i8] c"BM_MemCmp<64, GreaterThanZero, Mid>\00", align 1
@_ZL27benchmark_uniq_169BM_MemCmp = internal unnamed_addr global ptr null, align 8
@.str.335 = private unnamed_addr constant [37 x i8] c"BM_MemCmp<64, GreaterThanZero, Last>\00", align 1
@_ZTVN9benchmark8internal17FunctionBenchmarkE = external unnamed_addr constant { [5 x ptr] }, align 8
@_ZNSt3__14cerrE = external global %"class.std::__1::basic_ostream", align 8
@.str.336 = private unnamed_addr constant [26 x i8] c"invalid results for Pred=\00", align 1
@_ZN6EqZero8kDisplayE = linkonce_odr dso_local constant [7 x i8] c"EqZero\00", comdat, align 1
@.str.337 = private unnamed_addr constant [6 x i8] c" Mod=\00", align 1
@_ZN4None8kDisplayE = linkonce_odr dso_local constant [5 x i8] c"None\00", comdat, align 1
@.str.338 = private unnamed_addr constant [8 x i8] c" kSize=\00", align 1
@_ZNSt3__15ctypeIcE2idE = external global %"class.std::__1::locale::id", align 8
@.str.341 = private unnamed_addr constant [17 x i8] c"bytes_per_second\00", align 1
@_ZN5First8kDisplayE = linkonce_odr dso_local constant [6 x i8] c"First\00", comdat, align 1
@_ZN3Mid8kDisplayE = linkonce_odr dso_local constant [4 x i8] c"Mid\00", comdat, align 1
@_ZN4Last8kDisplayE = linkonce_odr dso_local constant [5 x i8] c"Last\00", comdat, align 1
@_ZN12LessThanZero8kDisplayE = linkonce_odr dso_local constant [13 x i8] c"LessThanZero\00", comdat, align 1
@_ZN15GreaterThanZero8kDisplayE = linkonce_odr dso_local constant [16 x i8] c"GreaterThanZero\00", comdat, align 16
@llvm.global_ctors = appending global [1 x { i32, ptr, ptr }] [{ i32, ptr, ptr } { i32 65535, ptr @_GLOBAL__sub_I_main.cpp, ptr null }]

declare noundef i32 @_ZN9benchmark8internal17InitializeStreamsEv() local_unnamed_addr #0

; Function Attrs: mustprogress nofree nounwind willreturn memory(argmem: read) uwtable
define dso_local noundef i32 @_Z10RealMemCmpPKcS0_m(ptr nocapture noundef readonly %p, ptr nocapture noundef readonly %q, i64 noundef %s) local_unnamed_addr #1 {
entry:
  %call = tail call i32 @memcmp(ptr noundef %p, ptr noundef %q, i64 noundef %s) #18
  ret i32 %call
}

; Function Attrs: mustprogress nofree nounwind willreturn memory(argmem: read)
declare i32 @memcmp(ptr nocapture noundef, ptr nocapture noundef, i64 noundef) local_unnamed_addr #2

declare noundef ptr @_ZN9benchmark8internal25RegisterBenchmarkInternalEPNS0_9BenchmarkE(ptr noundef) local_unnamed_addr #0

; Function Attrs: nobuiltin allocsize(0)
declare noundef nonnull ptr @_Znwm(i64 noundef) local_unnamed_addr #3

; Function Attrs: uwtable
define linkonce_odr dso_local void @_Z9BM_MemCmpILi1E6EqZero4NoneEvRN9benchmark5StateE(ptr noundef nonnull align 8 dereferenceable(120) %state) #4 comdat personality ptr @__gxx_personality_v0 {
entry:
  %__parent.i.i.i = alloca ptr, align 8
  %ref.tmp2.i = alloca %"class.std::__1::basic_string", align 8
  %p = alloca ptr, align 8
  %q = alloca ptr, align 8
  %res = alloca i8, align 1
  %call.i.i.i.i.i8.i = tail call noalias noundef nonnull dereferenceable(4096) ptr @_Znwm(i64 noundef 4096) #19
  tail call void @llvm.memset.p0.i64(ptr noundef nonnull align 1 dereferenceable(4096) %call.i.i.i.i.i8.i, i8 0, i64 4096, i1 false), !tbaa !5
  %call.i.i.i.i.i8.i105 = invoke noalias noundef nonnull dereferenceable(4096) ptr @_Znwm(i64 noundef 4096) #19
          to label %invoke.cont unwind label %_ZNSt3__128__exception_guard_exceptionsINS_6vectorIcNS_9allocatorIcEEE16__destroy_vectorEED2B7v170000Ev.exit.i110

_ZNSt3__128__exception_guard_exceptionsINS_6vectorIcNS_9allocatorIcEEE16__destroy_vectorEED2B7v170000Ev.exit.i110: ; preds = %entry
  %0 = landingpad { ptr, i32 }
          cleanup
  br label %_ZNSt3__16vectorIcNS_9allocatorIcEEED2B7v170000Ev.exit142

invoke.cont:                                      ; preds = %entry
  tail call void @llvm.memset.p0.i64(ptr noundef nonnull align 1 dereferenceable(4096) %call.i.i.i.i.i8.i105, i8 0, i64 4096, i1 false), !tbaa !5
  call void @llvm.lifetime.start.p0(i64 8, ptr nonnull %p) #20
  store ptr %call.i.i.i.i.i8.i, ptr %p, align 8, !tbaa !8
  call void @llvm.lifetime.start.p0(i64 8, ptr nonnull %q) #20
  store ptr %call.i.i.i.i.i8.i105, ptr %q, align 8, !tbaa !8
  %call4 = tail call noundef i32 @_Z10RealMemCmpPKcS0_m(ptr noundef nonnull %call.i.i.i.i.i8.i, ptr noundef nonnull %call.i.i.i.i.i8.i105, i64 noundef 1) #21
  %cmp.i.not = icmp eq i32 %call4, 0
  br i1 %cmp.i.not, label %invoke.cont31, label %if.then

if.then:                                          ; preds = %invoke.cont
  %call1.i114 = invoke noundef nonnull align 8 dereferenceable(8) ptr @_ZNSt3__124__put_character_sequenceB7v170000IcNS_11char_traitsIcEEEERNS_13basic_ostreamIT_T0_EES7_PKS4_m(ptr noundef nonnull align 8 dereferenceable(8) @_ZNSt3__14cerrE, ptr noundef nonnull @.str.336, i64 noundef 25)
          to label %invoke.cont14 unwind label %lpad5

invoke.cont14:                                    ; preds = %if.then
  %call1.i116 = invoke noundef nonnull align 8 dereferenceable(8) ptr @_ZNSt3__124__put_character_sequenceB7v170000IcNS_11char_traitsIcEEEERNS_13basic_ostreamIT_T0_EES7_PKS4_m(ptr noundef nonnull align 8 dereferenceable(8) %call1.i114, ptr noundef nonnull @_ZN6EqZero8kDisplayE, i64 noundef 6)
          to label %invoke.cont16 unwind label %lpad5

invoke.cont16:                                    ; preds = %invoke.cont14
  %call1.i119 = invoke noundef nonnull align 8 dereferenceable(8) ptr @_ZNSt3__124__put_character_sequenceB7v170000IcNS_11char_traitsIcEEEERNS_13basic_ostreamIT_T0_EES7_PKS4_m(ptr noundef nonnull align 8 dereferenceable(8) %call1.i116, ptr noundef nonnull @.str.337, i64 noundef 5)
          to label %invoke.cont18 unwind label %lpad5

invoke.cont18:                                    ; preds = %invoke.cont16
  %call1.i122 = invoke noundef nonnull align 8 dereferenceable(8) ptr @_ZNSt3__124__put_character_sequenceB7v170000IcNS_11char_traitsIcEEEERNS_13basic_ostreamIT_T0_EES7_PKS4_m(ptr noundef nonnull align 8 dereferenceable(8) %call1.i119, ptr noundef nonnull @_ZN4None8kDisplayE, i64 noundef 4)
          to label %invoke.cont20 unwind label %lpad5

invoke.cont20:                                    ; preds = %invoke.cont18
  %call1.i125 = invoke noundef nonnull align 8 dereferenceable(8) ptr @_ZNSt3__124__put_character_sequenceB7v170000IcNS_11char_traitsIcEEEERNS_13basic_ostreamIT_T0_EES7_PKS4_m(ptr noundef nonnull align 8 dereferenceable(8) %call1.i122, ptr noundef nonnull @.str.338, i64 noundef 7)
          to label %invoke.cont22 unwind label %lpad5

invoke.cont22:                                    ; preds = %invoke.cont20
  %call25 = invoke noundef nonnull align 8 dereferenceable(8) ptr @_ZNSt3__113basic_ostreamIcNS_11char_traitsIcEEElsEi(ptr noundef nonnull align 8 dereferenceable(8) %call1.i125, i32 noundef 1)
          to label %invoke.cont24 unwind label %lpad5

invoke.cont24:                                    ; preds = %invoke.cont22
  %call.i127 = invoke noundef nonnull align 8 dereferenceable(8) ptr @_ZNSt3__14endlB7v170000IcNS_11char_traitsIcEEEERNS_13basic_ostreamIT_T0_EES7_(ptr noundef nonnull align 8 dereferenceable(8) %call25)
          to label %invoke.cont26 unwind label %lpad5

invoke.cont26:                                    ; preds = %invoke.cont24
  tail call void @exit(i32 noundef 1) #22
  unreachable

lpad5:                                            ; preds = %invoke.cont24, %invoke.cont20, %invoke.cont18, %invoke.cont16, %invoke.cont14, %if.then, %invoke.cont22
  %1 = landingpad { ptr, i32 }
          cleanup
  br label %_ZNSt3__16vectorIcNS_9allocatorIcEEED2B7v170000Ev.exit138

invoke.cont31:                                    ; preds = %invoke.cont
  call void asm sideeffect "", "=*r|m,0,~{memory},~{dirflag},~{fpsr},~{flags}"(ptr nonnull elementtype(ptr) %p, ptr nonnull %call.i.i.i.i.i8.i) #20, !srcloc !10
  call void asm sideeffect "", "=*r|m,0,~{memory},~{dirflag},~{fpsr},~{flags}"(ptr nonnull elementtype(ptr) %q, ptr nonnull %call.i.i.i.i.i8.i105) #20, !srcloc !10
  %error_occurred_.i.i = getelementptr inbounds %"class.benchmark::State", ptr %state, i64 0, i32 5
  %2 = load i8, ptr %error_occurred_.i.i, align 2, !tbaa !11, !range !26, !noundef !27
  %max_iterations.i.i = getelementptr inbounds %"class.benchmark::State", ptr %state, i64 0, i32 2
  %3 = load i64, ptr %max_iterations.i.i, align 8
  invoke void @_ZN9benchmark5State16StartKeepRunningEv(ptr noundef nonnull align 8 dereferenceable(120) %state)
          to label %for.cond36.preheader unwind label %lpad33

for.cond36.preheader:                             ; preds = %invoke.cont31
  %tobool.not.i.i = icmp ne i8 %2, 0
  %cmp.not.i.not152155 = icmp eq i64 %3, 0
  %cmp.not.i.not152 = select i1 %tobool.not.i.i, i1 true, i1 %cmp.not.i.not152155
  br i1 %cmp.not.i.not152, label %if.end.i, label %for.body40, !prof !28

if.end.i:                                         ; preds = %for.cond.cleanup49, %for.cond36.preheader
  invoke void @_ZN9benchmark5State17FinishKeepRunningEv(ptr noundef nonnull align 8 dereferenceable(120) %state)
          to label %for.cond.cleanup39 unwind label %lpad33

for.cond.cleanup39:                               ; preds = %if.end.i
  %started_.i = getelementptr inbounds %"class.benchmark::State", ptr %state, i64 0, i32 3
  %4 = load i8, ptr %started_.i, align 8, !tbaa !29, !range !26, !noundef !27
  %tobool.not.i = icmp eq i8 %4, 0
  br i1 %tobool.not.i, label %_ZNK9benchmark5State10iterationsEv.exit, label %if.end.i102, !prof !28

if.end.i102:                                      ; preds = %for.cond.cleanup39
  %5 = load i64, ptr %max_iterations.i.i, align 8, !tbaa !30
  %6 = load i64, ptr %state, align 8, !tbaa !31
  %sub.i = sub i64 %5, %6
  %batch_leftover_.i = getelementptr inbounds %"class.benchmark::State", ptr %state, i64 0, i32 1
  %7 = load i64, ptr %batch_leftover_.i, align 8, !tbaa !32
  %add.i = add i64 %sub.i, %7
  %8 = shl i64 %add.i, 12
  %9 = sitofp i64 %8 to double
  br label %_ZNK9benchmark5State10iterationsEv.exit

_ZNK9benchmark5State10iterationsEv.exit:          ; preds = %for.cond.cleanup39, %if.end.i102
  %retval.0.i = phi double [ %9, %if.end.i102 ], [ 0.000000e+00, %for.cond.cleanup39 ]
  %counters.i = getelementptr inbounds %"class.benchmark::State", ptr %state, i64 0, i32 8
  call void @llvm.lifetime.start.p0(i64 24, ptr nonnull %ref.tmp2.i) #20
  store i8 32, ptr %ref.tmp2.i, align 8
  %__data_.i.i.i.i = getelementptr inbounds %"struct.std::__1::basic_string<char>::__short", ptr %ref.tmp2.i, i64 0, i32 2
  %cmp.i24.i.i.i = icmp ugt ptr %__data_.i.i.i.i, @.str.341
  %add.ptr.i.i.i.i = getelementptr inbounds %"struct.std::__1::basic_string<char>::__short", ptr %ref.tmp2.i, i64 0, i32 2, i64 16
  %cmp1.i.i.i.i = icmp ule ptr %add.ptr.i.i.i.i, @.str.341
  %10 = or i1 %cmp.i24.i.i.i, %cmp1.i.i.i.i
  call void @llvm.assume(i1 %10)
  call void @llvm.memcpy.p0.p0.i64(ptr noundef nonnull align 1 dereferenceable(16) %__data_.i.i.i.i, ptr noundef nonnull align 1 dereferenceable(16) @.str.341, i64 16, i1 false)
  store i8 0, ptr %add.ptr.i.i.i.i, align 1, !tbaa !5
  call void @llvm.lifetime.start.p0(i64 8, ptr nonnull %__parent.i.i.i) #20
  %call.i.i6.i = invoke noundef nonnull align 8 dereferenceable(8) ptr @_ZNSt3__16__treeINS_12__value_typeINS_12basic_stringIcNS_11char_traitsIcEENS_9allocatorIcEEEEN9benchmark7CounterEEENS_19__map_value_compareIS7_SA_NS_4lessIS7_EELb1EEENS5_ISA_EEE12__find_equalIS7_EERPNS_16__tree_node_baseIPvEERPNS_15__tree_end_nodeISL_EERKT_(ptr noundef nonnull align 8 dereferenceable(24) %counters.i, ptr noundef nonnull align 8 dereferenceable(8) %__parent.i.i.i, ptr noundef nonnull align 8 dereferenceable(24) %ref.tmp2.i)
          to label %call.i.i.noexc.i unwind label %lpad.i

call.i.i.noexc.i:                                 ; preds = %_ZNK9benchmark5State10iterationsEv.exit
  %11 = load ptr, ptr %call.i.i6.i, align 8, !tbaa !8
  %cmp.i.i4.i = icmp eq ptr %11, null
  br i1 %cmp.i.i4.i, label %if.then.i.i5.i, label %invoke.cont.i

if.then.i.i5.i:                                   ; preds = %call.i.i.noexc.i
  %call.i.i.i.i.i.i.i7.i = invoke noalias noundef nonnull dereferenceable(72) ptr @_Znwm(i64 noundef 72) #19
          to label %call.i.i.i.i.i.i.i.noexc.i unwind label %lpad.i

call.i.i.i.i.i.i.i.noexc.i:                       ; preds = %if.then.i.i5.i
  %__value_.i.i.i.i = getelementptr inbounds %"class.std::__1::__tree_node", ptr %call.i.i.i.i.i.i.i7.i, i64 0, i32 1
  call void @llvm.memcpy.p0.p0.i64(ptr noundef nonnull align 8 dereferenceable(24) %__value_.i.i.i.i, ptr noundef nonnull align 8 dereferenceable(24) %ref.tmp2.i, i64 24, i1 false), !noalias !33
  call void @llvm.memset.p0.i64(ptr noundef nonnull align 8 dereferenceable(24) %ref.tmp2.i, i8 0, i64 24, i1 false), !noalias !33
  %second.i.i.i.i.i.i.i.i = getelementptr inbounds %"class.std::__1::__tree_node", ptr %call.i.i.i.i.i.i.i7.i, i64 0, i32 1, i32 0, i32 1
  store double 0.000000e+00, ptr %second.i.i.i.i.i.i.i.i, align 8, !tbaa !36, !noalias !33
  %flags.i.i.i.i.i.i.i.i.i = getelementptr inbounds %"class.std::__1::__tree_node", ptr %call.i.i.i.i.i.i.i7.i, i64 0, i32 1, i32 0, i32 1, i32 1
  store i32 0, ptr %flags.i.i.i.i.i.i.i.i.i, align 8, !tbaa !41, !noalias !33
  %oneK.i.i.i.i.i.i.i.i.i = getelementptr inbounds %"class.std::__1::__tree_node", ptr %call.i.i.i.i.i.i.i7.i, i64 0, i32 1, i32 0, i32 1, i32 2
  store i32 1000, ptr %oneK.i.i.i.i.i.i.i.i.i, align 4, !tbaa !42, !noalias !33
  %12 = load ptr, ptr %__parent.i.i.i, align 8, !tbaa !8
  %__parent_.i.i.i.i = getelementptr inbounds %"class.std::__1::__tree_node_base", ptr %call.i.i.i.i.i.i.i7.i, i64 0, i32 2
  call void @llvm.memset.p0.i64(ptr noundef nonnull align 8 dereferenceable(16) %call.i.i.i.i.i.i.i7.i, i8 0, i64 16, i1 false)
  store ptr %12, ptr %__parent_.i.i.i.i, align 8, !tbaa !43
  store ptr %call.i.i.i.i.i.i.i7.i, ptr %call.i.i6.i, align 8, !tbaa !8
  %13 = load ptr, ptr %counters.i, align 8, !tbaa !8
  %14 = load ptr, ptr %13, align 8, !tbaa !45
  %cmp.not.i.i.i.i = icmp eq ptr %14, null
  br i1 %cmp.not.i.i.i.i, label %_ZNSt3__110unique_ptrINS_11__tree_nodeINS_12__value_typeINS_12basic_stringIcNS_11char_traitsIcEENS_9allocatorIcEEEEN9benchmark7CounterEEEPvEENS_22__tree_node_destructorINS6_ISD_EEEEED2B7v170000Ev.exit.i.i.i, label %if.then.i.i.i.i

if.then.i.i.i.i:                                  ; preds = %call.i.i.i.i.i.i.i.noexc.i
  store ptr %14, ptr %counters.i, align 8, !tbaa !8
  %.pre.i.i.i.i = load ptr, ptr %call.i.i6.i, align 8, !tbaa !8
  br label %_ZNSt3__110unique_ptrINS_11__tree_nodeINS_12__value_typeINS_12basic_stringIcNS_11char_traitsIcEENS_9allocatorIcEEEEN9benchmark7CounterEEEPvEENS_22__tree_node_destructorINS6_ISD_EEEEED2B7v170000Ev.exit.i.i.i

_ZNSt3__110unique_ptrINS_11__tree_nodeINS_12__value_typeINS_12basic_stringIcNS_11char_traitsIcEENS_9allocatorIcEEEEN9benchmark7CounterEEEPvEENS_22__tree_node_destructorINS6_ISD_EEEEED2B7v170000Ev.exit.i.i.i: ; preds = %if.then.i.i.i.i, %call.i.i.i.i.i.i.i.noexc.i
  %15 = phi ptr [ %.pre.i.i.i.i, %if.then.i.i.i.i ], [ %call.i.i.i.i.i.i.i7.i, %call.i.i.i.i.i.i.i.noexc.i ]
  %__pair1_.i.i10.i.i.i = getelementptr inbounds %"class.benchmark::State", ptr %state, i64 0, i32 8, i32 0, i32 1
  %16 = load ptr, ptr %__pair1_.i.i10.i.i.i, align 8, !tbaa !45
  call void @_ZNSt3__127__tree_balance_after_insertB7v170000IPNS_16__tree_node_baseIPvEEEEvT_S5_(ptr noundef %16, ptr noundef %15) #20
  %__pair3_.i.i.i.i.i = getelementptr inbounds %"class.benchmark::State", ptr %state, i64 0, i32 8, i32 0, i32 2
  %17 = load i64, ptr %__pair3_.i.i.i.i.i, align 8, !tbaa !46
  %inc.i.i.i.i = add i64 %17, 1
  store i64 %inc.i.i.i.i, ptr %__pair3_.i.i.i.i.i, align 8, !tbaa !46
  br label %invoke.cont.i

invoke.cont.i:                                    ; preds = %_ZNSt3__110unique_ptrINS_11__tree_nodeINS_12__value_typeINS_12basic_stringIcNS_11char_traitsIcEENS_9allocatorIcEEEEN9benchmark7CounterEEEPvEENS_22__tree_node_destructorINS6_ISD_EEEEED2B7v170000Ev.exit.i.i.i, %call.i.i.noexc.i
  %__r.0.i.i.i = phi ptr [ %call.i.i.i.i.i.i.i7.i, %_ZNSt3__110unique_ptrINS_11__tree_nodeINS_12__value_typeINS_12basic_stringIcNS_11char_traitsIcEENS_9allocatorIcEEEEN9benchmark7CounterEEEPvEENS_22__tree_node_destructorINS6_ISD_EEEEED2B7v170000Ev.exit.i.i.i ], [ %11, %call.i.i.noexc.i ]
  call void @llvm.lifetime.end.p0(i64 8, ptr nonnull %__parent.i.i.i) #20
  %second.i.i = getelementptr inbounds %"class.std::__1::__tree_node", ptr %__r.0.i.i.i, i64 0, i32 1, i32 0, i32 1
  store double %retval.0.i, ptr %second.i.i, align 8, !tbaa.struct !47
  %ref.tmp.sroa.5.0.second.i.sroa_idx.i = getelementptr inbounds %"class.std::__1::__tree_node", ptr %__r.0.i.i.i, i64 0, i32 1, i32 0, i32 1, i32 1
  store i32 1, ptr %ref.tmp.sroa.5.0.second.i.sroa_idx.i, align 8, !tbaa.struct !51
  %ref.tmp.sroa.6.0.second.i.sroa_idx.i = getelementptr inbounds %"class.std::__1::__tree_node", ptr %__r.0.i.i.i, i64 0, i32 1, i32 0, i32 1, i32 2
  store i32 1024, ptr %ref.tmp.sroa.6.0.second.i.sroa_idx.i, align 4, !tbaa.struct !52
  %bf.load.i.i.i = load i8, ptr %ref.tmp2.i, align 8
  %bf.clear.i.i.i = and i8 %bf.load.i.i.i, 1
  %tobool.i.not.i.i = icmp eq i8 %bf.clear.i.i.i, 0
  br i1 %tobool.i.not.i.i, label %_ZNSt3__16vectorIcNS_9allocatorIcEEED2B7v170000Ev.exit134, label %if.then.i.i

if.then.i.i:                                      ; preds = %invoke.cont.i
  %__data_.i.i.i = getelementptr inbounds %"struct.std::__1::basic_string<char>::__long", ptr %ref.tmp2.i, i64 0, i32 2
  %18 = load ptr, ptr %__data_.i.i.i, align 8, !tbaa !5
  call void @_ZdlPv(ptr noundef %18) #23
  br label %_ZNSt3__16vectorIcNS_9allocatorIcEEED2B7v170000Ev.exit134

lpad.i:                                           ; preds = %if.then.i.i5.i, %_ZNK9benchmark5State10iterationsEv.exit
  %19 = landingpad { ptr, i32 }
          cleanup
  %bf.load.i.i8.i = load i8, ptr %ref.tmp2.i, align 8
  %bf.clear.i.i9.i = and i8 %bf.load.i.i8.i, 1
  %tobool.i.not.i10.i = icmp eq i8 %bf.clear.i.i9.i, 0
  br i1 %tobool.i.not.i10.i, label %_ZNSt3__112basic_stringIcNS_11char_traitsIcEENS_9allocatorIcEEED2Ev.exit13.i, label %if.then.i12.i

if.then.i12.i:                                    ; preds = %lpad.i
  %__data_.i.i11.i = getelementptr inbounds %"struct.std::__1::basic_string<char>::__long", ptr %ref.tmp2.i, i64 0, i32 2
  %20 = load ptr, ptr %__data_.i.i11.i, align 8, !tbaa !5
  call void @_ZdlPv(ptr noundef %20) #23
  br label %_ZNSt3__112basic_stringIcNS_11char_traitsIcEENS_9allocatorIcEEED2Ev.exit13.i

_ZNSt3__112basic_stringIcNS_11char_traitsIcEENS_9allocatorIcEEED2Ev.exit13.i: ; preds = %if.then.i12.i, %lpad.i
  call void @llvm.lifetime.end.p0(i64 24, ptr nonnull %ref.tmp2.i) #20
  br label %_ZNSt3__16vectorIcNS_9allocatorIcEEED2B7v170000Ev.exit138

lpad33:                                           ; preds = %if.end.i, %invoke.cont31
  %21 = landingpad { ptr, i32 }
          cleanup
  br label %_ZNSt3__16vectorIcNS_9allocatorIcEEED2B7v170000Ev.exit138

for.body40:                                       ; preds = %for.cond36.preheader, %for.cond.cleanup49
  %__begin1.sroa.0.0153 = phi i64 [ %dec.i, %for.cond.cleanup49 ], [ %3, %for.cond36.preheader ]
  fence syncscope("singlethread") acq_rel
  br label %for.body50

for.cond.cleanup49:                               ; preds = %for.body50
  %dec.i = add i64 %__begin1.sroa.0.0153, -1
  %cmp.not.i.not = icmp eq i64 %dec.i, 0
  br i1 %cmp.not.i.not, label %if.end.i, label %for.body40, !prof !28

for.body50:                                       ; preds = %for.body40, %for.body50
  %indvars.iv = phi i64 [ 0, %for.body40 ], [ %indvars.iv.next, %for.body50 ]
  call void @llvm.lifetime.start.p0(i64 1, ptr nonnull %res) #20
  %22 = load ptr, ptr %p, align 8, !tbaa !8
  %add.ptr53 = getelementptr inbounds i8, ptr %22, i64 %indvars.iv
  %23 = load ptr, ptr %q, align 8, !tbaa !8
  %add.ptr56 = getelementptr inbounds i8, ptr %23, i64 %indvars.iv
  %lhsc97 = load i8, ptr %add.ptr53, align 1
  %rhsc99 = load i8, ptr %add.ptr56, align 1
  %cmp.i129 = icmp eq i8 %lhsc97, %rhsc99
  %frombool = zext i1 %cmp.i129 to i8
  store i8 %frombool, ptr %res, align 1, !tbaa !53
  call void asm sideeffect "", "=*r|m,0,~{memory},~{dirflag},~{fpsr},~{flags}"(ptr nonnull elementtype(i8) %res, i1 %cmp.i129) #20, !srcloc !10
  call void @llvm.lifetime.end.p0(i64 1, ptr nonnull %res) #20
  %indvars.iv.next = add nuw nsw i64 %indvars.iv, 1
  %exitcond.not = icmp eq i64 %indvars.iv.next, 4096
  br i1 %exitcond.not, label %for.cond.cleanup49, label %for.body50, !llvm.loop !54

_ZNSt3__16vectorIcNS_9allocatorIcEEED2B7v170000Ev.exit134: ; preds = %if.then.i.i, %invoke.cont.i
  call void @llvm.lifetime.end.p0(i64 24, ptr nonnull %ref.tmp2.i) #20
  call void @llvm.lifetime.end.p0(i64 8, ptr nonnull %q) #20
  call void @llvm.lifetime.end.p0(i64 8, ptr nonnull %p) #20
  call void @_ZdlPv(ptr noundef nonnull %call.i.i.i.i.i8.i105) #23
  call void @_ZdlPv(ptr noundef nonnull %call.i.i.i.i.i8.i) #23
  ret void

_ZNSt3__16vectorIcNS_9allocatorIcEEED2B7v170000Ev.exit138: ; preds = %lpad33, %lpad5, %_ZNSt3__112basic_stringIcNS_11char_traitsIcEENS_9allocatorIcEEED2Ev.exit13.i
  %.pn94 = phi { ptr, i32 } [ %1, %lpad5 ], [ %19, %_ZNSt3__112basic_stringIcNS_11char_traitsIcEENS_9allocatorIcEEED2Ev.exit13.i ], [ %21, %lpad33 ]
  call void @llvm.lifetime.end.p0(i64 8, ptr nonnull %q) #20
  call void @llvm.lifetime.end.p0(i64 8, ptr nonnull %p) #20
  call void @_ZdlPv(ptr noundef nonnull %call.i.i.i.i.i8.i105) #23
  br label %_ZNSt3__16vectorIcNS_9allocatorIcEEED2B7v170000Ev.exit142

_ZNSt3__16vectorIcNS_9allocatorIcEEED2B7v170000Ev.exit142: ; preds = %_ZNSt3__128__exception_guard_exceptionsINS_6vectorIcNS_9allocatorIcEEE16__destroy_vectorEED2B7v170000Ev.exit.i110, %_ZNSt3__16vectorIcNS_9allocatorIcEEED2B7v170000Ev.exit138
  %.pn94.pn = phi { ptr, i32 } [ %.pn94, %_ZNSt3__16vectorIcNS_9allocatorIcEEED2B7v170000Ev.exit138 ], [ %0, %_ZNSt3__128__exception_guard_exceptionsINS_6vectorIcNS_9allocatorIcEEE16__destroy_vectorEED2B7v170000Ev.exit.i110 ]
  call void @_ZdlPv(ptr noundef nonnull %call.i.i.i.i.i8.i) #23
  resume { ptr, i32 } %.pn94.pn
}

declare i32 @__gxx_personality_v0(...)

; Function Attrs: nobuiltin nounwind
declare void @_ZdlPv(ptr noundef) local_unnamed_addr #5

declare noundef ptr @_ZN9benchmark8internal9Benchmark4UnitENS_8TimeUnitE(ptr noundef nonnull align 8 dereferenceable(208), i32 noundef) local_unnamed_addr #0

; Function Attrs: uwtable
define linkonce_odr dso_local void @_Z9BM_MemCmpILi1E6EqZero5FirstEvRN9benchmark5StateE(ptr noundef nonnull align 8 dereferenceable(120) %state) #4 comdat personality ptr @__gxx_personality_v0 {
entry:
  %__parent.i.i.i = alloca ptr, align 8
  %ref.tmp2.i = alloca %"class.std::__1::basic_string", align 8
  %p = alloca ptr, align 8
  %q = alloca ptr, align 8
  %res = alloca i8, align 1
  %call.i.i.i.i.i8.i = tail call noalias noundef nonnull dereferenceable(4096) ptr @_Znwm(i64 noundef 4096) #19
  tail call void @llvm.memset.p0.i64(ptr noundef nonnull align 1 dereferenceable(4096) %call.i.i.i.i.i8.i, i8 0, i64 4096, i1 false), !tbaa !5
  %call.i.i.i.i.i8.i90 = invoke noalias noundef nonnull dereferenceable(4096) ptr @_Znwm(i64 noundef 4096) #19
          to label %invoke.cont unwind label %_ZNSt3__128__exception_guard_exceptionsINS_6vectorIcNS_9allocatorIcEEE16__destroy_vectorEED2B7v170000Ev.exit.i95

_ZNSt3__128__exception_guard_exceptionsINS_6vectorIcNS_9allocatorIcEEE16__destroy_vectorEED2B7v170000Ev.exit.i95: ; preds = %entry
  %0 = landingpad { ptr, i32 }
          cleanup
  br label %_ZNSt3__16vectorIcNS_9allocatorIcEEED2B7v170000Ev.exit127

invoke.cont:                                      ; preds = %entry
  tail call void @llvm.memset.p0.i64(ptr noundef nonnull align 1 dereferenceable(4096) %call.i.i.i.i.i8.i90, i8 0, i64 4096, i1 false), !tbaa !5
  call void @llvm.lifetime.start.p0(i64 8, ptr nonnull %p) #20
  store ptr %call.i.i.i.i.i8.i, ptr %p, align 8, !tbaa !8
  call void @llvm.lifetime.start.p0(i64 8, ptr nonnull %q) #20
  store ptr %call.i.i.i.i.i8.i90, ptr %q, align 8, !tbaa !8
  br label %for.body

for.cond.cleanup:                                 ; preds = %for.body
  %1 = load ptr, ptr %p, align 8, !tbaa !8
  %2 = load ptr, ptr %q, align 8, !tbaa !8
  %call4 = tail call noundef i32 @_Z10RealMemCmpPKcS0_m(ptr noundef %1, ptr noundef %2, i64 noundef 1) #21
  %cmp.i = icmp eq i32 %call4, 0
  %lhsc = load i8, ptr %1, align 1
  %rhsc = load i8, ptr %2, align 1
  %cmp.i98 = icmp eq i8 %lhsc, %rhsc
  %3 = xor i1 %cmp.i, %cmp.i98
  br i1 %3, label %if.then, label %invoke.cont27

for.body:                                         ; preds = %for.body, %invoke.cont
  %indvars.iv = phi i64 [ 0, %invoke.cont ], [ %indvars.iv.next.3, %for.body ]
  %4 = load ptr, ptr %p, align 8, !tbaa !8
  %add.ptr = getelementptr inbounds i8, ptr %4, i64 %indvars.iv
  store i8 -1, ptr %add.ptr, align 1, !tbaa !5
  %indvars.iv.next = or i64 %indvars.iv, 1
  %5 = load ptr, ptr %p, align 8, !tbaa !8
  %add.ptr.1 = getelementptr inbounds i8, ptr %5, i64 %indvars.iv.next
  store i8 -1, ptr %add.ptr.1, align 1, !tbaa !5
  %indvars.iv.next.1 = or i64 %indvars.iv, 2
  %6 = load ptr, ptr %p, align 8, !tbaa !8
  %add.ptr.2 = getelementptr inbounds i8, ptr %6, i64 %indvars.iv.next.1
  store i8 -1, ptr %add.ptr.2, align 1, !tbaa !5
  %indvars.iv.next.2 = or i64 %indvars.iv, 3
  %7 = load ptr, ptr %p, align 8, !tbaa !8
  %add.ptr.3 = getelementptr inbounds i8, ptr %7, i64 %indvars.iv.next.2
  store i8 -1, ptr %add.ptr.3, align 1, !tbaa !5
  %indvars.iv.next.3 = add nuw nsw i64 %indvars.iv, 4
  %exitcond.not.3 = icmp eq i64 %indvars.iv.next.3, 4096
  br i1 %exitcond.not.3, label %for.cond.cleanup, label %for.body, !llvm.loop !56

if.then:                                          ; preds = %for.cond.cleanup
  %call1.i99 = invoke noundef nonnull align 8 dereferenceable(8) ptr @_ZNSt3__124__put_character_sequenceB7v170000IcNS_11char_traitsIcEEEERNS_13basic_ostreamIT_T0_EES7_PKS4_m(ptr noundef nonnull align 8 dereferenceable(8) @_ZNSt3__14cerrE, ptr noundef nonnull @.str.336, i64 noundef 25)
          to label %invoke.cont12 unwind label %lpad11

invoke.cont12:                                    ; preds = %if.then
  %call1.i101 = invoke noundef nonnull align 8 dereferenceable(8) ptr @_ZNSt3__124__put_character_sequenceB7v170000IcNS_11char_traitsIcEEEERNS_13basic_ostreamIT_T0_EES7_PKS4_m(ptr noundef nonnull align 8 dereferenceable(8) %call1.i99, ptr noundef nonnull @_ZN6EqZero8kDisplayE, i64 noundef 6)
          to label %invoke.cont14 unwind label %lpad11

invoke.cont14:                                    ; preds = %invoke.cont12
  %call1.i104 = invoke noundef nonnull align 8 dereferenceable(8) ptr @_ZNSt3__124__put_character_sequenceB7v170000IcNS_11char_traitsIcEEEERNS_13basic_ostreamIT_T0_EES7_PKS4_m(ptr noundef nonnull align 8 dereferenceable(8) %call1.i101, ptr noundef nonnull @.str.337, i64 noundef 5)
          to label %invoke.cont16 unwind label %lpad11

invoke.cont16:                                    ; preds = %invoke.cont14
  %call1.i107 = invoke noundef nonnull align 8 dereferenceable(8) ptr @_ZNSt3__124__put_character_sequenceB7v170000IcNS_11char_traitsIcEEEERNS_13basic_ostreamIT_T0_EES7_PKS4_m(ptr noundef nonnull align 8 dereferenceable(8) %call1.i104, ptr noundef nonnull @_ZN5First8kDisplayE, i64 noundef 5)
          to label %invoke.cont18 unwind label %lpad11

invoke.cont18:                                    ; preds = %invoke.cont16
  %call1.i110 = invoke noundef nonnull align 8 dereferenceable(8) ptr @_ZNSt3__124__put_character_sequenceB7v170000IcNS_11char_traitsIcEEEERNS_13basic_ostreamIT_T0_EES7_PKS4_m(ptr noundef nonnull align 8 dereferenceable(8) %call1.i107, ptr noundef nonnull @.str.338, i64 noundef 7)
          to label %invoke.cont20 unwind label %lpad11

invoke.cont20:                                    ; preds = %invoke.cont18
  %call23 = invoke noundef nonnull align 8 dereferenceable(8) ptr @_ZNSt3__113basic_ostreamIcNS_11char_traitsIcEEElsEi(ptr noundef nonnull align 8 dereferenceable(8) %call1.i110, i32 noundef 1)
          to label %invoke.cont22 unwind label %lpad11

invoke.cont22:                                    ; preds = %invoke.cont20
  %call.i112 = invoke noundef nonnull align 8 dereferenceable(8) ptr @_ZNSt3__14endlB7v170000IcNS_11char_traitsIcEEEERNS_13basic_ostreamIT_T0_EES7_(ptr noundef nonnull align 8 dereferenceable(8) %call23)
          to label %invoke.cont24 unwind label %lpad11

invoke.cont24:                                    ; preds = %invoke.cont22
  tail call void @exit(i32 noundef 1) #22
  unreachable

lpad11:                                           ; preds = %invoke.cont22, %invoke.cont18, %invoke.cont16, %invoke.cont14, %invoke.cont12, %if.then, %invoke.cont20
  %8 = landingpad { ptr, i32 }
          cleanup
  br label %_ZNSt3__16vectorIcNS_9allocatorIcEEED2B7v170000Ev.exit123

invoke.cont27:                                    ; preds = %for.cond.cleanup
  call void asm sideeffect "", "=*r|m,0,~{memory},~{dirflag},~{fpsr},~{flags}"(ptr nonnull elementtype(ptr) %p, ptr nonnull %1) #20, !srcloc !10
  call void asm sideeffect "", "=*r|m,0,~{memory},~{dirflag},~{fpsr},~{flags}"(ptr nonnull elementtype(ptr) %q, ptr nonnull %2) #20, !srcloc !10
  %error_occurred_.i.i = getelementptr inbounds %"class.benchmark::State", ptr %state, i64 0, i32 5
  %9 = load i8, ptr %error_occurred_.i.i, align 2, !tbaa !11, !range !26, !noundef !27
  %max_iterations.i.i = getelementptr inbounds %"class.benchmark::State", ptr %state, i64 0, i32 2
  %10 = load i64, ptr %max_iterations.i.i, align 8
  invoke void @_ZN9benchmark5State16StartKeepRunningEv(ptr noundef nonnull align 8 dereferenceable(120) %state)
          to label %for.cond32.preheader unwind label %lpad29

for.cond32.preheader:                             ; preds = %invoke.cont27
  %tobool.not.i.i = icmp ne i8 %9, 0
  %cmp.not.i.not138145 = icmp eq i64 %10, 0
  %cmp.not.i.not138 = select i1 %tobool.not.i.i, i1 true, i1 %cmp.not.i.not138145
  br i1 %cmp.not.i.not138, label %if.end.i, label %for.body36, !prof !28

if.end.i:                                         ; preds = %for.cond.cleanup41, %for.cond32.preheader
  invoke void @_ZN9benchmark5State17FinishKeepRunningEv(ptr noundef nonnull align 8 dereferenceable(120) %state)
          to label %for.cond.cleanup35 unwind label %lpad29

for.cond.cleanup35:                               ; preds = %if.end.i
  %started_.i = getelementptr inbounds %"class.benchmark::State", ptr %state, i64 0, i32 3
  %11 = load i8, ptr %started_.i, align 8, !tbaa !29, !range !26, !noundef !27
  %tobool.not.i = icmp eq i8 %11, 0
  br i1 %tobool.not.i, label %_ZNK9benchmark5State10iterationsEv.exit, label %if.end.i87, !prof !28

if.end.i87:                                       ; preds = %for.cond.cleanup35
  %12 = load i64, ptr %max_iterations.i.i, align 8, !tbaa !30
  %13 = load i64, ptr %state, align 8, !tbaa !31
  %sub.i = sub i64 %12, %13
  %batch_leftover_.i = getelementptr inbounds %"class.benchmark::State", ptr %state, i64 0, i32 1
  %14 = load i64, ptr %batch_leftover_.i, align 8, !tbaa !32
  %add.i = add i64 %sub.i, %14
  %15 = shl i64 %add.i, 12
  %16 = sitofp i64 %15 to double
  br label %_ZNK9benchmark5State10iterationsEv.exit

_ZNK9benchmark5State10iterationsEv.exit:          ; preds = %for.cond.cleanup35, %if.end.i87
  %retval.0.i = phi double [ %16, %if.end.i87 ], [ 0.000000e+00, %for.cond.cleanup35 ]
  %counters.i = getelementptr inbounds %"class.benchmark::State", ptr %state, i64 0, i32 8
  call void @llvm.lifetime.start.p0(i64 24, ptr nonnull %ref.tmp2.i) #20
  store i8 32, ptr %ref.tmp2.i, align 8
  %__data_.i.i.i.i = getelementptr inbounds %"struct.std::__1::basic_string<char>::__short", ptr %ref.tmp2.i, i64 0, i32 2
  %cmp.i24.i.i.i = icmp ugt ptr %__data_.i.i.i.i, @.str.341
  %add.ptr.i.i.i.i = getelementptr inbounds %"struct.std::__1::basic_string<char>::__short", ptr %ref.tmp2.i, i64 0, i32 2, i64 16
  %cmp1.i.i.i.i = icmp ule ptr %add.ptr.i.i.i.i, @.str.341
  %17 = or i1 %cmp.i24.i.i.i, %cmp1.i.i.i.i
  call void @llvm.assume(i1 %17)
  call void @llvm.memcpy.p0.p0.i64(ptr noundef nonnull align 1 dereferenceable(16) %__data_.i.i.i.i, ptr noundef nonnull align 1 dereferenceable(16) @.str.341, i64 16, i1 false)
  store i8 0, ptr %add.ptr.i.i.i.i, align 1, !tbaa !5
  call void @llvm.lifetime.start.p0(i64 8, ptr nonnull %__parent.i.i.i) #20
  %call.i.i6.i = invoke noundef nonnull align 8 dereferenceable(8) ptr @_ZNSt3__16__treeINS_12__value_typeINS_12basic_stringIcNS_11char_traitsIcEENS_9allocatorIcEEEEN9benchmark7CounterEEENS_19__map_value_compareIS7_SA_NS_4lessIS7_EELb1EEENS5_ISA_EEE12__find_equalIS7_EERPNS_16__tree_node_baseIPvEERPNS_15__tree_end_nodeISL_EERKT_(ptr noundef nonnull align 8 dereferenceable(24) %counters.i, ptr noundef nonnull align 8 dereferenceable(8) %__parent.i.i.i, ptr noundef nonnull align 8 dereferenceable(24) %ref.tmp2.i)
          to label %call.i.i.noexc.i unwind label %lpad.i

call.i.i.noexc.i:                                 ; preds = %_ZNK9benchmark5State10iterationsEv.exit
  %18 = load ptr, ptr %call.i.i6.i, align 8, !tbaa !8
  %cmp.i.i4.i = icmp eq ptr %18, null
  br i1 %cmp.i.i4.i, label %if.then.i.i5.i, label %invoke.cont.i

if.then.i.i5.i:                                   ; preds = %call.i.i.noexc.i
  %call.i.i.i.i.i.i.i7.i = invoke noalias noundef nonnull dereferenceable(72) ptr @_Znwm(i64 noundef 72) #19
          to label %call.i.i.i.i.i.i.i.noexc.i unwind label %lpad.i

call.i.i.i.i.i.i.i.noexc.i:                       ; preds = %if.then.i.i5.i
  %__value_.i.i.i.i = getelementptr inbounds %"class.std::__1::__tree_node", ptr %call.i.i.i.i.i.i.i7.i, i64 0, i32 1
  call void @llvm.memcpy.p0.p0.i64(ptr noundef nonnull align 8 dereferenceable(24) %__value_.i.i.i.i, ptr noundef nonnull align 8 dereferenceable(24) %ref.tmp2.i, i64 24, i1 false), !noalias !57
  call void @llvm.memset.p0.i64(ptr noundef nonnull align 8 dereferenceable(24) %ref.tmp2.i, i8 0, i64 24, i1 false), !noalias !57
  %second.i.i.i.i.i.i.i.i = getelementptr inbounds %"class.std::__1::__tree_node", ptr %call.i.i.i.i.i.i.i7.i, i64 0, i32 1, i32 0, i32 1
  store double 0.000000e+00, ptr %second.i.i.i.i.i.i.i.i, align 8, !tbaa !36, !noalias !57
  %flags.i.i.i.i.i.i.i.i.i = getelementptr inbounds %"class.std::__1::__tree_node", ptr %call.i.i.i.i.i.i.i7.i, i64 0, i32 1, i32 0, i32 1, i32 1
  store i32 0, ptr %flags.i.i.i.i.i.i.i.i.i, align 8, !tbaa !41, !noalias !57
  %oneK.i.i.i.i.i.i.i.i.i = getelementptr inbounds %"class.std::__1::__tree_node", ptr %call.i.i.i.i.i.i.i7.i, i64 0, i32 1, i32 0, i32 1, i32 2
  store i32 1000, ptr %oneK.i.i.i.i.i.i.i.i.i, align 4, !tbaa !42, !noalias !57
  %19 = load ptr, ptr %__parent.i.i.i, align 8, !tbaa !8
  %__parent_.i.i.i.i = getelementptr inbounds %"class.std::__1::__tree_node_base", ptr %call.i.i.i.i.i.i.i7.i, i64 0, i32 2
  call void @llvm.memset.p0.i64(ptr noundef nonnull align 8 dereferenceable(16) %call.i.i.i.i.i.i.i7.i, i8 0, i64 16, i1 false)
  store ptr %19, ptr %__parent_.i.i.i.i, align 8, !tbaa !43
  store ptr %call.i.i.i.i.i.i.i7.i, ptr %call.i.i6.i, align 8, !tbaa !8
  %20 = load ptr, ptr %counters.i, align 8, !tbaa !8
  %21 = load ptr, ptr %20, align 8, !tbaa !45
  %cmp.not.i.i.i.i = icmp eq ptr %21, null
  br i1 %cmp.not.i.i.i.i, label %_ZNSt3__110unique_ptrINS_11__tree_nodeINS_12__value_typeINS_12basic_stringIcNS_11char_traitsIcEENS_9allocatorIcEEEEN9benchmark7CounterEEEPvEENS_22__tree_node_destructorINS6_ISD_EEEEED2B7v170000Ev.exit.i.i.i, label %if.then.i.i.i.i

if.then.i.i.i.i:                                  ; preds = %call.i.i.i.i.i.i.i.noexc.i
  store ptr %21, ptr %counters.i, align 8, !tbaa !8
  %.pre.i.i.i.i = load ptr, ptr %call.i.i6.i, align 8, !tbaa !8
  br label %_ZNSt3__110unique_ptrINS_11__tree_nodeINS_12__value_typeINS_12basic_stringIcNS_11char_traitsIcEENS_9allocatorIcEEEEN9benchmark7CounterEEEPvEENS_22__tree_node_destructorINS6_ISD_EEEEED2B7v170000Ev.exit.i.i.i

_ZNSt3__110unique_ptrINS_11__tree_nodeINS_12__value_typeINS_12basic_stringIcNS_11char_traitsIcEENS_9allocatorIcEEEEN9benchmark7CounterEEEPvEENS_22__tree_node_destructorINS6_ISD_EEEEED2B7v170000Ev.exit.i.i.i: ; preds = %if.then.i.i.i.i, %call.i.i.i.i.i.i.i.noexc.i
  %22 = phi ptr [ %.pre.i.i.i.i, %if.then.i.i.i.i ], [ %call.i.i.i.i.i.i.i7.i, %call.i.i.i.i.i.i.i.noexc.i ]
  %__pair1_.i.i10.i.i.i = getelementptr inbounds %"class.benchmark::State", ptr %state, i64 0, i32 8, i32 0, i32 1
  %23 = load ptr, ptr %__pair1_.i.i10.i.i.i, align 8, !tbaa !45
  call void @_ZNSt3__127__tree_balance_after_insertB7v170000IPNS_16__tree_node_baseIPvEEEEvT_S5_(ptr noundef %23, ptr noundef %22) #20
  %__pair3_.i.i.i.i.i = getelementptr inbounds %"class.benchmark::State", ptr %state, i64 0, i32 8, i32 0, i32 2
  %24 = load i64, ptr %__pair3_.i.i.i.i.i, align 8, !tbaa !46
  %inc.i.i.i.i = add i64 %24, 1
  store i64 %inc.i.i.i.i, ptr %__pair3_.i.i.i.i.i, align 8, !tbaa !46
  br label %invoke.cont.i

invoke.cont.i:                                    ; preds = %_ZNSt3__110unique_ptrINS_11__tree_nodeINS_12__value_typeINS_12basic_stringIcNS_11char_traitsIcEENS_9allocatorIcEEEEN9benchmark7CounterEEEPvEENS_22__tree_node_destructorINS6_ISD_EEEEED2B7v170000Ev.exit.i.i.i, %call.i.i.noexc.i
  %__r.0.i.i.i = phi ptr [ %call.i.i.i.i.i.i.i7.i, %_ZNSt3__110unique_ptrINS_11__tree_nodeINS_12__value_typeINS_12basic_stringIcNS_11char_traitsIcEENS_9allocatorIcEEEEN9benchmark7CounterEEEPvEENS_22__tree_node_destructorINS6_ISD_EEEEED2B7v170000Ev.exit.i.i.i ], [ %18, %call.i.i.noexc.i ]
  call void @llvm.lifetime.end.p0(i64 8, ptr nonnull %__parent.i.i.i) #20
  %second.i.i = getelementptr inbounds %"class.std::__1::__tree_node", ptr %__r.0.i.i.i, i64 0, i32 1, i32 0, i32 1
  store double %retval.0.i, ptr %second.i.i, align 8, !tbaa.struct !47
  %ref.tmp.sroa.5.0.second.i.sroa_idx.i = getelementptr inbounds %"class.std::__1::__tree_node", ptr %__r.0.i.i.i, i64 0, i32 1, i32 0, i32 1, i32 1
  store i32 1, ptr %ref.tmp.sroa.5.0.second.i.sroa_idx.i, align 8, !tbaa.struct !51
  %ref.tmp.sroa.6.0.second.i.sroa_idx.i = getelementptr inbounds %"class.std::__1::__tree_node", ptr %__r.0.i.i.i, i64 0, i32 1, i32 0, i32 1, i32 2
  store i32 1024, ptr %ref.tmp.sroa.6.0.second.i.sroa_idx.i, align 4, !tbaa.struct !52
  %bf.load.i.i.i = load i8, ptr %ref.tmp2.i, align 8
  %bf.clear.i.i.i = and i8 %bf.load.i.i.i, 1
  %tobool.i.not.i.i = icmp eq i8 %bf.clear.i.i.i, 0
  br i1 %tobool.i.not.i.i, label %_ZNSt3__16vectorIcNS_9allocatorIcEEED2B7v170000Ev.exit119, label %if.then.i.i

if.then.i.i:                                      ; preds = %invoke.cont.i
  %__data_.i.i.i = getelementptr inbounds %"struct.std::__1::basic_string<char>::__long", ptr %ref.tmp2.i, i64 0, i32 2
  %25 = load ptr, ptr %__data_.i.i.i, align 8, !tbaa !5
  call void @_ZdlPv(ptr noundef %25) #23
  br label %_ZNSt3__16vectorIcNS_9allocatorIcEEED2B7v170000Ev.exit119

lpad.i:                                           ; preds = %if.then.i.i5.i, %_ZNK9benchmark5State10iterationsEv.exit
  %26 = landingpad { ptr, i32 }
          cleanup
  %bf.load.i.i8.i = load i8, ptr %ref.tmp2.i, align 8
  %bf.clear.i.i9.i = and i8 %bf.load.i.i8.i, 1
  %tobool.i.not.i10.i = icmp eq i8 %bf.clear.i.i9.i, 0
  br i1 %tobool.i.not.i10.i, label %_ZNSt3__112basic_stringIcNS_11char_traitsIcEENS_9allocatorIcEEED2Ev.exit13.i, label %if.then.i12.i

if.then.i12.i:                                    ; preds = %lpad.i
  %__data_.i.i11.i = getelementptr inbounds %"struct.std::__1::basic_string<char>::__long", ptr %ref.tmp2.i, i64 0, i32 2
  %27 = load ptr, ptr %__data_.i.i11.i, align 8, !tbaa !5
  call void @_ZdlPv(ptr noundef %27) #23
  br label %_ZNSt3__112basic_stringIcNS_11char_traitsIcEENS_9allocatorIcEEED2Ev.exit13.i

_ZNSt3__112basic_stringIcNS_11char_traitsIcEENS_9allocatorIcEEED2Ev.exit13.i: ; preds = %if.then.i12.i, %lpad.i
  call void @llvm.lifetime.end.p0(i64 24, ptr nonnull %ref.tmp2.i) #20
  br label %_ZNSt3__16vectorIcNS_9allocatorIcEEED2B7v170000Ev.exit123

lpad29:                                           ; preds = %if.end.i, %invoke.cont27
  %28 = landingpad { ptr, i32 }
          cleanup
  br label %_ZNSt3__16vectorIcNS_9allocatorIcEEED2B7v170000Ev.exit123

for.body36:                                       ; preds = %for.cond32.preheader, %for.cond.cleanup41
  %__begin1.sroa.0.0139 = phi i64 [ %dec.i, %for.cond.cleanup41 ], [ %10, %for.cond32.preheader ]
  fence syncscope("singlethread") acq_rel
  br label %for.body42

for.cond.cleanup41:                               ; preds = %for.body42
  %dec.i = add i64 %__begin1.sroa.0.0139, -1
  %cmp.not.i.not = icmp eq i64 %dec.i, 0
  br i1 %cmp.not.i.not, label %if.end.i, label %for.body36, !prof !28

for.body42:                                       ; preds = %for.body36, %for.body42
  %indvars.iv141 = phi i64 [ 0, %for.body36 ], [ %indvars.iv.next142, %for.body42 ]
  call void @llvm.lifetime.start.p0(i64 1, ptr nonnull %res) #20
  %29 = load ptr, ptr %p, align 8, !tbaa !8
  %add.ptr45 = getelementptr inbounds i8, ptr %29, i64 %indvars.iv141
  %30 = load ptr, ptr %q, align 8, !tbaa !8
  %add.ptr48 = getelementptr inbounds i8, ptr %30, i64 %indvars.iv141
  %lhsc82 = load i8, ptr %add.ptr45, align 1
  %rhsc84 = load i8, ptr %add.ptr48, align 1
  %cmp.i114 = icmp eq i8 %lhsc82, %rhsc84
  %frombool = zext i1 %cmp.i114 to i8
  store i8 %frombool, ptr %res, align 1, !tbaa !53
  call void asm sideeffect "", "=*r|m,0,~{memory},~{dirflag},~{fpsr},~{flags}"(ptr nonnull elementtype(i8) %res, i1 %cmp.i114) #20, !srcloc !10
  call void @llvm.lifetime.end.p0(i64 1, ptr nonnull %res) #20
  %indvars.iv.next142 = add nuw nsw i64 %indvars.iv141, 1
  %exitcond144.not = icmp eq i64 %indvars.iv.next142, 4096
  br i1 %exitcond144.not, label %for.cond.cleanup41, label %for.body42, !llvm.loop !60

_ZNSt3__16vectorIcNS_9allocatorIcEEED2B7v170000Ev.exit119: ; preds = %if.then.i.i, %invoke.cont.i
  call void @llvm.lifetime.end.p0(i64 24, ptr nonnull %ref.tmp2.i) #20
  call void @llvm.lifetime.end.p0(i64 8, ptr nonnull %q) #20
  call void @llvm.lifetime.end.p0(i64 8, ptr nonnull %p) #20
  call void @_ZdlPv(ptr noundef nonnull %call.i.i.i.i.i8.i90) #23
  call void @_ZdlPv(ptr noundef nonnull %call.i.i.i.i.i8.i) #23
  ret void

_ZNSt3__16vectorIcNS_9allocatorIcEEED2B7v170000Ev.exit123: ; preds = %lpad29, %lpad11, %_ZNSt3__112basic_stringIcNS_11char_traitsIcEENS_9allocatorIcEEED2Ev.exit13.i
  %.pn79 = phi { ptr, i32 } [ %8, %lpad11 ], [ %26, %_ZNSt3__112basic_stringIcNS_11char_traitsIcEENS_9allocatorIcEEED2Ev.exit13.i ], [ %28, %lpad29 ]
  call void @llvm.lifetime.end.p0(i64 8, ptr nonnull %q) #20
  call void @llvm.lifetime.end.p0(i64 8, ptr nonnull %p) #20
  call void @_ZdlPv(ptr noundef nonnull %call.i.i.i.i.i8.i90) #23
  br label %_ZNSt3__16vectorIcNS_9allocatorIcEEED2B7v170000Ev.exit127

_ZNSt3__16vectorIcNS_9allocatorIcEEED2B7v170000Ev.exit127: ; preds = %_ZNSt3__128__exception_guard_exceptionsINS_6vectorIcNS_9allocatorIcEEE16__destroy_vectorEED2B7v170000Ev.exit.i95, %_ZNSt3__16vectorIcNS_9allocatorIcEEED2B7v170000Ev.exit123
  %.pn79.pn = phi { ptr, i32 } [ %.pn79, %_ZNSt3__16vectorIcNS_9allocatorIcEEED2B7v170000Ev.exit123 ], [ %0, %_ZNSt3__128__exception_guard_exceptionsINS_6vectorIcNS_9allocatorIcEEE16__destroy_vectorEED2B7v170000Ev.exit.i95 ]
  call void @_ZdlPv(ptr noundef nonnull %call.i.i.i.i.i8.i) #23
  resume { ptr, i32 } %.pn79.pn
}

; Function Attrs: uwtable
define linkonce_odr dso_local void @_Z9BM_MemCmpILi1E6EqZero3MidEvRN9benchmark5StateE(ptr noundef nonnull align 8 dereferenceable(120) %state) #4 comdat personality ptr @__gxx_personality_v0 {
entry:
  %__parent.i.i.i = alloca ptr, align 8
  %ref.tmp2.i = alloca %"class.std::__1::basic_string", align 8
  %p = alloca ptr, align 8
  %q = alloca ptr, align 8
  %res = alloca i8, align 1
  %call.i.i.i.i.i8.i = tail call noalias noundef nonnull dereferenceable(4096) ptr @_Znwm(i64 noundef 4096) #19
  tail call void @llvm.memset.p0.i64(ptr noundef nonnull align 1 dereferenceable(4096) %call.i.i.i.i.i8.i, i8 0, i64 4096, i1 false), !tbaa !5
  %call.i.i.i.i.i8.i90 = invoke noalias noundef nonnull dereferenceable(4096) ptr @_Znwm(i64 noundef 4096) #19
          to label %invoke.cont unwind label %_ZNSt3__128__exception_guard_exceptionsINS_6vectorIcNS_9allocatorIcEEE16__destroy_vectorEED2B7v170000Ev.exit.i95

_ZNSt3__128__exception_guard_exceptionsINS_6vectorIcNS_9allocatorIcEEE16__destroy_vectorEED2B7v170000Ev.exit.i95: ; preds = %entry
  %0 = landingpad { ptr, i32 }
          cleanup
  br label %_ZNSt3__16vectorIcNS_9allocatorIcEEED2B7v170000Ev.exit127

invoke.cont:                                      ; preds = %entry
  tail call void @llvm.memset.p0.i64(ptr noundef nonnull align 1 dereferenceable(4096) %call.i.i.i.i.i8.i90, i8 0, i64 4096, i1 false), !tbaa !5
  call void @llvm.lifetime.start.p0(i64 8, ptr nonnull %p) #20
  store ptr %call.i.i.i.i.i8.i, ptr %p, align 8, !tbaa !8
  call void @llvm.lifetime.start.p0(i64 8, ptr nonnull %q) #20
  store ptr %call.i.i.i.i.i8.i90, ptr %q, align 8, !tbaa !8
  br label %for.body

for.cond.cleanup:                                 ; preds = %for.body
  %1 = load ptr, ptr %p, align 8, !tbaa !8
  %2 = load ptr, ptr %q, align 8, !tbaa !8
  %call4 = tail call noundef i32 @_Z10RealMemCmpPKcS0_m(ptr noundef %1, ptr noundef %2, i64 noundef 1) #21
  %cmp.i = icmp eq i32 %call4, 0
  %lhsc = load i8, ptr %1, align 1
  %rhsc = load i8, ptr %2, align 1
  %cmp.i98 = icmp eq i8 %lhsc, %rhsc
  %3 = xor i1 %cmp.i, %cmp.i98
  br i1 %3, label %if.then, label %invoke.cont27

for.body:                                         ; preds = %for.body, %invoke.cont
  %indvars.iv = phi i64 [ 0, %invoke.cont ], [ %indvars.iv.next.3, %for.body ]
  %4 = load ptr, ptr %p, align 8, !tbaa !8
  %add.ptr = getelementptr inbounds i8, ptr %4, i64 %indvars.iv
  store i8 -1, ptr %add.ptr, align 1, !tbaa !5
  %indvars.iv.next = or i64 %indvars.iv, 1
  %5 = load ptr, ptr %p, align 8, !tbaa !8
  %add.ptr.1 = getelementptr inbounds i8, ptr %5, i64 %indvars.iv.next
  store i8 -1, ptr %add.ptr.1, align 1, !tbaa !5
  %indvars.iv.next.1 = or i64 %indvars.iv, 2
  %6 = load ptr, ptr %p, align 8, !tbaa !8
  %add.ptr.2 = getelementptr inbounds i8, ptr %6, i64 %indvars.iv.next.1
  store i8 -1, ptr %add.ptr.2, align 1, !tbaa !5
  %indvars.iv.next.2 = or i64 %indvars.iv, 3
  %7 = load ptr, ptr %p, align 8, !tbaa !8
  %add.ptr.3 = getelementptr inbounds i8, ptr %7, i64 %indvars.iv.next.2
  store i8 -1, ptr %add.ptr.3, align 1, !tbaa !5
  %indvars.iv.next.3 = add nuw nsw i64 %indvars.iv, 4
  %exitcond.not.3 = icmp eq i64 %indvars.iv.next.3, 4096
  br i1 %exitcond.not.3, label %for.cond.cleanup, label %for.body, !llvm.loop !61

if.then:                                          ; preds = %for.cond.cleanup
  %call1.i99 = invoke noundef nonnull align 8 dereferenceable(8) ptr @_ZNSt3__124__put_character_sequenceB7v170000IcNS_11char_traitsIcEEEERNS_13basic_ostreamIT_T0_EES7_PKS4_m(ptr noundef nonnull align 8 dereferenceable(8) @_ZNSt3__14cerrE, ptr noundef nonnull @.str.336, i64 noundef 25)
          to label %invoke.cont12 unwind label %lpad11

invoke.cont12:                                    ; preds = %if.then
  %call1.i101 = invoke noundef nonnull align 8 dereferenceable(8) ptr @_ZNSt3__124__put_character_sequenceB7v170000IcNS_11char_traitsIcEEEERNS_13basic_ostreamIT_T0_EES7_PKS4_m(ptr noundef nonnull align 8 dereferenceable(8) %call1.i99, ptr noundef nonnull @_ZN6EqZero8kDisplayE, i64 noundef 6)
          to label %invoke.cont14 unwind label %lpad11

invoke.cont14:                                    ; preds = %invoke.cont12
  %call1.i104 = invoke noundef nonnull align 8 dereferenceable(8) ptr @_ZNSt3__124__put_character_sequenceB7v170000IcNS_11char_traitsIcEEEERNS_13basic_ostreamIT_T0_EES7_PKS4_m(ptr noundef nonnull align 8 dereferenceable(8) %call1.i101, ptr noundef nonnull @.str.337, i64 noundef 5)
          to label %invoke.cont16 unwind label %lpad11

invoke.cont16:                                    ; preds = %invoke.cont14
  %call1.i107 = invoke noundef nonnull align 8 dereferenceable(8) ptr @_ZNSt3__124__put_character_sequenceB7v170000IcNS_11char_traitsIcEEEERNS_13basic_ostreamIT_T0_EES7_PKS4_m(ptr noundef nonnull align 8 dereferenceable(8) %call1.i104, ptr noundef nonnull @_ZN3Mid8kDisplayE, i64 noundef 3)
          to label %invoke.cont18 unwind label %lpad11

invoke.cont18:                                    ; preds = %invoke.cont16
  %call1.i110 = invoke noundef nonnull align 8 dereferenceable(8) ptr @_ZNSt3__124__put_character_sequenceB7v170000IcNS_11char_traitsIcEEEERNS_13basic_ostreamIT_T0_EES7_PKS4_m(ptr noundef nonnull align 8 dereferenceable(8) %call1.i107, ptr noundef nonnull @.str.338, i64 noundef 7)
          to label %invoke.cont20 unwind label %lpad11

invoke.cont20:                                    ; preds = %invoke.cont18
  %call23 = invoke noundef nonnull align 8 dereferenceable(8) ptr @_ZNSt3__113basic_ostreamIcNS_11char_traitsIcEEElsEi(ptr noundef nonnull align 8 dereferenceable(8) %call1.i110, i32 noundef 1)
          to label %invoke.cont22 unwind label %lpad11

invoke.cont22:                                    ; preds = %invoke.cont20
  %call.i112 = invoke noundef nonnull align 8 dereferenceable(8) ptr @_ZNSt3__14endlB7v170000IcNS_11char_traitsIcEEEERNS_13basic_ostreamIT_T0_EES7_(ptr noundef nonnull align 8 dereferenceable(8) %call23)
          to label %invoke.cont24 unwind label %lpad11

invoke.cont24:                                    ; preds = %invoke.cont22
  tail call void @exit(i32 noundef 1) #22
  unreachable

lpad11:                                           ; preds = %invoke.cont22, %invoke.cont18, %invoke.cont16, %invoke.cont14, %invoke.cont12, %if.then, %invoke.cont20
  %8 = landingpad { ptr, i32 }
          cleanup
  br label %_ZNSt3__16vectorIcNS_9allocatorIcEEED2B7v170000Ev.exit123

invoke.cont27:                                    ; preds = %for.cond.cleanup
  call void asm sideeffect "", "=*r|m,0,~{memory},~{dirflag},~{fpsr},~{flags}"(ptr nonnull elementtype(ptr) %p, ptr nonnull %1) #20, !srcloc !10
  call void asm sideeffect "", "=*r|m,0,~{memory},~{dirflag},~{fpsr},~{flags}"(ptr nonnull elementtype(ptr) %q, ptr nonnull %2) #20, !srcloc !10
  %error_occurred_.i.i = getelementptr inbounds %"class.benchmark::State", ptr %state, i64 0, i32 5
  %9 = load i8, ptr %error_occurred_.i.i, align 2, !tbaa !11, !range !26, !noundef !27
  %max_iterations.i.i = getelementptr inbounds %"class.benchmark::State", ptr %state, i64 0, i32 2
  %10 = load i64, ptr %max_iterations.i.i, align 8
  invoke void @_ZN9benchmark5State16StartKeepRunningEv(ptr noundef nonnull align 8 dereferenceable(120) %state)
          to label %for.cond32.preheader unwind label %lpad29

for.cond32.preheader:                             ; preds = %invoke.cont27
  %tobool.not.i.i = icmp ne i8 %9, 0
  %cmp.not.i.not138145 = icmp eq i64 %10, 0
  %cmp.not.i.not138 = select i1 %tobool.not.i.i, i1 true, i1 %cmp.not.i.not138145
  br i1 %cmp.not.i.not138, label %if.end.i, label %for.body36, !prof !28

if.end.i:                                         ; preds = %for.cond.cleanup41, %for.cond32.preheader
  invoke void @_ZN9benchmark5State17FinishKeepRunningEv(ptr noundef nonnull align 8 dereferenceable(120) %state)
          to label %for.cond.cleanup35 unwind label %lpad29

for.cond.cleanup35:                               ; preds = %if.end.i
  %started_.i = getelementptr inbounds %"class.benchmark::State", ptr %state, i64 0, i32 3
  %11 = load i8, ptr %started_.i, align 8, !tbaa !29, !range !26, !noundef !27
  %tobool.not.i = icmp eq i8 %11, 0
  br i1 %tobool.not.i, label %_ZNK9benchmark5State10iterationsEv.exit, label %if.end.i87, !prof !28

if.end.i87:                                       ; preds = %for.cond.cleanup35
  %12 = load i64, ptr %max_iterations.i.i, align 8, !tbaa !30
  %13 = load i64, ptr %state, align 8, !tbaa !31
  %sub.i = sub i64 %12, %13
  %batch_leftover_.i = getelementptr inbounds %"class.benchmark::State", ptr %state, i64 0, i32 1
  %14 = load i64, ptr %batch_leftover_.i, align 8, !tbaa !32
  %add.i = add i64 %sub.i, %14
  %15 = shl i64 %add.i, 12
  %16 = sitofp i64 %15 to double
  br label %_ZNK9benchmark5State10iterationsEv.exit

_ZNK9benchmark5State10iterationsEv.exit:          ; preds = %for.cond.cleanup35, %if.end.i87
  %retval.0.i = phi double [ %16, %if.end.i87 ], [ 0.000000e+00, %for.cond.cleanup35 ]
  %counters.i = getelementptr inbounds %"class.benchmark::State", ptr %state, i64 0, i32 8
  call void @llvm.lifetime.start.p0(i64 24, ptr nonnull %ref.tmp2.i) #20
  store i8 32, ptr %ref.tmp2.i, align 8
  %__data_.i.i.i.i = getelementptr inbounds %"struct.std::__1::basic_string<char>::__short", ptr %ref.tmp2.i, i64 0, i32 2
  %cmp.i24.i.i.i = icmp ugt ptr %__data_.i.i.i.i, @.str.341
  %add.ptr.i.i.i.i = getelementptr inbounds %"struct.std::__1::basic_string<char>::__short", ptr %ref.tmp2.i, i64 0, i32 2, i64 16
  %cmp1.i.i.i.i = icmp ule ptr %add.ptr.i.i.i.i, @.str.341
  %17 = or i1 %cmp.i24.i.i.i, %cmp1.i.i.i.i
  call void @llvm.assume(i1 %17)
  call void @llvm.memcpy.p0.p0.i64(ptr noundef nonnull align 1 dereferenceable(16) %__data_.i.i.i.i, ptr noundef nonnull align 1 dereferenceable(16) @.str.341, i64 16, i1 false)
  store i8 0, ptr %add.ptr.i.i.i.i, align 1, !tbaa !5
  call void @llvm.lifetime.start.p0(i64 8, ptr nonnull %__parent.i.i.i) #20
  %call.i.i6.i = invoke noundef nonnull align 8 dereferenceable(8) ptr @_ZNSt3__16__treeINS_12__value_typeINS_12basic_stringIcNS_11char_traitsIcEENS_9allocatorIcEEEEN9benchmark7CounterEEENS_19__map_value_compareIS7_SA_NS_4lessIS7_EELb1EEENS5_ISA_EEE12__find_equalIS7_EERPNS_16__tree_node_baseIPvEERPNS_15__tree_end_nodeISL_EERKT_(ptr noundef nonnull align 8 dereferenceable(24) %counters.i, ptr noundef nonnull align 8 dereferenceable(8) %__parent.i.i.i, ptr noundef nonnull align 8 dereferenceable(24) %ref.tmp2.i)
          to label %call.i.i.noexc.i unwind label %lpad.i

call.i.i.noexc.i:                                 ; preds = %_ZNK9benchmark5State10iterationsEv.exit
  %18 = load ptr, ptr %call.i.i6.i, align 8, !tbaa !8
  %cmp.i.i4.i = icmp eq ptr %18, null
  br i1 %cmp.i.i4.i, label %if.then.i.i5.i, label %invoke.cont.i

if.then.i.i5.i:                                   ; preds = %call.i.i.noexc.i
  %call.i.i.i.i.i.i.i7.i = invoke noalias noundef nonnull dereferenceable(72) ptr @_Znwm(i64 noundef 72) #19
          to label %call.i.i.i.i.i.i.i.noexc.i unwind label %lpad.i

call.i.i.i.i.i.i.i.noexc.i:                       ; preds = %if.then.i.i5.i
  %__value_.i.i.i.i = getelementptr inbounds %"class.std::__1::__tree_node", ptr %call.i.i.i.i.i.i.i7.i, i64 0, i32 1
  call void @llvm.memcpy.p0.p0.i64(ptr noundef nonnull align 8 dereferenceable(24) %__value_.i.i.i.i, ptr noundef nonnull align 8 dereferenceable(24) %ref.tmp2.i, i64 24, i1 false), !noalias !62
  call void @llvm.memset.p0.i64(ptr noundef nonnull align 8 dereferenceable(24) %ref.tmp2.i, i8 0, i64 24, i1 false), !noalias !62
  %second.i.i.i.i.i.i.i.i = getelementptr inbounds %"class.std::__1::__tree_node", ptr %call.i.i.i.i.i.i.i7.i, i64 0, i32 1, i32 0, i32 1
  store double 0.000000e+00, ptr %second.i.i.i.i.i.i.i.i, align 8, !tbaa !36, !noalias !62
  %flags.i.i.i.i.i.i.i.i.i = getelementptr inbounds %"class.std::__1::__tree_node", ptr %call.i.i.i.i.i.i.i7.i, i64 0, i32 1, i32 0, i32 1, i32 1
  store i32 0, ptr %flags.i.i.i.i.i.i.i.i.i, align 8, !tbaa !41, !noalias !62
  %oneK.i.i.i.i.i.i.i.i.i = getelementptr inbounds %"class.std::__1::__tree_node", ptr %call.i.i.i.i.i.i.i7.i, i64 0, i32 1, i32 0, i32 1, i32 2
  store i32 1000, ptr %oneK.i.i.i.i.i.i.i.i.i, align 4, !tbaa !42, !noalias !62
  %19 = load ptr, ptr %__parent.i.i.i, align 8, !tbaa !8
  %__parent_.i.i.i.i = getelementptr inbounds %"class.std::__1::__tree_node_base", ptr %call.i.i.i.i.i.i.i7.i, i64 0, i32 2
  call void @llvm.memset.p0.i64(ptr noundef nonnull align 8 dereferenceable(16) %call.i.i.i.i.i.i.i7.i, i8 0, i64 16, i1 false)
  store ptr %19, ptr %__parent_.i.i.i.i, align 8, !tbaa !43
  store ptr %call.i.i.i.i.i.i.i7.i, ptr %call.i.i6.i, align 8, !tbaa !8
  %20 = load ptr, ptr %counters.i, align 8, !tbaa !8
  %21 = load ptr, ptr %20, align 8, !tbaa !45
  %cmp.not.i.i.i.i = icmp eq ptr %21, null
  br i1 %cmp.not.i.i.i.i, label %_ZNSt3__110unique_ptrINS_11__tree_nodeINS_12__value_typeINS_12basic_stringIcNS_11char_traitsIcEENS_9allocatorIcEEEEN9benchmark7CounterEEEPvEENS_22__tree_node_destructorINS6_ISD_EEEEED2B7v170000Ev.exit.i.i.i, label %if.then.i.i.i.i

if.then.i.i.i.i:                                  ; preds = %call.i.i.i.i.i.i.i.noexc.i
  store ptr %21, ptr %counters.i, align 8, !tbaa !8
  %.pre.i.i.i.i = load ptr, ptr %call.i.i6.i, align 8, !tbaa !8
  br label %_ZNSt3__110unique_ptrINS_11__tree_nodeINS_12__value_typeINS_12basic_stringIcNS_11char_traitsIcEENS_9allocatorIcEEEEN9benchmark7CounterEEEPvEENS_22__tree_node_destructorINS6_ISD_EEEEED2B7v170000Ev.exit.i.i.i

_ZNSt3__110unique_ptrINS_11__tree_nodeINS_12__value_typeINS_12basic_stringIcNS_11char_traitsIcEENS_9allocatorIcEEEEN9benchmark7CounterEEEPvEENS_22__tree_node_destructorINS6_ISD_EEEEED2B7v170000Ev.exit.i.i.i: ; preds = %if.then.i.i.i.i, %call.i.i.i.i.i.i.i.noexc.i
  %22 = phi ptr [ %.pre.i.i.i.i, %if.then.i.i.i.i ], [ %call.i.i.i.i.i.i.i7.i, %call.i.i.i.i.i.i.i.noexc.i ]
  %__pair1_.i.i10.i.i.i = getelementptr inbounds %"class.benchmark::State", ptr %state, i64 0, i32 8, i32 0, i32 1
  %23 = load ptr, ptr %__pair1_.i.i10.i.i.i, align 8, !tbaa !45
  call void @_ZNSt3__127__tree_balance_after_insertB7v170000IPNS_16__tree_node_baseIPvEEEEvT_S5_(ptr noundef %23, ptr noundef %22) #20
  %__pair3_.i.i.i.i.i = getelementptr inbounds %"class.benchmark::State", ptr %state, i64 0, i32 8, i32 0, i32 2
  %24 = load i64, ptr %__pair3_.i.i.i.i.i, align 8, !tbaa !46
  %inc.i.i.i.i = add i64 %24, 1
  store i64 %inc.i.i.i.i, ptr %__pair3_.i.i.i.i.i, align 8, !tbaa !46
  br label %invoke.cont.i

invoke.cont.i:                                    ; preds = %_ZNSt3__110unique_ptrINS_11__tree_nodeINS_12__value_typeINS_12basic_stringIcNS_11char_traitsIcEENS_9allocatorIcEEEEN9benchmark7CounterEEEPvEENS_22__tree_node_destructorINS6_ISD_EEEEED2B7v170000Ev.exit.i.i.i, %call.i.i.noexc.i
  %__r.0.i.i.i = phi ptr [ %call.i.i.i.i.i.i.i7.i, %_ZNSt3__110unique_ptrINS_11__tree_nodeINS_12__value_typeINS_12basic_stringIcNS_11char_traitsIcEENS_9allocatorIcEEEEN9benchmark7CounterEEEPvEENS_22__tree_node_destructorINS6_ISD_EEEEED2B7v170000Ev.exit.i.i.i ], [ %18, %call.i.i.noexc.i ]
  call void @llvm.lifetime.end.p0(i64 8, ptr nonnull %__parent.i.i.i) #20
  %second.i.i = getelementptr inbounds %"class.std::__1::__tree_node", ptr %__r.0.i.i.i, i64 0, i32 1, i32 0, i32 1
  store double %retval.0.i, ptr %second.i.i, align 8, !tbaa.struct !47
  %ref.tmp.sroa.5.0.second.i.sroa_idx.i = getelementptr inbounds %"class.std::__1::__tree_node", ptr %__r.0.i.i.i, i64 0, i32 1, i32 0, i32 1, i32 1
  store i32 1, ptr %ref.tmp.sroa.5.0.second.i.sroa_idx.i, align 8, !tbaa.struct !51
  %ref.tmp.sroa.6.0.second.i.sroa_idx.i = getelementptr inbounds %"class.std::__1::__tree_node", ptr %__r.0.i.i.i, i64 0, i32 1, i32 0, i32 1, i32 2
  store i32 1024, ptr %ref.tmp.sroa.6.0.second.i.sroa_idx.i, align 4, !tbaa.struct !52
  %bf.load.i.i.i = load i8, ptr %ref.tmp2.i, align 8
  %bf.clear.i.i.i = and i8 %bf.load.i.i.i, 1
  %tobool.i.not.i.i = icmp eq i8 %bf.clear.i.i.i, 0
  br i1 %tobool.i.not.i.i, label %_ZNSt3__16vectorIcNS_9allocatorIcEEED2B7v170000Ev.exit119, label %if.then.i.i

if.then.i.i:                                      ; preds = %invoke.cont.i
  %__data_.i.i.i = getelementptr inbounds %"struct.std::__1::basic_string<char>::__long", ptr %ref.tmp2.i, i64 0, i32 2
  %25 = load ptr, ptr %__data_.i.i.i, align 8, !tbaa !5
  call void @_ZdlPv(ptr noundef %25) #23
  br label %_ZNSt3__16vectorIcNS_9allocatorIcEEED2B7v170000Ev.exit119

lpad.i:                                           ; preds = %if.then.i.i5.i, %_ZNK9benchmark5State10iterationsEv.exit
  %26 = landingpad { ptr, i32 }
          cleanup
  %bf.load.i.i8.i = load i8, ptr %ref.tmp2.i, align 8
  %bf.clear.i.i9.i = and i8 %bf.load.i.i8.i, 1
  %tobool.i.not.i10.i = icmp eq i8 %bf.clear.i.i9.i, 0
  br i1 %tobool.i.not.i10.i, label %_ZNSt3__112basic_stringIcNS_11char_traitsIcEENS_9allocatorIcEEED2Ev.exit13.i, label %if.then.i12.i

if.then.i12.i:                                    ; preds = %lpad.i
  %__data_.i.i11.i = getelementptr inbounds %"struct.std::__1::basic_string<char>::__long", ptr %ref.tmp2.i, i64 0, i32 2
  %27 = load ptr, ptr %__data_.i.i11.i, align 8, !tbaa !5
  call void @_ZdlPv(ptr noundef %27) #23
  br label %_ZNSt3__112basic_stringIcNS_11char_traitsIcEENS_9allocatorIcEEED2Ev.exit13.i

_ZNSt3__112basic_stringIcNS_11char_traitsIcEENS_9allocatorIcEEED2Ev.exit13.i: ; preds = %if.then.i12.i, %lpad.i
  call void @llvm.lifetime.end.p0(i64 24, ptr nonnull %ref.tmp2.i) #20
  br label %_ZNSt3__16vectorIcNS_9allocatorIcEEED2B7v170000Ev.exit123

lpad29:                                           ; preds = %if.end.i, %invoke.cont27
  %28 = landingpad { ptr, i32 }
          cleanup
  br label %_ZNSt3__16vectorIcNS_9allocatorIcEEED2B7v170000Ev.exit123

for.body36:                                       ; preds = %for.cond32.preheader, %for.cond.cleanup41
  %__begin1.sroa.0.0139 = phi i64 [ %dec.i, %for.cond.cleanup41 ], [ %10, %for.cond32.preheader ]
  fence syncscope("singlethread") acq_rel
  br label %for.body42

for.cond.cleanup41:                               ; preds = %for.body42
  %dec.i = add i64 %__begin1.sroa.0.0139, -1
  %cmp.not.i.not = icmp eq i64 %dec.i, 0
  br i1 %cmp.not.i.not, label %if.end.i, label %for.body36, !prof !28

for.body42:                                       ; preds = %for.body36, %for.body42
  %indvars.iv141 = phi i64 [ 0, %for.body36 ], [ %indvars.iv.next142, %for.body42 ]
  call void @llvm.lifetime.start.p0(i64 1, ptr nonnull %res) #20
  %29 = load ptr, ptr %p, align 8, !tbaa !8
  %add.ptr45 = getelementptr inbounds i8, ptr %29, i64 %indvars.iv141
  %30 = load ptr, ptr %q, align 8, !tbaa !8
  %add.ptr48 = getelementptr inbounds i8, ptr %30, i64 %indvars.iv141
  %lhsc82 = load i8, ptr %add.ptr45, align 1
  %rhsc84 = load i8, ptr %add.ptr48, align 1
  %cmp.i114 = icmp eq i8 %lhsc82, %rhsc84
  %frombool = zext i1 %cmp.i114 to i8
  store i8 %frombool, ptr %res, align 1, !tbaa !53
  call void asm sideeffect "", "=*r|m,0,~{memory},~{dirflag},~{fpsr},~{flags}"(ptr nonnull elementtype(i8) %res, i1 %cmp.i114) #20, !srcloc !10
  call void @llvm.lifetime.end.p0(i64 1, ptr nonnull %res) #20
  %indvars.iv.next142 = add nuw nsw i64 %indvars.iv141, 1
  %exitcond144.not = icmp eq i64 %indvars.iv.next142, 4096
  br i1 %exitcond144.not, label %for.cond.cleanup41, label %for.body42, !llvm.loop !65

_ZNSt3__16vectorIcNS_9allocatorIcEEED2B7v170000Ev.exit119: ; preds = %if.then.i.i, %invoke.cont.i
  call void @llvm.lifetime.end.p0(i64 24, ptr nonnull %ref.tmp2.i) #20
  call void @llvm.lifetime.end.p0(i64 8, ptr nonnull %q) #20
  call void @llvm.lifetime.end.p0(i64 8, ptr nonnull %p) #20
  call void @_ZdlPv(ptr noundef nonnull %call.i.i.i.i.i8.i90) #23
  call void @_ZdlPv(ptr noundef nonnull %call.i.i.i.i.i8.i) #23
  ret void

_ZNSt3__16vectorIcNS_9allocatorIcEEED2B7v170000Ev.exit123: ; preds = %lpad29, %lpad11, %_ZNSt3__112basic_stringIcNS_11char_traitsIcEENS_9allocatorIcEEED2Ev.exit13.i
  %.pn79 = phi { ptr, i32 } [ %8, %lpad11 ], [ %26, %_ZNSt3__112basic_stringIcNS_11char_traitsIcEENS_9allocatorIcEEED2Ev.exit13.i ], [ %28, %lpad29 ]
  call void @llvm.lifetime.end.p0(i64 8, ptr nonnull %q) #20
  call void @llvm.lifetime.end.p0(i64 8, ptr nonnull %p) #20
  call void @_ZdlPv(ptr noundef nonnull %call.i.i.i.i.i8.i90) #23
  br label %_ZNSt3__16vectorIcNS_9allocatorIcEEED2B7v170000Ev.exit127

_ZNSt3__16vectorIcNS_9allocatorIcEEED2B7v170000Ev.exit127: ; preds = %_ZNSt3__128__exception_guard_exceptionsINS_6vectorIcNS_9allocatorIcEEE16__destroy_vectorEED2B7v170000Ev.exit.i95, %_ZNSt3__16vectorIcNS_9allocatorIcEEED2B7v170000Ev.exit123
  %.pn79.pn = phi { ptr, i32 } [ %.pn79, %_ZNSt3__16vectorIcNS_9allocatorIcEEED2B7v170000Ev.exit123 ], [ %0, %_ZNSt3__128__exception_guard_exceptionsINS_6vectorIcNS_9allocatorIcEEE16__destroy_vectorEED2B7v170000Ev.exit.i95 ]
  call void @_ZdlPv(ptr noundef nonnull %call.i.i.i.i.i8.i) #23
  resume { ptr, i32 } %.pn79.pn
}

; Function Attrs: uwtable
define linkonce_odr dso_local void @_Z9BM_MemCmpILi1E6EqZero4LastEvRN9benchmark5StateE(ptr noundef nonnull align 8 dereferenceable(120) %state) #4 comdat personality ptr @__gxx_personality_v0 {
entry:
  %__parent.i.i.i = alloca ptr, align 8
  %ref.tmp2.i = alloca %"class.std::__1::basic_string", align 8
  %p = alloca ptr, align 8
  %q = alloca ptr, align 8
  %res = alloca i8, align 1
  %call.i.i.i.i.i8.i = tail call noalias noundef nonnull dereferenceable(4096) ptr @_Znwm(i64 noundef 4096) #19
  tail call void @llvm.memset.p0.i64(ptr noundef nonnull align 1 dereferenceable(4096) %call.i.i.i.i.i8.i, i8 0, i64 4096, i1 false), !tbaa !5
  %call.i.i.i.i.i8.i90 = invoke noalias noundef nonnull dereferenceable(4096) ptr @_Znwm(i64 noundef 4096) #19
          to label %invoke.cont unwind label %_ZNSt3__128__exception_guard_exceptionsINS_6vectorIcNS_9allocatorIcEEE16__destroy_vectorEED2B7v170000Ev.exit.i95

_ZNSt3__128__exception_guard_exceptionsINS_6vectorIcNS_9allocatorIcEEE16__destroy_vectorEED2B7v170000Ev.exit.i95: ; preds = %entry
  %0 = landingpad { ptr, i32 }
          cleanup
  br label %_ZNSt3__16vectorIcNS_9allocatorIcEEED2B7v170000Ev.exit127

invoke.cont:                                      ; preds = %entry
  tail call void @llvm.memset.p0.i64(ptr noundef nonnull align 1 dereferenceable(4096) %call.i.i.i.i.i8.i90, i8 0, i64 4096, i1 false), !tbaa !5
  call void @llvm.lifetime.start.p0(i64 8, ptr nonnull %p) #20
  store ptr %call.i.i.i.i.i8.i, ptr %p, align 8, !tbaa !8
  call void @llvm.lifetime.start.p0(i64 8, ptr nonnull %q) #20
  store ptr %call.i.i.i.i.i8.i90, ptr %q, align 8, !tbaa !8
  br label %for.body

for.cond.cleanup:                                 ; preds = %for.body
  %1 = load ptr, ptr %p, align 8, !tbaa !8
  %2 = load ptr, ptr %q, align 8, !tbaa !8
  %call4 = tail call noundef i32 @_Z10RealMemCmpPKcS0_m(ptr noundef %1, ptr noundef %2, i64 noundef 1) #21
  %cmp.i = icmp eq i32 %call4, 0
  %lhsc = load i8, ptr %1, align 1
  %rhsc = load i8, ptr %2, align 1
  %cmp.i98 = icmp eq i8 %lhsc, %rhsc
  %3 = xor i1 %cmp.i, %cmp.i98
  br i1 %3, label %if.then, label %invoke.cont27

for.body:                                         ; preds = %for.body, %invoke.cont
  %indvars.iv = phi i64 [ 0, %invoke.cont ], [ %indvars.iv.next.3, %for.body ]
  %4 = load ptr, ptr %p, align 8, !tbaa !8
  %add.ptr = getelementptr inbounds i8, ptr %4, i64 %indvars.iv
  store i8 -1, ptr %add.ptr, align 1, !tbaa !5
  %indvars.iv.next = or i64 %indvars.iv, 1
  %5 = load ptr, ptr %p, align 8, !tbaa !8
  %add.ptr.1 = getelementptr inbounds i8, ptr %5, i64 %indvars.iv.next
  store i8 -1, ptr %add.ptr.1, align 1, !tbaa !5
  %indvars.iv.next.1 = or i64 %indvars.iv, 2
  %6 = load ptr, ptr %p, align 8, !tbaa !8
  %add.ptr.2 = getelementptr inbounds i8, ptr %6, i64 %indvars.iv.next.1
  store i8 -1, ptr %add.ptr.2, align 1, !tbaa !5
  %indvars.iv.next.2 = or i64 %indvars.iv, 3
  %7 = load ptr, ptr %p, align 8, !tbaa !8
  %add.ptr.3 = getelementptr inbounds i8, ptr %7, i64 %indvars.iv.next.2
  store i8 -1, ptr %add.ptr.3, align 1, !tbaa !5
  %indvars.iv.next.3 = add nuw nsw i64 %indvars.iv, 4
  %exitcond.not.3 = icmp eq i64 %indvars.iv.next.3, 4096
  br i1 %exitcond.not.3, label %for.cond.cleanup, label %for.body, !llvm.loop !66

if.then:                                          ; preds = %for.cond.cleanup
  %call1.i99 = invoke noundef nonnull align 8 dereferenceable(8) ptr @_ZNSt3__124__put_character_sequenceB7v170000IcNS_11char_traitsIcEEEERNS_13basic_ostreamIT_T0_EES7_PKS4_m(ptr noundef nonnull align 8 dereferenceable(8) @_ZNSt3__14cerrE, ptr noundef nonnull @.str.336, i64 noundef 25)
          to label %invoke.cont12 unwind label %lpad11

invoke.cont12:                                    ; preds = %if.then
  %call1.i101 = invoke noundef nonnull align 8 dereferenceable(8) ptr @_ZNSt3__124__put_character_sequenceB7v170000IcNS_11char_traitsIcEEEERNS_13basic_ostreamIT_T0_EES7_PKS4_m(ptr noundef nonnull align 8 dereferenceable(8) %call1.i99, ptr noundef nonnull @_ZN6EqZero8kDisplayE, i64 noundef 6)
          to label %invoke.cont14 unwind label %lpad11

invoke.cont14:                                    ; preds = %invoke.cont12
  %call1.i104 = invoke noundef nonnull align 8 dereferenceable(8) ptr @_ZNSt3__124__put_character_sequenceB7v170000IcNS_11char_traitsIcEEEERNS_13basic_ostreamIT_T0_EES7_PKS4_m(ptr noundef nonnull align 8 dereferenceable(8) %call1.i101, ptr noundef nonnull @.str.337, i64 noundef 5)
          to label %invoke.cont16 unwind label %lpad11

invoke.cont16:                                    ; preds = %invoke.cont14
  %call1.i107 = invoke noundef nonnull align 8 dereferenceable(8) ptr @_ZNSt3__124__put_character_sequenceB7v170000IcNS_11char_traitsIcEEEERNS_13basic_ostreamIT_T0_EES7_PKS4_m(ptr noundef nonnull align 8 dereferenceable(8) %call1.i104, ptr noundef nonnull @_ZN4Last8kDisplayE, i64 noundef 4)
          to label %invoke.cont18 unwind label %lpad11

invoke.cont18:                                    ; preds = %invoke.cont16
  %call1.i110 = invoke noundef nonnull align 8 dereferenceable(8) ptr @_ZNSt3__124__put_character_sequenceB7v170000IcNS_11char_traitsIcEEEERNS_13basic_ostreamIT_T0_EES7_PKS4_m(ptr noundef nonnull align 8 dereferenceable(8) %call1.i107, ptr noundef nonnull @.str.338, i64 noundef 7)
          to label %invoke.cont20 unwind label %lpad11

invoke.cont20:                                    ; preds = %invoke.cont18
  %call23 = invoke noundef nonnull align 8 dereferenceable(8) ptr @_ZNSt3__113basic_ostreamIcNS_11char_traitsIcEEElsEi(ptr noundef nonnull align 8 dereferenceable(8) %call1.i110, i32 noundef 1)
          to label %invoke.cont22 unwind label %lpad11

invoke.cont22:                                    ; preds = %invoke.cont20
  %call.i112 = invoke noundef nonnull align 8 dereferenceable(8) ptr @_ZNSt3__14endlB7v170000IcNS_11char_traitsIcEEEERNS_13basic_ostreamIT_T0_EES7_(ptr noundef nonnull align 8 dereferenceable(8) %call23)
          to label %invoke.cont24 unwind label %lpad11

invoke.cont24:                                    ; preds = %invoke.cont22
  tail call void @exit(i32 noundef 1) #22
  unreachable

lpad11:                                           ; preds = %invoke.cont22, %invoke.cont18, %invoke.cont16, %invoke.cont14, %invoke.cont12, %if.then, %invoke.cont20
  %8 = landingpad { ptr, i32 }
          cleanup
  br label %_ZNSt3__16vectorIcNS_9allocatorIcEEED2B7v170000Ev.exit123

invoke.cont27:                                    ; preds = %for.cond.cleanup
  call void asm sideeffect "", "=*r|m,0,~{memory},~{dirflag},~{fpsr},~{flags}"(ptr nonnull elementtype(ptr) %p, ptr nonnull %1) #20, !srcloc !10
  call void asm sideeffect "", "=*r|m,0,~{memory},~{dirflag},~{fpsr},~{flags}"(ptr nonnull elementtype(ptr) %q, ptr nonnull %2) #20, !srcloc !10
  %error_occurred_.i.i = getelementptr inbounds %"class.benchmark::State", ptr %state, i64 0, i32 5
  %9 = load i8, ptr %error_occurred_.i.i, align 2, !tbaa !11, !range !26, !noundef !27
  %max_iterations.i.i = getelementptr inbounds %"class.benchmark::State", ptr %state, i64 0, i32 2
  %10 = load i64, ptr %max_iterations.i.i, align 8
  invoke void @_ZN9benchmark5State16StartKeepRunningEv(ptr noundef nonnull align 8 dereferenceable(120) %state)
          to label %for.cond32.preheader unwind label %lpad29

for.cond32.preheader:                             ; preds = %invoke.cont27
  %tobool.not.i.i = icmp ne i8 %9, 0
  %cmp.not.i.not138145 = icmp eq i64 %10, 0
  %cmp.not.i.not138 = select i1 %tobool.not.i.i, i1 true, i1 %cmp.not.i.not138145
  br i1 %cmp.not.i.not138, label %if.end.i, label %for.body36, !prof !28

if.end.i:                                         ; preds = %for.cond.cleanup41, %for.cond32.preheader
  invoke void @_ZN9benchmark5State17FinishKeepRunningEv(ptr noundef nonnull align 8 dereferenceable(120) %state)
          to label %for.cond.cleanup35 unwind label %lpad29

for.cond.cleanup35:                               ; preds = %if.end.i
  %started_.i = getelementptr inbounds %"class.benchmark::State", ptr %state, i64 0, i32 3
  %11 = load i8, ptr %started_.i, align 8, !tbaa !29, !range !26, !noundef !27
  %tobool.not.i = icmp eq i8 %11, 0
  br i1 %tobool.not.i, label %_ZNK9benchmark5State10iterationsEv.exit, label %if.end.i87, !prof !28

if.end.i87:                                       ; preds = %for.cond.cleanup35
  %12 = load i64, ptr %max_iterations.i.i, align 8, !tbaa !30
  %13 = load i64, ptr %state, align 8, !tbaa !31
  %sub.i = sub i64 %12, %13
  %batch_leftover_.i = getelementptr inbounds %"class.benchmark::State", ptr %state, i64 0, i32 1
  %14 = load i64, ptr %batch_leftover_.i, align 8, !tbaa !32
  %add.i = add i64 %sub.i, %14
  %15 = shl i64 %add.i, 12
  %16 = sitofp i64 %15 to double
  br label %_ZNK9benchmark5State10iterationsEv.exit

_ZNK9benchmark5State10iterationsEv.exit:          ; preds = %for.cond.cleanup35, %if.end.i87
  %retval.0.i = phi double [ %16, %if.end.i87 ], [ 0.000000e+00, %for.cond.cleanup35 ]
  %counters.i = getelementptr inbounds %"class.benchmark::State", ptr %state, i64 0, i32 8
  call void @llvm.lifetime.start.p0(i64 24, ptr nonnull %ref.tmp2.i) #20
  store i8 32, ptr %ref.tmp2.i, align 8
  %__data_.i.i.i.i = getelementptr inbounds %"struct.std::__1::basic_string<char>::__short", ptr %ref.tmp2.i, i64 0, i32 2
  %cmp.i24.i.i.i = icmp ugt ptr %__data_.i.i.i.i, @.str.341
  %add.ptr.i.i.i.i = getelementptr inbounds %"struct.std::__1::basic_string<char>::__short", ptr %ref.tmp2.i, i64 0, i32 2, i64 16
  %cmp1.i.i.i.i = icmp ule ptr %add.ptr.i.i.i.i, @.str.341
  %17 = or i1 %cmp.i24.i.i.i, %cmp1.i.i.i.i
  call void @llvm.assume(i1 %17)
  call void @llvm.memcpy.p0.p0.i64(ptr noundef nonnull align 1 dereferenceable(16) %__data_.i.i.i.i, ptr noundef nonnull align 1 dereferenceable(16) @.str.341, i64 16, i1 false)
  store i8 0, ptr %add.ptr.i.i.i.i, align 1, !tbaa !5
  call void @llvm.lifetime.start.p0(i64 8, ptr nonnull %__parent.i.i.i) #20
  %call.i.i6.i = invoke noundef nonnull align 8 dereferenceable(8) ptr @_ZNSt3__16__treeINS_12__value_typeINS_12basic_stringIcNS_11char_traitsIcEENS_9allocatorIcEEEEN9benchmark7CounterEEENS_19__map_value_compareIS7_SA_NS_4lessIS7_EELb1EEENS5_ISA_EEE12__find_equalIS7_EERPNS_16__tree_node_baseIPvEERPNS_15__tree_end_nodeISL_EERKT_(ptr noundef nonnull align 8 dereferenceable(24) %counters.i, ptr noundef nonnull align 8 dereferenceable(8) %__parent.i.i.i, ptr noundef nonnull align 8 dereferenceable(24) %ref.tmp2.i)
          to label %call.i.i.noexc.i unwind label %lpad.i

call.i.i.noexc.i:                                 ; preds = %_ZNK9benchmark5State10iterationsEv.exit
  %18 = load ptr, ptr %call.i.i6.i, align 8, !tbaa !8
  %cmp.i.i4.i = icmp eq ptr %18, null
  br i1 %cmp.i.i4.i, label %if.then.i.i5.i, label %invoke.cont.i

if.then.i.i5.i:                                   ; preds = %call.i.i.noexc.i
  %call.i.i.i.i.i.i.i7.i = invoke noalias noundef nonnull dereferenceable(72) ptr @_Znwm(i64 noundef 72) #19
          to label %call.i.i.i.i.i.i.i.noexc.i unwind label %lpad.i

call.i.i.i.i.i.i.i.noexc.i:                       ; preds = %if.then.i.i5.i
  %__value_.i.i.i.i = getelementptr inbounds %"class.std::__1::__tree_node", ptr %call.i.i.i.i.i.i.i7.i, i64 0, i32 1
  call void @llvm.memcpy.p0.p0.i64(ptr noundef nonnull align 8 dereferenceable(24) %__value_.i.i.i.i, ptr noundef nonnull align 8 dereferenceable(24) %ref.tmp2.i, i64 24, i1 false), !noalias !67
  call void @llvm.memset.p0.i64(ptr noundef nonnull align 8 dereferenceable(24) %ref.tmp2.i, i8 0, i64 24, i1 false), !noalias !67
  %second.i.i.i.i.i.i.i.i = getelementptr inbounds %"class.std::__1::__tree_node", ptr %call.i.i.i.i.i.i.i7.i, i64 0, i32 1, i32 0, i32 1
  store double 0.000000e+00, ptr %second.i.i.i.i.i.i.i.i, align 8, !tbaa !36, !noalias !67
  %flags.i.i.i.i.i.i.i.i.i = getelementptr inbounds %"class.std::__1::__tree_node", ptr %call.i.i.i.i.i.i.i7.i, i64 0, i32 1, i32 0, i32 1, i32 1
  store i32 0, ptr %flags.i.i.i.i.i.i.i.i.i, align 8, !tbaa !41, !noalias !67
  %oneK.i.i.i.i.i.i.i.i.i = getelementptr inbounds %"class.std::__1::__tree_node", ptr %call.i.i.i.i.i.i.i7.i, i64 0, i32 1, i32 0, i32 1, i32 2
  store i32 1000, ptr %oneK.i.i.i.i.i.i.i.i.i, align 4, !tbaa !42, !noalias !67
  %19 = load ptr, ptr %__parent.i.i.i, align 8, !tbaa !8
  %__parent_.i.i.i.i = getelementptr inbounds %"class.std::__1::__tree_node_base", ptr %call.i.i.i.i.i.i.i7.i, i64 0, i32 2
  call void @llvm.memset.p0.i64(ptr noundef nonnull align 8 dereferenceable(16) %call.i.i.i.i.i.i.i7.i, i8 0, i64 16, i1 false)
  store ptr %19, ptr %__parent_.i.i.i.i, align 8, !tbaa !43
  store ptr %call.i.i.i.i.i.i.i7.i, ptr %call.i.i6.i, align 8, !tbaa !8
  %20 = load ptr, ptr %counters.i, align 8, !tbaa !8
  %21 = load ptr, ptr %20, align 8, !tbaa !45
  %cmp.not.i.i.i.i = icmp eq ptr %21, null
  br i1 %cmp.not.i.i.i.i, label %_ZNSt3__110unique_ptrINS_11__tree_nodeINS_12__value_typeINS_12basic_stringIcNS_11char_traitsIcEENS_9allocatorIcEEEEN9benchmark7CounterEEEPvEENS_22__tree_node_destructorINS6_ISD_EEEEED2B7v170000Ev.exit.i.i.i, label %if.then.i.i.i.i

if.then.i.i.i.i:                                  ; preds = %call.i.i.i.i.i.i.i.noexc.i
  store ptr %21, ptr %counters.i, align 8, !tbaa !8
  %.pre.i.i.i.i = load ptr, ptr %call.i.i6.i, align 8, !tbaa !8
  br label %_ZNSt3__110unique_ptrINS_11__tree_nodeINS_12__value_typeINS_12basic_stringIcNS_11char_traitsIcEENS_9allocatorIcEEEEN9benchmark7CounterEEEPvEENS_22__tree_node_destructorINS6_ISD_EEEEED2B7v170000Ev.exit.i.i.i

_ZNSt3__110unique_ptrINS_11__tree_nodeINS_12__value_typeINS_12basic_stringIcNS_11char_traitsIcEENS_9allocatorIcEEEEN9benchmark7CounterEEEPvEENS_22__tree_node_destructorINS6_ISD_EEEEED2B7v170000Ev.exit.i.i.i: ; preds = %if.then.i.i.i.i, %call.i.i.i.i.i.i.i.noexc.i
  %22 = phi ptr [ %.pre.i.i.i.i, %if.then.i.i.i.i ], [ %call.i.i.i.i.i.i.i7.i, %call.i.i.i.i.i.i.i.noexc.i ]
  %__pair1_.i.i10.i.i.i = getelementptr inbounds %"class.benchmark::State", ptr %state, i64 0, i32 8, i32 0, i32 1
  %23 = load ptr, ptr %__pair1_.i.i10.i.i.i, align 8, !tbaa !45
  call void @_ZNSt3__127__tree_balance_after_insertB7v170000IPNS_16__tree_node_baseIPvEEEEvT_S5_(ptr noundef %23, ptr noundef %22) #20
  %__pair3_.i.i.i.i.i = getelementptr inbounds %"class.benchmark::State", ptr %state, i64 0, i32 8, i32 0, i32 2
  %24 = load i64, ptr %__pair3_.i.i.i.i.i, align 8, !tbaa !46
  %inc.i.i.i.i = add i64 %24, 1
  store i64 %inc.i.i.i.i, ptr %__pair3_.i.i.i.i.i, align 8, !tbaa !46
  br label %invoke.cont.i

invoke.cont.i:                                    ; preds = %_ZNSt3__110unique_ptrINS_11__tree_nodeINS_12__value_typeINS_12basic_stringIcNS_11char_traitsIcEENS_9allocatorIcEEEEN9benchmark7CounterEEEPvEENS_22__tree_node_destructorINS6_ISD_EEEEED2B7v170000Ev.exit.i.i.i, %call.i.i.noexc.i
  %__r.0.i.i.i = phi ptr [ %call.i.i.i.i.i.i.i7.i, %_ZNSt3__110unique_ptrINS_11__tree_nodeINS_12__value_typeINS_12basic_stringIcNS_11char_traitsIcEENS_9allocatorIcEEEEN9benchmark7CounterEEEPvEENS_22__tree_node_destructorINS6_ISD_EEEEED2B7v170000Ev.exit.i.i.i ], [ %18, %call.i.i.noexc.i ]
  call void @llvm.lifetime.end.p0(i64 8, ptr nonnull %__parent.i.i.i) #20
  %second.i.i = getelementptr inbounds %"class.std::__1::__tree_node", ptr %__r.0.i.i.i, i64 0, i32 1, i32 0, i32 1
  store double %retval.0.i, ptr %second.i.i, align 8, !tbaa.struct !47
  %ref.tmp.sroa.5.0.second.i.sroa_idx.i = getelementptr inbounds %"class.std::__1::__tree_node", ptr %__r.0.i.i.i, i64 0, i32 1, i32 0, i32 1, i32 1
  store i32 1, ptr %ref.tmp.sroa.5.0.second.i.sroa_idx.i, align 8, !tbaa.struct !51
  %ref.tmp.sroa.6.0.second.i.sroa_idx.i = getelementptr inbounds %"class.std::__1::__tree_node", ptr %__r.0.i.i.i, i64 0, i32 1, i32 0, i32 1, i32 2
  store i32 1024, ptr %ref.tmp.sroa.6.0.second.i.sroa_idx.i, align 4, !tbaa.struct !52
  %bf.load.i.i.i = load i8, ptr %ref.tmp2.i, align 8
  %bf.clear.i.i.i = and i8 %bf.load.i.i.i, 1
  %tobool.i.not.i.i = icmp eq i8 %bf.clear.i.i.i, 0
  br i1 %tobool.i.not.i.i, label %_ZNSt3__16vectorIcNS_9allocatorIcEEED2B7v170000Ev.exit119, label %if.then.i.i

if.then.i.i:                                      ; preds = %invoke.cont.i
  %__data_.i.i.i = getelementptr inbounds %"struct.std::__1::basic_string<char>::__long", ptr %ref.tmp2.i, i64 0, i32 2
  %25 = load ptr, ptr %__data_.i.i.i, align 8, !tbaa !5
  call void @_ZdlPv(ptr noundef %25) #23
  br label %_ZNSt3__16vectorIcNS_9allocatorIcEEED2B7v170000Ev.exit119

lpad.i:                                           ; preds = %if.then.i.i5.i, %_ZNK9benchmark5State10iterationsEv.exit
  %26 = landingpad { ptr, i32 }
          cleanup
  %bf.load.i.i8.i = load i8, ptr %ref.tmp2.i, align 8
  %bf.clear.i.i9.i = and i8 %bf.load.i.i8.i, 1
  %tobool.i.not.i10.i = icmp eq i8 %bf.clear.i.i9.i, 0
  br i1 %tobool.i.not.i10.i, label %_ZNSt3__112basic_stringIcNS_11char_traitsIcEENS_9allocatorIcEEED2Ev.exit13.i, label %if.then.i12.i

if.then.i12.i:                                    ; preds = %lpad.i
  %__data_.i.i11.i = getelementptr inbounds %"struct.std::__1::basic_string<char>::__long", ptr %ref.tmp2.i, i64 0, i32 2
  %27 = load ptr, ptr %__data_.i.i11.i, align 8, !tbaa !5
  call void @_ZdlPv(ptr noundef %27) #23
  br label %_ZNSt3__112basic_stringIcNS_11char_traitsIcEENS_9allocatorIcEEED2Ev.exit13.i

_ZNSt3__112basic_stringIcNS_11char_traitsIcEENS_9allocatorIcEEED2Ev.exit13.i: ; preds = %if.then.i12.i, %lpad.i
  call void @llvm.lifetime.end.p0(i64 24, ptr nonnull %ref.tmp2.i) #20
  br label %_ZNSt3__16vectorIcNS_9allocatorIcEEED2B7v170000Ev.exit123

lpad29:                                           ; preds = %if.end.i, %invoke.cont27
  %28 = landingpad { ptr, i32 }
          cleanup
  br label %_ZNSt3__16vectorIcNS_9allocatorIcEEED2B7v170000Ev.exit123

for.body36:                                       ; preds = %for.cond32.preheader, %for.cond.cleanup41
  %__begin1.sroa.0.0139 = phi i64 [ %dec.i, %for.cond.cleanup41 ], [ %10, %for.cond32.preheader ]
  fence syncscope("singlethread") acq_rel
  br label %for.body42

for.cond.cleanup41:                               ; preds = %for.body42
  %dec.i = add i64 %__begin1.sroa.0.0139, -1
  %cmp.not.i.not = icmp eq i64 %dec.i, 0
  br i1 %cmp.not.i.not, label %if.end.i, label %for.body36, !prof !28

for.body42:                                       ; preds = %for.body36, %for.body42
  %indvars.iv141 = phi i64 [ 0, %for.body36 ], [ %indvars.iv.next142, %for.body42 ]
  call void @llvm.lifetime.start.p0(i64 1, ptr nonnull %res) #20
  %29 = load ptr, ptr %p, align 8, !tbaa !8
  %add.ptr45 = getelementptr inbounds i8, ptr %29, i64 %indvars.iv141
  %30 = load ptr, ptr %q, align 8, !tbaa !8
  %add.ptr48 = getelementptr inbounds i8, ptr %30, i64 %indvars.iv141
  %lhsc82 = load i8, ptr %add.ptr45, align 1
  %rhsc84 = load i8, ptr %add.ptr48, align 1
  %cmp.i114 = icmp eq i8 %lhsc82, %rhsc84
  %frombool = zext i1 %cmp.i114 to i8
  store i8 %frombool, ptr %res, align 1, !tbaa !53
  call void asm sideeffect "", "=*r|m,0,~{memory},~{dirflag},~{fpsr},~{flags}"(ptr nonnull elementtype(i8) %res, i1 %cmp.i114) #20, !srcloc !10
  call void @llvm.lifetime.end.p0(i64 1, ptr nonnull %res) #20
  %indvars.iv.next142 = add nuw nsw i64 %indvars.iv141, 1
  %exitcond144.not = icmp eq i64 %indvars.iv.next142, 4096
  br i1 %exitcond144.not, label %for.cond.cleanup41, label %for.body42, !llvm.loop !70

_ZNSt3__16vectorIcNS_9allocatorIcEEED2B7v170000Ev.exit119: ; preds = %if.then.i.i, %invoke.cont.i
  call void @llvm.lifetime.end.p0(i64 24, ptr nonnull %ref.tmp2.i) #20
  call void @llvm.lifetime.end.p0(i64 8, ptr nonnull %q) #20
  call void @llvm.lifetime.end.p0(i64 8, ptr nonnull %p) #20
  call void @_ZdlPv(ptr noundef nonnull %call.i.i.i.i.i8.i90) #23
  call void @_ZdlPv(ptr noundef nonnull %call.i.i.i.i.i8.i) #23
  ret void

_ZNSt3__16vectorIcNS_9allocatorIcEEED2B7v170000Ev.exit123: ; preds = %lpad29, %lpad11, %_ZNSt3__112basic_stringIcNS_11char_traitsIcEENS_9allocatorIcEEED2Ev.exit13.i
  %.pn79 = phi { ptr, i32 } [ %8, %lpad11 ], [ %26, %_ZNSt3__112basic_stringIcNS_11char_traitsIcEENS_9allocatorIcEEED2Ev.exit13.i ], [ %28, %lpad29 ]
  call void @llvm.lifetime.end.p0(i64 8, ptr nonnull %q) #20
  call void @llvm.lifetime.end.p0(i64 8, ptr nonnull %p) #20
  call void @_ZdlPv(ptr noundef nonnull %call.i.i.i.i.i8.i90) #23
  br label %_ZNSt3__16vectorIcNS_9allocatorIcEEED2B7v170000Ev.exit127

_ZNSt3__16vectorIcNS_9allocatorIcEEED2B7v170000Ev.exit127: ; preds = %_ZNSt3__128__exception_guard_exceptionsINS_6vectorIcNS_9allocatorIcEEE16__destroy_vectorEED2B7v170000Ev.exit.i95, %_ZNSt3__16vectorIcNS_9allocatorIcEEED2B7v170000Ev.exit123
  %.pn79.pn = phi { ptr, i32 } [ %.pn79, %_ZNSt3__16vectorIcNS_9allocatorIcEEED2B7v170000Ev.exit123 ], [ %0, %_ZNSt3__128__exception_guard_exceptionsINS_6vectorIcNS_9allocatorIcEEE16__destroy_vectorEED2B7v170000Ev.exit.i95 ]
  call void @_ZdlPv(ptr noundef nonnull %call.i.i.i.i.i8.i) #23
  resume { ptr, i32 } %.pn79.pn
}

; Function Attrs: uwtable
define linkonce_odr dso_local void @_Z9BM_MemCmpILi1E12LessThanZero4NoneEvRN9benchmark5StateE(ptr noundef nonnull align 8 dereferenceable(120) %state) #4 comdat personality ptr @__gxx_personality_v0 {
entry:
  %__parent.i.i.i = alloca ptr, align 8
  %ref.tmp2.i = alloca %"class.std::__1::basic_string", align 8
  %p = alloca ptr, align 8
  %q = alloca ptr, align 8
  %res = alloca i8, align 1
  %call.i.i.i.i.i8.i = tail call noalias noundef nonnull dereferenceable(4096) ptr @_Znwm(i64 noundef 4096) #19
  tail call void @llvm.memset.p0.i64(ptr noundef nonnull align 1 dereferenceable(4096) %call.i.i.i.i.i8.i, i8 0, i64 4096, i1 false), !tbaa !5
  %call.i.i.i.i.i8.i93 = invoke noalias noundef nonnull dereferenceable(4096) ptr @_Znwm(i64 noundef 4096) #19
          to label %invoke.cont unwind label %_ZNSt3__128__exception_guard_exceptionsINS_6vectorIcNS_9allocatorIcEEE16__destroy_vectorEED2B7v170000Ev.exit.i98

_ZNSt3__128__exception_guard_exceptionsINS_6vectorIcNS_9allocatorIcEEE16__destroy_vectorEED2B7v170000Ev.exit.i98: ; preds = %entry
  %0 = landingpad { ptr, i32 }
          cleanup
  br label %_ZNSt3__16vectorIcNS_9allocatorIcEEED2B7v170000Ev.exit130

invoke.cont:                                      ; preds = %entry
  tail call void @llvm.memset.p0.i64(ptr noundef nonnull align 1 dereferenceable(4096) %call.i.i.i.i.i8.i93, i8 0, i64 4096, i1 false), !tbaa !5
  call void @llvm.lifetime.start.p0(i64 8, ptr nonnull %p) #20
  store ptr %call.i.i.i.i.i8.i, ptr %p, align 8, !tbaa !8
  call void @llvm.lifetime.start.p0(i64 8, ptr nonnull %q) #20
  store ptr %call.i.i.i.i.i8.i93, ptr %q, align 8, !tbaa !8
  %call2 = tail call noundef i32 @_Z10RealMemCmpPKcS0_m(ptr noundef nonnull %call.i.i.i.i.i8.i, ptr noundef nonnull %call.i.i.i.i.i8.i93, i64 noundef 1) #21
  %cmp.i = icmp slt i32 %call2, 0
  br i1 %cmp.i, label %if.then, label %invoke.cont27

if.then:                                          ; preds = %invoke.cont
  %call1.i102 = invoke noundef nonnull align 8 dereferenceable(8) ptr @_ZNSt3__124__put_character_sequenceB7v170000IcNS_11char_traitsIcEEEERNS_13basic_ostreamIT_T0_EES7_PKS4_m(ptr noundef nonnull align 8 dereferenceable(8) @_ZNSt3__14cerrE, ptr noundef nonnull @.str.336, i64 noundef 25)
          to label %invoke.cont12 unwind label %lpad3

invoke.cont12:                                    ; preds = %if.then
  %call1.i104 = invoke noundef nonnull align 8 dereferenceable(8) ptr @_ZNSt3__124__put_character_sequenceB7v170000IcNS_11char_traitsIcEEEERNS_13basic_ostreamIT_T0_EES7_PKS4_m(ptr noundef nonnull align 8 dereferenceable(8) %call1.i102, ptr noundef nonnull @_ZN12LessThanZero8kDisplayE, i64 noundef 12)
          to label %invoke.cont14 unwind label %lpad3

invoke.cont14:                                    ; preds = %invoke.cont12
  %call1.i107 = invoke noundef nonnull align 8 dereferenceable(8) ptr @_ZNSt3__124__put_character_sequenceB7v170000IcNS_11char_traitsIcEEEERNS_13basic_ostreamIT_T0_EES7_PKS4_m(ptr noundef nonnull align 8 dereferenceable(8) %call1.i104, ptr noundef nonnull @.str.337, i64 noundef 5)
          to label %invoke.cont16 unwind label %lpad3

invoke.cont16:                                    ; preds = %invoke.cont14
  %call1.i110 = invoke noundef nonnull align 8 dereferenceable(8) ptr @_ZNSt3__124__put_character_sequenceB7v170000IcNS_11char_traitsIcEEEERNS_13basic_ostreamIT_T0_EES7_PKS4_m(ptr noundef nonnull align 8 dereferenceable(8) %call1.i107, ptr noundef nonnull @_ZN4None8kDisplayE, i64 noundef 4)
          to label %invoke.cont18 unwind label %lpad3

invoke.cont18:                                    ; preds = %invoke.cont16
  %call1.i113 = invoke noundef nonnull align 8 dereferenceable(8) ptr @_ZNSt3__124__put_character_sequenceB7v170000IcNS_11char_traitsIcEEEERNS_13basic_ostreamIT_T0_EES7_PKS4_m(ptr noundef nonnull align 8 dereferenceable(8) %call1.i110, ptr noundef nonnull @.str.338, i64 noundef 7)
          to label %invoke.cont20 unwind label %lpad3

invoke.cont20:                                    ; preds = %invoke.cont18
  %call23 = invoke noundef nonnull align 8 dereferenceable(8) ptr @_ZNSt3__113basic_ostreamIcNS_11char_traitsIcEEElsEi(ptr noundef nonnull align 8 dereferenceable(8) %call1.i113, i32 noundef 1)
          to label %invoke.cont22 unwind label %lpad3

invoke.cont22:                                    ; preds = %invoke.cont20
  %call.i115 = invoke noundef nonnull align 8 dereferenceable(8) ptr @_ZNSt3__14endlB7v170000IcNS_11char_traitsIcEEEERNS_13basic_ostreamIT_T0_EES7_(ptr noundef nonnull align 8 dereferenceable(8) %call23)
          to label %invoke.cont24 unwind label %lpad3

invoke.cont24:                                    ; preds = %invoke.cont22
  tail call void @exit(i32 noundef 1) #22
  unreachable

lpad3:                                            ; preds = %invoke.cont22, %invoke.cont18, %invoke.cont16, %invoke.cont14, %invoke.cont12, %if.then, %invoke.cont20
  %1 = landingpad { ptr, i32 }
          cleanup
  br label %_ZNSt3__16vectorIcNS_9allocatorIcEEED2B7v170000Ev.exit126

invoke.cont27:                                    ; preds = %invoke.cont
  call void asm sideeffect "", "=*r|m,0,~{memory},~{dirflag},~{fpsr},~{flags}"(ptr nonnull elementtype(ptr) %p, ptr nonnull %call.i.i.i.i.i8.i) #20, !srcloc !10
  call void asm sideeffect "", "=*r|m,0,~{memory},~{dirflag},~{fpsr},~{flags}"(ptr nonnull elementtype(ptr) %q, ptr nonnull %call.i.i.i.i.i8.i93) #20, !srcloc !10
  %error_occurred_.i.i = getelementptr inbounds %"class.benchmark::State", ptr %state, i64 0, i32 5
  %2 = load i8, ptr %error_occurred_.i.i, align 2, !tbaa !11, !range !26, !noundef !27
  %max_iterations.i.i = getelementptr inbounds %"class.benchmark::State", ptr %state, i64 0, i32 2
  %3 = load i64, ptr %max_iterations.i.i, align 8
  invoke void @_ZN9benchmark5State16StartKeepRunningEv(ptr noundef nonnull align 8 dereferenceable(120) %state)
          to label %for.cond32.preheader unwind label %lpad29

for.cond32.preheader:                             ; preds = %invoke.cont27
  %tobool.not.i.i = icmp ne i8 %2, 0
  %cmp.not.i.not140143 = icmp eq i64 %3, 0
  %cmp.not.i.not140 = select i1 %tobool.not.i.i, i1 true, i1 %cmp.not.i.not140143
  br i1 %cmp.not.i.not140, label %if.end.i, label %for.body36, !prof !28

if.end.i:                                         ; preds = %for.cond.cleanup41, %for.cond32.preheader
  invoke void @_ZN9benchmark5State17FinishKeepRunningEv(ptr noundef nonnull align 8 dereferenceable(120) %state)
          to label %for.cond.cleanup35 unwind label %lpad29

for.cond.cleanup35:                               ; preds = %if.end.i
  %started_.i = getelementptr inbounds %"class.benchmark::State", ptr %state, i64 0, i32 3
  %4 = load i8, ptr %started_.i, align 8, !tbaa !29, !range !26, !noundef !27
  %tobool.not.i = icmp eq i8 %4, 0
  br i1 %tobool.not.i, label %_ZNK9benchmark5State10iterationsEv.exit, label %if.end.i90, !prof !28

if.end.i90:                                       ; preds = %for.cond.cleanup35
  %5 = load i64, ptr %max_iterations.i.i, align 8, !tbaa !30
  %6 = load i64, ptr %state, align 8, !tbaa !31
  %sub.i = sub i64 %5, %6
  %batch_leftover_.i = getelementptr inbounds %"class.benchmark::State", ptr %state, i64 0, i32 1
  %7 = load i64, ptr %batch_leftover_.i, align 8, !tbaa !32
  %add.i = add i64 %sub.i, %7
  %8 = shl i64 %add.i, 12
  %9 = sitofp i64 %8 to double
  br label %_ZNK9benchmark5State10iterationsEv.exit

_ZNK9benchmark5State10iterationsEv.exit:          ; preds = %for.cond.cleanup35, %if.end.i90
  %retval.0.i = phi double [ %9, %if.end.i90 ], [ 0.000000e+00, %for.cond.cleanup35 ]
  %counters.i = getelementptr inbounds %"class.benchmark::State", ptr %state, i64 0, i32 8
  call void @llvm.lifetime.start.p0(i64 24, ptr nonnull %ref.tmp2.i) #20
  store i8 32, ptr %ref.tmp2.i, align 8
  %__data_.i.i.i.i = getelementptr inbounds %"struct.std::__1::basic_string<char>::__short", ptr %ref.tmp2.i, i64 0, i32 2
  %cmp.i24.i.i.i = icmp ugt ptr %__data_.i.i.i.i, @.str.341
  %add.ptr.i.i.i.i = getelementptr inbounds %"struct.std::__1::basic_string<char>::__short", ptr %ref.tmp2.i, i64 0, i32 2, i64 16
  %cmp1.i.i.i.i = icmp ule ptr %add.ptr.i.i.i.i, @.str.341
  %10 = or i1 %cmp.i24.i.i.i, %cmp1.i.i.i.i
  call void @llvm.assume(i1 %10)
  call void @llvm.memcpy.p0.p0.i64(ptr noundef nonnull align 1 dereferenceable(16) %__data_.i.i.i.i, ptr noundef nonnull align 1 dereferenceable(16) @.str.341, i64 16, i1 false)
  store i8 0, ptr %add.ptr.i.i.i.i, align 1, !tbaa !5
  call void @llvm.lifetime.start.p0(i64 8, ptr nonnull %__parent.i.i.i) #20
  %call.i.i6.i = invoke noundef nonnull align 8 dereferenceable(8) ptr @_ZNSt3__16__treeINS_12__value_typeINS_12basic_stringIcNS_11char_traitsIcEENS_9allocatorIcEEEEN9benchmark7CounterEEENS_19__map_value_compareIS7_SA_NS_4lessIS7_EELb1EEENS5_ISA_EEE12__find_equalIS7_EERPNS_16__tree_node_baseIPvEERPNS_15__tree_end_nodeISL_EERKT_(ptr noundef nonnull align 8 dereferenceable(24) %counters.i, ptr noundef nonnull align 8 dereferenceable(8) %__parent.i.i.i, ptr noundef nonnull align 8 dereferenceable(24) %ref.tmp2.i)
          to label %call.i.i.noexc.i unwind label %lpad.i

call.i.i.noexc.i:                                 ; preds = %_ZNK9benchmark5State10iterationsEv.exit
  %11 = load ptr, ptr %call.i.i6.i, align 8, !tbaa !8
  %cmp.i.i4.i = icmp eq ptr %11, null
  br i1 %cmp.i.i4.i, label %if.then.i.i5.i, label %invoke.cont.i

if.then.i.i5.i:                                   ; preds = %call.i.i.noexc.i
  %call.i.i.i.i.i.i.i7.i = invoke noalias noundef nonnull dereferenceable(72) ptr @_Znwm(i64 noundef 72) #19
          to label %call.i.i.i.i.i.i.i.noexc.i unwind label %lpad.i

call.i.i.i.i.i.i.i.noexc.i:                       ; preds = %if.then.i.i5.i
  %__value_.i.i.i.i = getelementptr inbounds %"class.std::__1::__tree_node", ptr %call.i.i.i.i.i.i.i7.i, i64 0, i32 1
  call void @llvm.memcpy.p0.p0.i64(ptr noundef nonnull align 8 dereferenceable(24) %__value_.i.i.i.i, ptr noundef nonnull align 8 dereferenceable(24) %ref.tmp2.i, i64 24, i1 false), !noalias !71
  call void @llvm.memset.p0.i64(ptr noundef nonnull align 8 dereferenceable(24) %ref.tmp2.i, i8 0, i64 24, i1 false), !noalias !71
  %second.i.i.i.i.i.i.i.i = getelementptr inbounds %"class.std::__1::__tree_node", ptr %call.i.i.i.i.i.i.i7.i, i64 0, i32 1, i32 0, i32 1
  store double 0.000000e+00, ptr %second.i.i.i.i.i.i.i.i, align 8, !tbaa !36, !noalias !71
  %flags.i.i.i.i.i.i.i.i.i = getelementptr inbounds %"class.std::__1::__tree_node", ptr %call.i.i.i.i.i.i.i7.i, i64 0, i32 1, i32 0, i32 1, i32 1
  store i32 0, ptr %flags.i.i.i.i.i.i.i.i.i, align 8, !tbaa !41, !noalias !71
  %oneK.i.i.i.i.i.i.i.i.i = getelementptr inbounds %"class.std::__1::__tree_node", ptr %call.i.i.i.i.i.i.i7.i, i64 0, i32 1, i32 0, i32 1, i32 2
  store i32 1000, ptr %oneK.i.i.i.i.i.i.i.i.i, align 4, !tbaa !42, !noalias !71
  %12 = load ptr, ptr %__parent.i.i.i, align 8, !tbaa !8
  %__parent_.i.i.i.i = getelementptr inbounds %"class.std::__1::__tree_node_base", ptr %call.i.i.i.i.i.i.i7.i, i64 0, i32 2
  call void @llvm.memset.p0.i64(ptr noundef nonnull align 8 dereferenceable(16) %call.i.i.i.i.i.i.i7.i, i8 0, i64 16, i1 false)
  store ptr %12, ptr %__parent_.i.i.i.i, align 8, !tbaa !43
  store ptr %call.i.i.i.i.i.i.i7.i, ptr %call.i.i6.i, align 8, !tbaa !8
  %13 = load ptr, ptr %counters.i, align 8, !tbaa !8
  %14 = load ptr, ptr %13, align 8, !tbaa !45
  %cmp.not.i.i.i.i = icmp eq ptr %14, null
  br i1 %cmp.not.i.i.i.i, label %_ZNSt3__110unique_ptrINS_11__tree_nodeINS_12__value_typeINS_12basic_stringIcNS_11char_traitsIcEENS_9allocatorIcEEEEN9benchmark7CounterEEEPvEENS_22__tree_node_destructorINS6_ISD_EEEEED2B7v170000Ev.exit.i.i.i, label %if.then.i.i.i.i

if.then.i.i.i.i:                                  ; preds = %call.i.i.i.i.i.i.i.noexc.i
  store ptr %14, ptr %counters.i, align 8, !tbaa !8
  %.pre.i.i.i.i = load ptr, ptr %call.i.i6.i, align 8, !tbaa !8
  br label %_ZNSt3__110unique_ptrINS_11__tree_nodeINS_12__value_typeINS_12basic_stringIcNS_11char_traitsIcEENS_9allocatorIcEEEEN9benchmark7CounterEEEPvEENS_22__tree_node_destructorINS6_ISD_EEEEED2B7v170000Ev.exit.i.i.i

_ZNSt3__110unique_ptrINS_11__tree_nodeINS_12__value_typeINS_12basic_stringIcNS_11char_traitsIcEENS_9allocatorIcEEEEN9benchmark7CounterEEEPvEENS_22__tree_node_destructorINS6_ISD_EEEEED2B7v170000Ev.exit.i.i.i: ; preds = %if.then.i.i.i.i, %call.i.i.i.i.i.i.i.noexc.i
  %15 = phi ptr [ %.pre.i.i.i.i, %if.then.i.i.i.i ], [ %call.i.i.i.i.i.i.i7.i, %call.i.i.i.i.i.i.i.noexc.i ]
  %__pair1_.i.i10.i.i.i = getelementptr inbounds %"class.benchmark::State", ptr %state, i64 0, i32 8, i32 0, i32 1
  %16 = load ptr, ptr %__pair1_.i.i10.i.i.i, align 8, !tbaa !45
  call void @_ZNSt3__127__tree_balance_after_insertB7v170000IPNS_16__tree_node_baseIPvEEEEvT_S5_(ptr noundef %16, ptr noundef %15) #20
  %__pair3_.i.i.i.i.i = getelementptr inbounds %"class.benchmark::State", ptr %state, i64 0, i32 8, i32 0, i32 2
  %17 = load i64, ptr %__pair3_.i.i.i.i.i, align 8, !tbaa !46
  %inc.i.i.i.i = add i64 %17, 1
  store i64 %inc.i.i.i.i, ptr %__pair3_.i.i.i.i.i, align 8, !tbaa !46
  br label %invoke.cont.i

invoke.cont.i:                                    ; preds = %_ZNSt3__110unique_ptrINS_11__tree_nodeINS_12__value_typeINS_12basic_stringIcNS_11char_traitsIcEENS_9allocatorIcEEEEN9benchmark7CounterEEEPvEENS_22__tree_node_destructorINS6_ISD_EEEEED2B7v170000Ev.exit.i.i.i, %call.i.i.noexc.i
  %__r.0.i.i.i = phi ptr [ %call.i.i.i.i.i.i.i7.i, %_ZNSt3__110unique_ptrINS_11__tree_nodeINS_12__value_typeINS_12basic_stringIcNS_11char_traitsIcEENS_9allocatorIcEEEEN9benchmark7CounterEEEPvEENS_22__tree_node_destructorINS6_ISD_EEEEED2B7v170000Ev.exit.i.i.i ], [ %11, %call.i.i.noexc.i ]
  call void @llvm.lifetime.end.p0(i64 8, ptr nonnull %__parent.i.i.i) #20
  %second.i.i = getelementptr inbounds %"class.std::__1::__tree_node", ptr %__r.0.i.i.i, i64 0, i32 1, i32 0, i32 1
  store double %retval.0.i, ptr %second.i.i, align 8, !tbaa.struct !47
  %ref.tmp.sroa.5.0.second.i.sroa_idx.i = getelementptr inbounds %"class.std::__1::__tree_node", ptr %__r.0.i.i.i, i64 0, i32 1, i32 0, i32 1, i32 1
  store i32 1, ptr %ref.tmp.sroa.5.0.second.i.sroa_idx.i, align 8, !tbaa.struct !51
  %ref.tmp.sroa.6.0.second.i.sroa_idx.i = getelementptr inbounds %"class.std::__1::__tree_node", ptr %__r.0.i.i.i, i64 0, i32 1, i32 0, i32 1, i32 2
  store i32 1024, ptr %ref.tmp.sroa.6.0.second.i.sroa_idx.i, align 4, !tbaa.struct !52
  %bf.load.i.i.i = load i8, ptr %ref.tmp2.i, align 8
  %bf.clear.i.i.i = and i8 %bf.load.i.i.i, 1
  %tobool.i.not.i.i = icmp eq i8 %bf.clear.i.i.i, 0
  br i1 %tobool.i.not.i.i, label %_ZNSt3__16vectorIcNS_9allocatorIcEEED2B7v170000Ev.exit122, label %if.then.i.i

if.then.i.i:                                      ; preds = %invoke.cont.i
  %__data_.i.i.i = getelementptr inbounds %"struct.std::__1::basic_string<char>::__long", ptr %ref.tmp2.i, i64 0, i32 2
  %18 = load ptr, ptr %__data_.i.i.i, align 8, !tbaa !5
  call void @_ZdlPv(ptr noundef %18) #23
  br label %_ZNSt3__16vectorIcNS_9allocatorIcEEED2B7v170000Ev.exit122

lpad.i:                                           ; preds = %if.then.i.i5.i, %_ZNK9benchmark5State10iterationsEv.exit
  %19 = landingpad { ptr, i32 }
          cleanup
  %bf.load.i.i8.i = load i8, ptr %ref.tmp2.i, align 8
  %bf.clear.i.i9.i = and i8 %bf.load.i.i8.i, 1
  %tobool.i.not.i10.i = icmp eq i8 %bf.clear.i.i9.i, 0
  br i1 %tobool.i.not.i10.i, label %_ZNSt3__112basic_stringIcNS_11char_traitsIcEENS_9allocatorIcEEED2Ev.exit13.i, label %if.then.i12.i

if.then.i12.i:                                    ; preds = %lpad.i
  %__data_.i.i11.i = getelementptr inbounds %"struct.std::__1::basic_string<char>::__long", ptr %ref.tmp2.i, i64 0, i32 2
  %20 = load ptr, ptr %__data_.i.i11.i, align 8, !tbaa !5
  call void @_ZdlPv(ptr noundef %20) #23
  br label %_ZNSt3__112basic_stringIcNS_11char_traitsIcEENS_9allocatorIcEEED2Ev.exit13.i

_ZNSt3__112basic_stringIcNS_11char_traitsIcEENS_9allocatorIcEEED2Ev.exit13.i: ; preds = %if.then.i12.i, %lpad.i
  call void @llvm.lifetime.end.p0(i64 24, ptr nonnull %ref.tmp2.i) #20
  br label %_ZNSt3__16vectorIcNS_9allocatorIcEEED2B7v170000Ev.exit126

lpad29:                                           ; preds = %if.end.i, %invoke.cont27
  %21 = landingpad { ptr, i32 }
          cleanup
  br label %_ZNSt3__16vectorIcNS_9allocatorIcEEED2B7v170000Ev.exit126

for.body36:                                       ; preds = %for.cond32.preheader, %for.cond.cleanup41
  %__begin1.sroa.0.0141 = phi i64 [ %dec.i, %for.cond.cleanup41 ], [ %3, %for.cond32.preheader ]
  fence syncscope("singlethread") acq_rel
  br label %for.body42

for.cond.cleanup41:                               ; preds = %for.body42
  %dec.i = add i64 %__begin1.sroa.0.0141, -1
  %cmp.not.i.not = icmp eq i64 %dec.i, 0
  br i1 %cmp.not.i.not, label %if.end.i, label %for.body36, !prof !28

for.body42:                                       ; preds = %for.body36, %for.body42
  %indvars.iv = phi i64 [ 0, %for.body36 ], [ %indvars.iv.next, %for.body42 ]
  call void @llvm.lifetime.start.p0(i64 1, ptr nonnull %res) #20
  %22 = load ptr, ptr %p, align 8, !tbaa !8
  %add.ptr45 = getelementptr inbounds i8, ptr %22, i64 %indvars.iv
  %23 = load ptr, ptr %q, align 8, !tbaa !8
  %add.ptr48 = getelementptr inbounds i8, ptr %23, i64 %indvars.iv
  %lhsc85 = load i8, ptr %add.ptr45, align 1
  %rhsc87 = load i8, ptr %add.ptr48, align 1
  %cmp.i117 = icmp ult i8 %lhsc85, %rhsc87
  %frombool = zext i1 %cmp.i117 to i8
  store i8 %frombool, ptr %res, align 1, !tbaa !53
  call void asm sideeffect "", "=*r|m,0,~{memory},~{dirflag},~{fpsr},~{flags}"(ptr nonnull elementtype(i8) %res, i1 %cmp.i117) #20, !srcloc !10
  call void @llvm.lifetime.end.p0(i64 1, ptr nonnull %res) #20
  %indvars.iv.next = add nuw nsw i64 %indvars.iv, 1
  %exitcond.not = icmp eq i64 %indvars.iv.next, 4096
  br i1 %exitcond.not, label %for.cond.cleanup41, label %for.body42, !llvm.loop !74

_ZNSt3__16vectorIcNS_9allocatorIcEEED2B7v170000Ev.exit122: ; preds = %if.then.i.i, %invoke.cont.i
  call void @llvm.lifetime.end.p0(i64 24, ptr nonnull %ref.tmp2.i) #20
  call void @llvm.lifetime.end.p0(i64 8, ptr nonnull %q) #20
  call void @llvm.lifetime.end.p0(i64 8, ptr nonnull %p) #20
  call void @_ZdlPv(ptr noundef nonnull %call.i.i.i.i.i8.i93) #23
  call void @_ZdlPv(ptr noundef nonnull %call.i.i.i.i.i8.i) #23
  ret void

_ZNSt3__16vectorIcNS_9allocatorIcEEED2B7v170000Ev.exit126: ; preds = %lpad29, %lpad3, %_ZNSt3__112basic_stringIcNS_11char_traitsIcEENS_9allocatorIcEEED2Ev.exit13.i
  %.pn82 = phi { ptr, i32 } [ %1, %lpad3 ], [ %19, %_ZNSt3__112basic_stringIcNS_11char_traitsIcEENS_9allocatorIcEEED2Ev.exit13.i ], [ %21, %lpad29 ]
  call void @llvm.lifetime.end.p0(i64 8, ptr nonnull %q) #20
  call void @llvm.lifetime.end.p0(i64 8, ptr nonnull %p) #20
  call void @_ZdlPv(ptr noundef nonnull %call.i.i.i.i.i8.i93) #23
  br label %_ZNSt3__16vectorIcNS_9allocatorIcEEED2B7v170000Ev.exit130

_ZNSt3__16vectorIcNS_9allocatorIcEEED2B7v170000Ev.exit130: ; preds = %_ZNSt3__128__exception_guard_exceptionsINS_6vectorIcNS_9allocatorIcEEE16__destroy_vectorEED2B7v170000Ev.exit.i98, %_ZNSt3__16vectorIcNS_9allocatorIcEEED2B7v170000Ev.exit126
  %.pn82.pn = phi { ptr, i32 } [ %.pn82, %_ZNSt3__16vectorIcNS_9allocatorIcEEED2B7v170000Ev.exit126 ], [ %0, %_ZNSt3__128__exception_guard_exceptionsINS_6vectorIcNS_9allocatorIcEEE16__destroy_vectorEED2B7v170000Ev.exit.i98 ]
  call void @_ZdlPv(ptr noundef nonnull %call.i.i.i.i.i8.i) #23
  resume { ptr, i32 } %.pn82.pn
}

; Function Attrs: uwtable
define linkonce_odr dso_local void @_Z9BM_MemCmpILi1E12LessThanZero5FirstEvRN9benchmark5StateE(ptr noundef nonnull align 8 dereferenceable(120) %state) #4 comdat personality ptr @__gxx_personality_v0 {
entry:
  %__parent.i.i.i = alloca ptr, align 8
  %ref.tmp2.i = alloca %"class.std::__1::basic_string", align 8
  %p = alloca ptr, align 8
  %q = alloca ptr, align 8
  %res = alloca i8, align 1
  %call.i.i.i.i.i8.i = tail call noalias noundef nonnull dereferenceable(4096) ptr @_Znwm(i64 noundef 4096) #19
  tail call void @llvm.memset.p0.i64(ptr noundef nonnull align 1 dereferenceable(4096) %call.i.i.i.i.i8.i, i8 0, i64 4096, i1 false), !tbaa !5
  %call.i.i.i.i.i8.i88 = invoke noalias noundef nonnull dereferenceable(4096) ptr @_Znwm(i64 noundef 4096) #19
          to label %invoke.cont unwind label %_ZNSt3__128__exception_guard_exceptionsINS_6vectorIcNS_9allocatorIcEEE16__destroy_vectorEED2B7v170000Ev.exit.i93

_ZNSt3__128__exception_guard_exceptionsINS_6vectorIcNS_9allocatorIcEEE16__destroy_vectorEED2B7v170000Ev.exit.i93: ; preds = %entry
  %0 = landingpad { ptr, i32 }
          cleanup
  br label %_ZNSt3__16vectorIcNS_9allocatorIcEEED2B7v170000Ev.exit125

invoke.cont:                                      ; preds = %entry
  tail call void @llvm.memset.p0.i64(ptr noundef nonnull align 1 dereferenceable(4096) %call.i.i.i.i.i8.i88, i8 0, i64 4096, i1 false), !tbaa !5
  call void @llvm.lifetime.start.p0(i64 8, ptr nonnull %p) #20
  store ptr %call.i.i.i.i.i8.i, ptr %p, align 8, !tbaa !8
  call void @llvm.lifetime.start.p0(i64 8, ptr nonnull %q) #20
  store ptr %call.i.i.i.i.i8.i88, ptr %q, align 8, !tbaa !8
  br label %for.body

for.cond.cleanup:                                 ; preds = %for.body
  %1 = load ptr, ptr %p, align 8, !tbaa !8
  %2 = load ptr, ptr %q, align 8, !tbaa !8
  %call2 = tail call noundef i32 @_Z10RealMemCmpPKcS0_m(ptr noundef %1, ptr noundef %2, i64 noundef 1) #21
  %cmp.i = icmp slt i32 %call2, 0
  %lhsc = load i8, ptr %1, align 1
  %rhsc = load i8, ptr %2, align 1
  %cmp.i96 = icmp ult i8 %lhsc, %rhsc
  %3 = xor i1 %cmp.i, %cmp.i96
  br i1 %3, label %if.then, label %invoke.cont25

for.body:                                         ; preds = %for.body, %invoke.cont
  %indvars.iv = phi i64 [ 0, %invoke.cont ], [ %indvars.iv.next.3, %for.body ]
  %4 = load ptr, ptr %p, align 8, !tbaa !8
  %add.ptr = getelementptr inbounds i8, ptr %4, i64 %indvars.iv
  store i8 -1, ptr %add.ptr, align 1, !tbaa !5
  %indvars.iv.next = or i64 %indvars.iv, 1
  %5 = load ptr, ptr %p, align 8, !tbaa !8
  %add.ptr.1 = getelementptr inbounds i8, ptr %5, i64 %indvars.iv.next
  store i8 -1, ptr %add.ptr.1, align 1, !tbaa !5
  %indvars.iv.next.1 = or i64 %indvars.iv, 2
  %6 = load ptr, ptr %p, align 8, !tbaa !8
  %add.ptr.2 = getelementptr inbounds i8, ptr %6, i64 %indvars.iv.next.1
  store i8 -1, ptr %add.ptr.2, align 1, !tbaa !5
  %indvars.iv.next.2 = or i64 %indvars.iv, 3
  %7 = load ptr, ptr %p, align 8, !tbaa !8
  %add.ptr.3 = getelementptr inbounds i8, ptr %7, i64 %indvars.iv.next.2
  store i8 -1, ptr %add.ptr.3, align 1, !tbaa !5
  %indvars.iv.next.3 = add nuw nsw i64 %indvars.iv, 4
  %exitcond.not.3 = icmp eq i64 %indvars.iv.next.3, 4096
  br i1 %exitcond.not.3, label %for.cond.cleanup, label %for.body, !llvm.loop !75

if.then:                                          ; preds = %for.cond.cleanup
  %call1.i97 = invoke noundef nonnull align 8 dereferenceable(8) ptr @_ZNSt3__124__put_character_sequenceB7v170000IcNS_11char_traitsIcEEEERNS_13basic_ostreamIT_T0_EES7_PKS4_m(ptr noundef nonnull align 8 dereferenceable(8) @_ZNSt3__14cerrE, ptr noundef nonnull @.str.336, i64 noundef 25)
          to label %invoke.cont10 unwind label %lpad9

invoke.cont10:                                    ; preds = %if.then
  %call1.i99 = invoke noundef nonnull align 8 dereferenceable(8) ptr @_ZNSt3__124__put_character_sequenceB7v170000IcNS_11char_traitsIcEEEERNS_13basic_ostreamIT_T0_EES7_PKS4_m(ptr noundef nonnull align 8 dereferenceable(8) %call1.i97, ptr noundef nonnull @_ZN12LessThanZero8kDisplayE, i64 noundef 12)
          to label %invoke.cont12 unwind label %lpad9

invoke.cont12:                                    ; preds = %invoke.cont10
  %call1.i102 = invoke noundef nonnull align 8 dereferenceable(8) ptr @_ZNSt3__124__put_character_sequenceB7v170000IcNS_11char_traitsIcEEEERNS_13basic_ostreamIT_T0_EES7_PKS4_m(ptr noundef nonnull align 8 dereferenceable(8) %call1.i99, ptr noundef nonnull @.str.337, i64 noundef 5)
          to label %invoke.cont14 unwind label %lpad9

invoke.cont14:                                    ; preds = %invoke.cont12
  %call1.i105 = invoke noundef nonnull align 8 dereferenceable(8) ptr @_ZNSt3__124__put_character_sequenceB7v170000IcNS_11char_traitsIcEEEERNS_13basic_ostreamIT_T0_EES7_PKS4_m(ptr noundef nonnull align 8 dereferenceable(8) %call1.i102, ptr noundef nonnull @_ZN5First8kDisplayE, i64 noundef 5)
          to label %invoke.cont16 unwind label %lpad9

invoke.cont16:                                    ; preds = %invoke.cont14
  %call1.i108 = invoke noundef nonnull align 8 dereferenceable(8) ptr @_ZNSt3__124__put_character_sequenceB7v170000IcNS_11char_traitsIcEEEERNS_13basic_ostreamIT_T0_EES7_PKS4_m(ptr noundef nonnull align 8 dereferenceable(8) %call1.i105, ptr noundef nonnull @.str.338, i64 noundef 7)
          to label %invoke.cont18 unwind label %lpad9

invoke.cont18:                                    ; preds = %invoke.cont16
  %call21 = invoke noundef nonnull align 8 dereferenceable(8) ptr @_ZNSt3__113basic_ostreamIcNS_11char_traitsIcEEElsEi(ptr noundef nonnull align 8 dereferenceable(8) %call1.i108, i32 noundef 1)
          to label %invoke.cont20 unwind label %lpad9

invoke.cont20:                                    ; preds = %invoke.cont18
  %call.i110 = invoke noundef nonnull align 8 dereferenceable(8) ptr @_ZNSt3__14endlB7v170000IcNS_11char_traitsIcEEEERNS_13basic_ostreamIT_T0_EES7_(ptr noundef nonnull align 8 dereferenceable(8) %call21)
          to label %invoke.cont22 unwind label %lpad9

invoke.cont22:                                    ; preds = %invoke.cont20
  tail call void @exit(i32 noundef 1) #22
  unreachable

lpad9:                                            ; preds = %invoke.cont20, %invoke.cont16, %invoke.cont14, %invoke.cont12, %invoke.cont10, %if.then, %invoke.cont18
  %8 = landingpad { ptr, i32 }
          cleanup
  br label %_ZNSt3__16vectorIcNS_9allocatorIcEEED2B7v170000Ev.exit121

invoke.cont25:                                    ; preds = %for.cond.cleanup
  call void asm sideeffect "", "=*r|m,0,~{memory},~{dirflag},~{fpsr},~{flags}"(ptr nonnull elementtype(ptr) %p, ptr nonnull %1) #20, !srcloc !10
  call void asm sideeffect "", "=*r|m,0,~{memory},~{dirflag},~{fpsr},~{flags}"(ptr nonnull elementtype(ptr) %q, ptr nonnull %2) #20, !srcloc !10
  %error_occurred_.i.i = getelementptr inbounds %"class.benchmark::State", ptr %state, i64 0, i32 5
  %9 = load i8, ptr %error_occurred_.i.i, align 2, !tbaa !11, !range !26, !noundef !27
  %max_iterations.i.i = getelementptr inbounds %"class.benchmark::State", ptr %state, i64 0, i32 2
  %10 = load i64, ptr %max_iterations.i.i, align 8
  invoke void @_ZN9benchmark5State16StartKeepRunningEv(ptr noundef nonnull align 8 dereferenceable(120) %state)
          to label %for.cond30.preheader unwind label %lpad27

for.cond30.preheader:                             ; preds = %invoke.cont25
  %tobool.not.i.i = icmp ne i8 %9, 0
  %cmp.not.i.not136143 = icmp eq i64 %10, 0
  %cmp.not.i.not136 = select i1 %tobool.not.i.i, i1 true, i1 %cmp.not.i.not136143
  br i1 %cmp.not.i.not136, label %if.end.i, label %for.body34, !prof !28

if.end.i:                                         ; preds = %for.cond.cleanup39, %for.cond30.preheader
  invoke void @_ZN9benchmark5State17FinishKeepRunningEv(ptr noundef nonnull align 8 dereferenceable(120) %state)
          to label %for.cond.cleanup33 unwind label %lpad27

for.cond.cleanup33:                               ; preds = %if.end.i
  %started_.i = getelementptr inbounds %"class.benchmark::State", ptr %state, i64 0, i32 3
  %11 = load i8, ptr %started_.i, align 8, !tbaa !29, !range !26, !noundef !27
  %tobool.not.i = icmp eq i8 %11, 0
  br i1 %tobool.not.i, label %_ZNK9benchmark5State10iterationsEv.exit, label %if.end.i85, !prof !28

if.end.i85:                                       ; preds = %for.cond.cleanup33
  %12 = load i64, ptr %max_iterations.i.i, align 8, !tbaa !30
  %13 = load i64, ptr %state, align 8, !tbaa !31
  %sub.i = sub i64 %12, %13
  %batch_leftover_.i = getelementptr inbounds %"class.benchmark::State", ptr %state, i64 0, i32 1
  %14 = load i64, ptr %batch_leftover_.i, align 8, !tbaa !32
  %add.i = add i64 %sub.i, %14
  %15 = shl i64 %add.i, 12
  %16 = sitofp i64 %15 to double
  br label %_ZNK9benchmark5State10iterationsEv.exit

_ZNK9benchmark5State10iterationsEv.exit:          ; preds = %for.cond.cleanup33, %if.end.i85
  %retval.0.i = phi double [ %16, %if.end.i85 ], [ 0.000000e+00, %for.cond.cleanup33 ]
  %counters.i = getelementptr inbounds %"class.benchmark::State", ptr %state, i64 0, i32 8
  call void @llvm.lifetime.start.p0(i64 24, ptr nonnull %ref.tmp2.i) #20
  store i8 32, ptr %ref.tmp2.i, align 8
  %__data_.i.i.i.i = getelementptr inbounds %"struct.std::__1::basic_string<char>::__short", ptr %ref.tmp2.i, i64 0, i32 2
  %cmp.i24.i.i.i = icmp ugt ptr %__data_.i.i.i.i, @.str.341
  %add.ptr.i.i.i.i = getelementptr inbounds %"struct.std::__1::basic_string<char>::__short", ptr %ref.tmp2.i, i64 0, i32 2, i64 16
  %cmp1.i.i.i.i = icmp ule ptr %add.ptr.i.i.i.i, @.str.341
  %17 = or i1 %cmp.i24.i.i.i, %cmp1.i.i.i.i
  call void @llvm.assume(i1 %17)
  call void @llvm.memcpy.p0.p0.i64(ptr noundef nonnull align 1 dereferenceable(16) %__data_.i.i.i.i, ptr noundef nonnull align 1 dereferenceable(16) @.str.341, i64 16, i1 false)
  store i8 0, ptr %add.ptr.i.i.i.i, align 1, !tbaa !5
  call void @llvm.lifetime.start.p0(i64 8, ptr nonnull %__parent.i.i.i) #20
  %call.i.i6.i = invoke noundef nonnull align 8 dereferenceable(8) ptr @_ZNSt3__16__treeINS_12__value_typeINS_12basic_stringIcNS_11char_traitsIcEENS_9allocatorIcEEEEN9benchmark7CounterEEENS_19__map_value_compareIS7_SA_NS_4lessIS7_EELb1EEENS5_ISA_EEE12__find_equalIS7_EERPNS_16__tree_node_baseIPvEERPNS_15__tree_end_nodeISL_EERKT_(ptr noundef nonnull align 8 dereferenceable(24) %counters.i, ptr noundef nonnull align 8 dereferenceable(8) %__parent.i.i.i, ptr noundef nonnull align 8 dereferenceable(24) %ref.tmp2.i)
          to label %call.i.i.noexc.i unwind label %lpad.i

call.i.i.noexc.i:                                 ; preds = %_ZNK9benchmark5State10iterationsEv.exit
  %18 = load ptr, ptr %call.i.i6.i, align 8, !tbaa !8
  %cmp.i.i4.i = icmp eq ptr %18, null
  br i1 %cmp.i.i4.i, label %if.then.i.i5.i, label %invoke.cont.i

if.then.i.i5.i:                                   ; preds = %call.i.i.noexc.i
  %call.i.i.i.i.i.i.i7.i = invoke noalias noundef nonnull dereferenceable(72) ptr @_Znwm(i64 noundef 72) #19
          to label %call.i.i.i.i.i.i.i.noexc.i unwind label %lpad.i

call.i.i.i.i.i.i.i.noexc.i:                       ; preds = %if.then.i.i5.i
  %__value_.i.i.i.i = getelementptr inbounds %"class.std::__1::__tree_node", ptr %call.i.i.i.i.i.i.i7.i, i64 0, i32 1
  call void @llvm.memcpy.p0.p0.i64(ptr noundef nonnull align 8 dereferenceable(24) %__value_.i.i.i.i, ptr noundef nonnull align 8 dereferenceable(24) %ref.tmp2.i, i64 24, i1 false), !noalias !76
  call void @llvm.memset.p0.i64(ptr noundef nonnull align 8 dereferenceable(24) %ref.tmp2.i, i8 0, i64 24, i1 false), !noalias !76
  %second.i.i.i.i.i.i.i.i = getelementptr inbounds %"class.std::__1::__tree_node", ptr %call.i.i.i.i.i.i.i7.i, i64 0, i32 1, i32 0, i32 1
  store double 0.000000e+00, ptr %second.i.i.i.i.i.i.i.i, align 8, !tbaa !36, !noalias !76
  %flags.i.i.i.i.i.i.i.i.i = getelementptr inbounds %"class.std::__1::__tree_node", ptr %call.i.i.i.i.i.i.i7.i, i64 0, i32 1, i32 0, i32 1, i32 1
  store i32 0, ptr %flags.i.i.i.i.i.i.i.i.i, align 8, !tbaa !41, !noalias !76
  %oneK.i.i.i.i.i.i.i.i.i = getelementptr inbounds %"class.std::__1::__tree_node", ptr %call.i.i.i.i.i.i.i7.i, i64 0, i32 1, i32 0, i32 1, i32 2
  store i32 1000, ptr %oneK.i.i.i.i.i.i.i.i.i, align 4, !tbaa !42, !noalias !76
  %19 = load ptr, ptr %__parent.i.i.i, align 8, !tbaa !8
  %__parent_.i.i.i.i = getelementptr inbounds %"class.std::__1::__tree_node_base", ptr %call.i.i.i.i.i.i.i7.i, i64 0, i32 2
  call void @llvm.memset.p0.i64(ptr noundef nonnull align 8 dereferenceable(16) %call.i.i.i.i.i.i.i7.i, i8 0, i64 16, i1 false)
  store ptr %19, ptr %__parent_.i.i.i.i, align 8, !tbaa !43
  store ptr %call.i.i.i.i.i.i.i7.i, ptr %call.i.i6.i, align 8, !tbaa !8
  %20 = load ptr, ptr %counters.i, align 8, !tbaa !8
  %21 = load ptr, ptr %20, align 8, !tbaa !45
  %cmp.not.i.i.i.i = icmp eq ptr %21, null
  br i1 %cmp.not.i.i.i.i, label %_ZNSt3__110unique_ptrINS_11__tree_nodeINS_12__value_typeINS_12basic_stringIcNS_11char_traitsIcEENS_9allocatorIcEEEEN9benchmark7CounterEEEPvEENS_22__tree_node_destructorINS6_ISD_EEEEED2B7v170000Ev.exit.i.i.i, label %if.then.i.i.i.i

if.then.i.i.i.i:                                  ; preds = %call.i.i.i.i.i.i.i.noexc.i
  store ptr %21, ptr %counters.i, align 8, !tbaa !8
  %.pre.i.i.i.i = load ptr, ptr %call.i.i6.i, align 8, !tbaa !8
  br label %_ZNSt3__110unique_ptrINS_11__tree_nodeINS_12__value_typeINS_12basic_stringIcNS_11char_traitsIcEENS_9allocatorIcEEEEN9benchmark7CounterEEEPvEENS_22__tree_node_destructorINS6_ISD_EEEEED2B7v170000Ev.exit.i.i.i

_ZNSt3__110unique_ptrINS_11__tree_nodeINS_12__value_typeINS_12basic_stringIcNS_11char_traitsIcEENS_9allocatorIcEEEEN9benchmark7CounterEEEPvEENS_22__tree_node_destructorINS6_ISD_EEEEED2B7v170000Ev.exit.i.i.i: ; preds = %if.then.i.i.i.i, %call.i.i.i.i.i.i.i.noexc.i
  %22 = phi ptr [ %.pre.i.i.i.i, %if.then.i.i.i.i ], [ %call.i.i.i.i.i.i.i7.i, %call.i.i.i.i.i.i.i.noexc.i ]
  %__pair1_.i.i10.i.i.i = getelementptr inbounds %"class.benchmark::State", ptr %state, i64 0, i32 8, i32 0, i32 1
  %23 = load ptr, ptr %__pair1_.i.i10.i.i.i, align 8, !tbaa !45
  call void @_ZNSt3__127__tree_balance_after_insertB7v170000IPNS_16__tree_node_baseIPvEEEEvT_S5_(ptr noundef %23, ptr noundef %22) #20
  %__pair3_.i.i.i.i.i = getelementptr inbounds %"class.benchmark::State", ptr %state, i64 0, i32 8, i32 0, i32 2
  %24 = load i64, ptr %__pair3_.i.i.i.i.i, align 8, !tbaa !46
  %inc.i.i.i.i = add i64 %24, 1
  store i64 %inc.i.i.i.i, ptr %__pair3_.i.i.i.i.i, align 8, !tbaa !46
  br label %invoke.cont.i

invoke.cont.i:                                    ; preds = %_ZNSt3__110unique_ptrINS_11__tree_nodeINS_12__value_typeINS_12basic_stringIcNS_11char_traitsIcEENS_9allocatorIcEEEEN9benchmark7CounterEEEPvEENS_22__tree_node_destructorINS6_ISD_EEEEED2B7v170000Ev.exit.i.i.i, %call.i.i.noexc.i
  %__r.0.i.i.i = phi ptr [ %call.i.i.i.i.i.i.i7.i, %_ZNSt3__110unique_ptrINS_11__tree_nodeINS_12__value_typeINS_12basic_stringIcNS_11char_traitsIcEENS_9allocatorIcEEEEN9benchmark7CounterEEEPvEENS_22__tree_node_destructorINS6_ISD_EEEEED2B7v170000Ev.exit.i.i.i ], [ %18, %call.i.i.noexc.i ]
  call void @llvm.lifetime.end.p0(i64 8, ptr nonnull %__parent.i.i.i) #20
  %second.i.i = getelementptr inbounds %"class.std::__1::__tree_node", ptr %__r.0.i.i.i, i64 0, i32 1, i32 0, i32 1
  store double %retval.0.i, ptr %second.i.i, align 8, !tbaa.struct !47
  %ref.tmp.sroa.5.0.second.i.sroa_idx.i = getelementptr inbounds %"class.std::__1::__tree_node", ptr %__r.0.i.i.i, i64 0, i32 1, i32 0, i32 1, i32 1
  store i32 1, ptr %ref.tmp.sroa.5.0.second.i.sroa_idx.i, align 8, !tbaa.struct !51
  %ref.tmp.sroa.6.0.second.i.sroa_idx.i = getelementptr inbounds %"class.std::__1::__tree_node", ptr %__r.0.i.i.i, i64 0, i32 1, i32 0, i32 1, i32 2
  store i32 1024, ptr %ref.tmp.sroa.6.0.second.i.sroa_idx.i, align 4, !tbaa.struct !52
  %bf.load.i.i.i = load i8, ptr %ref.tmp2.i, align 8
  %bf.clear.i.i.i = and i8 %bf.load.i.i.i, 1
  %tobool.i.not.i.i = icmp eq i8 %bf.clear.i.i.i, 0
  br i1 %tobool.i.not.i.i, label %_ZNSt3__16vectorIcNS_9allocatorIcEEED2B7v170000Ev.exit117, label %if.then.i.i

if.then.i.i:                                      ; preds = %invoke.cont.i
  %__data_.i.i.i = getelementptr inbounds %"struct.std::__1::basic_string<char>::__long", ptr %ref.tmp2.i, i64 0, i32 2
  %25 = load ptr, ptr %__data_.i.i.i, align 8, !tbaa !5
  call void @_ZdlPv(ptr noundef %25) #23
  br label %_ZNSt3__16vectorIcNS_9allocatorIcEEED2B7v170000Ev.exit117

lpad.i:                                           ; preds = %if.then.i.i5.i, %_ZNK9benchmark5State10iterationsEv.exit
  %26 = landingpad { ptr, i32 }
          cleanup
  %bf.load.i.i8.i = load i8, ptr %ref.tmp2.i, align 8
  %bf.clear.i.i9.i = and i8 %bf.load.i.i8.i, 1
  %tobool.i.not.i10.i = icmp eq i8 %bf.clear.i.i9.i, 0
  br i1 %tobool.i.not.i10.i, label %_ZNSt3__112basic_stringIcNS_11char_traitsIcEENS_9allocatorIcEEED2Ev.exit13.i, label %if.then.i12.i

if.then.i12.i:                                    ; preds = %lpad.i
  %__data_.i.i11.i = getelementptr inbounds %"struct.std::__1::basic_string<char>::__long", ptr %ref.tmp2.i, i64 0, i32 2
  %27 = load ptr, ptr %__data_.i.i11.i, align 8, !tbaa !5
  call void @_ZdlPv(ptr noundef %27) #23
  br label %_ZNSt3__112basic_stringIcNS_11char_traitsIcEENS_9allocatorIcEEED2Ev.exit13.i

_ZNSt3__112basic_stringIcNS_11char_traitsIcEENS_9allocatorIcEEED2Ev.exit13.i: ; preds = %if.then.i12.i, %lpad.i
  call void @llvm.lifetime.end.p0(i64 24, ptr nonnull %ref.tmp2.i) #20
  br label %_ZNSt3__16vectorIcNS_9allocatorIcEEED2B7v170000Ev.exit121

lpad27:                                           ; preds = %if.end.i, %invoke.cont25
  %28 = landingpad { ptr, i32 }
          cleanup
  br label %_ZNSt3__16vectorIcNS_9allocatorIcEEED2B7v170000Ev.exit121

for.body34:                                       ; preds = %for.cond30.preheader, %for.cond.cleanup39
  %__begin1.sroa.0.0137 = phi i64 [ %dec.i, %for.cond.cleanup39 ], [ %10, %for.cond30.preheader ]
  fence syncscope("singlethread") acq_rel
  br label %for.body40

for.cond.cleanup39:                               ; preds = %for.body40
  %dec.i = add i64 %__begin1.sroa.0.0137, -1
  %cmp.not.i.not = icmp eq i64 %dec.i, 0
  br i1 %cmp.not.i.not, label %if.end.i, label %for.body34, !prof !28

for.body40:                                       ; preds = %for.body34, %for.body40
  %indvars.iv139 = phi i64 [ 0, %for.body34 ], [ %indvars.iv.next140, %for.body40 ]
  call void @llvm.lifetime.start.p0(i64 1, ptr nonnull %res) #20
  %29 = load ptr, ptr %p, align 8, !tbaa !8
  %add.ptr43 = getelementptr inbounds i8, ptr %29, i64 %indvars.iv139
  %30 = load ptr, ptr %q, align 8, !tbaa !8
  %add.ptr46 = getelementptr inbounds i8, ptr %30, i64 %indvars.iv139
  %lhsc80 = load i8, ptr %add.ptr43, align 1
  %rhsc82 = load i8, ptr %add.ptr46, align 1
  %cmp.i112 = icmp ult i8 %lhsc80, %rhsc82
  %frombool = zext i1 %cmp.i112 to i8
  store i8 %frombool, ptr %res, align 1, !tbaa !53
  call void asm sideeffect "", "=*r|m,0,~{memory},~{dirflag},~{fpsr},~{flags}"(ptr nonnull elementtype(i8) %res, i1 %cmp.i112) #20, !srcloc !10
  call void @llvm.lifetime.end.p0(i64 1, ptr nonnull %res) #20
  %indvars.iv.next140 = add nuw nsw i64 %indvars.iv139, 1
  %exitcond142.not = icmp eq i64 %indvars.iv.next140, 4096
  br i1 %exitcond142.not, label %for.cond.cleanup39, label %for.body40, !llvm.loop !79

_ZNSt3__16vectorIcNS_9allocatorIcEEED2B7v170000Ev.exit117: ; preds = %if.then.i.i, %invoke.cont.i
  call void @llvm.lifetime.end.p0(i64 24, ptr nonnull %ref.tmp2.i) #20
  call void @llvm.lifetime.end.p0(i64 8, ptr nonnull %q) #20
  call void @llvm.lifetime.end.p0(i64 8, ptr nonnull %p) #20
  call void @_ZdlPv(ptr noundef nonnull %call.i.i.i.i.i8.i88) #23
  call void @_ZdlPv(ptr noundef nonnull %call.i.i.i.i.i8.i) #23
  ret void

_ZNSt3__16vectorIcNS_9allocatorIcEEED2B7v170000Ev.exit121: ; preds = %lpad27, %lpad9, %_ZNSt3__112basic_stringIcNS_11char_traitsIcEENS_9allocatorIcEEED2Ev.exit13.i
  %.pn77 = phi { ptr, i32 } [ %8, %lpad9 ], [ %26, %_ZNSt3__112basic_stringIcNS_11char_traitsIcEENS_9allocatorIcEEED2Ev.exit13.i ], [ %28, %lpad27 ]
  call void @llvm.lifetime.end.p0(i64 8, ptr nonnull %q) #20
  call void @llvm.lifetime.end.p0(i64 8, ptr nonnull %p) #20
  call void @_ZdlPv(ptr noundef nonnull %call.i.i.i.i.i8.i88) #23
  br label %_ZNSt3__16vectorIcNS_9allocatorIcEEED2B7v170000Ev.exit125

_ZNSt3__16vectorIcNS_9allocatorIcEEED2B7v170000Ev.exit125: ; preds = %_ZNSt3__128__exception_guard_exceptionsINS_6vectorIcNS_9allocatorIcEEE16__destroy_vectorEED2B7v170000Ev.exit.i93, %_ZNSt3__16vectorIcNS_9allocatorIcEEED2B7v170000Ev.exit121
  %.pn77.pn = phi { ptr, i32 } [ %.pn77, %_ZNSt3__16vectorIcNS_9allocatorIcEEED2B7v170000Ev.exit121 ], [ %0, %_ZNSt3__128__exception_guard_exceptionsINS_6vectorIcNS_9allocatorIcEEE16__destroy_vectorEED2B7v170000Ev.exit.i93 ]
  call void @_ZdlPv(ptr noundef nonnull %call.i.i.i.i.i8.i) #23
  resume { ptr, i32 } %.pn77.pn
}

; Function Attrs: uwtable
define linkonce_odr dso_local void @_Z9BM_MemCmpILi1E12LessThanZero3MidEvRN9benchmark5StateE(ptr noundef nonnull align 8 dereferenceable(120) %state) #4 comdat personality ptr @__gxx_personality_v0 {
entry:
  %__parent.i.i.i = alloca ptr, align 8
  %ref.tmp2.i = alloca %"class.std::__1::basic_string", align 8
  %p = alloca ptr, align 8
  %q = alloca ptr, align 8
  %res = alloca i8, align 1
  %call.i.i.i.i.i8.i = tail call noalias noundef nonnull dereferenceable(4096) ptr @_Znwm(i64 noundef 4096) #19
  tail call void @llvm.memset.p0.i64(ptr noundef nonnull align 1 dereferenceable(4096) %call.i.i.i.i.i8.i, i8 0, i64 4096, i1 false), !tbaa !5
  %call.i.i.i.i.i8.i88 = invoke noalias noundef nonnull dereferenceable(4096) ptr @_Znwm(i64 noundef 4096) #19
          to label %invoke.cont unwind label %_ZNSt3__128__exception_guard_exceptionsINS_6vectorIcNS_9allocatorIcEEE16__destroy_vectorEED2B7v170000Ev.exit.i93

_ZNSt3__128__exception_guard_exceptionsINS_6vectorIcNS_9allocatorIcEEE16__destroy_vectorEED2B7v170000Ev.exit.i93: ; preds = %entry
  %0 = landingpad { ptr, i32 }
          cleanup
  br label %_ZNSt3__16vectorIcNS_9allocatorIcEEED2B7v170000Ev.exit125

invoke.cont:                                      ; preds = %entry
  tail call void @llvm.memset.p0.i64(ptr noundef nonnull align 1 dereferenceable(4096) %call.i.i.i.i.i8.i88, i8 0, i64 4096, i1 false), !tbaa !5
  call void @llvm.lifetime.start.p0(i64 8, ptr nonnull %p) #20
  store ptr %call.i.i.i.i.i8.i, ptr %p, align 8, !tbaa !8
  call void @llvm.lifetime.start.p0(i64 8, ptr nonnull %q) #20
  store ptr %call.i.i.i.i.i8.i88, ptr %q, align 8, !tbaa !8
  br label %for.body

for.cond.cleanup:                                 ; preds = %for.body
  %1 = load ptr, ptr %p, align 8, !tbaa !8
  %2 = load ptr, ptr %q, align 8, !tbaa !8
  %call2 = tail call noundef i32 @_Z10RealMemCmpPKcS0_m(ptr noundef %1, ptr noundef %2, i64 noundef 1) #21
  %cmp.i = icmp slt i32 %call2, 0
  %lhsc = load i8, ptr %1, align 1
  %rhsc = load i8, ptr %2, align 1
  %cmp.i96 = icmp ult i8 %lhsc, %rhsc
  %3 = xor i1 %cmp.i, %cmp.i96
  br i1 %3, label %if.then, label %invoke.cont25

for.body:                                         ; preds = %for.body, %invoke.cont
  %indvars.iv = phi i64 [ 0, %invoke.cont ], [ %indvars.iv.next.3, %for.body ]
  %4 = load ptr, ptr %p, align 8, !tbaa !8
  %add.ptr = getelementptr inbounds i8, ptr %4, i64 %indvars.iv
  store i8 -1, ptr %add.ptr, align 1, !tbaa !5
  %indvars.iv.next = or i64 %indvars.iv, 1
  %5 = load ptr, ptr %p, align 8, !tbaa !8
  %add.ptr.1 = getelementptr inbounds i8, ptr %5, i64 %indvars.iv.next
  store i8 -1, ptr %add.ptr.1, align 1, !tbaa !5
  %indvars.iv.next.1 = or i64 %indvars.iv, 2
  %6 = load ptr, ptr %p, align 8, !tbaa !8
  %add.ptr.2 = getelementptr inbounds i8, ptr %6, i64 %indvars.iv.next.1
  store i8 -1, ptr %add.ptr.2, align 1, !tbaa !5
  %indvars.iv.next.2 = or i64 %indvars.iv, 3
  %7 = load ptr, ptr %p, align 8, !tbaa !8
  %add.ptr.3 = getelementptr inbounds i8, ptr %7, i64 %indvars.iv.next.2
  store i8 -1, ptr %add.ptr.3, align 1, !tbaa !5
  %indvars.iv.next.3 = add nuw nsw i64 %indvars.iv, 4
  %exitcond.not.3 = icmp eq i64 %indvars.iv.next.3, 4096
  br i1 %exitcond.not.3, label %for.cond.cleanup, label %for.body, !llvm.loop !80

if.then:                                          ; preds = %for.cond.cleanup
  %call1.i97 = invoke noundef nonnull align 8 dereferenceable(8) ptr @_ZNSt3__124__put_character_sequenceB7v170000IcNS_11char_traitsIcEEEERNS_13basic_ostreamIT_T0_EES7_PKS4_m(ptr noundef nonnull align 8 dereferenceable(8) @_ZNSt3__14cerrE, ptr noundef nonnull @.str.336, i64 noundef 25)
          to label %invoke.cont10 unwind label %lpad9

invoke.cont10:                                    ; preds = %if.then
  %call1.i99 = invoke noundef nonnull align 8 dereferenceable(8) ptr @_ZNSt3__124__put_character_sequenceB7v170000IcNS_11char_traitsIcEEEERNS_13basic_ostreamIT_T0_EES7_PKS4_m(ptr noundef nonnull align 8 dereferenceable(8) %call1.i97, ptr noundef nonnull @_ZN12LessThanZero8kDisplayE, i64 noundef 12)
          to label %invoke.cont12 unwind label %lpad9

invoke.cont12:                                    ; preds = %invoke.cont10
  %call1.i102 = invoke noundef nonnull align 8 dereferenceable(8) ptr @_ZNSt3__124__put_character_sequenceB7v170000IcNS_11char_traitsIcEEEERNS_13basic_ostreamIT_T0_EES7_PKS4_m(ptr noundef nonnull align 8 dereferenceable(8) %call1.i99, ptr noundef nonnull @.str.337, i64 noundef 5)
          to label %invoke.cont14 unwind label %lpad9

invoke.cont14:                                    ; preds = %invoke.cont12
  %call1.i105 = invoke noundef nonnull align 8 dereferenceable(8) ptr @_ZNSt3__124__put_character_sequenceB7v170000IcNS_11char_traitsIcEEEERNS_13basic_ostreamIT_T0_EES7_PKS4_m(ptr noundef nonnull align 8 dereferenceable(8) %call1.i102, ptr noundef nonnull @_ZN3Mid8kDisplayE, i64 noundef 3)
          to label %invoke.cont16 unwind label %lpad9

invoke.cont16:                                    ; preds = %invoke.cont14
  %call1.i108 = invoke noundef nonnull align 8 dereferenceable(8) ptr @_ZNSt3__124__put_character_sequenceB7v170000IcNS_11char_traitsIcEEEERNS_13basic_ostreamIT_T0_EES7_PKS4_m(ptr noundef nonnull align 8 dereferenceable(8) %call1.i105, ptr noundef nonnull @.str.338, i64 noundef 7)
          to label %invoke.cont18 unwind label %lpad9

invoke.cont18:                                    ; preds = %invoke.cont16
  %call21 = invoke noundef nonnull align 8 dereferenceable(8) ptr @_ZNSt3__113basic_ostreamIcNS_11char_traitsIcEEElsEi(ptr noundef nonnull align 8 dereferenceable(8) %call1.i108, i32 noundef 1)
          to label %invoke.cont20 unwind label %lpad9

invoke.cont20:                                    ; preds = %invoke.cont18
  %call.i110 = invoke noundef nonnull align 8 dereferenceable(8) ptr @_ZNSt3__14endlB7v170000IcNS_11char_traitsIcEEEERNS_13basic_ostreamIT_T0_EES7_(ptr noundef nonnull align 8 dereferenceable(8) %call21)
          to label %invoke.cont22 unwind label %lpad9

invoke.cont22:                                    ; preds = %invoke.cont20
  tail call void @exit(i32 noundef 1) #22
  unreachable

lpad9:                                            ; preds = %invoke.cont20, %invoke.cont16, %invoke.cont14, %invoke.cont12, %invoke.cont10, %if.then, %invoke.cont18
  %8 = landingpad { ptr, i32 }
          cleanup
  br label %_ZNSt3__16vectorIcNS_9allocatorIcEEED2B7v170000Ev.exit121

invoke.cont25:                                    ; preds = %for.cond.cleanup
  call void asm sideeffect "", "=*r|m,0,~{memory},~{dirflag},~{fpsr},~{flags}"(ptr nonnull elementtype(ptr) %p, ptr nonnull %1) #20, !srcloc !10
  call void asm sideeffect "", "=*r|m,0,~{memory},~{dirflag},~{fpsr},~{flags}"(ptr nonnull elementtype(ptr) %q, ptr nonnull %2) #20, !srcloc !10
  %error_occurred_.i.i = getelementptr inbounds %"class.benchmark::State", ptr %state, i64 0, i32 5
  %9 = load i8, ptr %error_occurred_.i.i, align 2, !tbaa !11, !range !26, !noundef !27
  %max_iterations.i.i = getelementptr inbounds %"class.benchmark::State", ptr %state, i64 0, i32 2
  %10 = load i64, ptr %max_iterations.i.i, align 8
  invoke void @_ZN9benchmark5State16StartKeepRunningEv(ptr noundef nonnull align 8 dereferenceable(120) %state)
          to label %for.cond30.preheader unwind label %lpad27

for.cond30.preheader:                             ; preds = %invoke.cont25
  %tobool.not.i.i = icmp ne i8 %9, 0
  %cmp.not.i.not136143 = icmp eq i64 %10, 0
  %cmp.not.i.not136 = select i1 %tobool.not.i.i, i1 true, i1 %cmp.not.i.not136143
  br i1 %cmp.not.i.not136, label %if.end.i, label %for.body34, !prof !28

if.end.i:                                         ; preds = %for.cond.cleanup39, %for.cond30.preheader
  invoke void @_ZN9benchmark5State17FinishKeepRunningEv(ptr noundef nonnull align 8 dereferenceable(120) %state)
          to label %for.cond.cleanup33 unwind label %lpad27

for.cond.cleanup33:                               ; preds = %if.end.i
  %started_.i = getelementptr inbounds %"class.benchmark::State", ptr %state, i64 0, i32 3
  %11 = load i8, ptr %started_.i, align 8, !tbaa !29, !range !26, !noundef !27
  %tobool.not.i = icmp eq i8 %11, 0
  br i1 %tobool.not.i, label %_ZNK9benchmark5State10iterationsEv.exit, label %if.end.i85, !prof !28

if.end.i85:                                       ; preds = %for.cond.cleanup33
  %12 = load i64, ptr %max_iterations.i.i, align 8, !tbaa !30
  %13 = load i64, ptr %state, align 8, !tbaa !31
  %sub.i = sub i64 %12, %13
  %batch_leftover_.i = getelementptr inbounds %"class.benchmark::State", ptr %state, i64 0, i32 1
  %14 = load i64, ptr %batch_leftover_.i, align 8, !tbaa !32
  %add.i = add i64 %sub.i, %14
  %15 = shl i64 %add.i, 12
  %16 = sitofp i64 %15 to double
  br label %_ZNK9benchmark5State10iterationsEv.exit

_ZNK9benchmark5State10iterationsEv.exit:          ; preds = %for.cond.cleanup33, %if.end.i85
  %retval.0.i = phi double [ %16, %if.end.i85 ], [ 0.000000e+00, %for.cond.cleanup33 ]
  %counters.i = getelementptr inbounds %"class.benchmark::State", ptr %state, i64 0, i32 8
  call void @llvm.lifetime.start.p0(i64 24, ptr nonnull %ref.tmp2.i) #20
  store i8 32, ptr %ref.tmp2.i, align 8
  %__data_.i.i.i.i = getelementptr inbounds %"struct.std::__1::basic_string<char>::__short", ptr %ref.tmp2.i, i64 0, i32 2
  %cmp.i24.i.i.i = icmp ugt ptr %__data_.i.i.i.i, @.str.341
  %add.ptr.i.i.i.i = getelementptr inbounds %"struct.std::__1::basic_string<char>::__short", ptr %ref.tmp2.i, i64 0, i32 2, i64 16
  %cmp1.i.i.i.i = icmp ule ptr %add.ptr.i.i.i.i, @.str.341
  %17 = or i1 %cmp.i24.i.i.i, %cmp1.i.i.i.i
  call void @llvm.assume(i1 %17)
  call void @llvm.memcpy.p0.p0.i64(ptr noundef nonnull align 1 dereferenceable(16) %__data_.i.i.i.i, ptr noundef nonnull align 1 dereferenceable(16) @.str.341, i64 16, i1 false)
  store i8 0, ptr %add.ptr.i.i.i.i, align 1, !tbaa !5
  call void @llvm.lifetime.start.p0(i64 8, ptr nonnull %__parent.i.i.i) #20
  %call.i.i6.i = invoke noundef nonnull align 8 dereferenceable(8) ptr @_ZNSt3__16__treeINS_12__value_typeINS_12basic_stringIcNS_11char_traitsIcEENS_9allocatorIcEEEEN9benchmark7CounterEEENS_19__map_value_compareIS7_SA_NS_4lessIS7_EELb1EEENS5_ISA_EEE12__find_equalIS7_EERPNS_16__tree_node_baseIPvEERPNS_15__tree_end_nodeISL_EERKT_(ptr noundef nonnull align 8 dereferenceable(24) %counters.i, ptr noundef nonnull align 8 dereferenceable(8) %__parent.i.i.i, ptr noundef nonnull align 8 dereferenceable(24) %ref.tmp2.i)
          to label %call.i.i.noexc.i unwind label %lpad.i

call.i.i.noexc.i:                                 ; preds = %_ZNK9benchmark5State10iterationsEv.exit
  %18 = load ptr, ptr %call.i.i6.i, align 8, !tbaa !8
  %cmp.i.i4.i = icmp eq ptr %18, null
  br i1 %cmp.i.i4.i, label %if.then.i.i5.i, label %invoke.cont.i

if.then.i.i5.i:                                   ; preds = %call.i.i.noexc.i
  %call.i.i.i.i.i.i.i7.i = invoke noalias noundef nonnull dereferenceable(72) ptr @_Znwm(i64 noundef 72) #19
          to label %call.i.i.i.i.i.i.i.noexc.i unwind label %lpad.i

call.i.i.i.i.i.i.i.noexc.i:                       ; preds = %if.then.i.i5.i
  %__value_.i.i.i.i = getelementptr inbounds %"class.std::__1::__tree_node", ptr %call.i.i.i.i.i.i.i7.i, i64 0, i32 1
  call void @llvm.memcpy.p0.p0.i64(ptr noundef nonnull align 8 dereferenceable(24) %__value_.i.i.i.i, ptr noundef nonnull align 8 dereferenceable(24) %ref.tmp2.i, i64 24, i1 false), !noalias !81
  call void @llvm.memset.p0.i64(ptr noundef nonnull align 8 dereferenceable(24) %ref.tmp2.i, i8 0, i64 24, i1 false), !noalias !81
  %second.i.i.i.i.i.i.i.i = getelementptr inbounds %"class.std::__1::__tree_node", ptr %call.i.i.i.i.i.i.i7.i, i64 0, i32 1, i32 0, i32 1
  store double 0.000000e+00, ptr %second.i.i.i.i.i.i.i.i, align 8, !tbaa !36, !noalias !81
  %flags.i.i.i.i.i.i.i.i.i = getelementptr inbounds %"class.std::__1::__tree_node", ptr %call.i.i.i.i.i.i.i7.i, i64 0, i32 1, i32 0, i32 1, i32 1
  store i32 0, ptr %flags.i.i.i.i.i.i.i.i.i, align 8, !tbaa !41, !noalias !81
  %oneK.i.i.i.i.i.i.i.i.i = getelementptr inbounds %"class.std::__1::__tree_node", ptr %call.i.i.i.i.i.i.i7.i, i64 0, i32 1, i32 0, i32 1, i32 2
  store i32 1000, ptr %oneK.i.i.i.i.i.i.i.i.i, align 4, !tbaa !42, !noalias !81
  %19 = load ptr, ptr %__parent.i.i.i, align 8, !tbaa !8
  %__parent_.i.i.i.i = getelementptr inbounds %"class.std::__1::__tree_node_base", ptr %call.i.i.i.i.i.i.i7.i, i64 0, i32 2
  call void @llvm.memset.p0.i64(ptr noundef nonnull align 8 dereferenceable(16) %call.i.i.i.i.i.i.i7.i, i8 0, i64 16, i1 false)
  store ptr %19, ptr %__parent_.i.i.i.i, align 8, !tbaa !43
  store ptr %call.i.i.i.i.i.i.i7.i, ptr %call.i.i6.i, align 8, !tbaa !8
  %20 = load ptr, ptr %counters.i, align 8, !tbaa !8
  %21 = load ptr, ptr %20, align 8, !tbaa !45
  %cmp.not.i.i.i.i = icmp eq ptr %21, null
  br i1 %cmp.not.i.i.i.i, label %_ZNSt3__110unique_ptrINS_11__tree_nodeINS_12__value_typeINS_12basic_stringIcNS_11char_traitsIcEENS_9allocatorIcEEEEN9benchmark7CounterEEEPvEENS_22__tree_node_destructorINS6_ISD_EEEEED2B7v170000Ev.exit.i.i.i, label %if.then.i.i.i.i

if.then.i.i.i.i:                                  ; preds = %call.i.i.i.i.i.i.i.noexc.i
  store ptr %21, ptr %counters.i, align 8, !tbaa !8
  %.pre.i.i.i.i = load ptr, ptr %call.i.i6.i, align 8, !tbaa !8
  br label %_ZNSt3__110unique_ptrINS_11__tree_nodeINS_12__value_typeINS_12basic_stringIcNS_11char_traitsIcEENS_9allocatorIcEEEEN9benchmark7CounterEEEPvEENS_22__tree_node_destructorINS6_ISD_EEEEED2B7v170000Ev.exit.i.i.i

_ZNSt3__110unique_ptrINS_11__tree_nodeINS_12__value_typeINS_12basic_stringIcNS_11char_traitsIcEENS_9allocatorIcEEEEN9benchmark7CounterEEEPvEENS_22__tree_node_destructorINS6_ISD_EEEEED2B7v170000Ev.exit.i.i.i: ; preds = %if.then.i.i.i.i, %call.i.i.i.i.i.i.i.noexc.i
  %22 = phi ptr [ %.pre.i.i.i.i, %if.then.i.i.i.i ], [ %call.i.i.i.i.i.i.i7.i, %call.i.i.i.i.i.i.i.noexc.i ]
  %__pair1_.i.i10.i.i.i = getelementptr inbounds %"class.benchmark::State", ptr %state, i64 0, i32 8, i32 0, i32 1
  %23 = load ptr, ptr %__pair1_.i.i10.i.i.i, align 8, !tbaa !45
  call void @_ZNSt3__127__tree_balance_after_insertB7v170000IPNS_16__tree_node_baseIPvEEEEvT_S5_(ptr noundef %23, ptr noundef %22) #20
  %__pair3_.i.i.i.i.i = getelementptr inbounds %"class.benchmark::State", ptr %state, i64 0, i32 8, i32 0, i32 2
  %24 = load i64, ptr %__pair3_.i.i.i.i.i, align 8, !tbaa !46
  %inc.i.i.i.i = add i64 %24, 1
  store i64 %inc.i.i.i.i, ptr %__pair3_.i.i.i.i.i, align 8, !tbaa !46
  br label %invoke.cont.i

invoke.cont.i:                                    ; preds = %_ZNSt3__110unique_ptrINS_11__tree_nodeINS_12__value_typeINS_12basic_stringIcNS_11char_traitsIcEENS_9allocatorIcEEEEN9benchmark7CounterEEEPvEENS_22__tree_node_destructorINS6_ISD_EEEEED2B7v170000Ev.exit.i.i.i, %call.i.i.noexc.i
  %__r.0.i.i.i = phi ptr [ %call.i.i.i.i.i.i.i7.i, %_ZNSt3__110unique_ptrINS_11__tree_nodeINS_12__value_typeINS_12basic_stringIcNS_11char_traitsIcEENS_9allocatorIcEEEEN9benchmark7CounterEEEPvEENS_22__tree_node_destructorINS6_ISD_EEEEED2B7v170000Ev.exit.i.i.i ], [ %18, %call.i.i.noexc.i ]
  call void @llvm.lifetime.end.p0(i64 8, ptr nonnull %__parent.i.i.i) #20
  %second.i.i = getelementptr inbounds %"class.std::__1::__tree_node", ptr %__r.0.i.i.i, i64 0, i32 1, i32 0, i32 1
  store double %retval.0.i, ptr %second.i.i, align 8, !tbaa.struct !47
  %ref.tmp.sroa.5.0.second.i.sroa_idx.i = getelementptr inbounds %"class.std::__1::__tree_node", ptr %__r.0.i.i.i, i64 0, i32 1, i32 0, i32 1, i32 1
  store i32 1, ptr %ref.tmp.sroa.5.0.second.i.sroa_idx.i, align 8, !tbaa.struct !51
  %ref.tmp.sroa.6.0.second.i.sroa_idx.i = getelementptr inbounds %"class.std::__1::__tree_node", ptr %__r.0.i.i.i, i64 0, i32 1, i32 0, i32 1, i32 2
  store i32 1024, ptr %ref.tmp.sroa.6.0.second.i.sroa_idx.i, align 4, !tbaa.struct !52
  %bf.load.i.i.i = load i8, ptr %ref.tmp2.i, align 8
  %bf.clear.i.i.i = and i8 %bf.load.i.i.i, 1
  %tobool.i.not.i.i = icmp eq i8 %bf.clear.i.i.i, 0
  br i1 %tobool.i.not.i.i, label %_ZNSt3__16vectorIcNS_9allocatorIcEEED2B7v170000Ev.exit117, label %if.then.i.i

if.then.i.i:                                      ; preds = %invoke.cont.i
  %__data_.i.i.i = getelementptr inbounds %"struct.std::__1::basic_string<char>::__long", ptr %ref.tmp2.i, i64 0, i32 2
  %25 = load ptr, ptr %__data_.i.i.i, align 8, !tbaa !5
  call void @_ZdlPv(ptr noundef %25) #23
  br label %_ZNSt3__16vectorIcNS_9allocatorIcEEED2B7v170000Ev.exit117

lpad.i:                                           ; preds = %if.then.i.i5.i, %_ZNK9benchmark5State10iterationsEv.exit
  %26 = landingpad { ptr, i32 }
          cleanup
  %bf.load.i.i8.i = load i8, ptr %ref.tmp2.i, align 8
  %bf.clear.i.i9.i = and i8 %bf.load.i.i8.i, 1
  %tobool.i.not.i10.i = icmp eq i8 %bf.clear.i.i9.i, 0
  br i1 %tobool.i.not.i10.i, label %_ZNSt3__112basic_stringIcNS_11char_traitsIcEENS_9allocatorIcEEED2Ev.exit13.i, label %if.then.i12.i

if.then.i12.i:                                    ; preds = %lpad.i
  %__data_.i.i11.i = getelementptr inbounds %"struct.std::__1::basic_string<char>::__long", ptr %ref.tmp2.i, i64 0, i32 2
  %27 = load ptr, ptr %__data_.i.i11.i, align 8, !tbaa !5
  call void @_ZdlPv(ptr noundef %27) #23
  br label %_ZNSt3__112basic_stringIcNS_11char_traitsIcEENS_9allocatorIcEEED2Ev.exit13.i

_ZNSt3__112basic_stringIcNS_11char_traitsIcEENS_9allocatorIcEEED2Ev.exit13.i: ; preds = %if.then.i12.i, %lpad.i
  call void @llvm.lifetime.end.p0(i64 24, ptr nonnull %ref.tmp2.i) #20
  br label %_ZNSt3__16vectorIcNS_9allocatorIcEEED2B7v170000Ev.exit121

lpad27:                                           ; preds = %if.end.i, %invoke.cont25
  %28 = landingpad { ptr, i32 }
          cleanup
  br label %_ZNSt3__16vectorIcNS_9allocatorIcEEED2B7v170000Ev.exit121

for.body34:                                       ; preds = %for.cond30.preheader, %for.cond.cleanup39
  %__begin1.sroa.0.0137 = phi i64 [ %dec.i, %for.cond.cleanup39 ], [ %10, %for.cond30.preheader ]
  fence syncscope("singlethread") acq_rel
  br label %for.body40

for.cond.cleanup39:                               ; preds = %for.body40
  %dec.i = add i64 %__begin1.sroa.0.0137, -1
  %cmp.not.i.not = icmp eq i64 %dec.i, 0
  br i1 %cmp.not.i.not, label %if.end.i, label %for.body34, !prof !28

for.body40:                                       ; preds = %for.body34, %for.body40
  %indvars.iv139 = phi i64 [ 0, %for.body34 ], [ %indvars.iv.next140, %for.body40 ]
  call void @llvm.lifetime.start.p0(i64 1, ptr nonnull %res) #20
  %29 = load ptr, ptr %p, align 8, !tbaa !8
  %add.ptr43 = getelementptr inbounds i8, ptr %29, i64 %indvars.iv139
  %30 = load ptr, ptr %q, align 8, !tbaa !8
  %add.ptr46 = getelementptr inbounds i8, ptr %30, i64 %indvars.iv139
  %lhsc80 = load i8, ptr %add.ptr43, align 1
  %rhsc82 = load i8, ptr %add.ptr46, align 1
  %cmp.i112 = icmp ult i8 %lhsc80, %rhsc82
  %frombool = zext i1 %cmp.i112 to i8
  store i8 %frombool, ptr %res, align 1, !tbaa !53
  call void asm sideeffect "", "=*r|m,0,~{memory},~{dirflag},~{fpsr},~{flags}"(ptr nonnull elementtype(i8) %res, i1 %cmp.i112) #20, !srcloc !10
  call void @llvm.lifetime.end.p0(i64 1, ptr nonnull %res) #20
  %indvars.iv.next140 = add nuw nsw i64 %indvars.iv139, 1
  %exitcond142.not = icmp eq i64 %indvars.iv.next140, 4096
  br i1 %exitcond142.not, label %for.cond.cleanup39, label %for.body40, !llvm.loop !84

_ZNSt3__16vectorIcNS_9allocatorIcEEED2B7v170000Ev.exit117: ; preds = %if.then.i.i, %invoke.cont.i
  call void @llvm.lifetime.end.p0(i64 24, ptr nonnull %ref.tmp2.i) #20
  call void @llvm.lifetime.end.p0(i64 8, ptr nonnull %q) #20
  call void @llvm.lifetime.end.p0(i64 8, ptr nonnull %p) #20
  call void @_ZdlPv(ptr noundef nonnull %call.i.i.i.i.i8.i88) #23
  call void @_ZdlPv(ptr noundef nonnull %call.i.i.i.i.i8.i) #23
  ret void

_ZNSt3__16vectorIcNS_9allocatorIcEEED2B7v170000Ev.exit121: ; preds = %lpad27, %lpad9, %_ZNSt3__112basic_stringIcNS_11char_traitsIcEENS_9allocatorIcEEED2Ev.exit13.i
  %.pn77 = phi { ptr, i32 } [ %8, %lpad9 ], [ %26, %_ZNSt3__112basic_stringIcNS_11char_traitsIcEENS_9allocatorIcEEED2Ev.exit13.i ], [ %28, %lpad27 ]
  call void @llvm.lifetime.end.p0(i64 8, ptr nonnull %q) #20
  call void @llvm.lifetime.end.p0(i64 8, ptr nonnull %p) #20
  call void @_ZdlPv(ptr noundef nonnull %call.i.i.i.i.i8.i88) #23
  br label %_ZNSt3__16vectorIcNS_9allocatorIcEEED2B7v170000Ev.exit125

_ZNSt3__16vectorIcNS_9allocatorIcEEED2B7v170000Ev.exit125: ; preds = %_ZNSt3__128__exception_guard_exceptionsINS_6vectorIcNS_9allocatorIcEEE16__destroy_vectorEED2B7v170000Ev.exit.i93, %_ZNSt3__16vectorIcNS_9allocatorIcEEED2B7v170000Ev.exit121
  %.pn77.pn = phi { ptr, i32 } [ %.pn77, %_ZNSt3__16vectorIcNS_9allocatorIcEEED2B7v170000Ev.exit121 ], [ %0, %_ZNSt3__128__exception_guard_exceptionsINS_6vectorIcNS_9allocatorIcEEE16__destroy_vectorEED2B7v170000Ev.exit.i93 ]
  call void @_ZdlPv(ptr noundef nonnull %call.i.i.i.i.i8.i) #23
  resume { ptr, i32 } %.pn77.pn
}

; Function Attrs: uwtable
define linkonce_odr dso_local void @_Z9BM_MemCmpILi1E12LessThanZero4LastEvRN9benchmark5StateE(ptr noundef nonnull align 8 dereferenceable(120) %state) #4 comdat personality ptr @__gxx_personality_v0 {
entry:
  %__parent.i.i.i = alloca ptr, align 8
  %ref.tmp2.i = alloca %"class.std::__1::basic_string", align 8
  %p = alloca ptr, align 8
  %q = alloca ptr, align 8
  %res = alloca i8, align 1
  %call.i.i.i.i.i8.i = tail call noalias noundef nonnull dereferenceable(4096) ptr @_Znwm(i64 noundef 4096) #19
  tail call void @llvm.memset.p0.i64(ptr noundef nonnull align 1 dereferenceable(4096) %call.i.i.i.i.i8.i, i8 0, i64 4096, i1 false), !tbaa !5
  %call.i.i.i.i.i8.i88 = invoke noalias noundef nonnull dereferenceable(4096) ptr @_Znwm(i64 noundef 4096) #19
          to label %invoke.cont unwind label %_ZNSt3__128__exception_guard_exceptionsINS_6vectorIcNS_9allocatorIcEEE16__destroy_vectorEED2B7v170000Ev.exit.i93

_ZNSt3__128__exception_guard_exceptionsINS_6vectorIcNS_9allocatorIcEEE16__destroy_vectorEED2B7v170000Ev.exit.i93: ; preds = %entry
  %0 = landingpad { ptr, i32 }
          cleanup
  br label %_ZNSt3__16vectorIcNS_9allocatorIcEEED2B7v170000Ev.exit125

invoke.cont:                                      ; preds = %entry
  tail call void @llvm.memset.p0.i64(ptr noundef nonnull align 1 dereferenceable(4096) %call.i.i.i.i.i8.i88, i8 0, i64 4096, i1 false), !tbaa !5
  call void @llvm.lifetime.start.p0(i64 8, ptr nonnull %p) #20
  store ptr %call.i.i.i.i.i8.i, ptr %p, align 8, !tbaa !8
  call void @llvm.lifetime.start.p0(i64 8, ptr nonnull %q) #20
  store ptr %call.i.i.i.i.i8.i88, ptr %q, align 8, !tbaa !8
  br label %for.body

for.cond.cleanup:                                 ; preds = %for.body
  %1 = load ptr, ptr %p, align 8, !tbaa !8
  %2 = load ptr, ptr %q, align 8, !tbaa !8
  %call2 = tail call noundef i32 @_Z10RealMemCmpPKcS0_m(ptr noundef %1, ptr noundef %2, i64 noundef 1) #21
  %cmp.i = icmp slt i32 %call2, 0
  %lhsc = load i8, ptr %1, align 1
  %rhsc = load i8, ptr %2, align 1
  %cmp.i96 = icmp ult i8 %lhsc, %rhsc
  %3 = xor i1 %cmp.i, %cmp.i96
  br i1 %3, label %if.then, label %invoke.cont25

for.body:                                         ; preds = %for.body, %invoke.cont
  %indvars.iv = phi i64 [ 0, %invoke.cont ], [ %indvars.iv.next.3, %for.body ]
  %4 = load ptr, ptr %p, align 8, !tbaa !8
  %add.ptr = getelementptr inbounds i8, ptr %4, i64 %indvars.iv
  store i8 -1, ptr %add.ptr, align 1, !tbaa !5
  %indvars.iv.next = or i64 %indvars.iv, 1
  %5 = load ptr, ptr %p, align 8, !tbaa !8
  %add.ptr.1 = getelementptr inbounds i8, ptr %5, i64 %indvars.iv.next
  store i8 -1, ptr %add.ptr.1, align 1, !tbaa !5
  %indvars.iv.next.1 = or i64 %indvars.iv, 2
  %6 = load ptr, ptr %p, align 8, !tbaa !8
  %add.ptr.2 = getelementptr inbounds i8, ptr %6, i64 %indvars.iv.next.1
  store i8 -1, ptr %add.ptr.2, align 1, !tbaa !5
  %indvars.iv.next.2 = or i64 %indvars.iv, 3
  %7 = load ptr, ptr %p, align 8, !tbaa !8
  %add.ptr.3 = getelementptr inbounds i8, ptr %7, i64 %indvars.iv.next.2
  store i8 -1, ptr %add.ptr.3, align 1, !tbaa !5
  %indvars.iv.next.3 = add nuw nsw i64 %indvars.iv, 4
  %exitcond.not.3 = icmp eq i64 %indvars.iv.next.3, 4096
  br i1 %exitcond.not.3, label %for.cond.cleanup, label %for.body, !llvm.loop !85

if.then:                                          ; preds = %for.cond.cleanup
  %call1.i97 = invoke noundef nonnull align 8 dereferenceable(8) ptr @_ZNSt3__124__put_character_sequenceB7v170000IcNS_11char_traitsIcEEEERNS_13basic_ostreamIT_T0_EES7_PKS4_m(ptr noundef nonnull align 8 dereferenceable(8) @_ZNSt3__14cerrE, ptr noundef nonnull @.str.336, i64 noundef 25)
          to label %invoke.cont10 unwind label %lpad9

invoke.cont10:                                    ; preds = %if.then
  %call1.i99 = invoke noundef nonnull align 8 dereferenceable(8) ptr @_ZNSt3__124__put_character_sequenceB7v170000IcNS_11char_traitsIcEEEERNS_13basic_ostreamIT_T0_EES7_PKS4_m(ptr noundef nonnull align 8 dereferenceable(8) %call1.i97, ptr noundef nonnull @_ZN12LessThanZero8kDisplayE, i64 noundef 12)
          to label %invoke.cont12 unwind label %lpad9

invoke.cont12:                                    ; preds = %invoke.cont10
  %call1.i102 = invoke noundef nonnull align 8 dereferenceable(8) ptr @_ZNSt3__124__put_character_sequenceB7v170000IcNS_11char_traitsIcEEEERNS_13basic_ostreamIT_T0_EES7_PKS4_m(ptr noundef nonnull align 8 dereferenceable(8) %call1.i99, ptr noundef nonnull @.str.337, i64 noundef 5)
          to label %invoke.cont14 unwind label %lpad9

invoke.cont14:                                    ; preds = %invoke.cont12
  %call1.i105 = invoke noundef nonnull align 8 dereferenceable(8) ptr @_ZNSt3__124__put_character_sequenceB7v170000IcNS_11char_traitsIcEEEERNS_13basic_ostreamIT_T0_EES7_PKS4_m(ptr noundef nonnull align 8 dereferenceable(8) %call1.i102, ptr noundef nonnull @_ZN4Last8kDisplayE, i64 noundef 4)
          to label %invoke.cont16 unwind label %lpad9

invoke.cont16:                                    ; preds = %invoke.cont14
  %call1.i108 = invoke noundef nonnull align 8 dereferenceable(8) ptr @_ZNSt3__124__put_character_sequenceB7v170000IcNS_11char_traitsIcEEEERNS_13basic_ostreamIT_T0_EES7_PKS4_m(ptr noundef nonnull align 8 dereferenceable(8) %call1.i105, ptr noundef nonnull @.str.338, i64 noundef 7)
          to label %invoke.cont18 unwind label %lpad9

invoke.cont18:                                    ; preds = %invoke.cont16
  %call21 = invoke noundef nonnull align 8 dereferenceable(8) ptr @_ZNSt3__113basic_ostreamIcNS_11char_traitsIcEEElsEi(ptr noundef nonnull align 8 dereferenceable(8) %call1.i108, i32 noundef 1)
          to label %invoke.cont20 unwind label %lpad9

invoke.cont20:                                    ; preds = %invoke.cont18
  %call.i110 = invoke noundef nonnull align 8 dereferenceable(8) ptr @_ZNSt3__14endlB7v170000IcNS_11char_traitsIcEEEERNS_13basic_ostreamIT_T0_EES7_(ptr noundef nonnull align 8 dereferenceable(8) %call21)
          to label %invoke.cont22 unwind label %lpad9

invoke.cont22:                                    ; preds = %invoke.cont20
  tail call void @exit(i32 noundef 1) #22
  unreachable

lpad9:                                            ; preds = %invoke.cont20, %invoke.cont16, %invoke.cont14, %invoke.cont12, %invoke.cont10, %if.then, %invoke.cont18
  %8 = landingpad { ptr, i32 }
          cleanup
  br label %_ZNSt3__16vectorIcNS_9allocatorIcEEED2B7v170000Ev.exit121

invoke.cont25:                                    ; preds = %for.cond.cleanup
  call void asm sideeffect "", "=*r|m,0,~{memory},~{dirflag},~{fpsr},~{flags}"(ptr nonnull elementtype(ptr) %p, ptr nonnull %1) #20, !srcloc !10
  call void asm sideeffect "", "=*r|m,0,~{memory},~{dirflag},~{fpsr},~{flags}"(ptr nonnull elementtype(ptr) %q, ptr nonnull %2) #20, !srcloc !10
  %error_occurred_.i.i = getelementptr inbounds %"class.benchmark::State", ptr %state, i64 0, i32 5
  %9 = load i8, ptr %error_occurred_.i.i, align 2, !tbaa !11, !range !26, !noundef !27
  %max_iterations.i.i = getelementptr inbounds %"class.benchmark::State", ptr %state, i64 0, i32 2
  %10 = load i64, ptr %max_iterations.i.i, align 8
  invoke void @_ZN9benchmark5State16StartKeepRunningEv(ptr noundef nonnull align 8 dereferenceable(120) %state)
          to label %for.cond30.preheader unwind label %lpad27

for.cond30.preheader:                             ; preds = %invoke.cont25
  %tobool.not.i.i = icmp ne i8 %9, 0
  %cmp.not.i.not136143 = icmp eq i64 %10, 0
  %cmp.not.i.not136 = select i1 %tobool.not.i.i, i1 true, i1 %cmp.not.i.not136143
  br i1 %cmp.not.i.not136, label %if.end.i, label %for.body34, !prof !28

if.end.i:                                         ; preds = %for.cond.cleanup39, %for.cond30.preheader
  invoke void @_ZN9benchmark5State17FinishKeepRunningEv(ptr noundef nonnull align 8 dereferenceable(120) %state)
          to label %for.cond.cleanup33 unwind label %lpad27

for.cond.cleanup33:                               ; preds = %if.end.i
  %started_.i = getelementptr inbounds %"class.benchmark::State", ptr %state, i64 0, i32 3
  %11 = load i8, ptr %started_.i, align 8, !tbaa !29, !range !26, !noundef !27
  %tobool.not.i = icmp eq i8 %11, 0
  br i1 %tobool.not.i, label %_ZNK9benchmark5State10iterationsEv.exit, label %if.end.i85, !prof !28

if.end.i85:                                       ; preds = %for.cond.cleanup33
  %12 = load i64, ptr %max_iterations.i.i, align 8, !tbaa !30
  %13 = load i64, ptr %state, align 8, !tbaa !31
  %sub.i = sub i64 %12, %13
  %batch_leftover_.i = getelementptr inbounds %"class.benchmark::State", ptr %state, i64 0, i32 1
  %14 = load i64, ptr %batch_leftover_.i, align 8, !tbaa !32
  %add.i = add i64 %sub.i, %14
  %15 = shl i64 %add.i, 12
  %16 = sitofp i64 %15 to double
  br label %_ZNK9benchmark5State10iterationsEv.exit

_ZNK9benchmark5State10iterationsEv.exit:          ; preds = %for.cond.cleanup33, %if.end.i85
  %retval.0.i = phi double [ %16, %if.end.i85 ], [ 0.000000e+00, %for.cond.cleanup33 ]
  %counters.i = getelementptr inbounds %"class.benchmark::State", ptr %state, i64 0, i32 8
  call void @llvm.lifetime.start.p0(i64 24, ptr nonnull %ref.tmp2.i) #20
  store i8 32, ptr %ref.tmp2.i, align 8
  %__data_.i.i.i.i = getelementptr inbounds %"struct.std::__1::basic_string<char>::__short", ptr %ref.tmp2.i, i64 0, i32 2
  %cmp.i24.i.i.i = icmp ugt ptr %__data_.i.i.i.i, @.str.341
  %add.ptr.i.i.i.i = getelementptr inbounds %"struct.std::__1::basic_string<char>::__short", ptr %ref.tmp2.i, i64 0, i32 2, i64 16
  %cmp1.i.i.i.i = icmp ule ptr %add.ptr.i.i.i.i, @.str.341
  %17 = or i1 %cmp.i24.i.i.i, %cmp1.i.i.i.i
  call void @llvm.assume(i1 %17)
  call void @llvm.memcpy.p0.p0.i64(ptr noundef nonnull align 1 dereferenceable(16) %__data_.i.i.i.i, ptr noundef nonnull align 1 dereferenceable(16) @.str.341, i64 16, i1 false)
  store i8 0, ptr %add.ptr.i.i.i.i, align 1, !tbaa !5
  call void @llvm.lifetime.start.p0(i64 8, ptr nonnull %__parent.i.i.i) #20
  %call.i.i6.i = invoke noundef nonnull align 8 dereferenceable(8) ptr @_ZNSt3__16__treeINS_12__value_typeINS_12basic_stringIcNS_11char_traitsIcEENS_9allocatorIcEEEEN9benchmark7CounterEEENS_19__map_value_compareIS7_SA_NS_4lessIS7_EELb1EEENS5_ISA_EEE12__find_equalIS7_EERPNS_16__tree_node_baseIPvEERPNS_15__tree_end_nodeISL_EERKT_(ptr noundef nonnull align 8 dereferenceable(24) %counters.i, ptr noundef nonnull align 8 dereferenceable(8) %__parent.i.i.i, ptr noundef nonnull align 8 dereferenceable(24) %ref.tmp2.i)
          to label %call.i.i.noexc.i unwind label %lpad.i

call.i.i.noexc.i:                                 ; preds = %_ZNK9benchmark5State10iterationsEv.exit
  %18 = load ptr, ptr %call.i.i6.i, align 8, !tbaa !8
  %cmp.i.i4.i = icmp eq ptr %18, null
  br i1 %cmp.i.i4.i, label %if.then.i.i5.i, label %invoke.cont.i

if.then.i.i5.i:                                   ; preds = %call.i.i.noexc.i
  %call.i.i.i.i.i.i.i7.i = invoke noalias noundef nonnull dereferenceable(72) ptr @_Znwm(i64 noundef 72) #19
          to label %call.i.i.i.i.i.i.i.noexc.i unwind label %lpad.i

call.i.i.i.i.i.i.i.noexc.i:                       ; preds = %if.then.i.i5.i
  %__value_.i.i.i.i = getelementptr inbounds %"class.std::__1::__tree_node", ptr %call.i.i.i.i.i.i.i7.i, i64 0, i32 1
  call void @llvm.memcpy.p0.p0.i64(ptr noundef nonnull align 8 dereferenceable(24) %__value_.i.i.i.i, ptr noundef nonnull align 8 dereferenceable(24) %ref.tmp2.i, i64 24, i1 false), !noalias !86
  call void @llvm.memset.p0.i64(ptr noundef nonnull align 8 dereferenceable(24) %ref.tmp2.i, i8 0, i64 24, i1 false), !noalias !86
  %second.i.i.i.i.i.i.i.i = getelementptr inbounds %"class.std::__1::__tree_node", ptr %call.i.i.i.i.i.i.i7.i, i64 0, i32 1, i32 0, i32 1
  store double 0.000000e+00, ptr %second.i.i.i.i.i.i.i.i, align 8, !tbaa !36, !noalias !86
  %flags.i.i.i.i.i.i.i.i.i = getelementptr inbounds %"class.std::__1::__tree_node", ptr %call.i.i.i.i.i.i.i7.i, i64 0, i32 1, i32 0, i32 1, i32 1
  store i32 0, ptr %flags.i.i.i.i.i.i.i.i.i, align 8, !tbaa !41, !noalias !86
  %oneK.i.i.i.i.i.i.i.i.i = getelementptr inbounds %"class.std::__1::__tree_node", ptr %call.i.i.i.i.i.i.i7.i, i64 0, i32 1, i32 0, i32 1, i32 2
  store i32 1000, ptr %oneK.i.i.i.i.i.i.i.i.i, align 4, !tbaa !42, !noalias !86
  %19 = load ptr, ptr %__parent.i.i.i, align 8, !tbaa !8
  %__parent_.i.i.i.i = getelementptr inbounds %"class.std::__1::__tree_node_base", ptr %call.i.i.i.i.i.i.i7.i, i64 0, i32 2
  call void @llvm.memset.p0.i64(ptr noundef nonnull align 8 dereferenceable(16) %call.i.i.i.i.i.i.i7.i, i8 0, i64 16, i1 false)
  store ptr %19, ptr %__parent_.i.i.i.i, align 8, !tbaa !43
  store ptr %call.i.i.i.i.i.i.i7.i, ptr %call.i.i6.i, align 8, !tbaa !8
  %20 = load ptr, ptr %counters.i, align 8, !tbaa !8
  %21 = load ptr, ptr %20, align 8, !tbaa !45
  %cmp.not.i.i.i.i = icmp eq ptr %21, null
  br i1 %cmp.not.i.i.i.i, label %_ZNSt3__110unique_ptrINS_11__tree_nodeINS_12__value_typeINS_12basic_stringIcNS_11char_traitsIcEENS_9allocatorIcEEEEN9benchmark7CounterEEEPvEENS_22__tree_node_destructorINS6_ISD_EEEEED2B7v170000Ev.exit.i.i.i, label %if.then.i.i.i.i

if.then.i.i.i.i:                                  ; preds = %call.i.i.i.i.i.i.i.noexc.i
  store ptr %21, ptr %counters.i, align 8, !tbaa !8
  %.pre.i.i.i.i = load ptr, ptr %call.i.i6.i, align 8, !tbaa !8
  br label %_ZNSt3__110unique_ptrINS_11__tree_nodeINS_12__value_typeINS_12basic_stringIcNS_11char_traitsIcEENS_9allocatorIcEEEEN9benchmark7CounterEEEPvEENS_22__tree_node_destructorINS6_ISD_EEEEED2B7v170000Ev.exit.i.i.i

_ZNSt3__110unique_ptrINS_11__tree_nodeINS_12__value_typeINS_12basic_stringIcNS_11char_traitsIcEENS_9allocatorIcEEEEN9benchmark7CounterEEEPvEENS_22__tree_node_destructorINS6_ISD_EEEEED2B7v170000Ev.exit.i.i.i: ; preds = %if.then.i.i.i.i, %call.i.i.i.i.i.i.i.noexc.i
  %22 = phi ptr [ %.pre.i.i.i.i, %if.then.i.i.i.i ], [ %call.i.i.i.i.i.i.i7.i, %call.i.i.i.i.i.i.i.noexc.i ]
  %__pair1_.i.i10.i.i.i = getelementptr inbounds %"class.benchmark::State", ptr %state, i64 0, i32 8, i32 0, i32 1
  %23 = load ptr, ptr %__pair1_.i.i10.i.i.i, align 8, !tbaa !45
  call void @_ZNSt3__127__tree_balance_after_insertB7v170000IPNS_16__tree_node_baseIPvEEEEvT_S5_(ptr noundef %23, ptr noundef %22) #20
  %__pair3_.i.i.i.i.i = getelementptr inbounds %"class.benchmark::State", ptr %state, i64 0, i32 8, i32 0, i32 2
  %24 = load i64, ptr %__pair3_.i.i.i.i.i, align 8, !tbaa !46
  %inc.i.i.i.i = add i64 %24, 1
  store i64 %inc.i.i.i.i, ptr %__pair3_.i.i.i.i.i, align 8, !tbaa !46
  br label %invoke.cont.i

invoke.cont.i:                                    ; preds = %_ZNSt3__110unique_ptrINS_11__tree_nodeINS_12__value_typeINS_12basic_stringIcNS_11char_traitsIcEENS_9allocatorIcEEEEN9benchmark7CounterEEEPvEENS_22__tree_node_destructorINS6_ISD_EEEEED2B7v170000Ev.exit.i.i.i, %call.i.i.noexc.i
  %__r.0.i.i.i = phi ptr [ %call.i.i.i.i.i.i.i7.i, %_ZNSt3__110unique_ptrINS_11__tree_nodeINS_12__value_typeINS_12basic_stringIcNS_11char_traitsIcEENS_9allocatorIcEEEEN9benchmark7CounterEEEPvEENS_22__tree_node_destructorINS6_ISD_EEEEED2B7v170000Ev.exit.i.i.i ], [ %18, %call.i.i.noexc.i ]
  call void @llvm.lifetime.end.p0(i64 8, ptr nonnull %__parent.i.i.i) #20
  %second.i.i = getelementptr inbounds %"class.std::__1::__tree_node", ptr %__r.0.i.i.i, i64 0, i32 1, i32 0, i32 1
  store double %retval.0.i, ptr %second.i.i, align 8, !tbaa.struct !47
  %ref.tmp.sroa.5.0.second.i.sroa_idx.i = getelementptr inbounds %"class.std::__1::__tree_node", ptr %__r.0.i.i.i, i64 0, i32 1, i32 0, i32 1, i32 1
  store i32 1, ptr %ref.tmp.sroa.5.0.second.i.sroa_idx.i, align 8, !tbaa.struct !51
  %ref.tmp.sroa.6.0.second.i.sroa_idx.i = getelementptr inbounds %"class.std::__1::__tree_node", ptr %__r.0.i.i.i, i64 0, i32 1, i32 0, i32 1, i32 2
  store i32 1024, ptr %ref.tmp.sroa.6.0.second.i.sroa_idx.i, align 4, !tbaa.struct !52
  %bf.load.i.i.i = load i8, ptr %ref.tmp2.i, align 8
  %bf.clear.i.i.i = and i8 %bf.load.i.i.i, 1
  %tobool.i.not.i.i = icmp eq i8 %bf.clear.i.i.i, 0
  br i1 %tobool.i.not.i.i, label %_ZNSt3__16vectorIcNS_9allocatorIcEEED2B7v170000Ev.exit117, label %if.then.i.i

if.then.i.i:                                      ; preds = %invoke.cont.i
  %__data_.i.i.i = getelementptr inbounds %"struct.std::__1::basic_string<char>::__long", ptr %ref.tmp2.i, i64 0, i32 2
  %25 = load ptr, ptr %__data_.i.i.i, align 8, !tbaa !5
  call void @_ZdlPv(ptr noundef %25) #23
  br label %_ZNSt3__16vectorIcNS_9allocatorIcEEED2B7v170000Ev.exit117

lpad.i:                                           ; preds = %if.then.i.i5.i, %_ZNK9benchmark5State10iterationsEv.exit
  %26 = landingpad { ptr, i32 }
          cleanup
  %bf.load.i.i8.i = load i8, ptr %ref.tmp2.i, align 8
  %bf.clear.i.i9.i = and i8 %bf.load.i.i8.i, 1
  %tobool.i.not.i10.i = icmp eq i8 %bf.clear.i.i9.i, 0
  br i1 %tobool.i.not.i10.i, label %_ZNSt3__112basic_stringIcNS_11char_traitsIcEENS_9allocatorIcEEED2Ev.exit13.i, label %if.then.i12.i

if.then.i12.i:                                    ; preds = %lpad.i
  %__data_.i.i11.i = getelementptr inbounds %"struct.std::__1::basic_string<char>::__long", ptr %ref.tmp2.i, i64 0, i32 2
  %27 = load ptr, ptr %__data_.i.i11.i, align 8, !tbaa !5
  call void @_ZdlPv(ptr noundef %27) #23
  br label %_ZNSt3__112basic_stringIcNS_11char_traitsIcEENS_9allocatorIcEEED2Ev.exit13.i

_ZNSt3__112basic_stringIcNS_11char_traitsIcEENS_9allocatorIcEEED2Ev.exit13.i: ; preds = %if.then.i12.i, %lpad.i
  call void @llvm.lifetime.end.p0(i64 24, ptr nonnull %ref.tmp2.i) #20
  br label %_ZNSt3__16vectorIcNS_9allocatorIcEEED2B7v170000Ev.exit121

lpad27:                                           ; preds = %if.end.i, %invoke.cont25
  %28 = landingpad { ptr, i32 }
          cleanup
  br label %_ZNSt3__16vectorIcNS_9allocatorIcEEED2B7v170000Ev.exit121

for.body34:                                       ; preds = %for.cond30.preheader, %for.cond.cleanup39
  %__begin1.sroa.0.0137 = phi i64 [ %dec.i, %for.cond.cleanup39 ], [ %10, %for.cond30.preheader ]
  fence syncscope("singlethread") acq_rel
  br label %for.body40

for.cond.cleanup39:                               ; preds = %for.body40
  %dec.i = add i64 %__begin1.sroa.0.0137, -1
  %cmp.not.i.not = icmp eq i64 %dec.i, 0
  br i1 %cmp.not.i.not, label %if.end.i, label %for.body34, !prof !28

for.body40:                                       ; preds = %for.body34, %for.body40
  %indvars.iv139 = phi i64 [ 0, %for.body34 ], [ %indvars.iv.next140, %for.body40 ]
  call void @llvm.lifetime.start.p0(i64 1, ptr nonnull %res) #20
  %29 = load ptr, ptr %p, align 8, !tbaa !8
  %add.ptr43 = getelementptr inbounds i8, ptr %29, i64 %indvars.iv139
  %30 = load ptr, ptr %q, align 8, !tbaa !8
  %add.ptr46 = getelementptr inbounds i8, ptr %30, i64 %indvars.iv139
  %lhsc80 = load i8, ptr %add.ptr43, align 1
  %rhsc82 = load i8, ptr %add.ptr46, align 1
  %cmp.i112 = icmp ult i8 %lhsc80, %rhsc82
  %frombool = zext i1 %cmp.i112 to i8
  store i8 %frombool, ptr %res, align 1, !tbaa !53
  call void asm sideeffect "", "=*r|m,0,~{memory},~{dirflag},~{fpsr},~{flags}"(ptr nonnull elementtype(i8) %res, i1 %cmp.i112) #20, !srcloc !10
  call void @llvm.lifetime.end.p0(i64 1, ptr nonnull %res) #20
  %indvars.iv.next140 = add nuw nsw i64 %indvars.iv139, 1
  %exitcond142.not = icmp eq i64 %indvars.iv.next140, 4096
  br i1 %exitcond142.not, label %for.cond.cleanup39, label %for.body40, !llvm.loop !89

_ZNSt3__16vectorIcNS_9allocatorIcEEED2B7v170000Ev.exit117: ; preds = %if.then.i.i, %invoke.cont.i
  call void @llvm.lifetime.end.p0(i64 24, ptr nonnull %ref.tmp2.i) #20
  call void @llvm.lifetime.end.p0(i64 8, ptr nonnull %q) #20
  call void @llvm.lifetime.end.p0(i64 8, ptr nonnull %p) #20
  call void @_ZdlPv(ptr noundef nonnull %call.i.i.i.i.i8.i88) #23
  call void @_ZdlPv(ptr noundef nonnull %call.i.i.i.i.i8.i) #23
  ret void

_ZNSt3__16vectorIcNS_9allocatorIcEEED2B7v170000Ev.exit121: ; preds = %lpad27, %lpad9, %_ZNSt3__112basic_stringIcNS_11char_traitsIcEENS_9allocatorIcEEED2Ev.exit13.i
  %.pn77 = phi { ptr, i32 } [ %8, %lpad9 ], [ %26, %_ZNSt3__112basic_stringIcNS_11char_traitsIcEENS_9allocatorIcEEED2Ev.exit13.i ], [ %28, %lpad27 ]
  call void @llvm.lifetime.end.p0(i64 8, ptr nonnull %q) #20
  call void @llvm.lifetime.end.p0(i64 8, ptr nonnull %p) #20
  call void @_ZdlPv(ptr noundef nonnull %call.i.i.i.i.i8.i88) #23
  br label %_ZNSt3__16vectorIcNS_9allocatorIcEEED2B7v170000Ev.exit125

_ZNSt3__16vectorIcNS_9allocatorIcEEED2B7v170000Ev.exit125: ; preds = %_ZNSt3__128__exception_guard_exceptionsINS_6vectorIcNS_9allocatorIcEEE16__destroy_vectorEED2B7v170000Ev.exit.i93, %_ZNSt3__16vectorIcNS_9allocatorIcEEED2B7v170000Ev.exit121
  %.pn77.pn = phi { ptr, i32 } [ %.pn77, %_ZNSt3__16vectorIcNS_9allocatorIcEEED2B7v170000Ev.exit121 ], [ %0, %_ZNSt3__128__exception_guard_exceptionsINS_6vectorIcNS_9allocatorIcEEE16__destroy_vectorEED2B7v170000Ev.exit.i93 ]
  call void @_ZdlPv(ptr noundef nonnull %call.i.i.i.i.i8.i) #23
  resume { ptr, i32 } %.pn77.pn
}

; Function Attrs: uwtable
define linkonce_odr dso_local void @_Z9BM_MemCmpILi1E15GreaterThanZero4NoneEvRN9benchmark5StateE(ptr noundef nonnull align 8 dereferenceable(120) %state) #4 comdat personality ptr @__gxx_personality_v0 {
entry:
  %__parent.i.i.i = alloca ptr, align 8
  %ref.tmp2.i = alloca %"class.std::__1::basic_string", align 8
  %p = alloca ptr, align 8
  %q = alloca ptr, align 8
  %res = alloca i8, align 1
  %call.i.i.i.i.i8.i = tail call noalias noundef nonnull dereferenceable(4096) ptr @_Znwm(i64 noundef 4096) #19
  tail call void @llvm.memset.p0.i64(ptr noundef nonnull align 1 dereferenceable(4096) %call.i.i.i.i.i8.i, i8 0, i64 4096, i1 false), !tbaa !5
  %call.i.i.i.i.i8.i93 = invoke noalias noundef nonnull dereferenceable(4096) ptr @_Znwm(i64 noundef 4096) #19
          to label %invoke.cont unwind label %_ZNSt3__128__exception_guard_exceptionsINS_6vectorIcNS_9allocatorIcEEE16__destroy_vectorEED2B7v170000Ev.exit.i98

_ZNSt3__128__exception_guard_exceptionsINS_6vectorIcNS_9allocatorIcEEE16__destroy_vectorEED2B7v170000Ev.exit.i98: ; preds = %entry
  %0 = landingpad { ptr, i32 }
          cleanup
  br label %_ZNSt3__16vectorIcNS_9allocatorIcEEED2B7v170000Ev.exit130

invoke.cont:                                      ; preds = %entry
  tail call void @llvm.memset.p0.i64(ptr noundef nonnull align 1 dereferenceable(4096) %call.i.i.i.i.i8.i93, i8 0, i64 4096, i1 false), !tbaa !5
  call void @llvm.lifetime.start.p0(i64 8, ptr nonnull %p) #20
  store ptr %call.i.i.i.i.i8.i, ptr %p, align 8, !tbaa !8
  call void @llvm.lifetime.start.p0(i64 8, ptr nonnull %q) #20
  store ptr %call.i.i.i.i.i8.i93, ptr %q, align 8, !tbaa !8
  %call2 = tail call noundef i32 @_Z10RealMemCmpPKcS0_m(ptr noundef nonnull %call.i.i.i.i.i8.i, ptr noundef nonnull %call.i.i.i.i.i8.i93, i64 noundef 1) #21
  %cmp.i = icmp sgt i32 %call2, 0
  br i1 %cmp.i, label %if.then, label %invoke.cont27

if.then:                                          ; preds = %invoke.cont
  %call1.i102 = invoke noundef nonnull align 8 dereferenceable(8) ptr @_ZNSt3__124__put_character_sequenceB7v170000IcNS_11char_traitsIcEEEERNS_13basic_ostreamIT_T0_EES7_PKS4_m(ptr noundef nonnull align 8 dereferenceable(8) @_ZNSt3__14cerrE, ptr noundef nonnull @.str.336, i64 noundef 25)
          to label %invoke.cont12 unwind label %lpad3

invoke.cont12:                                    ; preds = %if.then
  %call1.i104 = invoke noundef nonnull align 8 dereferenceable(8) ptr @_ZNSt3__124__put_character_sequenceB7v170000IcNS_11char_traitsIcEEEERNS_13basic_ostreamIT_T0_EES7_PKS4_m(ptr noundef nonnull align 8 dereferenceable(8) %call1.i102, ptr noundef nonnull @_ZN15GreaterThanZero8kDisplayE, i64 noundef 15)
          to label %invoke.cont14 unwind label %lpad3

invoke.cont14:                                    ; preds = %invoke.cont12
  %call1.i107 = invoke noundef nonnull align 8 dereferenceable(8) ptr @_ZNSt3__124__put_character_sequenceB7v170000IcNS_11char_traitsIcEEEERNS_13basic_ostreamIT_T0_EES7_PKS4_m(ptr noundef nonnull align 8 dereferenceable(8) %call1.i104, ptr noundef nonnull @.str.337, i64 noundef 5)
          to label %invoke.cont16 unwind label %lpad3

invoke.cont16:                                    ; preds = %invoke.cont14
  %call1.i110 = invoke noundef nonnull align 8 dereferenceable(8) ptr @_ZNSt3__124__put_character_sequenceB7v170000IcNS_11char_traitsIcEEEERNS_13basic_ostreamIT_T0_EES7_PKS4_m(ptr noundef nonnull align 8 dereferenceable(8) %call1.i107, ptr noundef nonnull @_ZN4None8kDisplayE, i64 noundef 4)
          to label %invoke.cont18 unwind label %lpad3

invoke.cont18:                                    ; preds = %invoke.cont16
  %call1.i113 = invoke noundef nonnull align 8 dereferenceable(8) ptr @_ZNSt3__124__put_character_sequenceB7v170000IcNS_11char_traitsIcEEEERNS_13basic_ostreamIT_T0_EES7_PKS4_m(ptr noundef nonnull align 8 dereferenceable(8) %call1.i110, ptr noundef nonnull @.str.338, i64 noundef 7)
          to label %invoke.cont20 unwind label %lpad3

invoke.cont20:                                    ; preds = %invoke.cont18
  %call23 = invoke noundef nonnull align 8 dereferenceable(8) ptr @_ZNSt3__113basic_ostreamIcNS_11char_traitsIcEEElsEi(ptr noundef nonnull align 8 dereferenceable(8) %call1.i113, i32 noundef 1)
          to label %invoke.cont22 unwind label %lpad3

invoke.cont22:                                    ; preds = %invoke.cont20
  %call.i115 = invoke noundef nonnull align 8 dereferenceable(8) ptr @_ZNSt3__14endlB7v170000IcNS_11char_traitsIcEEEERNS_13basic_ostreamIT_T0_EES7_(ptr noundef nonnull align 8 dereferenceable(8) %call23)
          to label %invoke.cont24 unwind label %lpad3

invoke.cont24:                                    ; preds = %invoke.cont22
  tail call void @exit(i32 noundef 1) #22
  unreachable

lpad3:                                            ; preds = %invoke.cont22, %invoke.cont18, %invoke.cont16, %invoke.cont14, %invoke.cont12, %if.then, %invoke.cont20
  %1 = landingpad { ptr, i32 }
          cleanup
  br label %_ZNSt3__16vectorIcNS_9allocatorIcEEED2B7v170000Ev.exit126

invoke.cont27:                                    ; preds = %invoke.cont
  call void asm sideeffect "", "=*r|m,0,~{memory},~{dirflag},~{fpsr},~{flags}"(ptr nonnull elementtype(ptr) %p, ptr nonnull %call.i.i.i.i.i8.i) #20, !srcloc !10
  call void asm sideeffect "", "=*r|m,0,~{memory},~{dirflag},~{fpsr},~{flags}"(ptr nonnull elementtype(ptr) %q, ptr nonnull %call.i.i.i.i.i8.i93) #20, !srcloc !10
  %error_occurred_.i.i = getelementptr inbounds %"class.benchmark::State", ptr %state, i64 0, i32 5
  %2 = load i8, ptr %error_occurred_.i.i, align 2, !tbaa !11, !range !26, !noundef !27
  %max_iterations.i.i = getelementptr inbounds %"class.benchmark::State", ptr %state, i64 0, i32 2
  %3 = load i64, ptr %max_iterations.i.i, align 8
  invoke void @_ZN9benchmark5State16StartKeepRunningEv(ptr noundef nonnull align 8 dereferenceable(120) %state)
          to label %for.cond32.preheader unwind label %lpad29

for.cond32.preheader:                             ; preds = %invoke.cont27
  %tobool.not.i.i = icmp ne i8 %2, 0
  %cmp.not.i.not140143 = icmp eq i64 %3, 0
  %cmp.not.i.not140 = select i1 %tobool.not.i.i, i1 true, i1 %cmp.not.i.not140143
  br i1 %cmp.not.i.not140, label %if.end.i, label %for.body36, !prof !28

if.end.i:                                         ; preds = %for.cond.cleanup41, %for.cond32.preheader
  invoke void @_ZN9benchmark5State17FinishKeepRunningEv(ptr noundef nonnull align 8 dereferenceable(120) %state)
          to label %for.cond.cleanup35 unwind label %lpad29

for.cond.cleanup35:                               ; preds = %if.end.i
  %started_.i = getelementptr inbounds %"class.benchmark::State", ptr %state, i64 0, i32 3
  %4 = load i8, ptr %started_.i, align 8, !tbaa !29, !range !26, !noundef !27
  %tobool.not.i = icmp eq i8 %4, 0
  br i1 %tobool.not.i, label %_ZNK9benchmark5State10iterationsEv.exit, label %if.end.i90, !prof !28

if.end.i90:                                       ; preds = %for.cond.cleanup35
  %5 = load i64, ptr %max_iterations.i.i, align 8, !tbaa !30
  %6 = load i64, ptr %state, align 8, !tbaa !31
  %sub.i = sub i64 %5, %6
  %batch_leftover_.i = getelementptr inbounds %"class.benchmark::State", ptr %state, i64 0, i32 1
  %7 = load i64, ptr %batch_leftover_.i, align 8, !tbaa !32
  %add.i = add i64 %sub.i, %7
  %8 = shl i64 %add.i, 12
  %9 = sitofp i64 %8 to double
  br label %_ZNK9benchmark5State10iterationsEv.exit

_ZNK9benchmark5State10iterationsEv.exit:          ; preds = %for.cond.cleanup35, %if.end.i90
  %retval.0.i = phi double [ %9, %if.end.i90 ], [ 0.000000e+00, %for.cond.cleanup35 ]
  %counters.i = getelementptr inbounds %"class.benchmark::State", ptr %state, i64 0, i32 8
  call void @llvm.lifetime.start.p0(i64 24, ptr nonnull %ref.tmp2.i) #20
  store i8 32, ptr %ref.tmp2.i, align 8
  %__data_.i.i.i.i = getelementptr inbounds %"struct.std::__1::basic_string<char>::__short", ptr %ref.tmp2.i, i64 0, i32 2
  %cmp.i24.i.i.i = icmp ugt ptr %__data_.i.i.i.i, @.str.341
  %add.ptr.i.i.i.i = getelementptr inbounds %"struct.std::__1::basic_string<char>::__short", ptr %ref.tmp2.i, i64 0, i32 2, i64 16
  %cmp1.i.i.i.i = icmp ule ptr %add.ptr.i.i.i.i, @.str.341
  %10 = or i1 %cmp.i24.i.i.i, %cmp1.i.i.i.i
  call void @llvm.assume(i1 %10)
  call void @llvm.memcpy.p0.p0.i64(ptr noundef nonnull align 1 dereferenceable(16) %__data_.i.i.i.i, ptr noundef nonnull align 1 dereferenceable(16) @.str.341, i64 16, i1 false)
  store i8 0, ptr %add.ptr.i.i.i.i, align 1, !tbaa !5
  call void @llvm.lifetime.start.p0(i64 8, ptr nonnull %__parent.i.i.i) #20
  %call.i.i6.i = invoke noundef nonnull align 8 dereferenceable(8) ptr @_ZNSt3__16__treeINS_12__value_typeINS_12basic_stringIcNS_11char_traitsIcEENS_9allocatorIcEEEEN9benchmark7CounterEEENS_19__map_value_compareIS7_SA_NS_4lessIS7_EELb1EEENS5_ISA_EEE12__find_equalIS7_EERPNS_16__tree_node_baseIPvEERPNS_15__tree_end_nodeISL_EERKT_(ptr noundef nonnull align 8 dereferenceable(24) %counters.i, ptr noundef nonnull align 8 dereferenceable(8) %__parent.i.i.i, ptr noundef nonnull align 8 dereferenceable(24) %ref.tmp2.i)
          to label %call.i.i.noexc.i unwind label %lpad.i

call.i.i.noexc.i:                                 ; preds = %_ZNK9benchmark5State10iterationsEv.exit
  %11 = load ptr, ptr %call.i.i6.i, align 8, !tbaa !8
  %cmp.i.i4.i = icmp eq ptr %11, null
  br i1 %cmp.i.i4.i, label %if.then.i.i5.i, label %invoke.cont.i

if.then.i.i5.i:                                   ; preds = %call.i.i.noexc.i
  %call.i.i.i.i.i.i.i7.i = invoke noalias noundef nonnull dereferenceable(72) ptr @_Znwm(i64 noundef 72) #19
          to label %call.i.i.i.i.i.i.i.noexc.i unwind label %lpad.i

call.i.i.i.i.i.i.i.noexc.i:                       ; preds = %if.then.i.i5.i
  %__value_.i.i.i.i = getelementptr inbounds %"class.std::__1::__tree_node", ptr %call.i.i.i.i.i.i.i7.i, i64 0, i32 1
  call void @llvm.memcpy.p0.p0.i64(ptr noundef nonnull align 8 dereferenceable(24) %__value_.i.i.i.i, ptr noundef nonnull align 8 dereferenceable(24) %ref.tmp2.i, i64 24, i1 false), !noalias !90
  call void @llvm.memset.p0.i64(ptr noundef nonnull align 8 dereferenceable(24) %ref.tmp2.i, i8 0, i64 24, i1 false), !noalias !90
  %second.i.i.i.i.i.i.i.i = getelementptr inbounds %"class.std::__1::__tree_node", ptr %call.i.i.i.i.i.i.i7.i, i64 0, i32 1, i32 0, i32 1
  store double 0.000000e+00, ptr %second.i.i.i.i.i.i.i.i, align 8, !tbaa !36, !noalias !90
  %flags.i.i.i.i.i.i.i.i.i = getelementptr inbounds %"class.std::__1::__tree_node", ptr %call.i.i.i.i.i.i.i7.i, i64 0, i32 1, i32 0, i32 1, i32 1
  store i32 0, ptr %flags.i.i.i.i.i.i.i.i.i, align 8, !tbaa !41, !noalias !90
  %oneK.i.i.i.i.i.i.i.i.i = getelementptr inbounds %"class.std::__1::__tree_node", ptr %call.i.i.i.i.i.i.i7.i, i64 0, i32 1, i32 0, i32 1, i32 2
  store i32 1000, ptr %oneK.i.i.i.i.i.i.i.i.i, align 4, !tbaa !42, !noalias !90
  %12 = load ptr, ptr %__parent.i.i.i, align 8, !tbaa !8
  %__parent_.i.i.i.i = getelementptr inbounds %"class.std::__1::__tree_node_base", ptr %call.i.i.i.i.i.i.i7.i, i64 0, i32 2
  call void @llvm.memset.p0.i64(ptr noundef nonnull align 8 dereferenceable(16) %call.i.i.i.i.i.i.i7.i, i8 0, i64 16, i1 false)
  store ptr %12, ptr %__parent_.i.i.i.i, align 8, !tbaa !43
  store ptr %call.i.i.i.i.i.i.i7.i, ptr %call.i.i6.i, align 8, !tbaa !8
  %13 = load ptr, ptr %counters.i, align 8, !tbaa !8
  %14 = load ptr, ptr %13, align 8, !tbaa !45
  %cmp.not.i.i.i.i = icmp eq ptr %14, null
  br i1 %cmp.not.i.i.i.i, label %_ZNSt3__110unique_ptrINS_11__tree_nodeINS_12__value_typeINS_12basic_stringIcNS_11char_traitsIcEENS_9allocatorIcEEEEN9benchmark7CounterEEEPvEENS_22__tree_node_destructorINS6_ISD_EEEEED2B7v170000Ev.exit.i.i.i, label %if.then.i.i.i.i

if.then.i.i.i.i:                                  ; preds = %call.i.i.i.i.i.i.i.noexc.i
  store ptr %14, ptr %counters.i, align 8, !tbaa !8
  %.pre.i.i.i.i = load ptr, ptr %call.i.i6.i, align 8, !tbaa !8
  br label %_ZNSt3__110unique_ptrINS_11__tree_nodeINS_12__value_typeINS_12basic_stringIcNS_11char_traitsIcEENS_9allocatorIcEEEEN9benchmark7CounterEEEPvEENS_22__tree_node_destructorINS6_ISD_EEEEED2B7v170000Ev.exit.i.i.i

_ZNSt3__110unique_ptrINS_11__tree_nodeINS_12__value_typeINS_12basic_stringIcNS_11char_traitsIcEENS_9allocatorIcEEEEN9benchmark7CounterEEEPvEENS_22__tree_node_destructorINS6_ISD_EEEEED2B7v170000Ev.exit.i.i.i: ; preds = %if.then.i.i.i.i, %call.i.i.i.i.i.i.i.noexc.i
  %15 = phi ptr [ %.pre.i.i.i.i, %if.then.i.i.i.i ], [ %call.i.i.i.i.i.i.i7.i, %call.i.i.i.i.i.i.i.noexc.i ]
  %__pair1_.i.i10.i.i.i = getelementptr inbounds %"class.benchmark::State", ptr %state, i64 0, i32 8, i32 0, i32 1
  %16 = load ptr, ptr %__pair1_.i.i10.i.i.i, align 8, !tbaa !45
  call void @_ZNSt3__127__tree_balance_after_insertB7v170000IPNS_16__tree_node_baseIPvEEEEvT_S5_(ptr noundef %16, ptr noundef %15) #20
  %__pair3_.i.i.i.i.i = getelementptr inbounds %"class.benchmark::State", ptr %state, i64 0, i32 8, i32 0, i32 2
  %17 = load i64, ptr %__pair3_.i.i.i.i.i, align 8, !tbaa !46
  %inc.i.i.i.i = add i64 %17, 1
  store i64 %inc.i.i.i.i, ptr %__pair3_.i.i.i.i.i, align 8, !tbaa !46
  br label %invoke.cont.i

invoke.cont.i:                                    ; preds = %_ZNSt3__110unique_ptrINS_11__tree_nodeINS_12__value_typeINS_12basic_stringIcNS_11char_traitsIcEENS_9allocatorIcEEEEN9benchmark7CounterEEEPvEENS_22__tree_node_destructorINS6_ISD_EEEEED2B7v170000Ev.exit.i.i.i, %call.i.i.noexc.i
  %__r.0.i.i.i = phi ptr [ %call.i.i.i.i.i.i.i7.i, %_ZNSt3__110unique_ptrINS_11__tree_nodeINS_12__value_typeINS_12basic_stringIcNS_11char_traitsIcEENS_9allocatorIcEEEEN9benchmark7CounterEEEPvEENS_22__tree_node_destructorINS6_ISD_EEEEED2B7v170000Ev.exit.i.i.i ], [ %11, %call.i.i.noexc.i ]
  call void @llvm.lifetime.end.p0(i64 8, ptr nonnull %__parent.i.i.i) #20
  %second.i.i = getelementptr inbounds %"class.std::__1::__tree_node", ptr %__r.0.i.i.i, i64 0, i32 1, i32 0, i32 1
  store double %retval.0.i, ptr %second.i.i, align 8, !tbaa.struct !47
  %ref.tmp.sroa.5.0.second.i.sroa_idx.i = getelementptr inbounds %"class.std::__1::__tree_node", ptr %__r.0.i.i.i, i64 0, i32 1, i32 0, i32 1, i32 1
  store i32 1, ptr %ref.tmp.sroa.5.0.second.i.sroa_idx.i, align 8, !tbaa.struct !51
  %ref.tmp.sroa.6.0.second.i.sroa_idx.i = getelementptr inbounds %"class.std::__1::__tree_node", ptr %__r.0.i.i.i, i64 0, i32 1, i32 0, i32 1, i32 2
  store i32 1024, ptr %ref.tmp.sroa.6.0.second.i.sroa_idx.i, align 4, !tbaa.struct !52
  %bf.load.i.i.i = load i8, ptr %ref.tmp2.i, align 8
  %bf.clear.i.i.i = and i8 %bf.load.i.i.i, 1
  %tobool.i.not.i.i = icmp eq i8 %bf.clear.i.i.i, 0
  br i1 %tobool.i.not.i.i, label %_ZNSt3__16vectorIcNS_9allocatorIcEEED2B7v170000Ev.exit122, label %if.then.i.i

if.then.i.i:                                      ; preds = %invoke.cont.i
  %__data_.i.i.i = getelementptr inbounds %"struct.std::__1::basic_string<char>::__long", ptr %ref.tmp2.i, i64 0, i32 2
  %18 = load ptr, ptr %__data_.i.i.i, align 8, !tbaa !5
  call void @_ZdlPv(ptr noundef %18) #23
  br label %_ZNSt3__16vectorIcNS_9allocatorIcEEED2B7v170000Ev.exit122

lpad.i:                                           ; preds = %if.then.i.i5.i, %_ZNK9benchmark5State10iterationsEv.exit
  %19 = landingpad { ptr, i32 }
          cleanup
  %bf.load.i.i8.i = load i8, ptr %ref.tmp2.i, align 8
  %bf.clear.i.i9.i = and i8 %bf.load.i.i8.i, 1
  %tobool.i.not.i10.i = icmp eq i8 %bf.clear.i.i9.i, 0
  br i1 %tobool.i.not.i10.i, label %_ZNSt3__112basic_stringIcNS_11char_traitsIcEENS_9allocatorIcEEED2Ev.exit13.i, label %if.then.i12.i

if.then.i12.i:                                    ; preds = %lpad.i
  %__data_.i.i11.i = getelementptr inbounds %"struct.std::__1::basic_string<char>::__long", ptr %ref.tmp2.i, i64 0, i32 2
  %20 = load ptr, ptr %__data_.i.i11.i, align 8, !tbaa !5
  call void @_ZdlPv(ptr noundef %20) #23
  br label %_ZNSt3__112basic_stringIcNS_11char_traitsIcEENS_9allocatorIcEEED2Ev.exit13.i

_ZNSt3__112basic_stringIcNS_11char_traitsIcEENS_9allocatorIcEEED2Ev.exit13.i: ; preds = %if.then.i12.i, %lpad.i
  call void @llvm.lifetime.end.p0(i64 24, ptr nonnull %ref.tmp2.i) #20
  br label %_ZNSt3__16vectorIcNS_9allocatorIcEEED2B7v170000Ev.exit126

lpad29:                                           ; preds = %if.end.i, %invoke.cont27
  %21 = landingpad { ptr, i32 }
          cleanup
  br label %_ZNSt3__16vectorIcNS_9allocatorIcEEED2B7v170000Ev.exit126

for.body36:                                       ; preds = %for.cond32.preheader, %for.cond.cleanup41
  %__begin1.sroa.0.0141 = phi i64 [ %dec.i, %for.cond.cleanup41 ], [ %3, %for.cond32.preheader ]
  fence syncscope("singlethread") acq_rel
  br label %for.body42

for.cond.cleanup41:                               ; preds = %for.body42
  %dec.i = add i64 %__begin1.sroa.0.0141, -1
  %cmp.not.i.not = icmp eq i64 %dec.i, 0
  br i1 %cmp.not.i.not, label %if.end.i, label %for.body36, !prof !28

for.body42:                                       ; preds = %for.body36, %for.body42
  %indvars.iv = phi i64 [ 0, %for.body36 ], [ %indvars.iv.next, %for.body42 ]
  call void @llvm.lifetime.start.p0(i64 1, ptr nonnull %res) #20
  %22 = load ptr, ptr %p, align 8, !tbaa !8
  %add.ptr45 = getelementptr inbounds i8, ptr %22, i64 %indvars.iv
  %23 = load ptr, ptr %q, align 8, !tbaa !8
  %add.ptr48 = getelementptr inbounds i8, ptr %23, i64 %indvars.iv
  %lhsc85 = load i8, ptr %add.ptr45, align 1
  %rhsc87 = load i8, ptr %add.ptr48, align 1
  %cmp.i117 = icmp ugt i8 %lhsc85, %rhsc87
  %frombool = zext i1 %cmp.i117 to i8
  store i8 %frombool, ptr %res, align 1, !tbaa !53
  call void asm sideeffect "", "=*r|m,0,~{memory},~{dirflag},~{fpsr},~{flags}"(ptr nonnull elementtype(i8) %res, i1 %cmp.i117) #20, !srcloc !10
  call void @llvm.lifetime.end.p0(i64 1, ptr nonnull %res) #20
  %indvars.iv.next = add nuw nsw i64 %indvars.iv, 1
  %exitcond.not = icmp eq i64 %indvars.iv.next, 4096
  br i1 %exitcond.not, label %for.cond.cleanup41, label %for.body42, !llvm.loop !93

_ZNSt3__16vectorIcNS_9allocatorIcEEED2B7v170000Ev.exit122: ; preds = %if.then.i.i, %invoke.cont.i
  call void @llvm.lifetime.end.p0(i64 24, ptr nonnull %ref.tmp2.i) #20
  call void @llvm.lifetime.end.p0(i64 8, ptr nonnull %q) #20
  call void @llvm.lifetime.end.p0(i64 8, ptr nonnull %p) #20
  call void @_ZdlPv(ptr noundef nonnull %call.i.i.i.i.i8.i93) #23
  call void @_ZdlPv(ptr noundef nonnull %call.i.i.i.i.i8.i) #23
  ret void

_ZNSt3__16vectorIcNS_9allocatorIcEEED2B7v170000Ev.exit126: ; preds = %lpad29, %lpad3, %_ZNSt3__112basic_stringIcNS_11char_traitsIcEENS_9allocatorIcEEED2Ev.exit13.i
  %.pn82 = phi { ptr, i32 } [ %1, %lpad3 ], [ %19, %_ZNSt3__112basic_stringIcNS_11char_traitsIcEENS_9allocatorIcEEED2Ev.exit13.i ], [ %21, %lpad29 ]
  call void @llvm.lifetime.end.p0(i64 8, ptr nonnull %q) #20
  call void @llvm.lifetime.end.p0(i64 8, ptr nonnull %p) #20
  call void @_ZdlPv(ptr noundef nonnull %call.i.i.i.i.i8.i93) #23
  br label %_ZNSt3__16vectorIcNS_9allocatorIcEEED2B7v170000Ev.exit130

_ZNSt3__16vectorIcNS_9allocatorIcEEED2B7v170000Ev.exit130: ; preds = %_ZNSt3__128__exception_guard_exceptionsINS_6vectorIcNS_9allocatorIcEEE16__destroy_vectorEED2B7v170000Ev.exit.i98, %_ZNSt3__16vectorIcNS_9allocatorIcEEED2B7v170000Ev.exit126
  %.pn82.pn = phi { ptr, i32 } [ %.pn82, %_ZNSt3__16vectorIcNS_9allocatorIcEEED2B7v170000Ev.exit126 ], [ %0, %_ZNSt3__128__exception_guard_exceptionsINS_6vectorIcNS_9allocatorIcEEE16__destroy_vectorEED2B7v170000Ev.exit.i98 ]
  call void @_ZdlPv(ptr noundef nonnull %call.i.i.i.i.i8.i) #23
  resume { ptr, i32 } %.pn82.pn
}

; Function Attrs: uwtable
define linkonce_odr dso_local void @_Z9BM_MemCmpILi1E15GreaterThanZero5FirstEvRN9benchmark5StateE(ptr noundef nonnull align 8 dereferenceable(120) %state) #4 comdat personality ptr @__gxx_personality_v0 {
entry:
  %__parent.i.i.i = alloca ptr, align 8
  %ref.tmp2.i = alloca %"class.std::__1::basic_string", align 8
  %p = alloca ptr, align 8
  %q = alloca ptr, align 8
  %res = alloca i8, align 1
  %call.i.i.i.i.i8.i = tail call noalias noundef nonnull dereferenceable(4096) ptr @_Znwm(i64 noundef 4096) #19
  tail call void @llvm.memset.p0.i64(ptr noundef nonnull align 1 dereferenceable(4096) %call.i.i.i.i.i8.i, i8 0, i64 4096, i1 false), !tbaa !5
  %call.i.i.i.i.i8.i88 = invoke noalias noundef nonnull dereferenceable(4096) ptr @_Znwm(i64 noundef 4096) #19
          to label %invoke.cont unwind label %_ZNSt3__128__exception_guard_exceptionsINS_6vectorIcNS_9allocatorIcEEE16__destroy_vectorEED2B7v170000Ev.exit.i93

_ZNSt3__128__exception_guard_exceptionsINS_6vectorIcNS_9allocatorIcEEE16__destroy_vectorEED2B7v170000Ev.exit.i93: ; preds = %entry
  %0 = landingpad { ptr, i32 }
          cleanup
  br label %_ZNSt3__16vectorIcNS_9allocatorIcEEED2B7v170000Ev.exit125

invoke.cont:                                      ; preds = %entry
  tail call void @llvm.memset.p0.i64(ptr noundef nonnull align 1 dereferenceable(4096) %call.i.i.i.i.i8.i88, i8 0, i64 4096, i1 false), !tbaa !5
  call void @llvm.lifetime.start.p0(i64 8, ptr nonnull %p) #20
  store ptr %call.i.i.i.i.i8.i, ptr %p, align 8, !tbaa !8
  call void @llvm.lifetime.start.p0(i64 8, ptr nonnull %q) #20
  store ptr %call.i.i.i.i.i8.i88, ptr %q, align 8, !tbaa !8
  br label %for.body

for.cond.cleanup:                                 ; preds = %for.body
  %1 = load ptr, ptr %p, align 8, !tbaa !8
  %2 = load ptr, ptr %q, align 8, !tbaa !8
  %call2 = tail call noundef i32 @_Z10RealMemCmpPKcS0_m(ptr noundef %1, ptr noundef %2, i64 noundef 1) #21
  %cmp.i = icmp sgt i32 %call2, 0
  %lhsc = load i8, ptr %1, align 1
  %rhsc = load i8, ptr %2, align 1
  %cmp.i96 = icmp ugt i8 %lhsc, %rhsc
  %3 = xor i1 %cmp.i, %cmp.i96
  br i1 %3, label %if.then, label %invoke.cont25

for.body:                                         ; preds = %for.body, %invoke.cont
  %indvars.iv = phi i64 [ 0, %invoke.cont ], [ %indvars.iv.next.3, %for.body ]
  %4 = load ptr, ptr %p, align 8, !tbaa !8
  %add.ptr = getelementptr inbounds i8, ptr %4, i64 %indvars.iv
  store i8 -1, ptr %add.ptr, align 1, !tbaa !5
  %indvars.iv.next = or i64 %indvars.iv, 1
  %5 = load ptr, ptr %p, align 8, !tbaa !8
  %add.ptr.1 = getelementptr inbounds i8, ptr %5, i64 %indvars.iv.next
  store i8 -1, ptr %add.ptr.1, align 1, !tbaa !5
  %indvars.iv.next.1 = or i64 %indvars.iv, 2
  %6 = load ptr, ptr %p, align 8, !tbaa !8
  %add.ptr.2 = getelementptr inbounds i8, ptr %6, i64 %indvars.iv.next.1
  store i8 -1, ptr %add.ptr.2, align 1, !tbaa !5
  %indvars.iv.next.2 = or i64 %indvars.iv, 3
  %7 = load ptr, ptr %p, align 8, !tbaa !8
  %add.ptr.3 = getelementptr inbounds i8, ptr %7, i64 %indvars.iv.next.2
  store i8 -1, ptr %add.ptr.3, align 1, !tbaa !5
  %indvars.iv.next.3 = add nuw nsw i64 %indvars.iv, 4
  %exitcond.not.3 = icmp eq i64 %indvars.iv.next.3, 4096
  br i1 %exitcond.not.3, label %for.cond.cleanup, label %for.body, !llvm.loop !94

if.then:                                          ; preds = %for.cond.cleanup
  %call1.i97 = invoke noundef nonnull align 8 dereferenceable(8) ptr @_ZNSt3__124__put_character_sequenceB7v170000IcNS_11char_traitsIcEEEERNS_13basic_ostreamIT_T0_EES7_PKS4_m(ptr noundef nonnull align 8 dereferenceable(8) @_ZNSt3__14cerrE, ptr noundef nonnull @.str.336, i64 noundef 25)
          to label %invoke.cont10 unwind label %lpad9

invoke.cont10:                                    ; preds = %if.then
  %call1.i99 = invoke noundef nonnull align 8 dereferenceable(8) ptr @_ZNSt3__124__put_character_sequenceB7v170000IcNS_11char_traitsIcEEEERNS_13basic_ostreamIT_T0_EES7_PKS4_m(ptr noundef nonnull align 8 dereferenceable(8) %call1.i97, ptr noundef nonnull @_ZN15GreaterThanZero8kDisplayE, i64 noundef 15)
          to label %invoke.cont12 unwind label %lpad9

invoke.cont12:                                    ; preds = %invoke.cont10
  %call1.i102 = invoke noundef nonnull align 8 dereferenceable(8) ptr @_ZNSt3__124__put_character_sequenceB7v170000IcNS_11char_traitsIcEEEERNS_13basic_ostreamIT_T0_EES7_PKS4_m(ptr noundef nonnull align 8 dereferenceable(8) %call1.i99, ptr noundef nonnull @.str.337, i64 noundef 5)
          to label %invoke.cont14 unwind label %lpad9

invoke.cont14:                                    ; preds = %invoke.cont12
  %call1.i105 = invoke noundef nonnull align 8 dereferenceable(8) ptr @_ZNSt3__124__put_character_sequenceB7v170000IcNS_11char_traitsIcEEEERNS_13basic_ostreamIT_T0_EES7_PKS4_m(ptr noundef nonnull align 8 dereferenceable(8) %call1.i102, ptr noundef nonnull @_ZN5First8kDisplayE, i64 noundef 5)
          to label %invoke.cont16 unwind label %lpad9

invoke.cont16:                                    ; preds = %invoke.cont14
  %call1.i108 = invoke noundef nonnull align 8 dereferenceable(8) ptr @_ZNSt3__124__put_character_sequenceB7v170000IcNS_11char_traitsIcEEEERNS_13basic_ostreamIT_T0_EES7_PKS4_m(ptr noundef nonnull align 8 dereferenceable(8) %call1.i105, ptr noundef nonnull @.str.338, i64 noundef 7)
          to label %invoke.cont18 unwind label %lpad9

invoke.cont18:                                    ; preds = %invoke.cont16
  %call21 = invoke noundef nonnull align 8 dereferenceable(8) ptr @_ZNSt3__113basic_ostreamIcNS_11char_traitsIcEEElsEi(ptr noundef nonnull align 8 dereferenceable(8) %call1.i108, i32 noundef 1)
          to label %invoke.cont20 unwind label %lpad9

invoke.cont20:                                    ; preds = %invoke.cont18
  %call.i110 = invoke noundef nonnull align 8 dereferenceable(8) ptr @_ZNSt3__14endlB7v170000IcNS_11char_traitsIcEEEERNS_13basic_ostreamIT_T0_EES7_(ptr noundef nonnull align 8 dereferenceable(8) %call21)
          to label %invoke.cont22 unwind label %lpad9

invoke.cont22:                                    ; preds = %invoke.cont20
  tail call void @exit(i32 noundef 1) #22
  unreachable

lpad9:                                            ; preds = %invoke.cont20, %invoke.cont16, %invoke.cont14, %invoke.cont12, %invoke.cont10, %if.then, %invoke.cont18
  %8 = landingpad { ptr, i32 }
          cleanup
  br label %_ZNSt3__16vectorIcNS_9allocatorIcEEED2B7v170000Ev.exit121

invoke.cont25:                                    ; preds = %for.cond.cleanup
  call void asm sideeffect "", "=*r|m,0,~{memory},~{dirflag},~{fpsr},~{flags}"(ptr nonnull elementtype(ptr) %p, ptr nonnull %1) #20, !srcloc !10
  call void asm sideeffect "", "=*r|m,0,~{memory},~{dirflag},~{fpsr},~{flags}"(ptr nonnull elementtype(ptr) %q, ptr nonnull %2) #20, !srcloc !10
  %error_occurred_.i.i = getelementptr inbounds %"class.benchmark::State", ptr %state, i64 0, i32 5
  %9 = load i8, ptr %error_occurred_.i.i, align 2, !tbaa !11, !range !26, !noundef !27
  %max_iterations.i.i = getelementptr inbounds %"class.benchmark::State", ptr %state, i64 0, i32 2
  %10 = load i64, ptr %max_iterations.i.i, align 8
  invoke void @_ZN9benchmark5State16StartKeepRunningEv(ptr noundef nonnull align 8 dereferenceable(120) %state)
          to label %for.cond30.preheader unwind label %lpad27

for.cond30.preheader:                             ; preds = %invoke.cont25
  %tobool.not.i.i = icmp ne i8 %9, 0
  %cmp.not.i.not136143 = icmp eq i64 %10, 0
  %cmp.not.i.not136 = select i1 %tobool.not.i.i, i1 true, i1 %cmp.not.i.not136143
  br i1 %cmp.not.i.not136, label %if.end.i, label %for.body34, !prof !28

if.end.i:                                         ; preds = %for.cond.cleanup39, %for.cond30.preheader
  invoke void @_ZN9benchmark5State17FinishKeepRunningEv(ptr noundef nonnull align 8 dereferenceable(120) %state)
          to label %for.cond.cleanup33 unwind label %lpad27

for.cond.cleanup33:                               ; preds = %if.end.i
  %started_.i = getelementptr inbounds %"class.benchmark::State", ptr %state, i64 0, i32 3
  %11 = load i8, ptr %started_.i, align 8, !tbaa !29, !range !26, !noundef !27
  %tobool.not.i = icmp eq i8 %11, 0
  br i1 %tobool.not.i, label %_ZNK9benchmark5State10iterationsEv.exit, label %if.end.i85, !prof !28

if.end.i85:                                       ; preds = %for.cond.cleanup33
  %12 = load i64, ptr %max_iterations.i.i, align 8, !tbaa !30
  %13 = load i64, ptr %state, align 8, !tbaa !31
  %sub.i = sub i64 %12, %13
  %batch_leftover_.i = getelementptr inbounds %"class.benchmark::State", ptr %state, i64 0, i32 1
  %14 = load i64, ptr %batch_leftover_.i, align 8, !tbaa !32
  %add.i = add i64 %sub.i, %14
  %15 = shl i64 %add.i, 12
  %16 = sitofp i64 %15 to double
  br label %_ZNK9benchmark5State10iterationsEv.exit

_ZNK9benchmark5State10iterationsEv.exit:          ; preds = %for.cond.cleanup33, %if.end.i85
  %retval.0.i = phi double [ %16, %if.end.i85 ], [ 0.000000e+00, %for.cond.cleanup33 ]
  %counters.i = getelementptr inbounds %"class.benchmark::State", ptr %state, i64 0, i32 8
  call void @llvm.lifetime.start.p0(i64 24, ptr nonnull %ref.tmp2.i) #20
  store i8 32, ptr %ref.tmp2.i, align 8
  %__data_.i.i.i.i = getelementptr inbounds %"struct.std::__1::basic_string<char>::__short", ptr %ref.tmp2.i, i64 0, i32 2
  %cmp.i24.i.i.i = icmp ugt ptr %__data_.i.i.i.i, @.str.341
  %add.ptr.i.i.i.i = getelementptr inbounds %"struct.std::__1::basic_string<char>::__short", ptr %ref.tmp2.i, i64 0, i32 2, i64 16
  %cmp1.i.i.i.i = icmp ule ptr %add.ptr.i.i.i.i, @.str.341
  %17 = or i1 %cmp.i24.i.i.i, %cmp1.i.i.i.i
  call void @llvm.assume(i1 %17)
  call void @llvm.memcpy.p0.p0.i64(ptr noundef nonnull align 1 dereferenceable(16) %__data_.i.i.i.i, ptr noundef nonnull align 1 dereferenceable(16) @.str.341, i64 16, i1 false)
  store i8 0, ptr %add.ptr.i.i.i.i, align 1, !tbaa !5
  call void @llvm.lifetime.start.p0(i64 8, ptr nonnull %__parent.i.i.i) #20
  %call.i.i6.i = invoke noundef nonnull align 8 dereferenceable(8) ptr @_ZNSt3__16__treeINS_12__value_typeINS_12basic_stringIcNS_11char_traitsIcEENS_9allocatorIcEEEEN9benchmark7CounterEEENS_19__map_value_compareIS7_SA_NS_4lessIS7_EELb1EEENS5_ISA_EEE12__find_equalIS7_EERPNS_16__tree_node_baseIPvEERPNS_15__tree_end_nodeISL_EERKT_(ptr noundef nonnull align 8 dereferenceable(24) %counters.i, ptr noundef nonnull align 8 dereferenceable(8) %__parent.i.i.i, ptr noundef nonnull align 8 dereferenceable(24) %ref.tmp2.i)
          to label %call.i.i.noexc.i unwind label %lpad.i

call.i.i.noexc.i:                                 ; preds = %_ZNK9benchmark5State10iterationsEv.exit
  %18 = load ptr, ptr %call.i.i6.i, align 8, !tbaa !8
  %cmp.i.i4.i = icmp eq ptr %18, null
  br i1 %cmp.i.i4.i, label %if.then.i.i5.i, label %invoke.cont.i

if.then.i.i5.i:                                   ; preds = %call.i.i.noexc.i
  %call.i.i.i.i.i.i.i7.i = invoke noalias noundef nonnull dereferenceable(72) ptr @_Znwm(i64 noundef 72) #19
          to label %call.i.i.i.i.i.i.i.noexc.i unwind label %lpad.i

call.i.i.i.i.i.i.i.noexc.i:                       ; preds = %if.then.i.i5.i
  %__value_.i.i.i.i = getelementptr inbounds %"class.std::__1::__tree_node", ptr %call.i.i.i.i.i.i.i7.i, i64 0, i32 1
  call void @llvm.memcpy.p0.p0.i64(ptr noundef nonnull align 8 dereferenceable(24) %__value_.i.i.i.i, ptr noundef nonnull align 8 dereferenceable(24) %ref.tmp2.i, i64 24, i1 false), !noalias !95
  call void @llvm.memset.p0.i64(ptr noundef nonnull align 8 dereferenceable(24) %ref.tmp2.i, i8 0, i64 24, i1 false), !noalias !95
  %second.i.i.i.i.i.i.i.i = getelementptr inbounds %"class.std::__1::__tree_node", ptr %call.i.i.i.i.i.i.i7.i, i64 0, i32 1, i32 0, i32 1
  store double 0.000000e+00, ptr %second.i.i.i.i.i.i.i.i, align 8, !tbaa !36, !noalias !95
  %flags.i.i.i.i.i.i.i.i.i = getelementptr inbounds %"class.std::__1::__tree_node", ptr %call.i.i.i.i.i.i.i7.i, i64 0, i32 1, i32 0, i32 1, i32 1
  store i32 0, ptr %flags.i.i.i.i.i.i.i.i.i, align 8, !tbaa !41, !noalias !95
  %oneK.i.i.i.i.i.i.i.i.i = getelementptr inbounds %"class.std::__1::__tree_node", ptr %call.i.i.i.i.i.i.i7.i, i64 0, i32 1, i32 0, i32 1, i32 2
  store i32 1000, ptr %oneK.i.i.i.i.i.i.i.i.i, align 4, !tbaa !42, !noalias !95
  %19 = load ptr, ptr %__parent.i.i.i, align 8, !tbaa !8
  %__parent_.i.i.i.i = getelementptr inbounds %"class.std::__1::__tree_node_base", ptr %call.i.i.i.i.i.i.i7.i, i64 0, i32 2
  call void @llvm.memset.p0.i64(ptr noundef nonnull align 8 dereferenceable(16) %call.i.i.i.i.i.i.i7.i, i8 0, i64 16, i1 false)
  store ptr %19, ptr %__parent_.i.i.i.i, align 8, !tbaa !43
  store ptr %call.i.i.i.i.i.i.i7.i, ptr %call.i.i6.i, align 8, !tbaa !8
  %20 = load ptr, ptr %counters.i, align 8, !tbaa !8
  %21 = load ptr, ptr %20, align 8, !tbaa !45
  %cmp.not.i.i.i.i = icmp eq ptr %21, null
  br i1 %cmp.not.i.i.i.i, label %_ZNSt3__110unique_ptrINS_11__tree_nodeINS_12__value_typeINS_12basic_stringIcNS_11char_traitsIcEENS_9allocatorIcEEEEN9benchmark7CounterEEEPvEENS_22__tree_node_destructorINS6_ISD_EEEEED2B7v170000Ev.exit.i.i.i, label %if.then.i.i.i.i

if.then.i.i.i.i:                                  ; preds = %call.i.i.i.i.i.i.i.noexc.i
  store ptr %21, ptr %counters.i, align 8, !tbaa !8
  %.pre.i.i.i.i = load ptr, ptr %call.i.i6.i, align 8, !tbaa !8
  br label %_ZNSt3__110unique_ptrINS_11__tree_nodeINS_12__value_typeINS_12basic_stringIcNS_11char_traitsIcEENS_9allocatorIcEEEEN9benchmark7CounterEEEPvEENS_22__tree_node_destructorINS6_ISD_EEEEED2B7v170000Ev.exit.i.i.i

_ZNSt3__110unique_ptrINS_11__tree_nodeINS_12__value_typeINS_12basic_stringIcNS_11char_traitsIcEENS_9allocatorIcEEEEN9benchmark7CounterEEEPvEENS_22__tree_node_destructorINS6_ISD_EEEEED2B7v170000Ev.exit.i.i.i: ; preds = %if.then.i.i.i.i, %call.i.i.i.i.i.i.i.noexc.i
  %22 = phi ptr [ %.pre.i.i.i.i, %if.then.i.i.i.i ], [ %call.i.i.i.i.i.i.i7.i, %call.i.i.i.i.i.i.i.noexc.i ]
  %__pair1_.i.i10.i.i.i = getelementptr inbounds %"class.benchmark::State", ptr %state, i64 0, i32 8, i32 0, i32 1
  %23 = load ptr, ptr %__pair1_.i.i10.i.i.i, align 8, !tbaa !45
  call void @_ZNSt3__127__tree_balance_after_insertB7v170000IPNS_16__tree_node_baseIPvEEEEvT_S5_(ptr noundef %23, ptr noundef %22) #20
  %__pair3_.i.i.i.i.i = getelementptr inbounds %"class.benchmark::State", ptr %state, i64 0, i32 8, i32 0, i32 2
  %24 = load i64, ptr %__pair3_.i.i.i.i.i, align 8, !tbaa !46
  %inc.i.i.i.i = add i64 %24, 1
  store i64 %inc.i.i.i.i, ptr %__pair3_.i.i.i.i.i, align 8, !tbaa !46
  br label %invoke.cont.i

invoke.cont.i:                                    ; preds = %_ZNSt3__110unique_ptrINS_11__tree_nodeINS_12__value_typeINS_12basic_stringIcNS_11char_traitsIcEENS_9allocatorIcEEEEN9benchmark7CounterEEEPvEENS_22__tree_node_destructorINS6_ISD_EEEEED2B7v170000Ev.exit.i.i.i, %call.i.i.noexc.i
  %__r.0.i.i.i = phi ptr [ %call.i.i.i.i.i.i.i7.i, %_ZNSt3__110unique_ptrINS_11__tree_nodeINS_12__value_typeINS_12basic_stringIcNS_11char_traitsIcEENS_9allocatorIcEEEEN9benchmark7CounterEEEPvEENS_22__tree_node_destructorINS6_ISD_EEEEED2B7v170000Ev.exit.i.i.i ], [ %18, %call.i.i.noexc.i ]
  call void @llvm.lifetime.end.p0(i64 8, ptr nonnull %__parent.i.i.i) #20
