; ModuleID = '/local/mnt2/workspace2/mnadeem/llvm/llvm-test-suite/MultiSource/Benchmarks/DOE-ProxyApps-C++/PENNANT/GenMesh.cc'
source_filename = "/local/mnt2/workspace2/mnadeem/llvm/llvm-test-suite/MultiSource/Benchmarks/DOE-ProxyApps-C++/PENNANT/GenMesh.cc"
target datalayout = "e-m:e-p270:32:32-p271:32:32-p272:64:64-i64:64-f80:128-n8:16:32:64-S128"
target triple = "x86_64-unknown-linux-gnu"

%"class.std::__1::basic_ostream" = type { ptr, %"class.std::__1::basic_ios.base" }
%"class.std::__1::basic_ios.base" = type <{ %"class.std::__1::ios_base", ptr, i32 }>
%"class.std::__1::ios_base" = type { ptr, i32, i64, i64, i32, i32, ptr, ptr, ptr, ptr, i64, i64, ptr, i64, i64, ptr, i64, i64 }
%"class.std::__1::locale::id" = type <{ %"struct.std::__1::once_flag", i32, [4 x i8] }>
%"struct.std::__1::once_flag" = type { i64 }
%"class.std::__1::basic_string" = type { %"class.std::__1::__compressed_pair" }
%"class.std::__1::__compressed_pair" = type { %"struct.std::__1::__compressed_pair_elem" }
%"struct.std::__1::__compressed_pair_elem" = type { %"struct.std::__1::basic_string<char>::__rep" }
%"struct.std::__1::basic_string<char>::__rep" = type { %union.anon }
%union.anon = type { %"struct.std::__1::basic_string<char>::__long" }
%"struct.std::__1::basic_string<char>::__long" = type { %struct.anon, i64, ptr }
%struct.anon = type { i64 }
%"class.std::__1::vector" = type { ptr, ptr, %"class.std::__1::__compressed_pair.11" }
%"class.std::__1::__compressed_pair.11" = type { %"struct.std::__1::__compressed_pair_elem.12" }
%"struct.std::__1::__compressed_pair_elem.12" = type { ptr }
%"struct.std::__1::basic_string<char>::__short" = type { %struct.anon.0, [0 x i8], [23 x i8] }
%struct.anon.0 = type { i8 }
%class.GenMesh = type { %"class.std::__1::basic_string", i32, i32, double, double, i32, i32, i32, i32, i32, i32, i32, i32 }
%"class.std::__1::locale" = type { ptr }
%"class.std::__1::vector.17" = type { ptr, ptr, %"class.std::__1::__compressed_pair.19" }
%"class.std::__1::__compressed_pair.19" = type { %"struct.std::__1::__compressed_pair_elem.20" }
%"struct.std::__1::__compressed_pair_elem.20" = type { ptr }
%struct.double2 = type { double, double }
%"class.std::__1::vector.18" = type { ptr, ptr, %"class.std::__1::__compressed_pair.25" }
%"class.std::__1::__compressed_pair.25" = type { %"struct.std::__1::__compressed_pair_elem.26" }
%"struct.std::__1::__compressed_pair_elem.26" = type { ptr }
%"class.std::__1::basic_ostream<char>::sentry" = type { i8, ptr }
%"class.std::__1::basic_ios" = type <{ %"class.std::__1::ios_base", ptr, i32, [4 x i8] }>

$_ZNSt3__14endlB7v170000IcNS_11char_traitsIcEEEERNS_13basic_ostreamIT_T0_EES7_ = comdat any

$_ZNSt3__1lsB7v170000IcNS_11char_traitsIcEENS_9allocatorIcEEEERNS_13basic_ostreamIT_T0_EES9_RKNS_12basic_stringIS6_S7_T1_EE = comdat any

$__clang_call_terminate = comdat any

$_ZNSt3__120__throw_length_errorB7v170000EPKc = comdat any

$_ZNSt12length_errorC2B7v170000EPKc = comdat any

$_ZSt28__throw_bad_array_new_lengthB7v170000v = comdat any

$_ZNSt3__124__put_character_sequenceB7v170000IcNS_11char_traitsIcEEEERNS_13basic_ostreamIT_T0_EES7_PKS4_m = comdat any

$_ZNSt3__116__pad_and_outputB7v170000IcNS_11char_traitsIcEEEENS_19ostreambuf_iteratorIT_T0_EES6_PKS4_S8_S8_RNS_8ios_baseES4_ = comdat any

$_ZNKSt3__16vectorI7double2NS_9allocatorIS1_EEE20__throw_length_errorB7v170000Ev = comdat any

$_ZNKSt3__16vectorIiNS_9allocatorIiEEE20__throw_length_errorB7v170000Ev = comdat any

@.str = private unnamed_addr constant [9 x i8] c"meshtype\00", align 1
@_ZN8Parallel4mypeE = external local_unnamed_addr global i32, align 4
@_ZNSt3__14cerrE = external global %"class.std::__1::basic_ostream", align 8
@.str.2 = private unnamed_addr constant [30 x i8] c"Error:  must specify meshtype\00", align 1
@.str.3 = private unnamed_addr constant [4 x i8] c"pie\00", align 1
@.str.4 = private unnamed_addr constant [5 x i8] c"rect\00", align 1
@.str.5 = private unnamed_addr constant [4 x i8] c"hex\00", align 1
@.str.6 = private unnamed_addr constant [26 x i8] c"Error:  invalid meshtype \00", align 1
@.str.7 = private unnamed_addr constant [11 x i8] c"meshparams\00", align 1
@.str.8 = private unnamed_addr constant [32 x i8] c"Error:  must specify meshparams\00", align 1
@.str.9 = private unnamed_addr constant [41 x i8] c"Error:  meshparams must have <= 4 values\00", align 1
@.str.10 = private unnamed_addr constant [43 x i8] c"Error:  meshparams values must be positive\00", align 1
@.str.11 = private unnamed_addr constant [39 x i8] c"Error:  meshparams theta must be < 360\00", align 1
@_ZN8Parallel5numpeE = external local_unnamed_addr global i32, align 4
@_ZTISt12length_error = external constant ptr
@_ZTVSt12length_error = external unnamed_addr constant { [5 x ptr] }, align 8
@_ZTISt20bad_array_new_length = external constant ptr
@_ZNSt3__15ctypeIcE2idE = external global %"class.std::__1::locale::id", align 8
@.str.13 = private unnamed_addr constant [7 x i8] c"vector\00", align 1

@_ZN7GenMeshC1EPK9InputFile = dso_local unnamed_addr alias void (ptr, ptr), ptr @_ZN7GenMeshC2EPK9InputFile
@_ZN7GenMeshD1Ev = dso_local unnamed_addr alias void (ptr), ptr @_ZN7GenMeshD2Ev

; Function Attrs: uwtable
define dso_local void @_ZN7GenMeshC2EPK9InputFile(ptr noundef nonnull align 8 dereferenceable(80) %this, ptr noundef %inp) unnamed_addr #0 align 2 personality ptr @__gxx_personality_v0 {
entry:
  %ref.tmp = alloca %"class.std::__1::basic_string", align 8
  %ref.tmp2 = alloca %"class.std::__1::basic_string", align 8
  %ref.tmp3 = alloca %"class.std::__1::basic_string", align 8
  %params = alloca %"class.std::__1::vector", align 8
  %ref.tmp40 = alloca %"class.std::__1::basic_string", align 8
  %ref.tmp43 = alloca %"class.std::__1::vector", align 8
  tail call void @llvm.memset.p0.i64(ptr noundef nonnull align 8 dereferenceable(24) %this, i8 0, i64 24, i1 false)
  call void @llvm.lifetime.start.p0(i64 24, ptr nonnull %ref.tmp) #21
  call void @llvm.lifetime.start.p0(i64 24, ptr nonnull %ref.tmp2) #21
  store i8 16, ptr %ref.tmp2, align 8
  %__data_.i.i.i = getelementptr inbounds %"struct.std::__1::basic_string<char>::__short", ptr %ref.tmp2, i64 0, i32 2
  %cmp.i24.i.i = icmp ugt ptr %__data_.i.i.i, @.str
  %add.ptr.i.i.i = getelementptr inbounds %"struct.std::__1::basic_string<char>::__short", ptr %ref.tmp2, i64 0, i32 2, i64 8
  %cmp1.i.i.i = icmp ule ptr %add.ptr.i.i.i, @.str
  %0 = or i1 %cmp.i24.i.i, %cmp1.i.i.i
  call void @llvm.assume(i1 %0)
  store i64 7309475736097875309, ptr %__data_.i.i.i, align 1
  store i8 0, ptr %add.ptr.i.i.i, align 1, !tbaa !5
  call void @llvm.lifetime.start.p0(i64 24, ptr nonnull %ref.tmp3) #21
  store i8 0, ptr %ref.tmp3, align 8
  %__data_.i.i.i161 = getelementptr inbounds %"struct.std::__1::basic_string<char>::__short", ptr %ref.tmp3, i64 0, i32 2
  store i8 0, ptr %__data_.i.i.i161, align 1, !tbaa !5
  invoke void @_ZNK9InputFile9getStringERKNSt3__112basic_stringIcNS0_11char_traitsIcEENS0_9allocatorIcEEEES8_(ptr nonnull sret(%"class.std::__1::basic_string") align 8 %ref.tmp, ptr noundef nonnull align 8 dereferenceable(24) %inp, ptr noundef nonnull align 8 dereferenceable(24) %ref.tmp2, ptr noundef nonnull align 8 dereferenceable(24) %ref.tmp3)
          to label %invoke.cont7 unwind label %lpad6

invoke.cont7:                                     ; preds = %entry
  %bf.load.i.i.i = load i8, ptr %this, align 8
  %bf.clear.i.i.i = and i8 %bf.load.i.i.i, 1
  %tobool.i.not.i.i = icmp eq i8 %bf.clear.i.i.i, 0
  br i1 %tobool.i.not.i.i, label %_ZNSt3__112basic_stringIcNS_11char_traitsIcEENS_9allocatorIcEEED2Ev.exit, label %if.then.i.i178

if.then.i.i178:                                   ; preds = %invoke.cont7
  %__data_.i.i.i177 = getelementptr inbounds %"struct.std::__1::basic_string<char>::__long", ptr %this, i64 0, i32 2
  %1 = load ptr, ptr %__data_.i.i.i177, align 8, !tbaa !5
  call void @_ZdlPv(ptr noundef %1) #22
  br label %_ZNSt3__112basic_stringIcNS_11char_traitsIcEENS_9allocatorIcEEED2Ev.exit

_ZNSt3__112basic_stringIcNS_11char_traitsIcEENS_9allocatorIcEEED2Ev.exit: ; preds = %if.then.i.i178, %invoke.cont7
  call void @llvm.memcpy.p0.p0.i64(ptr noundef nonnull align 8 dereferenceable(24) %this, ptr noundef nonnull align 8 dereferenceable(24) %ref.tmp, i64 24, i1 false), !tbaa.struct !8
  store i8 0, ptr %ref.tmp, align 8
  %__data_.i13.i.i = getelementptr inbounds %"struct.std::__1::basic_string<char>::__short", ptr %ref.tmp, i64 0, i32 2
  store i8 0, ptr %__data_.i13.i.i, align 1, !tbaa !5
  %bf.load.i.i179 = load i8, ptr %ref.tmp3, align 8
  %bf.clear.i.i180 = and i8 %bf.load.i.i179, 1
  %tobool.i.not.i181 = icmp eq i8 %bf.clear.i.i180, 0
  br i1 %tobool.i.not.i181, label %_ZNSt3__112basic_stringIcNS_11char_traitsIcEENS_9allocatorIcEEED2Ev.exit184, label %if.then.i183

if.then.i183:                                     ; preds = %_ZNSt3__112basic_stringIcNS_11char_traitsIcEENS_9allocatorIcEEED2Ev.exit
  %__data_.i.i182 = getelementptr inbounds %"struct.std::__1::basic_string<char>::__long", ptr %ref.tmp3, i64 0, i32 2
  %2 = load ptr, ptr %__data_.i.i182, align 8, !tbaa !5
  call void @_ZdlPv(ptr noundef %2) #22
  br label %_ZNSt3__112basic_stringIcNS_11char_traitsIcEENS_9allocatorIcEEED2Ev.exit184

_ZNSt3__112basic_stringIcNS_11char_traitsIcEENS_9allocatorIcEEED2Ev.exit184: ; preds = %_ZNSt3__112basic_stringIcNS_11char_traitsIcEENS_9allocatorIcEEED2Ev.exit, %if.then.i183
  call void @llvm.lifetime.end.p0(i64 24, ptr nonnull %ref.tmp3) #21
  %bf.load.i.i185 = load i8, ptr %ref.tmp2, align 8
  %bf.clear.i.i186 = and i8 %bf.load.i.i185, 1
  %tobool.i.not.i187 = icmp eq i8 %bf.clear.i.i186, 0
  br i1 %tobool.i.not.i187, label %_ZNSt3__112basic_stringIcNS_11char_traitsIcEENS_9allocatorIcEEED2Ev.exit190, label %if.then.i189

if.then.i189:                                     ; preds = %_ZNSt3__112basic_stringIcNS_11char_traitsIcEENS_9allocatorIcEEED2Ev.exit184
  %__data_.i.i188 = getelementptr inbounds %"struct.std::__1::basic_string<char>::__long", ptr %ref.tmp2, i64 0, i32 2
  %3 = load ptr, ptr %__data_.i.i188, align 8, !tbaa !5
  call void @_ZdlPv(ptr noundef %3) #22
  br label %_ZNSt3__112basic_stringIcNS_11char_traitsIcEENS_9allocatorIcEEED2Ev.exit190

_ZNSt3__112basic_stringIcNS_11char_traitsIcEENS_9allocatorIcEEED2Ev.exit190: ; preds = %_ZNSt3__112basic_stringIcNS_11char_traitsIcEENS_9allocatorIcEEED2Ev.exit184, %if.then.i189
  call void @llvm.lifetime.end.p0(i64 24, ptr nonnull %ref.tmp2) #21
  call void @llvm.lifetime.end.p0(i64 24, ptr nonnull %ref.tmp) #21
  %bf.load.i.i.i191 = load i8, ptr %this, align 8
  %bf.clear.i.i.i192 = and i8 %bf.load.i.i.i191, 1
  %tobool.i.not.i.i193 = icmp eq i8 %bf.clear.i.i.i192, 0
  %__size_.i.i.i194 = getelementptr inbounds %"struct.std::__1::basic_string<char>::__long", ptr %this, i64 0, i32 1
  %4 = load i64, ptr %__size_.i.i.i194, align 8
  %bf.lshr.i.i.i = lshr i8 %bf.load.i.i.i191, 1
  %conv.i.i.i195 = zext i8 %bf.lshr.i.i.i to i64
  %cond.i.i = select i1 %tobool.i.not.i.i193, i64 %conv.i.i.i195, i64 %4
  switch i64 %cond.i.i, label %if.then28 [
    i64 0, label %if.then
    i64 3, label %_ZNSt3__111char_traitsIcE7compareEPKcS3_m.exit.i.i.i
    i64 4, label %_ZNSt3__111char_traitsIcE7compareEPKcS3_m.exit.i.i.i229
  ]

if.then:                                          ; preds = %_ZNSt3__112basic_stringIcNS_11char_traitsIcEENS_9allocatorIcEEED2Ev.exit190
  %5 = load i32, ptr @_ZN8Parallel4mypeE, align 4, !tbaa !13
  %cmp = icmp eq i32 %5, 0
  br i1 %cmp, label %if.then14, label %if.end

if.then14:                                        ; preds = %if.then
  %call1.i197 = invoke noundef nonnull align 8 dereferenceable(8) ptr @_ZNSt3__124__put_character_sequenceB7v170000IcNS_11char_traitsIcEEEERNS_13basic_ostreamIT_T0_EES7_PKS4_m(ptr noundef nonnull align 8 dereferenceable(8) @_ZNSt3__14cerrE, ptr noundef nonnull @.str.2, i64 noundef 29)
          to label %invoke.cont16 unwind label %lpad15

invoke.cont16:                                    ; preds = %if.then14
  %call.i198 = invoke noundef nonnull align 8 dereferenceable(8) ptr @_ZNSt3__14endlB7v170000IcNS_11char_traitsIcEEEERNS_13basic_ostreamIT_T0_EES7_(ptr noundef nonnull align 8 dereferenceable(8) %call1.i197)
          to label %if.end unwind label %lpad15

lpad6:                                            ; preds = %entry
  %6 = landingpad { ptr, i32 }
          cleanup
  %bf.load.i.i199 = load i8, ptr %ref.tmp3, align 8
  %bf.clear.i.i200 = and i8 %bf.load.i.i199, 1
  %tobool.i.not.i201 = icmp eq i8 %bf.clear.i.i200, 0
  br i1 %tobool.i.not.i201, label %ehcleanup, label %if.then.i203

if.then.i203:                                     ; preds = %lpad6
  %__data_.i.i202 = getelementptr inbounds %"struct.std::__1::basic_string<char>::__long", ptr %ref.tmp3, i64 0, i32 2
  %7 = load ptr, ptr %__data_.i.i202, align 8, !tbaa !5
  call void @_ZdlPv(ptr noundef %7) #22
  br label %ehcleanup

ehcleanup:                                        ; preds = %if.then.i203, %lpad6
  call void @llvm.lifetime.end.p0(i64 24, ptr nonnull %ref.tmp3) #21
  %bf.load.i.i205 = load i8, ptr %ref.tmp2, align 8
  %bf.clear.i.i206 = and i8 %bf.load.i.i205, 1
  %tobool.i.not.i207 = icmp eq i8 %bf.clear.i.i206, 0
  br i1 %tobool.i.not.i207, label %ehcleanup10, label %if.then.i209

if.then.i209:                                     ; preds = %ehcleanup
  %__data_.i.i208 = getelementptr inbounds %"struct.std::__1::basic_string<char>::__long", ptr %ref.tmp2, i64 0, i32 2
  %8 = load ptr, ptr %__data_.i.i208, align 8, !tbaa !5
  call void @_ZdlPv(ptr noundef %8) #22
  br label %ehcleanup10

ehcleanup10:                                      ; preds = %if.then.i209, %ehcleanup
  call void @llvm.lifetime.end.p0(i64 24, ptr nonnull %ref.tmp2) #21
  call void @llvm.lifetime.end.p0(i64 24, ptr nonnull %ref.tmp) #21
  br label %ehcleanup140

lpad15:                                           ; preds = %invoke.cont34, %if.then30, %invoke.cont16, %if.then14, %invoke.cont31
  %9 = landingpad { ptr, i32 }
          cleanup
  br label %ehcleanup140

if.end:                                           ; preds = %invoke.cont16, %if.then
  call void @exit(i32 noundef 1) #23
  unreachable

_ZNSt3__111char_traitsIcE7compareEPKcS3_m.exit.i.i.i: ; preds = %_ZNSt3__112basic_stringIcNS_11char_traitsIcEENS_9allocatorIcEEED2Ev.exit190
  %__data_.i4.i.i.i.i.i = getelementptr inbounds %"struct.std::__1::basic_string<char>::__short", ptr %this, i64 0, i32 2
  %__data_.i.i.i.i.i.i = getelementptr inbounds %"struct.std::__1::basic_string<char>::__long", ptr %this, i64 0, i32 2
  %10 = load ptr, ptr %__data_.i.i.i.i.i.i, align 8
  %cond.i.i.i.i.i = select i1 %tobool.i.not.i.i193, ptr %__data_.i4.i.i.i.i.i, ptr %10
  %bcmp432 = call i32 @bcmp(ptr noundef nonnull dereferenceable(3) %cond.i.i.i.i.i, ptr noundef nonnull dereferenceable(3) @.str.3, i64 3)
  %cmp9.i.i.i = icmp eq i32 %bcmp432, 0
  br i1 %cmp9.i.i.i, label %if.end39, label %_ZNSt3__111char_traitsIcE7compareEPKcS3_m.exit.i.i.i254

_ZNSt3__111char_traitsIcE7compareEPKcS3_m.exit.i.i.i229: ; preds = %_ZNSt3__112basic_stringIcNS_11char_traitsIcEENS_9allocatorIcEEED2Ev.exit190
  %__data_.i.i.i.i.i.i225.phi.trans.insert = getelementptr inbounds %"struct.std::__1::basic_string<char>::__long", ptr %this, i64 0, i32 2
  %.pre = load ptr, ptr %__data_.i.i.i.i.i.i225.phi.trans.insert, align 8
  %__data_.i4.i.i.i.i.i224 = getelementptr inbounds %"struct.std::__1::basic_string<char>::__short", ptr %this, i64 0, i32 2
  %cond.i.i.i.i.i226 = select i1 %tobool.i.not.i.i193, ptr %__data_.i4.i.i.i.i.i224, ptr %.pre
  %bcmp431 = call i32 @bcmp(ptr noundef nonnull dereferenceable(4) %cond.i.i.i.i.i226, ptr noundef nonnull dereferenceable(4) @.str.4, i64 4)
  %cmp9.i.i.i228 = icmp eq i32 %bcmp431, 0
  br i1 %cmp9.i.i.i228, label %if.end39, label %if.then28

_ZNSt3__111char_traitsIcE7compareEPKcS3_m.exit.i.i.i254: ; preds = %_ZNSt3__111char_traitsIcE7compareEPKcS3_m.exit.i.i.i
  %bcmp430 = call i32 @bcmp(ptr noundef nonnull dereferenceable(3) %cond.i.i.i.i.i, ptr noundef nonnull dereferenceable(3) @.str.5, i64 3)
  %cmp9.i.i.i253 = icmp eq i32 %bcmp430, 0
  br i1 %cmp9.i.i.i253, label %if.end39, label %if.then28

if.then28:                                        ; preds = %_ZNSt3__111char_traitsIcE7compareEPKcS3_m.exit.i.i.i229, %_ZNSt3__112basic_stringIcNS_11char_traitsIcEENS_9allocatorIcEEED2Ev.exit190, %_ZNSt3__111char_traitsIcE7compareEPKcS3_m.exit.i.i.i254
  %11 = load i32, ptr @_ZN8Parallel4mypeE, align 4, !tbaa !13
  %cmp29 = icmp eq i32 %11, 0
  br i1 %cmp29, label %if.then30, label %if.end38

if.then30:                                        ; preds = %if.then28
  %call1.i263 = invoke noundef nonnull align 8 dereferenceable(8) ptr @_ZNSt3__124__put_character_sequenceB7v170000IcNS_11char_traitsIcEEEERNS_13basic_ostreamIT_T0_EES7_PKS4_m(ptr noundef nonnull align 8 dereferenceable(8) @_ZNSt3__14cerrE, ptr noundef nonnull @.str.6, i64 noundef 25)
          to label %invoke.cont31 unwind label %lpad15

invoke.cont31:                                    ; preds = %if.then30
  %call35 = invoke noundef nonnull align 8 dereferenceable(8) ptr @_ZNSt3__1lsB7v170000IcNS_11char_traitsIcEENS_9allocatorIcEEEERNS_13basic_ostreamIT_T0_EES9_RKNS_12basic_stringIS6_S7_T1_EE(ptr noundef nonnull align 8 dereferenceable(8) %call1.i263, ptr noundef nonnull align 8 dereferenceable(24) %this)
          to label %invoke.cont34 unwind label %lpad15

invoke.cont34:                                    ; preds = %invoke.cont31
  %call.i265 = invoke noundef nonnull align 8 dereferenceable(8) ptr @_ZNSt3__14endlB7v170000IcNS_11char_traitsIcEEEERNS_13basic_ostreamIT_T0_EES7_(ptr noundef nonnull align 8 dereferenceable(8) %call35)
          to label %if.end38 unwind label %lpad15

if.end38:                                         ; preds = %invoke.cont34, %if.then28
  call void @exit(i32 noundef 1) #23
  unreachable

if.end39:                                         ; preds = %_ZNSt3__111char_traitsIcE7compareEPKcS3_m.exit.i.i.i254, %_ZNSt3__111char_traitsIcE7compareEPKcS3_m.exit.i.i.i229, %_ZNSt3__111char_traitsIcE7compareEPKcS3_m.exit.i.i.i
  call void @llvm.lifetime.start.p0(i64 24, ptr nonnull %params) #21
  call void @llvm.lifetime.start.p0(i64 24, ptr nonnull %ref.tmp40) #21
  store i8 20, ptr %ref.tmp40, align 8
  %__data_.i.i.i274 = getelementptr inbounds %"struct.std::__1::basic_string<char>::__short", ptr %ref.tmp40, i64 0, i32 2
  %cmp.i24.i.i283 = icmp ugt ptr %__data_.i.i.i274, @.str.7
  %add.ptr.i.i.i284 = getelementptr inbounds %"struct.std::__1::basic_string<char>::__short", ptr %ref.tmp40, i64 0, i32 2, i64 10
  %cmp1.i.i.i285 = icmp ule ptr %add.ptr.i.i.i284, @.str.7
  %12 = or i1 %cmp.i24.i.i283, %cmp1.i.i.i285
  call void @llvm.assume(i1 %12)
  call void @llvm.memcpy.p0.p0.i64(ptr noundef nonnull align 1 dereferenceable(10) %__data_.i.i.i274, ptr noundef nonnull align 1 dereferenceable(10) @.str.7, i64 10, i1 false)
  store i8 0, ptr %add.ptr.i.i.i284, align 1, !tbaa !5
  call void @llvm.lifetime.start.p0(i64 24, ptr nonnull %ref.tmp43) #21
  call void @llvm.memset.p0.i64(ptr noundef nonnull align 8 dereferenceable(24) %ref.tmp43, i8 0, i64 24, i1 false)
  invoke void @_ZNK9InputFile13getDoubleListERKNSt3__112basic_stringIcNS0_11char_traitsIcEENS0_9allocatorIcEEEERKNS0_6vectorIdNS4_IdEEEE(ptr nonnull sret(%"class.std::__1::vector") align 8 %params, ptr noundef nonnull align 8 dereferenceable(24) %inp, ptr noundef nonnull align 8 dereferenceable(24) %ref.tmp40, ptr noundef nonnull align 8 dereferenceable(24) %ref.tmp43)
          to label %invoke.cont45 unwind label %lpad44

invoke.cont45:                                    ; preds = %if.end39
  %13 = load ptr, ptr %ref.tmp43, align 8, !tbaa !15
  %cmp.not.i.i = icmp eq ptr %13, null
  br i1 %cmp.not.i.i, label %_ZNSt3__16vectorIdNS_9allocatorIdEEED2B7v170000Ev.exit, label %if.then.i.i290

if.then.i.i290:                                   ; preds = %invoke.cont45
  %__end_.i.i.i.i = getelementptr inbounds %"class.std::__1::vector", ptr %ref.tmp43, i64 0, i32 1
  store ptr %13, ptr %__end_.i.i.i.i, align 8, !tbaa !19
  call void @_ZdlPv(ptr noundef nonnull %13) #22
  br label %_ZNSt3__16vectorIdNS_9allocatorIdEEED2B7v170000Ev.exit

_ZNSt3__16vectorIdNS_9allocatorIdEEED2B7v170000Ev.exit: ; preds = %invoke.cont45, %if.then.i.i290
  call void @llvm.lifetime.end.p0(i64 24, ptr nonnull %ref.tmp43) #21
  %bf.load.i.i291 = load i8, ptr %ref.tmp40, align 8
  %bf.clear.i.i292 = and i8 %bf.load.i.i291, 1
  %tobool.i.not.i293 = icmp eq i8 %bf.clear.i.i292, 0
  br i1 %tobool.i.not.i293, label %_ZNSt3__112basic_stringIcNS_11char_traitsIcEENS_9allocatorIcEEED2Ev.exit296, label %if.then.i295

if.then.i295:                                     ; preds = %_ZNSt3__16vectorIdNS_9allocatorIdEEED2B7v170000Ev.exit
  %__data_.i.i294 = getelementptr inbounds %"struct.std::__1::basic_string<char>::__long", ptr %ref.tmp40, i64 0, i32 2
  %14 = load ptr, ptr %__data_.i.i294, align 8, !tbaa !5
  call void @_ZdlPv(ptr noundef %14) #22
  br label %_ZNSt3__112basic_stringIcNS_11char_traitsIcEENS_9allocatorIcEEED2Ev.exit296

_ZNSt3__112basic_stringIcNS_11char_traitsIcEENS_9allocatorIcEEED2Ev.exit296: ; preds = %_ZNSt3__16vectorIdNS_9allocatorIdEEED2B7v170000Ev.exit, %if.then.i295
  call void @llvm.lifetime.end.p0(i64 24, ptr nonnull %ref.tmp40) #21
  %15 = load ptr, ptr %params, align 8, !tbaa !15
  %__end_.i = getelementptr inbounds %"class.std::__1::vector", ptr %params, i64 0, i32 1
  %16 = load ptr, ptr %__end_.i, align 8, !tbaa !19
  %cmp.i297 = icmp eq ptr %15, %16
  br i1 %cmp.i297, label %if.then51, label %if.end60

if.then51:                                        ; preds = %_ZNSt3__112basic_stringIcNS_11char_traitsIcEENS_9allocatorIcEEED2Ev.exit296
  %17 = load i32, ptr @_ZN8Parallel4mypeE, align 4, !tbaa !13
  %cmp52 = icmp eq i32 %17, 0
  br i1 %cmp52, label %if.then53, label %if.end59

if.then53:                                        ; preds = %if.then51
  %call1.i299 = invoke noundef nonnull align 8 dereferenceable(8) ptr @_ZNSt3__124__put_character_sequenceB7v170000IcNS_11char_traitsIcEEEERNS_13basic_ostreamIT_T0_EES7_PKS4_m(ptr noundef nonnull align 8 dereferenceable(8) @_ZNSt3__14cerrE, ptr noundef nonnull @.str.8, i64 noundef 31)
          to label %invoke.cont55 unwind label %lpad54

invoke.cont55:                                    ; preds = %if.then53
  %call.i301 = invoke noundef nonnull align 8 dereferenceable(8) ptr @_ZNSt3__14endlB7v170000IcNS_11char_traitsIcEEEERNS_13basic_ostreamIT_T0_EES7_(ptr noundef nonnull align 8 dereferenceable(8) %call1.i299)
          to label %if.end59 unwind label %lpad54

lpad44:                                           ; preds = %if.end39
  %18 = landingpad { ptr, i32 }
          cleanup
  %19 = load ptr, ptr %ref.tmp43, align 8, !tbaa !15
  %cmp.not.i.i303 = icmp eq ptr %19, null
  br i1 %cmp.not.i.i303, label %_ZNSt3__16vectorIdNS_9allocatorIdEEED2B7v170000Ev.exit306, label %if.then.i.i305

if.then.i.i305:                                   ; preds = %lpad44
  %__end_.i.i.i.i304 = getelementptr inbounds %"class.std::__1::vector", ptr %ref.tmp43, i64 0, i32 1
  store ptr %19, ptr %__end_.i.i.i.i304, align 8, !tbaa !19
  call void @_ZdlPv(ptr noundef nonnull %19) #22
  br label %_ZNSt3__16vectorIdNS_9allocatorIdEEED2B7v170000Ev.exit306

_ZNSt3__16vectorIdNS_9allocatorIdEEED2B7v170000Ev.exit306: ; preds = %lpad44, %if.then.i.i305
  call void @llvm.lifetime.end.p0(i64 24, ptr nonnull %ref.tmp43) #21
  %bf.load.i.i307 = load i8, ptr %ref.tmp40, align 8
  %bf.clear.i.i308 = and i8 %bf.load.i.i307, 1
  %tobool.i.not.i309 = icmp eq i8 %bf.clear.i.i308, 0
  br i1 %tobool.i.not.i309, label %ehcleanup49, label %if.then.i311

if.then.i311:                                     ; preds = %_ZNSt3__16vectorIdNS_9allocatorIdEEED2B7v170000Ev.exit306
  %__data_.i.i310 = getelementptr inbounds %"struct.std::__1::basic_string<char>::__long", ptr %ref.tmp40, i64 0, i32 2
  %20 = load ptr, ptr %__data_.i.i310, align 8, !tbaa !5
  call void @_ZdlPv(ptr noundef %20) #22
  br label %ehcleanup49

ehcleanup49:                                      ; preds = %if.then.i311, %_ZNSt3__16vectorIdNS_9allocatorIdEEED2B7v170000Ev.exit306
  call void @llvm.lifetime.end.p0(i64 24, ptr nonnull %ref.tmp40) #21
  br label %ehcleanup139

lpad54:                                           ; preds = %invoke.cont132, %if.then131, %invoke.cont118, %if.then117, %invoke.cont66, %if.then65, %invoke.cont55, %if.then53
  %21 = landingpad { ptr, i32 }
          cleanup
  %22 = load ptr, ptr %params, align 8, !tbaa !15
  %cmp.not.i.i313 = icmp eq ptr %22, null
  br i1 %cmp.not.i.i313, label %ehcleanup139, label %if.then.i.i315

if.then.i.i315:                                   ; preds = %lpad54
  store ptr %22, ptr %__end_.i, align 8, !tbaa !19
  call void @_ZdlPv(ptr noundef nonnull %22) #22
  br label %ehcleanup139

if.end59:                                         ; preds = %invoke.cont55, %if.then51
  call void @exit(i32 noundef 1) #23
  unreachable

if.end60:                                         ; preds = %_ZNSt3__112basic_stringIcNS_11char_traitsIcEENS_9allocatorIcEEED2Ev.exit296
  %sub.ptr.lhs.cast.i = ptrtoint ptr %16 to i64
  %sub.ptr.rhs.cast.i = ptrtoint ptr %15 to i64
  %sub.ptr.sub.i = sub i64 %sub.ptr.lhs.cast.i, %sub.ptr.rhs.cast.i
  %cmp62 = icmp ugt i64 %sub.ptr.sub.i, 32
  br i1 %cmp62, label %if.then63, label %if.end71

if.then63:                                        ; preds = %if.end60
  %23 = load i32, ptr @_ZN8Parallel4mypeE, align 4, !tbaa !13
  %cmp64 = icmp eq i32 %23, 0
  br i1 %cmp64, label %if.then65, label %if.end70

if.then65:                                        ; preds = %if.then63
  %call1.i319 = invoke noundef nonnull align 8 dereferenceable(8) ptr @_ZNSt3__124__put_character_sequenceB7v170000IcNS_11char_traitsIcEEEERNS_13basic_ostreamIT_T0_EES7_PKS4_m(ptr noundef nonnull align 8 dereferenceable(8) @_ZNSt3__14cerrE, ptr noundef nonnull @.str.9, i64 noundef 40)
          to label %invoke.cont66 unwind label %lpad54

invoke.cont66:                                    ; preds = %if.then65
  %call.i321 = invoke noundef nonnull align 8 dereferenceable(8) ptr @_ZNSt3__14endlB7v170000IcNS_11char_traitsIcEEEERNS_13basic_ostreamIT_T0_EES7_(ptr noundef nonnull align 8 dereferenceable(8) %call1.i319)
          to label %if.end70 unwind label %lpad54

if.end70:                                         ; preds = %invoke.cont66, %if.then63
  call void @exit(i32 noundef 1) #23
  unreachable

if.end71:                                         ; preds = %if.end60
  %24 = load double, ptr %15, align 8, !tbaa !20
  %conv = fptosi double %24 to i32
  %gnzx = getelementptr inbounds %class.GenMesh, ptr %this, i64 0, i32 1
  store i32 %conv, ptr %gnzx, align 8, !tbaa !22
  %cmp74 = icmp ugt i64 %sub.ptr.sub.i, 8
  br i1 %cmp74, label %cond.true, label %cond.false

cond.true:                                        ; preds = %if.end71
  %arrayidx.i = getelementptr inbounds double, ptr %15, i64 1
  %25 = load double, ptr %arrayidx.i, align 8, !tbaa !20
  br label %cond.end

cond.false:                                       ; preds = %if.end71
  %conv77 = sitofp i32 %conv to double
  br label %cond.end

cond.end:                                         ; preds = %cond.false, %cond.true
  %cond = phi double [ %25, %cond.true ], [ %conv77, %cond.false ]
  %conv78 = fptosi double %cond to i32
  %gnzy = getelementptr inbounds %class.GenMesh, ptr %this, i64 0, i32 2
  store i32 %conv78, ptr %gnzy, align 4, !tbaa !28
  %bf.load.i.i.i.i329 = load i8, ptr %this, align 8
  %bf.clear.i.i.i.i330 = and i8 %bf.load.i.i.i.i329, 1
  %tobool.i.not.i.i.i331 = icmp eq i8 %bf.clear.i.i.i.i330, 0
  %26 = load i64, ptr %__size_.i.i.i194, align 8
  %bf.lshr.i.i.i.i333 = lshr i8 %bf.load.i.i.i.i329, 1
  %conv.i.i.i.i334 = zext i8 %bf.lshr.i.i.i.i333 to i64
  %cond.i.i.i335 = select i1 %tobool.i.not.i.i.i331, i64 %conv.i.i.i.i334, i64 %26
  %cmp2.not.i.i336 = icmp eq i64 %cond.i.i.i335, 3
  br i1 %cmp2.not.i.i336, label %_ZNSt3__111char_traitsIcE7compareEPKcS3_m.exit.i.i.i345, label %if.then81

_ZNSt3__111char_traitsIcE7compareEPKcS3_m.exit.i.i.i345: ; preds = %cond.end
  %__data_.i4.i.i.i.i.i340 = getelementptr inbounds %"struct.std::__1::basic_string<char>::__short", ptr %this, i64 0, i32 2
  %__data_.i.i.i.i.i.i341 = getelementptr inbounds %"struct.std::__1::basic_string<char>::__long", ptr %this, i64 0, i32 2
  %27 = load ptr, ptr %__data_.i.i.i.i.i.i341, align 8
  %cond.i.i.i.i.i342 = select i1 %tobool.i.not.i.i.i331, ptr %__data_.i4.i.i.i.i.i340, ptr %27
  %bcmp429 = call i32 @bcmp(ptr noundef nonnull dereferenceable(3) %cond.i.i.i.i.i342, ptr noundef nonnull dereferenceable(3) @.str.3, i64 3)
  %cmp9.i.i.i344 = icmp eq i32 %bcmp429, 0
  br i1 %cmp9.i.i.i344, label %if.else, label %if.then81

if.then81:                                        ; preds = %_ZNSt3__111char_traitsIcE7compareEPKcS3_m.exit.i.i.i345, %cond.end
  %cmp83 = icmp ugt i64 %sub.ptr.sub.i, 16
  br i1 %cmp83, label %cond.true84, label %if.end97

cond.true84:                                      ; preds = %if.then81
  %arrayidx.i358 = getelementptr inbounds double, ptr %15, i64 2
  %28 = load double, ptr %arrayidx.i358, align 8, !tbaa !20
  br label %if.end97

if.else:                                          ; preds = %_ZNSt3__111char_traitsIcE7compareEPKcS3_m.exit.i.i.i345
  %cmp90 = icmp ugt i64 %sub.ptr.sub.i, 16
  br i1 %cmp90, label %cond.true91, label %cond.end94

cond.true91:                                      ; preds = %if.else
  %arrayidx.i364 = getelementptr inbounds double, ptr %15, i64 2
  %29 = load double, ptr %arrayidx.i364, align 8, !tbaa !20
  %30 = fmul double %29, 0x400921FB54442D18
  br label %cond.end94

cond.end94:                                       ; preds = %if.else, %cond.true91
  %cond95 = phi double [ %30, %cond.true91 ], [ 0x4071ABE4B73FEFB5, %if.else ]
  %div = fdiv double %cond95, 1.800000e+02
  br label %if.end97

if.end97:                                         ; preds = %cond.true84, %if.then81, %cond.end94
  %div.sink = phi double [ %div, %cond.end94 ], [ %28, %cond.true84 ], [ 1.000000e+00, %if.then81 ]
  %lenx96 = getelementptr inbounds %class.GenMesh, ptr %this, i64 0, i32 3
  store double %div.sink, ptr %lenx96, align 8, !tbaa !29
  %cmp99 = icmp ugt i64 %sub.ptr.sub.i, 24
  br i1 %cmp99, label %cond.true100, label %cond.end103

cond.true100:                                     ; preds = %if.end97
  %arrayidx.i370 = getelementptr inbounds double, ptr %15, i64 3
  %31 = load double, ptr %arrayidx.i370, align 8, !tbaa !20
  br label %cond.end103

cond.end103:                                      ; preds = %if.end97, %cond.true100
  %cond104 = phi double [ %31, %cond.true100 ], [ 1.000000e+00, %if.end97 ]
  %leny = getelementptr inbounds %class.GenMesh, ptr %this, i64 0, i32 4
  store double %cond104, ptr %leny, align 8, !tbaa !30
  %cmp106 = icmp slt i32 %conv, 1
  %cmp108 = icmp slt i32 %conv78, 1
  %or.cond = select i1 %cmp106, i1 true, i1 %cmp108
  br i1 %or.cond, label %if.then115, label %lor.lhs.false109

lor.lhs.false109:                                 ; preds = %cond.end103
  %cmp111 = fcmp ugt double %div.sink, 0.000000e+00
  %cmp114 = fcmp ugt double %cond104, 0.000000e+00
  %or.cond151 = select i1 %cmp111, i1 %cmp114, i1 false
  br i1 %or.cond151, label %if.end123, label %if.then115

if.then115:                                       ; preds = %lor.lhs.false109, %cond.end103
  %32 = load i32, ptr @_ZN8Parallel4mypeE, align 4, !tbaa !13
  %cmp116 = icmp eq i32 %32, 0
  br i1 %cmp116, label %if.then117, label %if.end122

if.then117:                                       ; preds = %if.then115
  %call1.i372 = invoke noundef nonnull align 8 dereferenceable(8) ptr @_ZNSt3__124__put_character_sequenceB7v170000IcNS_11char_traitsIcEEEERNS_13basic_ostreamIT_T0_EES7_PKS4_m(ptr noundef nonnull align 8 dereferenceable(8) @_ZNSt3__14cerrE, ptr noundef nonnull @.str.10, i64 noundef 42)
          to label %invoke.cont118 unwind label %lpad54

invoke.cont118:                                   ; preds = %if.then117
  %call.i374 = invoke noundef nonnull align 8 dereferenceable(8) ptr @_ZNSt3__14endlB7v170000IcNS_11char_traitsIcEEEERNS_13basic_ostreamIT_T0_EES7_(ptr noundef nonnull align 8 dereferenceable(8) %call1.i372)
          to label %if.end122 unwind label %lpad54

if.end122:                                        ; preds = %invoke.cont118, %if.then115
  call void @exit(i32 noundef 1) #23
  unreachable

if.end123:                                        ; preds = %lor.lhs.false109
  br i1 %cmp2.not.i.i336, label %_ZNSt3__111char_traitsIcE7compareEPKcS3_m.exit.i.i, label %_ZNSt3__16vectorIdNS_9allocatorIdEEED2B7v170000Ev.exit394

_ZNSt3__111char_traitsIcE7compareEPKcS3_m.exit.i.i: ; preds = %if.end123
  %__data_.i4.i.i.i.i = getelementptr inbounds %"struct.std::__1::basic_string<char>::__short", ptr %this, i64 0, i32 2
  %__data_.i.i.i.i.i = getelementptr inbounds %"struct.std::__1::basic_string<char>::__long", ptr %this, i64 0, i32 2
  %33 = load ptr, ptr %__data_.i.i.i.i.i, align 8
  %cond.i.i.i.i = select i1 %tobool.i.not.i.i.i331, ptr %__data_.i4.i.i.i.i, ptr %33
  %bcmp = call i32 @bcmp(ptr noundef nonnull dereferenceable(3) %cond.i.i.i.i, ptr noundef nonnull dereferenceable(3) @.str.3, i64 3)
  %cmp9.i.i = icmp ne i32 %bcmp, 0
  %cmp128 = fcmp ult double %div.sink, 0x401921FB54442D18
  %or.cond428 = select i1 %cmp9.i.i, i1 true, i1 %cmp128
  br i1 %or.cond428, label %_ZNSt3__16vectorIdNS_9allocatorIdEEED2B7v170000Ev.exit394, label %if.then129

if.then129:                                       ; preds = %_ZNSt3__111char_traitsIcE7compareEPKcS3_m.exit.i.i
  %34 = load i32, ptr @_ZN8Parallel4mypeE, align 4, !tbaa !13
  %cmp130 = icmp eq i32 %34, 0
  br i1 %cmp130, label %if.then131, label %if.end136

if.then131:                                       ; preds = %if.then129
  %call1.i387 = invoke noundef nonnull align 8 dereferenceable(8) ptr @_ZNSt3__124__put_character_sequenceB7v170000IcNS_11char_traitsIcEEEERNS_13basic_ostreamIT_T0_EES7_PKS4_m(ptr noundef nonnull align 8 dereferenceable(8) @_ZNSt3__14cerrE, ptr noundef nonnull @.str.11, i64 noundef 38)
          to label %invoke.cont132 unwind label %lpad54

invoke.cont132:                                   ; preds = %if.then131
  %call.i389 = invoke noundef nonnull align 8 dereferenceable(8) ptr @_ZNSt3__14endlB7v170000IcNS_11char_traitsIcEEEERNS_13basic_ostreamIT_T0_EES7_(ptr noundef nonnull align 8 dereferenceable(8) %call1.i387)
          to label %if.end136 unwind label %lpad54

if.end136:                                        ; preds = %invoke.cont132, %if.then129
  call void @exit(i32 noundef 1) #23
  unreachable

_ZNSt3__16vectorIdNS_9allocatorIdEEED2B7v170000Ev.exit394: ; preds = %_ZNSt3__111char_traitsIcE7compareEPKcS3_m.exit.i.i, %if.end123
  store ptr %15, ptr %__end_.i, align 8, !tbaa !19
  call void @_ZdlPv(ptr noundef nonnull %15) #22
  call void @llvm.lifetime.end.p0(i64 24, ptr nonnull %params) #21
  ret void

ehcleanup139:                                     ; preds = %if.then.i.i315, %lpad54, %ehcleanup49
  %.pn147 = phi { ptr, i32 } [ %18, %ehcleanup49 ], [ %21, %lpad54 ], [ %21, %if.then.i.i315 ]
  call void @llvm.lifetime.end.p0(i64 24, ptr nonnull %params) #21
  br label %ehcleanup140

ehcleanup140:                                     ; preds = %ehcleanup139, %lpad15, %ehcleanup10
  %.pn148 = phi { ptr, i32 } [ %9, %lpad15 ], [ %.pn147, %ehcleanup139 ], [ %6, %ehcleanup10 ]
  %bf.load.i.i395 = load i8, ptr %this, align 8
  %bf.clear.i.i396 = and i8 %bf.load.i.i395, 1
  %tobool.i.not.i397 = icmp eq i8 %bf.clear.i.i396, 0
  br i1 %tobool.i.not.i397, label %_ZNSt3__112basic_stringIcNS_11char_traitsIcEENS_9allocatorIcEEED2Ev.exit401, label %if.then.i399

if.then.i399:                                     ; preds = %ehcleanup140
  %__data_.i.i398 = getelementptr inbounds %"struct.std::__1::basic_string<char>::__long", ptr %this, i64 0, i32 2
  %35 = load ptr, ptr %__data_.i.i398, align 8, !tbaa !5
  call void @_ZdlPv(ptr noundef %35) #22
  br label %_ZNSt3__112basic_stringIcNS_11char_traitsIcEENS_9allocatorIcEEED2Ev.exit401

_ZNSt3__112basic_stringIcNS_11char_traitsIcEENS_9allocatorIcEEED2Ev.exit401: ; preds = %ehcleanup140, %if.then.i399
  resume { ptr, i32 } %.pn148
}

; Function Attrs: mustprogress nocallback nofree nosync nounwind willreturn memory(argmem: readwrite)
declare void @llvm.lifetime.start.p0(i64 immarg, ptr nocapture) #1

declare void @_ZNK9InputFile9getStringERKNSt3__112basic_stringIcNS0_11char_traitsIcEENS0_9allocatorIcEEEES8_(ptr sret(%"class.std::__1::basic_string") align 8, ptr noundef nonnull align 8 dereferenceable(24), ptr noundef nonnull align 8 dereferenceable(24), ptr noundef nonnull align 8 dereferenceable(24)) local_unnamed_addr #2

declare i32 @__gxx_personality_v0(...)

; Function Attrs: mustprogress nocallback nofree nosync nounwind willreturn memory(argmem: readwrite)
declare void @llvm.lifetime.end.p0(i64 immarg, ptr nocapture) #1

; Function Attrs: inlinehint mustprogress uwtable
define linkonce_odr hidden noundef nonnull align 8 dereferenceable(8) ptr @_ZNSt3__14endlB7v170000IcNS_11char_traitsIcEEEERNS_13basic_ostreamIT_T0_EES7_(ptr noundef nonnull align 8 dereferenceable(8) %__os) local_unnamed_addr #3 comdat personality ptr @__gxx_personality_v0 {
entry:
  %ref.tmp.i = alloca %"class.std::__1::locale", align 8
  %vtable = load ptr, ptr %__os, align 8, !tbaa !31
  %vbase.offset.ptr = getelementptr i8, ptr %vtable, i64 -24
  %vbase.offset = load i64, ptr %vbase.offset.ptr, align 8
  %add.ptr = getelementptr inbounds i8, ptr %__os, i64 %vbase.offset
  call void @llvm.lifetime.start.p0(i64 8, ptr nonnull %ref.tmp.i) #21
  call void @_ZNKSt3__18ios_base6getlocEv(ptr nonnull sret(%"class.std::__1::locale") align 8 %ref.tmp.i, ptr noundef nonnull align 8 dereferenceable(136) %add.ptr)
  %call.i5.i = invoke noundef ptr @_ZNKSt3__16locale9use_facetERNS0_2idE(ptr noundef nonnull align 8 dereferenceable(8) %ref.tmp.i, ptr noundef nonnull align 8 dereferenceable(12) @_ZNSt3__15ctypeIcE2idE)
          to label %invoke.cont.i unwind label %lpad.i

invoke.cont.i:                                    ; preds = %entry
  %vtable.i.i = load ptr, ptr %call.i5.i, align 8, !tbaa !31
  %vfn.i.i = getelementptr inbounds ptr, ptr %vtable.i.i, i64 7
  %0 = load ptr, ptr %vfn.i.i, align 8
  %call.i6.i = invoke noundef signext i8 %0(ptr noundef nonnull align 8 dereferenceable(25) %call.i5.i, i8 noundef signext 10)
          to label %_ZNKSt3__19basic_iosIcNS_11char_traitsIcEEE5widenB7v170000Ec.exit unwind label %lpad.i

lpad.i:                                           ; preds = %invoke.cont.i, %entry
  %1 = landingpad { ptr, i32 }
          cleanup
  call void @_ZNSt3__16localeD1Ev(ptr noundef nonnull align 8 dereferenceable(8) %ref.tmp.i) #21
  call void @llvm.lifetime.end.p0(i64 8, ptr nonnull %ref.tmp.i) #21
  resume { ptr, i32 } %1

_ZNKSt3__19basic_iosIcNS_11char_traitsIcEEE5widenB7v170000Ec.exit: ; preds = %invoke.cont.i
  call void @_ZNSt3__16localeD1Ev(ptr noundef nonnull align 8 dereferenceable(8) %ref.tmp.i) #21
  call void @llvm.lifetime.end.p0(i64 8, ptr nonnull %ref.tmp.i) #21
  %call1 = call noundef nonnull align 8 dereferenceable(8) ptr @_ZNSt3__113basic_ostreamIcNS_11char_traitsIcEEE3putEc(ptr noundef nonnull align 8 dereferenceable(8) %__os, i8 noundef signext %call.i6.i)
  %call2 = call noundef nonnull align 8 dereferenceable(8) ptr @_ZNSt3__113basic_ostreamIcNS_11char_traitsIcEEE5flushEv(ptr noundef nonnull align 8 dereferenceable(8) %__os)
  ret ptr %__os
}

; Function Attrs: noreturn nounwind
declare void @exit(i32 noundef) local_unnamed_addr #4

; Function Attrs: mustprogress uwtable
define linkonce_odr hidden noundef nonnull align 8 dereferenceable(8) ptr @_ZNSt3__1lsB7v170000IcNS_11char_traitsIcEENS_9allocatorIcEEEERNS_13basic_ostreamIT_T0_EES9_RKNS_12basic_stringIS6_S7_T1_EE(ptr noundef nonnull align 8 dereferenceable(8) %__os, ptr noundef nonnull align 8 dereferenceable(24) %__str) local_unnamed_addr #5 comdat {
entry:
  %bf.load.i.i.i = load i8, ptr %__str, align 8
  %bf.clear.i.i.i = and i8 %bf.load.i.i.i, 1
  %tobool.i.not.i.i = icmp eq i8 %bf.clear.i.i.i, 0
  %__data_.i.i.i = getelementptr inbounds %"struct.std::__1::basic_string<char>::__long", ptr %__str, i64 0, i32 2
  %0 = load ptr, ptr %__data_.i.i.i, align 8
  %__data_.i4.i.i = getelementptr inbounds %"struct.std::__1::basic_string<char>::__short", ptr %__str, i64 0, i32 2
  %cond.i.i = select i1 %tobool.i.not.i.i, ptr %__data_.i4.i.i, ptr %0
  %__size_.i.i = getelementptr inbounds %"struct.std::__1::basic_string<char>::__long", ptr %__str, i64 0, i32 1
  %1 = load i64, ptr %__size_.i.i, align 8
  %bf.lshr.i.i = lshr i8 %bf.load.i.i.i, 1
  %conv.i.i = zext i8 %bf.lshr.i.i to i64
  %cond.i = select i1 %tobool.i.not.i.i, i64 %conv.i.i, i64 %1
  %call2 = tail call noundef nonnull align 8 dereferenceable(8) ptr @_ZNSt3__124__put_character_sequenceB7v170000IcNS_11char_traitsIcEEEERNS_13basic_ostreamIT_T0_EES7_PKS4_m(ptr noundef nonnull align 8 dereferenceable(8) %__os, ptr noundef %cond.i.i, i64 noundef %cond.i)
  ret ptr %call2
}

declare void @_ZNK9InputFile13getDoubleListERKNSt3__112basic_stringIcNS0_11char_traitsIcEENS0_9allocatorIcEEEERKNS0_6vectorIdNS4_IdEEEE(ptr sret(%"class.std::__1::vector") align 8, ptr noundef nonnull align 8 dereferenceable(24), ptr noundef nonnull align 8 dereferenceable(24), ptr noundef nonnull align 8 dereferenceable(24)) local_unnamed_addr #2

; Function Attrs: nounwind uwtable
define dso_local void @_ZN7GenMeshD2Ev(ptr nocapture noundef nonnull readonly align 8 dereferenceable(80) %this) unnamed_addr #6 align 2 personality ptr @__gxx_personality_v0 {
entry:
  %bf.load.i.i = load i8, ptr %this, align 8
  %bf.clear.i.i = and i8 %bf.load.i.i, 1
  %tobool.i.not.i = icmp eq i8 %bf.clear.i.i, 0
  br i1 %tobool.i.not.i, label %_ZNSt3__112basic_stringIcNS_11char_traitsIcEENS_9allocatorIcEEED2Ev.exit, label %if.then.i

if.then.i:                                        ; preds = %entry
  %__data_.i.i = getelementptr inbounds %"struct.std::__1::basic_string<char>::__long", ptr %this, i64 0, i32 2
  %0 = load ptr, ptr %__data_.i.i, align 8, !tbaa !5
  tail call void @_ZdlPv(ptr noundef %0) #22
  br label %_ZNSt3__112basic_stringIcNS_11char_traitsIcEENS_9allocatorIcEEED2Ev.exit

_ZNSt3__112basic_stringIcNS_11char_traitsIcEENS_9allocatorIcEEED2Ev.exit: ; preds = %entry, %if.then.i
  ret void
}

; Function Attrs: mustprogress uwtable
define dso_local void @_ZN7GenMesh8generateERNSt3__16vectorI7double2NS0_9allocatorIS2_EEEERNS1_IiNS3_IiEEEES9_S9_S9_S9_S9_S9_S9_S9_(ptr noundef nonnull align 8 dereferenceable(80) %this, ptr noundef nonnull align 1 %pointpos, ptr noundef nonnull align 1 %zonestart, ptr noundef nonnull align 1 %zonesize, ptr noundef nonnull align 1 %zonepoints, ptr noundef nonnull align 1 %slavemstrpes, ptr noundef nonnull align 1 %slavemstrcounts, ptr noundef nonnull align 1 %slavepoints, ptr noundef nonnull align 1 %masterslvpes, ptr noundef nonnull align 1 %masterslvcounts, ptr noundef nonnull align 1 %masterpoints) local_unnamed_addr #5 align 2 personality ptr @__gxx_personality_v0 {
entry:
  %gnzx.i = getelementptr inbounds %class.GenMesh, ptr %this, i64 0, i32 1
  %gnzy.i = getelementptr inbounds %class.GenMesh, ptr %this, i64 0, i32 2
  %0 = load <2 x i32>, ptr %gnzx.i, align 8, !tbaa !13
  %1 = sitofp <2 x i32> %0 to <2 x double>
  %2 = extractelement <2 x double> %1, i64 0
  %3 = extractelement <2 x double> %1, i64 1
  %cmp.i = fcmp ogt double %2, %3
  %4 = insertelement <2 x i1> poison, i1 %cmp.i, i64 0
  %5 = shufflevector <2 x i1> %4, <2 x i1> poison, <2 x i32> zeroinitializer
  %6 = shufflevector <2 x double> %1, <2 x double> poison, <2 x i32> <i32 1, i32 0>
  %7 = select <2 x i1> %5, <2 x double> %1, <2 x double> %6
  %8 = load i32, ptr @_ZN8Parallel5numpeE, align 4, !tbaa !13
  %conv3.i = sitofp i32 %8 to double
  %9 = extractelement <2 x double> %7, i64 1
  %mul.i = fmul double %9, %conv3.i
  %10 = extractelement <2 x double> %7, i64 0
  %div.i = fdiv double %mul.i, %10
  %call.i = tail call double @sqrt(double noundef %div.i) #21
  %add.i = fadd double %call.i, 0x3D719799812DEA11
  %11 = tail call double @llvm.floor.f64(double %add.i)
  %conv4.i = fptosi double %11 to i32
  %.sroa.speculated52.i = tail call i32 @llvm.smax.i32(i32 %conv4.i, i32 1)
  %12 = load i32, ptr @_ZN8Parallel5numpeE, align 4, !tbaa !13
  br label %while.cond.i

while.cond.i:                                     ; preds = %while.cond.i, %entry
  %n1.0.i = phi i32 [ %.sroa.speculated52.i, %entry ], [ %dec.i, %while.cond.i ]
  %rem.i = srem i32 %12, %n1.0.i
  %div17.i = sdiv i32 %12, %n1.0.i
  %cmp6.not.i = icmp eq i32 %rem.i, 0
  %dec.i = add nsw i32 %n1.0.i, -1
  br i1 %cmp6.not.i, label %while.end.i, label %while.cond.i, !llvm.loop !33

while.end.i:                                      ; preds = %while.cond.i
  %sub.i = fadd double %call.i, 0xBD719799812DEA11
  %13 = tail call double @llvm.ceil.f64(double %sub.i)
  %conv7.i = fptosi double %13 to i32
  br label %while.cond8.i

while.cond8.i:                                    ; preds = %while.cond8.i, %while.end.i
  %n2.0.i = phi i32 [ %conv7.i, %while.end.i ], [ %inc.i, %while.cond8.i ]
  %rem9.i = srem i32 %12, %n2.0.i
  %div25.i = sdiv i32 %12, %n2.0.i
  %cmp10.not.i = icmp eq i32 %rem9.i, 0
  %inc.i = add nsw i32 %n2.0.i, 1
  br i1 %cmp10.not.i, label %while.end12.i, label %while.cond8.i, !llvm.loop !35

while.end12.i:                                    ; preds = %while.cond8.i
  %14 = insertelement <2 x i32> poison, i32 %div17.i, i64 0
  %15 = insertelement <2 x i32> %14, i32 %n1.0.i, i64 1
  %16 = sitofp <2 x i32> %15 to <2 x double>
  %17 = fdiv <2 x double> %7, %16
  %18 = extractelement <2 x double> %17, i64 0
  %19 = extractelement <2 x double> %17, i64 1
  %cmp.i.i.i47.i = fcmp olt double %19, %18
  %.sroa.speculated51.i = select i1 %cmp.i.i.i47.i, double %18, double %19
  %20 = insertelement <2 x i32> poison, i32 %div25.i, i64 0
  %21 = insertelement <2 x i32> %20, i32 %n2.0.i, i64 1
  %22 = sitofp <2 x i32> %21 to <2 x double>
  %23 = fdiv <2 x double> %7, %22
  %24 = extractelement <2 x double> %23, i64 0
  %25 = extractelement <2 x double> %23, i64 1
  %cmp.i.i.i49.i = fcmp olt double %25, %24
  %.sroa.speculated.i = select i1 %cmp.i.i.i49.i, double %24, double %25
  %cmp29.i = fcmp ole double %.sroa.speculated51.i, %.sroa.speculated.i
  %cond.i = select i1 %cmp29.i, i32 %n1.0.i, i32 %n2.0.i
  %numpex.i = getelementptr inbounds %class.GenMesh, ptr %this, i64 0, i32 5
  store i32 %cond.i, ptr %numpex.i, align 8, !tbaa !36
  %div31.i = sdiv i32 %12, %cond.i
  %numpey.i = getelementptr inbounds %class.GenMesh, ptr %this, i64 0, i32 6
  store i32 %div31.i, ptr %numpey.i, align 4, !tbaa !37
  br i1 %cmp.i, label %if.then33.i, label %_ZN7GenMesh9calcNumPEEv.exit

if.then33.i:                                      ; preds = %while.end12.i
  store i32 %div31.i, ptr %numpex.i, align 8, !tbaa !13
  store i32 %cond.i, ptr %numpey.i, align 4, !tbaa !13
  br label %_ZN7GenMesh9calcNumPEEv.exit

_ZN7GenMesh9calcNumPEEv.exit:                     ; preds = %while.end12.i, %if.then33.i
  %26 = phi i32 [ %cond.i, %if.then33.i ], [ %div31.i, %while.end12.i ]
  %27 = phi i32 [ %div31.i, %if.then33.i ], [ %cond.i, %while.end12.i ]
  %28 = load i32, ptr @_ZN8Parallel4mypeE, align 4, !tbaa !13
  %rem38.i = srem i32 %28, %27
  %mypex.i = getelementptr inbounds %class.GenMesh, ptr %this, i64 0, i32 7
  store i32 %rem38.i, ptr %mypex.i, align 8, !tbaa !38
  %div40.i = sdiv i32 %28, %27
  %mypey.i = getelementptr inbounds %class.GenMesh, ptr %this, i64 0, i32 8
  store i32 %div40.i, ptr %mypey.i, align 4, !tbaa !39
  %29 = load i32, ptr %gnzx.i, align 8, !tbaa !22
  %mul = mul nsw i32 %29, %rem38.i
  %div = sdiv i32 %mul, %27
  %zxoffset = getelementptr inbounds %class.GenMesh, ptr %this, i64 0, i32 11
  store i32 %div, ptr %zxoffset, align 8, !tbaa !40
  %add = add nsw i32 %rem38.i, 1
  %mul4 = mul nsw i32 %29, %add
  %div6 = sdiv i32 %mul4, %27
  %sub = sub nsw i32 %div6, %div
  %nzx = getelementptr inbounds %class.GenMesh, ptr %this, i64 0, i32 9
  store i32 %sub, ptr %nzx, align 8, !tbaa !41
  %30 = load i32, ptr %gnzy.i, align 4, !tbaa !28
  %mul8 = mul nsw i32 %30, %div40.i
  %div9 = sdiv i32 %mul8, %26
  %zyoffset = getelementptr inbounds %class.GenMesh, ptr %this, i64 0, i32 12
  store i32 %div9, ptr %zyoffset, align 4, !tbaa !42
  %add11 = add nsw i32 %div40.i, 1
  %mul13 = mul nsw i32 %30, %add11
  %div15 = sdiv i32 %mul13, %26
  %sub17 = sub nsw i32 %div15, %div9
  %nzy = getelementptr inbounds %class.GenMesh, ptr %this, i64 0, i32 10
  store i32 %sub17, ptr %nzy, align 4, !tbaa !43
  %bf.load.i.i.i = load i8, ptr %this, align 8
  %bf.clear.i.i.i = and i8 %bf.load.i.i.i, 1
  %tobool.i.not.i.i = icmp eq i8 %bf.clear.i.i.i, 0
  %__size_.i.i.i = getelementptr inbounds %"struct.std::__1::basic_string<char>::__long", ptr %this, i64 0, i32 1
  %31 = load i64, ptr %__size_.i.i.i, align 8
  %bf.lshr.i.i.i = lshr i8 %bf.load.i.i.i, 1
  %conv.i.i.i = zext i8 %bf.lshr.i.i.i to i64
  %cond.i.i = select i1 %tobool.i.not.i.i, i64 %conv.i.i.i, i64 %31
  switch i64 %cond.i.i, label %if.end26 [
    i64 3, label %_ZNSt3__111char_traitsIcE7compareEPKcS3_m.exit.i.i
    i64 4, label %_ZNSt3__111char_traitsIcE7compareEPKcS3_m.exit.i.i64
  ]

_ZNSt3__111char_traitsIcE7compareEPKcS3_m.exit.i.i: ; preds = %_ZN7GenMesh9calcNumPEEv.exit
  %__data_.i4.i.i.i.i = getelementptr inbounds %"struct.std::__1::basic_string<char>::__short", ptr %this, i64 0, i32 2
  %__data_.i.i.i.i.i = getelementptr inbounds %"struct.std::__1::basic_string<char>::__long", ptr %this, i64 0, i32 2
  %32 = load ptr, ptr %__data_.i.i.i.i.i, align 8
  %cond.i.i.i.i = select i1 %tobool.i.not.i.i, ptr %__data_.i4.i.i.i.i, ptr %32
  %bcmp110 = tail call i32 @bcmp(ptr noundef nonnull dereferenceable(3) %cond.i.i.i.i, ptr noundef nonnull dereferenceable(3) @.str.3, i64 3)
  %cmp9.i.i = icmp eq i32 %bcmp110, 0
  br i1 %cmp9.i.i, label %if.then, label %_ZNSt3__111char_traitsIcE7compareEPKcS3_m.exit.i.i89

if.then:                                          ; preds = %_ZNSt3__111char_traitsIcE7compareEPKcS3_m.exit.i.i
  tail call void @_ZN7GenMesh11generatePieERNSt3__16vectorI7double2NS0_9allocatorIS2_EEEERNS1_IiNS3_IiEEEES9_S9_S9_S9_S9_S9_S9_S9_(ptr noundef nonnull align 8 dereferenceable(80) %this, ptr noundef nonnull align 1 %pointpos, ptr noundef nonnull align 1 %zonestart, ptr noundef nonnull align 1 %zonesize, ptr noundef nonnull align 1 %zonepoints, ptr noundef nonnull align 1 %slavemstrpes, ptr noundef nonnull align 1 %slavemstrcounts, ptr noundef nonnull align 1 %slavepoints, ptr noundef nonnull align 1 %masterslvpes, ptr noundef nonnull align 1 %masterslvcounts, ptr noundef nonnull align 1 %masterpoints)
  br label %if.end26

_ZNSt3__111char_traitsIcE7compareEPKcS3_m.exit.i.i64: ; preds = %_ZN7GenMesh9calcNumPEEv.exit
  %__data_.i.i.i.i.i60.phi.trans.insert = getelementptr inbounds %"struct.std::__1::basic_string<char>::__long", ptr %this, i64 0, i32 2
  %.pre = load ptr, ptr %__data_.i.i.i.i.i60.phi.trans.insert, align 8
  %__data_.i4.i.i.i.i59 = getelementptr inbounds %"struct.std::__1::basic_string<char>::__short", ptr %this, i64 0, i32 2
  %cond.i.i.i.i61 = select i1 %tobool.i.not.i.i, ptr %__data_.i4.i.i.i.i59, ptr %.pre
  %bcmp109 = tail call i32 @bcmp(ptr noundef nonnull dereferenceable(4) %cond.i.i.i.i61, ptr noundef nonnull dereferenceable(4) @.str.4, i64 4)
  %cmp9.i.i63 = icmp eq i32 %bcmp109, 0
  br i1 %cmp9.i.i63, label %if.then20, label %if.end26

if.then20:                                        ; preds = %_ZNSt3__111char_traitsIcE7compareEPKcS3_m.exit.i.i64
  tail call void @_ZN7GenMesh12generateRectERNSt3__16vectorI7double2NS0_9allocatorIS2_EEEERNS1_IiNS3_IiEEEES9_S9_S9_S9_S9_S9_S9_S9_(ptr noundef nonnull align 8 dereferenceable(80) %this, ptr noundef nonnull align 1 %pointpos, ptr noundef nonnull align 1 %zonestart, ptr noundef nonnull align 1 %zonesize, ptr noundef nonnull align 1 %zonepoints, ptr noundef nonnull align 1 %slavemstrpes, ptr noundef nonnull align 1 %slavemstrcounts, ptr noundef nonnull align 1 %slavepoints, ptr noundef nonnull align 1 %masterslvpes, ptr noundef nonnull align 1 %masterslvcounts, ptr noundef nonnull align 1 %masterpoints)
  br label %if.end26

_ZNSt3__111char_traitsIcE7compareEPKcS3_m.exit.i.i89: ; preds = %_ZNSt3__111char_traitsIcE7compareEPKcS3_m.exit.i.i
  %bcmp = tail call i32 @bcmp(ptr noundef nonnull dereferenceable(3) %cond.i.i.i.i, ptr noundef nonnull dereferenceable(3) @.str.5, i64 3)
  %cmp9.i.i88 = icmp eq i32 %bcmp, 0
  br i1 %cmp9.i.i88, label %if.then24, label %if.end26

if.then24:                                        ; preds = %_ZNSt3__111char_traitsIcE7compareEPKcS3_m.exit.i.i89
  tail call void @_ZN7GenMesh11generateHexERNSt3__16vectorI7double2NS0_9allocatorIS2_EEEERNS1_IiNS3_IiEEEES9_S9_S9_S9_S9_S9_S9_S9_(ptr noundef nonnull align 8 dereferenceable(80) %this, ptr noundef nonnull align 1 %pointpos, ptr noundef nonnull align 1 %zonestart, ptr noundef nonnull align 1 %zonesize, ptr noundef nonnull align 1 %zonepoints, ptr noundef nonnull align 1 %slavemstrpes, ptr noundef nonnull align 1 %slavemstrcounts, ptr noundef nonnull align 1 %slavepoints, ptr noundef nonnull align 1 %masterslvpes, ptr noundef nonnull align 1 %masterslvcounts, ptr noundef nonnull align 1 %masterpoints)
  br label %if.end26

if.end26:                                         ; preds = %_ZNSt3__111char_traitsIcE7compareEPKcS3_m.exit.i.i64, %_ZN7GenMesh9calcNumPEEv.exit, %_ZNSt3__111char_traitsIcE7compareEPKcS3_m.exit.i.i89, %if.then20, %if.then24, %if.then
  ret void
}

; Function Attrs: mustprogress nofree nounwind memory(readwrite, inaccessiblemem: write) uwtable
define dso_local void @_ZN7GenMesh9calcNumPEEv(ptr nocapture noundef nonnull align 8 dereferenceable(80) %this) local_unnamed_addr #7 align 2 {
entry:
  %gnzx = getelementptr inbounds %class.GenMesh, ptr %this, i64 0, i32 1
  %0 = load <2 x i32>, ptr %gnzx, align 8, !tbaa !13
  %1 = sitofp <2 x i32> %0 to <2 x double>
  %2 = extractelement <2 x double> %1, i64 0
  %3 = extractelement <2 x double> %1, i64 1
  %cmp = fcmp ogt double %2, %3
  %4 = insertelement <2 x i1> poison, i1 %cmp, i64 0
  %5 = shufflevector <2 x i1> %4, <2 x i1> poison, <2 x i32> zeroinitializer
  %6 = shufflevector <2 x double> %1, <2 x double> poison, <2 x i32> <i32 1, i32 0>
  %7 = select <2 x i1> %5, <2 x double> %1, <2 x double> %6
  %8 = load i32, ptr @_ZN8Parallel5numpeE, align 4, !tbaa !13
  %conv3 = sitofp i32 %8 to double
  %9 = extractelement <2 x double> %7, i64 1
  %mul = fmul double %9, %conv3
  %10 = extractelement <2 x double> %7, i64 0
  %div = fdiv double %mul, %10
  %call = tail call double @sqrt(double noundef %div) #21
  %add = fadd double %call, 0x3D719799812DEA11
  %11 = tail call double @llvm.floor.f64(double %add)
  %conv4 = fptosi double %11 to i32
  %.sroa.speculated52 = tail call i32 @llvm.smax.i32(i32 %conv4, i32 1)
  %12 = load i32, ptr @_ZN8Parallel5numpeE, align 4, !tbaa !13
  br label %while.cond

while.cond:                                       ; preds = %while.cond, %entry
  %n1.0 = phi i32 [ %.sroa.speculated52, %entry ], [ %dec, %while.cond ]
  %rem = srem i32 %12, %n1.0
  %div17 = sdiv i32 %12, %n1.0
  %cmp6.not = icmp eq i32 %rem, 0
  %dec = add nsw i32 %n1.0, -1
  br i1 %cmp6.not, label %while.end, label %while.cond, !llvm.loop !33

while.end:                                        ; preds = %while.cond
  %sub = fadd double %call, 0xBD719799812DEA11
  %13 = tail call double @llvm.ceil.f64(double %sub)
  %conv7 = fptosi double %13 to i32
  br label %while.cond8

while.cond8:                                      ; preds = %while.cond8, %while.end
  %n2.0 = phi i32 [ %conv7, %while.end ], [ %inc, %while.cond8 ]
  %rem9 = srem i32 %12, %n2.0
  %div25 = sdiv i32 %12, %n2.0
  %cmp10.not = icmp eq i32 %rem9, 0
  %inc = add nsw i32 %n2.0, 1
  br i1 %cmp10.not, label %while.end12, label %while.cond8, !llvm.loop !35

while.end12:                                      ; preds = %while.cond8
  %14 = insertelement <2 x i32> poison, i32 %div17, i64 0
  %15 = insertelement <2 x i32> %14, i32 %n1.0, i64 1
  %16 = sitofp <2 x i32> %15 to <2 x double>
  %17 = fdiv <2 x double> %7, %16
  %18 = extractelement <2 x double> %17, i64 0
  %19 = extractelement <2 x double> %17, i64 1
  %cmp.i.i.i47 = fcmp olt double %19, %18
  %.sroa.speculated51 = select i1 %cmp.i.i.i47, double %18, double %19
  %20 = insertelement <2 x i32> poison, i32 %div25, i64 0
  %21 = insertelement <2 x i32> %20, i32 %n2.0, i64 1
  %22 = sitofp <2 x i32> %21 to <2 x double>
  %23 = fdiv <2 x double> %7, %22
  %24 = extractelement <2 x double> %23, i64 0
  %25 = extractelement <2 x double> %23, i64 1
  %cmp.i.i.i49 = fcmp olt double %25, %24
  %.sroa.speculated = select i1 %cmp.i.i.i49, double %24, double %25
  %cmp29 = fcmp ole double %.sroa.speculated51, %.sroa.speculated
  %cond = select i1 %cmp29, i32 %n1.0, i32 %n2.0
  %numpex = getelementptr inbounds %class.GenMesh, ptr %this, i64 0, i32 5
  store i32 %cond, ptr %numpex, align 8, !tbaa !36
  %div31 = sdiv i32 %12, %cond
  %numpey = getelementptr inbounds %class.GenMesh, ptr %this, i64 0, i32 6
  store i32 %div31, ptr %numpey, align 4, !tbaa !37
  br i1 %cmp, label %if.then33, label %if.end36

if.then33:                                        ; preds = %while.end12
  store i32 %div31, ptr %numpex, align 8, !tbaa !13
  store i32 %cond, ptr %numpey, align 4, !tbaa !13
  br label %if.end36

if.end36:                                         ; preds = %if.then33, %while.end12
  %26 = phi i32 [ %div31, %if.then33 ], [ %cond, %while.end12 ]
  %27 = load i32, ptr @_ZN8Parallel4mypeE, align 4, !tbaa !13
  %rem38 = srem i32 %27, %26
  %mypex = getelementptr inbounds %class.GenMesh, ptr %this, i64 0, i32 7
  store i32 %rem38, ptr %mypex, align 8, !tbaa !38
  %div40 = sdiv i32 %27, %26
  %mypey = getelementptr inbounds %class.GenMesh, ptr %this, i64 0, i32 8
  store i32 %div40, ptr %mypey, align 4, !tbaa !39
  ret void
}

; Function Attrs: uwtable
define dso_local void @_ZN7GenMesh11generatePieERNSt3__16vectorI7double2NS0_9allocatorIS2_EEEERNS1_IiNS3_IiEEEES9_S9_S9_S9_S9_S9_S9_S9_(ptr nocapture noundef nonnull readonly align 8 dereferenceable(80) %this, ptr noundef nonnull align 1 %pointpos, ptr noundef nonnull align 1 %zonestart, ptr noundef nonnull align 1 %zonesize, ptr noundef nonnull align 1 %zonepoints, ptr noundef nonnull align 1 %slavemstrpes, ptr noundef nonnull align 1 %slavemstrcounts, ptr noundef nonnull align 1 %slavepoints, ptr noundef nonnull align 1 %masterslvpes, ptr noundef nonnull align 1 %masterslvcounts, ptr noundef nonnull align 1 %masterpoints) local_unnamed_addr #0 align 2 personality ptr @__gxx_personality_v0 {
entry:
  %nzx = getelementptr inbounds %class.GenMesh, ptr %this, i64 0, i32 9
  %0 = load i32, ptr %nzx, align 8, !tbaa !41
  %nzy = getelementptr inbounds %class.GenMesh, ptr %this, i64 0, i32 10
  %1 = load i32, ptr %nzy, align 4, !tbaa !43
  %mul = mul nsw i32 %1, %0
  %add = add i32 %0, 1
  %add4 = add i32 %1, 1
  %mypey = getelementptr inbounds %class.GenMesh, ptr %this, i64 0, i32 8
  %2 = load i32, ptr %mypey, align 4, !tbaa !39
  %cmp = icmp eq i32 %2, 0
  %mul5 = mul nsw i32 %add, %1
  %add6 = add nsw i32 %mul5, 1
  %mul7 = mul nsw i32 %add4, %add
  %cond = select i1 %cmp, i32 %add6, i32 %mul7
  %conv = sext i32 %cond to i64
  %__end_cap_.i.i.i = getelementptr inbounds %"class.std::__1::vector.17", ptr %pointpos, i64 0, i32 2
  %3 = load ptr, ptr %__end_cap_.i.i.i, align 8, !tbaa !11
  %4 = load ptr, ptr %pointpos, align 8, !tbaa !44
  %sub.ptr.lhs.cast.i.i = ptrtoint ptr %3 to i64
  %sub.ptr.rhs.cast.i.i = ptrtoint ptr %4 to i64
  %sub.ptr.sub.i.i = sub i64 %sub.ptr.lhs.cast.i.i, %sub.ptr.rhs.cast.i.i
  %sub.ptr.div.i.i = ashr exact i64 %sub.ptr.sub.i.i, 4
  %cmp.i = icmp ult i64 %sub.ptr.div.i.i, %conv
  br i1 %cmp.i, label %if.then.i, label %_ZNSt3__16vectorI7double2NS_9allocatorIS1_EEE7reserveEm.exit

if.then.i:                                        ; preds = %entry
  %cmp3.i = icmp slt i32 %cond, 0
  br i1 %cmp3.i, label %if.then4.i, label %_ZNSt3__114__split_bufferI7double2RNS_9allocatorIS1_EEEC2EmmS4_.exit.i

if.then4.i:                                       ; preds = %if.then.i
  tail call void @_ZNKSt3__16vectorI7double2NS_9allocatorIS1_EEE20__throw_length_errorB7v170000Ev(ptr noundef nonnull align 8 dereferenceable(24) %pointpos) #24
  unreachable

_ZNSt3__114__split_bufferI7double2RNS_9allocatorIS1_EEEC2EmmS4_.exit.i: ; preds = %if.then.i
  %__end_.i.i = getelementptr inbounds %"class.std::__1::vector.17", ptr %pointpos, i64 0, i32 1
  %5 = load ptr, ptr %__end_.i.i, align 8, !tbaa !48
  %sub.ptr.lhs.cast.i11.i = ptrtoint ptr %5 to i64
  %sub.ptr.sub.i13.i = sub i64 %sub.ptr.lhs.cast.i11.i, %sub.ptr.rhs.cast.i.i
  %sub.ptr.div.i14.i = ashr exact i64 %sub.ptr.sub.i13.i, 4
  %mul.i.i.i.i = shl nuw nsw i64 %conv, 4
  %call.i5.i.i.i.i.i = tail call noalias noundef nonnull ptr @_Znwm(i64 noundef %mul.i.i.i.i) #25
  %add.ptr.i.i = getelementptr inbounds %struct.double2, ptr %call.i5.i.i.i.i.i, i64 %sub.ptr.div.i14.i
  %add.ptr6.i.i = getelementptr inbounds %struct.double2, ptr %call.i5.i.i.i.i.i, i64 %conv
  %cmp.i.not18.i.i.i = icmp eq ptr %5, %4
  br i1 %cmp.i.not18.i.i.i, label %_ZNSt3__114__split_bufferI7double2RNS_9allocatorIS1_EEE5clearB7v170000Ev.exit.i.i, label %invoke.cont4.i.i.i

invoke.cont4.i.i.i:                               ; preds = %_ZNSt3__114__split_bufferI7double2RNS_9allocatorIS1_EEEC2EmmS4_.exit.i, %invoke.cont4.i.i.i
  %incdec.ptr.i.i.i.i20.i.i.i = phi ptr [ %incdec.ptr.i.i.i.i.i.i.i, %invoke.cont4.i.i.i ], [ %add.ptr.i.i, %_ZNSt3__114__split_bufferI7double2RNS_9allocatorIS1_EEEC2EmmS4_.exit.i ]
  %__first1.sroa.1.019.i.i.i = phi ptr [ %incdec.ptr.i.i.i.i, %invoke.cont4.i.i.i ], [ %5, %_ZNSt3__114__split_bufferI7double2RNS_9allocatorIS1_EEEC2EmmS4_.exit.i ]
  %incdec.ptr.i.i.i.i.i.i.i = getelementptr inbounds %struct.double2, ptr %incdec.ptr.i.i.i.i20.i.i.i, i64 -1
  %incdec.ptr.i.i.i.i = getelementptr inbounds %struct.double2, ptr %__first1.sroa.1.019.i.i.i, i64 -1
  %6 = load <2 x double>, ptr %incdec.ptr.i.i.i.i, align 8, !tbaa !20
  store <2 x double> %6, ptr %incdec.ptr.i.i.i.i.i.i.i, align 8, !tbaa !20
  %cmp.i.not.i.i.i = icmp eq ptr %incdec.ptr.i.i.i.i, %4
  br i1 %cmp.i.not.i.i.i, label %_ZNSt3__114__split_bufferI7double2RNS_9allocatorIS1_EEE5clearB7v170000Ev.exit.i.i, label %invoke.cont4.i.i.i, !llvm.loop !49

_ZNSt3__114__split_bufferI7double2RNS_9allocatorIS1_EEE5clearB7v170000Ev.exit.i.i: ; preds = %invoke.cont4.i.i.i, %_ZNSt3__114__split_bufferI7double2RNS_9allocatorIS1_EEEC2EmmS4_.exit.i
  %storemerge.i = phi ptr [ %add.ptr.i.i, %_ZNSt3__114__split_bufferI7double2RNS_9allocatorIS1_EEEC2EmmS4_.exit.i ], [ %incdec.ptr.i.i.i.i.i.i.i, %invoke.cont4.i.i.i ]
  store ptr %storemerge.i, ptr %pointpos, align 8, !tbaa !11
  store ptr %add.ptr.i.i, ptr %__end_.i.i, align 8, !tbaa !11
  store ptr %add.ptr6.i.i, ptr %__end_cap_.i.i.i, align 8, !tbaa !11
  %tobool.not.i.i = icmp eq ptr %4, null
  br i1 %tobool.not.i.i, label %_ZNSt3__16vectorI7double2NS_9allocatorIS1_EEE7reserveEm.exit, label %if.then.i.i

if.then.i.i:                                      ; preds = %_ZNSt3__114__split_bufferI7double2RNS_9allocatorIS1_EEE5clearB7v170000Ev.exit.i.i
  tail call void @_ZdlPv(ptr noundef nonnull %4) #22
  br label %_ZNSt3__16vectorI7double2NS_9allocatorIS1_EEE7reserveEm.exit

_ZNSt3__16vectorI7double2NS_9allocatorIS1_EEE7reserveEm.exit: ; preds = %entry, %_ZNSt3__114__split_bufferI7double2RNS_9allocatorIS1_EEE5clearB7v170000Ev.exit.i.i, %if.then.i.i
  %lenx = getelementptr inbounds %class.GenMesh, ptr %this, i64 0, i32 3
  %7 = load double, ptr %lenx, align 8, !tbaa !29
  %gnzx = getelementptr inbounds %class.GenMesh, ptr %this, i64 0, i32 1
  %8 = load i32, ptr %gnzx, align 8, !tbaa !22
  %conv8 = sitofp i32 %8 to double
  %div = fdiv double %7, %conv8
  %leny = getelementptr inbounds %class.GenMesh, ptr %this, i64 0, i32 4
  %9 = load double, ptr %leny, align 8, !tbaa !30
  %gnzy = getelementptr inbounds %class.GenMesh, ptr %this, i64 0, i32 2
  %10 = load i32, ptr %gnzy, align 4, !tbaa !28
  %conv9 = sitofp i32 %10 to double
  %div10 = fdiv double %9, %conv9
  %cmp11.not2148 = icmp slt i32 %1, 0
  br i1 %cmp11.not2148, label %for.cond.cleanup, label %for.body.lr.ph

for.body.lr.ph:                                   ; preds = %_ZNSt3__16vectorI7double2NS_9allocatorIS1_EEE7reserveEm.exit
  %zyoffset = getelementptr inbounds %class.GenMesh, ptr %this, i64 0, i32 12
  %cmp21.not2146 = icmp slt i32 %0, 0
  %zxoffset = getelementptr inbounds %class.GenMesh, ptr %this, i64 0, i32 11
  %__end_.i512 = getelementptr inbounds %"class.std::__1::vector.17", ptr %pointpos, i64 0, i32 1
  br label %for.body

for.cond.cleanup:                                 ; preds = %for.inc35, %_ZNSt3__16vectorI7double2NS_9allocatorIS1_EEE7reserveEm.exit
  %conv38 = sext i32 %mul to i64
  %__end_cap_.i.i.i427 = getelementptr inbounds %"class.std::__1::vector.18", ptr %zonestart, i64 0, i32 2
  %11 = load ptr, ptr %__end_cap_.i.i.i427, align 8, !tbaa !11
  %12 = load ptr, ptr %zonestart, align 8, !tbaa !50
  %sub.ptr.lhs.cast.i.i428 = ptrtoint ptr %11 to i64
  %sub.ptr.rhs.cast.i.i429 = ptrtoint ptr %12 to i64
  %sub.ptr.sub.i.i430 = sub i64 %sub.ptr.lhs.cast.i.i428, %sub.ptr.rhs.cast.i.i429
  %sub.ptr.div.i.i431 = ashr exact i64 %sub.ptr.sub.i.i430, 2
  %cmp.i432 = icmp ult i64 %sub.ptr.div.i.i431, %conv38
  br i1 %cmp.i432, label %if.then.i434, label %_ZNSt3__16vectorIiNS_9allocatorIiEEE7reserveEm.exit

if.then.i434:                                     ; preds = %for.cond.cleanup
  %cmp3.i433 = icmp slt i32 %mul, 0
  br i1 %cmp3.i433, label %if.then4.i435, label %_ZNSt3__114__split_bufferIiRNS_9allocatorIiEEEC2EmmS3_.exit.i

if.then4.i435:                                    ; preds = %if.then.i434
  tail call void @_ZNKSt3__16vectorIiNS_9allocatorIiEEE20__throw_length_errorB7v170000Ev(ptr noundef nonnull align 8 dereferenceable(24) %zonestart) #24
  unreachable

_ZNSt3__114__split_bufferIiRNS_9allocatorIiEEEC2EmmS3_.exit.i: ; preds = %if.then.i434
  %__end_.i.i436 = getelementptr inbounds %"class.std::__1::vector.18", ptr %zonestart, i64 0, i32 1
  %13 = load ptr, ptr %__end_.i.i436, align 8, !tbaa !54
  %sub.ptr.lhs.cast.i11.i437 = ptrtoint ptr %13 to i64
  %sub.ptr.sub.i13.i438 = sub i64 %sub.ptr.lhs.cast.i11.i437, %sub.ptr.rhs.cast.i.i429
  %sub.ptr.div.i14.i439 = ashr i64 %sub.ptr.sub.i13.i438, 2
  %mul.i.i.i.i440 = shl nuw nsw i64 %conv38, 2
  %call.i5.i.i.i.i.i441 = tail call noalias noundef nonnull ptr @_Znwm(i64 noundef %mul.i.i.i.i440) #25
  %call.i5.i.i.i.i.i4412249 = ptrtoint ptr %call.i5.i.i.i.i.i441 to i64
  %add.ptr.i.i442 = getelementptr inbounds i32, ptr %call.i5.i.i.i.i.i441, i64 %sub.ptr.div.i14.i439
  %add.ptr6.i.i443 = getelementptr inbounds i32, ptr %call.i5.i.i.i.i.i441, i64 %conv38
  %cmp.i.not13.i.i.i.i.i.i.i.i = icmp eq ptr %13, %12
  br i1 %cmp.i.not13.i.i.i.i.i.i.i.i, label %_ZNSt3__114__split_bufferIiRNS_9allocatorIiEEE5clearB7v170000Ev.exit.i.i, label %while.body.i.i.i.i.i.i.i.i.preheader

while.body.i.i.i.i.i.i.i.i.preheader:             ; preds = %_ZNSt3__114__split_bufferIiRNS_9allocatorIiEEEC2EmmS3_.exit.i
  %14 = add i64 %sub.ptr.lhs.cast.i11.i437, -4
  %15 = sub i64 %14, %sub.ptr.rhs.cast.i.i429
  %16 = lshr i64 %15, 2
  %17 = add nuw nsw i64 %16, 1
  %min.iters.check = icmp ult i64 %15, 76
  br i1 %min.iters.check, label %while.body.i.i.i.i.i.i.i.i.preheader3295, label %vector.memcheck

vector.memcheck:                                  ; preds = %while.body.i.i.i.i.i.i.i.i.preheader
  %18 = and i64 %sub.ptr.sub.i13.i438, -4
  %19 = add i64 %18, %call.i5.i.i.i.i.i4412249
  %20 = sub i64 %sub.ptr.lhs.cast.i11.i437, %19
  %diff.check = icmp ult i64 %20, 32
  br i1 %diff.check, label %while.body.i.i.i.i.i.i.i.i.preheader3295, label %vector.ph

vector.ph:                                        ; preds = %vector.memcheck
  %n.vec = and i64 %17, -8
  %21 = mul i64 %n.vec, -4
  %ind.end = getelementptr i8, ptr %add.ptr.i.i442, i64 %21
  %22 = mul i64 %n.vec, -4
  %ind.end2250 = getelementptr i8, ptr %13, i64 %22
  br label %vector.body

vector.body:                                      ; preds = %vector.body, %vector.ph
  %index = phi i64 [ 0, %vector.ph ], [ %index.next, %vector.body ]
  %23 = mul i64 %index, -4
  %next.gep = getelementptr i8, ptr %add.ptr.i.i442, i64 %23
  %24 = mul i64 %index, -4
  %next.gep2253 = getelementptr i8, ptr %13, i64 %24
  %25 = getelementptr inbounds i32, ptr %next.gep2253, i64 -1
  %26 = getelementptr inbounds i32, ptr %25, i64 -3
  %wide.load = load <4 x i32>, ptr %26, align 4, !tbaa !13, !noalias !55
  %27 = getelementptr inbounds i32, ptr %25, i64 -4
  %28 = getelementptr inbounds i32, ptr %27, i64 -3
  %wide.load2255 = load <4 x i32>, ptr %28, align 4, !tbaa !13, !noalias !55
  %29 = getelementptr inbounds i32, ptr %next.gep, i64 -1
  %30 = getelementptr inbounds i32, ptr %29, i64 -3
  store <4 x i32> %wide.load, ptr %30, align 4, !tbaa !13, !noalias !55
  %31 = getelementptr inbounds i32, ptr %29, i64 -4
  %32 = getelementptr inbounds i32, ptr %31, i64 -3
  store <4 x i32> %wide.load2255, ptr %32, align 4, !tbaa !13, !noalias !55
  %index.next = add nuw i64 %index, 8
  %33 = icmp eq i64 %index.next, %n.vec
  br i1 %33, label %middle.block, label %vector.body, !llvm.loop !64

middle.block:                                     ; preds = %vector.body
  %cmp.n = icmp eq i64 %17, %n.vec
  br i1 %cmp.n, label %_ZNSt3__114__split_bufferIiRNS_9allocatorIiEEE5clearB7v170000Ev.exit.i.i, label %while.body.i.i.i.i.i.i.i.i.preheader3295

while.body.i.i.i.i.i.i.i.i.preheader3295:         ; preds = %vector.memcheck, %while.body.i.i.i.i.i.i.i.i.preheader, %middle.block
  %incdec.ptr.i15.i.i.i.i.i.i.i.i.ph = phi ptr [ %add.ptr.i.i442, %vector.memcheck ], [ %add.ptr.i.i442, %while.body.i.i.i.i.i.i.i.i.preheader ], [ %ind.end, %middle.block ]
  %__first.sroa.2.014.i.i.i.i.i.i.i.i.ph = phi ptr [ %13, %vector.memcheck ], [ %13, %while.body.i.i.i.i.i.i.i.i.preheader ], [ %ind.end2250, %middle.block ]
  br label %while.body.i.i.i.i.i.i.i.i

while.body.i.i.i.i.i.i.i.i:                       ; preds = %while.body.i.i.i.i.i.i.i.i.preheader3295, %while.body.i.i.i.i.i.i.i.i
  %incdec.ptr.i15.i.i.i.i.i.i.i.i = phi ptr [ %incdec.ptr.i.i.i.i.i.i.i.i.i, %while.body.i.i.i.i.i.i.i.i ], [ %incdec.ptr.i15.i.i.i.i.i.i.i.i.ph, %while.body.i.i.i.i.i.i.i.i.preheader3295 ]
  %__first.sroa.2.014.i.i.i.i.i.i.i.i = phi ptr [ %incdec.ptr.i.i.i.i.i.i.i.i.i.i, %while.body.i.i.i.i.i.i.i.i ], [ %__first.sroa.2.014.i.i.i.i.i.i.i.i.ph, %while.body.i.i.i.i.i.i.i.i.preheader3295 ]
  %incdec.ptr.i.i.i.i.i.i.i.i.i.i = getelementptr inbounds i32, ptr %__first.sroa.2.014.i.i.i.i.i.i.i.i, i64 -1
  %34 = load i32, ptr %incdec.ptr.i.i.i.i.i.i.i.i.i.i, align 4, !tbaa !13, !noalias !55
  %incdec.ptr.i.i.i.i.i.i.i.i.i = getelementptr inbounds i32, ptr %incdec.ptr.i15.i.i.i.i.i.i.i.i, i64 -1
  store i32 %34, ptr %incdec.ptr.i.i.i.i.i.i.i.i.i, align 4, !tbaa !13, !noalias !55
  %cmp.i.not.i.i.i.i.i.i.i.i = icmp eq ptr %incdec.ptr.i.i.i.i.i.i.i.i.i.i, %12
  br i1 %cmp.i.not.i.i.i.i.i.i.i.i, label %_ZNSt3__114__split_bufferIiRNS_9allocatorIiEEE5clearB7v170000Ev.exit.i.i, label %while.body.i.i.i.i.i.i.i.i, !llvm.loop !67

_ZNSt3__114__split_bufferIiRNS_9allocatorIiEEE5clearB7v170000Ev.exit.i.i: ; preds = %while.body.i.i.i.i.i.i.i.i, %middle.block, %_ZNSt3__114__split_bufferIiRNS_9allocatorIiEEEC2EmmS3_.exit.i
  %storemerge.i444 = phi ptr [ %add.ptr.i.i442, %_ZNSt3__114__split_bufferIiRNS_9allocatorIiEEEC2EmmS3_.exit.i ], [ %ind.end, %middle.block ], [ %incdec.ptr.i.i.i.i.i.i.i.i.i, %while.body.i.i.i.i.i.i.i.i ]
  store ptr %storemerge.i444, ptr %zonestart, align 8, !tbaa !11
  store ptr %add.ptr.i.i442, ptr %__end_.i.i436, align 8, !tbaa !11
  store ptr %add.ptr6.i.i443, ptr %__end_cap_.i.i.i427, align 8, !tbaa !11
  %tobool.not.i.i445 = icmp eq ptr %12, null
  br i1 %tobool.not.i.i445, label %_ZNSt3__16vectorIiNS_9allocatorIiEEE7reserveEm.exit, label %if.then.i.i446

if.then.i.i446:                                   ; preds = %_ZNSt3__114__split_bufferIiRNS_9allocatorIiEEE5clearB7v170000Ev.exit.i.i
  tail call void @_ZdlPv(ptr noundef nonnull %12) #22
  br label %_ZNSt3__16vectorIiNS_9allocatorIiEEE7reserveEm.exit

_ZNSt3__16vectorIiNS_9allocatorIiEEE7reserveEm.exit: ; preds = %for.cond.cleanup, %_ZNSt3__114__split_bufferIiRNS_9allocatorIiEEE5clearB7v170000Ev.exit.i.i, %if.then.i.i446
  %__end_cap_.i.i.i447 = getelementptr inbounds %"class.std::__1::vector.18", ptr %zonesize, i64 0, i32 2
  %35 = load ptr, ptr %__end_cap_.i.i.i447, align 8, !tbaa !11
  %36 = load ptr, ptr %zonesize, align 8, !tbaa !50
  %sub.ptr.lhs.cast.i.i448 = ptrtoint ptr %35 to i64
  %sub.ptr.rhs.cast.i.i449 = ptrtoint ptr %36 to i64
  %sub.ptr.sub.i.i450 = sub i64 %sub.ptr.lhs.cast.i.i448, %sub.ptr.rhs.cast.i.i449
  %sub.ptr.div.i.i451 = ashr exact i64 %sub.ptr.sub.i.i450, 2
  %cmp.i452 = icmp ult i64 %sub.ptr.div.i.i451, %conv38
  br i1 %cmp.i452, label %if.then.i454, label %_ZNSt3__16vectorIiNS_9allocatorIiEEE7reserveEm.exit476

if.then.i454:                                     ; preds = %_ZNSt3__16vectorIiNS_9allocatorIiEEE7reserveEm.exit
  %cmp3.i453 = icmp slt i32 %mul, 0
  br i1 %cmp3.i453, label %if.then4.i455, label %_ZNSt3__114__split_bufferIiRNS_9allocatorIiEEEC2EmmS3_.exit.i465

if.then4.i455:                                    ; preds = %if.then.i454
  tail call void @_ZNKSt3__16vectorIiNS_9allocatorIiEEE20__throw_length_errorB7v170000Ev(ptr noundef nonnull align 8 dereferenceable(24) %zonesize) #24
  unreachable

_ZNSt3__114__split_bufferIiRNS_9allocatorIiEEEC2EmmS3_.exit.i465: ; preds = %if.then.i454
  %__end_.i.i456 = getelementptr inbounds %"class.std::__1::vector.18", ptr %zonesize, i64 0, i32 1
  %37 = load ptr, ptr %__end_.i.i456, align 8, !tbaa !54
  %sub.ptr.lhs.cast.i11.i457 = ptrtoint ptr %37 to i64
  %sub.ptr.sub.i13.i458 = sub i64 %sub.ptr.lhs.cast.i11.i457, %sub.ptr.rhs.cast.i.i449
  %sub.ptr.div.i14.i459 = ashr i64 %sub.ptr.sub.i13.i458, 2
  %mul.i.i.i.i460 = shl nuw nsw i64 %conv38, 2
  %call.i5.i.i.i.i.i461 = tail call noalias noundef nonnull ptr @_Znwm(i64 noundef %mul.i.i.i.i460) #25
  %call.i5.i.i.i.i.i4612260 = ptrtoint ptr %call.i5.i.i.i.i.i461 to i64
  %add.ptr.i.i462 = getelementptr inbounds i32, ptr %call.i5.i.i.i.i.i461, i64 %sub.ptr.div.i14.i459
  %add.ptr6.i.i463 = getelementptr inbounds i32, ptr %call.i5.i.i.i.i.i461, i64 %conv38
  %cmp.i.not13.i.i.i.i.i.i.i.i464 = icmp eq ptr %37, %36
  br i1 %cmp.i.not13.i.i.i.i.i.i.i.i464, label %_ZNSt3__114__split_bufferIiRNS_9allocatorIiEEE5clearB7v170000Ev.exit.i.i474, label %while.body.i.i.i.i.i.i.i.i471.preheader

while.body.i.i.i.i.i.i.i.i471.preheader:          ; preds = %_ZNSt3__114__split_bufferIiRNS_9allocatorIiEEEC2EmmS3_.exit.i465
  %38 = add i64 %sub.ptr.lhs.cast.i11.i457, -4
  %39 = sub i64 %38, %sub.ptr.rhs.cast.i.i449
  %40 = lshr i64 %39, 2
  %41 = add nuw nsw i64 %40, 1
  %min.iters.check2264 = icmp ult i64 %39, 76
  br i1 %min.iters.check2264, label %while.body.i.i.i.i.i.i.i.i471.preheader3294, label %vector.memcheck2259

vector.memcheck2259:                              ; preds = %while.body.i.i.i.i.i.i.i.i471.preheader
  %42 = and i64 %sub.ptr.sub.i13.i458, -4
  %43 = add i64 %42, %call.i5.i.i.i.i.i4612260
  %44 = sub i64 %sub.ptr.lhs.cast.i11.i457, %43
  %diff.check2261 = icmp ult i64 %44, 32
  br i1 %diff.check2261, label %while.body.i.i.i.i.i.i.i.i471.preheader3294, label %vector.ph2265

vector.ph2265:                                    ; preds = %vector.memcheck2259
  %n.vec2267 = and i64 %41, -8
  %45 = mul i64 %n.vec2267, -4
  %ind.end2268 = getelementptr i8, ptr %add.ptr.i.i462, i64 %45
  %46 = mul i64 %n.vec2267, -4
  %ind.end2270 = getelementptr i8, ptr %37, i64 %46
  br label %vector.body2273

vector.body2273:                                  ; preds = %vector.body2273, %vector.ph2265
  %index2274 = phi i64 [ 0, %vector.ph2265 ], [ %index.next2285, %vector.body2273 ]
  %47 = mul i64 %index2274, -4
  %next.gep2275 = getelementptr i8, ptr %add.ptr.i.i462, i64 %47
  %48 = mul i64 %index2274, -4
  %next.gep2277 = getelementptr i8, ptr %37, i64 %48
  %49 = getelementptr inbounds i32, ptr %next.gep2277, i64 -1
  %50 = getelementptr inbounds i32, ptr %49, i64 -3
  %wide.load2279 = load <4 x i32>, ptr %50, align 4, !tbaa !13, !noalias !68
  %51 = getelementptr inbounds i32, ptr %49, i64 -4
  %52 = getelementptr inbounds i32, ptr %51, i64 -3
  %wide.load2281 = load <4 x i32>, ptr %52, align 4, !tbaa !13, !noalias !68
  %53 = getelementptr inbounds i32, ptr %next.gep2275, i64 -1
  %54 = getelementptr inbounds i32, ptr %53, i64 -3
  store <4 x i32> %wide.load2279, ptr %54, align 4, !tbaa !13, !noalias !68
  %55 = getelementptr inbounds i32, ptr %53, i64 -4
  %56 = getelementptr inbounds i32, ptr %55, i64 -3
  store <4 x i32> %wide.load2281, ptr %56, align 4, !tbaa !13, !noalias !68
  %index.next2285 = add nuw i64 %index2274, 8
  %57 = icmp eq i64 %index.next2285, %n.vec2267
  br i1 %57, label %middle.block2262, label %vector.body2273, !llvm.loop !77

middle.block2262:                                 ; preds = %vector.body2273
  %cmp.n2272 = icmp eq i64 %41, %n.vec2267
  br i1 %cmp.n2272, label %_ZNSt3__114__split_bufferIiRNS_9allocatorIiEEE5clearB7v170000Ev.exit.i.i474, label %while.body.i.i.i.i.i.i.i.i471.preheader3294

while.body.i.i.i.i.i.i.i.i471.preheader3294:      ; preds = %vector.memcheck2259, %while.body.i.i.i.i.i.i.i.i471.preheader, %middle.block2262
  %incdec.ptr.i15.i.i.i.i.i.i.i.i466.ph = phi ptr [ %add.ptr.i.i462, %vector.memcheck2259 ], [ %add.ptr.i.i462, %while.body.i.i.i.i.i.i.i.i471.preheader ], [ %ind.end2268, %middle.block2262 ]
  %__first.sroa.2.014.i.i.i.i.i.i.i.i467.ph = phi ptr [ %37, %vector.memcheck2259 ], [ %37, %while.body.i.i.i.i.i.i.i.i471.preheader ], [ %ind.end2270, %middle.block2262 ]
  br label %while.body.i.i.i.i.i.i.i.i471

while.body.i.i.i.i.i.i.i.i471:                    ; preds = %while.body.i.i.i.i.i.i.i.i471.preheader3294, %while.body.i.i.i.i.i.i.i.i471
  %incdec.ptr.i15.i.i.i.i.i.i.i.i466 = phi ptr [ %incdec.ptr.i.i.i.i.i.i.i.i.i469, %while.body.i.i.i.i.i.i.i.i471 ], [ %incdec.ptr.i15.i.i.i.i.i.i.i.i466.ph, %while.body.i.i.i.i.i.i.i.i471.preheader3294 ]
  %__first.sroa.2.014.i.i.i.i.i.i.i.i467 = phi ptr [ %incdec.ptr.i.i.i.i.i.i.i.i.i.i468, %while.body.i.i.i.i.i.i.i.i471 ], [ %__first.sroa.2.014.i.i.i.i.i.i.i.i467.ph, %while.body.i.i.i.i.i.i.i.i471.preheader3294 ]
  %incdec.ptr.i.i.i.i.i.i.i.i.i.i468 = getelementptr inbounds i32, ptr %__first.sroa.2.014.i.i.i.i.i.i.i.i467, i64 -1
  %58 = load i32, ptr %incdec.ptr.i.i.i.i.i.i.i.i.i.i468, align 4, !tbaa !13, !noalias !68
  %incdec.ptr.i.i.i.i.i.i.i.i.i469 = getelementptr inbounds i32, ptr %incdec.ptr.i15.i.i.i.i.i.i.i.i466, i64 -1
  store i32 %58, ptr %incdec.ptr.i.i.i.i.i.i.i.i.i469, align 4, !tbaa !13, !noalias !68
  %cmp.i.not.i.i.i.i.i.i.i.i470 = icmp eq ptr %incdec.ptr.i.i.i.i.i.i.i.i.i.i468, %36
  br i1 %cmp.i.not.i.i.i.i.i.i.i.i470, label %_ZNSt3__114__split_bufferIiRNS_9allocatorIiEEE5clearB7v170000Ev.exit.i.i474, label %while.body.i.i.i.i.i.i.i.i471, !llvm.loop !78

_ZNSt3__114__split_bufferIiRNS_9allocatorIiEEE5clearB7v170000Ev.exit.i.i474: ; preds = %while.body.i.i.i.i.i.i.i.i471, %middle.block2262, %_ZNSt3__114__split_bufferIiRNS_9allocatorIiEEEC2EmmS3_.exit.i465
  %storemerge.i472 = phi ptr [ %add.ptr.i.i462, %_ZNSt3__114__split_bufferIiRNS_9allocatorIiEEEC2EmmS3_.exit.i465 ], [ %ind.end2268, %middle.block2262 ], [ %incdec.ptr.i.i.i.i.i.i.i.i.i469, %while.body.i.i.i.i.i.i.i.i471 ]
  store ptr %storemerge.i472, ptr %zonesize, align 8, !tbaa !11
  store ptr %add.ptr.i.i462, ptr %__end_.i.i456, align 8, !tbaa !11
  store ptr %add.ptr6.i.i463, ptr %__end_cap_.i.i.i447, align 8, !tbaa !11
  %tobool.not.i.i473 = icmp eq ptr %36, null
  br i1 %tobool.not.i.i473, label %_ZNSt3__16vectorIiNS_9allocatorIiEEE7reserveEm.exit476, label %if.then.i.i475

if.then.i.i475:                                   ; preds = %_ZNSt3__114__split_bufferIiRNS_9allocatorIiEEE5clearB7v170000Ev.exit.i.i474
  tail call void @_ZdlPv(ptr noundef nonnull %36) #22
  br label %_ZNSt3__16vectorIiNS_9allocatorIiEEE7reserveEm.exit476

_ZNSt3__16vectorIiNS_9allocatorIiEEE7reserveEm.exit476: ; preds = %_ZNSt3__16vectorIiNS_9allocatorIiEEE7reserveEm.exit, %_ZNSt3__114__split_bufferIiRNS_9allocatorIiEEE5clearB7v170000Ev.exit.i.i474, %if.then.i.i475
  %mul40 = shl nsw i32 %mul, 2
  %conv41 = sext i32 %mul40 to i64
  %__end_cap_.i.i.i477 = getelementptr inbounds %"class.std::__1::vector.18", ptr %zonepoints, i64 0, i32 2
  %59 = load ptr, ptr %__end_cap_.i.i.i477, align 8, !tbaa !11
  %60 = load ptr, ptr %zonepoints, align 8, !tbaa !50
  %sub.ptr.lhs.cast.i.i478 = ptrtoint ptr %59 to i64
  %sub.ptr.rhs.cast.i.i479 = ptrtoint ptr %60 to i64
  %sub.ptr.sub.i.i480 = sub i64 %sub.ptr.lhs.cast.i.i478, %sub.ptr.rhs.cast.i.i479
  %sub.ptr.div.i.i481 = ashr exact i64 %sub.ptr.sub.i.i480, 2
  %cmp.i482 = icmp ult i64 %sub.ptr.div.i.i481, %conv41
  br i1 %cmp.i482, label %if.then.i484, label %_ZNSt3__16vectorIiNS_9allocatorIiEEE7reserveEm.exit506

if.then.i484:                                     ; preds = %_ZNSt3__16vectorIiNS_9allocatorIiEEE7reserveEm.exit476
  %cmp3.i483 = icmp slt i32 %mul, 0
  br i1 %cmp3.i483, label %if.then4.i485, label %_ZNSt3__114__split_bufferIiRNS_9allocatorIiEEEC2EmmS3_.exit.i495

if.then4.i485:                                    ; preds = %if.then.i484
  tail call void @_ZNKSt3__16vectorIiNS_9allocatorIiEEE20__throw_length_errorB7v170000Ev(ptr noundef nonnull align 8 dereferenceable(24) %zonepoints) #24
  unreachable

_ZNSt3__114__split_bufferIiRNS_9allocatorIiEEEC2EmmS3_.exit.i495: ; preds = %if.then.i484
  %__end_.i.i486 = getelementptr inbounds %"class.std::__1::vector.18", ptr %zonepoints, i64 0, i32 1
  %61 = load ptr, ptr %__end_.i.i486, align 8, !tbaa !54
  %sub.ptr.lhs.cast.i11.i487 = ptrtoint ptr %61 to i64
  %sub.ptr.sub.i13.i488 = sub i64 %sub.ptr.lhs.cast.i11.i487, %sub.ptr.rhs.cast.i.i479
  %sub.ptr.div.i14.i489 = ashr i64 %sub.ptr.sub.i13.i488, 2
  %mul.i.i.i.i490 = shl nuw nsw i64 %conv41, 2
  %call.i5.i.i.i.i.i491 = tail call noalias noundef nonnull ptr @_Znwm(i64 noundef %mul.i.i.i.i490) #25
  %call.i5.i.i.i.i.i4912287 = ptrtoint ptr %call.i5.i.i.i.i.i491 to i64
  %add.ptr.i.i492 = getelementptr inbounds i32, ptr %call.i5.i.i.i.i.i491, i64 %sub.ptr.div.i14.i489
  %add.ptr6.i.i493 = getelementptr inbounds i32, ptr %call.i5.i.i.i.i.i491, i64 %conv41
  %cmp.i.not13.i.i.i.i.i.i.i.i494 = icmp eq ptr %61, %60
  br i1 %cmp.i.not13.i.i.i.i.i.i.i.i494, label %_ZNSt3__114__split_bufferIiRNS_9allocatorIiEEE5clearB7v170000Ev.exit.i.i504, label %while.body.i.i.i.i.i.i.i.i501.preheader

while.body.i.i.i.i.i.i.i.i501.preheader:          ; preds = %_ZNSt3__114__split_bufferIiRNS_9allocatorIiEEEC2EmmS3_.exit.i495
  %62 = add i64 %sub.ptr.lhs.cast.i11.i487, -4
  %63 = sub i64 %62, %sub.ptr.rhs.cast.i.i479
  %64 = lshr i64 %63, 2
  %65 = add nuw nsw i64 %64, 1
  %min.iters.check2291 = icmp ult i64 %63, 76
  br i1 %min.iters.check2291, label %while.body.i.i.i.i.i.i.i.i501.preheader3293, label %vector.memcheck2286

vector.memcheck2286:                              ; preds = %while.body.i.i.i.i.i.i.i.i501.preheader
  %66 = and i64 %sub.ptr.sub.i13.i488, -4
  %67 = add i64 %66, %call.i5.i.i.i.i.i4912287
  %68 = sub i64 %sub.ptr.lhs.cast.i11.i487, %67
  %diff.check2288 = icmp ult i64 %68, 32
  br i1 %diff.check2288, label %while.body.i.i.i.i.i.i.i.i501.preheader3293, label %vector.ph2292

vector.ph2292:                                    ; preds = %vector.memcheck2286
  %n.vec2294 = and i64 %65, -8
  %69 = mul i64 %n.vec2294, -4
  %ind.end2295 = getelementptr i8, ptr %add.ptr.i.i492, i64 %69
  %70 = mul i64 %n.vec2294, -4
  %ind.end2297 = getelementptr i8, ptr %61, i64 %70
  br label %vector.body2300

vector.body2300:                                  ; preds = %vector.body2300, %vector.ph2292
  %index2301 = phi i64 [ 0, %vector.ph2292 ], [ %index.next2312, %vector.body2300 ]
  %71 = mul i64 %index2301, -4
  %next.gep2302 = getelementptr i8, ptr %add.ptr.i.i492, i64 %71
  %72 = mul i64 %index2301, -4
  %next.gep2304 = getelementptr i8, ptr %61, i64 %72
  %73 = getelementptr inbounds i32, ptr %next.gep2304, i64 -1
  %74 = getelementptr inbounds i32, ptr %73, i64 -3
  %wide.load2306 = load <4 x i32>, ptr %74, align 4, !tbaa !13, !noalias !79
  %75 = getelementptr inbounds i32, ptr %73, i64 -4
  %76 = getelementptr inbounds i32, ptr %75, i64 -3
  %wide.load2308 = load <4 x i32>, ptr %76, align 4, !tbaa !13, !noalias !79
  %77 = getelementptr inbounds i32, ptr %next.gep2302, i64 -1
  %78 = getelementptr inbounds i32, ptr %77, i64 -3
  store <4 x i32> %wide.load2306, ptr %78, align 4, !tbaa !13, !noalias !79
  %79 = getelementptr inbounds i32, ptr %77, i64 -4
  %80 = getelementptr inbounds i32, ptr %79, i64 -3
  store <4 x i32> %wide.load2308, ptr %80, align 4, !tbaa !13, !noalias !79
  %index.next2312 = add nuw i64 %index2301, 8
  %81 = icmp eq i64 %index.next2312, %n.vec2294
  br i1 %81, label %middle.block2289, label %vector.body2300, !llvm.loop !88

middle.block2289:                                 ; preds = %vector.body2300
  %cmp.n2299 = icmp eq i64 %65, %n.vec2294
  br i1 %cmp.n2299, label %_ZNSt3__114__split_bufferIiRNS_9allocatorIiEEE5clearB7v170000Ev.exit.i.i504, label %while.body.i.i.i.i.i.i.i.i501.preheader3293

while.body.i.i.i.i.i.i.i.i501.preheader3293:      ; preds = %vector.memcheck2286, %while.body.i.i.i.i.i.i.i.i501.preheader, %middle.block2289
  %incdec.ptr.i15.i.i.i.i.i.i.i.i496.ph = phi ptr [ %add.ptr.i.i492, %vector.memcheck2286 ], [ %add.ptr.i.i492, %while.body.i.i.i.i.i.i.i.i501.preheader ], [ %ind.end2295, %middle.block2289 ]
  %__first.sroa.2.014.i.i.i.i.i.i.i.i497.ph = phi ptr [ %61, %vector.memcheck2286 ], [ %61, %while.body.i.i.i.i.i.i.i.i501.preheader ], [ %ind.end2297, %middle.block2289 ]
  br label %while.body.i.i.i.i.i.i.i.i501

while.body.i.i.i.i.i.i.i.i501:                    ; preds = %while.body.i.i.i.i.i.i.i.i501.preheader3293, %while.body.i.i.i.i.i.i.i.i501
  %incdec.ptr.i15.i.i.i.i.i.i.i.i496 = phi ptr [ %incdec.ptr.i.i.i.i.i.i.i.i.i499, %while.body.i.i.i.i.i.i.i.i501 ], [ %incdec.ptr.i15.i.i.i.i.i.i.i.i496.ph, %while.body.i.i.i.i.i.i.i.i501.preheader3293 ]
  %__first.sroa.2.014.i.i.i.i.i.i.i.i497 = phi ptr [ %incdec.ptr.i.i.i.i.i.i.i.i.i.i498, %while.body.i.i.i.i.i.i.i.i501 ], [ %__first.sroa.2.014.i.i.i.i.i.i.i.i497.ph, %while.body.i.i.i.i.i.i.i.i501.preheader3293 ]
  %incdec.ptr.i.i.i.i.i.i.i.i.i.i498 = getelementptr inbounds i32, ptr %__first.sroa.2.014.i.i.i.i.i.i.i.i497, i64 -1
  %82 = load i32, ptr %incdec.ptr.i.i.i.i.i.i.i.i.i.i498, align 4, !tbaa !13, !noalias !79
  %incdec.ptr.i.i.i.i.i.i.i.i.i499 = getelementptr inbounds i32, ptr %incdec.ptr.i15.i.i.i.i.i.i.i.i496, i64 -1
  store i32 %82, ptr %incdec.ptr.i.i.i.i.i.i.i.i.i499, align 4, !tbaa !13, !noalias !79
  %cmp.i.not.i.i.i.i.i.i.i.i500 = icmp eq ptr %incdec.ptr.i.i.i.i.i.i.i.i.i.i498, %60
  br i1 %cmp.i.not.i.i.i.i.i.i.i.i500, label %_ZNSt3__114__split_bufferIiRNS_9allocatorIiEEE5clearB7v170000Ev.exit.i.i504, label %while.body.i.i.i.i.i.i.i.i501, !llvm.loop !89

_ZNSt3__114__split_bufferIiRNS_9allocatorIiEEE5clearB7v170000Ev.exit.i.i504: ; preds = %while.body.i.i.i.i.i.i.i.i501, %middle.block2289, %_ZNSt3__114__split_bufferIiRNS_9allocatorIiEEEC2EmmS3_.exit.i495
  %storemerge.i502 = phi ptr [ %add.ptr.i.i492, %_ZNSt3__114__split_bufferIiRNS_9allocatorIiEEEC2EmmS3_.exit.i495 ], [ %ind.end2295, %middle.block2289 ], [ %incdec.ptr.i.i.i.i.i.i.i.i.i499, %while.body.i.i.i.i.i.i.i.i501 ]
  store ptr %storemerge.i502, ptr %zonepoints, align 8, !tbaa !11
  store ptr %add.ptr.i.i492, ptr %__end_.i.i486, align 8, !tbaa !11
  store ptr %add.ptr6.i.i493, ptr %__end_cap_.i.i.i477, align 8, !tbaa !11
  %tobool.not.i.i503 = icmp eq ptr %60, null
  br i1 %tobool.not.i.i503, label %_ZNSt3__16vectorIiNS_9allocatorIiEEE7reserveEm.exit506, label %if.then.i.i505

if.then.i.i505:                                   ; preds = %_ZNSt3__114__split_bufferIiRNS_9allocatorIiEEE5clearB7v170000Ev.exit.i.i504
  tail call void @_ZdlPv(ptr noundef nonnull %60) #22
  br label %_ZNSt3__16vectorIiNS_9allocatorIiEEE7reserveEm.exit506

_ZNSt3__16vectorIiNS_9allocatorIiEEE7reserveEm.exit506: ; preds = %_ZNSt3__16vectorIiNS_9allocatorIiEEE7reserveEm.exit476, %_ZNSt3__114__split_bufferIiRNS_9allocatorIiEEE5clearB7v170000Ev.exit.i.i504, %if.then.i.i505
  %83 = load i32, ptr %nzy, align 4, !tbaa !43
  %cmp452152 = icmp sgt i32 %83, 0
  br i1 %cmp452152, label %for.cond49.preheader.lr.ph, label %for.cond.cleanup46

for.cond49.preheader.lr.ph:                       ; preds = %_ZNSt3__16vectorIiNS_9allocatorIiEEE7reserveEm.exit506
  %__end_.i562 = getelementptr inbounds %"class.std::__1::vector.18", ptr %zonepoints, i64 0, i32 1
  %__end_.i563 = getelementptr inbounds %"class.std::__1::vector.18", ptr %zonestart, i64 0, i32 1
  %zyoffset65 = getelementptr inbounds %class.GenMesh, ptr %this, i64 0, i32 12
  %__end_.i680 = getelementptr inbounds %"class.std::__1::vector.18", ptr %zonesize, i64 0, i32 1
  %.pre = load i32, ptr %nzx, align 8, !tbaa !41
  br label %for.cond49.preheader

for.body:                                         ; preds = %for.body.lr.ph, %for.inc35
  %j.02149 = phi i32 [ 0, %for.body.lr.ph ], [ %inc36, %for.inc35 ]
  %84 = load i32, ptr %zyoffset, align 4, !tbaa !42
  %add12 = add nsw i32 %84, %j.02149
  %cmp13 = icmp eq i32 %add12, 0
  br i1 %cmp13, label %if.then, label %if.end

if.then:                                          ; preds = %for.body
  %85 = load ptr, ptr %__end_.i512, align 8, !tbaa !48
  %86 = load ptr, ptr %__end_cap_.i.i.i, align 8, !tbaa !11
  %cmp.i507 = icmp ult ptr %85, %86
  br i1 %cmp.i507, label %if.then.i508, label %if.else.i

if.then.i508:                                     ; preds = %if.then
  %incdec.ptr.i.i = getelementptr inbounds %struct.double2, ptr %85, i64 1
  tail call void @llvm.memset.p0.i64(ptr noundef nonnull align 8 dereferenceable(16) %85, i8 0, i64 16, i1 false)
  store ptr %incdec.ptr.i.i, ptr %__end_.i512, align 8, !tbaa !48
  br label %for.inc35

if.else.i:                                        ; preds = %if.then
  %87 = load ptr, ptr %pointpos, align 8, !tbaa !44
  %sub.ptr.lhs.cast.i.i.i = ptrtoint ptr %85 to i64
  %sub.ptr.rhs.cast.i.i.i = ptrtoint ptr %87 to i64
  %sub.ptr.sub.i.i.i = sub i64 %sub.ptr.lhs.cast.i.i.i, %sub.ptr.rhs.cast.i.i.i
  %sub.ptr.div.i.i.i = ashr exact i64 %sub.ptr.sub.i.i.i, 4
  %add.i.i = add nsw i64 %sub.ptr.div.i.i.i, 1
  %cmp.i.i.i = icmp ugt i64 %add.i.i, 1152921504606846975
  br i1 %cmp.i.i.i, label %if.then.i.i.i, label %_ZNKSt3__16vectorI7double2NS_9allocatorIS1_EEE11__recommendB7v170000Em.exit.i.i

if.then.i.i.i:                                    ; preds = %if.else.i
  tail call void @_ZNKSt3__16vectorI7double2NS_9allocatorIS1_EEE20__throw_length_errorB7v170000Ev(ptr noundef nonnull align 8 dereferenceable(24) %pointpos) #24
  unreachable

_ZNKSt3__16vectorI7double2NS_9allocatorIS1_EEE11__recommendB7v170000Em.exit.i.i: ; preds = %if.else.i
  %sub.ptr.lhs.cast.i.i.i.i = ptrtoint ptr %86 to i64
  %sub.ptr.sub.i.i.i.i = sub i64 %sub.ptr.lhs.cast.i.i.i.i, %sub.ptr.rhs.cast.i.i.i
  %cmp3.not.i.i.i = icmp ult i64 %sub.ptr.sub.i.i.i.i, 9223372036854775792
  %mul.i.i.i = lshr exact i64 %sub.ptr.sub.i.i.i.i, 3
  %.sroa.speculated.i.i.i = tail call i64 @llvm.umax.i64(i64 %mul.i.i.i, i64 %add.i.i)
  %retval.0.i.i.i = select i1 %cmp3.not.i.i.i, i64 %.sroa.speculated.i.i.i, i64 1152921504606846975
  %cmp.i16.i.i = icmp ne i64 %retval.0.i.i.i, 0
  tail call void @llvm.assume(i1 %cmp.i16.i.i)
  %cmp.i.i.i.i.i = icmp ugt i64 %retval.0.i.i.i, 1152921504606846975
  br i1 %cmp.i.i.i.i.i, label %if.then.i.i.i.i.i, label %_ZNSt3__119__allocate_at_leastB7v170000INS_9allocatorI7double2EEEENS_19__allocation_resultINS_16allocator_traitsIT_E7pointerEEERS6_m.exit.i.i.i

if.then.i.i.i.i.i:                                ; preds = %_ZNKSt3__16vectorI7double2NS_9allocatorIS1_EEE11__recommendB7v170000Em.exit.i.i
  tail call void @_ZSt28__throw_bad_array_new_lengthB7v170000v() #24
  unreachable

_ZNSt3__119__allocate_at_leastB7v170000INS_9allocatorI7double2EEEENS_19__allocation_resultINS_16allocator_traitsIT_E7pointerEEERS6_m.exit.i.i.i: ; preds = %_ZNKSt3__16vectorI7double2NS_9allocatorIS1_EEE11__recommendB7v170000Em.exit.i.i
  %mul.i.i.i.i.i = shl nuw i64 %retval.0.i.i.i, 4
  %call.i5.i.i.i.i.i.i510 = tail call noalias noundef nonnull ptr @_Znwm(i64 noundef %mul.i.i.i.i.i) #25
  %add.ptr.i.i.i = getelementptr inbounds %struct.double2, ptr %call.i5.i.i.i.i.i.i510, i64 %sub.ptr.div.i.i.i
  %add.ptr6.i.i.i = getelementptr inbounds %struct.double2, ptr %call.i5.i.i.i.i.i.i510, i64 %retval.0.i.i.i
  %incdec.ptr.i6.i = getelementptr inbounds %struct.double2, ptr %add.ptr.i.i.i, i64 1
  %cmp.i.not18.i.i.i.i = icmp eq ptr %85, %87
  tail call void @llvm.memset.p0.i64(ptr noundef nonnull align 8 dereferenceable(16) %add.ptr.i.i.i, i8 0, i64 16, i1 false)
  br i1 %cmp.i.not18.i.i.i.i, label %_ZNSt3__114__split_bufferI7double2RNS_9allocatorIS1_EEE5clearB7v170000Ev.exit.i.i.i, label %invoke.cont4.i.i.i.i

invoke.cont4.i.i.i.i:                             ; preds = %_ZNSt3__119__allocate_at_leastB7v170000INS_9allocatorI7double2EEEENS_19__allocation_resultINS_16allocator_traitsIT_E7pointerEEERS6_m.exit.i.i.i, %invoke.cont4.i.i.i.i
  %incdec.ptr.i.i.i.i20.i.i.i.i = phi ptr [ %incdec.ptr.i.i.i.i.i.i.i.i, %invoke.cont4.i.i.i.i ], [ %add.ptr.i.i.i, %_ZNSt3__119__allocate_at_leastB7v170000INS_9allocatorI7double2EEEENS_19__allocation_resultINS_16allocator_traitsIT_E7pointerEEERS6_m.exit.i.i.i ]
  %__first1.sroa.1.019.i.i.i.i = phi ptr [ %incdec.ptr.i.i.i.i.i, %invoke.cont4.i.i.i.i ], [ %85, %_ZNSt3__119__allocate_at_leastB7v170000INS_9allocatorI7double2EEEENS_19__allocation_resultINS_16allocator_traitsIT_E7pointerEEERS6_m.exit.i.i.i ]
  %incdec.ptr.i.i.i.i.i.i.i.i = getelementptr inbounds %struct.double2, ptr %incdec.ptr.i.i.i.i20.i.i.i.i, i64 -1
  %incdec.ptr.i.i.i.i.i = getelementptr inbounds %struct.double2, ptr %__first1.sroa.1.019.i.i.i.i, i64 -1
  %88 = load <2 x double>, ptr %incdec.ptr.i.i.i.i.i, align 8, !tbaa !20
  store <2 x double> %88, ptr %incdec.ptr.i.i.i.i.i.i.i.i, align 8, !tbaa !20
  %cmp.i.not.i.i.i.i = icmp eq ptr %incdec.ptr.i.i.i.i.i, %87
  br i1 %cmp.i.not.i.i.i.i, label %_ZNSt3__114__split_bufferI7double2RNS_9allocatorIS1_EEE5clearB7v170000Ev.exit.i.i.i, label %invoke.cont4.i.i.i.i, !llvm.loop !49

_ZNSt3__114__split_bufferI7double2RNS_9allocatorIS1_EEE5clearB7v170000Ev.exit.i.i.i: ; preds = %invoke.cont4.i.i.i.i, %_ZNSt3__119__allocate_at_leastB7v170000INS_9allocatorI7double2EEEENS_19__allocation_resultINS_16allocator_traitsIT_E7pointerEEERS6_m.exit.i.i.i
  %storemerge.i.i = phi ptr [ %add.ptr.i.i.i, %_ZNSt3__119__allocate_at_leastB7v170000INS_9allocatorI7double2EEEENS_19__allocation_resultINS_16allocator_traitsIT_E7pointerEEERS6_m.exit.i.i.i ], [ %incdec.ptr.i.i.i.i.i.i.i.i, %invoke.cont4.i.i.i.i ]
  store ptr %storemerge.i.i, ptr %pointpos, align 8, !tbaa !11
  store ptr %incdec.ptr.i6.i, ptr %__end_.i512, align 8, !tbaa !11
  store ptr %add.ptr6.i.i.i, ptr %__end_cap_.i.i.i, align 8, !tbaa !11
  %tobool.not.i.i.i = icmp eq ptr %87, null
  br i1 %tobool.not.i.i.i, label %for.inc35, label %if.then.i19.i.i

if.then.i19.i.i:                                  ; preds = %_ZNSt3__114__split_bufferI7double2RNS_9allocatorIS1_EEE5clearB7v170000Ev.exit.i.i.i
  tail call void @_ZdlPv(ptr noundef nonnull %87) #22
  br label %for.inc35

if.end:                                           ; preds = %for.body
  %conv18 = sitofp i32 %add12 to double
  %mul19 = fmul double %div10, %conv18
  br i1 %cmp21.not2146, label %for.inc35, label %for.body23.preheader

for.body23.preheader:                             ; preds = %if.end
  %89 = insertelement <2 x double> poison, double %mul19, i64 0
  %90 = shufflevector <2 x double> %89, <2 x double> poison, <2 x i32> zeroinitializer
  br label %for.body23

for.body23:                                       ; preds = %for.body23.preheader, %invoke.cont34
  %i.02147 = phi i32 [ %inc, %invoke.cont34 ], [ 0, %for.body23.preheader ]
  %91 = load i32, ptr %gnzx, align 8, !tbaa !22
  %92 = load i32, ptr %zxoffset, align 8, !tbaa !40
  %93 = add i32 %i.02147, %92
  %sub26 = sub i32 %91, %93
  %conv27 = sitofp i32 %sub26 to double
  %mul28 = fmul double %div, %conv27
  %call = tail call double @cos(double noundef %mul28) #21
  %call30 = tail call double @sin(double noundef %mul28) #21
  %94 = insertelement <2 x double> poison, double %call, i64 0
  %95 = insertelement <2 x double> %94, double %call30, i64 1
  %96 = fmul <2 x double> %90, %95
  %97 = load ptr, ptr %__end_.i512, align 8, !tbaa !48
  %98 = load ptr, ptr %__end_cap_.i.i.i, align 8, !tbaa !11
  %cmp.i514 = icmp ult ptr %97, %98
  br i1 %cmp.i514, label %if.then.i518, label %if.else.i525

if.then.i518:                                     ; preds = %for.body23
  %99 = extractelement <2 x double> %96, i64 0
  store double %99, ptr %97, align 8, !tbaa !90
  %y.i.i.i.i.i515 = getelementptr inbounds %struct.double2, ptr %97, i64 0, i32 1
  %100 = extractelement <2 x double> %96, i64 1
  store double %100, ptr %y.i.i.i.i.i515, align 8, !tbaa !92
  %incdec.ptr.i.i517 = getelementptr inbounds %struct.double2, ptr %97, i64 1
  store ptr %incdec.ptr.i.i517, ptr %__end_.i512, align 8, !tbaa !48
  br label %invoke.cont34

if.else.i525:                                     ; preds = %for.body23
  %101 = load ptr, ptr %pointpos, align 8, !tbaa !44
  %sub.ptr.lhs.cast.i.i.i519 = ptrtoint ptr %97 to i64
  %sub.ptr.rhs.cast.i.i.i520 = ptrtoint ptr %101 to i64
  %sub.ptr.sub.i.i.i521 = sub i64 %sub.ptr.lhs.cast.i.i.i519, %sub.ptr.rhs.cast.i.i.i520
  %sub.ptr.div.i.i.i522 = ashr exact i64 %sub.ptr.sub.i.i.i521, 4
  %add.i.i523 = add nsw i64 %sub.ptr.div.i.i.i522, 1
  %cmp.i.i.i524 = icmp ugt i64 %add.i.i523, 1152921504606846975
  br i1 %cmp.i.i.i524, label %if.then.i.i.i526, label %_ZNKSt3__16vectorI7double2NS_9allocatorIS1_EEE11__recommendB7v170000Em.exit.i.i535

if.then.i.i.i526:                                 ; preds = %if.else.i525
  tail call void @_ZNKSt3__16vectorI7double2NS_9allocatorIS1_EEE20__throw_length_errorB7v170000Ev(ptr noundef nonnull align 8 dereferenceable(24) %pointpos) #24
  unreachable

_ZNKSt3__16vectorI7double2NS_9allocatorIS1_EEE11__recommendB7v170000Em.exit.i.i535: ; preds = %if.else.i525
  %sub.ptr.lhs.cast.i.i.i.i527 = ptrtoint ptr %98 to i64
  %sub.ptr.sub.i.i.i.i528 = sub i64 %sub.ptr.lhs.cast.i.i.i.i527, %sub.ptr.rhs.cast.i.i.i520
  %cmp3.not.i.i.i529 = icmp ult i64 %sub.ptr.sub.i.i.i.i528, 9223372036854775792
  %mul.i.i.i530 = lshr exact i64 %sub.ptr.sub.i.i.i.i528, 3
  %.sroa.speculated.i.i.i531 = tail call i64 @llvm.umax.i64(i64 %mul.i.i.i530, i64 %add.i.i523)
  %retval.0.i.i.i532 = select i1 %cmp3.not.i.i.i529, i64 %.sroa.speculated.i.i.i531, i64 1152921504606846975
  %cmp.i16.i.i533 = icmp ne i64 %retval.0.i.i.i532, 0
  tail call void @llvm.assume(i1 %cmp.i16.i.i533)
  %cmp.i.i.i.i.i534 = icmp ugt i64 %retval.0.i.i.i532, 1152921504606846975
  br i1 %cmp.i.i.i.i.i534, label %if.then.i.i.i.i.i536, label %_ZNSt3__119__allocate_at_leastB7v170000INS_9allocatorI7double2EEEENS_19__allocation_resultINS_16allocator_traitsIT_E7pointerEEERS6_m.exit.i.i.i544

if.then.i.i.i.i.i536:                             ; preds = %_ZNKSt3__16vectorI7double2NS_9allocatorIS1_EEE11__recommendB7v170000Em.exit.i.i535
  tail call void @_ZSt28__throw_bad_array_new_lengthB7v170000v() #24
  unreachable

_ZNSt3__119__allocate_at_leastB7v170000INS_9allocatorI7double2EEEENS_19__allocation_resultINS_16allocator_traitsIT_E7pointerEEERS6_m.exit.i.i.i544: ; preds = %_ZNKSt3__16vectorI7double2NS_9allocatorIS1_EEE11__recommendB7v170000Em.exit.i.i535
  %mul.i.i.i.i.i537 = shl nuw i64 %retval.0.i.i.i532, 4
  %call.i5.i.i.i.i.i.i560 = tail call noalias noundef nonnull ptr @_Znwm(i64 noundef %mul.i.i.i.i.i537) #25
  %add.ptr.i.i.i538 = getelementptr inbounds %struct.double2, ptr %call.i5.i.i.i.i.i.i560, i64 %sub.ptr.div.i.i.i522
  %add.ptr6.i.i.i539 = getelementptr inbounds %struct.double2, ptr %call.i5.i.i.i.i.i.i560, i64 %retval.0.i.i.i532
  store <2 x double> %96, ptr %add.ptr.i.i.i538, align 8, !tbaa !20
  %incdec.ptr.i6.i542 = getelementptr inbounds %struct.double2, ptr %add.ptr.i.i.i538, i64 1
  %cmp.i.not18.i.i.i.i543 = icmp eq ptr %97, %101
  br i1 %cmp.i.not18.i.i.i.i543, label %_ZNSt3__114__split_bufferI7double2RNS_9allocatorIS1_EEE5clearB7v170000Ev.exit.i.i.i555, label %invoke.cont4.i.i.i.i552

invoke.cont4.i.i.i.i552:                          ; preds = %_ZNSt3__119__allocate_at_leastB7v170000INS_9allocatorI7double2EEEENS_19__allocation_resultINS_16allocator_traitsIT_E7pointerEEERS6_m.exit.i.i.i544, %invoke.cont4.i.i.i.i552
  %incdec.ptr.i.i.i.i20.i.i.i.i545 = phi ptr [ %incdec.ptr.i.i.i.i.i.i.i.i547, %invoke.cont4.i.i.i.i552 ], [ %add.ptr.i.i.i538, %_ZNSt3__119__allocate_at_leastB7v170000INS_9allocatorI7double2EEEENS_19__allocation_resultINS_16allocator_traitsIT_E7pointerEEERS6_m.exit.i.i.i544 ]
  %__first1.sroa.1.019.i.i.i.i546 = phi ptr [ %incdec.ptr.i.i.i.i.i548, %invoke.cont4.i.i.i.i552 ], [ %97, %_ZNSt3__119__allocate_at_leastB7v170000INS_9allocatorI7double2EEEENS_19__allocation_resultINS_16allocator_traitsIT_E7pointerEEERS6_m.exit.i.i.i544 ]
  %incdec.ptr.i.i.i.i.i.i.i.i547 = getelementptr inbounds %struct.double2, ptr %incdec.ptr.i.i.i.i20.i.i.i.i545, i64 -1
  %incdec.ptr.i.i.i.i.i548 = getelementptr inbounds %struct.double2, ptr %__first1.sroa.1.019.i.i.i.i546, i64 -1
  %102 = load <2 x double>, ptr %incdec.ptr.i.i.i.i.i548, align 8, !tbaa !20
  store <2 x double> %102, ptr %incdec.ptr.i.i.i.i.i.i.i.i547, align 8, !tbaa !20
  %cmp.i.not.i.i.i.i551 = icmp eq ptr %incdec.ptr.i.i.i.i.i548, %101
  br i1 %cmp.i.not.i.i.i.i551, label %_ZNSt3__114__split_bufferI7double2RNS_9allocatorIS1_EEE5clearB7v170000Ev.exit.i.i.i555, label %invoke.cont4.i.i.i.i552, !llvm.loop !49

_ZNSt3__114__split_bufferI7double2RNS_9allocatorIS1_EEE5clearB7v170000Ev.exit.i.i.i555: ; preds = %invoke.cont4.i.i.i.i552, %_ZNSt3__119__allocate_at_leastB7v170000INS_9allocatorI7double2EEEENS_19__allocation_resultINS_16allocator_traitsIT_E7pointerEEERS6_m.exit.i.i.i544
  %storemerge.i.i553 = phi ptr [ %add.ptr.i.i.i538, %_ZNSt3__119__allocate_at_leastB7v170000INS_9allocatorI7double2EEEENS_19__allocation_resultINS_16allocator_traitsIT_E7pointerEEERS6_m.exit.i.i.i544 ], [ %incdec.ptr.i.i.i.i.i.i.i.i547, %invoke.cont4.i.i.i.i552 ]
  store ptr %storemerge.i.i553, ptr %pointpos, align 8, !tbaa !11
  store ptr %incdec.ptr.i6.i542, ptr %__end_.i512, align 8, !tbaa !11
  store ptr %add.ptr6.i.i.i539, ptr %__end_cap_.i.i.i, align 8, !tbaa !11
  %tobool.not.i.i.i554 = icmp eq ptr %101, null
  br i1 %tobool.not.i.i.i554, label %invoke.cont34, label %if.then.i19.i.i556

if.then.i19.i.i556:                               ; preds = %_ZNSt3__114__split_bufferI7double2RNS_9allocatorIS1_EEE5clearB7v170000Ev.exit.i.i.i555
  tail call void @_ZdlPv(ptr noundef nonnull %101) #22
  br label %invoke.cont34

invoke.cont34:                                    ; preds = %if.then.i19.i.i556, %_ZNSt3__114__split_bufferI7double2RNS_9allocatorIS1_EEE5clearB7v170000Ev.exit.i.i.i555, %if.then.i518
  %inc = add nuw i32 %i.02147, 1
  %exitcond.not = icmp eq i32 %i.02147, %0
  br i1 %exitcond.not, label %for.inc35, label %for.body23, !llvm.loop !93

for.inc35:                                        ; preds = %invoke.cont34, %if.end, %if.then.i508, %_ZNSt3__114__split_bufferI7double2RNS_9allocatorIS1_EEE5clearB7v170000Ev.exit.i.i.i, %if.then.i19.i.i
  %inc36 = add nuw i32 %j.02149, 1
  %exitcond2168.not = icmp eq i32 %j.02149, %1
  br i1 %exitcond2168.not, label %for.cond.cleanup, label %for.body, !llvm.loop !94

for.cond49.preheader:                             ; preds = %for.cond49.preheader.lr.ph, %for.cond.cleanup52
  %103 = phi i32 [ %83, %for.cond49.preheader.lr.ph ], [ %106, %for.cond.cleanup52 ]
  %104 = phi i32 [ %.pre, %for.cond49.preheader.lr.ph ], [ %107, %for.cond.cleanup52 ]
  %j42.02153 = phi i32 [ 0, %for.cond49.preheader.lr.ph ], [ %inc84, %for.cond.cleanup52 ]
  %cmp512150 = icmp sgt i32 %104, 0
  br i1 %cmp512150, label %for.body53.lr.ph, label %for.cond.cleanup52

for.body53.lr.ph:                                 ; preds = %for.cond49.preheader
  %mul57 = mul nsw i32 %j42.02153, %add
  br label %for.body53

for.cond.cleanup46:                               ; preds = %for.cond.cleanup52, %_ZNSt3__16vectorIiNS_9allocatorIiEEE7reserveEm.exit506
  %105 = load i32, ptr @_ZN8Parallel5numpeE, align 4, !tbaa !13
  %cmp86 = icmp eq i32 %105, 1
  br i1 %cmp86, label %cleanup, label %if.end88

for.cond.cleanup52.loopexit:                      ; preds = %_ZNSt3__16vectorIiNS_9allocatorIiEEE9push_backB7v170000EOi.exit897
  %.pre2245 = load i32, ptr %nzy, align 4, !tbaa !43
  br label %for.cond.cleanup52

for.cond.cleanup52:                               ; preds = %for.cond.cleanup52.loopexit, %for.cond49.preheader
  %106 = phi i32 [ %.pre2245, %for.cond.cleanup52.loopexit ], [ %103, %for.cond49.preheader ]
  %107 = phi i32 [ %311, %for.cond.cleanup52.loopexit ], [ %104, %for.cond49.preheader ]
  %inc84 = add nuw nsw i32 %j42.02153, 1
  %cmp45 = icmp slt i32 %inc84, %106
  br i1 %cmp45, label %for.cond49.preheader, label %for.cond.cleanup46, !llvm.loop !95

for.body53:                                       ; preds = %for.body53.lr.ph, %_ZNSt3__16vectorIiNS_9allocatorIiEEE9push_backB7v170000EOi.exit897
  %i48.02151 = phi i32 [ 0, %for.body53.lr.ph ], [ %inc81, %_ZNSt3__16vectorIiNS_9allocatorIiEEE9push_backB7v170000EOi.exit897 ]
  %108 = load ptr, ptr %__end_.i562, align 8, !tbaa !54
  %109 = load ptr, ptr %zonepoints, align 8, !tbaa !50
  %sub.ptr.lhs.cast.i = ptrtoint ptr %108 to i64
  %sub.ptr.rhs.cast.i = ptrtoint ptr %109 to i64
  %sub.ptr.sub.i = sub i64 %sub.ptr.lhs.cast.i, %sub.ptr.rhs.cast.i
  %110 = lshr exact i64 %sub.ptr.sub.i, 2
  %conv56 = trunc i64 %110 to i32
  %111 = load ptr, ptr %__end_.i563, align 8, !tbaa !54
  %112 = load ptr, ptr %__end_cap_.i.i.i427, align 8, !tbaa !11
  %cmp.i565 = icmp ult ptr %111, %112
  br i1 %cmp.i565, label %if.then.i567, label %if.else.i574

if.then.i567:                                     ; preds = %for.body53
  store i32 %conv56, ptr %111, align 4, !tbaa !13
  %incdec.ptr.i.i566 = getelementptr inbounds i32, ptr %111, i64 1
  store ptr %incdec.ptr.i.i566, ptr %__end_.i563, align 8, !tbaa !54
  br label %_ZNSt3__16vectorIiNS_9allocatorIiEEE9push_backB7v170000EOi.exit

if.else.i574:                                     ; preds = %for.body53
  %113 = load ptr, ptr %zonestart, align 8, !tbaa !50
  %sub.ptr.lhs.cast.i.i.i568 = ptrtoint ptr %111 to i64
  %sub.ptr.rhs.cast.i.i.i569 = ptrtoint ptr %113 to i64
  %sub.ptr.sub.i.i.i570 = sub i64 %sub.ptr.lhs.cast.i.i.i568, %sub.ptr.rhs.cast.i.i.i569
  %sub.ptr.div.i.i.i571 = ashr exact i64 %sub.ptr.sub.i.i.i570, 2
  %add.i.i572 = add nsw i64 %sub.ptr.div.i.i.i571, 1
  %cmp.i.i.i573 = icmp ugt i64 %add.i.i572, 4611686018427387903
  br i1 %cmp.i.i.i573, label %if.then.i.i.i575, label %_ZNKSt3__16vectorIiNS_9allocatorIiEEE11__recommendB7v170000Em.exit.i.i

if.then.i.i.i575:                                 ; preds = %if.else.i574
  tail call void @_ZNKSt3__16vectorIiNS_9allocatorIiEEE20__throw_length_errorB7v170000Ev(ptr noundef nonnull align 8 dereferenceable(24) %zonestart) #24
  unreachable

_ZNKSt3__16vectorIiNS_9allocatorIiEEE11__recommendB7v170000Em.exit.i.i: ; preds = %if.else.i574
  %sub.ptr.lhs.cast.i.i.i.i576 = ptrtoint ptr %112 to i64
  %sub.ptr.sub.i.i.i.i577 = sub i64 %sub.ptr.lhs.cast.i.i.i.i576, %sub.ptr.rhs.cast.i.i.i569
  %cmp3.not.i.i.i578 = icmp ult i64 %sub.ptr.sub.i.i.i.i577, 9223372036854775804
  %mul.i.i.i579 = lshr exact i64 %sub.ptr.sub.i.i.i.i577, 1
  %.sroa.speculated.i.i.i580 = tail call i64 @llvm.umax.i64(i64 %mul.i.i.i579, i64 %add.i.i572)
  %retval.0.i.i.i581 = select i1 %cmp3.not.i.i.i578, i64 %.sroa.speculated.i.i.i580, i64 4611686018427387903
  %cmp.i16.i.i582 = icmp eq i64 %retval.0.i.i.i581, 0
  br i1 %cmp.i16.i.i582, label %invoke.cont.i.i, label %if.else.i.i.i

if.else.i.i.i:                                    ; preds = %_ZNKSt3__16vectorIiNS_9allocatorIiEEE11__recommendB7v170000Em.exit.i.i
  %cmp.i.i.i.i.i583 = icmp ugt i64 %retval.0.i.i.i581, 4611686018427387903
  br i1 %cmp.i.i.i.i.i583, label %if.then.i.i.i.i.i584, label %_ZNSt3__119__allocate_at_leastB7v170000INS_9allocatorIiEEEENS_19__allocation_resultINS_16allocator_traitsIT_E7pointerEEERS5_m.exit.i.i.i

if.then.i.i.i.i.i584:                             ; preds = %if.else.i.i.i
  tail call void @_ZSt28__throw_bad_array_new_lengthB7v170000v() #24
  unreachable

_ZNSt3__119__allocate_at_leastB7v170000INS_9allocatorIiEEEENS_19__allocation_resultINS_16allocator_traitsIT_E7pointerEEERS5_m.exit.i.i.i: ; preds = %if.else.i.i.i
  %mul.i.i.i.i.i585 = shl nuw i64 %retval.0.i.i.i581, 2
  %call.i5.i.i.i.i.i.i = tail call noalias noundef nonnull ptr @_Znwm(i64 noundef %mul.i.i.i.i.i585) #25
  br label %invoke.cont.i.i

invoke.cont.i.i:                                  ; preds = %_ZNSt3__119__allocate_at_leastB7v170000INS_9allocatorIiEEEENS_19__allocation_resultINS_16allocator_traitsIT_E7pointerEEERS5_m.exit.i.i.i, %_ZNKSt3__16vectorIiNS_9allocatorIiEEE11__recommendB7v170000Em.exit.i.i
  %storemerge.i.i.i = phi ptr [ %call.i5.i.i.i.i.i.i, %_ZNSt3__119__allocate_at_leastB7v170000INS_9allocatorIiEEEENS_19__allocation_resultINS_16allocator_traitsIT_E7pointerEEERS5_m.exit.i.i.i ], [ null, %_ZNKSt3__16vectorIiNS_9allocatorIiEEE11__recommendB7v170000Em.exit.i.i ]
  %storemerge.i.i.i2503 = ptrtoint ptr %storemerge.i.i.i to i64
  %add.ptr.i.i.i586 = getelementptr inbounds i32, ptr %storemerge.i.i.i, i64 %sub.ptr.div.i.i.i571
  %add.ptr6.i.i.i587 = getelementptr inbounds i32, ptr %storemerge.i.i.i, i64 %retval.0.i.i.i581
  store i32 %conv56, ptr %add.ptr.i.i.i586, align 4, !tbaa !13
  %incdec.ptr.i4.i = getelementptr inbounds i32, ptr %add.ptr.i.i.i586, i64 1
  %cmp.i.not13.i.i.i.i.i.i.i.i.i = icmp eq ptr %111, %113
  br i1 %cmp.i.not13.i.i.i.i.i.i.i.i.i, label %_ZNSt3__114__split_bufferIiRNS_9allocatorIiEEE5clearB7v170000Ev.exit.i.i.i, label %while.body.i.i.i.i.i.i.i.i.i.preheader

while.body.i.i.i.i.i.i.i.i.i.preheader:           ; preds = %invoke.cont.i.i
  %114 = add i64 %sub.ptr.lhs.cast.i.i.i568, -4
  %115 = sub i64 %114, %sub.ptr.rhs.cast.i.i.i569
  %116 = lshr i64 %115, 2
  %117 = add nuw nsw i64 %116, 1
  %min.iters.check2507 = icmp ult i64 %115, 76
  br i1 %min.iters.check2507, label %while.body.i.i.i.i.i.i.i.i.i.preheader3292, label %vector.memcheck2502

vector.memcheck2502:                              ; preds = %while.body.i.i.i.i.i.i.i.i.i.preheader
  %118 = add i64 %sub.ptr.lhs.cast.i.i.i568, -4
  %119 = add i64 %storemerge.i.i.i2503, -4
  %120 = add i64 %119, %sub.ptr.sub.i.i.i570
  %121 = sub i64 %118, %120
  %diff.check2504 = icmp ult i64 %121, 32
  br i1 %diff.check2504, label %while.body.i.i.i.i.i.i.i.i.i.preheader3292, label %vector.ph2508

vector.ph2508:                                    ; preds = %vector.memcheck2502
  %n.vec2510 = and i64 %117, -8
  %122 = mul i64 %n.vec2510, -4
  %ind.end2511 = getelementptr i8, ptr %add.ptr.i.i.i586, i64 %122
  %123 = mul i64 %n.vec2510, -4
  %ind.end2513 = getelementptr i8, ptr %111, i64 %123
  br label %vector.body2516

vector.body2516:                                  ; preds = %vector.body2516, %vector.ph2508
  %index2517 = phi i64 [ 0, %vector.ph2508 ], [ %index.next2528, %vector.body2516 ]
  %124 = mul i64 %index2517, -4
  %next.gep2518 = getelementptr i8, ptr %add.ptr.i.i.i586, i64 %124
  %125 = mul i64 %index2517, -4
  %next.gep2520 = getelementptr i8, ptr %111, i64 %125
  %126 = getelementptr inbounds i32, ptr %next.gep2520, i64 -1
  %127 = getelementptr inbounds i32, ptr %126, i64 -3
  %wide.load2522 = load <4 x i32>, ptr %127, align 4, !tbaa !13, !noalias !96
  %128 = getelementptr inbounds i32, ptr %126, i64 -4
  %129 = getelementptr inbounds i32, ptr %128, i64 -3
  %wide.load2524 = load <4 x i32>, ptr %129, align 4, !tbaa !13, !noalias !96
  %130 = getelementptr inbounds i32, ptr %next.gep2518, i64 -1
  %131 = getelementptr inbounds i32, ptr %130, i64 -3
  store <4 x i32> %wide.load2522, ptr %131, align 4, !tbaa !13, !noalias !96
  %132 = getelementptr inbounds i32, ptr %130, i64 -4
  %133 = getelementptr inbounds i32, ptr %132, i64 -3
  store <4 x i32> %wide.load2524, ptr %133, align 4, !tbaa !13, !noalias !96
  %index.next2528 = add nuw i64 %index2517, 8
  %134 = icmp eq i64 %index.next2528, %n.vec2510
  br i1 %134, label %middle.block2505, label %vector.body2516, !llvm.loop !105

middle.block2505:                                 ; preds = %vector.body2516
  %cmp.n2515 = icmp eq i64 %117, %n.vec2510
  br i1 %cmp.n2515, label %_ZNSt3__114__split_bufferIiRNS_9allocatorIiEEE5clearB7v170000Ev.exit.i.i.i, label %while.body.i.i.i.i.i.i.i.i.i.preheader3292

while.body.i.i.i.i.i.i.i.i.i.preheader3292:       ; preds = %vector.memcheck2502, %while.body.i.i.i.i.i.i.i.i.i.preheader, %middle.block2505
  %incdec.ptr.i15.i.i.i.i.i.i.i.i.i.ph = phi ptr [ %add.ptr.i.i.i586, %vector.memcheck2502 ], [ %add.ptr.i.i.i586, %while.body.i.i.i.i.i.i.i.i.i.preheader ], [ %ind.end2511, %middle.block2505 ]
  %__first.sroa.2.014.i.i.i.i.i.i.i.i.i.ph = phi ptr [ %111, %vector.memcheck2502 ], [ %111, %while.body.i.i.i.i.i.i.i.i.i.preheader ], [ %ind.end2513, %middle.block2505 ]
  br label %while.body.i.i.i.i.i.i.i.i.i

while.body.i.i.i.i.i.i.i.i.i:                     ; preds = %while.body.i.i.i.i.i.i.i.i.i.preheader3292, %while.body.i.i.i.i.i.i.i.i.i
  %incdec.ptr.i15.i.i.i.i.i.i.i.i.i = phi ptr [ %incdec.ptr.i.i.i.i.i.i.i.i.i.i588, %while.body.i.i.i.i.i.i.i.i.i ], [ %incdec.ptr.i15.i.i.i.i.i.i.i.i.i.ph, %while.body.i.i.i.i.i.i.i.i.i.preheader3292 ]
  %__first.sroa.2.014.i.i.i.i.i.i.i.i.i = phi ptr [ %incdec.ptr.i.i.i.i.i.i.i.i.i.i.i, %while.body.i.i.i.i.i.i.i.i.i ], [ %__first.sroa.2.014.i.i.i.i.i.i.i.i.i.ph, %while.body.i.i.i.i.i.i.i.i.i.preheader3292 ]
  %incdec.ptr.i.i.i.i.i.i.i.i.i.i.i = getelementptr inbounds i32, ptr %__first.sroa.2.014.i.i.i.i.i.i.i.i.i, i64 -1
  %135 = load i32, ptr %incdec.ptr.i.i.i.i.i.i.i.i.i.i.i, align 4, !tbaa !13, !noalias !96
  %incdec.ptr.i.i.i.i.i.i.i.i.i.i588 = getelementptr inbounds i32, ptr %incdec.ptr.i15.i.i.i.i.i.i.i.i.i, i64 -1
  store i32 %135, ptr %incdec.ptr.i.i.i.i.i.i.i.i.i.i588, align 4, !tbaa !13, !noalias !96
  %cmp.i.not.i.i.i.i.i.i.i.i.i = icmp eq ptr %incdec.ptr.i.i.i.i.i.i.i.i.i.i.i, %113
  br i1 %cmp.i.not.i.i.i.i.i.i.i.i.i, label %_ZNSt3__114__split_bufferIiRNS_9allocatorIiEEE5clearB7v170000Ev.exit.i.i.i, label %while.body.i.i.i.i.i.i.i.i.i, !llvm.loop !106

_ZNSt3__114__split_bufferIiRNS_9allocatorIiEEE5clearB7v170000Ev.exit.i.i.i: ; preds = %while.body.i.i.i.i.i.i.i.i.i, %middle.block2505, %invoke.cont.i.i
  %storemerge.i.i589 = phi ptr [ %add.ptr.i.i.i586, %invoke.cont.i.i ], [ %ind.end2511, %middle.block2505 ], [ %incdec.ptr.i.i.i.i.i.i.i.i.i.i588, %while.body.i.i.i.i.i.i.i.i.i ]
  store ptr %storemerge.i.i589, ptr %zonestart, align 8, !tbaa !11
  store ptr %incdec.ptr.i4.i, ptr %__end_.i563, align 8, !tbaa !11
  store ptr %add.ptr6.i.i.i587, ptr %__end_cap_.i.i.i427, align 8, !tbaa !11
  %tobool.not.i.i.i590 = icmp eq ptr %113, null
  br i1 %tobool.not.i.i.i590, label %_ZNSt3__16vectorIiNS_9allocatorIiEEE9push_backB7v170000EOi.exit, label %if.then.i19.i.i591

if.then.i19.i.i591:                               ; preds = %_ZNSt3__114__split_bufferIiRNS_9allocatorIiEEE5clearB7v170000Ev.exit.i.i.i
  tail call void @_ZdlPv(ptr noundef nonnull %113) #22
  br label %_ZNSt3__16vectorIiNS_9allocatorIiEEE9push_backB7v170000EOi.exit

_ZNSt3__16vectorIiNS_9allocatorIiEEE9push_backB7v170000EOi.exit: ; preds = %if.then.i567, %_ZNSt3__114__split_bufferIiRNS_9allocatorIiEEE5clearB7v170000Ev.exit.i.i.i, %if.then.i19.i.i591
  %add58 = add nsw i32 %i48.02151, %mul57
  %136 = load i32, ptr %mypey, align 4, !tbaa !39
  %cmp60 = icmp eq i32 %136, 0
  %sub63 = select i1 %cmp60, i32 %0, i32 0
  %spec.select = sub i32 %add58, %sub63
  %137 = load i32, ptr %zyoffset65, align 4, !tbaa !42
  %add66 = sub i32 0, %137
  %cmp67 = icmp eq i32 %j42.02153, %add66
  %138 = load ptr, ptr %__end_.i680, align 8, !tbaa !54
  %139 = load ptr, ptr %__end_cap_.i.i.i447, align 8, !tbaa !11
  %cmp.i594 = icmp ult ptr %138, %139
  br i1 %cmp67, label %if.then68, label %if.else

if.then68:                                        ; preds = %_ZNSt3__16vectorIiNS_9allocatorIiEEE9push_backB7v170000EOi.exit
  br i1 %cmp.i594, label %if.then.i596, label %if.else.i603

if.then.i596:                                     ; preds = %if.then68
  store i32 3, ptr %138, align 4, !tbaa !13
  %incdec.ptr.i.i595 = getelementptr inbounds i32, ptr %138, i64 1
  store ptr %incdec.ptr.i.i595, ptr %__end_.i680, align 8, !tbaa !54
  br label %_ZNSt3__16vectorIiNS_9allocatorIiEEE9push_backB7v170000EOi.exit635

if.else.i603:                                     ; preds = %if.then68
  %140 = load ptr, ptr %zonesize, align 8, !tbaa !50
  %sub.ptr.lhs.cast.i.i.i597 = ptrtoint ptr %138 to i64
  %sub.ptr.rhs.cast.i.i.i598 = ptrtoint ptr %140 to i64
  %sub.ptr.sub.i.i.i599 = sub i64 %sub.ptr.lhs.cast.i.i.i597, %sub.ptr.rhs.cast.i.i.i598
  %sub.ptr.div.i.i.i600 = ashr exact i64 %sub.ptr.sub.i.i.i599, 2
  %add.i.i601 = add nsw i64 %sub.ptr.div.i.i.i600, 1
  %cmp.i.i.i602 = icmp ugt i64 %add.i.i601, 4611686018427387903
  br i1 %cmp.i.i.i602, label %if.then.i.i.i604, label %_ZNKSt3__16vectorIiNS_9allocatorIiEEE11__recommendB7v170000Em.exit.i.i612

if.then.i.i.i604:                                 ; preds = %if.else.i603
  tail call void @_ZNKSt3__16vectorIiNS_9allocatorIiEEE20__throw_length_errorB7v170000Ev(ptr noundef nonnull align 8 dereferenceable(24) %zonesize) #24
  unreachable

_ZNKSt3__16vectorIiNS_9allocatorIiEEE11__recommendB7v170000Em.exit.i.i612: ; preds = %if.else.i603
  %sub.ptr.lhs.cast.i.i.i.i605 = ptrtoint ptr %139 to i64
  %sub.ptr.sub.i.i.i.i606 = sub i64 %sub.ptr.lhs.cast.i.i.i.i605, %sub.ptr.rhs.cast.i.i.i598
  %cmp3.not.i.i.i607 = icmp ult i64 %sub.ptr.sub.i.i.i.i606, 9223372036854775804
  %mul.i.i.i608 = lshr exact i64 %sub.ptr.sub.i.i.i.i606, 1
  %.sroa.speculated.i.i.i609 = tail call i64 @llvm.umax.i64(i64 %mul.i.i.i608, i64 %add.i.i601)
  %retval.0.i.i.i610 = select i1 %cmp3.not.i.i.i607, i64 %.sroa.speculated.i.i.i609, i64 4611686018427387903
  %cmp.i16.i.i611 = icmp eq i64 %retval.0.i.i.i610, 0
  br i1 %cmp.i16.i.i611, label %invoke.cont.i.i624, label %if.else.i.i.i614

if.else.i.i.i614:                                 ; preds = %_ZNKSt3__16vectorIiNS_9allocatorIiEEE11__recommendB7v170000Em.exit.i.i612
  %cmp.i.i.i.i.i613 = icmp ugt i64 %retval.0.i.i.i610, 4611686018427387903
  br i1 %cmp.i.i.i.i.i613, label %if.then.i.i.i.i.i615, label %_ZNSt3__119__allocate_at_leastB7v170000INS_9allocatorIiEEEENS_19__allocation_resultINS_16allocator_traitsIT_E7pointerEEERS5_m.exit.i.i.i618

if.then.i.i.i.i.i615:                             ; preds = %if.else.i.i.i614
  tail call void @_ZSt28__throw_bad_array_new_lengthB7v170000v() #24
  unreachable

_ZNSt3__119__allocate_at_leastB7v170000INS_9allocatorIiEEEENS_19__allocation_resultINS_16allocator_traitsIT_E7pointerEEERS5_m.exit.i.i.i618: ; preds = %if.else.i.i.i614
  %mul.i.i.i.i.i616 = shl nuw i64 %retval.0.i.i.i610, 2
  %call.i5.i.i.i.i.i.i617 = tail call noalias noundef nonnull ptr @_Znwm(i64 noundef %mul.i.i.i.i.i616) #25
  br label %invoke.cont.i.i624

invoke.cont.i.i624:                               ; preds = %_ZNSt3__119__allocate_at_leastB7v170000INS_9allocatorIiEEEENS_19__allocation_resultINS_16allocator_traitsIT_E7pointerEEERS5_m.exit.i.i.i618, %_ZNKSt3__16vectorIiNS_9allocatorIiEEE11__recommendB7v170000Em.exit.i.i612
  %storemerge.i.i.i619 = phi ptr [ %call.i5.i.i.i.i.i.i617, %_ZNSt3__119__allocate_at_leastB7v170000INS_9allocatorIiEEEENS_19__allocation_resultINS_16allocator_traitsIT_E7pointerEEERS5_m.exit.i.i.i618 ], [ null, %_ZNKSt3__16vectorIiNS_9allocatorIiEEE11__recommendB7v170000Em.exit.i.i612 ]
  %storemerge.i.i.i6192395 = ptrtoint ptr %storemerge.i.i.i619 to i64
  %add.ptr.i.i.i620 = getelementptr inbounds i32, ptr %storemerge.i.i.i619, i64 %sub.ptr.div.i.i.i600
  %add.ptr6.i.i.i621 = getelementptr inbounds i32, ptr %storemerge.i.i.i619, i64 %retval.0.i.i.i610
  store i32 3, ptr %add.ptr.i.i.i620, align 4, !tbaa !13
  %incdec.ptr.i4.i622 = getelementptr inbounds i32, ptr %add.ptr.i.i.i620, i64 1
  %cmp.i.not13.i.i.i.i.i.i.i.i.i623 = icmp eq ptr %138, %140
  br i1 %cmp.i.not13.i.i.i.i.i.i.i.i.i623, label %_ZNSt3__114__split_bufferIiRNS_9allocatorIiEEE5clearB7v170000Ev.exit.i.i.i633, label %while.body.i.i.i.i.i.i.i.i.i630.preheader

while.body.i.i.i.i.i.i.i.i.i630.preheader:        ; preds = %invoke.cont.i.i624
  %141 = add i64 %sub.ptr.lhs.cast.i.i.i597, -4
  %142 = sub i64 %141, %sub.ptr.rhs.cast.i.i.i598
  %143 = lshr i64 %142, 2
  %144 = add nuw nsw i64 %143, 1
  %min.iters.check2399 = icmp ult i64 %142, 76
  br i1 %min.iters.check2399, label %while.body.i.i.i.i.i.i.i.i.i630.preheader3288, label %vector.memcheck2394

vector.memcheck2394:                              ; preds = %while.body.i.i.i.i.i.i.i.i.i630.preheader
  %145 = add i64 %sub.ptr.lhs.cast.i.i.i597, -4
  %146 = add i64 %storemerge.i.i.i6192395, -4
  %147 = add i64 %146, %sub.ptr.sub.i.i.i599
  %148 = sub i64 %145, %147
  %diff.check2396 = icmp ult i64 %148, 32
  br i1 %diff.check2396, label %while.body.i.i.i.i.i.i.i.i.i630.preheader3288, label %vector.ph2400

vector.ph2400:                                    ; preds = %vector.memcheck2394
  %n.vec2402 = and i64 %144, -8
  %149 = mul i64 %n.vec2402, -4
  %ind.end2403 = getelementptr i8, ptr %add.ptr.i.i.i620, i64 %149
  %150 = mul i64 %n.vec2402, -4
  %ind.end2405 = getelementptr i8, ptr %138, i64 %150
  br label %vector.body2408

vector.body2408:                                  ; preds = %vector.body2408, %vector.ph2400
  %index2409 = phi i64 [ 0, %vector.ph2400 ], [ %index.next2420, %vector.body2408 ]
  %151 = mul i64 %index2409, -4
  %next.gep2410 = getelementptr i8, ptr %add.ptr.i.i.i620, i64 %151
  %152 = mul i64 %index2409, -4
  %next.gep2412 = getelementptr i8, ptr %138, i64 %152
  %153 = getelementptr inbounds i32, ptr %next.gep2412, i64 -1
  %154 = getelementptr inbounds i32, ptr %153, i64 -3
  %wide.load2414 = load <4 x i32>, ptr %154, align 4, !tbaa !13, !noalias !107
  %155 = getelementptr inbounds i32, ptr %153, i64 -4
  %156 = getelementptr inbounds i32, ptr %155, i64 -3
  %wide.load2416 = load <4 x i32>, ptr %156, align 4, !tbaa !13, !noalias !107
  %157 = getelementptr inbounds i32, ptr %next.gep2410, i64 -1
  %158 = getelementptr inbounds i32, ptr %157, i64 -3
  store <4 x i32> %wide.load2414, ptr %158, align 4, !tbaa !13, !noalias !107
  %159 = getelementptr inbounds i32, ptr %157, i64 -4
  %160 = getelementptr inbounds i32, ptr %159, i64 -3
  store <4 x i32> %wide.load2416, ptr %160, align 4, !tbaa !13, !noalias !107
  %index.next2420 = add nuw i64 %index2409, 8
  %161 = icmp eq i64 %index.next2420, %n.vec2402
  br i1 %161, label %middle.block2397, label %vector.body2408, !llvm.loop !116

middle.block2397:                                 ; preds = %vector.body2408
  %cmp.n2407 = icmp eq i64 %144, %n.vec2402
  br i1 %cmp.n2407, label %_ZNSt3__114__split_bufferIiRNS_9allocatorIiEEE5clearB7v170000Ev.exit.i.i.i633, label %while.body.i.i.i.i.i.i.i.i.i630.preheader3288

while.body.i.i.i.i.i.i.i.i.i630.preheader3288:    ; preds = %vector.memcheck2394, %while.body.i.i.i.i.i.i.i.i.i630.preheader, %middle.block2397
  %incdec.ptr.i15.i.i.i.i.i.i.i.i.i625.ph = phi ptr [ %add.ptr.i.i.i620, %vector.memcheck2394 ], [ %add.ptr.i.i.i620, %while.body.i.i.i.i.i.i.i.i.i630.preheader ], [ %ind.end2403, %middle.block2397 ]
  %__first.sroa.2.014.i.i.i.i.i.i.i.i.i626.ph = phi ptr [ %138, %vector.memcheck2394 ], [ %138, %while.body.i.i.i.i.i.i.i.i.i630.preheader ], [ %ind.end2405, %middle.block2397 ]
  br label %while.body.i.i.i.i.i.i.i.i.i630

while.body.i.i.i.i.i.i.i.i.i630:                  ; preds = %while.body.i.i.i.i.i.i.i.i.i630.preheader3288, %while.body.i.i.i.i.i.i.i.i.i630
  %incdec.ptr.i15.i.i.i.i.i.i.i.i.i625 = phi ptr [ %incdec.ptr.i.i.i.i.i.i.i.i.i.i628, %while.body.i.i.i.i.i.i.i.i.i630 ], [ %incdec.ptr.i15.i.i.i.i.i.i.i.i.i625.ph, %while.body.i.i.i.i.i.i.i.i.i630.preheader3288 ]
  %__first.sroa.2.014.i.i.i.i.i.i.i.i.i626 = phi ptr [ %incdec.ptr.i.i.i.i.i.i.i.i.i.i.i627, %while.body.i.i.i.i.i.i.i.i.i630 ], [ %__first.sroa.2.014.i.i.i.i.i.i.i.i.i626.ph, %while.body.i.i.i.i.i.i.i.i.i630.preheader3288 ]
  %incdec.ptr.i.i.i.i.i.i.i.i.i.i.i627 = getelementptr inbounds i32, ptr %__first.sroa.2.014.i.i.i.i.i.i.i.i.i626, i64 -1
  %162 = load i32, ptr %incdec.ptr.i.i.i.i.i.i.i.i.i.i.i627, align 4, !tbaa !13, !noalias !107
  %incdec.ptr.i.i.i.i.i.i.i.i.i.i628 = getelementptr inbounds i32, ptr %incdec.ptr.i15.i.i.i.i.i.i.i.i.i625, i64 -1
  store i32 %162, ptr %incdec.ptr.i.i.i.i.i.i.i.i.i.i628, align 4, !tbaa !13, !noalias !107
  %cmp.i.not.i.i.i.i.i.i.i.i.i629 = icmp eq ptr %incdec.ptr.i.i.i.i.i.i.i.i.i.i.i627, %140
  br i1 %cmp.i.not.i.i.i.i.i.i.i.i.i629, label %_ZNSt3__114__split_bufferIiRNS_9allocatorIiEEE5clearB7v170000Ev.exit.i.i.i633, label %while.body.i.i.i.i.i.i.i.i.i630, !llvm.loop !117

_ZNSt3__114__split_bufferIiRNS_9allocatorIiEEE5clearB7v170000Ev.exit.i.i.i633: ; preds = %while.body.i.i.i.i.i.i.i.i.i630, %middle.block2397, %invoke.cont.i.i624
  %storemerge.i.i631 = phi ptr [ %add.ptr.i.i.i620, %invoke.cont.i.i624 ], [ %ind.end2403, %middle.block2397 ], [ %incdec.ptr.i.i.i.i.i.i.i.i.i.i628, %while.body.i.i.i.i.i.i.i.i.i630 ]
  store ptr %storemerge.i.i631, ptr %zonesize, align 8, !tbaa !11
  store ptr %incdec.ptr.i4.i622, ptr %__end_.i680, align 8, !tbaa !11
  store ptr %add.ptr6.i.i.i621, ptr %__end_cap_.i.i.i447, align 8, !tbaa !11
  %tobool.not.i.i.i632 = icmp eq ptr %140, null
  br i1 %tobool.not.i.i.i632, label %_ZNSt3__16vectorIiNS_9allocatorIiEEE9push_backB7v170000EOi.exit635, label %if.then.i19.i.i634

if.then.i19.i.i634:                               ; preds = %_ZNSt3__114__split_bufferIiRNS_9allocatorIiEEE5clearB7v170000Ev.exit.i.i.i633
  tail call void @_ZdlPv(ptr noundef nonnull %140) #22
  br label %_ZNSt3__16vectorIiNS_9allocatorIiEEE9push_backB7v170000EOi.exit635

_ZNSt3__16vectorIiNS_9allocatorIiEEE9push_backB7v170000EOi.exit635: ; preds = %if.then.i596, %_ZNSt3__114__split_bufferIiRNS_9allocatorIiEEE5clearB7v170000Ev.exit.i.i.i633, %if.then.i19.i.i634
  %163 = load ptr, ptr %__end_.i562, align 8, !tbaa !54
  %164 = load ptr, ptr %__end_cap_.i.i.i477, align 8, !tbaa !11
  %cmp.i638 = icmp ult ptr %163, %164
  br i1 %cmp.i638, label %if.then.i640, label %if.else.i647

if.then.i640:                                     ; preds = %_ZNSt3__16vectorIiNS_9allocatorIiEEE9push_backB7v170000EOi.exit635
  store i32 0, ptr %163, align 4, !tbaa !13
  %incdec.ptr.i.i639 = getelementptr inbounds i32, ptr %163, i64 1
  store ptr %incdec.ptr.i.i639, ptr %__end_.i562, align 8, !tbaa !54
  br label %if.end74

if.else.i647:                                     ; preds = %_ZNSt3__16vectorIiNS_9allocatorIiEEE9push_backB7v170000EOi.exit635
  %165 = load ptr, ptr %zonepoints, align 8, !tbaa !50
  %sub.ptr.lhs.cast.i.i.i641 = ptrtoint ptr %163 to i64
  %sub.ptr.rhs.cast.i.i.i642 = ptrtoint ptr %165 to i64
  %sub.ptr.sub.i.i.i643 = sub i64 %sub.ptr.lhs.cast.i.i.i641, %sub.ptr.rhs.cast.i.i.i642
  %sub.ptr.div.i.i.i644 = ashr exact i64 %sub.ptr.sub.i.i.i643, 2
  %add.i.i645 = add nsw i64 %sub.ptr.div.i.i.i644, 1
  %cmp.i.i.i646 = icmp ugt i64 %add.i.i645, 4611686018427387903
  br i1 %cmp.i.i.i646, label %if.then.i.i.i648, label %_ZNKSt3__16vectorIiNS_9allocatorIiEEE11__recommendB7v170000Em.exit.i.i656

if.then.i.i.i648:                                 ; preds = %if.else.i647
  tail call void @_ZNKSt3__16vectorIiNS_9allocatorIiEEE20__throw_length_errorB7v170000Ev(ptr noundef nonnull align 8 dereferenceable(24) %zonepoints) #24
  unreachable

_ZNKSt3__16vectorIiNS_9allocatorIiEEE11__recommendB7v170000Em.exit.i.i656: ; preds = %if.else.i647
  %sub.ptr.lhs.cast.i.i.i.i649 = ptrtoint ptr %164 to i64
  %sub.ptr.sub.i.i.i.i650 = sub i64 %sub.ptr.lhs.cast.i.i.i.i649, %sub.ptr.rhs.cast.i.i.i642
  %cmp3.not.i.i.i651 = icmp ult i64 %sub.ptr.sub.i.i.i.i650, 9223372036854775804
  %mul.i.i.i652 = lshr exact i64 %sub.ptr.sub.i.i.i.i650, 1
  %.sroa.speculated.i.i.i653 = tail call i64 @llvm.umax.i64(i64 %mul.i.i.i652, i64 %add.i.i645)
  %retval.0.i.i.i654 = select i1 %cmp3.not.i.i.i651, i64 %.sroa.speculated.i.i.i653, i64 4611686018427387903
  %cmp.i16.i.i655 = icmp eq i64 %retval.0.i.i.i654, 0
  br i1 %cmp.i16.i.i655, label %invoke.cont.i.i668, label %if.else.i.i.i658

if.else.i.i.i658:                                 ; preds = %_ZNKSt3__16vectorIiNS_9allocatorIiEEE11__recommendB7v170000Em.exit.i.i656
  %cmp.i.i.i.i.i657 = icmp ugt i64 %retval.0.i.i.i654, 4611686018427387903
  br i1 %cmp.i.i.i.i.i657, label %if.then.i.i.i.i.i659, label %_ZNSt3__119__allocate_at_leastB7v170000INS_9allocatorIiEEEENS_19__allocation_resultINS_16allocator_traitsIT_E7pointerEEERS5_m.exit.i.i.i662

if.then.i.i.i.i.i659:                             ; preds = %if.else.i.i.i658
  tail call void @_ZSt28__throw_bad_array_new_lengthB7v170000v() #24
  unreachable

_ZNSt3__119__allocate_at_leastB7v170000INS_9allocatorIiEEEENS_19__allocation_resultINS_16allocator_traitsIT_E7pointerEEERS5_m.exit.i.i.i662: ; preds = %if.else.i.i.i658
  %mul.i.i.i.i.i660 = shl nuw i64 %retval.0.i.i.i654, 2
  %call.i5.i.i.i.i.i.i661 = tail call noalias noundef nonnull ptr @_Znwm(i64 noundef %mul.i.i.i.i.i660) #25
  br label %invoke.cont.i.i668

invoke.cont.i.i668:                               ; preds = %_ZNSt3__119__allocate_at_leastB7v170000INS_9allocatorIiEEEENS_19__allocation_resultINS_16allocator_traitsIT_E7pointerEEERS5_m.exit.i.i.i662, %_ZNKSt3__16vectorIiNS_9allocatorIiEEE11__recommendB7v170000Em.exit.i.i656
  %storemerge.i.i.i663 = phi ptr [ %call.i5.i.i.i.i.i.i661, %_ZNSt3__119__allocate_at_leastB7v170000INS_9allocatorIiEEEENS_19__allocation_resultINS_16allocator_traitsIT_E7pointerEEERS5_m.exit.i.i.i662 ], [ null, %_ZNKSt3__16vectorIiNS_9allocatorIiEEE11__recommendB7v170000Em.exit.i.i656 ]
  %storemerge.i.i.i6632368 = ptrtoint ptr %storemerge.i.i.i663 to i64
  %add.ptr.i.i.i664 = getelementptr inbounds i32, ptr %storemerge.i.i.i663, i64 %sub.ptr.div.i.i.i644
  %add.ptr6.i.i.i665 = getelementptr inbounds i32, ptr %storemerge.i.i.i663, i64 %retval.0.i.i.i654
  store i32 0, ptr %add.ptr.i.i.i664, align 4, !tbaa !13
  %incdec.ptr.i4.i666 = getelementptr inbounds i32, ptr %add.ptr.i.i.i664, i64 1
  %cmp.i.not13.i.i.i.i.i.i.i.i.i667 = icmp eq ptr %163, %165
  br i1 %cmp.i.not13.i.i.i.i.i.i.i.i.i667, label %_ZNSt3__114__split_bufferIiRNS_9allocatorIiEEE5clearB7v170000Ev.exit.i.i.i677, label %while.body.i.i.i.i.i.i.i.i.i674.preheader

while.body.i.i.i.i.i.i.i.i.i674.preheader:        ; preds = %invoke.cont.i.i668
  %166 = add i64 %sub.ptr.lhs.cast.i.i.i641, -4
  %167 = sub i64 %166, %sub.ptr.rhs.cast.i.i.i642
  %168 = lshr i64 %167, 2
  %169 = add nuw nsw i64 %168, 1
  %min.iters.check2372 = icmp ult i64 %167, 76
  br i1 %min.iters.check2372, label %while.body.i.i.i.i.i.i.i.i.i674.preheader3287, label %vector.memcheck2367

vector.memcheck2367:                              ; preds = %while.body.i.i.i.i.i.i.i.i.i674.preheader
  %170 = add i64 %sub.ptr.lhs.cast.i.i.i641, -4
  %171 = add i64 %storemerge.i.i.i6632368, -4
  %172 = add i64 %171, %sub.ptr.sub.i.i.i643
  %173 = sub i64 %170, %172
  %diff.check2369 = icmp ult i64 %173, 32
  br i1 %diff.check2369, label %while.body.i.i.i.i.i.i.i.i.i674.preheader3287, label %vector.ph2373

vector.ph2373:                                    ; preds = %vector.memcheck2367
  %n.vec2375 = and i64 %169, -8
  %174 = mul i64 %n.vec2375, -4
  %ind.end2376 = getelementptr i8, ptr %add.ptr.i.i.i664, i64 %174
  %175 = mul i64 %n.vec2375, -4
  %ind.end2378 = getelementptr i8, ptr %163, i64 %175
  br label %vector.body2381

vector.body2381:                                  ; preds = %vector.body2381, %vector.ph2373
  %index2382 = phi i64 [ 0, %vector.ph2373 ], [ %index.next2393, %vector.body2381 ]
  %176 = mul i64 %index2382, -4
  %next.gep2383 = getelementptr i8, ptr %add.ptr.i.i.i664, i64 %176
  %177 = mul i64 %index2382, -4
  %next.gep2385 = getelementptr i8, ptr %163, i64 %177
  %178 = getelementptr inbounds i32, ptr %next.gep2385, i64 -1
  %179 = getelementptr inbounds i32, ptr %178, i64 -3
  %wide.load2387 = load <4 x i32>, ptr %179, align 4, !tbaa !13, !noalias !118
  %180 = getelementptr inbounds i32, ptr %178, i64 -4
  %181 = getelementptr inbounds i32, ptr %180, i64 -3
  %wide.load2389 = load <4 x i32>, ptr %181, align 4, !tbaa !13, !noalias !118
  %182 = getelementptr inbounds i32, ptr %next.gep2383, i64 -1
  %183 = getelementptr inbounds i32, ptr %182, i64 -3
  store <4 x i32> %wide.load2387, ptr %183, align 4, !tbaa !13, !noalias !118
  %184 = getelementptr inbounds i32, ptr %182, i64 -4
  %185 = getelementptr inbounds i32, ptr %184, i64 -3
  store <4 x i32> %wide.load2389, ptr %185, align 4, !tbaa !13, !noalias !118
  %index.next2393 = add nuw i64 %index2382, 8
  %186 = icmp eq i64 %index.next2393, %n.vec2375
  br i1 %186, label %middle.block2370, label %vector.body2381, !llvm.loop !127

middle.block2370:                                 ; preds = %vector.body2381
  %cmp.n2380 = icmp eq i64 %169, %n.vec2375
  br i1 %cmp.n2380, label %_ZNSt3__114__split_bufferIiRNS_9allocatorIiEEE5clearB7v170000Ev.exit.i.i.i677, label %while.body.i.i.i.i.i.i.i.i.i674.preheader3287

while.body.i.i.i.i.i.i.i.i.i674.preheader3287:    ; preds = %vector.memcheck2367, %while.body.i.i.i.i.i.i.i.i.i674.preheader, %middle.block2370
  %incdec.ptr.i15.i.i.i.i.i.i.i.i.i669.ph = phi ptr [ %add.ptr.i.i.i664, %vector.memcheck2367 ], [ %add.ptr.i.i.i664, %while.body.i.i.i.i.i.i.i.i.i674.preheader ], [ %ind.end2376, %middle.block2370 ]
  %__first.sroa.2.014.i.i.i.i.i.i.i.i.i670.ph = phi ptr [ %163, %vector.memcheck2367 ], [ %163, %while.body.i.i.i.i.i.i.i.i.i674.preheader ], [ %ind.end2378, %middle.block2370 ]
  br label %while.body.i.i.i.i.i.i.i.i.i674

while.body.i.i.i.i.i.i.i.i.i674:                  ; preds = %while.body.i.i.i.i.i.i.i.i.i674.preheader3287, %while.body.i.i.i.i.i.i.i.i.i674
  %incdec.ptr.i15.i.i.i.i.i.i.i.i.i669 = phi ptr [ %incdec.ptr.i.i.i.i.i.i.i.i.i.i672, %while.body.i.i.i.i.i.i.i.i.i674 ], [ %incdec.ptr.i15.i.i.i.i.i.i.i.i.i669.ph, %while.body.i.i.i.i.i.i.i.i.i674.preheader3287 ]
  %__first.sroa.2.014.i.i.i.i.i.i.i.i.i670 = phi ptr [ %incdec.ptr.i.i.i.i.i.i.i.i.i.i.i671, %while.body.i.i.i.i.i.i.i.i.i674 ], [ %__first.sroa.2.014.i.i.i.i.i.i.i.i.i670.ph, %while.body.i.i.i.i.i.i.i.i.i674.preheader3287 ]
  %incdec.ptr.i.i.i.i.i.i.i.i.i.i.i671 = getelementptr inbounds i32, ptr %__first.sroa.2.014.i.i.i.i.i.i.i.i.i670, i64 -1
  %187 = load i32, ptr %incdec.ptr.i.i.i.i.i.i.i.i.i.i.i671, align 4, !tbaa !13, !noalias !118
  %incdec.ptr.i.i.i.i.i.i.i.i.i.i672 = getelementptr inbounds i32, ptr %incdec.ptr.i15.i.i.i.i.i.i.i.i.i669, i64 -1
  store i32 %187, ptr %incdec.ptr.i.i.i.i.i.i.i.i.i.i672, align 4, !tbaa !13, !noalias !118
  %cmp.i.not.i.i.i.i.i.i.i.i.i673 = icmp eq ptr %incdec.ptr.i.i.i.i.i.i.i.i.i.i.i671, %165
  br i1 %cmp.i.not.i.i.i.i.i.i.i.i.i673, label %_ZNSt3__114__split_bufferIiRNS_9allocatorIiEEE5clearB7v170000Ev.exit.i.i.i677, label %while.body.i.i.i.i.i.i.i.i.i674, !llvm.loop !128

_ZNSt3__114__split_bufferIiRNS_9allocatorIiEEE5clearB7v170000Ev.exit.i.i.i677: ; preds = %while.body.i.i.i.i.i.i.i.i.i674, %middle.block2370, %invoke.cont.i.i668
  %storemerge.i.i675 = phi ptr [ %add.ptr.i.i.i664, %invoke.cont.i.i668 ], [ %ind.end2376, %middle.block2370 ], [ %incdec.ptr.i.i.i.i.i.i.i.i.i.i672, %while.body.i.i.i.i.i.i.i.i.i674 ]
  store ptr %storemerge.i.i675, ptr %zonepoints, align 8, !tbaa !11
  store ptr %incdec.ptr.i4.i666, ptr %__end_.i562, align 8, !tbaa !11
  store ptr %add.ptr6.i.i.i665, ptr %__end_cap_.i.i.i477, align 8, !tbaa !11
  %tobool.not.i.i.i676 = icmp eq ptr %165, null
  br i1 %tobool.not.i.i.i676, label %if.end74, label %if.then.i19.i.i678

if.then.i19.i.i678:                               ; preds = %_ZNSt3__114__split_bufferIiRNS_9allocatorIiEEE5clearB7v170000Ev.exit.i.i.i677
  tail call void @_ZdlPv(ptr noundef nonnull %165) #22
  br label %if.end74

if.else:                                          ; preds = %_ZNSt3__16vectorIiNS_9allocatorIiEEE9push_backB7v170000EOi.exit
  br i1 %cmp.i594, label %if.then.i684, label %if.else.i691

if.then.i684:                                     ; preds = %if.else
  store i32 4, ptr %138, align 4, !tbaa !13
  %incdec.ptr.i.i683 = getelementptr inbounds i32, ptr %138, i64 1
  store ptr %incdec.ptr.i.i683, ptr %__end_.i680, align 8, !tbaa !54
  br label %_ZNSt3__16vectorIiNS_9allocatorIiEEE9push_backB7v170000EOi.exit723

if.else.i691:                                     ; preds = %if.else
  %188 = load ptr, ptr %zonesize, align 8, !tbaa !50
  %sub.ptr.lhs.cast.i.i.i685 = ptrtoint ptr %138 to i64
  %sub.ptr.rhs.cast.i.i.i686 = ptrtoint ptr %188 to i64
  %sub.ptr.sub.i.i.i687 = sub i64 %sub.ptr.lhs.cast.i.i.i685, %sub.ptr.rhs.cast.i.i.i686
  %sub.ptr.div.i.i.i688 = ashr exact i64 %sub.ptr.sub.i.i.i687, 2
  %add.i.i689 = add nsw i64 %sub.ptr.div.i.i.i688, 1
  %cmp.i.i.i690 = icmp ugt i64 %add.i.i689, 4611686018427387903
  br i1 %cmp.i.i.i690, label %if.then.i.i.i692, label %_ZNKSt3__16vectorIiNS_9allocatorIiEEE11__recommendB7v170000Em.exit.i.i700

if.then.i.i.i692:                                 ; preds = %if.else.i691
  tail call void @_ZNKSt3__16vectorIiNS_9allocatorIiEEE20__throw_length_errorB7v170000Ev(ptr noundef nonnull align 8 dereferenceable(24) %zonesize) #24
  unreachable

_ZNKSt3__16vectorIiNS_9allocatorIiEEE11__recommendB7v170000Em.exit.i.i700: ; preds = %if.else.i691
  %sub.ptr.lhs.cast.i.i.i.i693 = ptrtoint ptr %139 to i64
  %sub.ptr.sub.i.i.i.i694 = sub i64 %sub.ptr.lhs.cast.i.i.i.i693, %sub.ptr.rhs.cast.i.i.i686
  %cmp3.not.i.i.i695 = icmp ult i64 %sub.ptr.sub.i.i.i.i694, 9223372036854775804
  %mul.i.i.i696 = lshr exact i64 %sub.ptr.sub.i.i.i.i694, 1
  %.sroa.speculated.i.i.i697 = tail call i64 @llvm.umax.i64(i64 %mul.i.i.i696, i64 %add.i.i689)
  %retval.0.i.i.i698 = select i1 %cmp3.not.i.i.i695, i64 %.sroa.speculated.i.i.i697, i64 4611686018427387903
  %cmp.i16.i.i699 = icmp eq i64 %retval.0.i.i.i698, 0
  br i1 %cmp.i16.i.i699, label %invoke.cont.i.i712, label %if.else.i.i.i702

if.else.i.i.i702:                                 ; preds = %_ZNKSt3__16vectorIiNS_9allocatorIiEEE11__recommendB7v170000Em.exit.i.i700
  %cmp.i.i.i.i.i701 = icmp ugt i64 %retval.0.i.i.i698, 4611686018427387903
  br i1 %cmp.i.i.i.i.i701, label %if.then.i.i.i.i.i703, label %_ZNSt3__119__allocate_at_leastB7v170000INS_9allocatorIiEEEENS_19__allocation_resultINS_16allocator_traitsIT_E7pointerEEERS5_m.exit.i.i.i706

if.then.i.i.i.i.i703:                             ; preds = %if.else.i.i.i702
  tail call void @_ZSt28__throw_bad_array_new_lengthB7v170000v() #24
  unreachable

_ZNSt3__119__allocate_at_leastB7v170000INS_9allocatorIiEEEENS_19__allocation_resultINS_16allocator_traitsIT_E7pointerEEERS5_m.exit.i.i.i706: ; preds = %if.else.i.i.i702
  %mul.i.i.i.i.i704 = shl nuw i64 %retval.0.i.i.i698, 2
  %call.i5.i.i.i.i.i.i705 = tail call noalias noundef nonnull ptr @_Znwm(i64 noundef %mul.i.i.i.i.i704) #25
  br label %invoke.cont.i.i712

invoke.cont.i.i712:                               ; preds = %_ZNSt3__119__allocate_at_leastB7v170000INS_9allocatorIiEEEENS_19__allocation_resultINS_16allocator_traitsIT_E7pointerEEERS5_m.exit.i.i.i706, %_ZNKSt3__16vectorIiNS_9allocatorIiEEE11__recommendB7v170000Em.exit.i.i700
  %storemerge.i.i.i707 = phi ptr [ %call.i5.i.i.i.i.i.i705, %_ZNSt3__119__allocate_at_leastB7v170000INS_9allocatorIiEEEENS_19__allocation_resultINS_16allocator_traitsIT_E7pointerEEERS5_m.exit.i.i.i706 ], [ null, %_ZNKSt3__16vectorIiNS_9allocatorIiEEE11__recommendB7v170000Em.exit.i.i700 ]
  %storemerge.i.i.i7072476 = ptrtoint ptr %storemerge.i.i.i707 to i64
  %add.ptr.i.i.i708 = getelementptr inbounds i32, ptr %storemerge.i.i.i707, i64 %sub.ptr.div.i.i.i688
  %add.ptr6.i.i.i709 = getelementptr inbounds i32, ptr %storemerge.i.i.i707, i64 %retval.0.i.i.i698
  store i32 4, ptr %add.ptr.i.i.i708, align 4, !tbaa !13
  %incdec.ptr.i4.i710 = getelementptr inbounds i32, ptr %add.ptr.i.i.i708, i64 1
  %cmp.i.not13.i.i.i.i.i.i.i.i.i711 = icmp eq ptr %138, %188
  br i1 %cmp.i.not13.i.i.i.i.i.i.i.i.i711, label %_ZNSt3__114__split_bufferIiRNS_9allocatorIiEEE5clearB7v170000Ev.exit.i.i.i721, label %while.body.i.i.i.i.i.i.i.i.i718.preheader

while.body.i.i.i.i.i.i.i.i.i718.preheader:        ; preds = %invoke.cont.i.i712
  %189 = add i64 %sub.ptr.lhs.cast.i.i.i685, -4
  %190 = sub i64 %189, %sub.ptr.rhs.cast.i.i.i686
  %191 = lshr i64 %190, 2
  %192 = add nuw nsw i64 %191, 1
  %min.iters.check2480 = icmp ult i64 %190, 76
  br i1 %min.iters.check2480, label %while.body.i.i.i.i.i.i.i.i.i718.preheader3291, label %vector.memcheck2475

vector.memcheck2475:                              ; preds = %while.body.i.i.i.i.i.i.i.i.i718.preheader
  %193 = add i64 %sub.ptr.lhs.cast.i.i.i685, -4
  %194 = add i64 %storemerge.i.i.i7072476, -4
  %195 = add i64 %194, %sub.ptr.sub.i.i.i687
  %196 = sub i64 %193, %195
  %diff.check2477 = icmp ult i64 %196, 32
  br i1 %diff.check2477, label %while.body.i.i.i.i.i.i.i.i.i718.preheader3291, label %vector.ph2481

vector.ph2481:                                    ; preds = %vector.memcheck2475
  %n.vec2483 = and i64 %192, -8
  %197 = mul i64 %n.vec2483, -4
  %ind.end2484 = getelementptr i8, ptr %add.ptr.i.i.i708, i64 %197
  %198 = mul i64 %n.vec2483, -4
  %ind.end2486 = getelementptr i8, ptr %138, i64 %198
  br label %vector.body2489

vector.body2489:                                  ; preds = %vector.body2489, %vector.ph2481
  %index2490 = phi i64 [ 0, %vector.ph2481 ], [ %index.next2501, %vector.body2489 ]
  %199 = mul i64 %index2490, -4
  %next.gep2491 = getelementptr i8, ptr %add.ptr.i.i.i708, i64 %199
  %200 = mul i64 %index2490, -4
  %next.gep2493 = getelementptr i8, ptr %138, i64 %200
  %201 = getelementptr inbounds i32, ptr %next.gep2493, i64 -1
  %202 = getelementptr inbounds i32, ptr %201, i64 -3
  %wide.load2495 = load <4 x i32>, ptr %202, align 4, !tbaa !13, !noalias !129
  %203 = getelementptr inbounds i32, ptr %201, i64 -4
  %204 = getelementptr inbounds i32, ptr %203, i64 -3
  %wide.load2497 = load <4 x i32>, ptr %204, align 4, !tbaa !13, !noalias !129
  %205 = getelementptr inbounds i32, ptr %next.gep2491, i64 -1
  %206 = getelementptr inbounds i32, ptr %205, i64 -3
  store <4 x i32> %wide.load2495, ptr %206, align 4, !tbaa !13, !noalias !129
  %207 = getelementptr inbounds i32, ptr %205, i64 -4
  %208 = getelementptr inbounds i32, ptr %207, i64 -3
  store <4 x i32> %wide.load2497, ptr %208, align 4, !tbaa !13, !noalias !129
  %index.next2501 = add nuw i64 %index2490, 8
  %209 = icmp eq i64 %index.next2501, %n.vec2483
  br i1 %209, label %middle.block2478, label %vector.body2489, !llvm.loop !138

middle.block2478:                                 ; preds = %vector.body2489
  %cmp.n2488 = icmp eq i64 %192, %n.vec2483
  br i1 %cmp.n2488, label %_ZNSt3__114__split_bufferIiRNS_9allocatorIiEEE5clearB7v170000Ev.exit.i.i.i721, label %while.body.i.i.i.i.i.i.i.i.i718.preheader3291

while.body.i.i.i.i.i.i.i.i.i718.preheader3291:    ; preds = %vector.memcheck2475, %while.body.i.i.i.i.i.i.i.i.i718.preheader, %middle.block2478
  %incdec.ptr.i15.i.i.i.i.i.i.i.i.i713.ph = phi ptr [ %add.ptr.i.i.i708, %vector.memcheck2475 ], [ %add.ptr.i.i.i708, %while.body.i.i.i.i.i.i.i.i.i718.preheader ], [ %ind.end2484, %middle.block2478 ]
  %__first.sroa.2.014.i.i.i.i.i.i.i.i.i714.ph = phi ptr [ %138, %vector.memcheck2475 ], [ %138, %while.body.i.i.i.i.i.i.i.i.i718.preheader ], [ %ind.end2486, %middle.block2478 ]
  br label %while.body.i.i.i.i.i.i.i.i.i718

while.body.i.i.i.i.i.i.i.i.i718:                  ; preds = %while.body.i.i.i.i.i.i.i.i.i718.preheader3291, %while.body.i.i.i.i.i.i.i.i.i718
  %incdec.ptr.i15.i.i.i.i.i.i.i.i.i713 = phi ptr [ %incdec.ptr.i.i.i.i.i.i.i.i.i.i716, %while.body.i.i.i.i.i.i.i.i.i718 ], [ %incdec.ptr.i15.i.i.i.i.i.i.i.i.i713.ph, %while.body.i.i.i.i.i.i.i.i.i718.preheader3291 ]
  %__first.sroa.2.014.i.i.i.i.i.i.i.i.i714 = phi ptr [ %incdec.ptr.i.i.i.i.i.i.i.i.i.i.i715, %while.body.i.i.i.i.i.i.i.i.i718 ], [ %__first.sroa.2.014.i.i.i.i.i.i.i.i.i714.ph, %while.body.i.i.i.i.i.i.i.i.i718.preheader3291 ]
  %incdec.ptr.i.i.i.i.i.i.i.i.i.i.i715 = getelementptr inbounds i32, ptr %__first.sroa.2.014.i.i.i.i.i.i.i.i.i714, i64 -1
  %210 = load i32, ptr %incdec.ptr.i.i.i.i.i.i.i.i.i.i.i715, align 4, !tbaa !13, !noalias !129
  %incdec.ptr.i.i.i.i.i.i.i.i.i.i716 = getelementptr inbounds i32, ptr %incdec.ptr.i15.i.i.i.i.i.i.i.i.i713, i64 -1
  store i32 %210, ptr %incdec.ptr.i.i.i.i.i.i.i.i.i.i716, align 4, !tbaa !13, !noalias !129
  %cmp.i.not.i.i.i.i.i.i.i.i.i717 = icmp eq ptr %incdec.ptr.i.i.i.i.i.i.i.i.i.i.i715, %188
  br i1 %cmp.i.not.i.i.i.i.i.i.i.i.i717, label %_ZNSt3__114__split_bufferIiRNS_9allocatorIiEEE5clearB7v170000Ev.exit.i.i.i721, label %while.body.i.i.i.i.i.i.i.i.i718, !llvm.loop !139

_ZNSt3__114__split_bufferIiRNS_9allocatorIiEEE5clearB7v170000Ev.exit.i.i.i721: ; preds = %while.body.i.i.i.i.i.i.i.i.i718, %middle.block2478, %invoke.cont.i.i712
  %storemerge.i.i719 = phi ptr [ %add.ptr.i.i.i708, %invoke.cont.i.i712 ], [ %ind.end2484, %middle.block2478 ], [ %incdec.ptr.i.i.i.i.i.i.i.i.i.i716, %while.body.i.i.i.i.i.i.i.i.i718 ]
  store ptr %storemerge.i.i719, ptr %zonesize, align 8, !tbaa !11
  store ptr %incdec.ptr.i4.i710, ptr %__end_.i680, align 8, !tbaa !11
  store ptr %add.ptr6.i.i.i709, ptr %__end_cap_.i.i.i447, align 8, !tbaa !11
  %tobool.not.i.i.i720 = icmp eq ptr %188, null
  br i1 %tobool.not.i.i.i720, label %_ZNSt3__16vectorIiNS_9allocatorIiEEE9push_backB7v170000EOi.exit723, label %if.then.i19.i.i722

if.then.i19.i.i722:                               ; preds = %_ZNSt3__114__split_bufferIiRNS_9allocatorIiEEE5clearB7v170000Ev.exit.i.i.i721
  tail call void @_ZdlPv(ptr noundef nonnull %188) #22
  br label %_ZNSt3__16vectorIiNS_9allocatorIiEEE9push_backB7v170000EOi.exit723

_ZNSt3__16vectorIiNS_9allocatorIiEEE9push_backB7v170000EOi.exit723: ; preds = %if.then.i684, %_ZNSt3__114__split_bufferIiRNS_9allocatorIiEEE5clearB7v170000Ev.exit.i.i.i721, %if.then.i19.i.i722
  %211 = load ptr, ptr %__end_.i562, align 8, !tbaa !54
  %212 = load ptr, ptr %__end_cap_.i.i.i477, align 8, !tbaa !11
  %cmp.not.i = icmp eq ptr %211, %212
  br i1 %cmp.not.i, label %if.else.i734, label %if.then.i727

if.then.i727:                                     ; preds = %_ZNSt3__16vectorIiNS_9allocatorIiEEE9push_backB7v170000EOi.exit723
  store i32 %spec.select, ptr %211, align 4, !tbaa !13
  %incdec.ptr.i.i726 = getelementptr inbounds i32, ptr %211, i64 1
  store ptr %incdec.ptr.i.i726, ptr %__end_.i562, align 8, !tbaa !54
  br label %_ZNSt3__16vectorIiNS_9allocatorIiEEE9push_backB7v170000ERKi.exit

if.else.i734:                                     ; preds = %_ZNSt3__16vectorIiNS_9allocatorIiEEE9push_backB7v170000EOi.exit723
  %213 = load ptr, ptr %zonepoints, align 8, !tbaa !50
  %sub.ptr.lhs.cast.i.i.i728 = ptrtoint ptr %211 to i64
  %sub.ptr.rhs.cast.i.i.i729 = ptrtoint ptr %213 to i64
  %sub.ptr.sub.i.i.i730 = sub i64 %sub.ptr.lhs.cast.i.i.i728, %sub.ptr.rhs.cast.i.i.i729
  %sub.ptr.div.i.i.i731 = ashr exact i64 %sub.ptr.sub.i.i.i730, 2
  %add.i.i732 = add nsw i64 %sub.ptr.div.i.i.i731, 1
  %cmp.i.i.i733 = icmp ugt i64 %add.i.i732, 4611686018427387903
  br i1 %cmp.i.i.i733, label %if.then.i.i.i735, label %_ZNKSt3__16vectorIiNS_9allocatorIiEEE11__recommendB7v170000Em.exit.i.i743

if.then.i.i.i735:                                 ; preds = %if.else.i734
  tail call void @_ZNKSt3__16vectorIiNS_9allocatorIiEEE20__throw_length_errorB7v170000Ev(ptr noundef nonnull align 8 dereferenceable(24) %zonepoints) #24
  unreachable

_ZNKSt3__16vectorIiNS_9allocatorIiEEE11__recommendB7v170000Em.exit.i.i743: ; preds = %if.else.i734
  %sub.ptr.lhs.cast.i.i.i.i736 = ptrtoint ptr %212 to i64
  %sub.ptr.sub.i.i.i.i737 = sub i64 %sub.ptr.lhs.cast.i.i.i.i736, %sub.ptr.rhs.cast.i.i.i729
  %cmp3.not.i.i.i738 = icmp ult i64 %sub.ptr.sub.i.i.i.i737, 9223372036854775804
  %mul.i.i.i739 = lshr exact i64 %sub.ptr.sub.i.i.i.i737, 1
  %.sroa.speculated.i.i.i740 = tail call i64 @llvm.umax.i64(i64 %mul.i.i.i739, i64 %add.i.i732)
  %retval.0.i.i.i741 = select i1 %cmp3.not.i.i.i738, i64 %.sroa.speculated.i.i.i740, i64 4611686018427387903
  %cmp.i16.i.i742 = icmp eq i64 %retval.0.i.i.i741, 0
  br i1 %cmp.i16.i.i742, label %invoke.cont.i.i755, label %if.else.i.i.i745

if.else.i.i.i745:                                 ; preds = %_ZNKSt3__16vectorIiNS_9allocatorIiEEE11__recommendB7v170000Em.exit.i.i743
  %cmp.i.i.i.i.i744 = icmp ugt i64 %retval.0.i.i.i741, 4611686018427387903
  br i1 %cmp.i.i.i.i.i744, label %if.then.i.i.i.i.i746, label %_ZNSt3__119__allocate_at_leastB7v170000INS_9allocatorIiEEEENS_19__allocation_resultINS_16allocator_traitsIT_E7pointerEEERS5_m.exit.i.i.i749

if.then.i.i.i.i.i746:                             ; preds = %if.else.i.i.i745
  tail call void @_ZSt28__throw_bad_array_new_lengthB7v170000v() #24
  unreachable

_ZNSt3__119__allocate_at_leastB7v170000INS_9allocatorIiEEEENS_19__allocation_resultINS_16allocator_traitsIT_E7pointerEEERS5_m.exit.i.i.i749: ; preds = %if.else.i.i.i745
  %mul.i.i.i.i.i747 = shl nuw i64 %retval.0.i.i.i741, 2
  %call.i5.i.i.i.i.i.i748 = tail call noalias noundef nonnull ptr @_Znwm(i64 noundef %mul.i.i.i.i.i747) #25
  br label %invoke.cont.i.i755

invoke.cont.i.i755:                               ; preds = %_ZNSt3__119__allocate_at_leastB7v170000INS_9allocatorIiEEEENS_19__allocation_resultINS_16allocator_traitsIT_E7pointerEEERS5_m.exit.i.i.i749, %_ZNKSt3__16vectorIiNS_9allocatorIiEEE11__recommendB7v170000Em.exit.i.i743
  %storemerge.i.i.i750 = phi ptr [ %call.i5.i.i.i.i.i.i748, %_ZNSt3__119__allocate_at_leastB7v170000INS_9allocatorIiEEEENS_19__allocation_resultINS_16allocator_traitsIT_E7pointerEEERS5_m.exit.i.i.i749 ], [ null, %_ZNKSt3__16vectorIiNS_9allocatorIiEEE11__recommendB7v170000Em.exit.i.i743 ]
  %storemerge.i.i.i7502449 = ptrtoint ptr %storemerge.i.i.i750 to i64
  %add.ptr.i.i.i751 = getelementptr inbounds i32, ptr %storemerge.i.i.i750, i64 %sub.ptr.div.i.i.i731
  %add.ptr6.i.i.i752 = getelementptr inbounds i32, ptr %storemerge.i.i.i750, i64 %retval.0.i.i.i741
  store i32 %spec.select, ptr %add.ptr.i.i.i751, align 4, !tbaa !13
  %incdec.ptr.i4.i753 = getelementptr inbounds i32, ptr %add.ptr.i.i.i751, i64 1
  %cmp.i.not13.i.i.i.i.i.i.i.i.i754 = icmp eq ptr %211, %213
  br i1 %cmp.i.not13.i.i.i.i.i.i.i.i.i754, label %_ZNSt3__114__split_bufferIiRNS_9allocatorIiEEE5clearB7v170000Ev.exit.i.i.i764, label %while.body.i.i.i.i.i.i.i.i.i761.preheader

while.body.i.i.i.i.i.i.i.i.i761.preheader:        ; preds = %invoke.cont.i.i755
  %214 = add i64 %sub.ptr.lhs.cast.i.i.i728, -4
  %215 = sub i64 %214, %sub.ptr.rhs.cast.i.i.i729
  %216 = lshr i64 %215, 2
  %217 = add nuw nsw i64 %216, 1
  %min.iters.check2453 = icmp ult i64 %215, 76
  br i1 %min.iters.check2453, label %while.body.i.i.i.i.i.i.i.i.i761.preheader3290, label %vector.memcheck2448

vector.memcheck2448:                              ; preds = %while.body.i.i.i.i.i.i.i.i.i761.preheader
  %218 = add i64 %sub.ptr.lhs.cast.i.i.i728, -4
  %219 = add i64 %storemerge.i.i.i7502449, -4
  %220 = add i64 %219, %sub.ptr.sub.i.i.i730
  %221 = sub i64 %218, %220
  %diff.check2450 = icmp ult i64 %221, 32
  br i1 %diff.check2450, label %while.body.i.i.i.i.i.i.i.i.i761.preheader3290, label %vector.ph2454

vector.ph2454:                                    ; preds = %vector.memcheck2448
  %n.vec2456 = and i64 %217, -8
  %222 = mul i64 %n.vec2456, -4
  %ind.end2457 = getelementptr i8, ptr %add.ptr.i.i.i751, i64 %222
  %223 = mul i64 %n.vec2456, -4
  %ind.end2459 = getelementptr i8, ptr %211, i64 %223
  br label %vector.body2462

vector.body2462:                                  ; preds = %vector.body2462, %vector.ph2454
  %index2463 = phi i64 [ 0, %vector.ph2454 ], [ %index.next2474, %vector.body2462 ]
  %224 = mul i64 %index2463, -4
  %next.gep2464 = getelementptr i8, ptr %add.ptr.i.i.i751, i64 %224
  %225 = mul i64 %index2463, -4
  %next.gep2466 = getelementptr i8, ptr %211, i64 %225
  %226 = getelementptr inbounds i32, ptr %next.gep2466, i64 -1
  %227 = getelementptr inbounds i32, ptr %226, i64 -3
  %wide.load2468 = load <4 x i32>, ptr %227, align 4, !tbaa !13, !noalias !140
  %228 = getelementptr inbounds i32, ptr %226, i64 -4
  %229 = getelementptr inbounds i32, ptr %228, i64 -3
  %wide.load2470 = load <4 x i32>, ptr %229, align 4, !tbaa !13, !noalias !140
  %230 = getelementptr inbounds i32, ptr %next.gep2464, i64 -1
  %231 = getelementptr inbounds i32, ptr %230, i64 -3
  store <4 x i32> %wide.load2468, ptr %231, align 4, !tbaa !13, !noalias !140
  %232 = getelementptr inbounds i32, ptr %230, i64 -4
  %233 = getelementptr inbounds i32, ptr %232, i64 -3
  store <4 x i32> %wide.load2470, ptr %233, align 4, !tbaa !13, !noalias !140
  %index.next2474 = add nuw i64 %index2463, 8
  %234 = icmp eq i64 %index.next2474, %n.vec2456
  br i1 %234, label %middle.block2451, label %vector.body2462, !llvm.loop !149

middle.block2451:                                 ; preds = %vector.body2462
  %cmp.n2461 = icmp eq i64 %217, %n.vec2456
  br i1 %cmp.n2461, label %_ZNSt3__114__split_bufferIiRNS_9allocatorIiEEE5clearB7v170000Ev.exit.i.i.i764, label %while.body.i.i.i.i.i.i.i.i.i761.preheader3290

while.body.i.i.i.i.i.i.i.i.i761.preheader3290:    ; preds = %vector.memcheck2448, %while.body.i.i.i.i.i.i.i.i.i761.preheader, %middle.block2451
  %incdec.ptr.i15.i.i.i.i.i.i.i.i.i756.ph = phi ptr [ %add.ptr.i.i.i751, %vector.memcheck2448 ], [ %add.ptr.i.i.i751, %while.body.i.i.i.i.i.i.i.i.i761.preheader ], [ %ind.end2457, %middle.block2451 ]
  %__first.sroa.2.014.i.i.i.i.i.i.i.i.i757.ph = phi ptr [ %211, %vector.memcheck2448 ], [ %211, %while.body.i.i.i.i.i.i.i.i.i761.preheader ], [ %ind.end2459, %middle.block2451 ]
  br label %while.body.i.i.i.i.i.i.i.i.i761

while.body.i.i.i.i.i.i.i.i.i761:                  ; preds = %while.body.i.i.i.i.i.i.i.i.i761.preheader3290, %while.body.i.i.i.i.i.i.i.i.i761
  %incdec.ptr.i15.i.i.i.i.i.i.i.i.i756 = phi ptr [ %incdec.ptr.i.i.i.i.i.i.i.i.i.i759, %while.body.i.i.i.i.i.i.i.i.i761 ], [ %incdec.ptr.i15.i.i.i.i.i.i.i.i.i756.ph, %while.body.i.i.i.i.i.i.i.i.i761.preheader3290 ]
  %__first.sroa.2.014.i.i.i.i.i.i.i.i.i757 = phi ptr [ %incdec.ptr.i.i.i.i.i.i.i.i.i.i.i758, %while.body.i.i.i.i.i.i.i.i.i761 ], [ %__first.sroa.2.014.i.i.i.i.i.i.i.i.i757.ph, %while.body.i.i.i.i.i.i.i.i.i761.preheader3290 ]
  %incdec.ptr.i.i.i.i.i.i.i.i.i.i.i758 = getelementptr inbounds i32, ptr %__first.sroa.2.014.i.i.i.i.i.i.i.i.i757, i64 -1
  %235 = load i32, ptr %incdec.ptr.i.i.i.i.i.i.i.i.i.i.i758, align 4, !tbaa !13, !noalias !140
  %incdec.ptr.i.i.i.i.i.i.i.i.i.i759 = getelementptr inbounds i32, ptr %incdec.ptr.i15.i.i.i.i.i.i.i.i.i756, i64 -1
  store i32 %235, ptr %incdec.ptr.i.i.i.i.i.i.i.i.i.i759, align 4, !tbaa !13, !noalias !140
  %cmp.i.not.i.i.i.i.i.i.i.i.i760 = icmp eq ptr %incdec.ptr.i.i.i.i.i.i.i.i.i.i.i758, %213
  br i1 %cmp.i.not.i.i.i.i.i.i.i.i.i760, label %_ZNSt3__114__split_bufferIiRNS_9allocatorIiEEE5clearB7v170000Ev.exit.i.i.i764, label %while.body.i.i.i.i.i.i.i.i.i761, !llvm.loop !150

_ZNSt3__114__split_bufferIiRNS_9allocatorIiEEE5clearB7v170000Ev.exit.i.i.i764: ; preds = %while.body.i.i.i.i.i.i.i.i.i761, %middle.block2451, %invoke.cont.i.i755
  %storemerge.i.i762 = phi ptr [ %add.ptr.i.i.i751, %invoke.cont.i.i755 ], [ %ind.end2457, %middle.block2451 ], [ %incdec.ptr.i.i.i.i.i.i.i.i.i.i759, %while.body.i.i.i.i.i.i.i.i.i761 ]
  store ptr %storemerge.i.i762, ptr %zonepoints, align 8, !tbaa !11
  store ptr %incdec.ptr.i4.i753, ptr %__end_.i562, align 8, !tbaa !11
  store ptr %add.ptr6.i.i.i752, ptr %__end_cap_.i.i.i477, align 8, !tbaa !11
  %tobool.not.i.i.i763 = icmp eq ptr %213, null
  br i1 %tobool.not.i.i.i763, label %_ZNSt3__16vectorIiNS_9allocatorIiEEE9push_backB7v170000ERKi.exit, label %if.then.i19.i.i765

if.then.i19.i.i765:                               ; preds = %_ZNSt3__114__split_bufferIiRNS_9allocatorIiEEE5clearB7v170000Ev.exit.i.i.i764
  tail call void @_ZdlPv(ptr noundef nonnull %213) #22
  %.pre2241 = load ptr, ptr %__end_.i562, align 8, !tbaa !54
  %.pre2242 = load ptr, ptr %__end_cap_.i.i.i477, align 8, !tbaa !11
  br label %_ZNSt3__16vectorIiNS_9allocatorIiEEE9push_backB7v170000ERKi.exit

_ZNSt3__16vectorIiNS_9allocatorIiEEE9push_backB7v170000ERKi.exit: ; preds = %if.then.i727, %_ZNSt3__114__split_bufferIiRNS_9allocatorIiEEE5clearB7v170000Ev.exit.i.i.i764, %if.then.i19.i.i765
  %236 = phi ptr [ %212, %if.then.i727 ], [ %add.ptr6.i.i.i752, %_ZNSt3__114__split_bufferIiRNS_9allocatorIiEEE5clearB7v170000Ev.exit.i.i.i764 ], [ %.pre2242, %if.then.i19.i.i765 ]
  %237 = phi ptr [ %incdec.ptr.i.i726, %if.then.i727 ], [ %incdec.ptr.i4.i753, %_ZNSt3__114__split_bufferIiRNS_9allocatorIiEEE5clearB7v170000Ev.exit.i.i.i764 ], [ %.pre2241, %if.then.i19.i.i765 ]
  %add73 = add nsw i32 %spec.select, 1
  %cmp.i768 = icmp ult ptr %237, %236
  br i1 %cmp.i768, label %if.then.i770, label %if.else.i777

if.then.i770:                                     ; preds = %_ZNSt3__16vectorIiNS_9allocatorIiEEE9push_backB7v170000ERKi.exit
  store i32 %add73, ptr %237, align 4, !tbaa !13
  %incdec.ptr.i.i769 = getelementptr inbounds i32, ptr %237, i64 1
  store ptr %incdec.ptr.i.i769, ptr %__end_.i562, align 8, !tbaa !54
  br label %if.end74

if.else.i777:                                     ; preds = %_ZNSt3__16vectorIiNS_9allocatorIiEEE9push_backB7v170000ERKi.exit
  %238 = load ptr, ptr %zonepoints, align 8, !tbaa !50
  %sub.ptr.lhs.cast.i.i.i771 = ptrtoint ptr %237 to i64
  %sub.ptr.rhs.cast.i.i.i772 = ptrtoint ptr %238 to i64
  %sub.ptr.sub.i.i.i773 = sub i64 %sub.ptr.lhs.cast.i.i.i771, %sub.ptr.rhs.cast.i.i.i772
  %sub.ptr.div.i.i.i774 = ashr exact i64 %sub.ptr.sub.i.i.i773, 2
  %add.i.i775 = add nsw i64 %sub.ptr.div.i.i.i774, 1
  %cmp.i.i.i776 = icmp ugt i64 %add.i.i775, 4611686018427387903
  br i1 %cmp.i.i.i776, label %if.then.i.i.i778, label %_ZNKSt3__16vectorIiNS_9allocatorIiEEE11__recommendB7v170000Em.exit.i.i786

if.then.i.i.i778:                                 ; preds = %if.else.i777
  tail call void @_ZNKSt3__16vectorIiNS_9allocatorIiEEE20__throw_length_errorB7v170000Ev(ptr noundef nonnull align 8 dereferenceable(24) %zonepoints) #24
  unreachable

_ZNKSt3__16vectorIiNS_9allocatorIiEEE11__recommendB7v170000Em.exit.i.i786: ; preds = %if.else.i777
  %sub.ptr.lhs.cast.i.i.i.i779 = ptrtoint ptr %236 to i64
  %sub.ptr.sub.i.i.i.i780 = sub i64 %sub.ptr.lhs.cast.i.i.i.i779, %sub.ptr.rhs.cast.i.i.i772
  %cmp3.not.i.i.i781 = icmp ult i64 %sub.ptr.sub.i.i.i.i780, 9223372036854775804
  %mul.i.i.i782 = lshr exact i64 %sub.ptr.sub.i.i.i.i780, 1
  %.sroa.speculated.i.i.i783 = tail call i64 @llvm.umax.i64(i64 %mul.i.i.i782, i64 %add.i.i775)
  %retval.0.i.i.i784 = select i1 %cmp3.not.i.i.i781, i64 %.sroa.speculated.i.i.i783, i64 4611686018427387903
  %cmp.i16.i.i785 = icmp eq i64 %retval.0.i.i.i784, 0
  br i1 %cmp.i16.i.i785, label %invoke.cont.i.i798, label %if.else.i.i.i788

if.else.i.i.i788:                                 ; preds = %_ZNKSt3__16vectorIiNS_9allocatorIiEEE11__recommendB7v170000Em.exit.i.i786
  %cmp.i.i.i.i.i787 = icmp ugt i64 %retval.0.i.i.i784, 4611686018427387903
  br i1 %cmp.i.i.i.i.i787, label %if.then.i.i.i.i.i789, label %_ZNSt3__119__allocate_at_leastB7v170000INS_9allocatorIiEEEENS_19__allocation_resultINS_16allocator_traitsIT_E7pointerEEERS5_m.exit.i.i.i792

if.then.i.i.i.i.i789:                             ; preds = %if.else.i.i.i788
  tail call void @_ZSt28__throw_bad_array_new_lengthB7v170000v() #24
  unreachable

_ZNSt3__119__allocate_at_leastB7v170000INS_9allocatorIiEEEENS_19__allocation_resultINS_16allocator_traitsIT_E7pointerEEERS5_m.exit.i.i.i792: ; preds = %if.else.i.i.i788
  %mul.i.i.i.i.i790 = shl nuw i64 %retval.0.i.i.i784, 2
  %call.i5.i.i.i.i.i.i791 = tail call noalias noundef nonnull ptr @_Znwm(i64 noundef %mul.i.i.i.i.i790) #25
  br label %invoke.cont.i.i798

invoke.cont.i.i798:                               ; preds = %_ZNSt3__119__allocate_at_leastB7v170000INS_9allocatorIiEEEENS_19__allocation_resultINS_16allocator_traitsIT_E7pointerEEERS5_m.exit.i.i.i792, %_ZNKSt3__16vectorIiNS_9allocatorIiEEE11__recommendB7v170000Em.exit.i.i786
  %storemerge.i.i.i793 = phi ptr [ %call.i5.i.i.i.i.i.i791, %_ZNSt3__119__allocate_at_leastB7v170000INS_9allocatorIiEEEENS_19__allocation_resultINS_16allocator_traitsIT_E7pointerEEERS5_m.exit.i.i.i792 ], [ null, %_ZNKSt3__16vectorIiNS_9allocatorIiEEE11__recommendB7v170000Em.exit.i.i786 ]
  %storemerge.i.i.i7932422 = ptrtoint ptr %storemerge.i.i.i793 to i64
  %add.ptr.i.i.i794 = getelementptr inbounds i32, ptr %storemerge.i.i.i793, i64 %sub.ptr.div.i.i.i774
  %add.ptr6.i.i.i795 = getelementptr inbounds i32, ptr %storemerge.i.i.i793, i64 %retval.0.i.i.i784
  store i32 %add73, ptr %add.ptr.i.i.i794, align 4, !tbaa !13
  %incdec.ptr.i4.i796 = getelementptr inbounds i32, ptr %add.ptr.i.i.i794, i64 1
  %cmp.i.not13.i.i.i.i.i.i.i.i.i797 = icmp eq ptr %237, %238
  br i1 %cmp.i.not13.i.i.i.i.i.i.i.i.i797, label %_ZNSt3__114__split_bufferIiRNS_9allocatorIiEEE5clearB7v170000Ev.exit.i.i.i807, label %while.body.i.i.i.i.i.i.i.i.i804.preheader

while.body.i.i.i.i.i.i.i.i.i804.preheader:        ; preds = %invoke.cont.i.i798
  %239 = add i64 %sub.ptr.lhs.cast.i.i.i771, -4
  %240 = sub i64 %239, %sub.ptr.rhs.cast.i.i.i772
  %241 = lshr i64 %240, 2
  %242 = add nuw nsw i64 %241, 1
  %min.iters.check2426 = icmp ult i64 %240, 76
  br i1 %min.iters.check2426, label %while.body.i.i.i.i.i.i.i.i.i804.preheader3289, label %vector.memcheck2421

vector.memcheck2421:                              ; preds = %while.body.i.i.i.i.i.i.i.i.i804.preheader
  %243 = add i64 %sub.ptr.lhs.cast.i.i.i771, -4
  %244 = add i64 %storemerge.i.i.i7932422, -4
  %245 = add i64 %244, %sub.ptr.sub.i.i.i773
  %246 = sub i64 %243, %245
  %diff.check2423 = icmp ult i64 %246, 32
  br i1 %diff.check2423, label %while.body.i.i.i.i.i.i.i.i.i804.preheader3289, label %vector.ph2427

vector.ph2427:                                    ; preds = %vector.memcheck2421
  %n.vec2429 = and i64 %242, -8
  %247 = mul i64 %n.vec2429, -4
  %ind.end2430 = getelementptr i8, ptr %add.ptr.i.i.i794, i64 %247
  %248 = mul i64 %n.vec2429, -4
  %ind.end2432 = getelementptr i8, ptr %237, i64 %248
  br label %vector.body2435

vector.body2435:                                  ; preds = %vector.body2435, %vector.ph2427
  %index2436 = phi i64 [ 0, %vector.ph2427 ], [ %index.next2447, %vector.body2435 ]
  %249 = mul i64 %index2436, -4
  %next.gep2437 = getelementptr i8, ptr %add.ptr.i.i.i794, i64 %249
  %250 = mul i64 %index2436, -4
  %next.gep2439 = getelementptr i8, ptr %237, i64 %250
  %251 = getelementptr inbounds i32, ptr %next.gep2439, i64 -1
  %252 = getelementptr inbounds i32, ptr %251, i64 -3
  %wide.load2441 = load <4 x i32>, ptr %252, align 4, !tbaa !13, !noalias !151
  %253 = getelementptr inbounds i32, ptr %251, i64 -4
  %254 = getelementptr inbounds i32, ptr %253, i64 -3
  %wide.load2443 = load <4 x i32>, ptr %254, align 4, !tbaa !13, !noalias !151
  %255 = getelementptr inbounds i32, ptr %next.gep2437, i64 -1
  %256 = getelementptr inbounds i32, ptr %255, i64 -3
  store <4 x i32> %wide.load2441, ptr %256, align 4, !tbaa !13, !noalias !151
  %257 = getelementptr inbounds i32, ptr %255, i64 -4
  %258 = getelementptr inbounds i32, ptr %257, i64 -3
  store <4 x i32> %wide.load2443, ptr %258, align 4, !tbaa !13, !noalias !151
  %index.next2447 = add nuw i64 %index2436, 8
  %259 = icmp eq i64 %index.next2447, %n.vec2429
  br i1 %259, label %middle.block2424, label %vector.body2435, !llvm.loop !160

middle.block2424:                                 ; preds = %vector.body2435
  %cmp.n2434 = icmp eq i64 %242, %n.vec2429
  br i1 %cmp.n2434, label %_ZNSt3__114__split_bufferIiRNS_9allocatorIiEEE5clearB7v170000Ev.exit.i.i.i807, label %while.body.i.i.i.i.i.i.i.i.i804.preheader3289

while.body.i.i.i.i.i.i.i.i.i804.preheader3289:    ; preds = %vector.memcheck2421, %while.body.i.i.i.i.i.i.i.i.i804.preheader, %middle.block2424
  %incdec.ptr.i15.i.i.i.i.i.i.i.i.i799.ph = phi ptr [ %add.ptr.i.i.i794, %vector.memcheck2421 ], [ %add.ptr.i.i.i794, %while.body.i.i.i.i.i.i.i.i.i804.preheader ], [ %ind.end2430, %middle.block2424 ]
  %__first.sroa.2.014.i.i.i.i.i.i.i.i.i800.ph = phi ptr [ %237, %vector.memcheck2421 ], [ %237, %while.body.i.i.i.i.i.i.i.i.i804.preheader ], [ %ind.end2432, %middle.block2424 ]
  br label %while.body.i.i.i.i.i.i.i.i.i804

while.body.i.i.i.i.i.i.i.i.i804:                  ; preds = %while.body.i.i.i.i.i.i.i.i.i804.preheader3289, %while.body.i.i.i.i.i.i.i.i.i804
  %incdec.ptr.i15.i.i.i.i.i.i.i.i.i799 = phi ptr [ %incdec.ptr.i.i.i.i.i.i.i.i.i.i802, %while.body.i.i.i.i.i.i.i.i.i804 ], [ %incdec.ptr.i15.i.i.i.i.i.i.i.i.i799.ph, %while.body.i.i.i.i.i.i.i.i.i804.preheader3289 ]
  %__first.sroa.2.014.i.i.i.i.i.i.i.i.i800 = phi ptr [ %incdec.ptr.i.i.i.i.i.i.i.i.i.i.i801, %while.body.i.i.i.i.i.i.i.i.i804 ], [ %__first.sroa.2.014.i.i.i.i.i.i.i.i.i800.ph, %while.body.i.i.i.i.i.i.i.i.i804.preheader3289 ]
  %incdec.ptr.i.i.i.i.i.i.i.i.i.i.i801 = getelementptr inbounds i32, ptr %__first.sroa.2.014.i.i.i.i.i.i.i.i.i800, i64 -1
  %260 = load i32, ptr %incdec.ptr.i.i.i.i.i.i.i.i.i.i.i801, align 4, !tbaa !13, !noalias !151
  %incdec.ptr.i.i.i.i.i.i.i.i.i.i802 = getelementptr inbounds i32, ptr %incdec.ptr.i15.i.i.i.i.i.i.i.i.i799, i64 -1
  store i32 %260, ptr %incdec.ptr.i.i.i.i.i.i.i.i.i.i802, align 4, !tbaa !13, !noalias !151
  %cmp.i.not.i.i.i.i.i.i.i.i.i803 = icmp eq ptr %incdec.ptr.i.i.i.i.i.i.i.i.i.i.i801, %238
  br i1 %cmp.i.not.i.i.i.i.i.i.i.i.i803, label %_ZNSt3__114__split_bufferIiRNS_9allocatorIiEEE5clearB7v170000Ev.exit.i.i.i807, label %while.body.i.i.i.i.i.i.i.i.i804, !llvm.loop !161

_ZNSt3__114__split_bufferIiRNS_9allocatorIiEEE5clearB7v170000Ev.exit.i.i.i807: ; preds = %while.body.i.i.i.i.i.i.i.i.i804, %middle.block2424, %invoke.cont.i.i798
  %storemerge.i.i805 = phi ptr [ %add.ptr.i.i.i794, %invoke.cont.i.i798 ], [ %ind.end2430, %middle.block2424 ], [ %incdec.ptr.i.i.i.i.i.i.i.i.i.i802, %while.body.i.i.i.i.i.i.i.i.i804 ]
  store ptr %storemerge.i.i805, ptr %zonepoints, align 8, !tbaa !11
  store ptr %incdec.ptr.i4.i796, ptr %__end_.i562, align 8, !tbaa !11
  store ptr %add.ptr6.i.i.i795, ptr %__end_cap_.i.i.i477, align 8, !tbaa !11
  %tobool.not.i.i.i806 = icmp eq ptr %238, null
  br i1 %tobool.not.i.i.i806, label %if.end74, label %if.then.i19.i.i808

if.then.i19.i.i808:                               ; preds = %_ZNSt3__114__split_bufferIiRNS_9allocatorIiEEE5clearB7v170000Ev.exit.i.i.i807
  tail call void @_ZdlPv(ptr noundef nonnull %238) #22
  br label %if.end74

if.end74:                                         ; preds = %if.then.i19.i.i808, %_ZNSt3__114__split_bufferIiRNS_9allocatorIiEEE5clearB7v170000Ev.exit.i.i.i807, %if.then.i770, %if.then.i19.i.i678, %_ZNSt3__114__split_bufferIiRNS_9allocatorIiEEE5clearB7v170000Ev.exit.i.i.i677, %if.then.i640
  %add76 = add nsw i32 %spec.select, %add
  %add77 = add nsw i32 %add76, 1
  %261 = load ptr, ptr %__end_.i562, align 8, !tbaa !54
  %262 = load ptr, ptr %__end_cap_.i.i.i477, align 8, !tbaa !11
  %cmp.i812 = icmp ult ptr %261, %262
  br i1 %cmp.i812, label %if.then.i814, label %if.else.i821

if.then.i814:                                     ; preds = %if.end74
  store i32 %add77, ptr %261, align 4, !tbaa !13
  %incdec.ptr.i.i813 = getelementptr inbounds i32, ptr %261, i64 1
  store ptr %incdec.ptr.i.i813, ptr %__end_.i562, align 8, !tbaa !54
  br label %_ZNSt3__16vectorIiNS_9allocatorIiEEE9push_backB7v170000EOi.exit853

if.else.i821:                                     ; preds = %if.end74
  %263 = load ptr, ptr %zonepoints, align 8, !tbaa !50
  %sub.ptr.lhs.cast.i.i.i815 = ptrtoint ptr %261 to i64
  %sub.ptr.rhs.cast.i.i.i816 = ptrtoint ptr %263 to i64
  %sub.ptr.sub.i.i.i817 = sub i64 %sub.ptr.lhs.cast.i.i.i815, %sub.ptr.rhs.cast.i.i.i816
  %sub.ptr.div.i.i.i818 = ashr exact i64 %sub.ptr.sub.i.i.i817, 2
  %add.i.i819 = add nsw i64 %sub.ptr.div.i.i.i818, 1
  %cmp.i.i.i820 = icmp ugt i64 %add.i.i819, 4611686018427387903
  br i1 %cmp.i.i.i820, label %if.then.i.i.i822, label %_ZNKSt3__16vectorIiNS_9allocatorIiEEE11__recommendB7v170000Em.exit.i.i830

if.then.i.i.i822:                                 ; preds = %if.else.i821
  tail call void @_ZNKSt3__16vectorIiNS_9allocatorIiEEE20__throw_length_errorB7v170000Ev(ptr noundef nonnull align 8 dereferenceable(24) %zonepoints) #24
  unreachable

_ZNKSt3__16vectorIiNS_9allocatorIiEEE11__recommendB7v170000Em.exit.i.i830: ; preds = %if.else.i821
  %sub.ptr.lhs.cast.i.i.i.i823 = ptrtoint ptr %262 to i64
  %sub.ptr.sub.i.i.i.i824 = sub i64 %sub.ptr.lhs.cast.i.i.i.i823, %sub.ptr.rhs.cast.i.i.i816
  %cmp3.not.i.i.i825 = icmp ult i64 %sub.ptr.sub.i.i.i.i824, 9223372036854775804
  %mul.i.i.i826 = lshr exact i64 %sub.ptr.sub.i.i.i.i824, 1
  %.sroa.speculated.i.i.i827 = tail call i64 @llvm.umax.i64(i64 %mul.i.i.i826, i64 %add.i.i819)
  %retval.0.i.i.i828 = select i1 %cmp3.not.i.i.i825, i64 %.sroa.speculated.i.i.i827, i64 4611686018427387903
  %cmp.i16.i.i829 = icmp eq i64 %retval.0.i.i.i828, 0
  br i1 %cmp.i16.i.i829, label %invoke.cont.i.i842, label %if.else.i.i.i832

if.else.i.i.i832:                                 ; preds = %_ZNKSt3__16vectorIiNS_9allocatorIiEEE11__recommendB7v170000Em.exit.i.i830
  %cmp.i.i.i.i.i831 = icmp ugt i64 %retval.0.i.i.i828, 4611686018427387903
  br i1 %cmp.i.i.i.i.i831, label %if.then.i.i.i.i.i833, label %_ZNSt3__119__allocate_at_leastB7v170000INS_9allocatorIiEEEENS_19__allocation_resultINS_16allocator_traitsIT_E7pointerEEERS5_m.exit.i.i.i836

if.then.i.i.i.i.i833:                             ; preds = %if.else.i.i.i832
  tail call void @_ZSt28__throw_bad_array_new_lengthB7v170000v() #24
  unreachable

_ZNSt3__119__allocate_at_leastB7v170000INS_9allocatorIiEEEENS_19__allocation_resultINS_16allocator_traitsIT_E7pointerEEERS5_m.exit.i.i.i836: ; preds = %if.else.i.i.i832
  %mul.i.i.i.i.i834 = shl nuw i64 %retval.0.i.i.i828, 2
  %call.i5.i.i.i.i.i.i835 = tail call noalias noundef nonnull ptr @_Znwm(i64 noundef %mul.i.i.i.i.i834) #25
  br label %invoke.cont.i.i842

invoke.cont.i.i842:                               ; preds = %_ZNSt3__119__allocate_at_leastB7v170000INS_9allocatorIiEEEENS_19__allocation_resultINS_16allocator_traitsIT_E7pointerEEERS5_m.exit.i.i.i836, %_ZNKSt3__16vectorIiNS_9allocatorIiEEE11__recommendB7v170000Em.exit.i.i830
  %storemerge.i.i.i837 = phi ptr [ %call.i5.i.i.i.i.i.i835, %_ZNSt3__119__allocate_at_leastB7v170000INS_9allocatorIiEEEENS_19__allocation_resultINS_16allocator_traitsIT_E7pointerEEERS5_m.exit.i.i.i836 ], [ null, %_ZNKSt3__16vectorIiNS_9allocatorIiEEE11__recommendB7v170000Em.exit.i.i830 ]
  %storemerge.i.i.i8372341 = ptrtoint ptr %storemerge.i.i.i837 to i64
  %add.ptr.i.i.i838 = getelementptr inbounds i32, ptr %storemerge.i.i.i837, i64 %sub.ptr.div.i.i.i818
  %add.ptr6.i.i.i839 = getelementptr inbounds i32, ptr %storemerge.i.i.i837, i64 %retval.0.i.i.i828
  store i32 %add77, ptr %add.ptr.i.i.i838, align 4, !tbaa !13
  %incdec.ptr.i4.i840 = getelementptr inbounds i32, ptr %add.ptr.i.i.i838, i64 1
  %cmp.i.not13.i.i.i.i.i.i.i.i.i841 = icmp eq ptr %261, %263
  br i1 %cmp.i.not13.i.i.i.i.i.i.i.i.i841, label %_ZNSt3__114__split_bufferIiRNS_9allocatorIiEEE5clearB7v170000Ev.exit.i.i.i851, label %while.body.i.i.i.i.i.i.i.i.i848.preheader

while.body.i.i.i.i.i.i.i.i.i848.preheader:        ; preds = %invoke.cont.i.i842
  %264 = add i64 %sub.ptr.lhs.cast.i.i.i815, -4
  %265 = sub i64 %264, %sub.ptr.rhs.cast.i.i.i816
  %266 = lshr i64 %265, 2
  %267 = add nuw nsw i64 %266, 1
  %min.iters.check2345 = icmp ult i64 %265, 76
  br i1 %min.iters.check2345, label %while.body.i.i.i.i.i.i.i.i.i848.preheader3286, label %vector.memcheck2340

vector.memcheck2340:                              ; preds = %while.body.i.i.i.i.i.i.i.i.i848.preheader
  %268 = add i64 %sub.ptr.lhs.cast.i.i.i815, -4
  %269 = add i64 %storemerge.i.i.i8372341, -4
  %270 = add i64 %269, %sub.ptr.sub.i.i.i817
  %271 = sub i64 %268, %270
  %diff.check2342 = icmp ult i64 %271, 32
  br i1 %diff.check2342, label %while.body.i.i.i.i.i.i.i.i.i848.preheader3286, label %vector.ph2346

vector.ph2346:                                    ; preds = %vector.memcheck2340
  %n.vec2348 = and i64 %267, -8
  %272 = mul i64 %n.vec2348, -4
  %ind.end2349 = getelementptr i8, ptr %add.ptr.i.i.i838, i64 %272
  %273 = mul i64 %n.vec2348, -4
  %ind.end2351 = getelementptr i8, ptr %261, i64 %273
  br label %vector.body2354

vector.body2354:                                  ; preds = %vector.body2354, %vector.ph2346
  %index2355 = phi i64 [ 0, %vector.ph2346 ], [ %index.next2366, %vector.body2354 ]
  %274 = mul i64 %index2355, -4
  %next.gep2356 = getelementptr i8, ptr %add.ptr.i.i.i838, i64 %274
  %275 = mul i64 %index2355, -4
  %next.gep2358 = getelementptr i8, ptr %261, i64 %275
  %276 = getelementptr inbounds i32, ptr %next.gep2358, i64 -1
  %277 = getelementptr inbounds i32, ptr %276, i64 -3
  %wide.load2360 = load <4 x i32>, ptr %277, align 4, !tbaa !13, !noalias !162
  %278 = getelementptr inbounds i32, ptr %276, i64 -4
  %279 = getelementptr inbounds i32, ptr %278, i64 -3
  %wide.load2362 = load <4 x i32>, ptr %279, align 4, !tbaa !13, !noalias !162
  %280 = getelementptr inbounds i32, ptr %next.gep2356, i64 -1
  %281 = getelementptr inbounds i32, ptr %280, i64 -3
  store <4 x i32> %wide.load2360, ptr %281, align 4, !tbaa !13, !noalias !162
  %282 = getelementptr inbounds i32, ptr %280, i64 -4
  %283 = getelementptr inbounds i32, ptr %282, i64 -3
  store <4 x i32> %wide.load2362, ptr %283, align 4, !tbaa !13, !noalias !162
  %index.next2366 = add nuw i64 %index2355, 8
  %284 = icmp eq i64 %index.next2366, %n.vec2348
  br i1 %284, label %middle.block2343, label %vector.body2354, !llvm.loop !171

middle.block2343:                                 ; preds = %vector.body2354
  %cmp.n2353 = icmp eq i64 %267, %n.vec2348
  br i1 %cmp.n2353, label %_ZNSt3__114__split_bufferIiRNS_9allocatorIiEEE5clearB7v170000Ev.exit.i.i.i851, label %while.body.i.i.i.i.i.i.i.i.i848.preheader3286

while.body.i.i.i.i.i.i.i.i.i848.preheader3286:    ; preds = %vector.memcheck2340, %while.body.i.i.i.i.i.i.i.i.i848.preheader, %middle.block2343
  %incdec.ptr.i15.i.i.i.i.i.i.i.i.i843.ph = phi ptr [ %add.ptr.i.i.i838, %vector.memcheck2340 ], [ %add.ptr.i.i.i838, %while.body.i.i.i.i.i.i.i.i.i848.preheader ], [ %ind.end2349, %middle.block2343 ]
  %__first.sroa.2.014.i.i.i.i.i.i.i.i.i844.ph = phi ptr [ %261, %vector.memcheck2340 ], [ %261, %while.body.i.i.i.i.i.i.i.i.i848.preheader ], [ %ind.end2351, %middle.block2343 ]
  br label %while.body.i.i.i.i.i.i.i.i.i848

while.body.i.i.i.i.i.i.i.i.i848:                  ; preds = %while.body.i.i.i.i.i.i.i.i.i848.preheader3286, %while.body.i.i.i.i.i.i.i.i.i848
  %incdec.ptr.i15.i.i.i.i.i.i.i.i.i843 = phi ptr [ %incdec.ptr.i.i.i.i.i.i.i.i.i.i846, %while.body.i.i.i.i.i.i.i.i.i848 ], [ %incdec.ptr.i15.i.i.i.i.i.i.i.i.i843.ph, %while.body.i.i.i.i.i.i.i.i.i848.preheader3286 ]
  %__first.sroa.2.014.i.i.i.i.i.i.i.i.i844 = phi ptr [ %incdec.ptr.i.i.i.i.i.i.i.i.i.i.i845, %while.body.i.i.i.i.i.i.i.i.i848 ], [ %__first.sroa.2.014.i.i.i.i.i.i.i.i.i844.ph, %while.body.i.i.i.i.i.i.i.i.i848.preheader3286 ]
  %incdec.ptr.i.i.i.i.i.i.i.i.i.i.i845 = getelementptr inbounds i32, ptr %__first.sroa.2.014.i.i.i.i.i.i.i.i.i844, i64 -1
  %285 = load i32, ptr %incdec.ptr.i.i.i.i.i.i.i.i.i.i.i845, align 4, !tbaa !13, !noalias !162
  %incdec.ptr.i.i.i.i.i.i.i.i.i.i846 = getelementptr inbounds i32, ptr %incdec.ptr.i15.i.i.i.i.i.i.i.i.i843, i64 -1
  store i32 %285, ptr %incdec.ptr.i.i.i.i.i.i.i.i.i.i846, align 4, !tbaa !13, !noalias !162
  %cmp.i.not.i.i.i.i.i.i.i.i.i847 = icmp eq ptr %incdec.ptr.i.i.i.i.i.i.i.i.i.i.i845, %263
  br i1 %cmp.i.not.i.i.i.i.i.i.i.i.i847, label %_ZNSt3__114__split_bufferIiRNS_9allocatorIiEEE5clearB7v170000Ev.exit.i.i.i851, label %while.body.i.i.i.i.i.i.i.i.i848, !llvm.loop !172

_ZNSt3__114__split_bufferIiRNS_9allocatorIiEEE5clearB7v170000Ev.exit.i.i.i851: ; preds = %while.body.i.i.i.i.i.i.i.i.i848, %middle.block2343, %invoke.cont.i.i842
  %storemerge.i.i849 = phi ptr [ %add.ptr.i.i.i838, %invoke.cont.i.i842 ], [ %ind.end2349, %middle.block2343 ], [ %incdec.ptr.i.i.i.i.i.i.i.i.i.i846, %while.body.i.i.i.i.i.i.i.i.i848 ]
  store ptr %storemerge.i.i849, ptr %zonepoints, align 8, !tbaa !11
  store ptr %incdec.ptr.i4.i840, ptr %__end_.i562, align 8, !tbaa !11
  store ptr %add.ptr6.i.i.i839, ptr %__end_cap_.i.i.i477, align 8, !tbaa !11
  %tobool.not.i.i.i850 = icmp eq ptr %263, null
  br i1 %tobool.not.i.i.i850, label %_ZNSt3__16vectorIiNS_9allocatorIiEEE9push_backB7v170000EOi.exit853, label %if.then.i19.i.i852

if.then.i19.i.i852:                               ; preds = %_ZNSt3__114__split_bufferIiRNS_9allocatorIiEEE5clearB7v170000Ev.exit.i.i.i851
  tail call void @_ZdlPv(ptr noundef nonnull %263) #22
  %.pre2243 = load ptr, ptr %__end_.i562, align 8, !tbaa !54
  %.pre2244 = load ptr, ptr %__end_cap_.i.i.i477, align 8, !tbaa !11
  br label %_ZNSt3__16vectorIiNS_9allocatorIiEEE9push_backB7v170000EOi.exit853

_ZNSt3__16vectorIiNS_9allocatorIiEEE9push_backB7v170000EOi.exit853: ; preds = %if.then.i814, %_ZNSt3__114__split_bufferIiRNS_9allocatorIiEEE5clearB7v170000Ev.exit.i.i.i851, %if.then.i19.i.i852
  %286 = phi ptr [ %262, %if.then.i814 ], [ %add.ptr6.i.i.i839, %_ZNSt3__114__split_bufferIiRNS_9allocatorIiEEE5clearB7v170000Ev.exit.i.i.i851 ], [ %.pre2244, %if.then.i19.i.i852 ]
  %287 = phi ptr [ %incdec.ptr.i.i813, %if.then.i814 ], [ %incdec.ptr.i4.i840, %_ZNSt3__114__split_bufferIiRNS_9allocatorIiEEE5clearB7v170000Ev.exit.i.i.i851 ], [ %.pre2243, %if.then.i19.i.i852 ]
  %cmp.i856 = icmp ult ptr %287, %286
  br i1 %cmp.i856, label %if.then.i858, label %if.else.i865

if.then.i858:                                     ; preds = %_ZNSt3__16vectorIiNS_9allocatorIiEEE9push_backB7v170000EOi.exit853
  store i32 %add76, ptr %287, align 4, !tbaa !13
  %incdec.ptr.i.i857 = getelementptr inbounds i32, ptr %287, i64 1
  store ptr %incdec.ptr.i.i857, ptr %__end_.i562, align 8, !tbaa !54
  br label %_ZNSt3__16vectorIiNS_9allocatorIiEEE9push_backB7v170000EOi.exit897

if.else.i865:                                     ; preds = %_ZNSt3__16vectorIiNS_9allocatorIiEEE9push_backB7v170000EOi.exit853
  %288 = load ptr, ptr %zonepoints, align 8, !tbaa !50
  %sub.ptr.lhs.cast.i.i.i859 = ptrtoint ptr %287 to i64
  %sub.ptr.rhs.cast.i.i.i860 = ptrtoint ptr %288 to i64
  %sub.ptr.sub.i.i.i861 = sub i64 %sub.ptr.lhs.cast.i.i.i859, %sub.ptr.rhs.cast.i.i.i860
  %sub.ptr.div.i.i.i862 = ashr exact i64 %sub.ptr.sub.i.i.i861, 2
  %add.i.i863 = add nsw i64 %sub.ptr.div.i.i.i862, 1
  %cmp.i.i.i864 = icmp ugt i64 %add.i.i863, 4611686018427387903
  br i1 %cmp.i.i.i864, label %if.then.i.i.i866, label %_ZNKSt3__16vectorIiNS_9allocatorIiEEE11__recommendB7v170000Em.exit.i.i874

if.then.i.i.i866:                                 ; preds = %if.else.i865
  tail call void @_ZNKSt3__16vectorIiNS_9allocatorIiEEE20__throw_length_errorB7v170000Ev(ptr noundef nonnull align 8 dereferenceable(24) %zonepoints) #24
  unreachable

_ZNKSt3__16vectorIiNS_9allocatorIiEEE11__recommendB7v170000Em.exit.i.i874: ; preds = %if.else.i865
  %sub.ptr.lhs.cast.i.i.i.i867 = ptrtoint ptr %286 to i64
  %sub.ptr.sub.i.i.i.i868 = sub i64 %sub.ptr.lhs.cast.i.i.i.i867, %sub.ptr.rhs.cast.i.i.i860
  %cmp3.not.i.i.i869 = icmp ult i64 %sub.ptr.sub.i.i.i.i868, 9223372036854775804
  %mul.i.i.i870 = lshr exact i64 %sub.ptr.sub.i.i.i.i868, 1
  %.sroa.speculated.i.i.i871 = tail call i64 @llvm.umax.i64(i64 %mul.i.i.i870, i64 %add.i.i863)
  %retval.0.i.i.i872 = select i1 %cmp3.not.i.i.i869, i64 %.sroa.speculated.i.i.i871, i64 4611686018427387903
  %cmp.i16.i.i873 = icmp eq i64 %retval.0.i.i.i872, 0
  br i1 %cmp.i16.i.i873, label %invoke.cont.i.i886, label %if.else.i.i.i876

if.else.i.i.i876:                                 ; preds = %_ZNKSt3__16vectorIiNS_9allocatorIiEEE11__recommendB7v170000Em.exit.i.i874
  %cmp.i.i.i.i.i875 = icmp ugt i64 %retval.0.i.i.i872, 4611686018427387903
  br i1 %cmp.i.i.i.i.i875, label %if.then.i.i.i.i.i877, label %_ZNSt3__119__allocate_at_leastB7v170000INS_9allocatorIiEEEENS_19__allocation_resultINS_16allocator_traitsIT_E7pointerEEERS5_m.exit.i.i.i880

if.then.i.i.i.i.i877:                             ; preds = %if.else.i.i.i876
  tail call void @_ZSt28__throw_bad_array_new_lengthB7v170000v() #24
  unreachable

_ZNSt3__119__allocate_at_leastB7v170000INS_9allocatorIiEEEENS_19__allocation_resultINS_16allocator_traitsIT_E7pointerEEERS5_m.exit.i.i.i880: ; preds = %if.else.i.i.i876
  %mul.i.i.i.i.i878 = shl nuw i64 %retval.0.i.i.i872, 2
  %call.i5.i.i.i.i.i.i879 = tail call noalias noundef nonnull ptr @_Znwm(i64 noundef %mul.i.i.i.i.i878) #25
  br label %invoke.cont.i.i886

invoke.cont.i.i886:                               ; preds = %_ZNSt3__119__allocate_at_leastB7v170000INS_9allocatorIiEEEENS_19__allocation_resultINS_16allocator_traitsIT_E7pointerEEERS5_m.exit.i.i.i880, %_ZNKSt3__16vectorIiNS_9allocatorIiEEE11__recommendB7v170000Em.exit.i.i874
  %storemerge.i.i.i881 = phi ptr [ %call.i5.i.i.i.i.i.i879, %_ZNSt3__119__allocate_at_leastB7v170000INS_9allocatorIiEEEENS_19__allocation_resultINS_16allocator_traitsIT_E7pointerEEERS5_m.exit.i.i.i880 ], [ null, %_ZNKSt3__16vectorIiNS_9allocatorIiEEE11__recommendB7v170000Em.exit.i.i874 ]
  %storemerge.i.i.i8812314 = ptrtoint ptr %storemerge.i.i.i881 to i64
  %add.ptr.i.i.i882 = getelementptr inbounds i32, ptr %storemerge.i.i.i881, i64 %sub.ptr.div.i.i.i862
  %add.ptr6.i.i.i883 = getelementptr inbounds i32, ptr %storemerge.i.i.i881, i64 %retval.0.i.i.i872
  store i32 %add76, ptr %add.ptr.i.i.i882, align 4, !tbaa !13
  %incdec.ptr.i4.i884 = getelementptr inbounds i32, ptr %add.ptr.i.i.i882, i64 1
  %cmp.i.not13.i.i.i.i.i.i.i.i.i885 = icmp eq ptr %287, %288
  br i1 %cmp.i.not13.i.i.i.i.i.i.i.i.i885, label %_ZNSt3__114__split_bufferIiRNS_9allocatorIiEEE5clearB7v170000Ev.exit.i.i.i895, label %while.body.i.i.i.i.i.i.i.i.i892.preheader

while.body.i.i.i.i.i.i.i.i.i892.preheader:        ; preds = %invoke.cont.i.i886
  %289 = add i64 %sub.ptr.lhs.cast.i.i.i859, -4
  %290 = sub i64 %289, %sub.ptr.rhs.cast.i.i.i860
  %291 = lshr i64 %290, 2
  %292 = add nuw nsw i64 %291, 1
  %min.iters.check2318 = icmp ult i64 %290, 76
  br i1 %min.iters.check2318, label %while.body.i.i.i.i.i.i.i.i.i892.preheader3285, label %vector.memcheck2313

vector.memcheck2313:                              ; preds = %while.body.i.i.i.i.i.i.i.i.i892.preheader
  %293 = add i64 %sub.ptr.lhs.cast.i.i.i859, -4
  %294 = add i64 %storemerge.i.i.i8812314, -4
  %295 = add i64 %294, %sub.ptr.sub.i.i.i861
  %296 = sub i64 %293, %295
  %diff.check2315 = icmp ult i64 %296, 32
  br i1 %diff.check2315, label %while.body.i.i.i.i.i.i.i.i.i892.preheader3285, label %vector.ph2319

vector.ph2319:                                    ; preds = %vector.memcheck2313
  %n.vec2321 = and i64 %292, -8
  %297 = mul i64 %n.vec2321, -4
  %ind.end2322 = getelementptr i8, ptr %add.ptr.i.i.i882, i64 %297
  %298 = mul i64 %n.vec2321, -4
  %ind.end2324 = getelementptr i8, ptr %287, i64 %298
  br label %vector.body2327

vector.body2327:                                  ; preds = %vector.body2327, %vector.ph2319
  %index2328 = phi i64 [ 0, %vector.ph2319 ], [ %index.next2339, %vector.body2327 ]
  %299 = mul i64 %index2328, -4
  %next.gep2329 = getelementptr i8, ptr %add.ptr.i.i.i882, i64 %299
  %300 = mul i64 %index2328, -4
  %next.gep2331 = getelementptr i8, ptr %287, i64 %300
  %301 = getelementptr inbounds i32, ptr %next.gep2331, i64 -1
  %302 = getelementptr inbounds i32, ptr %301, i64 -3
  %wide.load2333 = load <4 x i32>, ptr %302, align 4, !tbaa !13, !noalias !173
  %303 = getelementptr inbounds i32, ptr %301, i64 -4
  %304 = getelementptr inbounds i32, ptr %303, i64 -3
  %wide.load2335 = load <4 x i32>, ptr %304, align 4, !tbaa !13, !noalias !173
  %305 = getelementptr inbounds i32, ptr %next.gep2329, i64 -1
  %306 = getelementptr inbounds i32, ptr %305, i64 -3
  store <4 x i32> %wide.load2333, ptr %306, align 4, !tbaa !13, !noalias !173
  %307 = getelementptr inbounds i32, ptr %305, i64 -4
  %308 = getelementptr inbounds i32, ptr %307, i64 -3
  store <4 x i32> %wide.load2335, ptr %308, align 4, !tbaa !13, !noalias !173
  %index.next2339 = add nuw i64 %index2328, 8
  %309 = icmp eq i64 %index.next2339, %n.vec2321
  br i1 %309, label %middle.block2316, label %vector.body2327, !llvm.loop !182

middle.block2316:                                 ; preds = %vector.body2327
  %cmp.n2326 = icmp eq i64 %292, %n.vec2321
  br i1 %cmp.n2326, label %_ZNSt3__114__split_bufferIiRNS_9allocatorIiEEE5clearB7v170000Ev.exit.i.i.i895, label %while.body.i.i.i.i.i.i.i.i.i892.preheader3285

while.body.i.i.i.i.i.i.i.i.i892.preheader3285:    ; preds = %vector.memcheck2313, %while.body.i.i.i.i.i.i.i.i.i892.preheader, %middle.block2316
  %incdec.ptr.i15.i.i.i.i.i.i.i.i.i887.ph = phi ptr [ %add.ptr.i.i.i882, %vector.memcheck2313 ], [ %add.ptr.i.i.i882, %while.body.i.i.i.i.i.i.i.i.i892.preheader ], [ %ind.end2322, %middle.block2316 ]
  %__first.sroa.2.014.i.i.i.i.i.i.i.i.i888.ph = phi ptr [ %287, %vector.memcheck2313 ], [ %287, %while.body.i.i.i.i.i.i.i.i.i892.preheader ], [ %ind.end2324, %middle.block2316 ]
  br label %while.body.i.i.i.i.i.i.i.i.i892

while.body.i.i.i.i.i.i.i.i.i892:                  ; preds = %while.body.i.i.i.i.i.i.i.i.i892.preheader3285, %while.body.i.i.i.i.i.i.i.i.i892
  %incdec.ptr.i15.i.i.i.i.i.i.i.i.i887 = phi ptr [ %incdec.ptr.i.i.i.i.i.i.i.i.i.i890, %while.body.i.i.i.i.i.i.i.i.i892 ], [ %incdec.ptr.i15.i.i.i.i.i.i.i.i.i887.ph, %while.body.i.i.i.i.i.i.i.i.i892.preheader3285 ]
  %__first.sroa.2.014.i.i.i.i.i.i.i.i.i888 = phi ptr [ %incdec.ptr.i.i.i.i.i.i.i.i.i.i.i889, %while.body.i.i.i.i.i.i.i.i.i892 ], [ %__first.sroa.2.014.i.i.i.i.i.i.i.i.i888.ph, %while.body.i.i.i.i.i.i.i.i.i892.preheader3285 ]
  %incdec.ptr.i.i.i.i.i.i.i.i.i.i.i889 = getelementptr inbounds i32, ptr %__first.sroa.2.014.i.i.i.i.i.i.i.i.i888, i64 -1
  %310 = load i32, ptr %incdec.ptr.i.i.i.i.i.i.i.i.i.i.i889, align 4, !tbaa !13, !noalias !173
  %incdec.ptr.i.i.i.i.i.i.i.i.i.i890 = getelementptr inbounds i32, ptr %incdec.ptr.i15.i.i.i.i.i.i.i.i.i887, i64 -1
  store i32 %310, ptr %incdec.ptr.i.i.i.i.i.i.i.i.i.i890, align 4, !tbaa !13, !noalias !173
  %cmp.i.not.i.i.i.i.i.i.i.i.i891 = icmp eq ptr %incdec.ptr.i.i.i.i.i.i.i.i.i.i.i889, %288
  br i1 %cmp.i.not.i.i.i.i.i.i.i.i.i891, label %_ZNSt3__114__split_bufferIiRNS_9allocatorIiEEE5clearB7v170000Ev.exit.i.i.i895, label %while.body.i.i.i.i.i.i.i.i.i892, !llvm.loop !183

_ZNSt3__114__split_bufferIiRNS_9allocatorIiEEE5clearB7v170000Ev.exit.i.i.i895: ; preds = %while.body.i.i.i.i.i.i.i.i.i892, %middle.block2316, %invoke.cont.i.i886
  %storemerge.i.i893 = phi ptr [ %add.ptr.i.i.i882, %invoke.cont.i.i886 ], [ %ind.end2322, %middle.block2316 ], [ %incdec.ptr.i.i.i.i.i.i.i.i.i.i890, %while.body.i.i.i.i.i.i.i.i.i892 ]
  store ptr %storemerge.i.i893, ptr %zonepoints, align 8, !tbaa !11
  store ptr %incdec.ptr.i4.i884, ptr %__end_.i562, align 8, !tbaa !11
  store ptr %add.ptr6.i.i.i883, ptr %__end_cap_.i.i.i477, align 8, !tbaa !11
  %tobool.not.i.i.i894 = icmp eq ptr %288, null
  br i1 %tobool.not.i.i.i894, label %_ZNSt3__16vectorIiNS_9allocatorIiEEE9push_backB7v170000EOi.exit897, label %if.then.i19.i.i896

if.then.i19.i.i896:                               ; preds = %_ZNSt3__114__split_bufferIiRNS_9allocatorIiEEE5clearB7v170000Ev.exit.i.i.i895
  tail call void @_ZdlPv(ptr noundef nonnull %288) #22
  br label %_ZNSt3__16vectorIiNS_9allocatorIiEEE9push_backB7v170000EOi.exit897

_ZNSt3__16vectorIiNS_9allocatorIiEEE9push_backB7v170000EOi.exit897: ; preds = %if.then.i858, %_ZNSt3__114__split_bufferIiRNS_9allocatorIiEEE5clearB7v170000Ev.exit.i.i.i895, %if.then.i19.i.i896
  %inc81 = add nuw nsw i32 %i48.02151, 1
  %311 = load i32, ptr %nzx, align 8, !tbaa !41
  %cmp51 = icmp slt i32 %inc81, %311
  br i1 %cmp51, label %for.body53, label %for.cond.cleanup52.loopexit, !llvm.loop !184

if.end88:                                         ; preds = %for.cond.cleanup46
  %312 = load i32, ptr %mypey, align 4, !tbaa !39
  %cmp90.not = icmp eq i32 %312, 0
  %mul92 = select i1 %cmp90.not, i32 0, i32 %add
  %mypex = getelementptr inbounds %class.GenMesh, ptr %this, i64 0, i32 7
  %313 = load i32, ptr %mypex, align 8, !tbaa !38
  %cmp93.not = icmp eq i32 %313, 0
  %mul95 = select i1 %cmp93.not, i32 0, i32 %add4
  %add96 = add nsw i32 %mul95, %mul92
  %conv97 = sext i32 %add96 to i64
  %__end_cap_.i.i.i898 = getelementptr inbounds %"class.std::__1::vector.18", ptr %slavepoints, i64 0, i32 2
  %314 = load ptr, ptr %__end_cap_.i.i.i898, align 8, !tbaa !11
  %315 = load ptr, ptr %slavepoints, align 8, !tbaa !50
  %sub.ptr.lhs.cast.i.i899 = ptrtoint ptr %314 to i64
  %sub.ptr.rhs.cast.i.i900 = ptrtoint ptr %315 to i64
  %sub.ptr.sub.i.i901 = sub i64 %sub.ptr.lhs.cast.i.i899, %sub.ptr.rhs.cast.i.i900
  %sub.ptr.div.i.i902 = ashr exact i64 %sub.ptr.sub.i.i901, 2
  %cmp.i903 = icmp ult i64 %sub.ptr.div.i.i902, %conv97
  br i1 %cmp.i903, label %if.then.i905, label %_ZNSt3__16vectorIiNS_9allocatorIiEEE7reserveEm.exit927

if.then.i905:                                     ; preds = %if.end88
  %cmp3.i904 = icmp slt i32 %add96, 0
  br i1 %cmp3.i904, label %if.then4.i906, label %_ZNSt3__114__split_bufferIiRNS_9allocatorIiEEEC2EmmS3_.exit.i916

if.then4.i906:                                    ; preds = %if.then.i905
  tail call void @_ZNKSt3__16vectorIiNS_9allocatorIiEEE20__throw_length_errorB7v170000Ev(ptr noundef nonnull align 8 dereferenceable(24) %slavepoints) #24
  unreachable

_ZNSt3__114__split_bufferIiRNS_9allocatorIiEEEC2EmmS3_.exit.i916: ; preds = %if.then.i905
  %__end_.i.i907 = getelementptr inbounds %"class.std::__1::vector.18", ptr %slavepoints, i64 0, i32 1
  %316 = load ptr, ptr %__end_.i.i907, align 8, !tbaa !54
  %sub.ptr.lhs.cast.i11.i908 = ptrtoint ptr %316 to i64
  %sub.ptr.sub.i13.i909 = sub i64 %sub.ptr.lhs.cast.i11.i908, %sub.ptr.rhs.cast.i.i900
  %sub.ptr.div.i14.i910 = ashr i64 %sub.ptr.sub.i13.i909, 2
  %mul.i.i.i.i911 = shl nuw nsw i64 %conv97, 2
  %call.i5.i.i.i.i.i912 = tail call noalias noundef nonnull ptr @_Znwm(i64 noundef %mul.i.i.i.i911) #25
  %call.i5.i.i.i.i.i9122530 = ptrtoint ptr %call.i5.i.i.i.i.i912 to i64
  %add.ptr.i.i913 = getelementptr inbounds i32, ptr %call.i5.i.i.i.i.i912, i64 %sub.ptr.div.i14.i910
  %add.ptr6.i.i914 = getelementptr inbounds i32, ptr %call.i5.i.i.i.i.i912, i64 %conv97
  %cmp.i.not13.i.i.i.i.i.i.i.i915 = icmp eq ptr %316, %315
  br i1 %cmp.i.not13.i.i.i.i.i.i.i.i915, label %_ZNSt3__114__split_bufferIiRNS_9allocatorIiEEE5clearB7v170000Ev.exit.i.i925, label %while.body.i.i.i.i.i.i.i.i922.preheader

while.body.i.i.i.i.i.i.i.i922.preheader:          ; preds = %_ZNSt3__114__split_bufferIiRNS_9allocatorIiEEEC2EmmS3_.exit.i916
  %317 = add i64 %sub.ptr.lhs.cast.i11.i908, -4
  %318 = sub i64 %317, %sub.ptr.rhs.cast.i.i900
  %319 = lshr i64 %318, 2
  %320 = add nuw nsw i64 %319, 1
  %min.iters.check2534 = icmp ult i64 %318, 76
  br i1 %min.iters.check2534, label %while.body.i.i.i.i.i.i.i.i922.preheader3284, label %vector.memcheck2529

vector.memcheck2529:                              ; preds = %while.body.i.i.i.i.i.i.i.i922.preheader
  %321 = and i64 %sub.ptr.sub.i13.i909, -4
  %322 = add i64 %321, %call.i5.i.i.i.i.i9122530
  %323 = sub i64 %sub.ptr.lhs.cast.i11.i908, %322
  %diff.check2531 = icmp ult i64 %323, 32
  br i1 %diff.check2531, label %while.body.i.i.i.i.i.i.i.i922.preheader3284, label %vector.ph2535

vector.ph2535:                                    ; preds = %vector.memcheck2529
  %n.vec2537 = and i64 %320, -8
  %324 = mul i64 %n.vec2537, -4
  %ind.end2538 = getelementptr i8, ptr %add.ptr.i.i913, i64 %324
  %325 = mul i64 %n.vec2537, -4
  %ind.end2540 = getelementptr i8, ptr %316, i64 %325
  br label %vector.body2543

vector.body2543:                                  ; preds = %vector.body2543, %vector.ph2535
  %index2544 = phi i64 [ 0, %vector.ph2535 ], [ %index.next2555, %vector.body2543 ]
  %326 = mul i64 %index2544, -4
  %next.gep2545 = getelementptr i8, ptr %add.ptr.i.i913, i64 %326
  %327 = mul i64 %index2544, -4
  %next.gep2547 = getelementptr i8, ptr %316, i64 %327
  %328 = getelementptr inbounds i32, ptr %next.gep2547, i64 -1
  %329 = getelementptr inbounds i32, ptr %328, i64 -3
  %wide.load2549 = load <4 x i32>, ptr %329, align 4, !tbaa !13, !noalias !185
  %330 = getelementptr inbounds i32, ptr %328, i64 -4
  %331 = getelementptr inbounds i32, ptr %330, i64 -3
  %wide.load2551 = load <4 x i32>, ptr %331, align 4, !tbaa !13, !noalias !185
  %332 = getelementptr inbounds i32, ptr %next.gep2545, i64 -1
  %333 = getelementptr inbounds i32, ptr %332, i64 -3
  store <4 x i32> %wide.load2549, ptr %333, align 4, !tbaa !13, !noalias !185
  %334 = getelementptr inbounds i32, ptr %332, i64 -4
  %335 = getelementptr inbounds i32, ptr %334, i64 -3
  store <4 x i32> %wide.load2551, ptr %335, align 4, !tbaa !13, !noalias !185
  %index.next2555 = add nuw i64 %index2544, 8
  %336 = icmp eq i64 %index.next2555, %n.vec2537
  br i1 %336, label %middle.block2532, label %vector.body2543, !llvm.loop !194

middle.block2532:                                 ; preds = %vector.body2543
  %cmp.n2542 = icmp eq i64 %320, %n.vec2537
  br i1 %cmp.n2542, label %_ZNSt3__114__split_bufferIiRNS_9allocatorIiEEE5clearB7v170000Ev.exit.i.i925, label %while.body.i.i.i.i.i.i.i.i922.preheader3284

while.body.i.i.i.i.i.i.i.i922.preheader3284:      ; preds = %vector.memcheck2529, %while.body.i.i.i.i.i.i.i.i922.preheader, %middle.block2532
  %incdec.ptr.i15.i.i.i.i.i.i.i.i917.ph = phi ptr [ %add.ptr.i.i913, %vector.memcheck2529 ], [ %add.ptr.i.i913, %while.body.i.i.i.i.i.i.i.i922.preheader ], [ %ind.end2538, %middle.block2532 ]
  %__first.sroa.2.014.i.i.i.i.i.i.i.i918.ph = phi ptr [ %316, %vector.memcheck2529 ], [ %316, %while.body.i.i.i.i.i.i.i.i922.preheader ], [ %ind.end2540, %middle.block2532 ]
  br label %while.body.i.i.i.i.i.i.i.i922

while.body.i.i.i.i.i.i.i.i922:                    ; preds = %while.body.i.i.i.i.i.i.i.i922.preheader3284, %while.body.i.i.i.i.i.i.i.i922
  %incdec.ptr.i15.i.i.i.i.i.i.i.i917 = phi ptr [ %incdec.ptr.i.i.i.i.i.i.i.i.i920, %while.body.i.i.i.i.i.i.i.i922 ], [ %incdec.ptr.i15.i.i.i.i.i.i.i.i917.ph, %while.body.i.i.i.i.i.i.i.i922.preheader3284 ]
  %__first.sroa.2.014.i.i.i.i.i.i.i.i918 = phi ptr [ %incdec.ptr.i.i.i.i.i.i.i.i.i.i919, %while.body.i.i.i.i.i.i.i.i922 ], [ %__first.sroa.2.014.i.i.i.i.i.i.i.i918.ph, %while.body.i.i.i.i.i.i.i.i922.preheader3284 ]
  %incdec.ptr.i.i.i.i.i.i.i.i.i.i919 = getelementptr inbounds i32, ptr %__first.sroa.2.014.i.i.i.i.i.i.i.i918, i64 -1
  %337 = load i32, ptr %incdec.ptr.i.i.i.i.i.i.i.i.i.i919, align 4, !tbaa !13, !noalias !185
  %incdec.ptr.i.i.i.i.i.i.i.i.i920 = getelementptr inbounds i32, ptr %incdec.ptr.i15.i.i.i.i.i.i.i.i917, i64 -1
  store i32 %337, ptr %incdec.ptr.i.i.i.i.i.i.i.i.i920, align 4, !tbaa !13, !noalias !185
  %cmp.i.not.i.i.i.i.i.i.i.i921 = icmp eq ptr %incdec.ptr.i.i.i.i.i.i.i.i.i.i919, %315
  br i1 %cmp.i.not.i.i.i.i.i.i.i.i921, label %_ZNSt3__114__split_bufferIiRNS_9allocatorIiEEE5clearB7v170000Ev.exit.i.i925, label %while.body.i.i.i.i.i.i.i.i922, !llvm.loop !195

_ZNSt3__114__split_bufferIiRNS_9allocatorIiEEE5clearB7v170000Ev.exit.i.i925: ; preds = %while.body.i.i.i.i.i.i.i.i922, %middle.block2532, %_ZNSt3__114__split_bufferIiRNS_9allocatorIiEEEC2EmmS3_.exit.i916
  %storemerge.i923 = phi ptr [ %add.ptr.i.i913, %_ZNSt3__114__split_bufferIiRNS_9allocatorIiEEEC2EmmS3_.exit.i916 ], [ %ind.end2538, %middle.block2532 ], [ %incdec.ptr.i.i.i.i.i.i.i.i.i920, %while.body.i.i.i.i.i.i.i.i922 ]
  store ptr %storemerge.i923, ptr %slavepoints, align 8, !tbaa !11
  store ptr %add.ptr.i.i913, ptr %__end_.i.i907, align 8, !tbaa !11
  store ptr %add.ptr6.i.i914, ptr %__end_cap_.i.i.i898, align 8, !tbaa !11
  %tobool.not.i.i924 = icmp eq ptr %315, null
  br i1 %tobool.not.i.i924, label %_ZNSt3__16vectorIiNS_9allocatorIiEEE7reserveEm.exit927, label %if.then.i.i926

if.then.i.i926:                                   ; preds = %_ZNSt3__114__split_bufferIiRNS_9allocatorIiEEE5clearB7v170000Ev.exit.i.i925
  tail call void @_ZdlPv(ptr noundef nonnull %315) #22
  %.pre2246 = load i32, ptr %mypey, align 4, !tbaa !39
  %.pre2247 = load i32, ptr %mypex, align 8, !tbaa !38
  br label %_ZNSt3__16vectorIiNS_9allocatorIiEEE7reserveEm.exit927

_ZNSt3__16vectorIiNS_9allocatorIiEEE7reserveEm.exit927: ; preds = %if.end88, %_ZNSt3__114__split_bufferIiRNS_9allocatorIiEEE5clearB7v170000Ev.exit.i.i925, %if.then.i.i926
  %338 = phi i32 [ %313, %if.end88 ], [ %313, %_ZNSt3__114__split_bufferIiRNS_9allocatorIiEEE5clearB7v170000Ev.exit.i.i925 ], [ %.pre2247, %if.then.i.i926 ]
  %339 = phi i32 [ %312, %if.end88 ], [ %312, %_ZNSt3__114__split_bufferIiRNS_9allocatorIiEEE5clearB7v170000Ev.exit.i.i925 ], [ %.pre2246, %if.then.i.i926 ]
  %numpey = getelementptr inbounds %class.GenMesh, ptr %this, i64 0, i32 6
  %340 = load i32, ptr %numpey, align 4, !tbaa !37
  %sub99 = add nsw i32 %340, -1
  %cmp100.not = icmp eq i32 %339, %sub99
  %mul102 = select i1 %cmp100.not, i32 0, i32 %add
  %numpex = getelementptr inbounds %class.GenMesh, ptr %this, i64 0, i32 5
  %341 = load i32, ptr %numpex, align 8, !tbaa !36
  %sub104 = add nsw i32 %341, -1
  %cmp105.not = icmp eq i32 %338, %sub104
  %mul107 = select i1 %cmp105.not, i32 0, i32 %add4
  %add108 = add nsw i32 %mul107, %mul102
  %add109 = add nsw i32 %add108, 1
  %conv110 = sext i32 %add109 to i64
  %__end_cap_.i.i.i928 = getelementptr inbounds %"class.std::__1::vector.18", ptr %masterpoints, i64 0, i32 2
  %342 = load ptr, ptr %__end_cap_.i.i.i928, align 8, !tbaa !11
  %343 = load ptr, ptr %masterpoints, align 8, !tbaa !50
  %sub.ptr.lhs.cast.i.i929 = ptrtoint ptr %342 to i64
  %sub.ptr.rhs.cast.i.i930 = ptrtoint ptr %343 to i64
  %sub.ptr.sub.i.i931 = sub i64 %sub.ptr.lhs.cast.i.i929, %sub.ptr.rhs.cast.i.i930
  %sub.ptr.div.i.i932 = ashr exact i64 %sub.ptr.sub.i.i931, 2
  %cmp.i933 = icmp ult i64 %sub.ptr.div.i.i932, %conv110
  br i1 %cmp.i933, label %if.then.i935, label %_ZNSt3__16vectorIiNS_9allocatorIiEEE7reserveEm.exit957

if.then.i935:                                     ; preds = %_ZNSt3__16vectorIiNS_9allocatorIiEEE7reserveEm.exit927
  %cmp3.i934 = icmp slt i32 %add108, -1
  br i1 %cmp3.i934, label %if.then4.i936, label %_ZNSt3__114__split_bufferIiRNS_9allocatorIiEEEC2EmmS3_.exit.i946

if.then4.i936:                                    ; preds = %if.then.i935
  tail call void @_ZNKSt3__16vectorIiNS_9allocatorIiEEE20__throw_length_errorB7v170000Ev(ptr noundef nonnull align 8 dereferenceable(24) %masterpoints) #24
  unreachable

_ZNSt3__114__split_bufferIiRNS_9allocatorIiEEEC2EmmS3_.exit.i946: ; preds = %if.then.i935
  %__end_.i.i937 = getelementptr inbounds %"class.std::__1::vector.18", ptr %masterpoints, i64 0, i32 1
  %344 = load ptr, ptr %__end_.i.i937, align 8, !tbaa !54
  %sub.ptr.lhs.cast.i11.i938 = ptrtoint ptr %344 to i64
  %sub.ptr.sub.i13.i939 = sub i64 %sub.ptr.lhs.cast.i11.i938, %sub.ptr.rhs.cast.i.i930
  %sub.ptr.div.i14.i940 = ashr i64 %sub.ptr.sub.i13.i939, 2
  %mul.i.i.i.i941 = shl nuw nsw i64 %conv110, 2
  %call.i5.i.i.i.i.i942 = tail call noalias noundef nonnull ptr @_Znwm(i64 noundef %mul.i.i.i.i941) #25
  %call.i5.i.i.i.i.i9422557 = ptrtoint ptr %call.i5.i.i.i.i.i942 to i64
  %add.ptr.i.i943 = getelementptr inbounds i32, ptr %call.i5.i.i.i.i.i942, i64 %sub.ptr.div.i14.i940
  %add.ptr6.i.i944 = getelementptr inbounds i32, ptr %call.i5.i.i.i.i.i942, i64 %conv110
  %cmp.i.not13.i.i.i.i.i.i.i.i945 = icmp eq ptr %344, %343
  br i1 %cmp.i.not13.i.i.i.i.i.i.i.i945, label %_ZNSt3__114__split_bufferIiRNS_9allocatorIiEEE5clearB7v170000Ev.exit.i.i955, label %while.body.i.i.i.i.i.i.i.i952.preheader

while.body.i.i.i.i.i.i.i.i952.preheader:          ; preds = %_ZNSt3__114__split_bufferIiRNS_9allocatorIiEEEC2EmmS3_.exit.i946
  %345 = add i64 %sub.ptr.lhs.cast.i11.i938, -4
  %346 = sub i64 %345, %sub.ptr.rhs.cast.i.i930
  %347 = lshr i64 %346, 2
  %348 = add nuw nsw i64 %347, 1
  %min.iters.check2561 = icmp ult i64 %346, 76
  br i1 %min.iters.check2561, label %while.body.i.i.i.i.i.i.i.i952.preheader3283, label %vector.memcheck2556

vector.memcheck2556:                              ; preds = %while.body.i.i.i.i.i.i.i.i952.preheader
  %349 = and i64 %sub.ptr.sub.i13.i939, -4
  %350 = add i64 %349, %call.i5.i.i.i.i.i9422557
  %351 = sub i64 %sub.ptr.lhs.cast.i11.i938, %350
  %diff.check2558 = icmp ult i64 %351, 32
  br i1 %diff.check2558, label %while.body.i.i.i.i.i.i.i.i952.preheader3283, label %vector.ph2562

vector.ph2562:                                    ; preds = %vector.memcheck2556
  %n.vec2564 = and i64 %348, -8
  %352 = mul i64 %n.vec2564, -4
  %ind.end2565 = getelementptr i8, ptr %add.ptr.i.i943, i64 %352
  %353 = mul i64 %n.vec2564, -4
  %ind.end2567 = getelementptr i8, ptr %344, i64 %353
  br label %vector.body2570

vector.body2570:                                  ; preds = %vector.body2570, %vector.ph2562
  %index2571 = phi i64 [ 0, %vector.ph2562 ], [ %index.next2582, %vector.body2570 ]
  %354 = mul i64 %index2571, -4
  %next.gep2572 = getelementptr i8, ptr %add.ptr.i.i943, i64 %354
  %355 = mul i64 %index2571, -4
  %next.gep2574 = getelementptr i8, ptr %344, i64 %355
  %356 = getelementptr inbounds i32, ptr %next.gep2574, i64 -1
  %357 = getelementptr inbounds i32, ptr %356, i64 -3
  %wide.load2576 = load <4 x i32>, ptr %357, align 4, !tbaa !13, !noalias !196
  %358 = getelementptr inbounds i32, ptr %356, i64 -4
  %359 = getelementptr inbounds i32, ptr %358, i64 -3
  %wide.load2578 = load <4 x i32>, ptr %359, align 4, !tbaa !13, !noalias !196
  %360 = getelementptr inbounds i32, ptr %next.gep2572, i64 -1
  %361 = getelementptr inbounds i32, ptr %360, i64 -3
  store <4 x i32> %wide.load2576, ptr %361, align 4, !tbaa !13, !noalias !196
  %362 = getelementptr inbounds i32, ptr %360, i64 -4
  %363 = getelementptr inbounds i32, ptr %362, i64 -3
  store <4 x i32> %wide.load2578, ptr %363, align 4, !tbaa !13, !noalias !196
  %index.next2582 = add nuw i64 %index2571, 8
  %364 = icmp eq i64 %index.next2582, %n.vec2564
  br i1 %364, label %middle.block2559, label %vector.body2570, !llvm.loop !205

middle.block2559:                                 ; preds = %vector.body2570
  %cmp.n2569 = icmp eq i64 %348, %n.vec2564
  br i1 %cmp.n2569, label %_ZNSt3__114__split_bufferIiRNS_9allocatorIiEEE5clearB7v170000Ev.exit.i.i955, label %while.body.i.i.i.i.i.i.i.i952.preheader3283

while.body.i.i.i.i.i.i.i.i952.preheader3283:      ; preds = %vector.memcheck2556, %while.body.i.i.i.i.i.i.i.i952.preheader, %middle.block2559
  %incdec.ptr.i15.i.i.i.i.i.i.i.i947.ph = phi ptr [ %add.ptr.i.i943, %vector.memcheck2556 ], [ %add.ptr.i.i943, %while.body.i.i.i.i.i.i.i.i952.preheader ], [ %ind.end2565, %middle.block2559 ]
  %__first.sroa.2.014.i.i.i.i.i.i.i.i948.ph = phi ptr [ %344, %vector.memcheck2556 ], [ %344, %while.body.i.i.i.i.i.i.i.i952.preheader ], [ %ind.end2567, %middle.block2559 ]
  br label %while.body.i.i.i.i.i.i.i.i952

while.body.i.i.i.i.i.i.i.i952:                    ; preds = %while.body.i.i.i.i.i.i.i.i952.preheader3283, %while.body.i.i.i.i.i.i.i.i952
  %incdec.ptr.i15.i.i.i.i.i.i.i.i947 = phi ptr [ %incdec.ptr.i.i.i.i.i.i.i.i.i950, %while.body.i.i.i.i.i.i.i.i952 ], [ %incdec.ptr.i15.i.i.i.i.i.i.i.i947.ph, %while.body.i.i.i.i.i.i.i.i952.preheader3283 ]
  %__first.sroa.2.014.i.i.i.i.i.i.i.i948 = phi ptr [ %incdec.ptr.i.i.i.i.i.i.i.i.i.i949, %while.body.i.i.i.i.i.i.i.i952 ], [ %__first.sroa.2.014.i.i.i.i.i.i.i.i948.ph, %while.body.i.i.i.i.i.i.i.i952.preheader3283 ]
  %incdec.ptr.i.i.i.i.i.i.i.i.i.i949 = getelementptr inbounds i32, ptr %__first.sroa.2.014.i.i.i.i.i.i.i.i948, i64 -1
  %365 = load i32, ptr %incdec.ptr.i.i.i.i.i.i.i.i.i.i949, align 4, !tbaa !13, !noalias !196
  %incdec.ptr.i.i.i.i.i.i.i.i.i950 = getelementptr inbounds i32, ptr %incdec.ptr.i15.i.i.i.i.i.i.i.i947, i64 -1
  store i32 %365, ptr %incdec.ptr.i.i.i.i.i.i.i.i.i950, align 4, !tbaa !13, !noalias !196
  %cmp.i.not.i.i.i.i.i.i.i.i951 = icmp eq ptr %incdec.ptr.i.i.i.i.i.i.i.i.i.i949, %343
  br i1 %cmp.i.not.i.i.i.i.i.i.i.i951, label %_ZNSt3__114__split_bufferIiRNS_9allocatorIiEEE5clearB7v170000Ev.exit.i.i955, label %while.body.i.i.i.i.i.i.i.i952, !llvm.loop !206

_ZNSt3__114__split_bufferIiRNS_9allocatorIiEEE5clearB7v170000Ev.exit.i.i955: ; preds = %while.body.i.i.i.i.i.i.i.i952, %middle.block2559, %_ZNSt3__114__split_bufferIiRNS_9allocatorIiEEEC2EmmS3_.exit.i946
  %storemerge.i953 = phi ptr [ %add.ptr.i.i943, %_ZNSt3__114__split_bufferIiRNS_9allocatorIiEEEC2EmmS3_.exit.i946 ], [ %ind.end2565, %middle.block2559 ], [ %incdec.ptr.i.i.i.i.i.i.i.i.i950, %while.body.i.i.i.i.i.i.i.i952 ]
  store ptr %storemerge.i953, ptr %masterpoints, align 8, !tbaa !11
  store ptr %add.ptr.i.i943, ptr %__end_.i.i937, align 8, !tbaa !11
  store ptr %add.ptr6.i.i944, ptr %__end_cap_.i.i.i928, align 8, !tbaa !11
  %tobool.not.i.i954 = icmp eq ptr %343, null
  br i1 %tobool.not.i.i954, label %_ZNSt3__16vectorIiNS_9allocatorIiEEE7reserveEm.exit957, label %if.then.i.i956

if.then.i.i956:                                   ; preds = %_ZNSt3__114__split_bufferIiRNS_9allocatorIiEEE5clearB7v170000Ev.exit.i.i955
  tail call void @_ZdlPv(ptr noundef nonnull %343) #22
  %.pre2248 = load i32, ptr %mypex, align 8, !tbaa !38
  br label %_ZNSt3__16vectorIiNS_9allocatorIiEEE7reserveEm.exit957

_ZNSt3__16vectorIiNS_9allocatorIiEEE7reserveEm.exit957: ; preds = %_ZNSt3__16vectorIiNS_9allocatorIiEEE7reserveEm.exit927, %_ZNSt3__114__split_bufferIiRNS_9allocatorIiEEE5clearB7v170000Ev.exit.i.i955, %if.then.i.i956
  %366 = phi i32 [ %338, %_ZNSt3__16vectorIiNS_9allocatorIiEEE7reserveEm.exit927 ], [ %338, %_ZNSt3__114__split_bufferIiRNS_9allocatorIiEEE5clearB7v170000Ev.exit.i.i955 ], [ %.pre2248, %if.then.i.i956 ]
  %cmp112.not = icmp eq i32 %366, 0
  %367 = load i32, ptr %mypey, align 4
  %cmp114.not = icmp eq i32 %367, 0
  %or.cond = select i1 %cmp112.not, i1 true, i1 %cmp114.not
  br i1 %or.cond, label %if.end121, label %if.then115

if.then115:                                       ; preds = %_ZNSt3__16vectorIiNS_9allocatorIiEEE7reserveEm.exit957
  %368 = load i32, ptr @_ZN8Parallel4mypeE, align 4, !tbaa !13
  %369 = load i32, ptr %numpex, align 8, !tbaa !36
  %370 = xor i32 %369, -1
  %sub118 = add i32 %368, %370
  %__end_.i958 = getelementptr inbounds %"class.std::__1::vector.18", ptr %slavepoints, i64 0, i32 1
  %371 = load ptr, ptr %__end_.i958, align 8, !tbaa !54
  %372 = load ptr, ptr %__end_cap_.i.i.i898, align 8, !tbaa !11
  %cmp.i960 = icmp ult ptr %371, %372
  br i1 %cmp.i960, label %if.then.i962, label %if.else.i969

if.then.i962:                                     ; preds = %if.then115
  store i32 0, ptr %371, align 4, !tbaa !13
  %incdec.ptr.i.i961 = getelementptr inbounds i32, ptr %371, i64 1
  store ptr %incdec.ptr.i.i961, ptr %__end_.i958, align 8, !tbaa !54
  br label %_ZNSt3__16vectorIiNS_9allocatorIiEEE9push_backB7v170000EOi.exit1001

if.else.i969:                                     ; preds = %if.then115
  %373 = load ptr, ptr %slavepoints, align 8, !tbaa !50
  %sub.ptr.lhs.cast.i.i.i963 = ptrtoint ptr %371 to i64
  %sub.ptr.rhs.cast.i.i.i964 = ptrtoint ptr %373 to i64
  %sub.ptr.sub.i.i.i965 = sub i64 %sub.ptr.lhs.cast.i.i.i963, %sub.ptr.rhs.cast.i.i.i964
  %sub.ptr.div.i.i.i966 = ashr exact i64 %sub.ptr.sub.i.i.i965, 2
  %add.i.i967 = add nsw i64 %sub.ptr.div.i.i.i966, 1
  %cmp.i.i.i968 = icmp ugt i64 %add.i.i967, 4611686018427387903
  br i1 %cmp.i.i.i968, label %if.then.i.i.i970, label %_ZNKSt3__16vectorIiNS_9allocatorIiEEE11__recommendB7v170000Em.exit.i.i978

if.then.i.i.i970:                                 ; preds = %if.else.i969
  tail call void @_ZNKSt3__16vectorIiNS_9allocatorIiEEE20__throw_length_errorB7v170000Ev(ptr noundef nonnull align 8 dereferenceable(24) %slavepoints) #24
  unreachable

_ZNKSt3__16vectorIiNS_9allocatorIiEEE11__recommendB7v170000Em.exit.i.i978: ; preds = %if.else.i969
  %sub.ptr.lhs.cast.i.i.i.i971 = ptrtoint ptr %372 to i64
  %sub.ptr.sub.i.i.i.i972 = sub i64 %sub.ptr.lhs.cast.i.i.i.i971, %sub.ptr.rhs.cast.i.i.i964
  %cmp3.not.i.i.i973 = icmp ult i64 %sub.ptr.sub.i.i.i.i972, 9223372036854775804
  %mul.i.i.i974 = lshr exact i64 %sub.ptr.sub.i.i.i.i972, 1
  %.sroa.speculated.i.i.i975 = tail call i64 @llvm.umax.i64(i64 %mul.i.i.i974, i64 %add.i.i967)
  %retval.0.i.i.i976 = select i1 %cmp3.not.i.i.i973, i64 %.sroa.speculated.i.i.i975, i64 4611686018427387903
  %cmp.i16.i.i977 = icmp eq i64 %retval.0.i.i.i976, 0
  br i1 %cmp.i16.i.i977, label %invoke.cont.i.i990, label %if.else.i.i.i980

if.else.i.i.i980:                                 ; preds = %_ZNKSt3__16vectorIiNS_9allocatorIiEEE11__recommendB7v170000Em.exit.i.i978
  %cmp.i.i.i.i.i979 = icmp ugt i64 %retval.0.i.i.i976, 4611686018427387903
  br i1 %cmp.i.i.i.i.i979, label %if.then.i.i.i.i.i981, label %_ZNSt3__119__allocate_at_leastB7v170000INS_9allocatorIiEEEENS_19__allocation_resultINS_16allocator_traitsIT_E7pointerEEERS5_m.exit.i.i.i984

if.then.i.i.i.i.i981:                             ; preds = %if.else.i.i.i980
  tail call void @_ZSt28__throw_bad_array_new_lengthB7v170000v() #24
  unreachable

_ZNSt3__119__allocate_at_leastB7v170000INS_9allocatorIiEEEENS_19__allocation_resultINS_16allocator_traitsIT_E7pointerEEERS5_m.exit.i.i.i984: ; preds = %if.else.i.i.i980
  %mul.i.i.i.i.i982 = shl nuw i64 %retval.0.i.i.i976, 2
  %call.i5.i.i.i.i.i.i983 = tail call noalias noundef nonnull ptr @_Znwm(i64 noundef %mul.i.i.i.i.i982) #25
  br label %invoke.cont.i.i990

invoke.cont.i.i990:                               ; preds = %_ZNSt3__119__allocate_at_leastB7v170000INS_9allocatorIiEEEENS_19__allocation_resultINS_16allocator_traitsIT_E7pointerEEERS5_m.exit.i.i.i984, %_ZNKSt3__16vectorIiNS_9allocatorIiEEE11__recommendB7v170000Em.exit.i.i978
  %storemerge.i.i.i985 = phi ptr [ %call.i5.i.i.i.i.i.i983, %_ZNSt3__119__allocate_at_leastB7v170000INS_9allocatorIiEEEENS_19__allocation_resultINS_16allocator_traitsIT_E7pointerEEERS5_m.exit.i.i.i984 ], [ null, %_ZNKSt3__16vectorIiNS_9allocatorIiEEE11__recommendB7v170000Em.exit.i.i978 ]
  %storemerge.i.i.i9852584 = ptrtoint ptr %storemerge.i.i.i985 to i64
  %add.ptr.i.i.i986 = getelementptr inbounds i32, ptr %storemerge.i.i.i985, i64 %sub.ptr.div.i.i.i966
  %add.ptr6.i.i.i987 = getelementptr inbounds i32, ptr %storemerge.i.i.i985, i64 %retval.0.i.i.i976
  store i32 0, ptr %add.ptr.i.i.i986, align 4, !tbaa !13
  %incdec.ptr.i4.i988 = getelementptr inbounds i32, ptr %add.ptr.i.i.i986, i64 1
  %cmp.i.not13.i.i.i.i.i.i.i.i.i989 = icmp eq ptr %371, %373
  br i1 %cmp.i.not13.i.i.i.i.i.i.i.i.i989, label %_ZNSt3__114__split_bufferIiRNS_9allocatorIiEEE5clearB7v170000Ev.exit.i.i.i999, label %while.body.i.i.i.i.i.i.i.i.i996.preheader

while.body.i.i.i.i.i.i.i.i.i996.preheader:        ; preds = %invoke.cont.i.i990
  %374 = add i64 %sub.ptr.lhs.cast.i.i.i963, -4
  %375 = sub i64 %374, %sub.ptr.rhs.cast.i.i.i964
  %376 = lshr i64 %375, 2
  %377 = add nuw nsw i64 %376, 1
  %min.iters.check2588 = icmp ult i64 %375, 76
  br i1 %min.iters.check2588, label %while.body.i.i.i.i.i.i.i.i.i996.preheader3282, label %vector.memcheck2583

vector.memcheck2583:                              ; preds = %while.body.i.i.i.i.i.i.i.i.i996.preheader
  %378 = add i64 %sub.ptr.sub.i.i.i965, %storemerge.i.i.i9852584
  %379 = sub i64 %sub.ptr.lhs.cast.i.i.i963, %378
  %diff.check2585 = icmp ult i64 %379, 32
  br i1 %diff.check2585, label %while.body.i.i.i.i.i.i.i.i.i996.preheader3282, label %vector.ph2589

vector.ph2589:                                    ; preds = %vector.memcheck2583
  %n.vec2591 = and i64 %377, -8
  %380 = mul i64 %n.vec2591, -4
  %ind.end2592 = getelementptr i8, ptr %add.ptr.i.i.i986, i64 %380
  %381 = mul i64 %n.vec2591, -4
  %ind.end2594 = getelementptr i8, ptr %371, i64 %381
  br label %vector.body2597

vector.body2597:                                  ; preds = %vector.body2597, %vector.ph2589
  %index2598 = phi i64 [ 0, %vector.ph2589 ], [ %index.next2609, %vector.body2597 ]
  %382 = mul i64 %index2598, -4
  %next.gep2599 = getelementptr i8, ptr %add.ptr.i.i.i986, i64 %382
  %383 = mul i64 %index2598, -4
  %next.gep2601 = getelementptr i8, ptr %371, i64 %383
  %384 = getelementptr inbounds i32, ptr %next.gep2601, i64 -1
  %385 = getelementptr inbounds i32, ptr %384, i64 -3
  %wide.load2603 = load <4 x i32>, ptr %385, align 4, !tbaa !13, !noalias !207
  %386 = getelementptr inbounds i32, ptr %384, i64 -4
  %387 = getelementptr inbounds i32, ptr %386, i64 -3
  %wide.load2605 = load <4 x i32>, ptr %387, align 4, !tbaa !13, !noalias !207
  %388 = getelementptr inbounds i32, ptr %next.gep2599, i64 -1
  %389 = getelementptr inbounds i32, ptr %388, i64 -3
  store <4 x i32> %wide.load2603, ptr %389, align 4, !tbaa !13, !noalias !207
  %390 = getelementptr inbounds i32, ptr %388, i64 -4
  %391 = getelementptr inbounds i32, ptr %390, i64 -3
  store <4 x i32> %wide.load2605, ptr %391, align 4, !tbaa !13, !noalias !207
  %index.next2609 = add nuw i64 %index2598, 8
  %392 = icmp eq i64 %index.next2609, %n.vec2591
  br i1 %392, label %middle.block2586, label %vector.body2597, !llvm.loop !216

middle.block2586:                                 ; preds = %vector.body2597
  %cmp.n2596 = icmp eq i64 %377, %n.vec2591
  br i1 %cmp.n2596, label %_ZNSt3__114__split_bufferIiRNS_9allocatorIiEEE5clearB7v170000Ev.exit.i.i.i999, label %while.body.i.i.i.i.i.i.i.i.i996.preheader3282

while.body.i.i.i.i.i.i.i.i.i996.preheader3282:    ; preds = %vector.memcheck2583, %while.body.i.i.i.i.i.i.i.i.i996.preheader, %middle.block2586
  %incdec.ptr.i15.i.i.i.i.i.i.i.i.i991.ph = phi ptr [ %add.ptr.i.i.i986, %vector.memcheck2583 ], [ %add.ptr.i.i.i986, %while.body.i.i.i.i.i.i.i.i.i996.preheader ], [ %ind.end2592, %middle.block2586 ]
  %__first.sroa.2.014.i.i.i.i.i.i.i.i.i992.ph = phi ptr [ %371, %vector.memcheck2583 ], [ %371, %while.body.i.i.i.i.i.i.i.i.i996.preheader ], [ %ind.end2594, %middle.block2586 ]
  br label %while.body.i.i.i.i.i.i.i.i.i996

while.body.i.i.i.i.i.i.i.i.i996:                  ; preds = %while.body.i.i.i.i.i.i.i.i.i996.preheader3282, %while.body.i.i.i.i.i.i.i.i.i996
  %incdec.ptr.i15.i.i.i.i.i.i.i.i.i991 = phi ptr [ %incdec.ptr.i.i.i.i.i.i.i.i.i.i994, %while.body.i.i.i.i.i.i.i.i.i996 ], [ %incdec.ptr.i15.i.i.i.i.i.i.i.i.i991.ph, %while.body.i.i.i.i.i.i.i.i.i996.preheader3282 ]
  %__first.sroa.2.014.i.i.i.i.i.i.i.i.i992 = phi ptr [ %incdec.ptr.i.i.i.i.i.i.i.i.i.i.i993, %while.body.i.i.i.i.i.i.i.i.i996 ], [ %__first.sroa.2.014.i.i.i.i.i.i.i.i.i992.ph, %while.body.i.i.i.i.i.i.i.i.i996.preheader3282 ]
  %incdec.ptr.i.i.i.i.i.i.i.i.i.i.i993 = getelementptr inbounds i32, ptr %__first.sroa.2.014.i.i.i.i.i.i.i.i.i992, i64 -1
  %393 = load i32, ptr %incdec.ptr.i.i.i.i.i.i.i.i.i.i.i993, align 4, !tbaa !13, !noalias !207
  %incdec.ptr.i.i.i.i.i.i.i.i.i.i994 = getelementptr inbounds i32, ptr %incdec.ptr.i15.i.i.i.i.i.i.i.i.i991, i64 -1
  store i32 %393, ptr %incdec.ptr.i.i.i.i.i.i.i.i.i.i994, align 4, !tbaa !13, !noalias !207
  %cmp.i.not.i.i.i.i.i.i.i.i.i995 = icmp eq ptr %incdec.ptr.i.i.i.i.i.i.i.i.i.i.i993, %373
  br i1 %cmp.i.not.i.i.i.i.i.i.i.i.i995, label %_ZNSt3__114__split_bufferIiRNS_9allocatorIiEEE5clearB7v170000Ev.exit.i.i.i999, label %while.body.i.i.i.i.i.i.i.i.i996, !llvm.loop !217

_ZNSt3__114__split_bufferIiRNS_9allocatorIiEEE5clearB7v170000Ev.exit.i.i.i999: ; preds = %while.body.i.i.i.i.i.i.i.i.i996, %middle.block2586, %invoke.cont.i.i990
  %storemerge.i.i997 = phi ptr [ %add.ptr.i.i.i986, %invoke.cont.i.i990 ], [ %ind.end2592, %middle.block2586 ], [ %incdec.ptr.i.i.i.i.i.i.i.i.i.i994, %while.body.i.i.i.i.i.i.i.i.i996 ]
  store ptr %storemerge.i.i997, ptr %slavepoints, align 8, !tbaa !11
  store ptr %incdec.ptr.i4.i988, ptr %__end_.i958, align 8, !tbaa !11
  store ptr %add.ptr6.i.i.i987, ptr %__end_cap_.i.i.i898, align 8, !tbaa !11
  %tobool.not.i.i.i998 = icmp eq ptr %373, null
  br i1 %tobool.not.i.i.i998, label %_ZNSt3__16vectorIiNS_9allocatorIiEEE9push_backB7v170000EOi.exit1001, label %if.then.i19.i.i1000

if.then.i19.i.i1000:                              ; preds = %_ZNSt3__114__split_bufferIiRNS_9allocatorIiEEE5clearB7v170000Ev.exit.i.i.i999
  tail call void @_ZdlPv(ptr noundef nonnull %373) #22
  br label %_ZNSt3__16vectorIiNS_9allocatorIiEEE9push_backB7v170000EOi.exit1001

_ZNSt3__16vectorIiNS_9allocatorIiEEE9push_backB7v170000EOi.exit1001: ; preds = %if.then.i962, %_ZNSt3__114__split_bufferIiRNS_9allocatorIiEEE5clearB7v170000Ev.exit.i.i.i999, %if.then.i19.i.i1000
  %__end_.i1002 = getelementptr inbounds %"class.std::__1::vector.18", ptr %slavemstrpes, i64 0, i32 1
  %394 = load ptr, ptr %__end_.i1002, align 8, !tbaa !54
  %__end_cap_.i.i1003 = getelementptr inbounds %"class.std::__1::vector.18", ptr %slavemstrpes, i64 0, i32 2
  %395 = load ptr, ptr %__end_cap_.i.i1003, align 8, !tbaa !11
  %cmp.not.i1004 = icmp eq ptr %394, %395
  br i1 %cmp.not.i1004, label %if.else.i1013, label %if.then.i1006

if.then.i1006:                                    ; preds = %_ZNSt3__16vectorIiNS_9allocatorIiEEE9push_backB7v170000EOi.exit1001
  store i32 %sub118, ptr %394, align 4, !tbaa !13
  %incdec.ptr.i.i1005 = getelementptr inbounds i32, ptr %394, i64 1
  store ptr %incdec.ptr.i.i1005, ptr %__end_.i1002, align 8, !tbaa !54
  br label %_ZNSt3__16vectorIiNS_9allocatorIiEEE9push_backB7v170000ERKi.exit1045

if.else.i1013:                                    ; preds = %_ZNSt3__16vectorIiNS_9allocatorIiEEE9push_backB7v170000EOi.exit1001
  %396 = load ptr, ptr %slavemstrpes, align 8, !tbaa !50
  %sub.ptr.lhs.cast.i.i.i1007 = ptrtoint ptr %394 to i64
  %sub.ptr.rhs.cast.i.i.i1008 = ptrtoint ptr %396 to i64
  %sub.ptr.sub.i.i.i1009 = sub i64 %sub.ptr.lhs.cast.i.i.i1007, %sub.ptr.rhs.cast.i.i.i1008
  %sub.ptr.div.i.i.i1010 = ashr exact i64 %sub.ptr.sub.i.i.i1009, 2
  %add.i.i1011 = add nsw i64 %sub.ptr.div.i.i.i1010, 1
  %cmp.i.i.i1012 = icmp ugt i64 %add.i.i1011, 4611686018427387903
  br i1 %cmp.i.i.i1012, label %if.then.i.i.i1014, label %_ZNKSt3__16vectorIiNS_9allocatorIiEEE11__recommendB7v170000Em.exit.i.i1022

if.then.i.i.i1014:                                ; preds = %if.else.i1013
  tail call void @_ZNKSt3__16vectorIiNS_9allocatorIiEEE20__throw_length_errorB7v170000Ev(ptr noundef nonnull align 8 dereferenceable(24) %slavemstrpes) #24
  unreachable

_ZNKSt3__16vectorIiNS_9allocatorIiEEE11__recommendB7v170000Em.exit.i.i1022: ; preds = %if.else.i1013
  %sub.ptr.lhs.cast.i.i.i.i1015 = ptrtoint ptr %395 to i64
  %sub.ptr.sub.i.i.i.i1016 = sub i64 %sub.ptr.lhs.cast.i.i.i.i1015, %sub.ptr.rhs.cast.i.i.i1008
  %cmp3.not.i.i.i1017 = icmp ult i64 %sub.ptr.sub.i.i.i.i1016, 9223372036854775804
  %mul.i.i.i1018 = lshr exact i64 %sub.ptr.sub.i.i.i.i1016, 1
  %.sroa.speculated.i.i.i1019 = tail call i64 @llvm.umax.i64(i64 %mul.i.i.i1018, i64 %add.i.i1011)
  %retval.0.i.i.i1020 = select i1 %cmp3.not.i.i.i1017, i64 %.sroa.speculated.i.i.i1019, i64 4611686018427387903
  %cmp.i16.i.i1021 = icmp eq i64 %retval.0.i.i.i1020, 0
  br i1 %cmp.i16.i.i1021, label %invoke.cont.i.i1034, label %if.else.i.i.i1024

if.else.i.i.i1024:                                ; preds = %_ZNKSt3__16vectorIiNS_9allocatorIiEEE11__recommendB7v170000Em.exit.i.i1022
  %cmp.i.i.i.i.i1023 = icmp ugt i64 %retval.0.i.i.i1020, 4611686018427387903
  br i1 %cmp.i.i.i.i.i1023, label %if.then.i.i.i.i.i1025, label %_ZNSt3__119__allocate_at_leastB7v170000INS_9allocatorIiEEEENS_19__allocation_resultINS_16allocator_traitsIT_E7pointerEEERS5_m.exit.i.i.i1028

if.then.i.i.i.i.i1025:                            ; preds = %if.else.i.i.i1024
  tail call void @_ZSt28__throw_bad_array_new_lengthB7v170000v() #24
  unreachable

_ZNSt3__119__allocate_at_leastB7v170000INS_9allocatorIiEEEENS_19__allocation_resultINS_16allocator_traitsIT_E7pointerEEERS5_m.exit.i.i.i1028: ; preds = %if.else.i.i.i1024
  %mul.i.i.i.i.i1026 = shl nuw i64 %retval.0.i.i.i1020, 2
  %call.i5.i.i.i.i.i.i1027 = tail call noalias noundef nonnull ptr @_Znwm(i64 noundef %mul.i.i.i.i.i1026) #25
  br label %invoke.cont.i.i1034

invoke.cont.i.i1034:                              ; preds = %_ZNSt3__119__allocate_at_leastB7v170000INS_9allocatorIiEEEENS_19__allocation_resultINS_16allocator_traitsIT_E7pointerEEERS5_m.exit.i.i.i1028, %_ZNKSt3__16vectorIiNS_9allocatorIiEEE11__recommendB7v170000Em.exit.i.i1022
  %storemerge.i.i.i1029 = phi ptr [ %call.i5.i.i.i.i.i.i1027, %_ZNSt3__119__allocate_at_leastB7v170000INS_9allocatorIiEEEENS_19__allocation_resultINS_16allocator_traitsIT_E7pointerEEERS5_m.exit.i.i.i1028 ], [ null, %_ZNKSt3__16vectorIiNS_9allocatorIiEEE11__recommendB7v170000Em.exit.i.i1022 ]
  %storemerge.i.i.i10292611 = ptrtoint ptr %storemerge.i.i.i1029 to i64
  %add.ptr.i.i.i1030 = getelementptr inbounds i32, ptr %storemerge.i.i.i1029, i64 %sub.ptr.div.i.i.i1010
  %add.ptr6.i.i.i1031 = getelementptr inbounds i32, ptr %storemerge.i.i.i1029, i64 %retval.0.i.i.i1020
  store i32 %sub118, ptr %add.ptr.i.i.i1030, align 4, !tbaa !13
  %incdec.ptr.i4.i1032 = getelementptr inbounds i32, ptr %add.ptr.i.i.i1030, i64 1
  %cmp.i.not13.i.i.i.i.i.i.i.i.i1033 = icmp eq ptr %394, %396
  br i1 %cmp.i.not13.i.i.i.i.i.i.i.i.i1033, label %_ZNSt3__114__split_bufferIiRNS_9allocatorIiEEE5clearB7v170000Ev.exit.i.i.i1043, label %while.body.i.i.i.i.i.i.i.i.i1040.preheader

while.body.i.i.i.i.i.i.i.i.i1040.preheader:       ; preds = %invoke.cont.i.i1034
  %397 = add i64 %sub.ptr.lhs.cast.i.i.i1007, -4
  %398 = sub i64 %397, %sub.ptr.rhs.cast.i.i.i1008
  %399 = lshr i64 %398, 2
  %400 = add nuw nsw i64 %399, 1
  %min.iters.check2615 = icmp ult i64 %398, 76
  br i1 %min.iters.check2615, label %while.body.i.i.i.i.i.i.i.i.i1040.preheader3281, label %vector.memcheck2610

vector.memcheck2610:                              ; preds = %while.body.i.i.i.i.i.i.i.i.i1040.preheader
  %401 = add i64 %sub.ptr.sub.i.i.i1009, %storemerge.i.i.i10292611
  %402 = sub i64 %sub.ptr.lhs.cast.i.i.i1007, %401
  %diff.check2612 = icmp ult i64 %402, 32
  br i1 %diff.check2612, label %while.body.i.i.i.i.i.i.i.i.i1040.preheader3281, label %vector.ph2616

vector.ph2616:                                    ; preds = %vector.memcheck2610
  %n.vec2618 = and i64 %400, -8
  %403 = mul i64 %n.vec2618, -4
  %ind.end2619 = getelementptr i8, ptr %add.ptr.i.i.i1030, i64 %403
  %404 = mul i64 %n.vec2618, -4
  %ind.end2621 = getelementptr i8, ptr %394, i64 %404
  br label %vector.body2624

vector.body2624:                                  ; preds = %vector.body2624, %vector.ph2616
  %index2625 = phi i64 [ 0, %vector.ph2616 ], [ %index.next2636, %vector.body2624 ]
  %405 = mul i64 %index2625, -4
  %next.gep2626 = getelementptr i8, ptr %add.ptr.i.i.i1030, i64 %405
  %406 = mul i64 %index2625, -4
  %next.gep2628 = getelementptr i8, ptr %394, i64 %406
  %407 = getelementptr inbounds i32, ptr %next.gep2628, i64 -1
  %408 = getelementptr inbounds i32, ptr %407, i64 -3
  %wide.load2630 = load <4 x i32>, ptr %408, align 4, !tbaa !13, !noalias !218
  %409 = getelementptr inbounds i32, ptr %407, i64 -4
  %410 = getelementptr inbounds i32, ptr %409, i64 -3
  %wide.load2632 = load <4 x i32>, ptr %410, align 4, !tbaa !13, !noalias !218
  %411 = getelementptr inbounds i32, ptr %next.gep2626, i64 -1
  %412 = getelementptr inbounds i32, ptr %411, i64 -3
  store <4 x i32> %wide.load2630, ptr %412, align 4, !tbaa !13, !noalias !218
  %413 = getelementptr inbounds i32, ptr %411, i64 -4
  %414 = getelementptr inbounds i32, ptr %413, i64 -3
  store <4 x i32> %wide.load2632, ptr %414, align 4, !tbaa !13, !noalias !218
  %index.next2636 = add nuw i64 %index2625, 8
  %415 = icmp eq i64 %index.next2636, %n.vec2618
  br i1 %415, label %middle.block2613, label %vector.body2624, !llvm.loop !227

middle.block2613:                                 ; preds = %vector.body2624
  %cmp.n2623 = icmp eq i64 %400, %n.vec2618
  br i1 %cmp.n2623, label %_ZNSt3__114__split_bufferIiRNS_9allocatorIiEEE5clearB7v170000Ev.exit.i.i.i1043, label %while.body.i.i.i.i.i.i.i.i.i1040.preheader3281

while.body.i.i.i.i.i.i.i.i.i1040.preheader3281:   ; preds = %vector.memcheck2610, %while.body.i.i.i.i.i.i.i.i.i1040.preheader, %middle.block2613
  %incdec.ptr.i15.i.i.i.i.i.i.i.i.i1035.ph = phi ptr [ %add.ptr.i.i.i1030, %vector.memcheck2610 ], [ %add.ptr.i.i.i1030, %while.body.i.i.i.i.i.i.i.i.i1040.preheader ], [ %ind.end2619, %middle.block2613 ]
  %__first.sroa.2.014.i.i.i.i.i.i.i.i.i1036.ph = phi ptr [ %394, %vector.memcheck2610 ], [ %394, %while.body.i.i.i.i.i.i.i.i.i1040.preheader ], [ %ind.end2621, %middle.block2613 ]
  br label %while.body.i.i.i.i.i.i.i.i.i1040

while.body.i.i.i.i.i.i.i.i.i1040:                 ; preds = %while.body.i.i.i.i.i.i.i.i.i1040.preheader3281, %while.body.i.i.i.i.i.i.i.i.i1040
  %incdec.ptr.i15.i.i.i.i.i.i.i.i.i1035 = phi ptr [ %incdec.ptr.i.i.i.i.i.i.i.i.i.i1038, %while.body.i.i.i.i.i.i.i.i.i1040 ], [ %incdec.ptr.i15.i.i.i.i.i.i.i.i.i1035.ph, %while.body.i.i.i.i.i.i.i.i.i1040.preheader3281 ]
  %__first.sroa.2.014.i.i.i.i.i.i.i.i.i1036 = phi ptr [ %incdec.ptr.i.i.i.i.i.i.i.i.i.i.i1037, %while.body.i.i.i.i.i.i.i.i.i1040 ], [ %__first.sroa.2.014.i.i.i.i.i.i.i.i.i1036.ph, %while.body.i.i.i.i.i.i.i.i.i1040.preheader3281 ]
  %incdec.ptr.i.i.i.i.i.i.i.i.i.i.i1037 = getelementptr inbounds i32, ptr %__first.sroa.2.014.i.i.i.i.i.i.i.i.i1036, i64 -1
  %416 = load i32, ptr %incdec.ptr.i.i.i.i.i.i.i.i.i.i.i1037, align 4, !tbaa !13, !noalias !218
  %incdec.ptr.i.i.i.i.i.i.i.i.i.i1038 = getelementptr inbounds i32, ptr %incdec.ptr.i15.i.i.i.i.i.i.i.i.i1035, i64 -1
  store i32 %416, ptr %incdec.ptr.i.i.i.i.i.i.i.i.i.i1038, align 4, !tbaa !13, !noalias !218
  %cmp.i.not.i.i.i.i.i.i.i.i.i1039 = icmp eq ptr %incdec.ptr.i.i.i.i.i.i.i.i.i.i.i1037, %396
  br i1 %cmp.i.not.i.i.i.i.i.i.i.i.i1039, label %_ZNSt3__114__split_bufferIiRNS_9allocatorIiEEE5clearB7v170000Ev.exit.i.i.i1043, label %while.body.i.i.i.i.i.i.i.i.i1040, !llvm.loop !228

_ZNSt3__114__split_bufferIiRNS_9allocatorIiEEE5clearB7v170000Ev.exit.i.i.i1043: ; preds = %while.body.i.i.i.i.i.i.i.i.i1040, %middle.block2613, %invoke.cont.i.i1034
  %storemerge.i.i1041 = phi ptr [ %add.ptr.i.i.i1030, %invoke.cont.i.i1034 ], [ %ind.end2619, %middle.block2613 ], [ %incdec.ptr.i.i.i.i.i.i.i.i.i.i1038, %while.body.i.i.i.i.i.i.i.i.i1040 ]
  store ptr %storemerge.i.i1041, ptr %slavemstrpes, align 8, !tbaa !11
  store ptr %incdec.ptr.i4.i1032, ptr %__end_.i1002, align 8, !tbaa !11
  store ptr %add.ptr6.i.i.i1031, ptr %__end_cap_.i.i1003, align 8, !tbaa !11
  %tobool.not.i.i.i1042 = icmp eq ptr %396, null
  br i1 %tobool.not.i.i.i1042, label %_ZNSt3__16vectorIiNS_9allocatorIiEEE9push_backB7v170000ERKi.exit1045, label %if.then.i19.i.i1044

if.then.i19.i.i1044:                              ; preds = %_ZNSt3__114__split_bufferIiRNS_9allocatorIiEEE5clearB7v170000Ev.exit.i.i.i1043
  tail call void @_ZdlPv(ptr noundef nonnull %396) #22
  br label %_ZNSt3__16vectorIiNS_9allocatorIiEEE9push_backB7v170000ERKi.exit1045

_ZNSt3__16vectorIiNS_9allocatorIiEEE9push_backB7v170000ERKi.exit1045: ; preds = %if.then.i1006, %_ZNSt3__114__split_bufferIiRNS_9allocatorIiEEE5clearB7v170000Ev.exit.i.i.i1043, %if.then.i19.i.i1044
  %__end_.i1046 = getelementptr inbounds %"class.std::__1::vector.18", ptr %slavemstrcounts, i64 0, i32 1
  %417 = load ptr, ptr %__end_.i1046, align 8, !tbaa !54
  %__end_cap_.i.i1047 = getelementptr inbounds %"class.std::__1::vector.18", ptr %slavemstrcounts, i64 0, i32 2
  %418 = load ptr, ptr %__end_cap_.i.i1047, align 8, !tbaa !11
  %cmp.i1048 = icmp ult ptr %417, %418
  br i1 %cmp.i1048, label %if.then.i1050, label %if.else.i1057

if.then.i1050:                                    ; preds = %_ZNSt3__16vectorIiNS_9allocatorIiEEE9push_backB7v170000ERKi.exit1045
  store i32 1, ptr %417, align 4, !tbaa !13
  %incdec.ptr.i.i1049 = getelementptr inbounds i32, ptr %417, i64 1
  store ptr %incdec.ptr.i.i1049, ptr %__end_.i1046, align 8, !tbaa !54
  br label %if.end121thread-pre-split

if.else.i1057:                                    ; preds = %_ZNSt3__16vectorIiNS_9allocatorIiEEE9push_backB7v170000ERKi.exit1045
  %419 = load ptr, ptr %slavemstrcounts, align 8, !tbaa !50
  %sub.ptr.lhs.cast.i.i.i1051 = ptrtoint ptr %417 to i64
  %sub.ptr.rhs.cast.i.i.i1052 = ptrtoint ptr %419 to i64
  %sub.ptr.sub.i.i.i1053 = sub i64 %sub.ptr.lhs.cast.i.i.i1051, %sub.ptr.rhs.cast.i.i.i1052
  %sub.ptr.div.i.i.i1054 = ashr exact i64 %sub.ptr.sub.i.i.i1053, 2
  %add.i.i1055 = add nsw i64 %sub.ptr.div.i.i.i1054, 1
  %cmp.i.i.i1056 = icmp ugt i64 %add.i.i1055, 4611686018427387903
  br i1 %cmp.i.i.i1056, label %if.then.i.i.i1058, label %_ZNKSt3__16vectorIiNS_9allocatorIiEEE11__recommendB7v170000Em.exit.i.i1066

if.then.i.i.i1058:                                ; preds = %if.else.i1057
  tail call void @_ZNKSt3__16vectorIiNS_9allocatorIiEEE20__throw_length_errorB7v170000Ev(ptr noundef nonnull align 8 dereferenceable(24) %slavemstrcounts) #24
  unreachable

_ZNKSt3__16vectorIiNS_9allocatorIiEEE11__recommendB7v170000Em.exit.i.i1066: ; preds = %if.else.i1057
  %sub.ptr.lhs.cast.i.i.i.i1059 = ptrtoint ptr %418 to i64
  %sub.ptr.sub.i.i.i.i1060 = sub i64 %sub.ptr.lhs.cast.i.i.i.i1059, %sub.ptr.rhs.cast.i.i.i1052
  %cmp3.not.i.i.i1061 = icmp ult i64 %sub.ptr.sub.i.i.i.i1060, 9223372036854775804
  %mul.i.i.i1062 = lshr exact i64 %sub.ptr.sub.i.i.i.i1060, 1
  %.sroa.speculated.i.i.i1063 = tail call i64 @llvm.umax.i64(i64 %mul.i.i.i1062, i64 %add.i.i1055)
  %retval.0.i.i.i1064 = select i1 %cmp3.not.i.i.i1061, i64 %.sroa.speculated.i.i.i1063, i64 4611686018427387903
  %cmp.i16.i.i1065 = icmp eq i64 %retval.0.i.i.i1064, 0
  br i1 %cmp.i16.i.i1065, label %invoke.cont.i.i1078, label %if.else.i.i.i1068

if.else.i.i.i1068:                                ; preds = %_ZNKSt3__16vectorIiNS_9allocatorIiEEE11__recommendB7v170000Em.exit.i.i1066
  %cmp.i.i.i.i.i1067 = icmp ugt i64 %retval.0.i.i.i1064, 4611686018427387903
  br i1 %cmp.i.i.i.i.i1067, label %if.then.i.i.i.i.i1069, label %_ZNSt3__119__allocate_at_leastB7v170000INS_9allocatorIiEEEENS_19__allocation_resultINS_16allocator_traitsIT_E7pointerEEERS5_m.exit.i.i.i1072

if.then.i.i.i.i.i1069:                            ; preds = %if.else.i.i.i1068
  tail call void @_ZSt28__throw_bad_array_new_lengthB7v170000v() #24
  unreachable

_ZNSt3__119__allocate_at_leastB7v170000INS_9allocatorIiEEEENS_19__allocation_resultINS_16allocator_traitsIT_E7pointerEEERS5_m.exit.i.i.i1072: ; preds = %if.else.i.i.i1068
  %mul.i.i.i.i.i1070 = shl nuw i64 %retval.0.i.i.i1064, 2
  %call.i5.i.i.i.i.i.i1071 = tail call noalias noundef nonnull ptr @_Znwm(i64 noundef %mul.i.i.i.i.i1070) #25
  br label %invoke.cont.i.i1078

invoke.cont.i.i1078:                              ; preds = %_ZNSt3__119__allocate_at_leastB7v170000INS_9allocatorIiEEEENS_19__allocation_resultINS_16allocator_traitsIT_E7pointerEEERS5_m.exit.i.i.i1072, %_ZNKSt3__16vectorIiNS_9allocatorIiEEE11__recommendB7v170000Em.exit.i.i1066
  %storemerge.i.i.i1073 = phi ptr [ %call.i5.i.i.i.i.i.i1071, %_ZNSt3__119__allocate_at_leastB7v170000INS_9allocatorIiEEEENS_19__allocation_resultINS_16allocator_traitsIT_E7pointerEEERS5_m.exit.i.i.i1072 ], [ null, %_ZNKSt3__16vectorIiNS_9allocatorIiEEE11__recommendB7v170000Em.exit.i.i1066 ]
  %storemerge.i.i.i10732638 = ptrtoint ptr %storemerge.i.i.i1073 to i64
  %add.ptr.i.i.i1074 = getelementptr inbounds i32, ptr %storemerge.i.i.i1073, i64 %sub.ptr.div.i.i.i1054
  %add.ptr6.i.i.i1075 = getelementptr inbounds i32, ptr %storemerge.i.i.i1073, i64 %retval.0.i.i.i1064
  store i32 1, ptr %add.ptr.i.i.i1074, align 4, !tbaa !13
  %incdec.ptr.i4.i1076 = getelementptr inbounds i32, ptr %add.ptr.i.i.i1074, i64 1
  %cmp.i.not13.i.i.i.i.i.i.i.i.i1077 = icmp eq ptr %417, %419
  br i1 %cmp.i.not13.i.i.i.i.i.i.i.i.i1077, label %_ZNSt3__114__split_bufferIiRNS_9allocatorIiEEE5clearB7v170000Ev.exit.i.i.i1087, label %while.body.i.i.i.i.i.i.i.i.i1084.preheader

while.body.i.i.i.i.i.i.i.i.i1084.preheader:       ; preds = %invoke.cont.i.i1078
  %420 = add i64 %sub.ptr.lhs.cast.i.i.i1051, -4
  %421 = sub i64 %420, %sub.ptr.rhs.cast.i.i.i1052
  %422 = lshr i64 %421, 2
  %423 = add nuw nsw i64 %422, 1
  %min.iters.check2642 = icmp ult i64 %421, 76
  br i1 %min.iters.check2642, label %while.body.i.i.i.i.i.i.i.i.i1084.preheader3280, label %vector.memcheck2637

vector.memcheck2637:                              ; preds = %while.body.i.i.i.i.i.i.i.i.i1084.preheader
  %424 = add i64 %sub.ptr.sub.i.i.i1053, %storemerge.i.i.i10732638
  %425 = sub i64 %sub.ptr.lhs.cast.i.i.i1051, %424
  %diff.check2639 = icmp ult i64 %425, 32
  br i1 %diff.check2639, label %while.body.i.i.i.i.i.i.i.i.i1084.preheader3280, label %vector.ph2643

vector.ph2643:                                    ; preds = %vector.memcheck2637
  %n.vec2645 = and i64 %423, -8
  %426 = mul i64 %n.vec2645, -4
  %ind.end2646 = getelementptr i8, ptr %add.ptr.i.i.i1074, i64 %426
  %427 = mul i64 %n.vec2645, -4
  %ind.end2648 = getelementptr i8, ptr %417, i64 %427
  br label %vector.body2651

vector.body2651:                                  ; preds = %vector.body2651, %vector.ph2643
  %index2652 = phi i64 [ 0, %vector.ph2643 ], [ %index.next2663, %vector.body2651 ]
  %428 = mul i64 %index2652, -4
  %next.gep2653 = getelementptr i8, ptr %add.ptr.i.i.i1074, i64 %428
  %429 = mul i64 %index2652, -4
  %next.gep2655 = getelementptr i8, ptr %417, i64 %429
  %430 = getelementptr inbounds i32, ptr %next.gep2655, i64 -1
  %431 = getelementptr inbounds i32, ptr %430, i64 -3
  %wide.load2657 = load <4 x i32>, ptr %431, align 4, !tbaa !13, !noalias !229
  %432 = getelementptr inbounds i32, ptr %430, i64 -4
  %433 = getelementptr inbounds i32, ptr %432, i64 -3
  %wide.load2659 = load <4 x i32>, ptr %433, align 4, !tbaa !13, !noalias !229
  %434 = getelementptr inbounds i32, ptr %next.gep2653, i64 -1
  %435 = getelementptr inbounds i32, ptr %434, i64 -3
  store <4 x i32> %wide.load2657, ptr %435, align 4, !tbaa !13, !noalias !229
  %436 = getelementptr inbounds i32, ptr %434, i64 -4
  %437 = getelementptr inbounds i32, ptr %436, i64 -3
  store <4 x i32> %wide.load2659, ptr %437, align 4, !tbaa !13, !noalias !229
  %index.next2663 = add nuw i64 %index2652, 8
  %438 = icmp eq i64 %index.next2663, %n.vec2645
  br i1 %438, label %middle.block2640, label %vector.body2651, !llvm.loop !238

middle.block2640:                                 ; preds = %vector.body2651
  %cmp.n2650 = icmp eq i64 %423, %n.vec2645
  br i1 %cmp.n2650, label %_ZNSt3__114__split_bufferIiRNS_9allocatorIiEEE5clearB7v170000Ev.exit.i.i.i1087, label %while.body.i.i.i.i.i.i.i.i.i1084.preheader3280

while.body.i.i.i.i.i.i.i.i.i1084.preheader3280:   ; preds = %vector.memcheck2637, %while.body.i.i.i.i.i.i.i.i.i1084.preheader, %middle.block2640
  %incdec.ptr.i15.i.i.i.i.i.i.i.i.i1079.ph = phi ptr [ %add.ptr.i.i.i1074, %vector.memcheck2637 ], [ %add.ptr.i.i.i1074, %while.body.i.i.i.i.i.i.i.i.i1084.preheader ], [ %ind.end2646, %middle.block2640 ]
  %__first.sroa.2.014.i.i.i.i.i.i.i.i.i1080.ph = phi ptr [ %417, %vector.memcheck2637 ], [ %417, %while.body.i.i.i.i.i.i.i.i.i1084.preheader ], [ %ind.end2648, %middle.block2640 ]
  br label %while.body.i.i.i.i.i.i.i.i.i1084

while.body.i.i.i.i.i.i.i.i.i1084:                 ; preds = %while.body.i.i.i.i.i.i.i.i.i1084.preheader3280, %while.body.i.i.i.i.i.i.i.i.i1084
  %incdec.ptr.i15.i.i.i.i.i.i.i.i.i1079 = phi ptr [ %incdec.ptr.i.i.i.i.i.i.i.i.i.i1082, %while.body.i.i.i.i.i.i.i.i.i1084 ], [ %incdec.ptr.i15.i.i.i.i.i.i.i.i.i1079.ph, %while.body.i.i.i.i.i.i.i.i.i1084.preheader3280 ]
  %__first.sroa.2.014.i.i.i.i.i.i.i.i.i1080 = phi ptr [ %incdec.ptr.i.i.i.i.i.i.i.i.i.i.i1081, %while.body.i.i.i.i.i.i.i.i.i1084 ], [ %__first.sroa.2.014.i.i.i.i.i.i.i.i.i1080.ph, %while.body.i.i.i.i.i.i.i.i.i1084.preheader3280 ]
  %incdec.ptr.i.i.i.i.i.i.i.i.i.i.i1081 = getelementptr inbounds i32, ptr %__first.sroa.2.014.i.i.i.i.i.i.i.i.i1080, i64 -1
  %439 = load i32, ptr %incdec.ptr.i.i.i.i.i.i.i.i.i.i.i1081, align 4, !tbaa !13, !noalias !229
  %incdec.ptr.i.i.i.i.i.i.i.i.i.i1082 = getelementptr inbounds i32, ptr %incdec.ptr.i15.i.i.i.i.i.i.i.i.i1079, i64 -1
  store i32 %439, ptr %incdec.ptr.i.i.i.i.i.i.i.i.i.i1082, align 4, !tbaa !13, !noalias !229
  %cmp.i.not.i.i.i.i.i.i.i.i.i1083 = icmp eq ptr %incdec.ptr.i.i.i.i.i.i.i.i.i.i.i1081, %419
  br i1 %cmp.i.not.i.i.i.i.i.i.i.i.i1083, label %_ZNSt3__114__split_bufferIiRNS_9allocatorIiEEE5clearB7v170000Ev.exit.i.i.i1087, label %while.body.i.i.i.i.i.i.i.i.i1084, !llvm.loop !239

_ZNSt3__114__split_bufferIiRNS_9allocatorIiEEE5clearB7v170000Ev.exit.i.i.i1087: ; preds = %while.body.i.i.i.i.i.i.i.i.i1084, %middle.block2640, %invoke.cont.i.i1078
  %storemerge.i.i1085 = phi ptr [ %add.ptr.i.i.i1074, %invoke.cont.i.i1078 ], [ %ind.end2646, %middle.block2640 ], [ %incdec.ptr.i.i.i.i.i.i.i.i.i.i1082, %while.body.i.i.i.i.i.i.i.i.i1084 ]
  store ptr %storemerge.i.i1085, ptr %slavemstrcounts, align 8, !tbaa !11
  store ptr %incdec.ptr.i4.i1076, ptr %__end_.i1046, align 8, !tbaa !11
  store ptr %add.ptr6.i.i.i1075, ptr %__end_cap_.i.i1047, align 8, !tbaa !11
  %tobool.not.i.i.i1086 = icmp eq ptr %419, null
  br i1 %tobool.not.i.i.i1086, label %if.end121thread-pre-split, label %if.then.i19.i.i1088

if.then.i19.i.i1088:                              ; preds = %_ZNSt3__114__split_bufferIiRNS_9allocatorIiEEE5clearB7v170000Ev.exit.i.i.i1087
  tail call void @_ZdlPv(ptr noundef nonnull %419) #22
  br label %if.end121thread-pre-split

if.end121thread-pre-split:                        ; preds = %if.then.i1050, %_ZNSt3__114__split_bufferIiRNS_9allocatorIiEEE5clearB7v170000Ev.exit.i.i.i1087, %if.then.i19.i.i1088
  %.pr = load i32, ptr %mypey, align 4, !tbaa !39
  br label %if.end121

if.end121:                                        ; preds = %if.end121thread-pre-split, %_ZNSt3__16vectorIiNS_9allocatorIiEEE7reserveEm.exit957
  %440 = phi i32 [ %.pr, %if.end121thread-pre-split ], [ %367, %_ZNSt3__16vectorIiNS_9allocatorIiEEE7reserveEm.exit957 ]
  %cmp123.not = icmp eq i32 %440, 0
  br i1 %cmp123.not, label %if.end151, label %if.then124

if.then124:                                       ; preds = %if.end121
  %441 = load i32, ptr @_ZN8Parallel4mypeE, align 4, !tbaa !13
  %442 = load i32, ptr %numpex, align 8, !tbaa !36
  %sub127 = sub nsw i32 %441, %442
  %__end_.i1090 = getelementptr inbounds %"class.std::__1::vector.18", ptr %slavepoints, i64 0, i32 1
  %443 = load ptr, ptr %__end_.i1090, align 8, !tbaa !54
  %444 = load ptr, ptr %slavepoints, align 8, !tbaa !50
  %sub.ptr.lhs.cast.i1091 = ptrtoint ptr %443 to i64
  %sub.ptr.rhs.cast.i1092 = ptrtoint ptr %444 to i64
  %sub.ptr.sub.i1093 = sub i64 %sub.ptr.lhs.cast.i1091, %sub.ptr.rhs.cast.i1092
  %445 = lshr exact i64 %sub.ptr.sub.i1093, 2
  %cmp132.not2154 = icmp slt i32 %0, 0
  br i1 %cmp132.not2154, label %for.cond.cleanup133, label %for.body134

for.cond.cleanup133:                              ; preds = %for.inc143, %if.then124
  %__end_.i1095 = getelementptr inbounds %"class.std::__1::vector.18", ptr %slavemstrpes, i64 0, i32 1
  %446 = load ptr, ptr %__end_.i1095, align 8, !tbaa !54
  %__end_cap_.i.i1096 = getelementptr inbounds %"class.std::__1::vector.18", ptr %slavemstrpes, i64 0, i32 2
  %447 = load ptr, ptr %__end_cap_.i.i1096, align 8, !tbaa !11
  %cmp.not.i1097 = icmp eq ptr %446, %447
  br i1 %cmp.not.i1097, label %if.else.i1106, label %if.then.i1099

if.then.i1099:                                    ; preds = %for.cond.cleanup133
  store i32 %sub127, ptr %446, align 4, !tbaa !13
  %incdec.ptr.i.i1098 = getelementptr inbounds i32, ptr %446, i64 1
  store ptr %incdec.ptr.i.i1098, ptr %__end_.i1095, align 8, !tbaa !54
  br label %_ZNSt3__16vectorIiNS_9allocatorIiEEE9push_backB7v170000ERKi.exit1138

if.else.i1106:                                    ; preds = %for.cond.cleanup133
  %448 = load ptr, ptr %slavemstrpes, align 8, !tbaa !50
  %sub.ptr.lhs.cast.i.i.i1100 = ptrtoint ptr %446 to i64
  %sub.ptr.rhs.cast.i.i.i1101 = ptrtoint ptr %448 to i64
  %sub.ptr.sub.i.i.i1102 = sub i64 %sub.ptr.lhs.cast.i.i.i1100, %sub.ptr.rhs.cast.i.i.i1101
  %sub.ptr.div.i.i.i1103 = ashr exact i64 %sub.ptr.sub.i.i.i1102, 2
  %add.i.i1104 = add nsw i64 %sub.ptr.div.i.i.i1103, 1
  %cmp.i.i.i1105 = icmp ugt i64 %add.i.i1104, 4611686018427387903
  br i1 %cmp.i.i.i1105, label %if.then.i.i.i1107, label %_ZNKSt3__16vectorIiNS_9allocatorIiEEE11__recommendB7v170000Em.exit.i.i1115

if.then.i.i.i1107:                                ; preds = %if.else.i1106
  tail call void @_ZNKSt3__16vectorIiNS_9allocatorIiEEE20__throw_length_errorB7v170000Ev(ptr noundef nonnull align 8 dereferenceable(24) %slavemstrpes) #24
  unreachable

_ZNKSt3__16vectorIiNS_9allocatorIiEEE11__recommendB7v170000Em.exit.i.i1115: ; preds = %if.else.i1106
  %sub.ptr.lhs.cast.i.i.i.i1108 = ptrtoint ptr %447 to i64
  %sub.ptr.sub.i.i.i.i1109 = sub i64 %sub.ptr.lhs.cast.i.i.i.i1108, %sub.ptr.rhs.cast.i.i.i1101
  %cmp3.not.i.i.i1110 = icmp ult i64 %sub.ptr.sub.i.i.i.i1109, 9223372036854775804
  %mul.i.i.i1111 = lshr exact i64 %sub.ptr.sub.i.i.i.i1109, 1
  %.sroa.speculated.i.i.i1112 = tail call i64 @llvm.umax.i64(i64 %mul.i.i.i1111, i64 %add.i.i1104)
  %retval.0.i.i.i1113 = select i1 %cmp3.not.i.i.i1110, i64 %.sroa.speculated.i.i.i1112, i64 4611686018427387903
  %cmp.i16.i.i1114 = icmp eq i64 %retval.0.i.i.i1113, 0
  br i1 %cmp.i16.i.i1114, label %invoke.cont.i.i1127, label %if.else.i.i.i1117

if.else.i.i.i1117:                                ; preds = %_ZNKSt3__16vectorIiNS_9allocatorIiEEE11__recommendB7v170000Em.exit.i.i1115
  %cmp.i.i.i.i.i1116 = icmp ugt i64 %retval.0.i.i.i1113, 4611686018427387903
  br i1 %cmp.i.i.i.i.i1116, label %if.then.i.i.i.i.i1118, label %_ZNSt3__119__allocate_at_leastB7v170000INS_9allocatorIiEEEENS_19__allocation_resultINS_16allocator_traitsIT_E7pointerEEERS5_m.exit.i.i.i1121

if.then.i.i.i.i.i1118:                            ; preds = %if.else.i.i.i1117
  tail call void @_ZSt28__throw_bad_array_new_lengthB7v170000v() #24
  unreachable

_ZNSt3__119__allocate_at_leastB7v170000INS_9allocatorIiEEEENS_19__allocation_resultINS_16allocator_traitsIT_E7pointerEEERS5_m.exit.i.i.i1121: ; preds = %if.else.i.i.i1117
  %mul.i.i.i.i.i1119 = shl nuw i64 %retval.0.i.i.i1113, 2
  %call.i5.i.i.i.i.i.i1120 = tail call noalias noundef nonnull ptr @_Znwm(i64 noundef %mul.i.i.i.i.i1119) #25
  br label %invoke.cont.i.i1127

invoke.cont.i.i1127:                              ; preds = %_ZNSt3__119__allocate_at_leastB7v170000INS_9allocatorIiEEEENS_19__allocation_resultINS_16allocator_traitsIT_E7pointerEEERS5_m.exit.i.i.i1121, %_ZNKSt3__16vectorIiNS_9allocatorIiEEE11__recommendB7v170000Em.exit.i.i1115
  %storemerge.i.i.i1122 = phi ptr [ %call.i5.i.i.i.i.i.i1120, %_ZNSt3__119__allocate_at_leastB7v170000INS_9allocatorIiEEEENS_19__allocation_resultINS_16allocator_traitsIT_E7pointerEEERS5_m.exit.i.i.i1121 ], [ null, %_ZNKSt3__16vectorIiNS_9allocatorIiEEE11__recommendB7v170000Em.exit.i.i1115 ]
  %storemerge.i.i.i11222692 = ptrtoint ptr %storemerge.i.i.i1122 to i64
  %add.ptr.i.i.i1123 = getelementptr inbounds i32, ptr %storemerge.i.i.i1122, i64 %sub.ptr.div.i.i.i1103
  %add.ptr6.i.i.i1124 = getelementptr inbounds i32, ptr %storemerge.i.i.i1122, i64 %retval.0.i.i.i1113
  store i32 %sub127, ptr %add.ptr.i.i.i1123, align 4, !tbaa !13
  %incdec.ptr.i4.i1125 = getelementptr inbounds i32, ptr %add.ptr.i.i.i1123, i64 1
  %cmp.i.not13.i.i.i.i.i.i.i.i.i1126 = icmp eq ptr %446, %448
  br i1 %cmp.i.not13.i.i.i.i.i.i.i.i.i1126, label %_ZNSt3__114__split_bufferIiRNS_9allocatorIiEEE5clearB7v170000Ev.exit.i.i.i1136, label %while.body.i.i.i.i.i.i.i.i.i1133.preheader

while.body.i.i.i.i.i.i.i.i.i1133.preheader:       ; preds = %invoke.cont.i.i1127
  %449 = add i64 %sub.ptr.lhs.cast.i.i.i1100, -4
  %450 = sub i64 %449, %sub.ptr.rhs.cast.i.i.i1101
  %451 = lshr i64 %450, 2
  %452 = add nuw nsw i64 %451, 1
  %min.iters.check2696 = icmp ult i64 %450, 76
  br i1 %min.iters.check2696, label %while.body.i.i.i.i.i.i.i.i.i1133.preheader3278, label %vector.memcheck2691

vector.memcheck2691:                              ; preds = %while.body.i.i.i.i.i.i.i.i.i1133.preheader
  %453 = add i64 %sub.ptr.sub.i.i.i1102, %storemerge.i.i.i11222692
  %454 = sub i64 %sub.ptr.lhs.cast.i.i.i1100, %453
  %diff.check2693 = icmp ult i64 %454, 32
  br i1 %diff.check2693, label %while.body.i.i.i.i.i.i.i.i.i1133.preheader3278, label %vector.ph2697

vector.ph2697:                                    ; preds = %vector.memcheck2691
  %n.vec2699 = and i64 %452, -8
  %455 = mul i64 %n.vec2699, -4
  %ind.end2700 = getelementptr i8, ptr %add.ptr.i.i.i1123, i64 %455
  %456 = mul i64 %n.vec2699, -4
  %ind.end2702 = getelementptr i8, ptr %446, i64 %456
  br label %vector.body2705

vector.body2705:                                  ; preds = %vector.body2705, %vector.ph2697
  %index2706 = phi i64 [ 0, %vector.ph2697 ], [ %index.next2717, %vector.body2705 ]
  %457 = mul i64 %index2706, -4
  %next.gep2707 = getelementptr i8, ptr %add.ptr.i.i.i1123, i64 %457
  %458 = mul i64 %index2706, -4
  %next.gep2709 = getelementptr i8, ptr %446, i64 %458
  %459 = getelementptr inbounds i32, ptr %next.gep2709, i64 -1
  %460 = getelementptr inbounds i32, ptr %459, i64 -3
  %wide.load2711 = load <4 x i32>, ptr %460, align 4, !tbaa !13, !noalias !240
  %461 = getelementptr inbounds i32, ptr %459, i64 -4
  %462 = getelementptr inbounds i32, ptr %461, i64 -3
  %wide.load2713 = load <4 x i32>, ptr %462, align 4, !tbaa !13, !noalias !240
  %463 = getelementptr inbounds i32, ptr %next.gep2707, i64 -1
  %464 = getelementptr inbounds i32, ptr %463, i64 -3
  store <4 x i32> %wide.load2711, ptr %464, align 4, !tbaa !13, !noalias !240
  %465 = getelementptr inbounds i32, ptr %463, i64 -4
  %466 = getelementptr inbounds i32, ptr %465, i64 -3
  store <4 x i32> %wide.load2713, ptr %466, align 4, !tbaa !13, !noalias !240
  %index.next2717 = add nuw i64 %index2706, 8
  %467 = icmp eq i64 %index.next2717, %n.vec2699
  br i1 %467, label %middle.block2694, label %vector.body2705, !llvm.loop !249

middle.block2694:                                 ; preds = %vector.body2705
  %cmp.n2704 = icmp eq i64 %452, %n.vec2699
  br i1 %cmp.n2704, label %_ZNSt3__114__split_bufferIiRNS_9allocatorIiEEE5clearB7v170000Ev.exit.i.i.i1136, label %while.body.i.i.i.i.i.i.i.i.i1133.preheader3278

while.body.i.i.i.i.i.i.i.i.i1133.preheader3278:   ; preds = %vector.memcheck2691, %while.body.i.i.i.i.i.i.i.i.i1133.preheader, %middle.block2694
  %incdec.ptr.i15.i.i.i.i.i.i.i.i.i1128.ph = phi ptr [ %add.ptr.i.i.i1123, %vector.memcheck2691 ], [ %add.ptr.i.i.i1123, %while.body.i.i.i.i.i.i.i.i.i1133.preheader ], [ %ind.end2700, %middle.block2694 ]
  %__first.sroa.2.014.i.i.i.i.i.i.i.i.i1129.ph = phi ptr [ %446, %vector.memcheck2691 ], [ %446, %while.body.i.i.i.i.i.i.i.i.i1133.preheader ], [ %ind.end2702, %middle.block2694 ]
  br label %while.body.i.i.i.i.i.i.i.i.i1133

while.body.i.i.i.i.i.i.i.i.i1133:                 ; preds = %while.body.i.i.i.i.i.i.i.i.i1133.preheader3278, %while.body.i.i.i.i.i.i.i.i.i1133
  %incdec.ptr.i15.i.i.i.i.i.i.i.i.i1128 = phi ptr [ %incdec.ptr.i.i.i.i.i.i.i.i.i.i1131, %while.body.i.i.i.i.i.i.i.i.i1133 ], [ %incdec.ptr.i15.i.i.i.i.i.i.i.i.i1128.ph, %while.body.i.i.i.i.i.i.i.i.i1133.preheader3278 ]
  %__first.sroa.2.014.i.i.i.i.i.i.i.i.i1129 = phi ptr [ %incdec.ptr.i.i.i.i.i.i.i.i.i.i.i1130, %while.body.i.i.i.i.i.i.i.i.i1133 ], [ %__first.sroa.2.014.i.i.i.i.i.i.i.i.i1129.ph, %while.body.i.i.i.i.i.i.i.i.i1133.preheader3278 ]
  %incdec.ptr.i.i.i.i.i.i.i.i.i.i.i1130 = getelementptr inbounds i32, ptr %__first.sroa.2.014.i.i.i.i.i.i.i.i.i1129, i64 -1
  %468 = load i32, ptr %incdec.ptr.i.i.i.i.i.i.i.i.i.i.i1130, align 4, !tbaa !13, !noalias !240
  %incdec.ptr.i.i.i.i.i.i.i.i.i.i1131 = getelementptr inbounds i32, ptr %incdec.ptr.i15.i.i.i.i.i.i.i.i.i1128, i64 -1
  store i32 %468, ptr %incdec.ptr.i.i.i.i.i.i.i.i.i.i1131, align 4, !tbaa !13, !noalias !240
  %cmp.i.not.i.i.i.i.i.i.i.i.i1132 = icmp eq ptr %incdec.ptr.i.i.i.i.i.i.i.i.i.i.i1130, %448
  br i1 %cmp.i.not.i.i.i.i.i.i.i.i.i1132, label %_ZNSt3__114__split_bufferIiRNS_9allocatorIiEEE5clearB7v170000Ev.exit.i.i.i1136, label %while.body.i.i.i.i.i.i.i.i.i1133, !llvm.loop !250

_ZNSt3__114__split_bufferIiRNS_9allocatorIiEEE5clearB7v170000Ev.exit.i.i.i1136: ; preds = %while.body.i.i.i.i.i.i.i.i.i1133, %middle.block2694, %invoke.cont.i.i1127
  %storemerge.i.i1134 = phi ptr [ %add.ptr.i.i.i1123, %invoke.cont.i.i1127 ], [ %ind.end2700, %middle.block2694 ], [ %incdec.ptr.i.i.i.i.i.i.i.i.i.i1131, %while.body.i.i.i.i.i.i.i.i.i1133 ]
  store ptr %storemerge.i.i1134, ptr %slavemstrpes, align 8, !tbaa !11
  store ptr %incdec.ptr.i4.i1125, ptr %__end_.i1095, align 8, !tbaa !11
  store ptr %add.ptr6.i.i.i1124, ptr %__end_cap_.i.i1096, align 8, !tbaa !11
  %tobool.not.i.i.i1135 = icmp eq ptr %448, null
  br i1 %tobool.not.i.i.i1135, label %_ZNSt3__16vectorIiNS_9allocatorIiEEE9push_backB7v170000ERKi.exit1138, label %if.then.i19.i.i1137

if.then.i19.i.i1137:                              ; preds = %_ZNSt3__114__split_bufferIiRNS_9allocatorIiEEE5clearB7v170000Ev.exit.i.i.i1136
  tail call void @_ZdlPv(ptr noundef nonnull %448) #22
  br label %_ZNSt3__16vectorIiNS_9allocatorIiEEE9push_backB7v170000ERKi.exit1138

_ZNSt3__16vectorIiNS_9allocatorIiEEE9push_backB7v170000ERKi.exit1138: ; preds = %if.then.i1099, %_ZNSt3__114__split_bufferIiRNS_9allocatorIiEEE5clearB7v170000Ev.exit.i.i.i1136, %if.then.i19.i.i1137
  %469 = load ptr, ptr %__end_.i1090, align 8, !tbaa !54
  %470 = load ptr, ptr %slavepoints, align 8, !tbaa !50
  %sub.ptr.lhs.cast.i1140 = ptrtoint ptr %469 to i64
  %sub.ptr.rhs.cast.i1141 = ptrtoint ptr %470 to i64
  %sub.ptr.sub.i1142 = sub i64 %sub.ptr.lhs.cast.i1140, %sub.ptr.rhs.cast.i1141
  %471 = lshr exact i64 %sub.ptr.sub.i1142, 2
  %sub149 = sub nsw i64 %471, %445
  %conv150 = trunc i64 %sub149 to i32
  %__end_.i1144 = getelementptr inbounds %"class.std::__1::vector.18", ptr %slavemstrcounts, i64 0, i32 1
  %472 = load ptr, ptr %__end_.i1144, align 8, !tbaa !54
  %__end_cap_.i.i1145 = getelementptr inbounds %"class.std::__1::vector.18", ptr %slavemstrcounts, i64 0, i32 2
