; ModuleID = '/local/mnt2/workspace2/mnadeem/llvm/llvm-test-suite/MultiSource/Benchmarks/DOE-ProxyApps-C++/CLAMR/Restartblock.cc'
source_filename = "/local/mnt2/workspace2/mnadeem/llvm/llvm-test-suite/MultiSource/Benchmarks/DOE-ProxyApps-C++/CLAMR/Restartblock.cc"
target datalayout = "e-m:e-p270:32:32-p271:32:32-p272:64:64-i64:64-f80:128-n8:16:32:64-S128"
target triple = "x86_64-unknown-linux-gnu"

%"class.std::__1::locale::id" = type <{ %"struct.std::__1::once_flag", i32, [4 x i8] }>
%"struct.std::__1::once_flag" = type { i64 }
%"class.PP::Restartblock" = type { %"class.std::__1::deque", %"class.std::__1::deque", %"class.std::__1::deque", %"class.std::__1::deque", %"class.std::__1::deque.2", %"class.std::__1::deque.27", i32, %"class.std::__1::basic_string" }
%"class.std::__1::deque" = type { %"struct.std::__1::__split_buffer", i64, %"class.std::__1::__compressed_pair.22" }
%"struct.std::__1::__split_buffer" = type { ptr, ptr, ptr, %"class.std::__1::__compressed_pair.16" }
%"class.std::__1::__compressed_pair.16" = type { %"struct.std::__1::__compressed_pair_elem.17" }
%"struct.std::__1::__compressed_pair_elem.17" = type { ptr }
%"class.std::__1::__compressed_pair.22" = type { %"struct.std::__1::__compressed_pair_elem.11" }
%"struct.std::__1::__compressed_pair_elem.11" = type { i64 }
%"class.std::__1::deque.2" = type { %"struct.std::__1::__split_buffer.3", i64, %"class.std::__1::__compressed_pair.10" }
%"struct.std::__1::__split_buffer.3" = type { ptr, ptr, ptr, %"class.std::__1::__compressed_pair.4" }
%"class.std::__1::__compressed_pair.4" = type { %"struct.std::__1::__compressed_pair_elem.5" }
%"struct.std::__1::__compressed_pair_elem.5" = type { ptr }
%"class.std::__1::__compressed_pair.10" = type { %"struct.std::__1::__compressed_pair_elem.11" }
%"class.std::__1::deque.27" = type { %"struct.std::__1::__split_buffer.28", i64, %"class.std::__1::__compressed_pair.35" }
%"struct.std::__1::__split_buffer.28" = type { ptr, ptr, ptr, %"class.std::__1::__compressed_pair.29" }
%"class.std::__1::__compressed_pair.29" = type { %"struct.std::__1::__compressed_pair_elem.30" }
%"struct.std::__1::__compressed_pair_elem.30" = type { ptr }
%"class.std::__1::__compressed_pair.35" = type { %"struct.std::__1::__compressed_pair_elem.11" }
%"class.std::__1::basic_string" = type { %"class.std::__1::__compressed_pair" }
%"class.std::__1::__compressed_pair" = type { %"struct.std::__1::__compressed_pair_elem" }
%"struct.std::__1::__compressed_pair_elem" = type { %"struct.std::__1::basic_string<char>::__rep" }
%"struct.std::__1::basic_string<char>::__rep" = type { %union.anon }
%union.anon = type { %"struct.std::__1::basic_string<char>::__long" }
%"struct.std::__1::basic_string<char>::__long" = type { %struct.anon, i64, ptr }
%struct.anon = type { i64 }
%"class.std::__1::locale" = type { ptr }
%"class.PP::Cmd" = type { i32, i32, %"class.std::__1::basic_string", ptr, %"class.std::__1::basic_string", ptr, ptr, %"class.std::__1::basic_string", %"class.std::__1::basic_string", %"class.std::__1::deque", %"class.std::__1::basic_string", %"class.std::__1::basic_string", %"class.std::__1::vector", %"class.std::__1::vector", %"class.std::__1::vector.43", %"class.std::__1::vector.43" }
%"class.std::__1::vector" = type { ptr, ptr, %"class.std::__1::__compressed_pair.41" }
%"class.std::__1::__compressed_pair.41" = type { %"struct.std::__1::__compressed_pair_elem.42" }
%"struct.std::__1::__compressed_pair_elem.42" = type { ptr }
%"class.std::__1::vector.43" = type { ptr, i64, %"class.std::__1::__compressed_pair.44" }
%"class.std::__1::__compressed_pair.44" = type { %"struct.std::__1::__compressed_pair_elem.11" }
%"class.PP::Word" = type { %"class.std::__1::basic_string", i32, i8, i8, i32, i32, %"class.std::__1::basic_string", i32, i32, %"class.std::__1::basic_string", ptr }
%"struct.std::__1::basic_string<char>::__short" = type { %struct.anon.0, [0 x i8], [23 x i8] }
%struct.anon.0 = type { i8 }
%"class.std::__1::deque.49" = type { %"struct.std::__1::__split_buffer.50", i64, %"class.std::__1::__compressed_pair.57" }
%"struct.std::__1::__split_buffer.50" = type { ptr, ptr, ptr, %"class.std::__1::__compressed_pair.51" }
%"class.std::__1::__compressed_pair.51" = type { %"struct.std::__1::__compressed_pair_elem.52" }
%"struct.std::__1::__compressed_pair_elem.52" = type { ptr }
%"class.std::__1::__compressed_pair.57" = type { %"struct.std::__1::__compressed_pair_elem.11" }
%"class.PP::Parser_math" = type { i8 }
%"struct.std::__1::pair.103" = type { %"class.std::__1::__deque_iterator", %"class.std::__1::__deque_iterator" }
%"class.std::__1::__deque_iterator" = type { ptr, ptr }
%"struct.std::__1::__overload.78" = type { i8 }
%"struct.std::__1::__overload.79" = type { i8 }
%"class.std::__1::basic_ostream<char>::sentry" = type { i8, ptr }
%"class.std::__1::ios_base" = type { ptr, i32, i64, i64, i32, i32, ptr, ptr, ptr, ptr, i64, i64, ptr, i64, i64, ptr, i64, i64 }
%"class.std::__1::basic_ios" = type <{ %"class.std::__1::ios_base", ptr, i32, [4 x i8] }>

$_ZNSt3__15dequeIbNS_9allocatorIbEEED2B7v170000Ev = comdat any

$_ZNSt3__15dequeINS_12basic_stringIcNS_11char_traitsIcEENS_9allocatorIcEEEENS4_IS6_EEED2B7v170000Ev = comdat any

$_ZNSt3__15dequeIN2PP4WordENS_9allocatorIS2_EEED2B7v170000Ev = comdat any

$_ZNSt3__15dequeIN2PP4WordENS_9allocatorIS2_EEE5eraseENS_16__deque_iteratorIS2_PKS2_RS7_PKS8_lLl39EEESC_ = comdat any

$_ZNSt3__15dequeIN2PP4WordENS_9allocatorIS2_EEE6insertENS_16__deque_iteratorIS2_PKS2_RS7_PKS8_lLl39EEES9_ = comdat any

$__clang_call_terminate = comdat any

$_ZSt28__throw_bad_array_new_lengthB7v170000v = comdat any

$_ZNSt3__124__put_character_sequenceB7v170000IcNS_11char_traitsIcEEEERNS_13basic_ostreamIT_T0_EES7_PKS4_m = comdat any

$_ZNSt3__116__pad_and_outputB7v170000IcNS_11char_traitsIcEEEENS_19ostreambuf_iteratorIT_T0_EES6_PKS4_S8_S8_RNS_8ios_baseES4_ = comdat any

$_ZNSt3__15dequeINS_12basic_stringIcNS_11char_traitsIcEENS_9allocatorIcEEEENS4_IS6_EEE19__add_back_capacityEv = comdat any

$_ZNSt3__114__split_bufferIPNS_12basic_stringIcNS_11char_traitsIcEENS_9allocatorIcEEEENS4_IS7_EEE9push_backEOS7_ = comdat any

$_ZNSt3__114__split_bufferIPNS_12basic_stringIcNS_11char_traitsIcEENS_9allocatorIcEEEENS4_IS7_EEE10push_frontEOS7_ = comdat any

$_ZNSt3__15dequeIbNS_9allocatorIbEEE19__add_back_capacityEv = comdat any

$_ZNSt3__114__split_bufferIPbNS_9allocatorIS1_EEE9push_backEOS1_ = comdat any

$_ZNSt3__114__split_bufferIPbNS_9allocatorIS1_EEE10push_frontEOS1_ = comdat any

$_ZNSt3__15dequeIN2PP4WordENS_9allocatorIS2_EEE19__add_back_capacityEv = comdat any

$_ZNSt3__114__split_bufferIPN2PP4WordENS_9allocatorIS3_EEE9push_backEOS3_ = comdat any

$_ZNSt3__114__split_bufferIPN2PP4WordENS_9allocatorIS3_EEE10push_frontEOS3_ = comdat any

$_ZNKSt3__120__move_backward_loopINS_17_ClassicAlgPolicyEEclB7v170000INS_16__deque_iteratorIN2PP4WordEPS6_RS6_PS7_lLl39EEESA_Li0EEENS_4pairIT_T0_EESC_SC_SD_ = comdat any

$_ZNKSt3__111__move_loopINS_17_ClassicAlgPolicyEEclB7v170000INS_16__deque_iteratorIN2PP4WordEPS6_RS6_PS7_lLl39EEESA_Li0EEENS_4pairIT_T0_EESC_SC_SD_ = comdat any

$_ZNSt3__15dequeIN2PP4WordENS_9allocatorIS2_EEE20__add_front_capacityEv = comdat any

$_ZNSt3__15dequeIN2PP4WordENS_9allocatorIS2_EEE16__move_and_checkENS_16__deque_iteratorIS2_PS2_RS2_PS7_lLl39EEESA_SA_RPKS2_ = comdat any

$_ZNSt3__15dequeIN2PP4WordENS_9allocatorIS2_EEE25__move_backward_and_checkENS_16__deque_iteratorIS2_PS2_RS2_PS7_lLl39EEESA_SA_RPKS2_ = comdat any

$_ZNSt3__114__split_bufferIPN2PP4WordENS_9allocatorIS3_EEE10push_frontERKS3_ = comdat any

@.str = private unnamed_addr constant [60 x i8] c"A restart block line must have at least 8 words on it (the \00", align 1
@.str.1 = private unnamed_addr constant [54 x i8] c"opening and closing parentheses each count as a word)\00", align 1
@.str.2 = private unnamed_addr constant [37 x i8] c"This restart block command only has \00", align 1
@.str.3 = private unnamed_addr constant [14 x i8] c" words on it.\00", align 1
@.str.4 = private unnamed_addr constant [44 x i8] c"Expected something like (this has 8 words):\00", align 1
@.str.5 = private unnamed_addr constant [44 x i8] c"    restart_block after5 (time .gt. 5) then\00", align 1
@.str.6 = private unnamed_addr constant [65 x i8] c"Or perhaps a single line restart block like (this has 13 words):\00", align 1
@.str.7 = private unnamed_addr constant [58 x i8] c"    restart_block after5 (time .gt. 5) sizemat(2) = 0.005\00", align 1
@.str.9 = private unnamed_addr constant [64 x i8] c"Expected an open parentheses following the restart block name..\00", align 1
@.str.10 = private unnamed_addr constant [15 x i8] c"Instead found \00", align 1
@.str.11 = private unnamed_addr constant [35 x i8] c" following the restart block name.\00", align 1
@.str.12 = private unnamed_addr constant [52 x i8] c"The restart block command should be something like:\00", align 1
@.str.13 = private unnamed_addr constant [47 x i8] c"    restart_block t_is_gt_5 (time .gt. 5) then\00", align 1
@.str.14 = private unnamed_addr constant [45 x i8] c"Or perhaps a single line restart block like:\00", align 1
@.str.15 = private unnamed_addr constant [61 x i8] c"    restart_block t_is_gt_5 (time .gt. 5) sizemat(2) = 0.005\00", align 1
@.str.16 = private unnamed_addr constant [5 x i8] c"then\00", align 1
@.str.17 = private unnamed_addr constant [60 x i8] c"Found a then keyword embedded in the restart_block command.\00", align 1
@.str.18 = private unnamed_addr constant [67 x i8] c"If a then keyword is present it must be the last word on the line.\00", align 1
@.str.19 = private unnamed_addr constant [52 x i8] c"The restart_block command should be something like:\00", align 1
@.str.21 = private unnamed_addr constant [54 x i8] c"Expected a close parentheses following the condition.\00", align 1
@.str.22 = private unnamed_addr constant [34 x i8] c"Did not find a close parentheses.\00", align 1
@.str.23 = private unnamed_addr constant [54 x i8] c"Wrong number of words in the restart_block condition.\00", align 1
@.str.24 = private unnamed_addr constant [42 x i8] c"The number of words in this condition is \00", align 1
@.str.25 = private unnamed_addr constant [51 x i8] c"The number of words + 1 should be a multiple of 4.\00", align 1
@.str.26 = private unnamed_addr constant [40 x i8] c"The condition should be something like:\00", align 1
@.str.27 = private unnamed_addr constant [16 x i8] c"    time .gt. 5\00", align 1
@.str.28 = private unnamed_addr constant [45 x i8] c"This has 3 words and 3+1 is a multiple of 4.\00", align 1
@.str.29 = private unnamed_addr constant [26 x i8] c"Or the following is valid\00", align 1
@.str.30 = private unnamed_addr constant [37 x i8] c"    time .gt. 5 .and. ncycle .ge. 10\00", align 1
@.str.31 = private unnamed_addr constant [45 x i8] c"This has 7 words and 7+1 is a multiple of 4.\00", align 1
@.str.32 = private unnamed_addr constant [5 x i8] c"none\00", align 1
@.str.33 = private unnamed_addr constant [6 x i8] c"false\00", align 1
@.str.34 = private unnamed_addr constant [7 x i8] c".hglt.\00", align 1
@.str.35 = private unnamed_addr constant [7 x i8] c".hgle.\00", align 1
@.str.36 = private unnamed_addr constant [7 x i8] c".hgeq.\00", align 1
@.str.37 = private unnamed_addr constant [7 x i8] c".hgne.\00", align 1
@.str.38 = private unnamed_addr constant [7 x i8] c".hggt.\00", align 1
@.str.39 = private unnamed_addr constant [7 x i8] c".hgge.\00", align 1
@.str.40 = private unnamed_addr constant [5 x i8] c".lt.\00", align 1
@.str.41 = private unnamed_addr constant [5 x i8] c".le.\00", align 1
@.str.42 = private unnamed_addr constant [5 x i8] c".eq.\00", align 1
@.str.43 = private unnamed_addr constant [5 x i8] c".ne.\00", align 1
@.str.44 = private unnamed_addr constant [5 x i8] c".gt.\00", align 1
@.str.45 = private unnamed_addr constant [5 x i8] c".ge.\00", align 1
@.str.46 = private unnamed_addr constant [32 x i8] c"Invalid restart_block relation.\00", align 1
@.str.47 = private unnamed_addr constant [45 x i8] c"Expected  .lt., .le., .eq., .ne., .gt., .ge.\00", align 1
@.str.48 = private unnamed_addr constant [61 x i8] c"Also could be .hglt., .hgle., .hgeq., .hgne., .hggt., .hgge.\00", align 1
@.str.49 = private unnamed_addr constant [26 x i8] c"Instead found relation:  \00", align 1
@.str.50 = private unnamed_addr constant [5 x i8] c"true\00", align 1
@.str.51 = private unnamed_addr constant [10 x i8] c".andthen.\00", align 1
@.str.53 = private unnamed_addr constant [11 x i8] c"relational\00", align 1
@.str.54 = private unnamed_addr constant [8 x i8] c"logical\00", align 1
@.str.55 = private unnamed_addr constant [68 x i8] c"restart_block condition did not evaluate to a single boolean value.\00", align 1
@.str.56 = private unnamed_addr constant [32 x i8] c"Fix the restart_block condition\00", align 1
@.str.57 = private unnamed_addr constant [2 x i8] c" \00", align 1
@_ZTISt20bad_array_new_length = external constant ptr
@_ZNSt3__15ctypeIcE2idE = external global %"class.std::__1::locale::id", align 8

@_ZN2PP12RestartblockC1Ev = dso_local unnamed_addr alias void (ptr), ptr @_ZN2PP12RestartblockC2Ev
@_ZN2PP12RestartblockC1ERiRNS_3CmdERbS4_RNSt3__15dequeINS5_12basic_stringIcNS5_11char_traitsIcEENS5_9allocatorIcEEEENSA_ISC_EEEERNS6_IbNSA_IbEEEERNS6_IiNSA_IiEEEESI_RNS5_18basic_stringstreamIcS9_SB_EES1_ = dso_local unnamed_addr alias void (ptr, ptr, ptr, ptr, ptr, ptr, ptr, ptr, ptr, ptr, ptr), ptr @_ZN2PP12RestartblockC2ERiRNS_3CmdERbS4_RNSt3__15dequeINS5_12basic_stringIcNS5_11char_traitsIcEENS5_9allocatorIcEEEENSA_ISC_EEEERNS6_IbNSA_IbEEEERNS6_IiNSA_IiEEEESI_RNS5_18basic_stringstreamIcS9_SB_EES1_

; Function Attrs: mustprogress nofree nosync nounwind willreturn memory(argmem: write) uwtable
define dso_local void @_ZN2PP12RestartblockC2Ev(ptr nocapture noundef nonnull writeonly align 8 dereferenceable(320) %this) unnamed_addr #0 align 2 personality ptr @__gxx_personality_v0 {
entry:
  %name = getelementptr inbounds %"class.PP::Restartblock", ptr %this, i64 0, i32 7
  tail call void @llvm.memset.p0.i64(ptr noundef nonnull align 8 dereferenceable(24) %name, i8 0, i64 24, i1 false)
  %active = getelementptr inbounds %"class.PP::Restartblock", ptr %this, i64 0, i32 6
  tail call void @llvm.memset.p0.i64(ptr noundef nonnull align 8 dereferenceable(288) %this, i8 0, i64 288, i1 false)
  store i32 -1, ptr %active, align 8, !tbaa !5
  ret void
}

; Function Attrs: uwtable
define dso_local void @_ZN2PP12RestartblockC2ERiRNS_3CmdERbS4_RNSt3__15dequeINS5_12basic_stringIcNS5_11char_traitsIcEENS5_9allocatorIcEEEENSA_ISC_EEEERNS6_IbNSA_IbEEEERNS6_IiNSA_IiEEEESI_RNS5_18basic_stringstreamIcS9_SB_EES1_(ptr noundef nonnull align 8 dereferenceable(320) %this, ptr nocapture noundef nonnull align 4 dereferenceable(4) %nrb, ptr noundef nonnull align 8 dereferenceable(320) %cmdi, ptr nocapture noundef nonnull writeonly align 1 dereferenceable(1) %skiprb, ptr nocapture noundef nonnull writeonly align 1 dereferenceable(1) %single_line_rb, ptr nocapture noundef nonnull readonly align 8 dereferenceable(48) %bnames_on_dump, ptr nocapture noundef nonnull readonly align 8 dereferenceable(48) %baflags_on_dump, ptr nocapture noundef nonnull readonly align 8 dereferenceable(48) %rbsatprb_on_dump, ptr nocapture noundef nonnull readonly align 8 dereferenceable(48) %rbsat_on_dump, ptr noundef nonnull align 8 dereferenceable(128) %serr, ptr noundef nonnull align 4 dereferenceable(4) %ierr) unnamed_addr #1 align 2 personality ptr @__gxx_personality_v0 {
entry:
  %ref.tmp.i.i2933 = alloca %"class.std::__1::locale", align 8
  %ref.tmp.i.i2914 = alloca %"class.std::__1::locale", align 8
  %ref.tmp.i.i2895 = alloca %"class.std::__1::locale", align 8
  %ref.tmp.i.i2877 = alloca %"class.std::__1::locale", align 8
  %ref.tmp.i.i2858 = alloca %"class.std::__1::locale", align 8
  %ref.tmp.i.i2839 = alloca %"class.std::__1::locale", align 8
  %ref.tmp.i.i2820 = alloca %"class.std::__1::locale", align 8
  %ref.tmp.i.i2801 = alloca %"class.std::__1::locale", align 8
  %ref.tmp.i.i2782 = alloca %"class.std::__1::locale", align 8
  %ref.tmp.i.i2763 = alloca %"class.std::__1::locale", align 8
  %ref.tmp.i.i2744 = alloca %"class.std::__1::locale", align 8
  %ref.tmp.i.i2725 = alloca %"class.std::__1::locale", align 8
  %ref.tmp.i.i2707 = alloca %"class.std::__1::locale", align 8
  %ref.tmp.i.i2688 = alloca %"class.std::__1::locale", align 8
  %ref.tmp.i.i2669 = alloca %"class.std::__1::locale", align 8
  %ref.tmp.i.i2650 = alloca %"class.std::__1::locale", align 8
  %ref.tmp.i.i2631 = alloca %"class.std::__1::locale", align 8
  %ref.tmp.i.i2612 = alloca %"class.std::__1::locale", align 8
  %ref.tmp.i.i2594 = alloca %"class.std::__1::locale", align 8
  %ref.tmp.i.i2575 = alloca %"class.std::__1::locale", align 8
  %ref.tmp.i.i2556 = alloca %"class.std::__1::locale", align 8
  %ref.tmp.i.i2537 = alloca %"class.std::__1::locale", align 8
  %ref.tmp.i.i2518 = alloca %"class.std::__1::locale", align 8
  %ref.tmp.i.i2499 = alloca %"class.std::__1::locale", align 8
  %ref.tmp.i.i2481 = alloca %"class.std::__1::locale", align 8
  %ref.tmp.i.i2462 = alloca %"class.std::__1::locale", align 8
  %ref.tmp.i.i2443 = alloca %"class.std::__1::locale", align 8
  %ref.tmp.i.i2424 = alloca %"class.std::__1::locale", align 8
  %ref.tmp.i.i2405 = alloca %"class.std::__1::locale", align 8
  %ref.tmp.i.i2386 = alloca %"class.std::__1::locale", align 8
  %ref.tmp.i.i2368 = alloca %"class.std::__1::locale", align 8
  %ref.tmp.i.i2349 = alloca %"class.std::__1::locale", align 8
  %ref.tmp.i.i2330 = alloca %"class.std::__1::locale", align 8
  %ref.tmp.i.i2311 = alloca %"class.std::__1::locale", align 8
  %ref.tmp.i.i2292 = alloca %"class.std::__1::locale", align 8
  %ref.tmp.i.i2273 = alloca %"class.std::__1::locale", align 8
  %ref.tmp.i.i2254 = alloca %"class.std::__1::locale", align 8
  %ref.tmp.i.i = alloca %"class.std::__1::locale", align 8
  %p2 = alloca %"class.std::__1::basic_string", align 8
  %t1 = alloca %"class.std::__1::basic_string", align 8
  %pi = alloca %"class.std::__1::basic_string", align 8
  %agg.tmp = alloca %"class.std::__1::basic_string", align 8
  %ref.tmp = alloca %"class.std::__1::basic_string", align 8
  %ref.tmp280 = alloca %"class.std::__1::basic_string", align 8
  %ref.tmp290 = alloca %"class.std::__1::basic_string", align 8
  %ref.tmp300 = alloca %"class.std::__1::basic_string", align 8
  %ref.tmp310 = alloca %"class.std::__1::basic_string", align 8
  %ref.tmp320 = alloca %"class.std::__1::basic_string", align 8
  %ref.tmp330 = alloca %"class.std::__1::basic_string", align 8
  %ref.tmp340 = alloca %"class.std::__1::basic_string", align 8
  %ref.tmp350 = alloca %"class.std::__1::basic_string", align 8
  %ref.tmp360 = alloca %"class.std::__1::basic_string", align 8
  %ref.tmp370 = alloca %"class.std::__1::basic_string", align 8
  %ref.tmp380 = alloca %"class.std::__1::basic_string", align 8
  %ref.tmp390 = alloca %"class.std::__1::basic_string", align 8
  %ref.tmp424 = alloca %"class.std::__1::basic_string", align 8
  %ref.tmp448 = alloca %"class.std::__1::basic_string", align 8
  %s = alloca %"class.std::__1::basic_string", align 8
  %ref.tmp535 = alloca %"class.std::__1::basic_string", align 8
  %ref.tmp550 = alloca %"class.std::__1::basic_string", align 8
  %ref.tmp564 = alloca %"class.std::__1::basic_string", align 8
  %ref.tmp578 = alloca %"class.std::__1::basic_string", align 8
  %ref.tmp592 = alloca %"class.std::__1::basic_string", align 8
  %ref.tmp606 = alloca %"class.std::__1::basic_string", align 8
  %ref.tmp633 = alloca %"class.std::__1::basic_string", align 8
  %relation = getelementptr inbounds %"class.PP::Restartblock", ptr %this, i64 0, i32 1
  %value = getelementptr inbounds %"class.PP::Restartblock", ptr %this, i64 0, i32 2
  %logop = getelementptr inbounds %"class.PP::Restartblock", ptr %this, i64 0, i32 3
  %satisfied = getelementptr inbounds %"class.PP::Restartblock", ptr %this, i64 0, i32 4
  %has_got = getelementptr inbounds %"class.PP::Restartblock", ptr %this, i64 0, i32 5
  %name = getelementptr inbounds %"class.PP::Restartblock", ptr %this, i64 0, i32 7
  tail call void @llvm.memset.p0.i64(ptr noundef nonnull align 8 dereferenceable(24) %name, i8 0, i64 24, i1 false)
  %active = getelementptr inbounds %"class.PP::Restartblock", ptr %this, i64 0, i32 6
  tail call void @llvm.memset.p0.i64(ptr noundef nonnull align 8 dereferenceable(288) %this, i8 0, i64 288, i1 false)
  store i32 -1, ptr %active, align 8, !tbaa !5
  %0 = load i32, ptr %nrb, align 4, !tbaa !32
  %add = add nsw i32 %0, 1
  store i32 %add, ptr %nrb, align 4, !tbaa !32
  store i8 1, ptr %skiprb, align 1, !tbaa !33
  store i8 0, ptr %single_line_rb, align 1, !tbaa !33
  %__size_.i.i.i = getelementptr inbounds %"class.PP::Cmd", ptr %cmdi, i64 0, i32 9, i32 2
  %1 = load i64, ptr %__size_.i.i.i, align 8, !tbaa !35
  %conv.i = trunc i64 %1 to i32
  %cmp = icmp slt i32 %conv.i, 8
  br i1 %cmp, label %if.then, label %if.end.i

if.then:                                          ; preds = %entry
  invoke void @_ZN2PP3Cmd11fatal_errorEiRNSt3__118basic_stringstreamIcNS1_11char_traitsIcEENS1_9allocatorIcEEEERi(ptr noundef nonnull align 8 dereferenceable(320) %cmdi, i32 noundef 0, ptr noundef nonnull align 8 dereferenceable(128) %serr, ptr noundef nonnull align 4 dereferenceable(4) %ierr)
          to label %invoke.cont2 unwind label %lpad

invoke.cont2:                                     ; preds = %if.then
  %add.ptr = getelementptr inbounds i8, ptr %serr, i64 16
  %call1.i837 = invoke noundef nonnull align 8 dereferenceable(8) ptr @_ZNSt3__124__put_character_sequenceB7v170000IcNS_11char_traitsIcEEEERNS_13basic_ostreamIT_T0_EES7_PKS4_m(ptr noundef nonnull align 8 dereferenceable(8) %add.ptr, ptr noundef nonnull @.str, i64 noundef 59)
          to label %invoke.cont3 unwind label %lpad

invoke.cont3:                                     ; preds = %invoke.cont2
  %vtable.i = load ptr, ptr %call1.i837, align 8, !tbaa !36
  %vbase.offset.ptr.i = getelementptr i8, ptr %vtable.i, i64 -24
  %vbase.offset.i = load i64, ptr %vbase.offset.ptr.i, align 8
  %add.ptr.i2249 = getelementptr inbounds i8, ptr %call1.i837, i64 %vbase.offset.i
  call void @llvm.lifetime.start.p0(i64 8, ptr nonnull %ref.tmp.i.i) #16
  invoke void @_ZNKSt3__18ios_base6getlocEv(ptr nonnull sret(%"class.std::__1::locale") align 8 %ref.tmp.i.i, ptr noundef nonnull align 8 dereferenceable(136) %add.ptr.i2249)
          to label %.noexc2251 unwind label %lpad

.noexc2251:                                       ; preds = %invoke.cont3
  %call.i5.i.i = invoke noundef ptr @_ZNKSt3__16locale9use_facetERNS0_2idE(ptr noundef nonnull align 8 dereferenceable(8) %ref.tmp.i.i, ptr noundef nonnull align 8 dereferenceable(12) @_ZNSt3__15ctypeIcE2idE)
          to label %invoke.cont.i.i2250 unwind label %lpad.i.i

invoke.cont.i.i2250:                              ; preds = %.noexc2251
  %vtable.i.i.i = load ptr, ptr %call.i5.i.i, align 8, !tbaa !36
  %vfn.i.i.i = getelementptr inbounds ptr, ptr %vtable.i.i.i, i64 7
  %2 = load ptr, ptr %vfn.i.i.i, align 8
  %call.i6.i.i = invoke noundef signext i8 %2(ptr noundef nonnull align 8 dereferenceable(25) %call.i5.i.i, i8 noundef signext 10)
          to label %_ZNKSt3__19basic_iosIcNS_11char_traitsIcEEE5widenB7v170000Ec.exit.i unwind label %lpad.i.i

lpad.i.i:                                         ; preds = %invoke.cont.i.i2250, %.noexc2251
  %3 = landingpad { ptr, i32 }
          cleanup
  call void @_ZNSt3__16localeD1Ev(ptr noundef nonnull align 8 dereferenceable(8) %ref.tmp.i.i) #16
  call void @llvm.lifetime.end.p0(i64 8, ptr nonnull %ref.tmp.i.i) #16
  br label %ehcleanup654

_ZNKSt3__19basic_iosIcNS_11char_traitsIcEEE5widenB7v170000Ec.exit.i: ; preds = %invoke.cont.i.i2250
  call void @_ZNSt3__16localeD1Ev(ptr noundef nonnull align 8 dereferenceable(8) %ref.tmp.i.i) #16
  call void @llvm.lifetime.end.p0(i64 8, ptr nonnull %ref.tmp.i.i) #16
  %call1.i2252 = invoke noundef nonnull align 8 dereferenceable(8) ptr @_ZNSt3__113basic_ostreamIcNS_11char_traitsIcEEE3putEc(ptr noundef nonnull align 8 dereferenceable(8) %call1.i837, i8 noundef signext %call.i6.i.i)
          to label %call1.i.noexc unwind label %lpad

call1.i.noexc:                                    ; preds = %_ZNKSt3__19basic_iosIcNS_11char_traitsIcEEE5widenB7v170000Ec.exit.i
  %call2.i2253 = invoke noundef nonnull align 8 dereferenceable(8) ptr @_ZNSt3__113basic_ostreamIcNS_11char_traitsIcEEE5flushEv(ptr noundef nonnull align 8 dereferenceable(8) %call1.i837)
          to label %invoke.cont5 unwind label %lpad

invoke.cont5:                                     ; preds = %call1.i.noexc
  %call1.i840 = invoke noundef nonnull align 8 dereferenceable(8) ptr @_ZNSt3__124__put_character_sequenceB7v170000IcNS_11char_traitsIcEEEERNS_13basic_ostreamIT_T0_EES7_PKS4_m(ptr noundef nonnull align 8 dereferenceable(8) %call1.i837, ptr noundef nonnull @.str.1, i64 noundef 53)
          to label %invoke.cont7 unwind label %lpad

invoke.cont7:                                     ; preds = %invoke.cont5
  %vtable.i2255 = load ptr, ptr %call1.i840, align 8, !tbaa !36
  %vbase.offset.ptr.i2256 = getelementptr i8, ptr %vtable.i2255, i64 -24
  %vbase.offset.i2257 = load i64, ptr %vbase.offset.ptr.i2256, align 8
  %add.ptr.i2258 = getelementptr inbounds i8, ptr %call1.i840, i64 %vbase.offset.i2257
  call void @llvm.lifetime.start.p0(i64 8, ptr nonnull %ref.tmp.i.i2254) #16
  invoke void @_ZNKSt3__18ios_base6getlocEv(ptr nonnull sret(%"class.std::__1::locale") align 8 %ref.tmp.i.i2254, ptr noundef nonnull align 8 dereferenceable(136) %add.ptr.i2258)
          to label %.noexc2266 unwind label %lpad

.noexc2266:                                       ; preds = %invoke.cont7
  %call.i5.i.i2259 = invoke noundef ptr @_ZNKSt3__16locale9use_facetERNS0_2idE(ptr noundef nonnull align 8 dereferenceable(8) %ref.tmp.i.i2254, ptr noundef nonnull align 8 dereferenceable(12) @_ZNSt3__15ctypeIcE2idE)
          to label %invoke.cont.i.i2263 unwind label %lpad.i.i2264

invoke.cont.i.i2263:                              ; preds = %.noexc2266
  %vtable.i.i.i2260 = load ptr, ptr %call.i5.i.i2259, align 8, !tbaa !36
  %vfn.i.i.i2261 = getelementptr inbounds ptr, ptr %vtable.i.i.i2260, i64 7
  %4 = load ptr, ptr %vfn.i.i.i2261, align 8
  %call.i6.i.i2262 = invoke noundef signext i8 %4(ptr noundef nonnull align 8 dereferenceable(25) %call.i5.i.i2259, i8 noundef signext 10)
          to label %_ZNKSt3__19basic_iosIcNS_11char_traitsIcEEE5widenB7v170000Ec.exit.i2265 unwind label %lpad.i.i2264

lpad.i.i2264:                                     ; preds = %invoke.cont.i.i2263, %.noexc2266
  %5 = landingpad { ptr, i32 }
          cleanup
  call void @_ZNSt3__16localeD1Ev(ptr noundef nonnull align 8 dereferenceable(8) %ref.tmp.i.i2254) #16
  call void @llvm.lifetime.end.p0(i64 8, ptr nonnull %ref.tmp.i.i2254) #16
  br label %ehcleanup654

_ZNKSt3__19basic_iosIcNS_11char_traitsIcEEE5widenB7v170000Ec.exit.i2265: ; preds = %invoke.cont.i.i2263
  call void @_ZNSt3__16localeD1Ev(ptr noundef nonnull align 8 dereferenceable(8) %ref.tmp.i.i2254) #16
  call void @llvm.lifetime.end.p0(i64 8, ptr nonnull %ref.tmp.i.i2254) #16
  %call1.i2270 = invoke noundef nonnull align 8 dereferenceable(8) ptr @_ZNSt3__113basic_ostreamIcNS_11char_traitsIcEEE3putEc(ptr noundef nonnull align 8 dereferenceable(8) %call1.i840, i8 noundef signext %call.i6.i.i2262)
          to label %call1.i.noexc2269 unwind label %lpad

call1.i.noexc2269:                                ; preds = %_ZNKSt3__19basic_iosIcNS_11char_traitsIcEEE5widenB7v170000Ec.exit.i2265
  %call2.i2271 = invoke noundef nonnull align 8 dereferenceable(8) ptr @_ZNSt3__113basic_ostreamIcNS_11char_traitsIcEEE5flushEv(ptr noundef nonnull align 8 dereferenceable(8) %call1.i840)
          to label %invoke.cont9 unwind label %lpad

invoke.cont9:                                     ; preds = %call1.i.noexc2269
  %call1.i845 = invoke noundef nonnull align 8 dereferenceable(8) ptr @_ZNSt3__124__put_character_sequenceB7v170000IcNS_11char_traitsIcEEEERNS_13basic_ostreamIT_T0_EES7_PKS4_m(ptr noundef nonnull align 8 dereferenceable(8) %add.ptr, ptr noundef nonnull @.str.2, i64 noundef 36)
          to label %invoke.cont12 unwind label %lpad

invoke.cont12:                                    ; preds = %invoke.cont9
  %call15 = invoke noundef nonnull align 8 dereferenceable(8) ptr @_ZNSt3__113basic_ostreamIcNS_11char_traitsIcEEElsEi(ptr noundef nonnull align 8 dereferenceable(8) %call1.i845, i32 noundef %conv.i)
          to label %invoke.cont14 unwind label %lpad

invoke.cont14:                                    ; preds = %invoke.cont12
  %call1.i848 = invoke noundef nonnull align 8 dereferenceable(8) ptr @_ZNSt3__124__put_character_sequenceB7v170000IcNS_11char_traitsIcEEEERNS_13basic_ostreamIT_T0_EES7_PKS4_m(ptr noundef nonnull align 8 dereferenceable(8) %call15, ptr noundef nonnull @.str.3, i64 noundef 13)
          to label %invoke.cont16 unwind label %lpad

invoke.cont16:                                    ; preds = %invoke.cont14
  %vtable.i2274 = load ptr, ptr %call1.i848, align 8, !tbaa !36
  %vbase.offset.ptr.i2275 = getelementptr i8, ptr %vtable.i2274, i64 -24
  %vbase.offset.i2276 = load i64, ptr %vbase.offset.ptr.i2275, align 8
  %add.ptr.i2277 = getelementptr inbounds i8, ptr %call1.i848, i64 %vbase.offset.i2276
  call void @llvm.lifetime.start.p0(i64 8, ptr nonnull %ref.tmp.i.i2273) #16
  invoke void @_ZNKSt3__18ios_base6getlocEv(ptr nonnull sret(%"class.std::__1::locale") align 8 %ref.tmp.i.i2273, ptr noundef nonnull align 8 dereferenceable(136) %add.ptr.i2277)
          to label %.noexc2285 unwind label %lpad

.noexc2285:                                       ; preds = %invoke.cont16
  %call.i5.i.i2278 = invoke noundef ptr @_ZNKSt3__16locale9use_facetERNS0_2idE(ptr noundef nonnull align 8 dereferenceable(8) %ref.tmp.i.i2273, ptr noundef nonnull align 8 dereferenceable(12) @_ZNSt3__15ctypeIcE2idE)
          to label %invoke.cont.i.i2282 unwind label %lpad.i.i2283

invoke.cont.i.i2282:                              ; preds = %.noexc2285
  %vtable.i.i.i2279 = load ptr, ptr %call.i5.i.i2278, align 8, !tbaa !36
  %vfn.i.i.i2280 = getelementptr inbounds ptr, ptr %vtable.i.i.i2279, i64 7
  %6 = load ptr, ptr %vfn.i.i.i2280, align 8
  %call.i6.i.i2281 = invoke noundef signext i8 %6(ptr noundef nonnull align 8 dereferenceable(25) %call.i5.i.i2278, i8 noundef signext 10)
          to label %_ZNKSt3__19basic_iosIcNS_11char_traitsIcEEE5widenB7v170000Ec.exit.i2284 unwind label %lpad.i.i2283

lpad.i.i2283:                                     ; preds = %invoke.cont.i.i2282, %.noexc2285
  %7 = landingpad { ptr, i32 }
          cleanup
  call void @_ZNSt3__16localeD1Ev(ptr noundef nonnull align 8 dereferenceable(8) %ref.tmp.i.i2273) #16
  call void @llvm.lifetime.end.p0(i64 8, ptr nonnull %ref.tmp.i.i2273) #16
  br label %ehcleanup654

_ZNKSt3__19basic_iosIcNS_11char_traitsIcEEE5widenB7v170000Ec.exit.i2284: ; preds = %invoke.cont.i.i2282
  call void @_ZNSt3__16localeD1Ev(ptr noundef nonnull align 8 dereferenceable(8) %ref.tmp.i.i2273) #16
  call void @llvm.lifetime.end.p0(i64 8, ptr nonnull %ref.tmp.i.i2273) #16
  %call1.i2289 = invoke noundef nonnull align 8 dereferenceable(8) ptr @_ZNSt3__113basic_ostreamIcNS_11char_traitsIcEEE3putEc(ptr noundef nonnull align 8 dereferenceable(8) %call1.i848, i8 noundef signext %call.i6.i.i2281)
          to label %call1.i.noexc2288 unwind label %lpad

call1.i.noexc2288:                                ; preds = %_ZNKSt3__19basic_iosIcNS_11char_traitsIcEEE5widenB7v170000Ec.exit.i2284
  %call2.i2290 = invoke noundef nonnull align 8 dereferenceable(8) ptr @_ZNSt3__113basic_ostreamIcNS_11char_traitsIcEEE5flushEv(ptr noundef nonnull align 8 dereferenceable(8) %call1.i848)
          to label %invoke.cont18 unwind label %lpad

invoke.cont18:                                    ; preds = %call1.i.noexc2288
  %call1.i853 = invoke noundef nonnull align 8 dereferenceable(8) ptr @_ZNSt3__124__put_character_sequenceB7v170000IcNS_11char_traitsIcEEEERNS_13basic_ostreamIT_T0_EES7_PKS4_m(ptr noundef nonnull align 8 dereferenceable(8) %add.ptr, ptr noundef nonnull @.str.4, i64 noundef 43)
          to label %invoke.cont21 unwind label %lpad

invoke.cont21:                                    ; preds = %invoke.cont18
  %vtable.i2293 = load ptr, ptr %call1.i853, align 8, !tbaa !36
  %vbase.offset.ptr.i2294 = getelementptr i8, ptr %vtable.i2293, i64 -24
  %vbase.offset.i2295 = load i64, ptr %vbase.offset.ptr.i2294, align 8
  %add.ptr.i2296 = getelementptr inbounds i8, ptr %call1.i853, i64 %vbase.offset.i2295
  call void @llvm.lifetime.start.p0(i64 8, ptr nonnull %ref.tmp.i.i2292) #16
  invoke void @_ZNKSt3__18ios_base6getlocEv(ptr nonnull sret(%"class.std::__1::locale") align 8 %ref.tmp.i.i2292, ptr noundef nonnull align 8 dereferenceable(136) %add.ptr.i2296)
          to label %.noexc2304 unwind label %lpad

.noexc2304:                                       ; preds = %invoke.cont21
  %call.i5.i.i2297 = invoke noundef ptr @_ZNKSt3__16locale9use_facetERNS0_2idE(ptr noundef nonnull align 8 dereferenceable(8) %ref.tmp.i.i2292, ptr noundef nonnull align 8 dereferenceable(12) @_ZNSt3__15ctypeIcE2idE)
          to label %invoke.cont.i.i2301 unwind label %lpad.i.i2302

invoke.cont.i.i2301:                              ; preds = %.noexc2304
  %vtable.i.i.i2298 = load ptr, ptr %call.i5.i.i2297, align 8, !tbaa !36
  %vfn.i.i.i2299 = getelementptr inbounds ptr, ptr %vtable.i.i.i2298, i64 7
  %8 = load ptr, ptr %vfn.i.i.i2299, align 8
  %call.i6.i.i2300 = invoke noundef signext i8 %8(ptr noundef nonnull align 8 dereferenceable(25) %call.i5.i.i2297, i8 noundef signext 10)
          to label %_ZNKSt3__19basic_iosIcNS_11char_traitsIcEEE5widenB7v170000Ec.exit.i2303 unwind label %lpad.i.i2302

lpad.i.i2302:                                     ; preds = %invoke.cont.i.i2301, %.noexc2304
  %9 = landingpad { ptr, i32 }
          cleanup
  call void @_ZNSt3__16localeD1Ev(ptr noundef nonnull align 8 dereferenceable(8) %ref.tmp.i.i2292) #16
  call void @llvm.lifetime.end.p0(i64 8, ptr nonnull %ref.tmp.i.i2292) #16
  br label %ehcleanup654

_ZNKSt3__19basic_iosIcNS_11char_traitsIcEEE5widenB7v170000Ec.exit.i2303: ; preds = %invoke.cont.i.i2301
  call void @_ZNSt3__16localeD1Ev(ptr noundef nonnull align 8 dereferenceable(8) %ref.tmp.i.i2292) #16
  call void @llvm.lifetime.end.p0(i64 8, ptr nonnull %ref.tmp.i.i2292) #16
  %call1.i2308 = invoke noundef nonnull align 8 dereferenceable(8) ptr @_ZNSt3__113basic_ostreamIcNS_11char_traitsIcEEE3putEc(ptr noundef nonnull align 8 dereferenceable(8) %call1.i853, i8 noundef signext %call.i6.i.i2300)
          to label %call1.i.noexc2307 unwind label %lpad

call1.i.noexc2307:                                ; preds = %_ZNKSt3__19basic_iosIcNS_11char_traitsIcEEE5widenB7v170000Ec.exit.i2303
  %call2.i2309 = invoke noundef nonnull align 8 dereferenceable(8) ptr @_ZNSt3__113basic_ostreamIcNS_11char_traitsIcEEE5flushEv(ptr noundef nonnull align 8 dereferenceable(8) %call1.i853)
          to label %invoke.cont23 unwind label %lpad

invoke.cont23:                                    ; preds = %call1.i.noexc2307
  %call1.i858 = invoke noundef nonnull align 8 dereferenceable(8) ptr @_ZNSt3__124__put_character_sequenceB7v170000IcNS_11char_traitsIcEEEERNS_13basic_ostreamIT_T0_EES7_PKS4_m(ptr noundef nonnull align 8 dereferenceable(8) %add.ptr, ptr noundef nonnull @.str.5, i64 noundef 43)
          to label %invoke.cont26 unwind label %lpad

invoke.cont26:                                    ; preds = %invoke.cont23
  %vtable.i2312 = load ptr, ptr %call1.i858, align 8, !tbaa !36
  %vbase.offset.ptr.i2313 = getelementptr i8, ptr %vtable.i2312, i64 -24
  %vbase.offset.i2314 = load i64, ptr %vbase.offset.ptr.i2313, align 8
  %add.ptr.i2315 = getelementptr inbounds i8, ptr %call1.i858, i64 %vbase.offset.i2314
  call void @llvm.lifetime.start.p0(i64 8, ptr nonnull %ref.tmp.i.i2311) #16
  invoke void @_ZNKSt3__18ios_base6getlocEv(ptr nonnull sret(%"class.std::__1::locale") align 8 %ref.tmp.i.i2311, ptr noundef nonnull align 8 dereferenceable(136) %add.ptr.i2315)
          to label %.noexc2323 unwind label %lpad

.noexc2323:                                       ; preds = %invoke.cont26
  %call.i5.i.i2316 = invoke noundef ptr @_ZNKSt3__16locale9use_facetERNS0_2idE(ptr noundef nonnull align 8 dereferenceable(8) %ref.tmp.i.i2311, ptr noundef nonnull align 8 dereferenceable(12) @_ZNSt3__15ctypeIcE2idE)
          to label %invoke.cont.i.i2320 unwind label %lpad.i.i2321

invoke.cont.i.i2320:                              ; preds = %.noexc2323
  %vtable.i.i.i2317 = load ptr, ptr %call.i5.i.i2316, align 8, !tbaa !36
  %vfn.i.i.i2318 = getelementptr inbounds ptr, ptr %vtable.i.i.i2317, i64 7
  %10 = load ptr, ptr %vfn.i.i.i2318, align 8
  %call.i6.i.i2319 = invoke noundef signext i8 %10(ptr noundef nonnull align 8 dereferenceable(25) %call.i5.i.i2316, i8 noundef signext 10)
          to label %_ZNKSt3__19basic_iosIcNS_11char_traitsIcEEE5widenB7v170000Ec.exit.i2322 unwind label %lpad.i.i2321

lpad.i.i2321:                                     ; preds = %invoke.cont.i.i2320, %.noexc2323
  %11 = landingpad { ptr, i32 }
          cleanup
  call void @_ZNSt3__16localeD1Ev(ptr noundef nonnull align 8 dereferenceable(8) %ref.tmp.i.i2311) #16
  call void @llvm.lifetime.end.p0(i64 8, ptr nonnull %ref.tmp.i.i2311) #16
  br label %ehcleanup654

_ZNKSt3__19basic_iosIcNS_11char_traitsIcEEE5widenB7v170000Ec.exit.i2322: ; preds = %invoke.cont.i.i2320
  call void @_ZNSt3__16localeD1Ev(ptr noundef nonnull align 8 dereferenceable(8) %ref.tmp.i.i2311) #16
  call void @llvm.lifetime.end.p0(i64 8, ptr nonnull %ref.tmp.i.i2311) #16
  %call1.i2327 = invoke noundef nonnull align 8 dereferenceable(8) ptr @_ZNSt3__113basic_ostreamIcNS_11char_traitsIcEEE3putEc(ptr noundef nonnull align 8 dereferenceable(8) %call1.i858, i8 noundef signext %call.i6.i.i2319)
          to label %call1.i.noexc2326 unwind label %lpad

call1.i.noexc2326:                                ; preds = %_ZNKSt3__19basic_iosIcNS_11char_traitsIcEEE5widenB7v170000Ec.exit.i2322
  %call2.i2328 = invoke noundef nonnull align 8 dereferenceable(8) ptr @_ZNSt3__113basic_ostreamIcNS_11char_traitsIcEEE5flushEv(ptr noundef nonnull align 8 dereferenceable(8) %call1.i858)
          to label %invoke.cont28 unwind label %lpad

invoke.cont28:                                    ; preds = %call1.i.noexc2326
  %call1.i863 = invoke noundef nonnull align 8 dereferenceable(8) ptr @_ZNSt3__124__put_character_sequenceB7v170000IcNS_11char_traitsIcEEEERNS_13basic_ostreamIT_T0_EES7_PKS4_m(ptr noundef nonnull align 8 dereferenceable(8) %add.ptr, ptr noundef nonnull @.str.6, i64 noundef 64)
          to label %invoke.cont31 unwind label %lpad

invoke.cont31:                                    ; preds = %invoke.cont28
  %vtable.i2331 = load ptr, ptr %call1.i863, align 8, !tbaa !36
  %vbase.offset.ptr.i2332 = getelementptr i8, ptr %vtable.i2331, i64 -24
  %vbase.offset.i2333 = load i64, ptr %vbase.offset.ptr.i2332, align 8
  %add.ptr.i2334 = getelementptr inbounds i8, ptr %call1.i863, i64 %vbase.offset.i2333
  call void @llvm.lifetime.start.p0(i64 8, ptr nonnull %ref.tmp.i.i2330) #16
  invoke void @_ZNKSt3__18ios_base6getlocEv(ptr nonnull sret(%"class.std::__1::locale") align 8 %ref.tmp.i.i2330, ptr noundef nonnull align 8 dereferenceable(136) %add.ptr.i2334)
          to label %.noexc2342 unwind label %lpad

.noexc2342:                                       ; preds = %invoke.cont31
  %call.i5.i.i2335 = invoke noundef ptr @_ZNKSt3__16locale9use_facetERNS0_2idE(ptr noundef nonnull align 8 dereferenceable(8) %ref.tmp.i.i2330, ptr noundef nonnull align 8 dereferenceable(12) @_ZNSt3__15ctypeIcE2idE)
          to label %invoke.cont.i.i2339 unwind label %lpad.i.i2340

invoke.cont.i.i2339:                              ; preds = %.noexc2342
  %vtable.i.i.i2336 = load ptr, ptr %call.i5.i.i2335, align 8, !tbaa !36
  %vfn.i.i.i2337 = getelementptr inbounds ptr, ptr %vtable.i.i.i2336, i64 7
  %12 = load ptr, ptr %vfn.i.i.i2337, align 8
  %call.i6.i.i2338 = invoke noundef signext i8 %12(ptr noundef nonnull align 8 dereferenceable(25) %call.i5.i.i2335, i8 noundef signext 10)
          to label %_ZNKSt3__19basic_iosIcNS_11char_traitsIcEEE5widenB7v170000Ec.exit.i2341 unwind label %lpad.i.i2340

lpad.i.i2340:                                     ; preds = %invoke.cont.i.i2339, %.noexc2342
  %13 = landingpad { ptr, i32 }
          cleanup
  call void @_ZNSt3__16localeD1Ev(ptr noundef nonnull align 8 dereferenceable(8) %ref.tmp.i.i2330) #16
  call void @llvm.lifetime.end.p0(i64 8, ptr nonnull %ref.tmp.i.i2330) #16
  br label %ehcleanup654

_ZNKSt3__19basic_iosIcNS_11char_traitsIcEEE5widenB7v170000Ec.exit.i2341: ; preds = %invoke.cont.i.i2339
  call void @_ZNSt3__16localeD1Ev(ptr noundef nonnull align 8 dereferenceable(8) %ref.tmp.i.i2330) #16
  call void @llvm.lifetime.end.p0(i64 8, ptr nonnull %ref.tmp.i.i2330) #16
  %call1.i2346 = invoke noundef nonnull align 8 dereferenceable(8) ptr @_ZNSt3__113basic_ostreamIcNS_11char_traitsIcEEE3putEc(ptr noundef nonnull align 8 dereferenceable(8) %call1.i863, i8 noundef signext %call.i6.i.i2338)
          to label %call1.i.noexc2345 unwind label %lpad

call1.i.noexc2345:                                ; preds = %_ZNKSt3__19basic_iosIcNS_11char_traitsIcEEE5widenB7v170000Ec.exit.i2341
  %call2.i2347 = invoke noundef nonnull align 8 dereferenceable(8) ptr @_ZNSt3__113basic_ostreamIcNS_11char_traitsIcEEE5flushEv(ptr noundef nonnull align 8 dereferenceable(8) %call1.i863)
          to label %invoke.cont33 unwind label %lpad

invoke.cont33:                                    ; preds = %call1.i.noexc2345
  %call1.i868 = invoke noundef nonnull align 8 dereferenceable(8) ptr @_ZNSt3__124__put_character_sequenceB7v170000IcNS_11char_traitsIcEEEERNS_13basic_ostreamIT_T0_EES7_PKS4_m(ptr noundef nonnull align 8 dereferenceable(8) %add.ptr, ptr noundef nonnull @.str.7, i64 noundef 57)
          to label %invoke.cont36 unwind label %lpad

invoke.cont36:                                    ; preds = %invoke.cont33
  %vtable.i2350 = load ptr, ptr %call1.i868, align 8, !tbaa !36
  %vbase.offset.ptr.i2351 = getelementptr i8, ptr %vtable.i2350, i64 -24
  %vbase.offset.i2352 = load i64, ptr %vbase.offset.ptr.i2351, align 8
  %add.ptr.i2353 = getelementptr inbounds i8, ptr %call1.i868, i64 %vbase.offset.i2352
  call void @llvm.lifetime.start.p0(i64 8, ptr nonnull %ref.tmp.i.i2349) #16
  invoke void @_ZNKSt3__18ios_base6getlocEv(ptr nonnull sret(%"class.std::__1::locale") align 8 %ref.tmp.i.i2349, ptr noundef nonnull align 8 dereferenceable(136) %add.ptr.i2353)
          to label %.noexc2361 unwind label %lpad

.noexc2361:                                       ; preds = %invoke.cont36
  %call.i5.i.i2354 = invoke noundef ptr @_ZNKSt3__16locale9use_facetERNS0_2idE(ptr noundef nonnull align 8 dereferenceable(8) %ref.tmp.i.i2349, ptr noundef nonnull align 8 dereferenceable(12) @_ZNSt3__15ctypeIcE2idE)
          to label %invoke.cont.i.i2358 unwind label %lpad.i.i2359

invoke.cont.i.i2358:                              ; preds = %.noexc2361
  %vtable.i.i.i2355 = load ptr, ptr %call.i5.i.i2354, align 8, !tbaa !36
  %vfn.i.i.i2356 = getelementptr inbounds ptr, ptr %vtable.i.i.i2355, i64 7
  %14 = load ptr, ptr %vfn.i.i.i2356, align 8
  %call.i6.i.i2357 = invoke noundef signext i8 %14(ptr noundef nonnull align 8 dereferenceable(25) %call.i5.i.i2354, i8 noundef signext 10)
          to label %_ZNKSt3__19basic_iosIcNS_11char_traitsIcEEE5widenB7v170000Ec.exit.i2360 unwind label %lpad.i.i2359

lpad.i.i2359:                                     ; preds = %invoke.cont.i.i2358, %.noexc2361
  %15 = landingpad { ptr, i32 }
          cleanup
  call void @_ZNSt3__16localeD1Ev(ptr noundef nonnull align 8 dereferenceable(8) %ref.tmp.i.i2349) #16
  call void @llvm.lifetime.end.p0(i64 8, ptr nonnull %ref.tmp.i.i2349) #16
  br label %ehcleanup654

_ZNKSt3__19basic_iosIcNS_11char_traitsIcEEE5widenB7v170000Ec.exit.i2360: ; preds = %invoke.cont.i.i2358
  call void @_ZNSt3__16localeD1Ev(ptr noundef nonnull align 8 dereferenceable(8) %ref.tmp.i.i2349) #16
  call void @llvm.lifetime.end.p0(i64 8, ptr nonnull %ref.tmp.i.i2349) #16
  %call1.i2365 = invoke noundef nonnull align 8 dereferenceable(8) ptr @_ZNSt3__113basic_ostreamIcNS_11char_traitsIcEEE3putEc(ptr noundef nonnull align 8 dereferenceable(8) %call1.i868, i8 noundef signext %call.i6.i.i2357)
          to label %call1.i.noexc2364 unwind label %lpad

call1.i.noexc2364:                                ; preds = %_ZNKSt3__19basic_iosIcNS_11char_traitsIcEEE5widenB7v170000Ec.exit.i2360
  %call2.i2366 = invoke noundef nonnull align 8 dereferenceable(8) ptr @_ZNSt3__113basic_ostreamIcNS_11char_traitsIcEEE5flushEv(ptr noundef nonnull align 8 dereferenceable(8) %call1.i868)
          to label %invoke.cont38 unwind label %lpad

invoke.cont38:                                    ; preds = %call1.i.noexc2364
  store i32 2, ptr %ierr, align 4, !tbaa !32
  br label %cleanup651

lpad:                                             ; preds = %call1.i.noexc2364, %_ZNKSt3__19basic_iosIcNS_11char_traitsIcEEE5widenB7v170000Ec.exit.i2360, %invoke.cont36, %call1.i.noexc2345, %_ZNKSt3__19basic_iosIcNS_11char_traitsIcEEE5widenB7v170000Ec.exit.i2341, %invoke.cont31, %call1.i.noexc2326, %_ZNKSt3__19basic_iosIcNS_11char_traitsIcEEE5widenB7v170000Ec.exit.i2322, %invoke.cont26, %call1.i.noexc2307, %_ZNKSt3__19basic_iosIcNS_11char_traitsIcEEE5widenB7v170000Ec.exit.i2303, %invoke.cont21, %call1.i.noexc2288, %_ZNKSt3__19basic_iosIcNS_11char_traitsIcEEE5widenB7v170000Ec.exit.i2284, %invoke.cont16, %call1.i.noexc2269, %_ZNKSt3__19basic_iosIcNS_11char_traitsIcEEE5widenB7v170000Ec.exit.i2265, %invoke.cont7, %call1.i.noexc, %_ZNKSt3__19basic_iosIcNS_11char_traitsIcEEE5widenB7v170000Ec.exit.i, %invoke.cont3, %invoke.cont33, %invoke.cont28, %invoke.cont23, %invoke.cont18, %invoke.cont14, %invoke.cont9, %invoke.cont5, %invoke.cont2, %invoke.cont12, %if.then
  %16 = landingpad { ptr, i32 }
          cleanup
  br label %ehcleanup654

if.end.i:                                         ; preds = %entry
  call void @llvm.lifetime.start.p0(i64 24, ptr nonnull %p2) #16
  %__start_.i.i = getelementptr inbounds %"class.PP::Cmd", ptr %cmdi, i64 0, i32 9, i32 1
  %17 = load i64, ptr %__start_.i.i, align 8, !tbaa !38, !noalias !39
  %add.i.i = add i64 %17, 2
  %__begin_.i.i.i = getelementptr inbounds %"class.PP::Cmd", ptr %cmdi, i64 0, i32 9, i32 0, i32 1
  %18 = load ptr, ptr %__begin_.i.i.i, align 8, !tbaa !42, !noalias !39
  %div.i.i = udiv i64 %add.i.i, 39
  %add.ptr.i.i = getelementptr inbounds ptr, ptr %18, i64 %div.i.i
  %19 = load ptr, ptr %add.ptr.i.i, align 8, !tbaa !43, !noalias !39
  %rem.i.i = urem i64 %add.i.i, 39
  %add.ptr2.i.i = getelementptr inbounds %"class.PP::Word", ptr %19, i64 %rem.i.i
  invoke void @_ZNSt3__112basic_stringIcNS_11char_traitsIcEENS_9allocatorIcEEEC1ERKS5_(ptr noundef nonnull align 8 dereferenceable(24) %p2, ptr noundef nonnull align 8 dereferenceable(24) %add.ptr2.i.i)
          to label %invoke.cont41 unwind label %lpad40

invoke.cont41:                                    ; preds = %if.end.i
  %bf.load.i.i.i.i = load i8, ptr %p2, align 8
  %bf.clear.i.i.i.i = and i8 %bf.load.i.i.i.i, 1
  %tobool.i.not.i.i.i = icmp eq i8 %bf.clear.i.i.i.i, 0
  %__size_.i.i.i.i = getelementptr inbounds %"struct.std::__1::basic_string<char>::__long", ptr %p2, i64 0, i32 1
  %20 = load i64, ptr %__size_.i.i.i.i, align 8
  %bf.lshr.i.i.i.i = lshr i8 %bf.load.i.i.i.i, 1
  %conv.i.i.i.i = zext i8 %bf.lshr.i.i.i.i to i64
  %cond.i.i.i = select i1 %tobool.i.not.i.i.i, i64 %conv.i.i.i.i, i64 %20
  %cmp2.not.i.i = icmp eq i64 %cond.i.i.i, 1
  br i1 %cmp2.not.i.i, label %_ZNSt3__111char_traitsIcE7compareEPKcS3_m.exit.i.i.i, label %if.then43

_ZNSt3__111char_traitsIcE7compareEPKcS3_m.exit.i.i.i: ; preds = %invoke.cont41
  %__data_.i4.i.i.i.i.i = getelementptr inbounds %"struct.std::__1::basic_string<char>::__short", ptr %p2, i64 0, i32 2
  %__data_.i.i.i.i.i.i = getelementptr inbounds %"struct.std::__1::basic_string<char>::__long", ptr %p2, i64 0, i32 2
  %21 = load ptr, ptr %__data_.i.i.i.i.i.i, align 8
  %cond.i.i.i.i.i = select i1 %tobool.i.not.i.i.i, ptr %__data_.i4.i.i.i.i.i, ptr %21
  %lhsc2979 = load i8, ptr %cond.i.i.i.i.i, align 1
  %cmp9.i.i.i = icmp eq i8 %lhsc2979, 40
  br i1 %cmp9.i.i.i, label %for.body.lr.ph, label %if.then43

for.body.lr.ph:                                   ; preds = %_ZNSt3__111char_traitsIcE7compareEPKcS3_m.exit.i.i.i
  %sub = add nsw i32 %conv.i, -1
  %__data_.i.i.i.i917 = getelementptr inbounds %"struct.std::__1::basic_string<char>::__short", ptr %t1, i64 0, i32 2
  %__size_.i.i.i930 = getelementptr inbounds %"struct.std::__1::basic_string<char>::__long", ptr %t1, i64 0, i32 1
  %__data_.i.i.i.i.i = getelementptr inbounds %"struct.std::__1::basic_string<char>::__long", ptr %t1, i64 0, i32 2
  %wide.trip.count = zext i32 %sub to i64
  br label %for.body

if.then43:                                        ; preds = %_ZNSt3__111char_traitsIcE7compareEPKcS3_m.exit.i.i.i, %invoke.cont41
  invoke void @_ZN2PP3Cmd11fatal_errorEiRNSt3__118basic_stringstreamIcNS1_11char_traitsIcEENS1_9allocatorIcEEEERi(ptr noundef nonnull align 8 dereferenceable(320) %cmdi, i32 noundef 2, ptr noundef nonnull align 8 dereferenceable(128) %serr, ptr noundef nonnull align 4 dereferenceable(4) %ierr)
          to label %invoke.cont45 unwind label %lpad44

invoke.cont45:                                    ; preds = %if.then43
  %add.ptr46 = getelementptr inbounds i8, ptr %serr, i64 16
  %call1.i875 = invoke noundef nonnull align 8 dereferenceable(8) ptr @_ZNSt3__124__put_character_sequenceB7v170000IcNS_11char_traitsIcEEEERNS_13basic_ostreamIT_T0_EES7_PKS4_m(ptr noundef nonnull align 8 dereferenceable(8) %add.ptr46, ptr noundef nonnull @.str.9, i64 noundef 63)
          to label %invoke.cont47 unwind label %lpad44

invoke.cont47:                                    ; preds = %invoke.cont45
  %vtable.i2369 = load ptr, ptr %call1.i875, align 8, !tbaa !36
  %vbase.offset.ptr.i2370 = getelementptr i8, ptr %vtable.i2369, i64 -24
  %vbase.offset.i2371 = load i64, ptr %vbase.offset.ptr.i2370, align 8
  %add.ptr.i2372 = getelementptr inbounds i8, ptr %call1.i875, i64 %vbase.offset.i2371
  call void @llvm.lifetime.start.p0(i64 8, ptr nonnull %ref.tmp.i.i2368) #16
  invoke void @_ZNKSt3__18ios_base6getlocEv(ptr nonnull sret(%"class.std::__1::locale") align 8 %ref.tmp.i.i2368, ptr noundef nonnull align 8 dereferenceable(136) %add.ptr.i2372)
          to label %.noexc2380 unwind label %lpad44

.noexc2380:                                       ; preds = %invoke.cont47
  %call.i5.i.i2373 = invoke noundef ptr @_ZNKSt3__16locale9use_facetERNS0_2idE(ptr noundef nonnull align 8 dereferenceable(8) %ref.tmp.i.i2368, ptr noundef nonnull align 8 dereferenceable(12) @_ZNSt3__15ctypeIcE2idE)
          to label %invoke.cont.i.i2377 unwind label %lpad.i.i2378

invoke.cont.i.i2377:                              ; preds = %.noexc2380
  %vtable.i.i.i2374 = load ptr, ptr %call.i5.i.i2373, align 8, !tbaa !36
  %vfn.i.i.i2375 = getelementptr inbounds ptr, ptr %vtable.i.i.i2374, i64 7
  %22 = load ptr, ptr %vfn.i.i.i2375, align 8
  %call.i6.i.i2376 = invoke noundef signext i8 %22(ptr noundef nonnull align 8 dereferenceable(25) %call.i5.i.i2373, i8 noundef signext 10)
          to label %_ZNKSt3__19basic_iosIcNS_11char_traitsIcEEE5widenB7v170000Ec.exit.i2379 unwind label %lpad.i.i2378

lpad.i.i2378:                                     ; preds = %invoke.cont.i.i2377, %.noexc2380
  %23 = landingpad { ptr, i32 }
          cleanup
  call void @_ZNSt3__16localeD1Ev(ptr noundef nonnull align 8 dereferenceable(8) %ref.tmp.i.i2368) #16
  call void @llvm.lifetime.end.p0(i64 8, ptr nonnull %ref.tmp.i.i2368) #16
  br label %ehcleanup648

_ZNKSt3__19basic_iosIcNS_11char_traitsIcEEE5widenB7v170000Ec.exit.i2379: ; preds = %invoke.cont.i.i2377
  call void @_ZNSt3__16localeD1Ev(ptr noundef nonnull align 8 dereferenceable(8) %ref.tmp.i.i2368) #16
  call void @llvm.lifetime.end.p0(i64 8, ptr nonnull %ref.tmp.i.i2368) #16
  %call1.i2383 = invoke noundef nonnull align 8 dereferenceable(8) ptr @_ZNSt3__113basic_ostreamIcNS_11char_traitsIcEEE3putEc(ptr noundef nonnull align 8 dereferenceable(8) %call1.i875, i8 noundef signext %call.i6.i.i2376)
          to label %call1.i.noexc2382 unwind label %lpad44

call1.i.noexc2382:                                ; preds = %_ZNKSt3__19basic_iosIcNS_11char_traitsIcEEE5widenB7v170000Ec.exit.i2379
  %call2.i2384 = invoke noundef nonnull align 8 dereferenceable(8) ptr @_ZNSt3__113basic_ostreamIcNS_11char_traitsIcEEE5flushEv(ptr noundef nonnull align 8 dereferenceable(8) %call1.i875)
          to label %invoke.cont49 unwind label %lpad44

invoke.cont49:                                    ; preds = %call1.i.noexc2382
  %call1.i880 = invoke noundef nonnull align 8 dereferenceable(8) ptr @_ZNSt3__124__put_character_sequenceB7v170000IcNS_11char_traitsIcEEEERNS_13basic_ostreamIT_T0_EES7_PKS4_m(ptr noundef nonnull align 8 dereferenceable(8) %add.ptr46, ptr noundef nonnull @.str.10, i64 noundef 14)
          to label %invoke.cont52 unwind label %lpad44

invoke.cont52:                                    ; preds = %invoke.cont49
  %bf.load.i.i.i.i882 = load i8, ptr %p2, align 8
  %bf.clear.i.i.i.i883 = and i8 %bf.load.i.i.i.i882, 1
  %tobool.i.not.i.i.i884 = icmp eq i8 %bf.clear.i.i.i.i883, 0
  %__data_.i.i.i.i885 = getelementptr inbounds %"struct.std::__1::basic_string<char>::__long", ptr %p2, i64 0, i32 2
  %24 = load ptr, ptr %__data_.i.i.i.i885, align 8
  %__data_.i4.i.i.i = getelementptr inbounds %"struct.std::__1::basic_string<char>::__short", ptr %p2, i64 0, i32 2
  %cond.i.i.i886 = select i1 %tobool.i.not.i.i.i884, ptr %__data_.i4.i.i.i, ptr %24
  %25 = load i64, ptr %__size_.i.i.i.i, align 8
  %bf.lshr.i.i.i = lshr i8 %bf.load.i.i.i.i882, 1
  %conv.i.i.i = zext i8 %bf.lshr.i.i.i to i64
  %cond.i.i = select i1 %tobool.i.not.i.i.i884, i64 %conv.i.i.i, i64 %25
  %call2.i888 = invoke noundef nonnull align 8 dereferenceable(8) ptr @_ZNSt3__124__put_character_sequenceB7v170000IcNS_11char_traitsIcEEEERNS_13basic_ostreamIT_T0_EES7_PKS4_m(ptr noundef nonnull align 8 dereferenceable(8) %call1.i880, ptr noundef %cond.i.i.i886, i64 noundef %cond.i.i)
          to label %invoke.cont54 unwind label %lpad44

invoke.cont54:                                    ; preds = %invoke.cont52
  %call1.i890 = invoke noundef nonnull align 8 dereferenceable(8) ptr @_ZNSt3__124__put_character_sequenceB7v170000IcNS_11char_traitsIcEEEERNS_13basic_ostreamIT_T0_EES7_PKS4_m(ptr noundef nonnull align 8 dereferenceable(8) %call2.i888, ptr noundef nonnull @.str.11, i64 noundef 34)
          to label %invoke.cont56 unwind label %lpad44

invoke.cont56:                                    ; preds = %invoke.cont54
  %vtable.i2387 = load ptr, ptr %call1.i890, align 8, !tbaa !36
  %vbase.offset.ptr.i2388 = getelementptr i8, ptr %vtable.i2387, i64 -24
  %vbase.offset.i2389 = load i64, ptr %vbase.offset.ptr.i2388, align 8
  %add.ptr.i2390 = getelementptr inbounds i8, ptr %call1.i890, i64 %vbase.offset.i2389
  call void @llvm.lifetime.start.p0(i64 8, ptr nonnull %ref.tmp.i.i2386) #16
  invoke void @_ZNKSt3__18ios_base6getlocEv(ptr nonnull sret(%"class.std::__1::locale") align 8 %ref.tmp.i.i2386, ptr noundef nonnull align 8 dereferenceable(136) %add.ptr.i2390)
          to label %.noexc2398 unwind label %lpad44

.noexc2398:                                       ; preds = %invoke.cont56
  %call.i5.i.i2391 = invoke noundef ptr @_ZNKSt3__16locale9use_facetERNS0_2idE(ptr noundef nonnull align 8 dereferenceable(8) %ref.tmp.i.i2386, ptr noundef nonnull align 8 dereferenceable(12) @_ZNSt3__15ctypeIcE2idE)
          to label %invoke.cont.i.i2395 unwind label %lpad.i.i2396

invoke.cont.i.i2395:                              ; preds = %.noexc2398
  %vtable.i.i.i2392 = load ptr, ptr %call.i5.i.i2391, align 8, !tbaa !36
  %vfn.i.i.i2393 = getelementptr inbounds ptr, ptr %vtable.i.i.i2392, i64 7
  %26 = load ptr, ptr %vfn.i.i.i2393, align 8
  %call.i6.i.i2394 = invoke noundef signext i8 %26(ptr noundef nonnull align 8 dereferenceable(25) %call.i5.i.i2391, i8 noundef signext 10)
          to label %_ZNKSt3__19basic_iosIcNS_11char_traitsIcEEE5widenB7v170000Ec.exit.i2397 unwind label %lpad.i.i2396

lpad.i.i2396:                                     ; preds = %invoke.cont.i.i2395, %.noexc2398
  %27 = landingpad { ptr, i32 }
          cleanup
  call void @_ZNSt3__16localeD1Ev(ptr noundef nonnull align 8 dereferenceable(8) %ref.tmp.i.i2386) #16
  call void @llvm.lifetime.end.p0(i64 8, ptr nonnull %ref.tmp.i.i2386) #16
  br label %ehcleanup648

_ZNKSt3__19basic_iosIcNS_11char_traitsIcEEE5widenB7v170000Ec.exit.i2397: ; preds = %invoke.cont.i.i2395
  call void @_ZNSt3__16localeD1Ev(ptr noundef nonnull align 8 dereferenceable(8) %ref.tmp.i.i2386) #16
  call void @llvm.lifetime.end.p0(i64 8, ptr nonnull %ref.tmp.i.i2386) #16
  %call1.i2402 = invoke noundef nonnull align 8 dereferenceable(8) ptr @_ZNSt3__113basic_ostreamIcNS_11char_traitsIcEEE3putEc(ptr noundef nonnull align 8 dereferenceable(8) %call1.i890, i8 noundef signext %call.i6.i.i2394)
          to label %call1.i.noexc2401 unwind label %lpad44

call1.i.noexc2401:                                ; preds = %_ZNKSt3__19basic_iosIcNS_11char_traitsIcEEE5widenB7v170000Ec.exit.i2397
  %call2.i2403 = invoke noundef nonnull align 8 dereferenceable(8) ptr @_ZNSt3__113basic_ostreamIcNS_11char_traitsIcEEE5flushEv(ptr noundef nonnull align 8 dereferenceable(8) %call1.i890)
          to label %invoke.cont58 unwind label %lpad44

invoke.cont58:                                    ; preds = %call1.i.noexc2401
  %call1.i895 = invoke noundef nonnull align 8 dereferenceable(8) ptr @_ZNSt3__124__put_character_sequenceB7v170000IcNS_11char_traitsIcEEEERNS_13basic_ostreamIT_T0_EES7_PKS4_m(ptr noundef nonnull align 8 dereferenceable(8) %add.ptr46, ptr noundef nonnull @.str.12, i64 noundef 51)
          to label %invoke.cont61 unwind label %lpad44

invoke.cont61:                                    ; preds = %invoke.cont58
  %vtable.i2406 = load ptr, ptr %call1.i895, align 8, !tbaa !36
  %vbase.offset.ptr.i2407 = getelementptr i8, ptr %vtable.i2406, i64 -24
  %vbase.offset.i2408 = load i64, ptr %vbase.offset.ptr.i2407, align 8
  %add.ptr.i2409 = getelementptr inbounds i8, ptr %call1.i895, i64 %vbase.offset.i2408
  call void @llvm.lifetime.start.p0(i64 8, ptr nonnull %ref.tmp.i.i2405) #16
  invoke void @_ZNKSt3__18ios_base6getlocEv(ptr nonnull sret(%"class.std::__1::locale") align 8 %ref.tmp.i.i2405, ptr noundef nonnull align 8 dereferenceable(136) %add.ptr.i2409)
          to label %.noexc2417 unwind label %lpad44

.noexc2417:                                       ; preds = %invoke.cont61
  %call.i5.i.i2410 = invoke noundef ptr @_ZNKSt3__16locale9use_facetERNS0_2idE(ptr noundef nonnull align 8 dereferenceable(8) %ref.tmp.i.i2405, ptr noundef nonnull align 8 dereferenceable(12) @_ZNSt3__15ctypeIcE2idE)
          to label %invoke.cont.i.i2414 unwind label %lpad.i.i2415

invoke.cont.i.i2414:                              ; preds = %.noexc2417
  %vtable.i.i.i2411 = load ptr, ptr %call.i5.i.i2410, align 8, !tbaa !36
  %vfn.i.i.i2412 = getelementptr inbounds ptr, ptr %vtable.i.i.i2411, i64 7
  %28 = load ptr, ptr %vfn.i.i.i2412, align 8
  %call.i6.i.i2413 = invoke noundef signext i8 %28(ptr noundef nonnull align 8 dereferenceable(25) %call.i5.i.i2410, i8 noundef signext 10)
          to label %_ZNKSt3__19basic_iosIcNS_11char_traitsIcEEE5widenB7v170000Ec.exit.i2416 unwind label %lpad.i.i2415

lpad.i.i2415:                                     ; preds = %invoke.cont.i.i2414, %.noexc2417
  %29 = landingpad { ptr, i32 }
          cleanup
  call void @_ZNSt3__16localeD1Ev(ptr noundef nonnull align 8 dereferenceable(8) %ref.tmp.i.i2405) #16
  call void @llvm.lifetime.end.p0(i64 8, ptr nonnull %ref.tmp.i.i2405) #16
  br label %ehcleanup648

_ZNKSt3__19basic_iosIcNS_11char_traitsIcEEE5widenB7v170000Ec.exit.i2416: ; preds = %invoke.cont.i.i2414
  call void @_ZNSt3__16localeD1Ev(ptr noundef nonnull align 8 dereferenceable(8) %ref.tmp.i.i2405) #16
  call void @llvm.lifetime.end.p0(i64 8, ptr nonnull %ref.tmp.i.i2405) #16
  %call1.i2421 = invoke noundef nonnull align 8 dereferenceable(8) ptr @_ZNSt3__113basic_ostreamIcNS_11char_traitsIcEEE3putEc(ptr noundef nonnull align 8 dereferenceable(8) %call1.i895, i8 noundef signext %call.i6.i.i2413)
          to label %call1.i.noexc2420 unwind label %lpad44

call1.i.noexc2420:                                ; preds = %_ZNKSt3__19basic_iosIcNS_11char_traitsIcEEE5widenB7v170000Ec.exit.i2416
  %call2.i2422 = invoke noundef nonnull align 8 dereferenceable(8) ptr @_ZNSt3__113basic_ostreamIcNS_11char_traitsIcEEE5flushEv(ptr noundef nonnull align 8 dereferenceable(8) %call1.i895)
          to label %invoke.cont63 unwind label %lpad44

invoke.cont63:                                    ; preds = %call1.i.noexc2420
  %call1.i900 = invoke noundef nonnull align 8 dereferenceable(8) ptr @_ZNSt3__124__put_character_sequenceB7v170000IcNS_11char_traitsIcEEEERNS_13basic_ostreamIT_T0_EES7_PKS4_m(ptr noundef nonnull align 8 dereferenceable(8) %add.ptr46, ptr noundef nonnull @.str.13, i64 noundef 46)
          to label %invoke.cont66 unwind label %lpad44

invoke.cont66:                                    ; preds = %invoke.cont63
  %vtable.i2425 = load ptr, ptr %call1.i900, align 8, !tbaa !36
  %vbase.offset.ptr.i2426 = getelementptr i8, ptr %vtable.i2425, i64 -24
  %vbase.offset.i2427 = load i64, ptr %vbase.offset.ptr.i2426, align 8
  %add.ptr.i2428 = getelementptr inbounds i8, ptr %call1.i900, i64 %vbase.offset.i2427
  call void @llvm.lifetime.start.p0(i64 8, ptr nonnull %ref.tmp.i.i2424) #16
  invoke void @_ZNKSt3__18ios_base6getlocEv(ptr nonnull sret(%"class.std::__1::locale") align 8 %ref.tmp.i.i2424, ptr noundef nonnull align 8 dereferenceable(136) %add.ptr.i2428)
          to label %.noexc2436 unwind label %lpad44

.noexc2436:                                       ; preds = %invoke.cont66
  %call.i5.i.i2429 = invoke noundef ptr @_ZNKSt3__16locale9use_facetERNS0_2idE(ptr noundef nonnull align 8 dereferenceable(8) %ref.tmp.i.i2424, ptr noundef nonnull align 8 dereferenceable(12) @_ZNSt3__15ctypeIcE2idE)
          to label %invoke.cont.i.i2433 unwind label %lpad.i.i2434

invoke.cont.i.i2433:                              ; preds = %.noexc2436
  %vtable.i.i.i2430 = load ptr, ptr %call.i5.i.i2429, align 8, !tbaa !36
  %vfn.i.i.i2431 = getelementptr inbounds ptr, ptr %vtable.i.i.i2430, i64 7
  %30 = load ptr, ptr %vfn.i.i.i2431, align 8
  %call.i6.i.i2432 = invoke noundef signext i8 %30(ptr noundef nonnull align 8 dereferenceable(25) %call.i5.i.i2429, i8 noundef signext 10)
          to label %_ZNKSt3__19basic_iosIcNS_11char_traitsIcEEE5widenB7v170000Ec.exit.i2435 unwind label %lpad.i.i2434

lpad.i.i2434:                                     ; preds = %invoke.cont.i.i2433, %.noexc2436
  %31 = landingpad { ptr, i32 }
          cleanup
  call void @_ZNSt3__16localeD1Ev(ptr noundef nonnull align 8 dereferenceable(8) %ref.tmp.i.i2424) #16
  call void @llvm.lifetime.end.p0(i64 8, ptr nonnull %ref.tmp.i.i2424) #16
  br label %ehcleanup648

_ZNKSt3__19basic_iosIcNS_11char_traitsIcEEE5widenB7v170000Ec.exit.i2435: ; preds = %invoke.cont.i.i2433
  call void @_ZNSt3__16localeD1Ev(ptr noundef nonnull align 8 dereferenceable(8) %ref.tmp.i.i2424) #16
  call void @llvm.lifetime.end.p0(i64 8, ptr nonnull %ref.tmp.i.i2424) #16
  %call1.i2440 = invoke noundef nonnull align 8 dereferenceable(8) ptr @_ZNSt3__113basic_ostreamIcNS_11char_traitsIcEEE3putEc(ptr noundef nonnull align 8 dereferenceable(8) %call1.i900, i8 noundef signext %call.i6.i.i2432)
          to label %call1.i.noexc2439 unwind label %lpad44

call1.i.noexc2439:                                ; preds = %_ZNKSt3__19basic_iosIcNS_11char_traitsIcEEE5widenB7v170000Ec.exit.i2435
  %call2.i2441 = invoke noundef nonnull align 8 dereferenceable(8) ptr @_ZNSt3__113basic_ostreamIcNS_11char_traitsIcEEE5flushEv(ptr noundef nonnull align 8 dereferenceable(8) %call1.i900)
          to label %invoke.cont68 unwind label %lpad44

invoke.cont68:                                    ; preds = %call1.i.noexc2439
  %call1.i905 = invoke noundef nonnull align 8 dereferenceable(8) ptr @_ZNSt3__124__put_character_sequenceB7v170000IcNS_11char_traitsIcEEEERNS_13basic_ostreamIT_T0_EES7_PKS4_m(ptr noundef nonnull align 8 dereferenceable(8) %add.ptr46, ptr noundef nonnull @.str.14, i64 noundef 44)
          to label %invoke.cont71 unwind label %lpad44

invoke.cont71:                                    ; preds = %invoke.cont68
  %vtable.i2444 = load ptr, ptr %call1.i905, align 8, !tbaa !36
  %vbase.offset.ptr.i2445 = getelementptr i8, ptr %vtable.i2444, i64 -24
  %vbase.offset.i2446 = load i64, ptr %vbase.offset.ptr.i2445, align 8
  %add.ptr.i2447 = getelementptr inbounds i8, ptr %call1.i905, i64 %vbase.offset.i2446
  call void @llvm.lifetime.start.p0(i64 8, ptr nonnull %ref.tmp.i.i2443) #16
  invoke void @_ZNKSt3__18ios_base6getlocEv(ptr nonnull sret(%"class.std::__1::locale") align 8 %ref.tmp.i.i2443, ptr noundef nonnull align 8 dereferenceable(136) %add.ptr.i2447)
          to label %.noexc2455 unwind label %lpad44

.noexc2455:                                       ; preds = %invoke.cont71
  %call.i5.i.i2448 = invoke noundef ptr @_ZNKSt3__16locale9use_facetERNS0_2idE(ptr noundef nonnull align 8 dereferenceable(8) %ref.tmp.i.i2443, ptr noundef nonnull align 8 dereferenceable(12) @_ZNSt3__15ctypeIcE2idE)
          to label %invoke.cont.i.i2452 unwind label %lpad.i.i2453

invoke.cont.i.i2452:                              ; preds = %.noexc2455
  %vtable.i.i.i2449 = load ptr, ptr %call.i5.i.i2448, align 8, !tbaa !36
  %vfn.i.i.i2450 = getelementptr inbounds ptr, ptr %vtable.i.i.i2449, i64 7
  %32 = load ptr, ptr %vfn.i.i.i2450, align 8
  %call.i6.i.i2451 = invoke noundef signext i8 %32(ptr noundef nonnull align 8 dereferenceable(25) %call.i5.i.i2448, i8 noundef signext 10)
          to label %_ZNKSt3__19basic_iosIcNS_11char_traitsIcEEE5widenB7v170000Ec.exit.i2454 unwind label %lpad.i.i2453

lpad.i.i2453:                                     ; preds = %invoke.cont.i.i2452, %.noexc2455
  %33 = landingpad { ptr, i32 }
          cleanup
  call void @_ZNSt3__16localeD1Ev(ptr noundef nonnull align 8 dereferenceable(8) %ref.tmp.i.i2443) #16
  call void @llvm.lifetime.end.p0(i64 8, ptr nonnull %ref.tmp.i.i2443) #16
  br label %ehcleanup648

_ZNKSt3__19basic_iosIcNS_11char_traitsIcEEE5widenB7v170000Ec.exit.i2454: ; preds = %invoke.cont.i.i2452
  call void @_ZNSt3__16localeD1Ev(ptr noundef nonnull align 8 dereferenceable(8) %ref.tmp.i.i2443) #16
  call void @llvm.lifetime.end.p0(i64 8, ptr nonnull %ref.tmp.i.i2443) #16
  %call1.i2459 = invoke noundef nonnull align 8 dereferenceable(8) ptr @_ZNSt3__113basic_ostreamIcNS_11char_traitsIcEEE3putEc(ptr noundef nonnull align 8 dereferenceable(8) %call1.i905, i8 noundef signext %call.i6.i.i2451)
          to label %call1.i.noexc2458 unwind label %lpad44

call1.i.noexc2458:                                ; preds = %_ZNKSt3__19basic_iosIcNS_11char_traitsIcEEE5widenB7v170000Ec.exit.i2454
  %call2.i2460 = invoke noundef nonnull align 8 dereferenceable(8) ptr @_ZNSt3__113basic_ostreamIcNS_11char_traitsIcEEE5flushEv(ptr noundef nonnull align 8 dereferenceable(8) %call1.i905)
          to label %invoke.cont73 unwind label %lpad44

invoke.cont73:                                    ; preds = %call1.i.noexc2458
  %call1.i910 = invoke noundef nonnull align 8 dereferenceable(8) ptr @_ZNSt3__124__put_character_sequenceB7v170000IcNS_11char_traitsIcEEEERNS_13basic_ostreamIT_T0_EES7_PKS4_m(ptr noundef nonnull align 8 dereferenceable(8) %add.ptr46, ptr noundef nonnull @.str.15, i64 noundef 60)
          to label %invoke.cont76 unwind label %lpad44

invoke.cont76:                                    ; preds = %invoke.cont73
  %vtable.i2463 = load ptr, ptr %call1.i910, align 8, !tbaa !36
  %vbase.offset.ptr.i2464 = getelementptr i8, ptr %vtable.i2463, i64 -24
  %vbase.offset.i2465 = load i64, ptr %vbase.offset.ptr.i2464, align 8
  %add.ptr.i2466 = getelementptr inbounds i8, ptr %call1.i910, i64 %vbase.offset.i2465
  call void @llvm.lifetime.start.p0(i64 8, ptr nonnull %ref.tmp.i.i2462) #16
  invoke void @_ZNKSt3__18ios_base6getlocEv(ptr nonnull sret(%"class.std::__1::locale") align 8 %ref.tmp.i.i2462, ptr noundef nonnull align 8 dereferenceable(136) %add.ptr.i2466)
          to label %.noexc2474 unwind label %lpad44

.noexc2474:                                       ; preds = %invoke.cont76
  %call.i5.i.i2467 = invoke noundef ptr @_ZNKSt3__16locale9use_facetERNS0_2idE(ptr noundef nonnull align 8 dereferenceable(8) %ref.tmp.i.i2462, ptr noundef nonnull align 8 dereferenceable(12) @_ZNSt3__15ctypeIcE2idE)
          to label %invoke.cont.i.i2471 unwind label %lpad.i.i2472

invoke.cont.i.i2471:                              ; preds = %.noexc2474
  %vtable.i.i.i2468 = load ptr, ptr %call.i5.i.i2467, align 8, !tbaa !36
  %vfn.i.i.i2469 = getelementptr inbounds ptr, ptr %vtable.i.i.i2468, i64 7
  %34 = load ptr, ptr %vfn.i.i.i2469, align 8
  %call.i6.i.i2470 = invoke noundef signext i8 %34(ptr noundef nonnull align 8 dereferenceable(25) %call.i5.i.i2467, i8 noundef signext 10)
          to label %_ZNKSt3__19basic_iosIcNS_11char_traitsIcEEE5widenB7v170000Ec.exit.i2473 unwind label %lpad.i.i2472

lpad.i.i2472:                                     ; preds = %invoke.cont.i.i2471, %.noexc2474
  %35 = landingpad { ptr, i32 }
          cleanup
  call void @_ZNSt3__16localeD1Ev(ptr noundef nonnull align 8 dereferenceable(8) %ref.tmp.i.i2462) #16
  call void @llvm.lifetime.end.p0(i64 8, ptr nonnull %ref.tmp.i.i2462) #16
  br label %ehcleanup648

_ZNKSt3__19basic_iosIcNS_11char_traitsIcEEE5widenB7v170000Ec.exit.i2473: ; preds = %invoke.cont.i.i2471
  call void @_ZNSt3__16localeD1Ev(ptr noundef nonnull align 8 dereferenceable(8) %ref.tmp.i.i2462) #16
  call void @llvm.lifetime.end.p0(i64 8, ptr nonnull %ref.tmp.i.i2462) #16
  %call1.i2478 = invoke noundef nonnull align 8 dereferenceable(8) ptr @_ZNSt3__113basic_ostreamIcNS_11char_traitsIcEEE3putEc(ptr noundef nonnull align 8 dereferenceable(8) %call1.i910, i8 noundef signext %call.i6.i.i2470)
          to label %call1.i.noexc2477 unwind label %lpad44

call1.i.noexc2477:                                ; preds = %_ZNKSt3__19basic_iosIcNS_11char_traitsIcEEE5widenB7v170000Ec.exit.i2473
  %call2.i2479 = invoke noundef nonnull align 8 dereferenceable(8) ptr @_ZNSt3__113basic_ostreamIcNS_11char_traitsIcEEE5flushEv(ptr noundef nonnull align 8 dereferenceable(8) %call1.i910)
          to label %invoke.cont78 unwind label %lpad44

invoke.cont78:                                    ; preds = %call1.i.noexc2477
  store i32 2, ptr %ierr, align 4, !tbaa !32
  br label %cleanup647

lpad40:                                           ; preds = %if.end.i
  %36 = landingpad { ptr, i32 }
          cleanup
  br label %ehcleanup650

lpad44:                                           ; preds = %call1.i.noexc2477, %_ZNKSt3__19basic_iosIcNS_11char_traitsIcEEE5widenB7v170000Ec.exit.i2473, %invoke.cont76, %call1.i.noexc2458, %_ZNKSt3__19basic_iosIcNS_11char_traitsIcEEE5widenB7v170000Ec.exit.i2454, %invoke.cont71, %call1.i.noexc2439, %_ZNKSt3__19basic_iosIcNS_11char_traitsIcEEE5widenB7v170000Ec.exit.i2435, %invoke.cont66, %call1.i.noexc2420, %_ZNKSt3__19basic_iosIcNS_11char_traitsIcEEE5widenB7v170000Ec.exit.i2416, %invoke.cont61, %call1.i.noexc2401, %_ZNKSt3__19basic_iosIcNS_11char_traitsIcEEE5widenB7v170000Ec.exit.i2397, %invoke.cont56, %call1.i.noexc2382, %_ZNKSt3__19basic_iosIcNS_11char_traitsIcEEE5widenB7v170000Ec.exit.i2379, %invoke.cont47, %invoke.cont73, %invoke.cont68, %invoke.cont63, %invoke.cont58, %invoke.cont54, %invoke.cont52, %invoke.cont49, %invoke.cont45, %if.then43
  %37 = landingpad { ptr, i32 }
          cleanup
  br label %ehcleanup648

for.body127.lr.ph:                                ; preds = %for.inc
  %__data_.i.i.i.i984 = getelementptr inbounds %"struct.std::__1::basic_string<char>::__short", ptr %pi, i64 0, i32 2
  %__size_.i.i.i1001 = getelementptr inbounds %"struct.std::__1::basic_string<char>::__long", ptr %pi, i64 0, i32 1
  %__data_.i.i.i.i.i1010 = getelementptr inbounds %"struct.std::__1::basic_string<char>::__long", ptr %pi, i64 0, i32 2
  %wide.trip.count3131 = and i64 %1, 4294967295
  br label %for.body127

for.body:                                         ; preds = %for.body.lr.ph, %for.inc
  %indvars.iv = phi i64 [ 1, %for.body.lr.ph ], [ %indvars.iv.next, %for.inc ]
  call void @llvm.lifetime.start.p0(i64 24, ptr nonnull %t1) #16
  call void @llvm.experimental.noalias.scope.decl(metadata !44)
  %38 = load i64, ptr %__size_.i.i.i, align 8, !tbaa !35, !noalias !44
  %sext3161 = shl i64 %38, 32
  %39 = ashr exact i64 %sext3161, 32
  %cmp.not.i916 = icmp slt i64 %indvars.iv, %39
  br i1 %cmp.not.i916, label %if.end.i926, label %if.then3.i.i.i918

if.then3.i.i.i918:                                ; preds = %for.body
  store i8 0, ptr %t1, align 8, !alias.scope !44
  store i8 0, ptr %__data_.i.i.i.i917, align 1, !tbaa !47, !alias.scope !44
  br label %invoke.cont83

if.end.i926:                                      ; preds = %for.body
  %40 = load i64, ptr %__start_.i.i, align 8, !tbaa !38, !noalias !44
  %add.i.i920 = add i64 %40, %indvars.iv
  %41 = load ptr, ptr %__begin_.i.i.i, align 8, !tbaa !42, !noalias !44
  %div.i.i922 = udiv i64 %add.i.i920, 39
  %add.ptr.i.i923 = getelementptr inbounds ptr, ptr %41, i64 %div.i.i922
  %42 = load ptr, ptr %add.ptr.i.i923, align 8, !tbaa !43, !noalias !44
  %rem.i.i924 = urem i64 %add.i.i920, 39
  %add.ptr2.i.i925 = getelementptr inbounds %"class.PP::Word", ptr %42, i64 %rem.i.i924
  invoke void @_ZNSt3__112basic_stringIcNS_11char_traitsIcEENS_9allocatorIcEEEC1ERKS5_(ptr noundef nonnull align 8 dereferenceable(24) %t1, ptr noundef nonnull align 8 dereferenceable(24) %add.ptr2.i.i925)
          to label %if.end.i926.invoke.cont83_crit_edge unwind label %lpad82

if.end.i926.invoke.cont83_crit_edge:              ; preds = %if.end.i926
  %bf.load.i.i.i.pre = load i8, ptr %t1, align 8
  br label %invoke.cont83

invoke.cont83:                                    ; preds = %if.end.i926.invoke.cont83_crit_edge, %if.then3.i.i.i918
  %bf.load.i.i.i = phi i8 [ %bf.load.i.i.i.pre, %if.end.i926.invoke.cont83_crit_edge ], [ 0, %if.then3.i.i.i918 ]
  %bf.clear.i.i.i = and i8 %bf.load.i.i.i, 1
  %tobool.i.not.i.i = icmp eq i8 %bf.clear.i.i.i, 0
  %43 = load i64, ptr %__size_.i.i.i930, align 8
  %bf.lshr.i.i.i931 = lshr i8 %bf.load.i.i.i, 1
  %conv.i.i.i932 = zext i8 %bf.lshr.i.i.i931 to i64
  %cond.i.i933 = select i1 %tobool.i.not.i.i, i64 %conv.i.i.i932, i64 %43
  %cmp2.not.i = icmp eq i64 %cond.i.i933, 4
  br i1 %cmp2.not.i, label %_ZNSt3__111char_traitsIcE7compareEPKcS3_m.exit.i.i, label %for.inc.critedge

_ZNSt3__111char_traitsIcE7compareEPKcS3_m.exit.i.i: ; preds = %invoke.cont83
  %44 = load ptr, ptr %__data_.i.i.i.i.i, align 8
  %cond.i.i.i.i = select i1 %tobool.i.not.i.i, ptr %__data_.i.i.i.i917, ptr %44
  %bcmp2978 = call i32 @bcmp(ptr noundef nonnull dereferenceable(4) %cond.i.i.i.i, ptr noundef nonnull dereferenceable(4) @.str.16, i64 4)
  %cmp9.i.i = icmp eq i32 %bcmp2978, 0
  br i1 %cmp9.i.i, label %if.then85, label %for.inc.critedge

if.then85:                                        ; preds = %_ZNSt3__111char_traitsIcE7compareEPKcS3_m.exit.i.i
  %45 = trunc i64 %indvars.iv to i32
  invoke void @_ZN2PP3Cmd11fatal_errorEiRNSt3__118basic_stringstreamIcNS1_11char_traitsIcEENS1_9allocatorIcEEEERi(ptr noundef nonnull align 8 dereferenceable(320) %cmdi, i32 noundef %45, ptr noundef nonnull align 8 dereferenceable(128) %serr, ptr noundef nonnull align 4 dereferenceable(4) %ierr)
          to label %invoke.cont87 unwind label %lpad86

invoke.cont87:                                    ; preds = %if.then85
  %add.ptr88 = getelementptr inbounds i8, ptr %serr, i64 16
  %call1.i937 = invoke noundef nonnull align 8 dereferenceable(8) ptr @_ZNSt3__124__put_character_sequenceB7v170000IcNS_11char_traitsIcEEEERNS_13basic_ostreamIT_T0_EES7_PKS4_m(ptr noundef nonnull align 8 dereferenceable(8) %add.ptr88, ptr noundef nonnull @.str.17, i64 noundef 59)
          to label %invoke.cont89 unwind label %lpad86

invoke.cont89:                                    ; preds = %invoke.cont87
  %vtable.i2482 = load ptr, ptr %call1.i937, align 8, !tbaa !36
  %vbase.offset.ptr.i2483 = getelementptr i8, ptr %vtable.i2482, i64 -24
  %vbase.offset.i2484 = load i64, ptr %vbase.offset.ptr.i2483, align 8
  %add.ptr.i2485 = getelementptr inbounds i8, ptr %call1.i937, i64 %vbase.offset.i2484
  call void @llvm.lifetime.start.p0(i64 8, ptr nonnull %ref.tmp.i.i2481) #16
  invoke void @_ZNKSt3__18ios_base6getlocEv(ptr nonnull sret(%"class.std::__1::locale") align 8 %ref.tmp.i.i2481, ptr noundef nonnull align 8 dereferenceable(136) %add.ptr.i2485)
          to label %.noexc2493 unwind label %lpad86

.noexc2493:                                       ; preds = %invoke.cont89
  %call.i5.i.i2486 = invoke noundef ptr @_ZNKSt3__16locale9use_facetERNS0_2idE(ptr noundef nonnull align 8 dereferenceable(8) %ref.tmp.i.i2481, ptr noundef nonnull align 8 dereferenceable(12) @_ZNSt3__15ctypeIcE2idE)
          to label %invoke.cont.i.i2490 unwind label %lpad.i.i2491

invoke.cont.i.i2490:                              ; preds = %.noexc2493
  %vtable.i.i.i2487 = load ptr, ptr %call.i5.i.i2486, align 8, !tbaa !36
  %vfn.i.i.i2488 = getelementptr inbounds ptr, ptr %vtable.i.i.i2487, i64 7
  %46 = load ptr, ptr %vfn.i.i.i2488, align 8
  %call.i6.i.i2489 = invoke noundef signext i8 %46(ptr noundef nonnull align 8 dereferenceable(25) %call.i5.i.i2486, i8 noundef signext 10)
          to label %_ZNKSt3__19basic_iosIcNS_11char_traitsIcEEE5widenB7v170000Ec.exit.i2492 unwind label %lpad.i.i2491

lpad.i.i2491:                                     ; preds = %invoke.cont.i.i2490, %.noexc2493
  %47 = landingpad { ptr, i32 }
          cleanup
  call void @_ZNSt3__16localeD1Ev(ptr noundef nonnull align 8 dereferenceable(8) %ref.tmp.i.i2481) #16
  call void @llvm.lifetime.end.p0(i64 8, ptr nonnull %ref.tmp.i.i2481) #16
  br label %lpad86.body

_ZNKSt3__19basic_iosIcNS_11char_traitsIcEEE5widenB7v170000Ec.exit.i2492: ; preds = %invoke.cont.i.i2490
  call void @_ZNSt3__16localeD1Ev(ptr noundef nonnull align 8 dereferenceable(8) %ref.tmp.i.i2481) #16
  call void @llvm.lifetime.end.p0(i64 8, ptr nonnull %ref.tmp.i.i2481) #16
  %call1.i2496 = invoke noundef nonnull align 8 dereferenceable(8) ptr @_ZNSt3__113basic_ostreamIcNS_11char_traitsIcEEE3putEc(ptr noundef nonnull align 8 dereferenceable(8) %call1.i937, i8 noundef signext %call.i6.i.i2489)
          to label %call1.i.noexc2495 unwind label %lpad86

call1.i.noexc2495:                                ; preds = %_ZNKSt3__19basic_iosIcNS_11char_traitsIcEEE5widenB7v170000Ec.exit.i2492
  %call2.i2497 = invoke noundef nonnull align 8 dereferenceable(8) ptr @_ZNSt3__113basic_ostreamIcNS_11char_traitsIcEEE5flushEv(ptr noundef nonnull align 8 dereferenceable(8) %call1.i937)
          to label %invoke.cont91 unwind label %lpad86

invoke.cont91:                                    ; preds = %call1.i.noexc2495
  %call1.i942 = invoke noundef nonnull align 8 dereferenceable(8) ptr @_ZNSt3__124__put_character_sequenceB7v170000IcNS_11char_traitsIcEEEERNS_13basic_ostreamIT_T0_EES7_PKS4_m(ptr noundef nonnull align 8 dereferenceable(8) %add.ptr88, ptr noundef nonnull @.str.18, i64 noundef 66)
          to label %invoke.cont94 unwind label %lpad86

invoke.cont94:                                    ; preds = %invoke.cont91
  %vtable.i2500 = load ptr, ptr %call1.i942, align 8, !tbaa !36
  %vbase.offset.ptr.i2501 = getelementptr i8, ptr %vtable.i2500, i64 -24
  %vbase.offset.i2502 = load i64, ptr %vbase.offset.ptr.i2501, align 8
  %add.ptr.i2503 = getelementptr inbounds i8, ptr %call1.i942, i64 %vbase.offset.i2502
  call void @llvm.lifetime.start.p0(i64 8, ptr nonnull %ref.tmp.i.i2499) #16
  invoke void @_ZNKSt3__18ios_base6getlocEv(ptr nonnull sret(%"class.std::__1::locale") align 8 %ref.tmp.i.i2499, ptr noundef nonnull align 8 dereferenceable(136) %add.ptr.i2503)
          to label %.noexc2511 unwind label %lpad86

.noexc2511:                                       ; preds = %invoke.cont94
  %call.i5.i.i2504 = invoke noundef ptr @_ZNKSt3__16locale9use_facetERNS0_2idE(ptr noundef nonnull align 8 dereferenceable(8) %ref.tmp.i.i2499, ptr noundef nonnull align 8 dereferenceable(12) @_ZNSt3__15ctypeIcE2idE)
          to label %invoke.cont.i.i2508 unwind label %lpad.i.i2509

invoke.cont.i.i2508:                              ; preds = %.noexc2511
  %vtable.i.i.i2505 = load ptr, ptr %call.i5.i.i2504, align 8, !tbaa !36
  %vfn.i.i.i2506 = getelementptr inbounds ptr, ptr %vtable.i.i.i2505, i64 7
  %48 = load ptr, ptr %vfn.i.i.i2506, align 8
  %call.i6.i.i2507 = invoke noundef signext i8 %48(ptr noundef nonnull align 8 dereferenceable(25) %call.i5.i.i2504, i8 noundef signext 10)
          to label %_ZNKSt3__19basic_iosIcNS_11char_traitsIcEEE5widenB7v170000Ec.exit.i2510 unwind label %lpad.i.i2509

lpad.i.i2509:                                     ; preds = %invoke.cont.i.i2508, %.noexc2511
  %49 = landingpad { ptr, i32 }
          cleanup
  call void @_ZNSt3__16localeD1Ev(ptr noundef nonnull align 8 dereferenceable(8) %ref.tmp.i.i2499) #16
  call void @llvm.lifetime.end.p0(i64 8, ptr nonnull %ref.tmp.i.i2499) #16
  br label %lpad86.body

_ZNKSt3__19basic_iosIcNS_11char_traitsIcEEE5widenB7v170000Ec.exit.i2510: ; preds = %invoke.cont.i.i2508
  call void @_ZNSt3__16localeD1Ev(ptr noundef nonnull align 8 dereferenceable(8) %ref.tmp.i.i2499) #16
  call void @llvm.lifetime.end.p0(i64 8, ptr nonnull %ref.tmp.i.i2499) #16
  %call1.i2515 = invoke noundef nonnull align 8 dereferenceable(8) ptr @_ZNSt3__113basic_ostreamIcNS_11char_traitsIcEEE3putEc(ptr noundef nonnull align 8 dereferenceable(8) %call1.i942, i8 noundef signext %call.i6.i.i2507)
          to label %call1.i.noexc2514 unwind label %lpad86

call1.i.noexc2514:                                ; preds = %_ZNKSt3__19basic_iosIcNS_11char_traitsIcEEE5widenB7v170000Ec.exit.i2510
  %call2.i2516 = invoke noundef nonnull align 8 dereferenceable(8) ptr @_ZNSt3__113basic_ostreamIcNS_11char_traitsIcEEE5flushEv(ptr noundef nonnull align 8 dereferenceable(8) %call1.i942)
          to label %invoke.cont96 unwind label %lpad86

invoke.cont96:                                    ; preds = %call1.i.noexc2514
  %call1.i947 = invoke noundef nonnull align 8 dereferenceable(8) ptr @_ZNSt3__124__put_character_sequenceB7v170000IcNS_11char_traitsIcEEEERNS_13basic_ostreamIT_T0_EES7_PKS4_m(ptr noundef nonnull align 8 dereferenceable(8) %add.ptr88, ptr noundef nonnull @.str.19, i64 noundef 51)
          to label %invoke.cont99 unwind label %lpad86

invoke.cont99:                                    ; preds = %invoke.cont96
  %vtable.i2519 = load ptr, ptr %call1.i947, align 8, !tbaa !36
  %vbase.offset.ptr.i2520 = getelementptr i8, ptr %vtable.i2519, i64 -24
  %vbase.offset.i2521 = load i64, ptr %vbase.offset.ptr.i2520, align 8
  %add.ptr.i2522 = getelementptr inbounds i8, ptr %call1.i947, i64 %vbase.offset.i2521
  call void @llvm.lifetime.start.p0(i64 8, ptr nonnull %ref.tmp.i.i2518) #16
  invoke void @_ZNKSt3__18ios_base6getlocEv(ptr nonnull sret(%"class.std::__1::locale") align 8 %ref.tmp.i.i2518, ptr noundef nonnull align 8 dereferenceable(136) %add.ptr.i2522)
          to label %.noexc2530 unwind label %lpad86

.noexc2530:                                       ; preds = %invoke.cont99
  %call.i5.i.i2523 = invoke noundef ptr @_ZNKSt3__16locale9use_facetERNS0_2idE(ptr noundef nonnull align 8 dereferenceable(8) %ref.tmp.i.i2518, ptr noundef nonnull align 8 dereferenceable(12) @_ZNSt3__15ctypeIcE2idE)
          to label %invoke.cont.i.i2527 unwind label %lpad.i.i2528

invoke.cont.i.i2527:                              ; preds = %.noexc2530
  %vtable.i.i.i2524 = load ptr, ptr %call.i5.i.i2523, align 8, !tbaa !36
  %vfn.i.i.i2525 = getelementptr inbounds ptr, ptr %vtable.i.i.i2524, i64 7
  %50 = load ptr, ptr %vfn.i.i.i2525, align 8
  %call.i6.i.i2526 = invoke noundef signext i8 %50(ptr noundef nonnull align 8 dereferenceable(25) %call.i5.i.i2523, i8 noundef signext 10)
          to label %_ZNKSt3__19basic_iosIcNS_11char_traitsIcEEE5widenB7v170000Ec.exit.i2529 unwind label %lpad.i.i2528

lpad.i.i2528:                                     ; preds = %invoke.cont.i.i2527, %.noexc2530
  %51 = landingpad { ptr, i32 }
          cleanup
  call void @_ZNSt3__16localeD1Ev(ptr noundef nonnull align 8 dereferenceable(8) %ref.tmp.i.i2518) #16
  call void @llvm.lifetime.end.p0(i64 8, ptr nonnull %ref.tmp.i.i2518) #16
  br label %lpad86.body

_ZNKSt3__19basic_iosIcNS_11char_traitsIcEEE5widenB7v170000Ec.exit.i2529: ; preds = %invoke.cont.i.i2527
  call void @_ZNSt3__16localeD1Ev(ptr noundef nonnull align 8 dereferenceable(8) %ref.tmp.i.i2518) #16
  call void @llvm.lifetime.end.p0(i64 8, ptr nonnull %ref.tmp.i.i2518) #16
  %call1.i2534 = invoke noundef nonnull align 8 dereferenceable(8) ptr @_ZNSt3__113basic_ostreamIcNS_11char_traitsIcEEE3putEc(ptr noundef nonnull align 8 dereferenceable(8) %call1.i947, i8 noundef signext %call.i6.i.i2526)
          to label %call1.i.noexc2533 unwind label %lpad86

call1.i.noexc2533:                                ; preds = %_ZNKSt3__19basic_iosIcNS_11char_traitsIcEEE5widenB7v170000Ec.exit.i2529
  %call2.i2535 = invoke noundef nonnull align 8 dereferenceable(8) ptr @_ZNSt3__113basic_ostreamIcNS_11char_traitsIcEEE5flushEv(ptr noundef nonnull align 8 dereferenceable(8) %call1.i947)
          to label %invoke.cont101 unwind label %lpad86

invoke.cont101:                                   ; preds = %call1.i.noexc2533
  %call1.i952 = invoke noundef nonnull align 8 dereferenceable(8) ptr @_ZNSt3__124__put_character_sequenceB7v170000IcNS_11char_traitsIcEEEERNS_13basic_ostreamIT_T0_EES7_PKS4_m(ptr noundef nonnull align 8 dereferenceable(8) %add.ptr88, ptr noundef nonnull @.str.13, i64 noundef 46)
          to label %invoke.cont104 unwind label %lpad86

invoke.cont104:                                   ; preds = %invoke.cont101
  %vtable.i2538 = load ptr, ptr %call1.i952, align 8, !tbaa !36
  %vbase.offset.ptr.i2539 = getelementptr i8, ptr %vtable.i2538, i64 -24
  %vbase.offset.i2540 = load i64, ptr %vbase.offset.ptr.i2539, align 8
  %add.ptr.i2541 = getelementptr inbounds i8, ptr %call1.i952, i64 %vbase.offset.i2540
  call void @llvm.lifetime.start.p0(i64 8, ptr nonnull %ref.tmp.i.i2537) #16
  invoke void @_ZNKSt3__18ios_base6getlocEv(ptr nonnull sret(%"class.std::__1::locale") align 8 %ref.tmp.i.i2537, ptr noundef nonnull align 8 dereferenceable(136) %add.ptr.i2541)
          to label %.noexc2549 unwind label %lpad86

.noexc2549:                                       ; preds = %invoke.cont104
  %call.i5.i.i2542 = invoke noundef ptr @_ZNKSt3__16locale9use_facetERNS0_2idE(ptr noundef nonnull align 8 dereferenceable(8) %ref.tmp.i.i2537, ptr noundef nonnull align 8 dereferenceable(12) @_ZNSt3__15ctypeIcE2idE)
          to label %invoke.cont.i.i2546 unwind label %lpad.i.i2547

invoke.cont.i.i2546:                              ; preds = %.noexc2549
  %vtable.i.i.i2543 = load ptr, ptr %call.i5.i.i2542, align 8, !tbaa !36
  %vfn.i.i.i2544 = getelementptr inbounds ptr, ptr %vtable.i.i.i2543, i64 7
  %52 = load ptr, ptr %vfn.i.i.i2544, align 8
  %call.i6.i.i2545 = invoke noundef signext i8 %52(ptr noundef nonnull align 8 dereferenceable(25) %call.i5.i.i2542, i8 noundef signext 10)
          to label %_ZNKSt3__19basic_iosIcNS_11char_traitsIcEEE5widenB7v170000Ec.exit.i2548 unwind label %lpad.i.i2547

lpad.i.i2547:                                     ; preds = %invoke.cont.i.i2546, %.noexc2549
  %53 = landingpad { ptr, i32 }
          cleanup
  call void @_ZNSt3__16localeD1Ev(ptr noundef nonnull align 8 dereferenceable(8) %ref.tmp.i.i2537) #16
  call void @llvm.lifetime.end.p0(i64 8, ptr nonnull %ref.tmp.i.i2537) #16
  br label %lpad86.body

_ZNKSt3__19basic_iosIcNS_11char_traitsIcEEE5widenB7v170000Ec.exit.i2548: ; preds = %invoke.cont.i.i2546
  call void @_ZNSt3__16localeD1Ev(ptr noundef nonnull align 8 dereferenceable(8) %ref.tmp.i.i2537) #16
  call void @llvm.lifetime.end.p0(i64 8, ptr nonnull %ref.tmp.i.i2537) #16
  %call1.i2553 = invoke noundef nonnull align 8 dereferenceable(8) ptr @_ZNSt3__113basic_ostreamIcNS_11char_traitsIcEEE3putEc(ptr noundef nonnull align 8 dereferenceable(8) %call1.i952, i8 noundef signext %call.i6.i.i2545)
          to label %call1.i.noexc2552 unwind label %lpad86

call1.i.noexc2552:                                ; preds = %_ZNKSt3__19basic_iosIcNS_11char_traitsIcEEE5widenB7v170000Ec.exit.i2548
  %call2.i2554 = invoke noundef nonnull align 8 dereferenceable(8) ptr @_ZNSt3__113basic_ostreamIcNS_11char_traitsIcEEE5flushEv(ptr noundef nonnull align 8 dereferenceable(8) %call1.i952)
          to label %invoke.cont106 unwind label %lpad86

invoke.cont106:                                   ; preds = %call1.i.noexc2552
  %call1.i957 = invoke noundef nonnull align 8 dereferenceable(8) ptr @_ZNSt3__124__put_character_sequenceB7v170000IcNS_11char_traitsIcEEEERNS_13basic_ostreamIT_T0_EES7_PKS4_m(ptr noundef nonnull align 8 dereferenceable(8) %add.ptr88, ptr noundef nonnull @.str.14, i64 noundef 44)
          to label %invoke.cont109 unwind label %lpad86

invoke.cont109:                                   ; preds = %invoke.cont106
  %vtable.i2557 = load ptr, ptr %call1.i957, align 8, !tbaa !36
  %vbase.offset.ptr.i2558 = getelementptr i8, ptr %vtable.i2557, i64 -24
  %vbase.offset.i2559 = load i64, ptr %vbase.offset.ptr.i2558, align 8
  %add.ptr.i2560 = getelementptr inbounds i8, ptr %call1.i957, i64 %vbase.offset.i2559
  call void @llvm.lifetime.start.p0(i64 8, ptr nonnull %ref.tmp.i.i2556) #16
  invoke void @_ZNKSt3__18ios_base6getlocEv(ptr nonnull sret(%"class.std::__1::locale") align 8 %ref.tmp.i.i2556, ptr noundef nonnull align 8 dereferenceable(136) %add.ptr.i2560)
          to label %.noexc2568 unwind label %lpad86

.noexc2568:                                       ; preds = %invoke.cont109
  %call.i5.i.i2561 = invoke noundef ptr @_ZNKSt3__16locale9use_facetERNS0_2idE(ptr noundef nonnull align 8 dereferenceable(8) %ref.tmp.i.i2556, ptr noundef nonnull align 8 dereferenceable(12) @_ZNSt3__15ctypeIcE2idE)
          to label %invoke.cont.i.i2565 unwind label %lpad.i.i2566

invoke.cont.i.i2565:                              ; preds = %.noexc2568
  %vtable.i.i.i2562 = load ptr, ptr %call.i5.i.i2561, align 8, !tbaa !36
  %vfn.i.i.i2563 = getelementptr inbounds ptr, ptr %vtable.i.i.i2562, i64 7
  %54 = load ptr, ptr %vfn.i.i.i2563, align 8
  %call.i6.i.i2564 = invoke noundef signext i8 %54(ptr noundef nonnull align 8 dereferenceable(25) %call.i5.i.i2561, i8 noundef signext 10)
          to label %_ZNKSt3__19basic_iosIcNS_11char_traitsIcEEE5widenB7v170000Ec.exit.i2567 unwind label %lpad.i.i2566

lpad.i.i2566:                                     ; preds = %invoke.cont.i.i2565, %.noexc2568
  %55 = landingpad { ptr, i32 }
          cleanup
  call void @_ZNSt3__16localeD1Ev(ptr noundef nonnull align 8 dereferenceable(8) %ref.tmp.i.i2556) #16
  call void @llvm.lifetime.end.p0(i64 8, ptr nonnull %ref.tmp.i.i2556) #16
  br label %lpad86.body

_ZNKSt3__19basic_iosIcNS_11char_traitsIcEEE5widenB7v170000Ec.exit.i2567: ; preds = %invoke.cont.i.i2565
  call void @_ZNSt3__16localeD1Ev(ptr noundef nonnull align 8 dereferenceable(8) %ref.tmp.i.i2556) #16
  call void @llvm.lifetime.end.p0(i64 8, ptr nonnull %ref.tmp.i.i2556) #16
  %call1.i2572 = invoke noundef nonnull align 8 dereferenceable(8) ptr @_ZNSt3__113basic_ostreamIcNS_11char_traitsIcEEE3putEc(ptr noundef nonnull align 8 dereferenceable(8) %call1.i957, i8 noundef signext %call.i6.i.i2564)
          to label %call1.i.noexc2571 unwind label %lpad86

call1.i.noexc2571:                                ; preds = %_ZNKSt3__19basic_iosIcNS_11char_traitsIcEEE5widenB7v170000Ec.exit.i2567
  %call2.i2573 = invoke noundef nonnull align 8 dereferenceable(8) ptr @_ZNSt3__113basic_ostreamIcNS_11char_traitsIcEEE5flushEv(ptr noundef nonnull align 8 dereferenceable(8) %call1.i957)
          to label %invoke.cont111 unwind label %lpad86

invoke.cont111:                                   ; preds = %call1.i.noexc2571
  %call1.i962 = invoke noundef nonnull align 8 dereferenceable(8) ptr @_ZNSt3__124__put_character_sequenceB7v170000IcNS_11char_traitsIcEEEERNS_13basic_ostreamIT_T0_EES7_PKS4_m(ptr noundef nonnull align 8 dereferenceable(8) %add.ptr88, ptr noundef nonnull @.str.15, i64 noundef 60)
          to label %invoke.cont114 unwind label %lpad86

invoke.cont114:                                   ; preds = %invoke.cont111
  %vtable.i2576 = load ptr, ptr %call1.i962, align 8, !tbaa !36
  %vbase.offset.ptr.i2577 = getelementptr i8, ptr %vtable.i2576, i64 -24
  %vbase.offset.i2578 = load i64, ptr %vbase.offset.ptr.i2577, align 8
  %add.ptr.i2579 = getelementptr inbounds i8, ptr %call1.i962, i64 %vbase.offset.i2578
  call void @llvm.lifetime.start.p0(i64 8, ptr nonnull %ref.tmp.i.i2575) #16
  invoke void @_ZNKSt3__18ios_base6getlocEv(ptr nonnull sret(%"class.std::__1::locale") align 8 %ref.tmp.i.i2575, ptr noundef nonnull align 8 dereferenceable(136) %add.ptr.i2579)
          to label %.noexc2587 unwind label %lpad86

.noexc2587:                                       ; preds = %invoke.cont114
  %call.i5.i.i2580 = invoke noundef ptr @_ZNKSt3__16locale9use_facetERNS0_2idE(ptr noundef nonnull align 8 dereferenceable(8) %ref.tmp.i.i2575, ptr noundef nonnull align 8 dereferenceable(12) @_ZNSt3__15ctypeIcE2idE)
          to label %invoke.cont.i.i2584 unwind label %lpad.i.i2585

invoke.cont.i.i2584:                              ; preds = %.noexc2587
  %vtable.i.i.i2581 = load ptr, ptr %call.i5.i.i2580, align 8, !tbaa !36
  %vfn.i.i.i2582 = getelementptr inbounds ptr, ptr %vtable.i.i.i2581, i64 7
  %56 = load ptr, ptr %vfn.i.i.i2582, align 8
  %call.i6.i.i2583 = invoke noundef signext i8 %56(ptr noundef nonnull align 8 dereferenceable(25) %call.i5.i.i2580, i8 noundef signext 10)
          to label %_ZNKSt3__19basic_iosIcNS_11char_traitsIcEEE5widenB7v170000Ec.exit.i2586 unwind label %lpad.i.i2585

lpad.i.i2585:                                     ; preds = %invoke.cont.i.i2584, %.noexc2587
  %57 = landingpad { ptr, i32 }
          cleanup
  call void @_ZNSt3__16localeD1Ev(ptr noundef nonnull align 8 dereferenceable(8) %ref.tmp.i.i2575) #16
  call void @llvm.lifetime.end.p0(i64 8, ptr nonnull %ref.tmp.i.i2575) #16
  br label %lpad86.body

_ZNKSt3__19basic_iosIcNS_11char_traitsIcEEE5widenB7v170000Ec.exit.i2586: ; preds = %invoke.cont.i.i2584
  call void @_ZNSt3__16localeD1Ev(ptr noundef nonnull align 8 dereferenceable(8) %ref.tmp.i.i2575) #16
  call void @llvm.lifetime.end.p0(i64 8, ptr nonnull %ref.tmp.i.i2575) #16
  %call1.i2591 = invoke noundef nonnull align 8 dereferenceable(8) ptr @_ZNSt3__113basic_ostreamIcNS_11char_traitsIcEEE3putEc(ptr noundef nonnull align 8 dereferenceable(8) %call1.i962, i8 noundef signext %call.i6.i.i2583)
          to label %call1.i.noexc2590 unwind label %lpad86

call1.i.noexc2590:                                ; preds = %_ZNKSt3__19basic_iosIcNS_11char_traitsIcEEE5widenB7v170000Ec.exit.i2586
  %call2.i2592 = invoke noundef nonnull align 8 dereferenceable(8) ptr @_ZNSt3__113basic_ostreamIcNS_11char_traitsIcEEE5flushEv(ptr noundef nonnull align 8 dereferenceable(8) %call1.i962)
          to label %invoke.cont116 unwind label %lpad86

invoke.cont116:                                   ; preds = %call1.i.noexc2590
  store i32 2, ptr %ierr, align 4, !tbaa !32
  %bf.load.i.i = load i8, ptr %t1, align 8
  %bf.clear.i.i = and i8 %bf.load.i.i, 1
  %tobool.i.not.i = icmp eq i8 %bf.clear.i.i, 0
  br i1 %tobool.i.not.i, label %cleanup120, label %if.then.i

if.then.i:                                        ; preds = %invoke.cont116
  %58 = load ptr, ptr %__data_.i.i.i.i.i, align 8, !tbaa !47
  call void @_ZdlPv(ptr noundef %58) #17
  br label %cleanup120

lpad82:                                           ; preds = %if.end.i926
  %59 = landingpad { ptr, i32 }
          cleanup
  br label %ehcleanup

lpad86:                                           ; preds = %call1.i.noexc2590, %_ZNKSt3__19basic_iosIcNS_11char_traitsIcEEE5widenB7v170000Ec.exit.i2586, %invoke.cont114, %call1.i.noexc2571, %_ZNKSt3__19basic_iosIcNS_11char_traitsIcEEE5widenB7v170000Ec.exit.i2567, %invoke.cont109, %call1.i.noexc2552, %_ZNKSt3__19basic_iosIcNS_11char_traitsIcEEE5widenB7v170000Ec.exit.i2548, %invoke.cont104, %call1.i.noexc2533, %_ZNKSt3__19basic_iosIcNS_11char_traitsIcEEE5widenB7v170000Ec.exit.i2529, %invoke.cont99, %call1.i.noexc2514, %_ZNKSt3__19basic_iosIcNS_11char_traitsIcEEE5widenB7v170000Ec.exit.i2510, %invoke.cont94, %call1.i.noexc2495, %_ZNKSt3__19basic_iosIcNS_11char_traitsIcEEE5widenB7v170000Ec.exit.i2492, %invoke.cont89, %invoke.cont111, %invoke.cont106, %invoke.cont101, %invoke.cont96, %invoke.cont91, %invoke.cont87, %if.then85
  %60 = landingpad { ptr, i32 }
          cleanup
  br label %lpad86.body

lpad86.body:                                      ; preds = %lpad.i.i2509, %lpad.i.i2547, %lpad86, %lpad.i.i2585, %lpad.i.i2566, %lpad.i.i2528, %lpad.i.i2491
  %eh.lpad-body2494 = phi { ptr, i32 } [ %47, %lpad.i.i2491 ], [ %49, %lpad.i.i2509 ], [ %51, %lpad.i.i2528 ], [ %53, %lpad.i.i2547 ], [ %55, %lpad.i.i2566 ], [ %60, %lpad86 ], [ %57, %lpad.i.i2585 ]
  %bf.load.i.i967 = load i8, ptr %t1, align 8
  %bf.clear.i.i968 = and i8 %bf.load.i.i967, 1
  %tobool.i.not.i969 = icmp eq i8 %bf.clear.i.i968, 0
  br i1 %tobool.i.not.i969, label %ehcleanup, label %if.then.i971

if.then.i971:                                     ; preds = %lpad86.body
  %61 = load ptr, ptr %__data_.i.i.i.i.i, align 8, !tbaa !47
  call void @_ZdlPv(ptr noundef %61) #17
  br label %ehcleanup

for.inc.critedge:                                 ; preds = %invoke.cont83, %_ZNSt3__111char_traitsIcE7compareEPKcS3_m.exit.i.i
  br i1 %tobool.i.not.i.i, label %for.inc, label %if.then.i978

if.then.i978:                                     ; preds = %for.inc.critedge
  %62 = load ptr, ptr %__data_.i.i.i.i.i, align 8, !tbaa !47
  call void @_ZdlPv(ptr noundef %62) #17
  br label %for.inc

for.inc:                                          ; preds = %if.then.i978, %for.inc.critedge
  call void @llvm.lifetime.end.p0(i64 24, ptr nonnull %t1) #16
  %indvars.iv.next = add nuw nsw i64 %indvars.iv, 1
  %exitcond.not = icmp eq i64 %indvars.iv.next, %wide.trip.count
  br i1 %exitcond.not, label %for.body127.lr.ph, label %for.body, !llvm.loop !48

ehcleanup:                                        ; preds = %if.then.i971, %lpad86.body, %lpad82
  %.pn820 = phi { ptr, i32 } [ %59, %lpad82 ], [ %eh.lpad-body2494, %lpad86.body ], [ %eh.lpad-body2494, %if.then.i971 ]
  call void @llvm.lifetime.end.p0(i64 24, ptr nonnull %t1) #16
  br label %ehcleanup648

cleanup120:                                       ; preds = %if.then.i, %invoke.cont116
  call void @llvm.lifetime.end.p0(i64 24, ptr nonnull %t1) #16
  br label %cleanup647

for.body127:                                      ; preds = %_ZNSt3__112basic_stringIcNS_11char_traitsIcEENS_9allocatorIcEEED2Ev.exit1053, %for.body127.lr.ph
  %indvars.iv3128 = phi i64 [ 2, %for.body127.lr.ph ], [ %indvars.iv.next3129, %_ZNSt3__112basic_stringIcNS_11char_traitsIcEENS_9allocatorIcEEED2Ev.exit1053 ]
  %close_paren_dex.03061 = phi i32 [ -1, %for.body127.lr.ph ], [ %close_paren_dex.1, %_ZNSt3__112basic_stringIcNS_11char_traitsIcEENS_9allocatorIcEEED2Ev.exit1053 ]
  call void @llvm.lifetime.start.p0(i64 24, ptr nonnull %pi) #16
  call void @llvm.experimental.noalias.scope.decl(metadata !50)
  %63 = load i64, ptr %__size_.i.i.i, align 8, !tbaa !35, !noalias !50
  %sext3160 = shl i64 %63, 32
  %64 = ashr exact i64 %sext3160, 32
  %cmp.not.i983 = icmp slt i64 %indvars.iv3128, %64
  br i1 %cmp.not.i983, label %if.end.i994, label %if.then3.i.i.i985

if.then3.i.i.i985:                                ; preds = %for.body127
  store i8 0, ptr %pi, align 8, !alias.scope !50
  store i8 0, ptr %__data_.i.i.i.i984, align 1, !tbaa !47, !alias.scope !50
  br label %invoke.cont129

if.end.i994:                                      ; preds = %for.body127
  %65 = load i64, ptr %__start_.i.i, align 8, !tbaa !38, !noalias !50
  %add.i.i988 = add i64 %65, %indvars.iv3128
  %66 = load ptr, ptr %__begin_.i.i.i, align 8, !tbaa !42, !noalias !50
  %div.i.i990 = udiv i64 %add.i.i988, 39
  %add.ptr.i.i991 = getelementptr inbounds ptr, ptr %66, i64 %div.i.i990
  %67 = load ptr, ptr %add.ptr.i.i991, align 8, !tbaa !43, !noalias !50
  %rem.i.i992 = urem i64 %add.i.i988, 39
  %add.ptr2.i.i993 = getelementptr inbounds %"class.PP::Word", ptr %67, i64 %rem.i.i992
  invoke void @_ZNSt3__112basic_stringIcNS_11char_traitsIcEENS_9allocatorIcEEEC1ERKS5_(ptr noundef nonnull align 8 dereferenceable(24) %pi, ptr noundef nonnull align 8 dereferenceable(24) %add.ptr2.i.i993)
          to label %if.end.i994.invoke.cont129_crit_edge unwind label %lpad128

if.end.i994.invoke.cont129_crit_edge:             ; preds = %if.end.i994
  %bf.load.i.i.i998.pre = load i8, ptr %pi, align 8
  br label %invoke.cont129

invoke.cont129:                                   ; preds = %if.end.i994.invoke.cont129_crit_edge, %if.then3.i.i.i985
  %bf.load.i.i.i998 = phi i8 [ %bf.load.i.i.i998.pre, %if.end.i994.invoke.cont129_crit_edge ], [ 0, %if.then3.i.i.i985 ]
  %bf.clear.i.i.i999 = and i8 %bf.load.i.i.i998, 1
  %tobool.i.not.i.i1000 = icmp eq i8 %bf.clear.i.i.i999, 0
  %68 = load i64, ptr %__size_.i.i.i1001, align 8
  %bf.lshr.i.i.i1002 = lshr i8 %bf.load.i.i.i998, 1
  %conv.i.i.i1003 = zext i8 %bf.lshr.i.i.i1002 to i64
  %cond.i.i1004 = select i1 %tobool.i.not.i.i1000, i64 %conv.i.i.i1003, i64 %68
  switch i64 %cond.i.i1004, label %_ZNSt3__1eqB7v170000IcNS_11char_traitsIcEENS_9allocatorIcEEEEbRKNS_12basic_stringIT_T0_T1_EEPKS6_.exit1046.thread2972 [
    i64 4, label %_ZNSt3__111char_traitsIcE7compareEPKcS3_m.exit.i.i1014
    i64 1, label %_ZNSt3__111char_traitsIcE7compareEPKcS3_m.exit.i.i1039
  ]

_ZNSt3__111char_traitsIcE7compareEPKcS3_m.exit.i.i1014: ; preds = %invoke.cont129
  %69 = load ptr, ptr %__data_.i.i.i.i.i1010, align 8
  %cond.i.i.i.i1011 = select i1 %tobool.i.not.i.i1000, ptr %__data_.i.i.i.i984, ptr %69
  %bcmp = call i32 @bcmp(ptr noundef nonnull dereferenceable(4) %cond.i.i.i.i1011, ptr noundef nonnull dereferenceable(4) @.str.16, i64 4)
  %cmp9.i.i1013 = icmp eq i32 %bcmp, 0
  br i1 %cmp9.i.i1013, label %cleanup136, label %_ZNSt3__1eqB7v170000IcNS_11char_traitsIcEENS_9allocatorIcEEEEbRKNS_12basic_stringIT_T0_T1_EEPKS6_.exit1046.thread2972

lpad128:                                          ; preds = %if.end.i994
  %70 = landingpad { ptr, i32 }
          cleanup
  call void @llvm.lifetime.end.p0(i64 24, ptr nonnull %pi) #16
  br label %ehcleanup648

_ZNSt3__111char_traitsIcE7compareEPKcS3_m.exit.i.i1039: ; preds = %invoke.cont129
  %.pre = load ptr, ptr %__data_.i.i.i.i.i1010, align 8
  %.pre3158 = select i1 %tobool.i.not.i.i1000, ptr %__data_.i.i.i.i984, ptr %.pre
  %lhsc = load i8, ptr %.pre3158, align 1
  %cmp9.i.i1038 = icmp eq i8 %lhsc, 41
  %71 = trunc i64 %indvars.iv3128 to i32
  br i1 %cmp9.i.i1038, label %cleanup136, label %_ZNSt3__1eqB7v170000IcNS_11char_traitsIcEENS_9allocatorIcEEEEbRKNS_12basic_stringIT_T0_T1_EEPKS6_.exit1046.thread2972

_ZNSt3__1eqB7v170000IcNS_11char_traitsIcEENS_9allocatorIcEEEEbRKNS_12basic_stringIT_T0_T1_EEPKS6_.exit1046.thread2972: ; preds = %_ZNSt3__111char_traitsIcE7compareEPKcS3_m.exit.i.i1014, %invoke.cont129, %_ZNSt3__111char_traitsIcE7compareEPKcS3_m.exit.i.i1039
  br label %cleanup136

cleanup136:                                       ; preds = %_ZNSt3__111char_traitsIcE7compareEPKcS3_m.exit.i.i1014, %_ZNSt3__1eqB7v170000IcNS_11char_traitsIcEENS_9allocatorIcEEEEbRKNS_12basic_stringIT_T0_T1_EEPKS6_.exit1046.thread2972, %_ZNSt3__111char_traitsIcE7compareEPKcS3_m.exit.i.i1039
  %cond665 = phi i1 [ false, %_ZNSt3__1eqB7v170000IcNS_11char_traitsIcEENS_9allocatorIcEEEEbRKNS_12basic_stringIT_T0_T1_EEPKS6_.exit1046.thread2972 ], [ true, %_ZNSt3__111char_traitsIcE7compareEPKcS3_m.exit.i.i1039 ], [ true, %_ZNSt3__111char_traitsIcE7compareEPKcS3_m.exit.i.i1014 ]
  %close_paren_dex.1 = phi i32 [ %close_paren_dex.03061, %_ZNSt3__1eqB7v170000IcNS_11char_traitsIcEENS_9allocatorIcEEEEbRKNS_12basic_stringIT_T0_T1_EEPKS6_.exit1046.thread2972 ], [ %71, %_ZNSt3__111char_traitsIcE7compareEPKcS3_m.exit.i.i1039 ], [ %close_paren_dex.03061, %_ZNSt3__111char_traitsIcE7compareEPKcS3_m.exit.i.i1014 ]
  br i1 %tobool.i.not.i.i1000, label %_ZNSt3__112basic_stringIcNS_11char_traitsIcEENS_9allocatorIcEEED2Ev.exit1053, label %if.then.i1051

if.then.i1051:                                    ; preds = %cleanup136
  %72 = load ptr, ptr %__data_.i.i.i.i.i1010, align 8, !tbaa !47
  call void @_ZdlPv(ptr noundef %72) #17
  br label %_ZNSt3__112basic_stringIcNS_11char_traitsIcEENS_9allocatorIcEEED2Ev.exit1053

_ZNSt3__112basic_stringIcNS_11char_traitsIcEENS_9allocatorIcEEED2Ev.exit1053: ; preds = %cleanup136, %if.then.i1051
  call void @llvm.lifetime.end.p0(i64 24, ptr nonnull %pi) #16
  %indvars.iv.next3129 = add nuw nsw i64 %indvars.iv3128, 1
  %exitcond3132.not = icmp eq i64 %indvars.iv.next3129, %wide.trip.count3131
  %or.cond = select i1 %cond665, i1 true, i1 %exitcond3132.not
  br i1 %or.cond, label %cleanup143, label %for.body127, !llvm.loop !53

cleanup143:                                       ; preds = %_ZNSt3__112basic_stringIcNS_11char_traitsIcEENS_9allocatorIcEEED2Ev.exit1053
  %cmp146 = icmp eq i32 %close_paren_dex.1, -1
  br i1 %cmp146, label %if.then147, label %if.end180

if.then147:                                       ; preds = %cleanup143
  invoke void @_ZN2PP3Cmd11fatal_errorEiRNSt3__118basic_stringstreamIcNS1_11char_traitsIcEENS1_9allocatorIcEEEERi(ptr noundef nonnull align 8 dereferenceable(320) %cmdi, i32 noundef 0, ptr noundef nonnull align 8 dereferenceable(128) %serr, ptr noundef nonnull align 4 dereferenceable(4) %ierr)
          to label %invoke.cont149 unwind label %lpad148

invoke.cont149:                                   ; preds = %if.then147
  %add.ptr150 = getelementptr inbounds i8, ptr %serr, i64 16
  %call1.i1055 = invoke noundef nonnull align 8 dereferenceable(8) ptr @_ZNSt3__124__put_character_sequenceB7v170000IcNS_11char_traitsIcEEEERNS_13basic_ostreamIT_T0_EES7_PKS4_m(ptr noundef nonnull align 8 dereferenceable(8) %add.ptr150, ptr noundef nonnull @.str.21, i64 noundef 53)
          to label %invoke.cont151 unwind label %lpad148

invoke.cont151:                                   ; preds = %invoke.cont149
  %vtable.i2595 = load ptr, ptr %call1.i1055, align 8, !tbaa !36
  %vbase.offset.ptr.i2596 = getelementptr i8, ptr %vtable.i2595, i64 -24
  %vbase.offset.i2597 = load i64, ptr %vbase.offset.ptr.i2596, align 8
  %add.ptr.i2598 = getelementptr inbounds i8, ptr %call1.i1055, i64 %vbase.offset.i2597
  call void @llvm.lifetime.start.p0(i64 8, ptr nonnull %ref.tmp.i.i2594) #16
  invoke void @_ZNKSt3__18ios_base6getlocEv(ptr nonnull sret(%"class.std::__1::locale") align 8 %ref.tmp.i.i2594, ptr noundef nonnull align 8 dereferenceable(136) %add.ptr.i2598)
          to label %.noexc2606 unwind label %lpad148

.noexc2606:                                       ; preds = %invoke.cont151
  %call.i5.i.i2599 = invoke noundef ptr @_ZNKSt3__16locale9use_facetERNS0_2idE(ptr noundef nonnull align 8 dereferenceable(8) %ref.tmp.i.i2594, ptr noundef nonnull align 8 dereferenceable(12) @_ZNSt3__15ctypeIcE2idE)
          to label %invoke.cont.i.i2603 unwind label %lpad.i.i2604

invoke.cont.i.i2603:                              ; preds = %.noexc2606
  %vtable.i.i.i2600 = load ptr, ptr %call.i5.i.i2599, align 8, !tbaa !36
  %vfn.i.i.i2601 = getelementptr inbounds ptr, ptr %vtable.i.i.i2600, i64 7
  %73 = load ptr, ptr %vfn.i.i.i2601, align 8
  %call.i6.i.i2602 = invoke noundef signext i8 %73(ptr noundef nonnull align 8 dereferenceable(25) %call.i5.i.i2599, i8 noundef signext 10)
          to label %_ZNKSt3__19basic_iosIcNS_11char_traitsIcEEE5widenB7v170000Ec.exit.i2605 unwind label %lpad.i.i2604

lpad.i.i2604:                                     ; preds = %invoke.cont.i.i2603, %.noexc2606
  %74 = landingpad { ptr, i32 }
          cleanup
  call void @_ZNSt3__16localeD1Ev(ptr noundef nonnull align 8 dereferenceable(8) %ref.tmp.i.i2594) #16
  call void @llvm.lifetime.end.p0(i64 8, ptr nonnull %ref.tmp.i.i2594) #16
  br label %ehcleanup648

_ZNKSt3__19basic_iosIcNS_11char_traitsIcEEE5widenB7v170000Ec.exit.i2605: ; preds = %invoke.cont.i.i2603
  call void @_ZNSt3__16localeD1Ev(ptr noundef nonnull align 8 dereferenceable(8) %ref.tmp.i.i2594) #16
  call void @llvm.lifetime.end.p0(i64 8, ptr nonnull %ref.tmp.i.i2594) #16
  %call1.i2609 = invoke noundef nonnull align 8 dereferenceable(8) ptr @_ZNSt3__113basic_ostreamIcNS_11char_traitsIcEEE3putEc(ptr noundef nonnull align 8 dereferenceable(8) %call1.i1055, i8 noundef signext %call.i6.i.i2602)
          to label %call1.i.noexc2608 unwind label %lpad148

call1.i.noexc2608:                                ; preds = %_ZNKSt3__19basic_iosIcNS_11char_traitsIcEEE5widenB7v170000Ec.exit.i2605
  %call2.i2610 = invoke noundef nonnull align 8 dereferenceable(8) ptr @_ZNSt3__113basic_ostreamIcNS_11char_traitsIcEEE5flushEv(ptr noundef nonnull align 8 dereferenceable(8) %call1.i1055)
          to label %invoke.cont153 unwind label %lpad148

invoke.cont153:                                   ; preds = %call1.i.noexc2608
  %call1.i1060 = invoke noundef nonnull align 8 dereferenceable(8) ptr @_ZNSt3__124__put_character_sequenceB7v170000IcNS_11char_traitsIcEEEERNS_13basic_ostreamIT_T0_EES7_PKS4_m(ptr noundef nonnull align 8 dereferenceable(8) %add.ptr150, ptr noundef nonnull @.str.22, i64 noundef 33)
          to label %invoke.cont156 unwind label %lpad148

invoke.cont156:                                   ; preds = %invoke.cont153
  %vtable.i2613 = load ptr, ptr %call1.i1060, align 8, !tbaa !36
  %vbase.offset.ptr.i2614 = getelementptr i8, ptr %vtable.i2613, i64 -24
  %vbase.offset.i2615 = load i64, ptr %vbase.offset.ptr.i2614, align 8
  %add.ptr.i2616 = getelementptr inbounds i8, ptr %call1.i1060, i64 %vbase.offset.i2615
  call void @llvm.lifetime.start.p0(i64 8, ptr nonnull %ref.tmp.i.i2612) #16
  invoke void @_ZNKSt3__18ios_base6getlocEv(ptr nonnull sret(%"class.std::__1::locale") align 8 %ref.tmp.i.i2612, ptr noundef nonnull align 8 dereferenceable(136) %add.ptr.i2616)
          to label %.noexc2624 unwind label %lpad148

.noexc2624:                                       ; preds = %invoke.cont156
  %call.i5.i.i2617 = invoke noundef ptr @_ZNKSt3__16locale9use_facetERNS0_2idE(ptr noundef nonnull align 8 dereferenceable(8) %ref.tmp.i.i2612, ptr noundef nonnull align 8 dereferenceable(12) @_ZNSt3__15ctypeIcE2idE)
          to label %invoke.cont.i.i2621 unwind label %lpad.i.i2622

invoke.cont.i.i2621:                              ; preds = %.noexc2624
  %vtable.i.i.i2618 = load ptr, ptr %call.i5.i.i2617, align 8, !tbaa !36
  %vfn.i.i.i2619 = getelementptr inbounds ptr, ptr %vtable.i.i.i2618, i64 7
  %75 = load ptr, ptr %vfn.i.i.i2619, align 8
  %call.i6.i.i2620 = invoke noundef signext i8 %75(ptr noundef nonnull align 8 dereferenceable(25) %call.i5.i.i2617, i8 noundef signext 10)
          to label %_ZNKSt3__19basic_iosIcNS_11char_traitsIcEEE5widenB7v170000Ec.exit.i2623 unwind label %lpad.i.i2622

lpad.i.i2622:                                     ; preds = %invoke.cont.i.i2621, %.noexc2624
  %76 = landingpad { ptr, i32 }
          cleanup
  call void @_ZNSt3__16localeD1Ev(ptr noundef nonnull align 8 dereferenceable(8) %ref.tmp.i.i2612) #16
  call void @llvm.lifetime.end.p0(i64 8, ptr nonnull %ref.tmp.i.i2612) #16
  br label %ehcleanup648

_ZNKSt3__19basic_iosIcNS_11char_traitsIcEEE5widenB7v170000Ec.exit.i2623: ; preds = %invoke.cont.i.i2621
  call void @_ZNSt3__16localeD1Ev(ptr noundef nonnull align 8 dereferenceable(8) %ref.tmp.i.i2612) #16
  call void @llvm.lifetime.end.p0(i64 8, ptr nonnull %ref.tmp.i.i2612) #16
  %call1.i2628 = invoke noundef nonnull align 8 dereferenceable(8) ptr @_ZNSt3__113basic_ostreamIcNS_11char_traitsIcEEE3putEc(ptr noundef nonnull align 8 dereferenceable(8) %call1.i1060, i8 noundef signext %call.i6.i.i2620)
          to label %call1.i.noexc2627 unwind label %lpad148

call1.i.noexc2627:                                ; preds = %_ZNKSt3__19basic_iosIcNS_11char_traitsIcEEE5widenB7v170000Ec.exit.i2623
  %call2.i2629 = invoke noundef nonnull align 8 dereferenceable(8) ptr @_ZNSt3__113basic_ostreamIcNS_11char_traitsIcEEE5flushEv(ptr noundef nonnull align 8 dereferenceable(8) %call1.i1060)
          to label %invoke.cont158 unwind label %lpad148

invoke.cont158:                                   ; preds = %call1.i.noexc2627
  %call1.i1065 = invoke noundef nonnull align 8 dereferenceable(8) ptr @_ZNSt3__124__put_character_sequenceB7v170000IcNS_11char_traitsIcEEEERNS_13basic_ostreamIT_T0_EES7_PKS4_m(ptr noundef nonnull align 8 dereferenceable(8) %add.ptr150, ptr noundef nonnull @.str.19, i64 noundef 51)
          to label %invoke.cont161 unwind label %lpad148

invoke.cont161:                                   ; preds = %invoke.cont158
  %vtable.i2632 = load ptr, ptr %call1.i1065, align 8, !tbaa !36
  %vbase.offset.ptr.i2633 = getelementptr i8, ptr %vtable.i2632, i64 -24
  %vbase.offset.i2634 = load i64, ptr %vbase.offset.ptr.i2633, align 8
  %add.ptr.i2635 = getelementptr inbounds i8, ptr %call1.i1065, i64 %vbase.offset.i2634
  call void @llvm.lifetime.start.p0(i64 8, ptr nonnull %ref.tmp.i.i2631) #16
  invoke void @_ZNKSt3__18ios_base6getlocEv(ptr nonnull sret(%"class.std::__1::locale") align 8 %ref.tmp.i.i2631, ptr noundef nonnull align 8 dereferenceable(136) %add.ptr.i2635)
          to label %.noexc2643 unwind label %lpad148

.noexc2643:                                       ; preds = %invoke.cont161
  %call.i5.i.i2636 = invoke noundef ptr @_ZNKSt3__16locale9use_facetERNS0_2idE(ptr noundef nonnull align 8 dereferenceable(8) %ref.tmp.i.i2631, ptr noundef nonnull align 8 dereferenceable(12) @_ZNSt3__15ctypeIcE2idE)
          to label %invoke.cont.i.i2640 unwind label %lpad.i.i2641

invoke.cont.i.i2640:                              ; preds = %.noexc2643
  %vtable.i.i.i2637 = load ptr, ptr %call.i5.i.i2636, align 8, !tbaa !36
  %vfn.i.i.i2638 = getelementptr inbounds ptr, ptr %vtable.i.i.i2637, i64 7
  %77 = load ptr, ptr %vfn.i.i.i2638, align 8
  %call.i6.i.i2639 = invoke noundef signext i8 %77(ptr noundef nonnull align 8 dereferenceable(25) %call.i5.i.i2636, i8 noundef signext 10)
          to label %_ZNKSt3__19basic_iosIcNS_11char_traitsIcEEE5widenB7v170000Ec.exit.i2642 unwind label %lpad.i.i2641

lpad.i.i2641:                                     ; preds = %invoke.cont.i.i2640, %.noexc2643
  %78 = landingpad { ptr, i32 }
          cleanup
  call void @_ZNSt3__16localeD1Ev(ptr noundef nonnull align 8 dereferenceable(8) %ref.tmp.i.i2631) #16
  call void @llvm.lifetime.end.p0(i64 8, ptr nonnull %ref.tmp.i.i2631) #16
  br label %ehcleanup648

_ZNKSt3__19basic_iosIcNS_11char_traitsIcEEE5widenB7v170000Ec.exit.i2642: ; preds = %invoke.cont.i.i2640
  call void @_ZNSt3__16localeD1Ev(ptr noundef nonnull align 8 dereferenceable(8) %ref.tmp.i.i2631) #16
  call void @llvm.lifetime.end.p0(i64 8, ptr nonnull %ref.tmp.i.i2631) #16
  %call1.i2647 = invoke noundef nonnull align 8 dereferenceable(8) ptr @_ZNSt3__113basic_ostreamIcNS_11char_traitsIcEEE3putEc(ptr noundef nonnull align 8 dereferenceable(8) %call1.i1065, i8 noundef signext %call.i6.i.i2639)
          to label %call1.i.noexc2646 unwind label %lpad148

call1.i.noexc2646:                                ; preds = %_ZNKSt3__19basic_iosIcNS_11char_traitsIcEEE5widenB7v170000Ec.exit.i2642
  %call2.i2648 = invoke noundef nonnull align 8 dereferenceable(8) ptr @_ZNSt3__113basic_ostreamIcNS_11char_traitsIcEEE5flushEv(ptr noundef nonnull align 8 dereferenceable(8) %call1.i1065)
          to label %invoke.cont163 unwind label %lpad148

invoke.cont163:                                   ; preds = %call1.i.noexc2646
  %call1.i1070 = invoke noundef nonnull align 8 dereferenceable(8) ptr @_ZNSt3__124__put_character_sequenceB7v170000IcNS_11char_traitsIcEEEERNS_13basic_ostreamIT_T0_EES7_PKS4_m(ptr noundef nonnull align 8 dereferenceable(8) %add.ptr150, ptr noundef nonnull @.str.13, i64 noundef 46)
          to label %invoke.cont166 unwind label %lpad148

invoke.cont166:                                   ; preds = %invoke.cont163
  %vtable.i2651 = load ptr, ptr %call1.i1070, align 8, !tbaa !36
  %vbase.offset.ptr.i2652 = getelementptr i8, ptr %vtable.i2651, i64 -24
  %vbase.offset.i2653 = load i64, ptr %vbase.offset.ptr.i2652, align 8
  %add.ptr.i2654 = getelementptr inbounds i8, ptr %call1.i1070, i64 %vbase.offset.i2653
  call void @llvm.lifetime.start.p0(i64 8, ptr nonnull %ref.tmp.i.i2650) #16
  invoke void @_ZNKSt3__18ios_base6getlocEv(ptr nonnull sret(%"class.std::__1::locale") align 8 %ref.tmp.i.i2650, ptr noundef nonnull align 8 dereferenceable(136) %add.ptr.i2654)
          to label %.noexc2662 unwind label %lpad148

.noexc2662:                                       ; preds = %invoke.cont166
  %call.i5.i.i2655 = invoke noundef ptr @_ZNKSt3__16locale9use_facetERNS0_2idE(ptr noundef nonnull align 8 dereferenceable(8) %ref.tmp.i.i2650, ptr noundef nonnull align 8 dereferenceable(12) @_ZNSt3__15ctypeIcE2idE)
          to label %invoke.cont.i.i2659 unwind label %lpad.i.i2660

invoke.cont.i.i2659:                              ; preds = %.noexc2662
  %vtable.i.i.i2656 = load ptr, ptr %call.i5.i.i2655, align 8, !tbaa !36
  %vfn.i.i.i2657 = getelementptr inbounds ptr, ptr %vtable.i.i.i2656, i64 7
  %79 = load ptr, ptr %vfn.i.i.i2657, align 8
  %call.i6.i.i2658 = invoke noundef signext i8 %79(ptr noundef nonnull align 8 dereferenceable(25) %call.i5.i.i2655, i8 noundef signext 10)
          to label %_ZNKSt3__19basic_iosIcNS_11char_traitsIcEEE5widenB7v170000Ec.exit.i2661 unwind label %lpad.i.i2660

lpad.i.i2660:                                     ; preds = %invoke.cont.i.i2659, %.noexc2662
  %80 = landingpad { ptr, i32 }
          cleanup
  call void @_ZNSt3__16localeD1Ev(ptr noundef nonnull align 8 dereferenceable(8) %ref.tmp.i.i2650) #16
  call void @llvm.lifetime.end.p0(i64 8, ptr nonnull %ref.tmp.i.i2650) #16
  br label %ehcleanup648

_ZNKSt3__19basic_iosIcNS_11char_traitsIcEEE5widenB7v170000Ec.exit.i2661: ; preds = %invoke.cont.i.i2659
  call void @_ZNSt3__16localeD1Ev(ptr noundef nonnull align 8 dereferenceable(8) %ref.tmp.i.i2650) #16
  call void @llvm.lifetime.end.p0(i64 8, ptr nonnull %ref.tmp.i.i2650) #16
  %call1.i2666 = invoke noundef nonnull align 8 dereferenceable(8) ptr @_ZNSt3__113basic_ostreamIcNS_11char_traitsIcEEE3putEc(ptr noundef nonnull align 8 dereferenceable(8) %call1.i1070, i8 noundef signext %call.i6.i.i2658)
          to label %call1.i.noexc2665 unwind label %lpad148

call1.i.noexc2665:                                ; preds = %_ZNKSt3__19basic_iosIcNS_11char_traitsIcEEE5widenB7v170000Ec.exit.i2661
  %call2.i2667 = invoke noundef nonnull align 8 dereferenceable(8) ptr @_ZNSt3__113basic_ostreamIcNS_11char_traitsIcEEE5flushEv(ptr noundef nonnull align 8 dereferenceable(8) %call1.i1070)
          to label %invoke.cont168 unwind label %lpad148

invoke.cont168:                                   ; preds = %call1.i.noexc2665
  %call1.i1075 = invoke noundef nonnull align 8 dereferenceable(8) ptr @_ZNSt3__124__put_character_sequenceB7v170000IcNS_11char_traitsIcEEEERNS_13basic_ostreamIT_T0_EES7_PKS4_m(ptr noundef nonnull align 8 dereferenceable(8) %add.ptr150, ptr noundef nonnull @.str.14, i64 noundef 44)
          to label %invoke.cont171 unwind label %lpad148

invoke.cont171:                                   ; preds = %invoke.cont168
  %vtable.i2670 = load ptr, ptr %call1.i1075, align 8, !tbaa !36
  %vbase.offset.ptr.i2671 = getelementptr i8, ptr %vtable.i2670, i64 -24
  %vbase.offset.i2672 = load i64, ptr %vbase.offset.ptr.i2671, align 8
  %add.ptr.i2673 = getelementptr inbounds i8, ptr %call1.i1075, i64 %vbase.offset.i2672
  call void @llvm.lifetime.start.p0(i64 8, ptr nonnull %ref.tmp.i.i2669) #16
  invoke void @_ZNKSt3__18ios_base6getlocEv(ptr nonnull sret(%"class.std::__1::locale") align 8 %ref.tmp.i.i2669, ptr noundef nonnull align 8 dereferenceable(136) %add.ptr.i2673)
          to label %.noexc2681 unwind label %lpad148

.noexc2681:                                       ; preds = %invoke.cont171
  %call.i5.i.i2674 = invoke noundef ptr @_ZNKSt3__16locale9use_facetERNS0_2idE(ptr noundef nonnull align 8 dereferenceable(8) %ref.tmp.i.i2669, ptr noundef nonnull align 8 dereferenceable(12) @_ZNSt3__15ctypeIcE2idE)
          to label %invoke.cont.i.i2678 unwind label %lpad.i.i2679

invoke.cont.i.i2678:                              ; preds = %.noexc2681
  %vtable.i.i.i2675 = load ptr, ptr %call.i5.i.i2674, align 8, !tbaa !36
  %vfn.i.i.i2676 = getelementptr inbounds ptr, ptr %vtable.i.i.i2675, i64 7
  %81 = load ptr, ptr %vfn.i.i.i2676, align 8
  %call.i6.i.i2677 = invoke noundef signext i8 %81(ptr noundef nonnull align 8 dereferenceable(25) %call.i5.i.i2674, i8 noundef signext 10)
          to label %_ZNKSt3__19basic_iosIcNS_11char_traitsIcEEE5widenB7v170000Ec.exit.i2680 unwind label %lpad.i.i2679

lpad.i.i2679:                                     ; preds = %invoke.cont.i.i2678, %.noexc2681
  %82 = landingpad { ptr, i32 }
          cleanup
  call void @_ZNSt3__16localeD1Ev(ptr noundef nonnull align 8 dereferenceable(8) %ref.tmp.i.i2669) #16
  call void @llvm.lifetime.end.p0(i64 8, ptr nonnull %ref.tmp.i.i2669) #16
  br label %ehcleanup648

_ZNKSt3__19basic_iosIcNS_11char_traitsIcEEE5widenB7v170000Ec.exit.i2680: ; preds = %invoke.cont.i.i2678
  call void @_ZNSt3__16localeD1Ev(ptr noundef nonnull align 8 dereferenceable(8) %ref.tmp.i.i2669) #16
  call void @llvm.lifetime.end.p0(i64 8, ptr nonnull %ref.tmp.i.i2669) #16
  %call1.i2685 = invoke noundef nonnull align 8 dereferenceable(8) ptr @_ZNSt3__113basic_ostreamIcNS_11char_traitsIcEEE3putEc(ptr noundef nonnull align 8 dereferenceable(8) %call1.i1075, i8 noundef signext %call.i6.i.i2677)
          to label %call1.i.noexc2684 unwind label %lpad148

call1.i.noexc2684:                                ; preds = %_ZNKSt3__19basic_iosIcNS_11char_traitsIcEEE5widenB7v170000Ec.exit.i2680
  %call2.i2686 = invoke noundef nonnull align 8 dereferenceable(8) ptr @_ZNSt3__113basic_ostreamIcNS_11char_traitsIcEEE5flushEv(ptr noundef nonnull align 8 dereferenceable(8) %call1.i1075)
          to label %invoke.cont173 unwind label %lpad148

invoke.cont173:                                   ; preds = %call1.i.noexc2684
  %call1.i1080 = invoke noundef nonnull align 8 dereferenceable(8) ptr @_ZNSt3__124__put_character_sequenceB7v170000IcNS_11char_traitsIcEEEERNS_13basic_ostreamIT_T0_EES7_PKS4_m(ptr noundef nonnull align 8 dereferenceable(8) %add.ptr150, ptr noundef nonnull @.str.15, i64 noundef 60)
          to label %invoke.cont176 unwind label %lpad148

invoke.cont176:                                   ; preds = %invoke.cont173
  %vtable.i2689 = load ptr, ptr %call1.i1080, align 8, !tbaa !36
  %vbase.offset.ptr.i2690 = getelementptr i8, ptr %vtable.i2689, i64 -24
  %vbase.offset.i2691 = load i64, ptr %vbase.offset.ptr.i2690, align 8
  %add.ptr.i2692 = getelementptr inbounds i8, ptr %call1.i1080, i64 %vbase.offset.i2691
  call void @llvm.lifetime.start.p0(i64 8, ptr nonnull %ref.tmp.i.i2688) #16
  invoke void @_ZNKSt3__18ios_base6getlocEv(ptr nonnull sret(%"class.std::__1::locale") align 8 %ref.tmp.i.i2688, ptr noundef nonnull align 8 dereferenceable(136) %add.ptr.i2692)
          to label %.noexc2700 unwind label %lpad148

.noexc2700:                                       ; preds = %invoke.cont176
  %call.i5.i.i2693 = invoke noundef ptr @_ZNKSt3__16locale9use_facetERNS0_2idE(ptr noundef nonnull align 8 dereferenceable(8) %ref.tmp.i.i2688, ptr noundef nonnull align 8 dereferenceable(12) @_ZNSt3__15ctypeIcE2idE)
          to label %invoke.cont.i.i2697 unwind label %lpad.i.i2698

invoke.cont.i.i2697:                              ; preds = %.noexc2700
  %vtable.i.i.i2694 = load ptr, ptr %call.i5.i.i2693, align 8, !tbaa !36
  %vfn.i.i.i2695 = getelementptr inbounds ptr, ptr %vtable.i.i.i2694, i64 7
  %83 = load ptr, ptr %vfn.i.i.i2695, align 8
  %call.i6.i.i2696 = invoke noundef signext i8 %83(ptr noundef nonnull align 8 dereferenceable(25) %call.i5.i.i2693, i8 noundef signext 10)
          to label %_ZNKSt3__19basic_iosIcNS_11char_traitsIcEEE5widenB7v170000Ec.exit.i2699 unwind label %lpad.i.i2698

lpad.i.i2698:                                     ; preds = %invoke.cont.i.i2697, %.noexc2700
  %84 = landingpad { ptr, i32 }
          cleanup
  call void @_ZNSt3__16localeD1Ev(ptr noundef nonnull align 8 dereferenceable(8) %ref.tmp.i.i2688) #16
  call void @llvm.lifetime.end.p0(i64 8, ptr nonnull %ref.tmp.i.i2688) #16
  br label %ehcleanup648

_ZNKSt3__19basic_iosIcNS_11char_traitsIcEEE5widenB7v170000Ec.exit.i2699: ; preds = %invoke.cont.i.i2697
  call void @_ZNSt3__16localeD1Ev(ptr noundef nonnull align 8 dereferenceable(8) %ref.tmp.i.i2688) #16
  call void @llvm.lifetime.end.p0(i64 8, ptr nonnull %ref.tmp.i.i2688) #16
  %call1.i2704 = invoke noundef nonnull align 8 dereferenceable(8) ptr @_ZNSt3__113basic_ostreamIcNS_11char_traitsIcEEE3putEc(ptr noundef nonnull align 8 dereferenceable(8) %call1.i1080, i8 noundef signext %call.i6.i.i2696)
          to label %call1.i.noexc2703 unwind label %lpad148

call1.i.noexc2703:                                ; preds = %_ZNKSt3__19basic_iosIcNS_11char_traitsIcEEE5widenB7v170000Ec.exit.i2699
  %call2.i2705 = invoke noundef nonnull align 8 dereferenceable(8) ptr @_ZNSt3__113basic_ostreamIcNS_11char_traitsIcEEE5flushEv(ptr noundef nonnull align 8 dereferenceable(8) %call1.i1080)
          to label %invoke.cont178 unwind label %lpad148

invoke.cont178:                                   ; preds = %call1.i.noexc2703
  store i32 2, ptr %ierr, align 4, !tbaa !32
  br label %cleanup647

lpad148:                                          ; preds = %call1.i.noexc2703, %_ZNKSt3__19basic_iosIcNS_11char_traitsIcEEE5widenB7v170000Ec.exit.i2699, %invoke.cont176, %call1.i.noexc2684, %_ZNKSt3__19basic_iosIcNS_11char_traitsIcEEE5widenB7v170000Ec.exit.i2680, %invoke.cont171, %call1.i.noexc2665, %_ZNKSt3__19basic_iosIcNS_11char_traitsIcEEE5widenB7v170000Ec.exit.i2661, %invoke.cont166, %call1.i.noexc2646, %_ZNKSt3__19basic_iosIcNS_11char_traitsIcEEE5widenB7v170000Ec.exit.i2642, %invoke.cont161, %call1.i.noexc2627, %_ZNKSt3__19basic_iosIcNS_11char_traitsIcEEE5widenB7v170000Ec.exit.i2623, %invoke.cont156, %call1.i.noexc2608, %_ZNKSt3__19basic_iosIcNS_11char_traitsIcEEE5widenB7v170000Ec.exit.i2605, %invoke.cont151, %invoke.cont173, %invoke.cont168, %invoke.cont163, %invoke.cont158, %invoke.cont153, %invoke.cont149, %if.then147
  %85 = landingpad { ptr, i32 }
          cleanup
  br label %ehcleanup648

if.end180:                                        ; preds = %cleanup143
  %sub181 = add nsw i32 %close_paren_dex.1, -3
  %add182 = add i32 %close_paren_dex.1, 2
  %86 = and i32 %add182, 3
  %cmp183.not = icmp eq i32 %86, 0
  br i1 %cmp183.not, label %for.cond236.preheader, label %if.then184

for.cond236.preheader:                            ; preds = %if.end180
  %cmp2373065 = icmp sgt i32 %close_paren_dex.1, 3
  br i1 %cmp2373065, label %for.body239.lr.ph, label %for.cond274.preheader

for.body239.lr.ph:                                ; preds = %for.cond236.preheader
  %__data_.i.i.i = getelementptr inbounds %"struct.std::__1::basic_string<char>::__short", ptr %agg.tmp, i64 0, i32 2
  %cmp.i24.i.i = icmp ugt ptr %__data_.i.i.i, @.str.32
  %add.ptr.i.i.i = getelementptr inbounds %"struct.std::__1::basic_string<char>::__short", ptr %agg.tmp, i64 0, i32 2, i64 4
  %cmp1.i.i.i = icmp ule ptr %add.ptr.i.i.i, @.str.32
  %87 = or i1 %cmp.i24.i.i, %cmp1.i.i.i
  %__data_.i.i1140 = getelementptr inbounds %"struct.std::__1::basic_string<char>::__long", ptr %agg.tmp, i64 0, i32 2
  %__data_.i.i.i1158 = getelementptr inbounds %"struct.std::__1::basic_string<char>::__short", ptr %ref.tmp, i64 0, i32 2
  %cmp.i24.i.i1167 = icmp ugt ptr %__data_.i.i.i1158, @.str.33
  %add.ptr.i.i.i1168 = getelementptr inbounds %"struct.std::__1::basic_string<char>::__short", ptr %ref.tmp, i64 0, i32 2, i64 5
  %cmp1.i.i.i1169 = icmp ule ptr %add.ptr.i.i.i1168, @.str.33
  %88 = or i1 %cmp.i24.i.i1167, %cmp1.i.i.i1169
  %__end_.i.i.i.i = getelementptr inbounds %"class.PP::Restartblock", ptr %this, i64 0, i32 4, i32 0, i32 2
  %__begin_.i.i.i.i = getelementptr inbounds %"class.PP::Restartblock", ptr %this, i64 0, i32 4, i32 0, i32 1
  %__start_.i.i1177 = getelementptr inbounds %"class.PP::Restartblock", ptr %this, i64 0, i32 4, i32 1
  %__size_.i.i.i.i1178 = getelementptr inbounds %"class.PP::Restartblock", ptr %this, i64 0, i32 4, i32 2
  br label %for.body239

if.then184:                                       ; preds = %if.end180
  invoke void @_ZN2PP3Cmd11fatal_errorEiRNSt3__118basic_stringstreamIcNS1_11char_traitsIcEENS1_9allocatorIcEEEERi(ptr noundef nonnull align 8 dereferenceable(320) %cmdi, i32 noundef 0, ptr noundef nonnull align 8 dereferenceable(128) %serr, ptr noundef nonnull align 4 dereferenceable(4) %ierr)
          to label %invoke.cont186 unwind label %lpad185

invoke.cont186:                                   ; preds = %if.then184
  %add.ptr187 = getelementptr inbounds i8, ptr %serr, i64 16
  %call1.i1085 = invoke noundef nonnull align 8 dereferenceable(8) ptr @_ZNSt3__124__put_character_sequenceB7v170000IcNS_11char_traitsIcEEEERNS_13basic_ostreamIT_T0_EES7_PKS4_m(ptr noundef nonnull align 8 dereferenceable(8) %add.ptr187, ptr noundef nonnull @.str.23, i64 noundef 53)
          to label %invoke.cont188 unwind label %lpad185

invoke.cont188:                                   ; preds = %invoke.cont186
  %vtable.i2708 = load ptr, ptr %call1.i1085, align 8, !tbaa !36
  %vbase.offset.ptr.i2709 = getelementptr i8, ptr %vtable.i2708, i64 -24
  %vbase.offset.i2710 = load i64, ptr %vbase.offset.ptr.i2709, align 8
  %add.ptr.i2711 = getelementptr inbounds i8, ptr %call1.i1085, i64 %vbase.offset.i2710
  call void @llvm.lifetime.start.p0(i64 8, ptr nonnull %ref.tmp.i.i2707) #16
  invoke void @_ZNKSt3__18ios_base6getlocEv(ptr nonnull sret(%"class.std::__1::locale") align 8 %ref.tmp.i.i2707, ptr noundef nonnull align 8 dereferenceable(136) %add.ptr.i2711)
          to label %.noexc2719 unwind label %lpad185

.noexc2719:                                       ; preds = %invoke.cont188
  %call.i5.i.i2712 = invoke noundef ptr @_ZNKSt3__16locale9use_facetERNS0_2idE(ptr noundef nonnull align 8 dereferenceable(8) %ref.tmp.i.i2707, ptr noundef nonnull align 8 dereferenceable(12) @_ZNSt3__15ctypeIcE2idE)
          to label %invoke.cont.i.i2716 unwind label %lpad.i.i2717

invoke.cont.i.i2716:                              ; preds = %.noexc2719
  %vtable.i.i.i2713 = load ptr, ptr %call.i5.i.i2712, align 8, !tbaa !36
  %vfn.i.i.i2714 = getelementptr inbounds ptr, ptr %vtable.i.i.i2713, i64 7
  %89 = load ptr, ptr %vfn.i.i.i2714, align 8
  %call.i6.i.i2715 = invoke noundef signext i8 %89(ptr noundef nonnull align 8 dereferenceable(25) %call.i5.i.i2712, i8 noundef signext 10)
          to label %_ZNKSt3__19basic_iosIcNS_11char_traitsIcEEE5widenB7v170000Ec.exit.i2718 unwind label %lpad.i.i2717

lpad.i.i2717:                                     ; preds = %invoke.cont.i.i2716, %.noexc2719
  %90 = landingpad { ptr, i32 }
          cleanup
  call void @_ZNSt3__16localeD1Ev(ptr noundef nonnull align 8 dereferenceable(8) %ref.tmp.i.i2707) #16
  call void @llvm.lifetime.end.p0(i64 8, ptr nonnull %ref.tmp.i.i2707) #16
  br label %ehcleanup648

_ZNKSt3__19basic_iosIcNS_11char_traitsIcEEE5widenB7v170000Ec.exit.i2718: ; preds = %invoke.cont.i.i2716
  call void @_ZNSt3__16localeD1Ev(ptr noundef nonnull align 8 dereferenceable(8) %ref.tmp.i.i2707) #16
  call void @llvm.lifetime.end.p0(i64 8, ptr nonnull %ref.tmp.i.i2707) #16
  %call1.i2722 = invoke noundef nonnull align 8 dereferenceable(8) ptr @_ZNSt3__113basic_ostreamIcNS_11char_traitsIcEEE3putEc(ptr noundef nonnull align 8 dereferenceable(8) %call1.i1085, i8 noundef signext %call.i6.i.i2715)
          to label %call1.i.noexc2721 unwind label %lpad185

call1.i.noexc2721:                                ; preds = %_ZNKSt3__19basic_iosIcNS_11char_traitsIcEEE5widenB7v170000Ec.exit.i2718
  %call2.i2723 = invoke noundef nonnull align 8 dereferenceable(8) ptr @_ZNSt3__113basic_ostreamIcNS_11char_traitsIcEEE5flushEv(ptr noundef nonnull align 8 dereferenceable(8) %call1.i1085)
          to label %invoke.cont190 unwind label %lpad185

invoke.cont190:                                   ; preds = %call1.i.noexc2721
  %call1.i1090 = invoke noundef nonnull align 8 dereferenceable(8) ptr @_ZNSt3__124__put_character_sequenceB7v170000IcNS_11char_traitsIcEEEERNS_13basic_ostreamIT_T0_EES7_PKS4_m(ptr noundef nonnull align 8 dereferenceable(8) %add.ptr187, ptr noundef nonnull @.str.24, i64 noundef 41)
          to label %invoke.cont193 unwind label %lpad185

invoke.cont193:                                   ; preds = %invoke.cont190
  %call196 = invoke noundef nonnull align 8 dereferenceable(8) ptr @_ZNSt3__113basic_ostreamIcNS_11char_traitsIcEEElsEi(ptr noundef nonnull align 8 dereferenceable(8) %call1.i1090, i32 noundef %sub181)
          to label %invoke.cont195 unwind label %lpad185

invoke.cont195:                                   ; preds = %invoke.cont193
  %vtable.i2726 = load ptr, ptr %call196, align 8, !tbaa !36
  %vbase.offset.ptr.i2727 = getelementptr i8, ptr %vtable.i2726, i64 -24
  %vbase.offset.i2728 = load i64, ptr %vbase.offset.ptr.i2727, align 8
  %add.ptr.i2729 = getelementptr inbounds i8, ptr %call196, i64 %vbase.offset.i2728
  call void @llvm.lifetime.start.p0(i64 8, ptr nonnull %ref.tmp.i.i2725) #16
  invoke void @_ZNKSt3__18ios_base6getlocEv(ptr nonnull sret(%"class.std::__1::locale") align 8 %ref.tmp.i.i2725, ptr noundef nonnull align 8 dereferenceable(136) %add.ptr.i2729)
          to label %.noexc2737 unwind label %lpad185

.noexc2737:                                       ; preds = %invoke.cont195
  %call.i5.i.i2730 = invoke noundef ptr @_ZNKSt3__16locale9use_facetERNS0_2idE(ptr noundef nonnull align 8 dereferenceable(8) %ref.tmp.i.i2725, ptr noundef nonnull align 8 dereferenceable(12) @_ZNSt3__15ctypeIcE2idE)
          to label %invoke.cont.i.i2734 unwind label %lpad.i.i2735

invoke.cont.i.i2734:                              ; preds = %.noexc2737
  %vtable.i.i.i2731 = load ptr, ptr %call.i5.i.i2730, align 8, !tbaa !36
  %vfn.i.i.i2732 = getelementptr inbounds ptr, ptr %vtable.i.i.i2731, i64 7
  %91 = load ptr, ptr %vfn.i.i.i2732, align 8
  %call.i6.i.i2733 = invoke noundef signext i8 %91(ptr noundef nonnull align 8 dereferenceable(25) %call.i5.i.i2730, i8 noundef signext 10)
          to label %_ZNKSt3__19basic_iosIcNS_11char_traitsIcEEE5widenB7v170000Ec.exit.i2736 unwind label %lpad.i.i2735

lpad.i.i2735:                                     ; preds = %invoke.cont.i.i2734, %.noexc2737
  %92 = landingpad { ptr, i32 }
          cleanup
  call void @_ZNSt3__16localeD1Ev(ptr noundef nonnull align 8 dereferenceable(8) %ref.tmp.i.i2725) #16
  call void @llvm.lifetime.end.p0(i64 8, ptr nonnull %ref.tmp.i.i2725) #16
  br label %ehcleanup648

_ZNKSt3__19basic_iosIcNS_11char_traitsIcEEE5widenB7v170000Ec.exit.i2736: ; preds = %invoke.cont.i.i2734
  call void @_ZNSt3__16localeD1Ev(ptr noundef nonnull align 8 dereferenceable(8) %ref.tmp.i.i2725) #16
  call void @llvm.lifetime.end.p0(i64 8, ptr nonnull %ref.tmp.i.i2725) #16
  %call1.i2741 = invoke noundef nonnull align 8 dereferenceable(8) ptr @_ZNSt3__113basic_ostreamIcNS_11char_traitsIcEEE3putEc(ptr noundef nonnull align 8 dereferenceable(8) %call196, i8 noundef signext %call.i6.i.i2733)
          to label %call1.i.noexc2740 unwind label %lpad185

call1.i.noexc2740:                                ; preds = %_ZNKSt3__19basic_iosIcNS_11char_traitsIcEEE5widenB7v170000Ec.exit.i2736
  %call2.i2742 = invoke noundef nonnull align 8 dereferenceable(8) ptr @_ZNSt3__113basic_ostreamIcNS_11char_traitsIcEEE5flushEv(ptr noundef nonnull align 8 dereferenceable(8) %call196)
          to label %invoke.cont197 unwind label %lpad185

invoke.cont197:                                   ; preds = %call1.i.noexc2740
  %call1.i1095 = invoke noundef nonnull align 8 dereferenceable(8) ptr @_ZNSt3__124__put_character_sequenceB7v170000IcNS_11char_traitsIcEEEERNS_13basic_ostreamIT_T0_EES7_PKS4_m(ptr noundef nonnull align 8 dereferenceable(8) %add.ptr187, ptr noundef nonnull @.str.25, i64 noundef 50)
          to label %invoke.cont200 unwind label %lpad185

invoke.cont200:                                   ; preds = %invoke.cont197
  %vtable.i2745 = load ptr, ptr %call1.i1095, align 8, !tbaa !36
  %vbase.offset.ptr.i2746 = getelementptr i8, ptr %vtable.i2745, i64 -24
  %vbase.offset.i2747 = load i64, ptr %vbase.offset.ptr.i2746, align 8
  %add.ptr.i2748 = getelementptr inbounds i8, ptr %call1.i1095, i64 %vbase.offset.i2747
  call void @llvm.lifetime.start.p0(i64 8, ptr nonnull %ref.tmp.i.i2744) #16
  invoke void @_ZNKSt3__18ios_base6getlocEv(ptr nonnull sret(%"class.std::__1::locale") align 8 %ref.tmp.i.i2744, ptr noundef nonnull align 8 dereferenceable(136) %add.ptr.i2748)
          to label %.noexc2756 unwind label %lpad185

.noexc2756:                                       ; preds = %invoke.cont200
  %call.i5.i.i2749 = invoke noundef ptr @_ZNKSt3__16locale9use_facetERNS0_2idE(ptr noundef nonnull align 8 dereferenceable(8) %ref.tmp.i.i2744, ptr noundef nonnull align 8 dereferenceable(12) @_ZNSt3__15ctypeIcE2idE)
          to label %invoke.cont.i.i2753 unwind label %lpad.i.i2754

invoke.cont.i.i2753:                              ; preds = %.noexc2756
  %vtable.i.i.i2750 = load ptr, ptr %call.i5.i.i2749, align 8, !tbaa !36
  %vfn.i.i.i2751 = getelementptr inbounds ptr, ptr %vtable.i.i.i2750, i64 7
  %93 = load ptr, ptr %vfn.i.i.i2751, align 8
  %call.i6.i.i2752 = invoke noundef signext i8 %93(ptr noundef nonnull align 8 dereferenceable(25) %call.i5.i.i2749, i8 noundef signext 10)
          to label %_ZNKSt3__19basic_iosIcNS_11char_traitsIcEEE5widenB7v170000Ec.exit.i2755 unwind label %lpad.i.i2754

lpad.i.i2754:                                     ; preds = %invoke.cont.i.i2753, %.noexc2756
  %94 = landingpad { ptr, i32 }
          cleanup
  call void @_ZNSt3__16localeD1Ev(ptr noundef nonnull align 8 dereferenceable(8) %ref.tmp.i.i2744) #16
  call void @llvm.lifetime.end.p0(i64 8, ptr nonnull %ref.tmp.i.i2744) #16
  br label %ehcleanup648

_ZNKSt3__19basic_iosIcNS_11char_traitsIcEEE5widenB7v170000Ec.exit.i2755: ; preds = %invoke.cont.i.i2753
  call void @_ZNSt3__16localeD1Ev(ptr noundef nonnull align 8 dereferenceable(8) %ref.tmp.i.i2744) #16
  call void @llvm.lifetime.end.p0(i64 8, ptr nonnull %ref.tmp.i.i2744) #16
  %call1.i2760 = invoke noundef nonnull align 8 dereferenceable(8) ptr @_ZNSt3__113basic_ostreamIcNS_11char_traitsIcEEE3putEc(ptr noundef nonnull align 8 dereferenceable(8) %call1.i1095, i8 noundef signext %call.i6.i.i2752)
          to label %call1.i.noexc2759 unwind label %lpad185

call1.i.noexc2759:                                ; preds = %_ZNKSt3__19basic_iosIcNS_11char_traitsIcEEE5widenB7v170000Ec.exit.i2755
  %call2.i2761 = invoke noundef nonnull align 8 dereferenceable(8) ptr @_ZNSt3__113basic_ostreamIcNS_11char_traitsIcEEE5flushEv(ptr noundef nonnull align 8 dereferenceable(8) %call1.i1095)
          to label %invoke.cont202 unwind label %lpad185

invoke.cont202:                                   ; preds = %call1.i.noexc2759
  %call1.i1100 = invoke noundef nonnull align 8 dereferenceable(8) ptr @_ZNSt3__124__put_character_sequenceB7v170000IcNS_11char_traitsIcEEEERNS_13basic_ostreamIT_T0_EES7_PKS4_m(ptr noundef nonnull align 8 dereferenceable(8) %add.ptr187, ptr noundef nonnull @.str.26, i64 noundef 39)
          to label %invoke.cont205 unwind label %lpad185

invoke.cont205:                                   ; preds = %invoke.cont202
  %vtable.i2764 = load ptr, ptr %call1.i1100, align 8, !tbaa !36
  %vbase.offset.ptr.i2765 = getelementptr i8, ptr %vtable.i2764, i64 -24
  %vbase.offset.i2766 = load i64, ptr %vbase.offset.ptr.i2765, align 8
  %add.ptr.i2767 = getelementptr inbounds i8, ptr %call1.i1100, i64 %vbase.offset.i2766
  call void @llvm.lifetime.start.p0(i64 8, ptr nonnull %ref.tmp.i.i2763) #16
  invoke void @_ZNKSt3__18ios_base6getlocEv(ptr nonnull sret(%"class.std::__1::locale") align 8 %ref.tmp.i.i2763, ptr noundef nonnull align 8 dereferenceable(136) %add.ptr.i2767)
          to label %.noexc2775 unwind label %lpad185

.noexc2775:                                       ; preds = %invoke.cont205
  %call.i5.i.i2768 = invoke noundef ptr @_ZNKSt3__16locale9use_facetERNS0_2idE(ptr noundef nonnull align 8 dereferenceable(8) %ref.tmp.i.i2763, ptr noundef nonnull align 8 dereferenceable(12) @_ZNSt3__15ctypeIcE2idE)
          to label %invoke.cont.i.i2772 unwind label %lpad.i.i2773

invoke.cont.i.i2772:                              ; preds = %.noexc2775
  %vtable.i.i.i2769 = load ptr, ptr %call.i5.i.i2768, align 8, !tbaa !36
  %vfn.i.i.i2770 = getelementptr inbounds ptr, ptr %vtable.i.i.i2769, i64 7
  %95 = load ptr, ptr %vfn.i.i.i2770, align 8
  %call.i6.i.i2771 = invoke noundef signext i8 %95(ptr noundef nonnull align 8 dereferenceable(25) %call.i5.i.i2768, i8 noundef signext 10)
          to label %_ZNKSt3__19basic_iosIcNS_11char_traitsIcEEE5widenB7v170000Ec.exit.i2774 unwind label %lpad.i.i2773

lpad.i.i2773:                                     ; preds = %invoke.cont.i.i2772, %.noexc2775
  %96 = landingpad { ptr, i32 }
          cleanup
  call void @_ZNSt3__16localeD1Ev(ptr noundef nonnull align 8 dereferenceable(8) %ref.tmp.i.i2763) #16
  call void @llvm.lifetime.end.p0(i64 8, ptr nonnull %ref.tmp.i.i2763) #16
  br label %ehcleanup648

_ZNKSt3__19basic_iosIcNS_11char_traitsIcEEE5widenB7v170000Ec.exit.i2774: ; preds = %invoke.cont.i.i2772
  call void @_ZNSt3__16localeD1Ev(ptr noundef nonnull align 8 dereferenceable(8) %ref.tmp.i.i2763) #16
  call void @llvm.lifetime.end.p0(i64 8, ptr nonnull %ref.tmp.i.i2763) #16
  %call1.i2779 = invoke noundef nonnull align 8 dereferenceable(8) ptr @_ZNSt3__113basic_ostreamIcNS_11char_traitsIcEEE3putEc(ptr noundef nonnull align 8 dereferenceable(8) %call1.i1100, i8 noundef signext %call.i6.i.i2771)
          to label %call1.i.noexc2778 unwind label %lpad185

call1.i.noexc2778:                                ; preds = %_ZNKSt3__19basic_iosIcNS_11char_traitsIcEEE5widenB7v170000Ec.exit.i2774
  %call2.i2780 = invoke noundef nonnull align 8 dereferenceable(8) ptr @_ZNSt3__113basic_ostreamIcNS_11char_traitsIcEEE5flushEv(ptr noundef nonnull align 8 dereferenceable(8) %call1.i1100)
          to label %invoke.cont207 unwind label %lpad185

invoke.cont207:                                   ; preds = %call1.i.noexc2778
  %call1.i1105 = invoke noundef nonnull align 8 dereferenceable(8) ptr @_ZNSt3__124__put_character_sequenceB7v170000IcNS_11char_traitsIcEEEERNS_13basic_ostreamIT_T0_EES7_PKS4_m(ptr noundef nonnull align 8 dereferenceable(8) %add.ptr187, ptr noundef nonnull @.str.27, i64 noundef 15)
          to label %invoke.cont210 unwind label %lpad185

invoke.cont210:                                   ; preds = %invoke.cont207
  %vtable.i2783 = load ptr, ptr %call1.i1105, align 8, !tbaa !36
  %vbase.offset.ptr.i2784 = getelementptr i8, ptr %vtable.i2783, i64 -24
  %vbase.offset.i2785 = load i64, ptr %vbase.offset.ptr.i2784, align 8
  %add.ptr.i2786 = getelementptr inbounds i8, ptr %call1.i1105, i64 %vbase.offset.i2785
  call void @llvm.lifetime.start.p0(i64 8, ptr nonnull %ref.tmp.i.i2782) #16
  invoke void @_ZNKSt3__18ios_base6getlocEv(ptr nonnull sret(%"class.std::__1::locale") align 8 %ref.tmp.i.i2782, ptr noundef nonnull align 8 dereferenceable(136) %add.ptr.i2786)
          to label %.noexc2794 unwind label %lpad185

.noexc2794:                                       ; preds = %invoke.cont210
  %call.i5.i.i2787 = invoke noundef ptr @_ZNKSt3__16locale9use_facetERNS0_2idE(ptr noundef nonnull align 8 dereferenceable(8) %ref.tmp.i.i2782, ptr noundef nonnull align 8 dereferenceable(12) @_ZNSt3__15ctypeIcE2idE)
          to label %invoke.cont.i.i2791 unwind label %lpad.i.i2792

invoke.cont.i.i2791:                              ; preds = %.noexc2794
  %vtable.i.i.i2788 = load ptr, ptr %call.i5.i.i2787, align 8, !tbaa !36
  %vfn.i.i.i2789 = getelementptr inbounds ptr, ptr %vtable.i.i.i2788, i64 7
  %97 = load ptr, ptr %vfn.i.i.i2789, align 8
  %call.i6.i.i2790 = invoke noundef signext i8 %97(ptr noundef nonnull align 8 dereferenceable(25) %call.i5.i.i2787, i8 noundef signext 10)
          to label %_ZNKSt3__19basic_iosIcNS_11char_traitsIcEEE5widenB7v170000Ec.exit.i2793 unwind label %lpad.i.i2792

lpad.i.i2792:                                     ; preds = %invoke.cont.i.i2791, %.noexc2794
  %98 = landingpad { ptr, i32 }
          cleanup
  call void @_ZNSt3__16localeD1Ev(ptr noundef nonnull align 8 dereferenceable(8) %ref.tmp.i.i2782) #16
  call void @llvm.lifetime.end.p0(i64 8, ptr nonnull %ref.tmp.i.i2782) #16
  br label %ehcleanup648

_ZNKSt3__19basic_iosIcNS_11char_traitsIcEEE5widenB7v170000Ec.exit.i2793: ; preds = %invoke.cont.i.i2791
  call void @_ZNSt3__16localeD1Ev(ptr noundef nonnull align 8 dereferenceable(8) %ref.tmp.i.i2782) #16
  call void @llvm.lifetime.end.p0(i64 8, ptr nonnull %ref.tmp.i.i2782) #16
  %call1.i2798 = invoke noundef nonnull align 8 dereferenceable(8) ptr @_ZNSt3__113basic_ostreamIcNS_11char_traitsIcEEE3putEc(ptr noundef nonnull align 8 dereferenceable(8) %call1.i1105, i8 noundef signext %call.i6.i.i2790)
          to label %call1.i.noexc2797 unwind label %lpad185

call1.i.noexc2797:                                ; preds = %_ZNKSt3__19basic_iosIcNS_11char_traitsIcEEE5widenB7v170000Ec.exit.i2793
  %call2.i2799 = invoke noundef nonnull align 8 dereferenceable(8) ptr @_ZNSt3__113basic_ostreamIcNS_11char_traitsIcEEE5flushEv(ptr noundef nonnull align 8 dereferenceable(8) %call1.i1105)
          to label %invoke.cont212 unwind label %lpad185

invoke.cont212:                                   ; preds = %call1.i.noexc2797
  %call1.i1110 = invoke noundef nonnull align 8 dereferenceable(8) ptr @_ZNSt3__124__put_character_sequenceB7v170000IcNS_11char_traitsIcEEEERNS_13basic_ostreamIT_T0_EES7_PKS4_m(ptr noundef nonnull align 8 dereferenceable(8) %add.ptr187, ptr noundef nonnull @.str.28, i64 noundef 44)
          to label %invoke.cont215 unwind label %lpad185

invoke.cont215:                                   ; preds = %invoke.cont212
  %vtable.i2802 = load ptr, ptr %call1.i1110, align 8, !tbaa !36
  %vbase.offset.ptr.i2803 = getelementptr i8, ptr %vtable.i2802, i64 -24
  %vbase.offset.i2804 = load i64, ptr %vbase.offset.ptr.i2803, align 8
  %add.ptr.i2805 = getelementptr inbounds i8, ptr %call1.i1110, i64 %vbase.offset.i2804
  call void @llvm.lifetime.start.p0(i64 8, ptr nonnull %ref.tmp.i.i2801) #16
  invoke void @_ZNKSt3__18ios_base6getlocEv(ptr nonnull sret(%"class.std::__1::locale") align 8 %ref.tmp.i.i2801, ptr noundef nonnull align 8 dereferenceable(136) %add.ptr.i2805)
          to label %.noexc2813 unwind label %lpad185

.noexc2813:                                       ; preds = %invoke.cont215
  %call.i5.i.i2806 = invoke noundef ptr @_ZNKSt3__16locale9use_facetERNS0_2idE(ptr noundef nonnull align 8 dereferenceable(8) %ref.tmp.i.i2801, ptr noundef nonnull align 8 dereferenceable(12) @_ZNSt3__15ctypeIcE2idE)
          to label %invoke.cont.i.i2810 unwind label %lpad.i.i2811

invoke.cont.i.i2810:                              ; preds = %.noexc2813
  %vtable.i.i.i2807 = load ptr, ptr %call.i5.i.i2806, align 8, !tbaa !36
  %vfn.i.i.i2808 = getelementptr inbounds ptr, ptr %vtable.i.i.i2807, i64 7
  %99 = load ptr, ptr %vfn.i.i.i2808, align 8
  %call.i6.i.i2809 = invoke noundef signext i8 %99(ptr noundef nonnull align 8 dereferenceable(25) %call.i5.i.i2806, i8 noundef signext 10)
          to label %_ZNKSt3__19basic_iosIcNS_11char_traitsIcEEE5widenB7v170000Ec.exit.i2812 unwind label %lpad.i.i2811

lpad.i.i2811:                                     ; preds = %invoke.cont.i.i2810, %.noexc2813
  %100 = landingpad { ptr, i32 }
          cleanup
  call void @_ZNSt3__16localeD1Ev(ptr noundef nonnull align 8 dereferenceable(8) %ref.tmp.i.i2801) #16
  call void @llvm.lifetime.end.p0(i64 8, ptr nonnull %ref.tmp.i.i2801) #16
  br label %ehcleanup648

_ZNKSt3__19basic_iosIcNS_11char_traitsIcEEE5widenB7v170000Ec.exit.i2812: ; preds = %invoke.cont.i.i2810
  call void @_ZNSt3__16localeD1Ev(ptr noundef nonnull align 8 dereferenceable(8) %ref.tmp.i.i2801) #16
  call void @llvm.lifetime.end.p0(i64 8, ptr nonnull %ref.tmp.i.i2801) #16
  %call1.i2817 = invoke noundef nonnull align 8 dereferenceable(8) ptr @_ZNSt3__113basic_ostreamIcNS_11char_traitsIcEEE3putEc(ptr noundef nonnull align 8 dereferenceable(8) %call1.i1110, i8 noundef signext %call.i6.i.i2809)
          to label %call1.i.noexc2816 unwind label %lpad185

call1.i.noexc2816:                                ; preds = %_ZNKSt3__19basic_iosIcNS_11char_traitsIcEEE5widenB7v170000Ec.exit.i2812
  %call2.i2818 = invoke noundef nonnull align 8 dereferenceable(8) ptr @_ZNSt3__113basic_ostreamIcNS_11char_traitsIcEEE5flushEv(ptr noundef nonnull align 8 dereferenceable(8) %call1.i1110)
          to label %invoke.cont217 unwind label %lpad185

invoke.cont217:                                   ; preds = %call1.i.noexc2816
  %call1.i1115 = invoke noundef nonnull align 8 dereferenceable(8) ptr @_ZNSt3__124__put_character_sequenceB7v170000IcNS_11char_traitsIcEEEERNS_13basic_ostreamIT_T0_EES7_PKS4_m(ptr noundef nonnull align 8 dereferenceable(8) %add.ptr187, ptr noundef nonnull @.str.29, i64 noundef 25)
          to label %invoke.cont220 unwind label %lpad185

invoke.cont220:                                   ; preds = %invoke.cont217
  %vtable.i2821 = load ptr, ptr %call1.i1115, align 8, !tbaa !36
  %vbase.offset.ptr.i2822 = getelementptr i8, ptr %vtable.i2821, i64 -24
  %vbase.offset.i2823 = load i64, ptr %vbase.offset.ptr.i2822, align 8
  %add.ptr.i2824 = getelementptr inbounds i8, ptr %call1.i1115, i64 %vbase.offset.i2823
  call void @llvm.lifetime.start.p0(i64 8, ptr nonnull %ref.tmp.i.i2820) #16
  invoke void @_ZNKSt3__18ios_base6getlocEv(ptr nonnull sret(%"class.std::__1::locale") align 8 %ref.tmp.i.i2820, ptr noundef nonnull align 8 dereferenceable(136) %add.ptr.i2824)
          to label %.noexc2832 unwind label %lpad185

.noexc2832:                                       ; preds = %invoke.cont220
  %call.i5.i.i2825 = invoke noundef ptr @_ZNKSt3__16locale9use_facetERNS0_2idE(ptr noundef nonnull align 8 dereferenceable(8) %ref.tmp.i.i2820, ptr noundef nonnull align 8 dereferenceable(12) @_ZNSt3__15ctypeIcE2idE)
          to label %invoke.cont.i.i2829 unwind label %lpad.i.i2830

invoke.cont.i.i2829:                              ; preds = %.noexc2832
  %vtable.i.i.i2826 = load ptr, ptr %call.i5.i.i2825, align 8, !tbaa !36
  %vfn.i.i.i2827 = getelementptr inbounds ptr, ptr %vtable.i.i.i2826, i64 7
  %101 = load ptr, ptr %vfn.i.i.i2827, align 8
  %call.i6.i.i2828 = invoke noundef signext i8 %101(ptr noundef nonnull align 8 dereferenceable(25) %call.i5.i.i2825, i8 noundef signext 10)
          to label %_ZNKSt3__19basic_iosIcNS_11char_traitsIcEEE5widenB7v170000Ec.exit.i2831 unwind label %lpad.i.i2830

lpad.i.i2830:                                     ; preds = %invoke.cont.i.i2829, %.noexc2832
  %102 = landingpad { ptr, i32 }
          cleanup
  call void @_ZNSt3__16localeD1Ev(ptr noundef nonnull align 8 dereferenceable(8) %ref.tmp.i.i2820) #16
  call void @llvm.lifetime.end.p0(i64 8, ptr nonnull %ref.tmp.i.i2820) #16
  br label %ehcleanup648

_ZNKSt3__19basic_iosIcNS_11char_traitsIcEEE5widenB7v170000Ec.exit.i2831: ; preds = %invoke.cont.i.i2829
  call void @_ZNSt3__16localeD1Ev(ptr noundef nonnull align 8 dereferenceable(8) %ref.tmp.i.i2820) #16
  call void @llvm.lifetime.end.p0(i64 8, ptr nonnull %ref.tmp.i.i2820) #16
  %call1.i2836 = invoke noundef nonnull align 8 dereferenceable(8) ptr @_ZNSt3__113basic_ostreamIcNS_11char_traitsIcEEE3putEc(ptr noundef nonnull align 8 dereferenceable(8) %call1.i1115, i8 noundef signext %call.i6.i.i2828)
          to label %call1.i.noexc2835 unwind label %lpad185

call1.i.noexc2835:                                ; preds = %_ZNKSt3__19basic_iosIcNS_11char_traitsIcEEE5widenB7v170000Ec.exit.i2831
  %call2.i2837 = invoke noundef nonnull align 8 dereferenceable(8) ptr @_ZNSt3__113basic_ostreamIcNS_11char_traitsIcEEE5flushEv(ptr noundef nonnull align 8 dereferenceable(8) %call1.i1115)
          to label %invoke.cont222 unwind label %lpad185

invoke.cont222:                                   ; preds = %call1.i.noexc2835
  %call1.i1120 = invoke noundef nonnull align 8 dereferenceable(8) ptr @_ZNSt3__124__put_character_sequenceB7v170000IcNS_11char_traitsIcEEEERNS_13basic_ostreamIT_T0_EES7_PKS4_m(ptr noundef nonnull align 8 dereferenceable(8) %add.ptr187, ptr noundef nonnull @.str.30, i64 noundef 36)
          to label %invoke.cont225 unwind label %lpad185

invoke.cont225:                                   ; preds = %invoke.cont222
  %vtable.i2840 = load ptr, ptr %call1.i1120, align 8, !tbaa !36
  %vbase.offset.ptr.i2841 = getelementptr i8, ptr %vtable.i2840, i64 -24
  %vbase.offset.i2842 = load i64, ptr %vbase.offset.ptr.i2841, align 8
  %add.ptr.i2843 = getelementptr inbounds i8, ptr %call1.i1120, i64 %vbase.offset.i2842
  call void @llvm.lifetime.start.p0(i64 8, ptr nonnull %ref.tmp.i.i2839) #16
  invoke void @_ZNKSt3__18ios_base6getlocEv(ptr nonnull sret(%"class.std::__1::locale") align 8 %ref.tmp.i.i2839, ptr noundef nonnull align 8 dereferenceable(136) %add.ptr.i2843)
          to label %.noexc2851 unwind label %lpad185

.noexc2851:                                       ; preds = %invoke.cont225
  %call.i5.i.i2844 = invoke noundef ptr @_ZNKSt3__16locale9use_facetERNS0_2idE(ptr noundef nonnull align 8 dereferenceable(8) %ref.tmp.i.i2839, ptr noundef nonnull align 8 dereferenceable(12) @_ZNSt3__15ctypeIcE2idE)
          to label %invoke.cont.i.i2848 unwind label %lpad.i.i2849

invoke.cont.i.i2848:                              ; preds = %.noexc2851
  %vtable.i.i.i2845 = load ptr, ptr %call.i5.i.i2844, align 8, !tbaa !36
  %vfn.i.i.i2846 = getelementptr inbounds ptr, ptr %vtable.i.i.i2845, i64 7
  %103 = load ptr, ptr %vfn.i.i.i2846, align 8
  %call.i6.i.i2847 = invoke noundef signext i8 %103(ptr noundef nonnull align 8 dereferenceable(25) %call.i5.i.i2844, i8 noundef signext 10)
          to label %_ZNKSt3__19basic_iosIcNS_11char_traitsIcEEE5widenB7v170000Ec.exit.i2850 unwind label %lpad.i.i2849

lpad.i.i2849:                                     ; preds = %invoke.cont.i.i2848, %.noexc2851
  %104 = landingpad { ptr, i32 }
          cleanup
  call void @_ZNSt3__16localeD1Ev(ptr noundef nonnull align 8 dereferenceable(8) %ref.tmp.i.i2839) #16
  call void @llvm.lifetime.end.p0(i64 8, ptr nonnull %ref.tmp.i.i2839) #16
  br label %ehcleanup648

_ZNKSt3__19basic_iosIcNS_11char_traitsIcEEE5widenB7v170000Ec.exit.i2850: ; preds = %invoke.cont.i.i2848
  call void @_ZNSt3__16localeD1Ev(ptr noundef nonnull align 8 dereferenceable(8) %ref.tmp.i.i2839) #16
  call void @llvm.lifetime.end.p0(i64 8, ptr nonnull %ref.tmp.i.i2839) #16
  %call1.i2855 = invoke noundef nonnull align 8 dereferenceable(8) ptr @_ZNSt3__113basic_ostreamIcNS_11char_traitsIcEEE3putEc(ptr noundef nonnull align 8 dereferenceable(8) %call1.i1120, i8 noundef signext %call.i6.i.i2847)
          to label %call1.i.noexc2854 unwind label %lpad185

call1.i.noexc2854:                                ; preds = %_ZNKSt3__19basic_iosIcNS_11char_traitsIcEEE5widenB7v170000Ec.exit.i2850
  %call2.i2856 = invoke noundef nonnull align 8 dereferenceable(8) ptr @_ZNSt3__113basic_ostreamIcNS_11char_traitsIcEEE5flushEv(ptr noundef nonnull align 8 dereferenceable(8) %call1.i1120)
          to label %invoke.cont227 unwind label %lpad185

invoke.cont227:                                   ; preds = %call1.i.noexc2854
  %call1.i1125 = invoke noundef nonnull align 8 dereferenceable(8) ptr @_ZNSt3__124__put_character_sequenceB7v170000IcNS_11char_traitsIcEEEERNS_13basic_ostreamIT_T0_EES7_PKS4_m(ptr noundef nonnull align 8 dereferenceable(8) %add.ptr187, ptr noundef nonnull @.str.31, i64 noundef 44)
          to label %invoke.cont230 unwind label %lpad185

invoke.cont230:                                   ; preds = %invoke.cont227
  %vtable.i2859 = load ptr, ptr %call1.i1125, align 8, !tbaa !36
  %vbase.offset.ptr.i2860 = getelementptr i8, ptr %vtable.i2859, i64 -24
  %vbase.offset.i2861 = load i64, ptr %vbase.offset.ptr.i2860, align 8
  %add.ptr.i2862 = getelementptr inbounds i8, ptr %call1.i1125, i64 %vbase.offset.i2861
  call void @llvm.lifetime.start.p0(i64 8, ptr nonnull %ref.tmp.i.i2858) #16
  invoke void @_ZNKSt3__18ios_base6getlocEv(ptr nonnull sret(%"class.std::__1::locale") align 8 %ref.tmp.i.i2858, ptr noundef nonnull align 8 dereferenceable(136) %add.ptr.i2862)
          to label %.noexc2870 unwind label %lpad185

.noexc2870:                                       ; preds = %invoke.cont230
  %call.i5.i.i2863 = invoke noundef ptr @_ZNKSt3__16locale9use_facetERNS0_2idE(ptr noundef nonnull align 8 dereferenceable(8) %ref.tmp.i.i2858, ptr noundef nonnull align 8 dereferenceable(12) @_ZNSt3__15ctypeIcE2idE)
          to label %invoke.cont.i.i2867 unwind label %lpad.i.i2868

invoke.cont.i.i2867:                              ; preds = %.noexc2870
  %vtable.i.i.i2864 = load ptr, ptr %call.i5.i.i2863, align 8, !tbaa !36
  %vfn.i.i.i2865 = getelementptr inbounds ptr, ptr %vtable.i.i.i2864, i64 7
  %105 = load ptr, ptr %vfn.i.i.i2865, align 8
  %call.i6.i.i2866 = invoke noundef signext i8 %105(ptr noundef nonnull align 8 dereferenceable(25) %call.i5.i.i2863, i8 noundef signext 10)
          to label %_ZNKSt3__19basic_iosIcNS_11char_traitsIcEEE5widenB7v170000Ec.exit.i2869 unwind label %lpad.i.i2868

lpad.i.i2868:                                     ; preds = %invoke.cont.i.i2867, %.noexc2870
  %106 = landingpad { ptr, i32 }
          cleanup
  call void @_ZNSt3__16localeD1Ev(ptr noundef nonnull align 8 dereferenceable(8) %ref.tmp.i.i2858) #16
  call void @llvm.lifetime.end.p0(i64 8, ptr nonnull %ref.tmp.i.i2858) #16
  br label %ehcleanup648

_ZNKSt3__19basic_iosIcNS_11char_traitsIcEEE5widenB7v170000Ec.exit.i2869: ; preds = %invoke.cont.i.i2867
  call void @_ZNSt3__16localeD1Ev(ptr noundef nonnull align 8 dereferenceable(8) %ref.tmp.i.i2858) #16
  call void @llvm.lifetime.end.p0(i64 8, ptr nonnull %ref.tmp.i.i2858) #16
  %call1.i2874 = invoke noundef nonnull align 8 dereferenceable(8) ptr @_ZNSt3__113basic_ostreamIcNS_11char_traitsIcEEE3putEc(ptr noundef nonnull align 8 dereferenceable(8) %call1.i1125, i8 noundef signext %call.i6.i.i2866)
          to label %call1.i.noexc2873 unwind label %lpad185

call1.i.noexc2873:                                ; preds = %_ZNKSt3__19basic_iosIcNS_11char_traitsIcEEE5widenB7v170000Ec.exit.i2869
  %call2.i2875 = invoke noundef nonnull align 8 dereferenceable(8) ptr @_ZNSt3__113basic_ostreamIcNS_11char_traitsIcEEE5flushEv(ptr noundef nonnull align 8 dereferenceable(8) %call1.i1125)
          to label %invoke.cont232 unwind label %lpad185

invoke.cont232:                                   ; preds = %call1.i.noexc2873
  store i32 2, ptr %ierr, align 4, !tbaa !32
  br label %cleanup647

lpad185:                                          ; preds = %call1.i.noexc2873, %_ZNKSt3__19basic_iosIcNS_11char_traitsIcEEE5widenB7v170000Ec.exit.i2869, %invoke.cont230, %call1.i.noexc2854, %_ZNKSt3__19basic_iosIcNS_11char_traitsIcEEE5widenB7v170000Ec.exit.i2850, %invoke.cont225, %call1.i.noexc2835, %_ZNKSt3__19basic_iosIcNS_11char_traitsIcEEE5widenB7v170000Ec.exit.i2831, %invoke.cont220, %call1.i.noexc2816, %_ZNKSt3__19basic_iosIcNS_11char_traitsIcEEE5widenB7v170000Ec.exit.i2812, %invoke.cont215, %call1.i.noexc2797, %_ZNKSt3__19basic_iosIcNS_11char_traitsIcEEE5widenB7v170000Ec.exit.i2793, %invoke.cont210, %call1.i.noexc2778, %_ZNKSt3__19basic_iosIcNS_11char_traitsIcEEE5widenB7v170000Ec.exit.i2774, %invoke.cont205, %call1.i.noexc2759, %_ZNKSt3__19basic_iosIcNS_11char_traitsIcEEE5widenB7v170000Ec.exit.i2755, %invoke.cont200, %call1.i.noexc2740, %_ZNKSt3__19basic_iosIcNS_11char_traitsIcEEE5widenB7v170000Ec.exit.i2736, %invoke.cont195, %call1.i.noexc2721, %_ZNKSt3__19basic_iosIcNS_11char_traitsIcEEE5widenB7v170000Ec.exit.i2718, %invoke.cont188, %invoke.cont227, %invoke.cont222, %invoke.cont217, %invoke.cont212, %invoke.cont207, %invoke.cont202, %invoke.cont197, %invoke.cont190, %invoke.cont186, %invoke.cont640, %if.then639, %invoke.cont193, %if.then184
  %107 = landingpad { ptr, i32 }
          cleanup
  br label %ehcleanup648

for.cond274.preheader:                            ; preds = %invoke.cont266, %for.cond236.preheader
  %__size_.i.i = getelementptr inbounds %"class.std::__1::deque", ptr %this, i64 0, i32 2
  %108 = load i64, ptr %__size_.i.i, align 8, !tbaa !35
  %conv3067 = trunc i64 %108 to i32
  %cmp277.not3068 = icmp sgt i32 %conv3067, 0
  br i1 %cmp277.not3068, label %for.body279.lr.ph, label %for.end447

for.body279.lr.ph:                                ; preds = %for.cond274.preheader
  %__start_.i = getelementptr inbounds %"class.PP::Restartblock", ptr %this, i64 0, i32 1, i32 1
  %__begin_.i.i = getelementptr inbounds %"class.PP::Restartblock", ptr %this, i64 0, i32 1, i32 0, i32 1
  %__size_.i.i.i1204 = getelementptr inbounds %"struct.std::__1::basic_string<char>::__long", ptr %ref.tmp280, i64 0, i32 1
  %__data_.i4.i.i.i.i1212 = getelementptr inbounds %"struct.std::__1::basic_string<char>::__short", ptr %ref.tmp280, i64 0, i32 2
  %__data_.i.i.i.i.i1213 = getelementptr inbounds %"struct.std::__1::basic_string<char>::__long", ptr %ref.tmp280, i64 0, i32 2
  %__size_.i.i.i1245 = getelementptr inbounds %"struct.std::__1::basic_string<char>::__long", ptr %ref.tmp290, i64 0, i32 1
  %__data_.i4.i.i.i.i1253 = getelementptr inbounds %"struct.std::__1::basic_string<char>::__short", ptr %ref.tmp290, i64 0, i32 2
  %__data_.i.i.i.i.i1254 = getelementptr inbounds %"struct.std::__1::basic_string<char>::__long", ptr %ref.tmp290, i64 0, i32 2
  %__size_.i.i.i1286 = getelementptr inbounds %"struct.std::__1::basic_string<char>::__long", ptr %ref.tmp300, i64 0, i32 1
  %__data_.i4.i.i.i.i1294 = getelementptr inbounds %"struct.std::__1::basic_string<char>::__short", ptr %ref.tmp300, i64 0, i32 2
  %__data_.i.i.i.i.i1295 = getelementptr inbounds %"struct.std::__1::basic_string<char>::__long", ptr %ref.tmp300, i64 0, i32 2
  %__size_.i.i.i1327 = getelementptr inbounds %"struct.std::__1::basic_string<char>::__long", ptr %ref.tmp310, i64 0, i32 1
  %__data_.i4.i.i.i.i1335 = getelementptr inbounds %"struct.std::__1::basic_string<char>::__short", ptr %ref.tmp310, i64 0, i32 2
  %__data_.i.i.i.i.i1336 = getelementptr inbounds %"struct.std::__1::basic_string<char>::__long", ptr %ref.tmp310, i64 0, i32 2
  %__size_.i.i.i1368 = getelementptr inbounds %"struct.std::__1::basic_string<char>::__long", ptr %ref.tmp320, i64 0, i32 1
  %__data_.i4.i.i.i.i1376 = getelementptr inbounds %"struct.std::__1::basic_string<char>::__short", ptr %ref.tmp320, i64 0, i32 2
  %__data_.i.i.i.i.i1377 = getelementptr inbounds %"struct.std::__1::basic_string<char>::__long", ptr %ref.tmp320, i64 0, i32 2
  %__size_.i.i.i1409 = getelementptr inbounds %"struct.std::__1::basic_string<char>::__long", ptr %ref.tmp330, i64 0, i32 1
  %__data_.i4.i.i.i.i1417 = getelementptr inbounds %"struct.std::__1::basic_string<char>::__short", ptr %ref.tmp330, i64 0, i32 2
  %__data_.i.i.i.i.i1418 = getelementptr inbounds %"struct.std::__1::basic_string<char>::__long", ptr %ref.tmp330, i64 0, i32 2
  %__size_.i.i.i1450 = getelementptr inbounds %"struct.std::__1::basic_string<char>::__long", ptr %ref.tmp340, i64 0, i32 1
  %__data_.i4.i.i.i.i1458 = getelementptr inbounds %"struct.std::__1::basic_string<char>::__short", ptr %ref.tmp340, i64 0, i32 2
  %__data_.i.i.i.i.i1459 = getelementptr inbounds %"struct.std::__1::basic_string<char>::__long", ptr %ref.tmp340, i64 0, i32 2
  %__size_.i.i.i1491 = getelementptr inbounds %"struct.std::__1::basic_string<char>::__long", ptr %ref.tmp350, i64 0, i32 1
  %__data_.i4.i.i.i.i1499 = getelementptr inbounds %"struct.std::__1::basic_string<char>::__short", ptr %ref.tmp350, i64 0, i32 2
  %__data_.i.i.i.i.i1500 = getelementptr inbounds %"struct.std::__1::basic_string<char>::__long", ptr %ref.tmp350, i64 0, i32 2
  %__size_.i.i.i1532 = getelementptr inbounds %"struct.std::__1::basic_string<char>::__long", ptr %ref.tmp360, i64 0, i32 1
  %__data_.i4.i.i.i.i1540 = getelementptr inbounds %"struct.std::__1::basic_string<char>::__short", ptr %ref.tmp360, i64 0, i32 2
  %__data_.i.i.i.i.i1541 = getelementptr inbounds %"struct.std::__1::basic_string<char>::__long", ptr %ref.tmp360, i64 0, i32 2
  %__size_.i.i.i1573 = getelementptr inbounds %"struct.std::__1::basic_string<char>::__long", ptr %ref.tmp370, i64 0, i32 1
  %__data_.i4.i.i.i.i1581 = getelementptr inbounds %"struct.std::__1::basic_string<char>::__short", ptr %ref.tmp370, i64 0, i32 2
  %__data_.i.i.i.i.i1582 = getelementptr inbounds %"struct.std::__1::basic_string<char>::__long", ptr %ref.tmp370, i64 0, i32 2
  %__size_.i.i.i1614 = getelementptr inbounds %"struct.std::__1::basic_string<char>::__long", ptr %ref.tmp380, i64 0, i32 1
  %__data_.i4.i.i.i.i1622 = getelementptr inbounds %"struct.std::__1::basic_string<char>::__short", ptr %ref.tmp380, i64 0, i32 2
  %__data_.i.i.i.i.i1623 = getelementptr inbounds %"struct.std::__1::basic_string<char>::__long", ptr %ref.tmp380, i64 0, i32 2
  %__size_.i.i.i1655 = getelementptr inbounds %"struct.std::__1::basic_string<char>::__long", ptr %ref.tmp390, i64 0, i32 1
  %__data_.i4.i.i.i.i1663 = getelementptr inbounds %"struct.std::__1::basic_string<char>::__short", ptr %ref.tmp390, i64 0, i32 2
  %__data_.i.i.i.i.i1664 = getelementptr inbounds %"struct.std::__1::basic_string<char>::__long", ptr %ref.tmp390, i64 0, i32 2
  br label %for.body279

for.body239:                                      ; preds = %for.body239.lr.ph, %invoke.cont266
  %i235.03066 = phi i32 [ 3, %for.body239.lr.ph ], [ %add270, %invoke.cont266 ]
  invoke void @_ZN2PP12Restartblock8add_wordERNS_3CmdEiRNSt3__15dequeINS_4WordENS3_9allocatorIS5_EEEE(ptr nonnull align 8 poison, ptr noundef nonnull align 8 dereferenceable(320) %cmdi, i32 noundef %i235.03066, ptr noundef nonnull align 8 dereferenceable(48) %this)
          to label %invoke.cont242 unwind label %lpad241

invoke.cont242:                                   ; preds = %for.body239
  %add243 = add nuw nsw i32 %i235.03066, 1
  invoke void @_ZN2PP12Restartblock8add_wordERNS_3CmdEiRNSt3__15dequeINS_4WordENS3_9allocatorIS5_EEEE(ptr nonnull align 8 poison, ptr noundef nonnull align 8 dereferenceable(320) %cmdi, i32 noundef %add243, ptr noundef nonnull align 8 dereferenceable(48) %relation)
          to label %invoke.cont245 unwind label %lpad241

invoke.cont245:                                   ; preds = %invoke.cont242
  %add246 = add nuw nsw i32 %i235.03066, 2
  invoke void @_ZN2PP12Restartblock8add_wordERNS_3CmdEiRNSt3__15dequeINS_4WordENS3_9allocatorIS5_EEEE(ptr nonnull align 8 poison, ptr noundef nonnull align 8 dereferenceable(320) %cmdi, i32 noundef %add246, ptr noundef nonnull align 8 dereferenceable(48) %value)
          to label %invoke.cont248 unwind label %lpad241

invoke.cont248:                                   ; preds = %invoke.cont245
  %add249 = add nuw nsw i32 %i235.03066, 3
  %cmp250 = icmp slt i32 %add249, %close_paren_dex.1
  br i1 %cmp250, label %if.then251, label %if.then3.i.i

if.then251:                                       ; preds = %invoke.cont248
  invoke void @_ZN2PP12Restartblock8add_wordERNS_3CmdEiRNSt3__15dequeINS_4WordENS3_9allocatorIS5_EEEE(ptr nonnull align 8 poison, ptr noundef nonnull align 8 dereferenceable(320) %cmdi, i32 noundef %add249, ptr noundef nonnull align 8 dereferenceable(48) %logop)
          to label %if.end261 unwind label %lpad241

lpad241:                                          ; preds = %if.then251, %invoke.cont245, %invoke.cont242, %for.body239
  %109 = landingpad { ptr, i32 }
          cleanup
  br label %ehcleanup648

if.then3.i.i:                                     ; preds = %invoke.cont248
  store i8 8, ptr %agg.tmp, align 8
  call void @llvm.assume(i1 %87)
  store i32 1701736302, ptr %__data_.i.i.i, align 1
  store i8 0, ptr %add.ptr.i.i.i, align 1, !tbaa !47
  invoke void @_ZN2PP12Restartblock8add_wordERNS_3CmdEiRNSt3__15dequeINS_4WordENS3_9allocatorIS5_EEEENS3_12basic_stringIcNS3_11char_traitsIcEENS6_IcEEEE(ptr nonnull align 8 poison, ptr noundef nonnull align 8 dereferenceable(320) %cmdi, i32 noundef %add249, ptr noundef nonnull align 8 dereferenceable(48) %logop, ptr noundef nonnull %agg.tmp)
          to label %invoke.cont259 unwind label %lpad258

invoke.cont259:                                   ; preds = %if.then3.i.i
  %bf.load.i.i1137 = load i8, ptr %agg.tmp, align 8
  %bf.clear.i.i1138 = and i8 %bf.load.i.i1137, 1
  %tobool.i.not.i1139 = icmp eq i8 %bf.clear.i.i1138, 0
  br i1 %tobool.i.not.i1139, label %if.end261, label %if.then.i1141

if.then.i1141:                                    ; preds = %invoke.cont259
  %110 = load ptr, ptr %__data_.i.i1140, align 8, !tbaa !47
  call void @_ZdlPv(ptr noundef %110) #17
  br label %if.end261

lpad258:                                          ; preds = %if.then3.i.i
  %111 = landingpad { ptr, i32 }
          cleanup
  %bf.load.i.i1144 = load i8, ptr %agg.tmp, align 8
  %bf.clear.i.i1145 = and i8 %bf.load.i.i1144, 1
  %tobool.i.not.i1146 = icmp eq i8 %bf.clear.i.i1145, 0
  br i1 %tobool.i.not.i1146, label %ehcleanup648, label %if.then.i1148

if.then.i1148:                                    ; preds = %lpad258
  %112 = load ptr, ptr %__data_.i.i1140, align 8, !tbaa !47
  call void @_ZdlPv(ptr noundef %112) #17
  br label %ehcleanup648

if.end261:                                        ; preds = %if.then.i1141, %invoke.cont259, %if.then251
  call void @llvm.lifetime.start.p0(i64 24, ptr nonnull %ref.tmp) #16
  store i8 10, ptr %ref.tmp, align 8
  call void @llvm.assume(i1 %88)
  call void @llvm.memcpy.p0.p0.i64(ptr noundef nonnull align 1 dereferenceable(5) %__data_.i.i.i1158, ptr noundef nonnull align 1 dereferenceable(5) @.str.33, i64 5, i1 false)
  store i8 0, ptr %add.ptr.i.i.i1168, align 2, !tbaa !47
  %113 = load ptr, ptr %__end_.i.i.i.i, align 8, !tbaa !54
  %114 = load ptr, ptr %__begin_.i.i.i.i, align 8, !tbaa !55
  %sub.ptr.lhs.cast.i.i.i.i = ptrtoint ptr %113 to i64
  %sub.ptr.rhs.cast.i.i.i.i = ptrtoint ptr %114 to i64
  %sub.ptr.sub.i.i.i.i = sub i64 %sub.ptr.lhs.cast.i.i.i.i, %sub.ptr.rhs.cast.i.i.i.i
  %sub.ptr.div.i.i.i.i = ashr exact i64 %sub.ptr.sub.i.i.i.i, 3
  %cmp.i.i.i1174 = icmp eq ptr %113, %114
  %mul.i.i.i = mul i64 %sub.ptr.div.i.i.i.i, 170
  %sub.i.i.i1175 = add i64 %mul.i.i.i, -1
  %cond.i.i.i1176 = select i1 %cmp.i.i.i1174, i64 0, i64 %sub.i.i.i1175
  %115 = load i64, ptr %__start_.i.i1177, align 8, !tbaa !56
  %116 = load i64, ptr %__size_.i.i.i.i1178, align 8, !tbaa !35
  %117 = add i64 %116, %115
  %cmp.i = icmp eq i64 %cond.i.i.i1176, %117
  br i1 %cmp.i, label %if.then.i1179, label %invoke.cont266

if.then.i1179:                                    ; preds = %if.end261
  invoke void @_ZNSt3__15dequeINS_12basic_stringIcNS_11char_traitsIcEENS_9allocatorIcEEEENS4_IS6_EEE19__add_back_capacityEv(ptr noundef nonnull align 8 dereferenceable(48) %satisfied)
          to label %.noexc1184 unwind label %lpad265

.noexc1184:                                       ; preds = %if.then.i1179
  %.pre.i = load i64, ptr %__size_.i.i.i.i1178, align 8, !tbaa !35
  %.pre10.i = load i64, ptr %__start_.i.i1177, align 8, !tbaa !56
  %.pre11.i = load ptr, ptr %__begin_.i.i.i.i, align 8, !tbaa !55
  %.pre12.i = load ptr, ptr %__end_.i.i.i.i, align 8, !tbaa !54
  %.pre13.i = add i64 %.pre10.i, %.pre.i
  br label %invoke.cont266

invoke.cont266:                                   ; preds = %.noexc1184, %if.end261
  %add.i.pre-phi.i = phi i64 [ %.pre13.i, %.noexc1184 ], [ %117, %if.end261 ]
  %118 = phi ptr [ %.pre12.i, %.noexc1184 ], [ %113, %if.end261 ]
  %119 = phi ptr [ %.pre11.i, %.noexc1184 ], [ %114, %if.end261 ]
  %div.i.i1180 = udiv i64 %add.i.pre-phi.i, 170
  %add.ptr.i.i1181 = getelementptr inbounds ptr, ptr %119, i64 %div.i.i1180
  %cmp.i.i8.i = icmp ne ptr %118, %119
  call void @llvm.assume(i1 %cmp.i.i8.i)
  %120 = load ptr, ptr %add.ptr.i.i1181, align 8, !tbaa !43
  %rem.i.i1182 = urem i64 %add.i.pre-phi.i, 170
  %add.ptr5.i.i = getelementptr inbounds %"class.std::__1::basic_string", ptr %120, i64 %rem.i.i1182
  call void @llvm.memcpy.p0.p0.i64(ptr noundef nonnull align 8 dereferenceable(24) %add.ptr5.i.i, ptr noundef nonnull align 8 dereferenceable(24) %ref.tmp, i64 24, i1 false)
  %121 = load i64, ptr %__size_.i.i.i.i1178, align 8, !tbaa !35
  %inc.i = add i64 %121, 1
  store i64 %inc.i, ptr %__size_.i.i.i.i1178, align 8, !tbaa !35
  call void @llvm.lifetime.end.p0(i64 24, ptr nonnull %ref.tmp) #16
  %add270 = add nuw nsw i32 %i235.03066, 4
  %cmp237 = icmp slt i32 %add270, %close_paren_dex.1
  br i1 %cmp237, label %for.body239, label %for.cond274.preheader, !llvm.loop !57

lpad265:                                          ; preds = %if.then.i1179
  %122 = landingpad { ptr, i32 }
          cleanup
  %bf.load.i.i1192 = load i8, ptr %ref.tmp, align 8
  %bf.clear.i.i1193 = and i8 %bf.load.i.i1192, 1
  %tobool.i.not.i1194 = icmp eq i8 %bf.clear.i.i1193, 0
  br i1 %tobool.i.not.i1194, label %ehcleanup268, label %if.then.i1196

if.then.i1196:                                    ; preds = %lpad265
  %__data_.i.i1195 = getelementptr inbounds %"struct.std::__1::basic_string<char>::__long", ptr %ref.tmp, i64 0, i32 2
  %123 = load ptr, ptr %__data_.i.i1195, align 8, !tbaa !47
  call void @_ZdlPv(ptr noundef %123) #17
  br label %ehcleanup268

ehcleanup268:                                     ; preds = %if.then.i1196, %lpad265
  call void @llvm.lifetime.end.p0(i64 24, ptr nonnull %ref.tmp) #16
  br label %ehcleanup648

for.body279:                                      ; preds = %for.body279.lr.ph, %for.inc442
  %indvars.iv3133 = phi i64 [ 0, %for.body279.lr.ph ], [ %indvars.iv.next3134, %for.inc442 ]
  call void @llvm.lifetime.start.p0(i64 24, ptr nonnull %ref.tmp280) #16
  %124 = load i64, ptr %__start_.i, align 8, !tbaa !38
  %add.i = add i64 %124, %indvars.iv3133
  %125 = load ptr, ptr %__begin_.i.i, align 8, !tbaa !42
  %div.i = udiv i64 %add.i, 39
  %add.ptr.i = getelementptr inbounds ptr, ptr %125, i64 %div.i
  %126 = load ptr, ptr %add.ptr.i, align 8, !tbaa !43
  %rem.i = urem i64 %add.i, 39
  %add.ptr2.i = getelementptr inbounds %"class.PP::Word", ptr %126, i64 %rem.i
  invoke void @_ZNSt3__112basic_stringIcNS_11char_traitsIcEENS_9allocatorIcEEEC1ERKS5_(ptr noundef nonnull align 8 dereferenceable(24) %ref.tmp280, ptr noundef nonnull align 8 dereferenceable(24) %add.ptr2.i)
          to label %invoke.cont285 unwind label %lpad284

invoke.cont285:                                   ; preds = %for.body279
  %bf.load.i.i.i1201 = load i8, ptr %ref.tmp280, align 8
  %bf.clear.i.i.i1202 = and i8 %bf.load.i.i.i1201, 1
  %tobool.i.not.i.i1203 = icmp eq i8 %bf.clear.i.i.i1202, 0
  %127 = load i64, ptr %__size_.i.i.i1204, align 8
  %bf.lshr.i.i.i1205 = lshr i8 %bf.load.i.i.i1201, 1
  %conv.i.i.i1206 = zext i8 %bf.lshr.i.i.i1205 to i64
  %cond.i.i1207 = select i1 %tobool.i.not.i.i1203, i64 %conv.i.i.i1206, i64 %127
  %cmp2.not.i1208 = icmp eq i64 %cond.i.i1207, 6
  br i1 %cmp2.not.i1208, label %_ZNSt3__111char_traitsIcE7compareEPKcS3_m.exit.i.i1217, label %_ZNSt3__1eqB7v170000IcNS_11char_traitsIcEENS_9allocatorIcEEEEbRKNS_12basic_stringIT_T0_T1_EEPKS6_.exit1224

_ZNSt3__111char_traitsIcE7compareEPKcS3_m.exit.i.i1217: ; preds = %invoke.cont285
  %128 = load ptr, ptr %__data_.i.i.i.i.i1213, align 8
  %cond.i.i.i.i1214 = select i1 %tobool.i.not.i.i1203, ptr %__data_.i4.i.i.i.i1212, ptr %128
  %bcmp3107 = call i32 @bcmp(ptr noundef nonnull dereferenceable(6) %cond.i.i.i.i1214, ptr noundef nonnull dereferenceable(6) @.str.34, i64 6)
  %cmp4.i1220 = icmp eq i32 %bcmp3107, 0
  br label %_ZNSt3__1eqB7v170000IcNS_11char_traitsIcEENS_9allocatorIcEEEEbRKNS_12basic_stringIT_T0_T1_EEPKS6_.exit1224

_ZNSt3__1eqB7v170000IcNS_11char_traitsIcEENS_9allocatorIcEEEEbRKNS_12basic_stringIT_T0_T1_EEPKS6_.exit1224: ; preds = %invoke.cont285, %_ZNSt3__111char_traitsIcE7compareEPKcS3_m.exit.i.i1217
  %retval.0.i1222 = phi i1 [ %cmp4.i1220, %_ZNSt3__111char_traitsIcE7compareEPKcS3_m.exit.i.i1217 ], [ false, %invoke.cont285 ]
  br i1 %tobool.i.not.i.i1203, label %_ZNSt3__112basic_stringIcNS_11char_traitsIcEENS_9allocatorIcEEED2Ev.exit1231, label %if.then.i1229

if.then.i1229:                                    ; preds = %_ZNSt3__1eqB7v170000IcNS_11char_traitsIcEENS_9allocatorIcEEEEbRKNS_12basic_stringIT_T0_T1_EEPKS6_.exit1224
  %129 = load ptr, ptr %__data_.i.i.i.i.i1213, align 8, !tbaa !47
  call void @_ZdlPv(ptr noundef %129) #17
  br label %_ZNSt3__112basic_stringIcNS_11char_traitsIcEENS_9allocatorIcEEED2Ev.exit1231

_ZNSt3__112basic_stringIcNS_11char_traitsIcEENS_9allocatorIcEEED2Ev.exit1231: ; preds = %_ZNSt3__1eqB7v170000IcNS_11char_traitsIcEENS_9allocatorIcEEEEbRKNS_12basic_stringIT_T0_T1_EEPKS6_.exit1224, %if.then.i1229
  call void @llvm.lifetime.end.p0(i64 24, ptr nonnull %ref.tmp280) #16
  call void @llvm.lifetime.start.p0(i64 24, ptr nonnull %ref.tmp290) #16
  %130 = load i64, ptr %__start_.i, align 8, !tbaa !38
  %add.i1233 = add i64 %130, %indvars.iv3133
  %131 = load ptr, ptr %__begin_.i.i, align 8, !tbaa !42
  %div.i1235 = udiv i64 %add.i1233, 39
  %add.ptr.i1236 = getelementptr inbounds ptr, ptr %131, i64 %div.i1235
  %132 = load ptr, ptr %add.ptr.i1236, align 8, !tbaa !43
  %rem.i1237 = urem i64 %add.i1233, 39
  %add.ptr2.i1238 = getelementptr inbounds %"class.PP::Word", ptr %132, i64 %rem.i1237
  invoke void @_ZNSt3__112basic_stringIcNS_11char_traitsIcEENS_9allocatorIcEEEC1ERKS5_(ptr noundef nonnull align 8 dereferenceable(24) %ref.tmp290, ptr noundef nonnull align 8 dereferenceable(24) %add.ptr2.i1238)
          to label %invoke.cont295 unwind label %lpad294

lpad284:                                          ; preds = %for.body279
  %133 = landingpad { ptr, i32 }
          cleanup
  call void @llvm.lifetime.end.p0(i64 24, ptr nonnull %ref.tmp280) #16
  br label %ehcleanup648

invoke.cont295:                                   ; preds = %_ZNSt3__112basic_stringIcNS_11char_traitsIcEENS_9allocatorIcEEED2Ev.exit1231
  %bf.load.i.i.i1242 = load i8, ptr %ref.tmp290, align 8
  %bf.clear.i.i.i1243 = and i8 %bf.load.i.i.i1242, 1
  %tobool.i.not.i.i1244 = icmp eq i8 %bf.clear.i.i.i1243, 0
  %134 = load i64, ptr %__size_.i.i.i1245, align 8
  %bf.lshr.i.i.i1246 = lshr i8 %bf.load.i.i.i1242, 1
  %conv.i.i.i1247 = zext i8 %bf.lshr.i.i.i1246 to i64
  %cond.i.i1248 = select i1 %tobool.i.not.i.i1244, i64 %conv.i.i.i1247, i64 %134
  %cmp2.not.i1249 = icmp eq i64 %cond.i.i1248, 6
  br i1 %cmp2.not.i1249, label %_ZNSt3__111char_traitsIcE7compareEPKcS3_m.exit.i.i1258, label %_ZNSt3__1eqB7v170000IcNS_11char_traitsIcEENS_9allocatorIcEEEEbRKNS_12basic_stringIT_T0_T1_EEPKS6_.exit1265

_ZNSt3__111char_traitsIcE7compareEPKcS3_m.exit.i.i1258: ; preds = %invoke.cont295
  %135 = load ptr, ptr %__data_.i.i.i.i.i1254, align 8
  %cond.i.i.i.i1255 = select i1 %tobool.i.not.i.i1244, ptr %__data_.i4.i.i.i.i1253, ptr %135
  %bcmp3106 = call i32 @bcmp(ptr noundef nonnull dereferenceable(6) %cond.i.i.i.i1255, ptr noundef nonnull dereferenceable(6) @.str.35, i64 6)
  %cmp4.i1261 = icmp eq i32 %bcmp3106, 0
  br label %_ZNSt3__1eqB7v170000IcNS_11char_traitsIcEENS_9allocatorIcEEEEbRKNS_12basic_stringIT_T0_T1_EEPKS6_.exit1265

_ZNSt3__1eqB7v170000IcNS_11char_traitsIcEENS_9allocatorIcEEEEbRKNS_12basic_stringIT_T0_T1_EEPKS6_.exit1265: ; preds = %invoke.cont295, %_ZNSt3__111char_traitsIcE7compareEPKcS3_m.exit.i.i1258
  %retval.0.i1263 = phi i1 [ %cmp4.i1261, %_ZNSt3__111char_traitsIcE7compareEPKcS3_m.exit.i.i1258 ], [ false, %invoke.cont295 ]
  br i1 %tobool.i.not.i.i1244, label %_ZNSt3__112basic_stringIcNS_11char_traitsIcEENS_9allocatorIcEEED2Ev.exit1272, label %if.then.i1270

if.then.i1270:                                    ; preds = %_ZNSt3__1eqB7v170000IcNS_11char_traitsIcEENS_9allocatorIcEEEEbRKNS_12basic_stringIT_T0_T1_EEPKS6_.exit1265
  %136 = load ptr, ptr %__data_.i.i.i.i.i1254, align 8, !tbaa !47
  call void @_ZdlPv(ptr noundef %136) #17
  br label %_ZNSt3__112basic_stringIcNS_11char_traitsIcEENS_9allocatorIcEEED2Ev.exit1272

_ZNSt3__112basic_stringIcNS_11char_traitsIcEENS_9allocatorIcEEED2Ev.exit1272: ; preds = %_ZNSt3__1eqB7v170000IcNS_11char_traitsIcEENS_9allocatorIcEEEEbRKNS_12basic_stringIT_T0_T1_EEPKS6_.exit1265, %if.then.i1270
  call void @llvm.lifetime.end.p0(i64 24, ptr nonnull %ref.tmp290) #16
  call void @llvm.lifetime.start.p0(i64 24, ptr nonnull %ref.tmp300) #16
  %137 = load i64, ptr %__start_.i, align 8, !tbaa !38
  %add.i1274 = add i64 %137, %indvars.iv3133
  %138 = load ptr, ptr %__begin_.i.i, align 8, !tbaa !42
  %div.i1276 = udiv i64 %add.i1274, 39
  %add.ptr.i1277 = getelementptr inbounds ptr, ptr %138, i64 %div.i1276
  %139 = load ptr, ptr %add.ptr.i1277, align 8, !tbaa !43
  %rem.i1278 = urem i64 %add.i1274, 39
  %add.ptr2.i1279 = getelementptr inbounds %"class.PP::Word", ptr %139, i64 %rem.i1278
  invoke void @_ZNSt3__112basic_stringIcNS_11char_traitsIcEENS_9allocatorIcEEEC1ERKS5_(ptr noundef nonnull align 8 dereferenceable(24) %ref.tmp300, ptr noundef nonnull align 8 dereferenceable(24) %add.ptr2.i1279)
          to label %invoke.cont305 unwind label %lpad304

lpad294:                                          ; preds = %_ZNSt3__112basic_stringIcNS_11char_traitsIcEENS_9allocatorIcEEED2Ev.exit1231
  %140 = landingpad { ptr, i32 }
          cleanup
  call void @llvm.lifetime.end.p0(i64 24, ptr nonnull %ref.tmp290) #16
  br label %ehcleanup648

invoke.cont305:                                   ; preds = %_ZNSt3__112basic_stringIcNS_11char_traitsIcEENS_9allocatorIcEEED2Ev.exit1272
  %bf.load.i.i.i1283 = load i8, ptr %ref.tmp300, align 8
  %bf.clear.i.i.i1284 = and i8 %bf.load.i.i.i1283, 1
  %tobool.i.not.i.i1285 = icmp eq i8 %bf.clear.i.i.i1284, 0
  %141 = load i64, ptr %__size_.i.i.i1286, align 8
  %bf.lshr.i.i.i1287 = lshr i8 %bf.load.i.i.i1283, 1
  %conv.i.i.i1288 = zext i8 %bf.lshr.i.i.i1287 to i64
  %cond.i.i1289 = select i1 %tobool.i.not.i.i1285, i64 %conv.i.i.i1288, i64 %141
  %cmp2.not.i1290 = icmp eq i64 %cond.i.i1289, 6
  br i1 %cmp2.not.i1290, label %_ZNSt3__111char_traitsIcE7compareEPKcS3_m.exit.i.i1299, label %_ZNSt3__1eqB7v170000IcNS_11char_traitsIcEENS_9allocatorIcEEEEbRKNS_12basic_stringIT_T0_T1_EEPKS6_.exit1306

_ZNSt3__111char_traitsIcE7compareEPKcS3_m.exit.i.i1299: ; preds = %invoke.cont305
  %142 = load ptr, ptr %__data_.i.i.i.i.i1295, align 8
  %cond.i.i.i.i1296 = select i1 %tobool.i.not.i.i1285, ptr %__data_.i4.i.i.i.i1294, ptr %142
  %bcmp3105 = call i32 @bcmp(ptr noundef nonnull dereferenceable(6) %cond.i.i.i.i1296, ptr noundef nonnull dereferenceable(6) @.str.36, i64 6)
  %cmp4.i1302 = icmp eq i32 %bcmp3105, 0
  br label %_ZNSt3__1eqB7v170000IcNS_11char_traitsIcEENS_9allocatorIcEEEEbRKNS_12basic_stringIT_T0_T1_EEPKS6_.exit1306

_ZNSt3__1eqB7v170000IcNS_11char_traitsIcEENS_9allocatorIcEEEEbRKNS_12basic_stringIT_T0_T1_EEPKS6_.exit1306: ; preds = %invoke.cont305, %_ZNSt3__111char_traitsIcE7compareEPKcS3_m.exit.i.i1299
  %retval.0.i1304 = phi i1 [ %cmp4.i1302, %_ZNSt3__111char_traitsIcE7compareEPKcS3_m.exit.i.i1299 ], [ false, %invoke.cont305 ]
  br i1 %tobool.i.not.i.i1285, label %_ZNSt3__112basic_stringIcNS_11char_traitsIcEENS_9allocatorIcEEED2Ev.exit1313, label %if.then.i1311

if.then.i1311:                                    ; preds = %_ZNSt3__1eqB7v170000IcNS_11char_traitsIcEENS_9allocatorIcEEEEbRKNS_12basic_stringIT_T0_T1_EEPKS6_.exit1306
  %143 = load ptr, ptr %__data_.i.i.i.i.i1295, align 8, !tbaa !47
  call void @_ZdlPv(ptr noundef %143) #17
  br label %_ZNSt3__112basic_stringIcNS_11char_traitsIcEENS_9allocatorIcEEED2Ev.exit1313

_ZNSt3__112basic_stringIcNS_11char_traitsIcEENS_9allocatorIcEEED2Ev.exit1313: ; preds = %_ZNSt3__1eqB7v170000IcNS_11char_traitsIcEENS_9allocatorIcEEEEbRKNS_12basic_stringIT_T0_T1_EEPKS6_.exit1306, %if.then.i1311
  call void @llvm.lifetime.end.p0(i64 24, ptr nonnull %ref.tmp300) #16
  call void @llvm.lifetime.start.p0(i64 24, ptr nonnull %ref.tmp310) #16
  %144 = load i64, ptr %__start_.i, align 8, !tbaa !38
  %add.i1315 = add i64 %144, %indvars.iv3133
  %145 = load ptr, ptr %__begin_.i.i, align 8, !tbaa !42
  %div.i1317 = udiv i64 %add.i1315, 39
  %add.ptr.i1318 = getelementptr inbounds ptr, ptr %145, i64 %div.i1317
  %146 = load ptr, ptr %add.ptr.i1318, align 8, !tbaa !43
  %rem.i1319 = urem i64 %add.i1315, 39
  %add.ptr2.i1320 = getelementptr inbounds %"class.PP::Word", ptr %146, i64 %rem.i1319
  invoke void @_ZNSt3__112basic_stringIcNS_11char_traitsIcEENS_9allocatorIcEEEC1ERKS5_(ptr noundef nonnull align 8 dereferenceable(24) %ref.tmp310, ptr noundef nonnull align 8 dereferenceable(24) %add.ptr2.i1320)
          to label %invoke.cont315 unwind label %lpad314

lpad304:                                          ; preds = %_ZNSt3__112basic_stringIcNS_11char_traitsIcEENS_9allocatorIcEEED2Ev.exit1272
  %147 = landingpad { ptr, i32 }
          cleanup
  call void @llvm.lifetime.end.p0(i64 24, ptr nonnull %ref.tmp300) #16
  br label %ehcleanup648

invoke.cont315:                                   ; preds = %_ZNSt3__112basic_stringIcNS_11char_traitsIcEENS_9allocatorIcEEED2Ev.exit1313
  %bf.load.i.i.i1324 = load i8, ptr %ref.tmp310, align 8
  %bf.clear.i.i.i1325 = and i8 %bf.load.i.i.i1324, 1
  %tobool.i.not.i.i1326 = icmp eq i8 %bf.clear.i.i.i1325, 0
  %148 = load i64, ptr %__size_.i.i.i1327, align 8
  %bf.lshr.i.i.i1328 = lshr i8 %bf.load.i.i.i1324, 1
  %conv.i.i.i1329 = zext i8 %bf.lshr.i.i.i1328 to i64
  %cond.i.i1330 = select i1 %tobool.i.not.i.i1326, i64 %conv.i.i.i1329, i64 %148
  %cmp2.not.i1331 = icmp eq i64 %cond.i.i1330, 6
  br i1 %cmp2.not.i1331, label %_ZNSt3__111char_traitsIcE7compareEPKcS3_m.exit.i.i1340, label %_ZNSt3__1eqB7v170000IcNS_11char_traitsIcEENS_9allocatorIcEEEEbRKNS_12basic_stringIT_T0_T1_EEPKS6_.exit1347

_ZNSt3__111char_traitsIcE7compareEPKcS3_m.exit.i.i1340: ; preds = %invoke.cont315
  %149 = load ptr, ptr %__data_.i.i.i.i.i1336, align 8
  %cond.i.i.i.i1337 = select i1 %tobool.i.not.i.i1326, ptr %__data_.i4.i.i.i.i1335, ptr %149
  %bcmp3104 = call i32 @bcmp(ptr noundef nonnull dereferenceable(6) %cond.i.i.i.i1337, ptr noundef nonnull dereferenceable(6) @.str.37, i64 6)
  %cmp4.i1343 = icmp eq i32 %bcmp3104, 0
  br label %_ZNSt3__1eqB7v170000IcNS_11char_traitsIcEENS_9allocatorIcEEEEbRKNS_12basic_stringIT_T0_T1_EEPKS6_.exit1347

_ZNSt3__1eqB7v170000IcNS_11char_traitsIcEENS_9allocatorIcEEEEbRKNS_12basic_stringIT_T0_T1_EEPKS6_.exit1347: ; preds = %invoke.cont315, %_ZNSt3__111char_traitsIcE7compareEPKcS3_m.exit.i.i1340
  %retval.0.i1345 = phi i1 [ %cmp4.i1343, %_ZNSt3__111char_traitsIcE7compareEPKcS3_m.exit.i.i1340 ], [ false, %invoke.cont315 ]
  br i1 %tobool.i.not.i.i1326, label %_ZNSt3__112basic_stringIcNS_11char_traitsIcEENS_9allocatorIcEEED2Ev.exit1354, label %if.then.i1352

if.then.i1352:                                    ; preds = %_ZNSt3__1eqB7v170000IcNS_11char_traitsIcEENS_9allocatorIcEEEEbRKNS_12basic_stringIT_T0_T1_EEPKS6_.exit1347
  %150 = load ptr, ptr %__data_.i.i.i.i.i1336, align 8, !tbaa !47
  call void @_ZdlPv(ptr noundef %150) #17
  br label %_ZNSt3__112basic_stringIcNS_11char_traitsIcEENS_9allocatorIcEEED2Ev.exit1354

_ZNSt3__112basic_stringIcNS_11char_traitsIcEENS_9allocatorIcEEED2Ev.exit1354: ; preds = %_ZNSt3__1eqB7v170000IcNS_11char_traitsIcEENS_9allocatorIcEEEEbRKNS_12basic_stringIT_T0_T1_EEPKS6_.exit1347, %if.then.i1352
  call void @llvm.lifetime.end.p0(i64 24, ptr nonnull %ref.tmp310) #16
  call void @llvm.lifetime.start.p0(i64 24, ptr nonnull %ref.tmp320) #16
  %151 = load i64, ptr %__start_.i, align 8, !tbaa !38
  %add.i1356 = add i64 %151, %indvars.iv3133
  %152 = load ptr, ptr %__begin_.i.i, align 8, !tbaa !42
  %div.i1358 = udiv i64 %add.i1356, 39
  %add.ptr.i1359 = getelementptr inbounds ptr, ptr %152, i64 %div.i1358
  %153 = load ptr, ptr %add.ptr.i1359, align 8, !tbaa !43
  %rem.i1360 = urem i64 %add.i1356, 39
  %add.ptr2.i1361 = getelementptr inbounds %"class.PP::Word", ptr %153, i64 %rem.i1360
  invoke void @_ZNSt3__112basic_stringIcNS_11char_traitsIcEENS_9allocatorIcEEEC1ERKS5_(ptr noundef nonnull align 8 dereferenceable(24) %ref.tmp320, ptr noundef nonnull align 8 dereferenceable(24) %add.ptr2.i1361)
          to label %invoke.cont325 unwind label %lpad324

lpad314:                                          ; preds = %_ZNSt3__112basic_stringIcNS_11char_traitsIcEENS_9allocatorIcEEED2Ev.exit1313
  %154 = landingpad { ptr, i32 }
          cleanup
  call void @llvm.lifetime.end.p0(i64 24, ptr nonnull %ref.tmp310) #16
  br label %ehcleanup648

invoke.cont325:                                   ; preds = %_ZNSt3__112basic_stringIcNS_11char_traitsIcEENS_9allocatorIcEEED2Ev.exit1354
  %bf.load.i.i.i1365 = load i8, ptr %ref.tmp320, align 8
  %bf.clear.i.i.i1366 = and i8 %bf.load.i.i.i1365, 1
  %tobool.i.not.i.i1367 = icmp eq i8 %bf.clear.i.i.i1366, 0
  %155 = load i64, ptr %__size_.i.i.i1368, align 8
  %bf.lshr.i.i.i1369 = lshr i8 %bf.load.i.i.i1365, 1
  %conv.i.i.i1370 = zext i8 %bf.lshr.i.i.i1369 to i64
  %cond.i.i1371 = select i1 %tobool.i.not.i.i1367, i64 %conv.i.i.i1370, i64 %155
  %cmp2.not.i1372 = icmp eq i64 %cond.i.i1371, 6
  br i1 %cmp2.not.i1372, label %_ZNSt3__111char_traitsIcE7compareEPKcS3_m.exit.i.i1381, label %_ZNSt3__1eqB7v170000IcNS_11char_traitsIcEENS_9allocatorIcEEEEbRKNS_12basic_stringIT_T0_T1_EEPKS6_.exit1388

_ZNSt3__111char_traitsIcE7compareEPKcS3_m.exit.i.i1381: ; preds = %invoke.cont325
  %156 = load ptr, ptr %__data_.i.i.i.i.i1377, align 8
  %cond.i.i.i.i1378 = select i1 %tobool.i.not.i.i1367, ptr %__data_.i4.i.i.i.i1376, ptr %156
  %bcmp3103 = call i32 @bcmp(ptr noundef nonnull dereferenceable(6) %cond.i.i.i.i1378, ptr noundef nonnull dereferenceable(6) @.str.38, i64 6)
  %cmp4.i1384 = icmp eq i32 %bcmp3103, 0
  br label %_ZNSt3__1eqB7v170000IcNS_11char_traitsIcEENS_9allocatorIcEEEEbRKNS_12basic_stringIT_T0_T1_EEPKS6_.exit1388

_ZNSt3__1eqB7v170000IcNS_11char_traitsIcEENS_9allocatorIcEEEEbRKNS_12basic_stringIT_T0_T1_EEPKS6_.exit1388: ; preds = %invoke.cont325, %_ZNSt3__111char_traitsIcE7compareEPKcS3_m.exit.i.i1381
  %retval.0.i1386 = phi i1 [ %cmp4.i1384, %_ZNSt3__111char_traitsIcE7compareEPKcS3_m.exit.i.i1381 ], [ false, %invoke.cont325 ]
  br i1 %tobool.i.not.i.i1367, label %_ZNSt3__112basic_stringIcNS_11char_traitsIcEENS_9allocatorIcEEED2Ev.exit1395, label %if.then.i1393

if.then.i1393:                                    ; preds = %_ZNSt3__1eqB7v170000IcNS_11char_traitsIcEENS_9allocatorIcEEEEbRKNS_12basic_stringIT_T0_T1_EEPKS6_.exit1388
  %157 = load ptr, ptr %__data_.i.i.i.i.i1377, align 8, !tbaa !47
  call void @_ZdlPv(ptr noundef %157) #17
  br label %_ZNSt3__112basic_stringIcNS_11char_traitsIcEENS_9allocatorIcEEED2Ev.exit1395

_ZNSt3__112basic_stringIcNS_11char_traitsIcEENS_9allocatorIcEEED2Ev.exit1395: ; preds = %_ZNSt3__1eqB7v170000IcNS_11char_traitsIcEENS_9allocatorIcEEEEbRKNS_12basic_stringIT_T0_T1_EEPKS6_.exit1388, %if.then.i1393
  call void @llvm.lifetime.end.p0(i64 24, ptr nonnull %ref.tmp320) #16
  call void @llvm.lifetime.start.p0(i64 24, ptr nonnull %ref.tmp330) #16
  %158 = load i64, ptr %__start_.i, align 8, !tbaa !38
  %add.i1397 = add i64 %158, %indvars.iv3133
  %159 = load ptr, ptr %__begin_.i.i, align 8, !tbaa !42
  %div.i1399 = udiv i64 %add.i1397, 39
  %add.ptr.i1400 = getelementptr inbounds ptr, ptr %159, i64 %div.i1399
  %160 = load ptr, ptr %add.ptr.i1400, align 8, !tbaa !43
  %rem.i1401 = urem i64 %add.i1397, 39
  %add.ptr2.i1402 = getelementptr inbounds %"class.PP::Word", ptr %160, i64 %rem.i1401
  invoke void @_ZNSt3__112basic_stringIcNS_11char_traitsIcEENS_9allocatorIcEEEC1ERKS5_(ptr noundef nonnull align 8 dereferenceable(24) %ref.tmp330, ptr noundef nonnull align 8 dereferenceable(24) %add.ptr2.i1402)
          to label %invoke.cont335 unwind label %lpad334

lpad324:                                          ; preds = %_ZNSt3__112basic_stringIcNS_11char_traitsIcEENS_9allocatorIcEEED2Ev.exit1354
  %161 = landingpad { ptr, i32 }
          cleanup
  call void @llvm.lifetime.end.p0(i64 24, ptr nonnull %ref.tmp320) #16
  br label %ehcleanup648

invoke.cont335:                                   ; preds = %_ZNSt3__112basic_stringIcNS_11char_traitsIcEENS_9allocatorIcEEED2Ev.exit1395
  %bf.load.i.i.i1406 = load i8, ptr %ref.tmp330, align 8
  %bf.clear.i.i.i1407 = and i8 %bf.load.i.i.i1406, 1
  %tobool.i.not.i.i1408 = icmp eq i8 %bf.clear.i.i.i1407, 0
  %162 = load i64, ptr %__size_.i.i.i1409, align 8
  %bf.lshr.i.i.i1410 = lshr i8 %bf.load.i.i.i1406, 1
  %conv.i.i.i1411 = zext i8 %bf.lshr.i.i.i1410 to i64
  %cond.i.i1412 = select i1 %tobool.i.not.i.i1408, i64 %conv.i.i.i1411, i64 %162
  %cmp2.not.i1413 = icmp eq i64 %cond.i.i1412, 6
  br i1 %cmp2.not.i1413, label %_ZNSt3__111char_traitsIcE7compareEPKcS3_m.exit.i.i1422, label %_ZNSt3__1eqB7v170000IcNS_11char_traitsIcEENS_9allocatorIcEEEEbRKNS_12basic_stringIT_T0_T1_EEPKS6_.exit1429

_ZNSt3__111char_traitsIcE7compareEPKcS3_m.exit.i.i1422: ; preds = %invoke.cont335
  %163 = load ptr, ptr %__data_.i.i.i.i.i1418, align 8
  %cond.i.i.i.i1419 = select i1 %tobool.i.not.i.i1408, ptr %__data_.i4.i.i.i.i1417, ptr %163
  %bcmp3102 = call i32 @bcmp(ptr noundef nonnull dereferenceable(6) %cond.i.i.i.i1419, ptr noundef nonnull dereferenceable(6) @.str.39, i64 6)
  %cmp4.i1425 = icmp eq i32 %bcmp3102, 0
  br label %_ZNSt3__1eqB7v170000IcNS_11char_traitsIcEENS_9allocatorIcEEEEbRKNS_12basic_stringIT_T0_T1_EEPKS6_.exit1429

_ZNSt3__1eqB7v170000IcNS_11char_traitsIcEENS_9allocatorIcEEEEbRKNS_12basic_stringIT_T0_T1_EEPKS6_.exit1429: ; preds = %invoke.cont335, %_ZNSt3__111char_traitsIcE7compareEPKcS3_m.exit.i.i1422
  %retval.0.i1427 = phi i1 [ %cmp4.i1425, %_ZNSt3__111char_traitsIcE7compareEPKcS3_m.exit.i.i1422 ], [ false, %invoke.cont335 ]
  br i1 %tobool.i.not.i.i1408, label %_ZNSt3__112basic_stringIcNS_11char_traitsIcEENS_9allocatorIcEEED2Ev.exit1436, label %if.then.i1434

if.then.i1434:                                    ; preds = %_ZNSt3__1eqB7v170000IcNS_11char_traitsIcEENS_9allocatorIcEEEEbRKNS_12basic_stringIT_T0_T1_EEPKS6_.exit1429
  %164 = load ptr, ptr %__data_.i.i.i.i.i1418, align 8, !tbaa !47
  call void @_ZdlPv(ptr noundef %164) #17
  br label %_ZNSt3__112basic_stringIcNS_11char_traitsIcEENS_9allocatorIcEEED2Ev.exit1436

_ZNSt3__112basic_stringIcNS_11char_traitsIcEENS_9allocatorIcEEED2Ev.exit1436: ; preds = %_ZNSt3__1eqB7v170000IcNS_11char_traitsIcEENS_9allocatorIcEEEEbRKNS_12basic_stringIT_T0_T1_EEPKS6_.exit1429, %if.then.i1434
  call void @llvm.lifetime.end.p0(i64 24, ptr nonnull %ref.tmp330) #16
  call void @llvm.lifetime.start.p0(i64 24, ptr nonnull %ref.tmp340) #16
  %165 = load i64, ptr %__start_.i, align 8, !tbaa !38
  %add.i1438 = add i64 %165, %indvars.iv3133
  %166 = load ptr, ptr %__begin_.i.i, align 8, !tbaa !42
  %div.i1440 = udiv i64 %add.i1438, 39
  %add.ptr.i1441 = getelementptr inbounds ptr, ptr %166, i64 %div.i1440
  %167 = load ptr, ptr %add.ptr.i1441, align 8, !tbaa !43
  %rem.i1442 = urem i64 %add.i1438, 39
  %add.ptr2.i1443 = getelementptr inbounds %"class.PP::Word", ptr %167, i64 %rem.i1442
  invoke void @_ZNSt3__112basic_stringIcNS_11char_traitsIcEENS_9allocatorIcEEEC1ERKS5_(ptr noundef nonnull align 8 dereferenceable(24) %ref.tmp340, ptr noundef nonnull align 8 dereferenceable(24) %add.ptr2.i1443)
          to label %invoke.cont345 unwind label %lpad344

lpad334:                                          ; preds = %_ZNSt3__112basic_stringIcNS_11char_traitsIcEENS_9allocatorIcEEED2Ev.exit1395
  %168 = landingpad { ptr, i32 }
          cleanup
  call void @llvm.lifetime.end.p0(i64 24, ptr nonnull %ref.tmp330) #16
  br label %ehcleanup648

invoke.cont345:                                   ; preds = %_ZNSt3__112basic_stringIcNS_11char_traitsIcEENS_9allocatorIcEEED2Ev.exit1436
  %bf.load.i.i.i1447 = load i8, ptr %ref.tmp340, align 8
  %bf.clear.i.i.i1448 = and i8 %bf.load.i.i.i1447, 1
  %tobool.i.not.i.i1449 = icmp eq i8 %bf.clear.i.i.i1448, 0
  %169 = load i64, ptr %__size_.i.i.i1450, align 8
  %bf.lshr.i.i.i1451 = lshr i8 %bf.load.i.i.i1447, 1
  %conv.i.i.i1452 = zext i8 %bf.lshr.i.i.i1451 to i64
  %cond.i.i1453 = select i1 %tobool.i.not.i.i1449, i64 %conv.i.i.i1452, i64 %169
  %cmp2.not.i1454 = icmp eq i64 %cond.i.i1453, 4
  br i1 %cmp2.not.i1454, label %_ZNSt3__111char_traitsIcE7compareEPKcS3_m.exit.i.i1463, label %_ZNSt3__1eqB7v170000IcNS_11char_traitsIcEENS_9allocatorIcEEEEbRKNS_12basic_stringIT_T0_T1_EEPKS6_.exit1470

_ZNSt3__111char_traitsIcE7compareEPKcS3_m.exit.i.i1463: ; preds = %invoke.cont345
  %170 = load ptr, ptr %__data_.i.i.i.i.i1459, align 8
  %cond.i.i.i.i1460 = select i1 %tobool.i.not.i.i1449, ptr %__data_.i4.i.i.i.i1458, ptr %170
  %bcmp3101 = call i32 @bcmp(ptr noundef nonnull dereferenceable(4) %cond.i.i.i.i1460, ptr noundef nonnull dereferenceable(4) @.str.40, i64 4)
  %cmp4.i1466 = icmp eq i32 %bcmp3101, 0
  br label %_ZNSt3__1eqB7v170000IcNS_11char_traitsIcEENS_9allocatorIcEEEEbRKNS_12basic_stringIT_T0_T1_EEPKS6_.exit1470

_ZNSt3__1eqB7v170000IcNS_11char_traitsIcEENS_9allocatorIcEEEEbRKNS_12basic_stringIT_T0_T1_EEPKS6_.exit1470: ; preds = %invoke.cont345, %_ZNSt3__111char_traitsIcE7compareEPKcS3_m.exit.i.i1463
  %retval.0.i1468 = phi i1 [ %cmp4.i1466, %_ZNSt3__111char_traitsIcE7compareEPKcS3_m.exit.i.i1463 ], [ false, %invoke.cont345 ]
  br i1 %tobool.i.not.i.i1449, label %_ZNSt3__112basic_stringIcNS_11char_traitsIcEENS_9allocatorIcEEED2Ev.exit1477, label %if.then.i1475

if.then.i1475:                                    ; preds = %_ZNSt3__1eqB7v170000IcNS_11char_traitsIcEENS_9allocatorIcEEEEbRKNS_12basic_stringIT_T0_T1_EEPKS6_.exit1470
  %171 = load ptr, ptr %__data_.i.i.i.i.i1459, align 8, !tbaa !47
  call void @_ZdlPv(ptr noundef %171) #17
  br label %_ZNSt3__112basic_stringIcNS_11char_traitsIcEENS_9allocatorIcEEED2Ev.exit1477

_ZNSt3__112basic_stringIcNS_11char_traitsIcEENS_9allocatorIcEEED2Ev.exit1477: ; preds = %_ZNSt3__1eqB7v170000IcNS_11char_traitsIcEENS_9allocatorIcEEEEbRKNS_12basic_stringIT_T0_T1_EEPKS6_.exit1470, %if.then.i1475
  call void @llvm.lifetime.end.p0(i64 24, ptr nonnull %ref.tmp340) #16
  call void @llvm.lifetime.start.p0(i64 24, ptr nonnull %ref.tmp350) #16
  %172 = load i64, ptr %__start_.i, align 8, !tbaa !38
  %add.i1479 = add i64 %172, %indvars.iv3133
  %173 = load ptr, ptr %__begin_.i.i, align 8, !tbaa !42
  %div.i1481 = udiv i64 %add.i1479, 39
  %add.ptr.i1482 = getelementptr inbounds ptr, ptr %173, i64 %div.i1481
  %174 = load ptr, ptr %add.ptr.i1482, align 8, !tbaa !43
  %rem.i1483 = urem i64 %add.i1479, 39
  %add.ptr2.i1484 = getelementptr inbounds %"class.PP::Word", ptr %174, i64 %rem.i1483
  invoke void @_ZNSt3__112basic_stringIcNS_11char_traitsIcEENS_9allocatorIcEEEC1ERKS5_(ptr noundef nonnull align 8 dereferenceable(24) %ref.tmp350, ptr noundef nonnull align 8 dereferenceable(24) %add.ptr2.i1484)
          to label %invoke.cont355 unwind label %lpad354

lpad344:                                          ; preds = %_ZNSt3__112basic_stringIcNS_11char_traitsIcEENS_9allocatorIcEEED2Ev.exit1436
  %175 = landingpad { ptr, i32 }
          cleanup
  call void @llvm.lifetime.end.p0(i64 24, ptr nonnull %ref.tmp340) #16
  br label %ehcleanup648

invoke.cont355:                                   ; preds = %_ZNSt3__112basic_stringIcNS_11char_traitsIcEENS_9allocatorIcEEED2Ev.exit1477
  %bf.load.i.i.i1488 = load i8, ptr %ref.tmp350, align 8
  %bf.clear.i.i.i1489 = and i8 %bf.load.i.i.i1488, 1
  %tobool.i.not.i.i1490 = icmp eq i8 %bf.clear.i.i.i1489, 0
  %176 = load i64, ptr %__size_.i.i.i1491, align 8
  %bf.lshr.i.i.i1492 = lshr i8 %bf.load.i.i.i1488, 1
  %conv.i.i.i1493 = zext i8 %bf.lshr.i.i.i1492 to i64
  %cond.i.i1494 = select i1 %tobool.i.not.i.i1490, i64 %conv.i.i.i1493, i64 %176
  %cmp2.not.i1495 = icmp eq i64 %cond.i.i1494, 4
  br i1 %cmp2.not.i1495, label %_ZNSt3__111char_traitsIcE7compareEPKcS3_m.exit.i.i1504, label %_ZNSt3__1eqB7v170000IcNS_11char_traitsIcEENS_9allocatorIcEEEEbRKNS_12basic_stringIT_T0_T1_EEPKS6_.exit1511

_ZNSt3__111char_traitsIcE7compareEPKcS3_m.exit.i.i1504: ; preds = %invoke.cont355
  %177 = load ptr, ptr %__data_.i.i.i.i.i1500, align 8
  %cond.i.i.i.i1501 = select i1 %tobool.i.not.i.i1490, ptr %__data_.i4.i.i.i.i1499, ptr %177
  %bcmp3100 = call i32 @bcmp(ptr noundef nonnull dereferenceable(4) %cond.i.i.i.i1501, ptr noundef nonnull dereferenceable(4) @.str.41, i64 4)
  %cmp4.i1507 = icmp eq i32 %bcmp3100, 0
  br label %_ZNSt3__1eqB7v170000IcNS_11char_traitsIcEENS_9allocatorIcEEEEbRKNS_12basic_stringIT_T0_T1_EEPKS6_.exit1511

_ZNSt3__1eqB7v170000IcNS_11char_traitsIcEENS_9allocatorIcEEEEbRKNS_12basic_stringIT_T0_T1_EEPKS6_.exit1511: ; preds = %invoke.cont355, %_ZNSt3__111char_traitsIcE7compareEPKcS3_m.exit.i.i1504
  %retval.0.i1509 = phi i1 [ %cmp4.i1507, %_ZNSt3__111char_traitsIcE7compareEPKcS3_m.exit.i.i1504 ], [ false, %invoke.cont355 ]
  br i1 %tobool.i.not.i.i1490, label %_ZNSt3__112basic_stringIcNS_11char_traitsIcEENS_9allocatorIcEEED2Ev.exit1518, label %if.then.i1516

if.then.i1516:                                    ; preds = %_ZNSt3__1eqB7v170000IcNS_11char_traitsIcEENS_9allocatorIcEEEEbRKNS_12basic_stringIT_T0_T1_EEPKS6_.exit1511
  %178 = load ptr, ptr %__data_.i.i.i.i.i1500, align 8, !tbaa !47
  call void @_ZdlPv(ptr noundef %178) #17
  br label %_ZNSt3__112basic_stringIcNS_11char_traitsIcEENS_9allocatorIcEEED2Ev.exit1518

_ZNSt3__112basic_stringIcNS_11char_traitsIcEENS_9allocatorIcEEED2Ev.exit1518: ; preds = %_ZNSt3__1eqB7v170000IcNS_11char_traitsIcEENS_9allocatorIcEEEEbRKNS_12basic_stringIT_T0_T1_EEPKS6_.exit1511, %if.then.i1516
  call void @llvm.lifetime.end.p0(i64 24, ptr nonnull %ref.tmp350) #16
  call void @llvm.lifetime.start.p0(i64 24, ptr nonnull %ref.tmp360) #16
  %179 = load i64, ptr %__start_.i, align 8, !tbaa !38
  %add.i1520 = add i64 %179, %indvars.iv3133
  %180 = load ptr, ptr %__begin_.i.i, align 8, !tbaa !42
  %div.i1522 = udiv i64 %add.i1520, 39
  %add.ptr.i1523 = getelementptr inbounds ptr, ptr %180, i64 %div.i1522
  %181 = load ptr, ptr %add.ptr.i1523, align 8, !tbaa !43
  %rem.i1524 = urem i64 %add.i1520, 39
  %add.ptr2.i1525 = getelementptr inbounds %"class.PP::Word", ptr %181, i64 %rem.i1524
  invoke void @_ZNSt3__112basic_stringIcNS_11char_traitsIcEENS_9allocatorIcEEEC1ERKS5_(ptr noundef nonnull align 8 dereferenceable(24) %ref.tmp360, ptr noundef nonnull align 8 dereferenceable(24) %add.ptr2.i1525)
          to label %invoke.cont365 unwind label %lpad364

lpad354:                                          ; preds = %_ZNSt3__112basic_stringIcNS_11char_traitsIcEENS_9allocatorIcEEED2Ev.exit1477
  %182 = landingpad { ptr, i32 }
          cleanup
  call void @llvm.lifetime.end.p0(i64 24, ptr nonnull %ref.tmp350) #16
  br label %ehcleanup648

invoke.cont365:                                   ; preds = %_ZNSt3__112basic_stringIcNS_11char_traitsIcEENS_9allocatorIcEEED2Ev.exit1518
  %bf.load.i.i.i1529 = load i8, ptr %ref.tmp360, align 8
  %bf.clear.i.i.i1530 = and i8 %bf.load.i.i.i1529, 1
  %tobool.i.not.i.i1531 = icmp eq i8 %bf.clear.i.i.i1530, 0
  %183 = load i64, ptr %__size_.i.i.i1532, align 8
  %bf.lshr.i.i.i1533 = lshr i8 %bf.load.i.i.i1529, 1
  %conv.i.i.i1534 = zext i8 %bf.lshr.i.i.i1533 to i64
  %cond.i.i1535 = select i1 %tobool.i.not.i.i1531, i64 %conv.i.i.i1534, i64 %183
  %cmp2.not.i1536 = icmp eq i64 %cond.i.i1535, 4
  br i1 %cmp2.not.i1536, label %_ZNSt3__111char_traitsIcE7compareEPKcS3_m.exit.i.i1545, label %_ZNSt3__1eqB7v170000IcNS_11char_traitsIcEENS_9allocatorIcEEEEbRKNS_12basic_stringIT_T0_T1_EEPKS6_.exit1552

_ZNSt3__111char_traitsIcE7compareEPKcS3_m.exit.i.i1545: ; preds = %invoke.cont365
  %184 = load ptr, ptr %__data_.i.i.i.i.i1541, align 8
  %cond.i.i.i.i1542 = select i1 %tobool.i.not.i.i1531, ptr %__data_.i4.i.i.i.i1540, ptr %184
  %bcmp3099 = call i32 @bcmp(ptr noundef nonnull dereferenceable(4) %cond.i.i.i.i1542, ptr noundef nonnull dereferenceable(4) @.str.42, i64 4)
  %cmp4.i1548 = icmp eq i32 %bcmp3099, 0
  br label %_ZNSt3__1eqB7v170000IcNS_11char_traitsIcEENS_9allocatorIcEEEEbRKNS_12basic_stringIT_T0_T1_EEPKS6_.exit1552

_ZNSt3__1eqB7v170000IcNS_11char_traitsIcEENS_9allocatorIcEEEEbRKNS_12basic_stringIT_T0_T1_EEPKS6_.exit1552: ; preds = %invoke.cont365, %_ZNSt3__111char_traitsIcE7compareEPKcS3_m.exit.i.i1545
  %retval.0.i1550 = phi i1 [ %cmp4.i1548, %_ZNSt3__111char_traitsIcE7compareEPKcS3_m.exit.i.i1545 ], [ false, %invoke.cont365 ]
  br i1 %tobool.i.not.i.i1531, label %_ZNSt3__112basic_stringIcNS_11char_traitsIcEENS_9allocatorIcEEED2Ev.exit1559, label %if.then.i1557

if.then.i1557:                                    ; preds = %_ZNSt3__1eqB7v170000IcNS_11char_traitsIcEENS_9allocatorIcEEEEbRKNS_12basic_stringIT_T0_T1_EEPKS6_.exit1552
  %185 = load ptr, ptr %__data_.i.i.i.i.i1541, align 8, !tbaa !47
  call void @_ZdlPv(ptr noundef %185) #17
  br label %_ZNSt3__112basic_stringIcNS_11char_traitsIcEENS_9allocatorIcEEED2Ev.exit1559

_ZNSt3__112basic_stringIcNS_11char_traitsIcEENS_9allocatorIcEEED2Ev.exit1559: ; preds = %_ZNSt3__1eqB7v170000IcNS_11char_traitsIcEENS_9allocatorIcEEEEbRKNS_12basic_stringIT_T0_T1_EEPKS6_.exit1552, %if.then.i1557
  call void @llvm.lifetime.end.p0(i64 24, ptr nonnull %ref.tmp360) #16
  call void @llvm.lifetime.start.p0(i64 24, ptr nonnull %ref.tmp370) #16
  %186 = load i64, ptr %__start_.i, align 8, !tbaa !38
  %add.i1561 = add i64 %186, %indvars.iv3133
  %187 = load ptr, ptr %__begin_.i.i, align 8, !tbaa !42
  %div.i1563 = udiv i64 %add.i1561, 39
  %add.ptr.i1564 = getelementptr inbounds ptr, ptr %187, i64 %div.i1563
  %188 = load ptr, ptr %add.ptr.i1564, align 8, !tbaa !43
  %rem.i1565 = urem i64 %add.i1561, 39
  %add.ptr2.i1566 = getelementptr inbounds %"class.PP::Word", ptr %188, i64 %rem.i1565
  invoke void @_ZNSt3__112basic_stringIcNS_11char_traitsIcEENS_9allocatorIcEEEC1ERKS5_(ptr noundef nonnull align 8 dereferenceable(24) %ref.tmp370, ptr noundef nonnull align 8 dereferenceable(24) %add.ptr2.i1566)
          to label %invoke.cont375 unwind label %lpad374

lpad364:                                          ; preds = %_ZNSt3__112basic_stringIcNS_11char_traitsIcEENS_9allocatorIcEEED2Ev.exit1518
  %189 = landingpad { ptr, i32 }
          cleanup
  call void @llvm.lifetime.end.p0(i64 24, ptr nonnull %ref.tmp360) #16
  br label %ehcleanup648

invoke.cont375:                                   ; preds = %_ZNSt3__112basic_stringIcNS_11char_traitsIcEENS_9allocatorIcEEED2Ev.exit1559
  %bf.load.i.i.i1570 = load i8, ptr %ref.tmp370, align 8
  %bf.clear.i.i.i1571 = and i8 %bf.load.i.i.i1570, 1
  %tobool.i.not.i.i1572 = icmp eq i8 %bf.clear.i.i.i1571, 0
  %190 = load i64, ptr %__size_.i.i.i1573, align 8
  %bf.lshr.i.i.i1574 = lshr i8 %bf.load.i.i.i1570, 1
  %conv.i.i.i1575 = zext i8 %bf.lshr.i.i.i1574 to i64
  %cond.i.i1576 = select i1 %tobool.i.not.i.i1572, i64 %conv.i.i.i1575, i64 %190
  %cmp2.not.i1577 = icmp eq i64 %cond.i.i1576, 4
  br i1 %cmp2.not.i1577, label %_ZNSt3__111char_traitsIcE7compareEPKcS3_m.exit.i.i1586, label %_ZNSt3__1eqB7v170000IcNS_11char_traitsIcEENS_9allocatorIcEEEEbRKNS_12basic_stringIT_T0_T1_EEPKS6_.exit1593

_ZNSt3__111char_traitsIcE7compareEPKcS3_m.exit.i.i1586: ; preds = %invoke.cont375
  %191 = load ptr, ptr %__data_.i.i.i.i.i1582, align 8
  %cond.i.i.i.i1583 = select i1 %tobool.i.not.i.i1572, ptr %__data_.i4.i.i.i.i1581, ptr %191
  %bcmp3098 = call i32 @bcmp(ptr noundef nonnull dereferenceable(4) %cond.i.i.i.i1583, ptr noundef nonnull dereferenceable(4) @.str.43, i64 4)
  %cmp4.i1589 = icmp eq i32 %bcmp3098, 0
  br label %_ZNSt3__1eqB7v170000IcNS_11char_traitsIcEENS_9allocatorIcEEEEbRKNS_12basic_stringIT_T0_T1_EEPKS6_.exit1593

_ZNSt3__1eqB7v170000IcNS_11char_traitsIcEENS_9allocatorIcEEEEbRKNS_12basic_stringIT_T0_T1_EEPKS6_.exit1593: ; preds = %invoke.cont375, %_ZNSt3__111char_traitsIcE7compareEPKcS3_m.exit.i.i1586
  %retval.0.i1591 = phi i1 [ %cmp4.i1589, %_ZNSt3__111char_traitsIcE7compareEPKcS3_m.exit.i.i1586 ], [ false, %invoke.cont375 ]
  br i1 %tobool.i.not.i.i1572, label %_ZNSt3__112basic_stringIcNS_11char_traitsIcEENS_9allocatorIcEEED2Ev.exit1600, label %if.then.i1598

if.then.i1598:                                    ; preds = %_ZNSt3__1eqB7v170000IcNS_11char_traitsIcEENS_9allocatorIcEEEEbRKNS_12basic_stringIT_T0_T1_EEPKS6_.exit1593
  %192 = load ptr, ptr %__data_.i.i.i.i.i1582, align 8, !tbaa !47
  call void @_ZdlPv(ptr noundef %192) #17
  br label %_ZNSt3__112basic_stringIcNS_11char_traitsIcEENS_9allocatorIcEEED2Ev.exit1600

_ZNSt3__112basic_stringIcNS_11char_traitsIcEENS_9allocatorIcEEED2Ev.exit1600: ; preds = %_ZNSt3__1eqB7v170000IcNS_11char_traitsIcEENS_9allocatorIcEEEEbRKNS_12basic_stringIT_T0_T1_EEPKS6_.exit1593, %if.then.i1598
  call void @llvm.lifetime.end.p0(i64 24, ptr nonnull %ref.tmp370) #16
  call void @llvm.lifetime.start.p0(i64 24, ptr nonnull %ref.tmp380) #16
  %193 = load i64, ptr %__start_.i, align 8, !tbaa !38
  %add.i1602 = add i64 %193, %indvars.iv3133
  %194 = load ptr, ptr %__begin_.i.i, align 8, !tbaa !42
  %div.i1604 = udiv i64 %add.i1602, 39
  %add.ptr.i1605 = getelementptr inbounds ptr, ptr %194, i64 %div.i1604
  %195 = load ptr, ptr %add.ptr.i1605, align 8, !tbaa !43
  %rem.i1606 = urem i64 %add.i1602, 39
  %add.ptr2.i1607 = getelementptr inbounds %"class.PP::Word", ptr %195, i64 %rem.i1606
  invoke void @_ZNSt3__112basic_stringIcNS_11char_traitsIcEENS_9allocatorIcEEEC1ERKS5_(ptr noundef nonnull align 8 dereferenceable(24) %ref.tmp380, ptr noundef nonnull align 8 dereferenceable(24) %add.ptr2.i1607)
          to label %invoke.cont385 unwind label %lpad384

lpad374:                                          ; preds = %_ZNSt3__112basic_stringIcNS_11char_traitsIcEENS_9allocatorIcEEED2Ev.exit1559
  %196 = landingpad { ptr, i32 }
          cleanup
  call void @llvm.lifetime.end.p0(i64 24, ptr nonnull %ref.tmp370) #16
  br label %ehcleanup648

invoke.cont385:                                   ; preds = %_ZNSt3__112basic_stringIcNS_11char_traitsIcEENS_9allocatorIcEEED2Ev.exit1600
  %bf.load.i.i.i1611 = load i8, ptr %ref.tmp380, align 8
  %bf.clear.i.i.i1612 = and i8 %bf.load.i.i.i1611, 1
  %tobool.i.not.i.i1613 = icmp eq i8 %bf.clear.i.i.i1612, 0
  %197 = load i64, ptr %__size_.i.i.i1614, align 8
  %bf.lshr.i.i.i1615 = lshr i8 %bf.load.i.i.i1611, 1
  %conv.i.i.i1616 = zext i8 %bf.lshr.i.i.i1615 to i64
  %cond.i.i1617 = select i1 %tobool.i.not.i.i1613, i64 %conv.i.i.i1616, i64 %197
  %cmp2.not.i1618 = icmp eq i64 %cond.i.i1617, 4
  br i1 %cmp2.not.i1618, label %_ZNSt3__111char_traitsIcE7compareEPKcS3_m.exit.i.i1627, label %_ZNSt3__1eqB7v170000IcNS_11char_traitsIcEENS_9allocatorIcEEEEbRKNS_12basic_stringIT_T0_T1_EEPKS6_.exit1634

_ZNSt3__111char_traitsIcE7compareEPKcS3_m.exit.i.i1627: ; preds = %invoke.cont385
  %198 = load ptr, ptr %__data_.i.i.i.i.i1623, align 8
  %cond.i.i.i.i1624 = select i1 %tobool.i.not.i.i1613, ptr %__data_.i4.i.i.i.i1622, ptr %198
  %bcmp3097 = call i32 @bcmp(ptr noundef nonnull dereferenceable(4) %cond.i.i.i.i1624, ptr noundef nonnull dereferenceable(4) @.str.44, i64 4)
  %cmp4.i1630 = icmp eq i32 %bcmp3097, 0
  br label %_ZNSt3__1eqB7v170000IcNS_11char_traitsIcEENS_9allocatorIcEEEEbRKNS_12basic_stringIT_T0_T1_EEPKS6_.exit1634

_ZNSt3__1eqB7v170000IcNS_11char_traitsIcEENS_9allocatorIcEEEEbRKNS_12basic_stringIT_T0_T1_EEPKS6_.exit1634: ; preds = %invoke.cont385, %_ZNSt3__111char_traitsIcE7compareEPKcS3_m.exit.i.i1627
  %retval.0.i1632 = phi i1 [ %cmp4.i1630, %_ZNSt3__111char_traitsIcE7compareEPKcS3_m.exit.i.i1627 ], [ false, %invoke.cont385 ]
  br i1 %tobool.i.not.i.i1613, label %_ZNSt3__112basic_stringIcNS_11char_traitsIcEENS_9allocatorIcEEED2Ev.exit1641, label %if.then.i1639

if.then.i1639:                                    ; preds = %_ZNSt3__1eqB7v170000IcNS_11char_traitsIcEENS_9allocatorIcEEEEbRKNS_12basic_stringIT_T0_T1_EEPKS6_.exit1634
  %199 = load ptr, ptr %__data_.i.i.i.i.i1623, align 8, !tbaa !47
  call void @_ZdlPv(ptr noundef %199) #17
  br label %_ZNSt3__112basic_stringIcNS_11char_traitsIcEENS_9allocatorIcEEED2Ev.exit1641

_ZNSt3__112basic_stringIcNS_11char_traitsIcEENS_9allocatorIcEEED2Ev.exit1641: ; preds = %_ZNSt3__1eqB7v170000IcNS_11char_traitsIcEENS_9allocatorIcEEEEbRKNS_12basic_stringIT_T0_T1_EEPKS6_.exit1634, %if.then.i1639
  call void @llvm.lifetime.end.p0(i64 24, ptr nonnull %ref.tmp380) #16
  call void @llvm.lifetime.start.p0(i64 24, ptr nonnull %ref.tmp390) #16
  %200 = load i64, ptr %__start_.i, align 8, !tbaa !38
  %add.i1643 = add i64 %200, %indvars.iv3133
  %201 = load ptr, ptr %__begin_.i.i, align 8, !tbaa !42
  %div.i1645 = udiv i64 %add.i1643, 39
  %add.ptr.i1646 = getelementptr inbounds ptr, ptr %201, i64 %div.i1645
  %202 = load ptr, ptr %add.ptr.i1646, align 8, !tbaa !43
  %rem.i1647 = urem i64 %add.i1643, 39
  %add.ptr2.i1648 = getelementptr inbounds %"class.PP::Word", ptr %202, i64 %rem.i1647
  invoke void @_ZNSt3__112basic_stringIcNS_11char_traitsIcEENS_9allocatorIcEEEC1ERKS5_(ptr noundef nonnull align 8 dereferenceable(24) %ref.tmp390, ptr noundef nonnull align 8 dereferenceable(24) %add.ptr2.i1648)
          to label %invoke.cont395 unwind label %lpad394

lpad384:                                          ; preds = %_ZNSt3__112basic_stringIcNS_11char_traitsIcEENS_9allocatorIcEEED2Ev.exit1600
  %203 = landingpad { ptr, i32 }
          cleanup
  call void @llvm.lifetime.end.p0(i64 24, ptr nonnull %ref.tmp380) #16
  br label %ehcleanup648

invoke.cont395:                                   ; preds = %_ZNSt3__112basic_stringIcNS_11char_traitsIcEENS_9allocatorIcEEED2Ev.exit1641
  %bf.load.i.i.i1652 = load i8, ptr %ref.tmp390, align 8
  %bf.clear.i.i.i1653 = and i8 %bf.load.i.i.i1652, 1
  %tobool.i.not.i.i1654 = icmp eq i8 %bf.clear.i.i.i1653, 0
  %204 = load i64, ptr %__size_.i.i.i1655, align 8
  %bf.lshr.i.i.i1656 = lshr i8 %bf.load.i.i.i1652, 1
  %conv.i.i.i1657 = zext i8 %bf.lshr.i.i.i1656 to i64
  %cond.i.i1658 = select i1 %tobool.i.not.i.i1654, i64 %conv.i.i.i1657, i64 %204
  %cmp2.not.i1659 = icmp eq i64 %cond.i.i1658, 4
  br i1 %cmp2.not.i1659, label %_ZNSt3__111char_traitsIcE7compareEPKcS3_m.exit.i.i1668, label %_ZNSt3__1eqB7v170000IcNS_11char_traitsIcEENS_9allocatorIcEEEEbRKNS_12basic_stringIT_T0_T1_EEPKS6_.exit1675

_ZNSt3__111char_traitsIcE7compareEPKcS3_m.exit.i.i1668: ; preds = %invoke.cont395
  %205 = load ptr, ptr %__data_.i.i.i.i.i1664, align 8
  %cond.i.i.i.i1665 = select i1 %tobool.i.not.i.i1654, ptr %__data_.i4.i.i.i.i1663, ptr %205
  %bcmp3096 = call i32 @bcmp(ptr noundef nonnull dereferenceable(4) %cond.i.i.i.i1665, ptr noundef nonnull dereferenceable(4) @.str.45, i64 4)
  %cmp4.i1671 = icmp eq i32 %bcmp3096, 0
  br label %_ZNSt3__1eqB7v170000IcNS_11char_traitsIcEENS_9allocatorIcEEEEbRKNS_12basic_stringIT_T0_T1_EEPKS6_.exit1675

_ZNSt3__1eqB7v170000IcNS_11char_traitsIcEENS_9allocatorIcEEEEbRKNS_12basic_stringIT_T0_T1_EEPKS6_.exit1675: ; preds = %invoke.cont395, %_ZNSt3__111char_traitsIcE7compareEPKcS3_m.exit.i.i1668
  %retval.0.i1673 = phi i1 [ %cmp4.i1671, %_ZNSt3__111char_traitsIcE7compareEPKcS3_m.exit.i.i1668 ], [ false, %invoke.cont395 ]
  br i1 %tobool.i.not.i.i1654, label %_ZNSt3__112basic_stringIcNS_11char_traitsIcEENS_9allocatorIcEEED2Ev.exit1682, label %if.then.i1680

if.then.i1680:                                    ; preds = %_ZNSt3__1eqB7v170000IcNS_11char_traitsIcEENS_9allocatorIcEEEEbRKNS_12basic_stringIT_T0_T1_EEPKS6_.exit1675
  %206 = load ptr, ptr %__data_.i.i.i.i.i1664, align 8, !tbaa !47
  call void @_ZdlPv(ptr noundef %206) #17
  br label %_ZNSt3__112basic_stringIcNS_11char_traitsIcEENS_9allocatorIcEEED2Ev.exit1682

_ZNSt3__112basic_stringIcNS_11char_traitsIcEENS_9allocatorIcEEED2Ev.exit1682: ; preds = %_ZNSt3__1eqB7v170000IcNS_11char_traitsIcEENS_9allocatorIcEEEEbRKNS_12basic_stringIT_T0_T1_EEPKS6_.exit1675, %if.then.i1680
  call void @llvm.lifetime.end.p0(i64 24, ptr nonnull %ref.tmp390) #16
  %207 = select i1 %retval.0.i1673, i1 true, i1 %retval.0.i1632
  %208 = select i1 %207, i1 true, i1 %retval.0.i1591
  %209 = select i1 %208, i1 true, i1 %retval.0.i1550
  %210 = select i1 %209, i1 true, i1 %retval.0.i1509
  %211 = select i1 %210, i1 true, i1 %retval.0.i1468
  %212 = select i1 %211, i1 true, i1 %retval.0.i1427
  %213 = select i1 %212, i1 true, i1 %retval.0.i1386
  %214 = select i1 %213, i1 true, i1 %retval.0.i1345
  %215 = select i1 %214, i1 true, i1 %retval.0.i1304
  %216 = select i1 %215, i1 true, i1 %retval.0.i1263
  %spec.select836 = select i1 %216, i1 true, i1 %retval.0.i1222
  br i1 %spec.select836, label %for.inc442, label %if.then400

lpad394:                                          ; preds = %_ZNSt3__112basic_stringIcNS_11char_traitsIcEENS_9allocatorIcEEED2Ev.exit1641
  %217 = landingpad { ptr, i32 }
          cleanup
  call void @llvm.lifetime.end.p0(i64 24, ptr nonnull %ref.tmp390) #16
  br label %ehcleanup648

if.then400:                                       ; preds = %_ZNSt3__112basic_stringIcNS_11char_traitsIcEENS_9allocatorIcEEED2Ev.exit1682
  %conv282.le = and i64 %indvars.iv3133, 4294967295
  %218 = load i64, ptr %__start_.i, align 8, !tbaa !38
  %add.i1684 = add i64 %218, %conv282.le
  %219 = load ptr, ptr %__begin_.i.i, align 8, !tbaa !42
  %div.i1686 = udiv i64 %add.i1684, 39
  %add.ptr.i1687 = getelementptr inbounds ptr, ptr %219, i64 %div.i1686
  %220 = load ptr, ptr %add.ptr.i1687, align 8, !tbaa !43
  %rem.i1688 = urem i64 %add.i1684, 39
  %add.ptr2.i1689 = getelementptr inbounds %"class.PP::Word", ptr %220, i64 %rem.i1688
  invoke void @_ZN2PP4Word11fatal_errorERNSt3__118basic_stringstreamIcNS1_11char_traitsIcEENS1_9allocatorIcEEEERi(ptr noundef nonnull align 8 dereferenceable(104) %add.ptr2.i1689, ptr noundef nonnull align 8 dereferenceable(128) %serr, ptr noundef nonnull align 4 dereferenceable(4) %ierr)
          to label %invoke.cont405 unwind label %lpad404

invoke.cont405:                                   ; preds = %if.then400
  %add.ptr406 = getelementptr inbounds i8, ptr %serr, i64 16
  %call1.i1691 = invoke noundef nonnull align 8 dereferenceable(8) ptr @_ZNSt3__124__put_character_sequenceB7v170000IcNS_11char_traitsIcEEEERNS_13basic_ostreamIT_T0_EES7_PKS4_m(ptr noundef nonnull align 8 dereferenceable(8) %add.ptr406, ptr noundef nonnull @.str.46, i64 noundef 31)
          to label %invoke.cont407 unwind label %lpad404

invoke.cont407:                                   ; preds = %invoke.cont405
  %vtable.i2878 = load ptr, ptr %call1.i1691, align 8, !tbaa !36
  %vbase.offset.ptr.i2879 = getelementptr i8, ptr %vtable.i2878, i64 -24
  %vbase.offset.i2880 = load i64, ptr %vbase.offset.ptr.i2879, align 8
  %add.ptr.i2881 = getelementptr inbounds i8, ptr %call1.i1691, i64 %vbase.offset.i2880
  call void @llvm.lifetime.start.p0(i64 8, ptr nonnull %ref.tmp.i.i2877) #16
  invoke void @_ZNKSt3__18ios_base6getlocEv(ptr nonnull sret(%"class.std::__1::locale") align 8 %ref.tmp.i.i2877, ptr noundef nonnull align 8 dereferenceable(136) %add.ptr.i2881)
          to label %.noexc2889 unwind label %lpad404

.noexc2889:                                       ; preds = %invoke.cont407
  %call.i5.i.i2882 = invoke noundef ptr @_ZNKSt3__16locale9use_facetERNS0_2idE(ptr noundef nonnull align 8 dereferenceable(8) %ref.tmp.i.i2877, ptr noundef nonnull align 8 dereferenceable(12) @_ZNSt3__15ctypeIcE2idE)
          to label %invoke.cont.i.i2886 unwind label %lpad.i.i2887

invoke.cont.i.i2886:                              ; preds = %.noexc2889
  %vtable.i.i.i2883 = load ptr, ptr %call.i5.i.i2882, align 8, !tbaa !36
  %vfn.i.i.i2884 = getelementptr inbounds ptr, ptr %vtable.i.i.i2883, i64 7
  %221 = load ptr, ptr %vfn.i.i.i2884, align 8
  %call.i6.i.i2885 = invoke noundef signext i8 %221(ptr noundef nonnull align 8 dereferenceable(25) %call.i5.i.i2882, i8 noundef signext 10)
          to label %_ZNKSt3__19basic_iosIcNS_11char_traitsIcEEE5widenB7v170000Ec.exit.i2888 unwind label %lpad.i.i2887

lpad.i.i2887:                                     ; preds = %invoke.cont.i.i2886, %.noexc2889
  %222 = landingpad { ptr, i32 }
          cleanup
  call void @_ZNSt3__16localeD1Ev(ptr noundef nonnull align 8 dereferenceable(8) %ref.tmp.i.i2877) #16
  call void @llvm.lifetime.end.p0(i64 8, ptr nonnull %ref.tmp.i.i2877) #16
  br label %ehcleanup648

_ZNKSt3__19basic_iosIcNS_11char_traitsIcEEE5widenB7v170000Ec.exit.i2888: ; preds = %invoke.cont.i.i2886
  call void @_ZNSt3__16localeD1Ev(ptr noundef nonnull align 8 dereferenceable(8) %ref.tmp.i.i2877) #16
  call void @llvm.lifetime.end.p0(i64 8, ptr nonnull %ref.tmp.i.i2877) #16
  %call1.i2892 = invoke noundef nonnull align 8 dereferenceable(8) ptr @_ZNSt3__113basic_ostreamIcNS_11char_traitsIcEEE3putEc(ptr noundef nonnull align 8 dereferenceable(8) %call1.i1691, i8 noundef signext %call.i6.i.i2885)
          to label %call1.i.noexc2891 unwind label %lpad404

call1.i.noexc2891:                                ; preds = %_ZNKSt3__19basic_iosIcNS_11char_traitsIcEEE5widenB7v170000Ec.exit.i2888
  %call2.i2893 = invoke noundef nonnull align 8 dereferenceable(8) ptr @_ZNSt3__113basic_ostreamIcNS_11char_traitsIcEEE5flushEv(ptr noundef nonnull align 8 dereferenceable(8) %call1.i1691)
          to label %invoke.cont409 unwind label %lpad404

invoke.cont409:                                   ; preds = %call1.i.noexc2891
  %call1.i1696 = invoke noundef nonnull align 8 dereferenceable(8) ptr @_ZNSt3__124__put_character_sequenceB7v170000IcNS_11char_traitsIcEEEERNS_13basic_ostreamIT_T0_EES7_PKS4_m(ptr noundef nonnull align 8 dereferenceable(8) %add.ptr406, ptr noundef nonnull @.str.47, i64 noundef 44)
          to label %invoke.cont412 unwind label %lpad404

invoke.cont412:                                   ; preds = %invoke.cont409
  %vtable.i2896 = load ptr, ptr %call1.i1696, align 8, !tbaa !36
  %vbase.offset.ptr.i2897 = getelementptr i8, ptr %vtable.i2896, i64 -24
  %vbase.offset.i2898 = load i64, ptr %vbase.offset.ptr.i2897, align 8
  %add.ptr.i2899 = getelementptr inbounds i8, ptr %call1.i1696, i64 %vbase.offset.i2898
  call void @llvm.lifetime.start.p0(i64 8, ptr nonnull %ref.tmp.i.i2895) #16
  invoke void @_ZNKSt3__18ios_base6getlocEv(ptr nonnull sret(%"class.std::__1::locale") align 8 %ref.tmp.i.i2895, ptr noundef nonnull align 8 dereferenceable(136) %add.ptr.i2899)
          to label %.noexc2907 unwind label %lpad404

.noexc2907:                                       ; preds = %invoke.cont412
  %call.i5.i.i2900 = invoke noundef ptr @_ZNKSt3__16locale9use_facetERNS0_2idE(ptr noundef nonnull align 8 dereferenceable(8) %ref.tmp.i.i2895, ptr noundef nonnull align 8 dereferenceable(12) @_ZNSt3__15ctypeIcE2idE)
          to label %invoke.cont.i.i2904 unwind label %lpad.i.i2905

invoke.cont.i.i2904:                              ; preds = %.noexc2907
  %vtable.i.i.i2901 = load ptr, ptr %call.i5.i.i2900, align 8, !tbaa !36
  %vfn.i.i.i2902 = getelementptr inbounds ptr, ptr %vtable.i.i.i2901, i64 7
  %223 = load ptr, ptr %vfn.i.i.i2902, align 8
  %call.i6.i.i2903 = invoke noundef signext i8 %223(ptr noundef nonnull align 8 dereferenceable(25) %call.i5.i.i2900, i8 noundef signext 10)
          to label %_ZNKSt3__19basic_iosIcNS_11char_traitsIcEEE5widenB7v170000Ec.exit.i2906 unwind label %lpad.i.i2905

lpad.i.i2905:                                     ; preds = %invoke.cont.i.i2904, %.noexc2907
  %224 = landingpad { ptr, i32 }
          cleanup
  call void @_ZNSt3__16localeD1Ev(ptr noundef nonnull align 8 dereferenceable(8) %ref.tmp.i.i2895) #16
  call void @llvm.lifetime.end.p0(i64 8, ptr nonnull %ref.tmp.i.i2895) #16
  br label %ehcleanup648

_ZNKSt3__19basic_iosIcNS_11char_traitsIcEEE5widenB7v170000Ec.exit.i2906: ; preds = %invoke.cont.i.i2904
  call void @_ZNSt3__16localeD1Ev(ptr noundef nonnull align 8 dereferenceable(8) %ref.tmp.i.i2895) #16
  call void @llvm.lifetime.end.p0(i64 8, ptr nonnull %ref.tmp.i.i2895) #16
  %call1.i2911 = invoke noundef nonnull align 8 dereferenceable(8) ptr @_ZNSt3__113basic_ostreamIcNS_11char_traitsIcEEE3putEc(ptr noundef nonnull align 8 dereferenceable(8) %call1.i1696, i8 noundef signext %call.i6.i.i2903)
          to label %call1.i.noexc2910 unwind label %lpad404

call1.i.noexc2910:                                ; preds = %_ZNKSt3__19basic_iosIcNS_11char_traitsIcEEE5widenB7v170000Ec.exit.i2906
  %call2.i2912 = invoke noundef nonnull align 8 dereferenceable(8) ptr @_ZNSt3__113basic_ostreamIcNS_11char_traitsIcEEE5flushEv(ptr noundef nonnull align 8 dereferenceable(8) %call1.i1696)
          to label %invoke.cont414 unwind label %lpad404

invoke.cont414:                                   ; preds = %call1.i.noexc2910
  %call1.i1701 = invoke noundef nonnull align 8 dereferenceable(8) ptr @_ZNSt3__124__put_character_sequenceB7v170000IcNS_11char_traitsIcEEEERNS_13basic_ostreamIT_T0_EES7_PKS4_m(ptr noundef nonnull align 8 dereferenceable(8) %add.ptr406, ptr noundef nonnull @.str.48, i64 noundef 60)
          to label %invoke.cont417 unwind label %lpad404

invoke.cont417:                                   ; preds = %invoke.cont414
  %vtable.i2915 = load ptr, ptr %call1.i1701, align 8, !tbaa !36
  %vbase.offset.ptr.i2916 = getelementptr i8, ptr %vtable.i2915, i64 -24
  %vbase.offset.i2917 = load i64, ptr %vbase.offset.ptr.i2916, align 8
  %add.ptr.i2918 = getelementptr inbounds i8, ptr %call1.i1701, i64 %vbase.offset.i2917
  call void @llvm.lifetime.start.p0(i64 8, ptr nonnull %ref.tmp.i.i2914) #16
  invoke void @_ZNKSt3__18ios_base6getlocEv(ptr nonnull sret(%"class.std::__1::locale") align 8 %ref.tmp.i.i2914, ptr noundef nonnull align 8 dereferenceable(136) %add.ptr.i2918)
          to label %.noexc2926 unwind label %lpad404

.noexc2926:                                       ; preds = %invoke.cont417
  %call.i5.i.i2919 = invoke noundef ptr @_ZNKSt3__16locale9use_facetERNS0_2idE(ptr noundef nonnull align 8 dereferenceable(8) %ref.tmp.i.i2914, ptr noundef nonnull align 8 dereferenceable(12) @_ZNSt3__15ctypeIcE2idE)
          to label %invoke.cont.i.i2923 unwind label %lpad.i.i2924

invoke.cont.i.i2923:                              ; preds = %.noexc2926
  %vtable.i.i.i2920 = load ptr, ptr %call.i5.i.i2919, align 8, !tbaa !36
  %vfn.i.i.i2921 = getelementptr inbounds ptr, ptr %vtable.i.i.i2920, i64 7
  %225 = load ptr, ptr %vfn.i.i.i2921, align 8
  %call.i6.i.i2922 = invoke noundef signext i8 %225(ptr noundef nonnull align 8 dereferenceable(25) %call.i5.i.i2919, i8 noundef signext 10)
          to label %_ZNKSt3__19basic_iosIcNS_11char_traitsIcEEE5widenB7v170000Ec.exit.i2925 unwind label %lpad.i.i2924

lpad.i.i2924:                                     ; preds = %invoke.cont.i.i2923, %.noexc2926
  %226 = landingpad { ptr, i32 }
          cleanup
  call void @_ZNSt3__16localeD1Ev(ptr noundef nonnull align 8 dereferenceable(8) %ref.tmp.i.i2914) #16
  call void @llvm.lifetime.end.p0(i64 8, ptr nonnull %ref.tmp.i.i2914) #16
  br label %ehcleanup648

_ZNKSt3__19basic_iosIcNS_11char_traitsIcEEE5widenB7v170000Ec.exit.i2925: ; preds = %invoke.cont.i.i2923
  call void @_ZNSt3__16localeD1Ev(ptr noundef nonnull align 8 dereferenceable(8) %ref.tmp.i.i2914) #16
  call void @llvm.lifetime.end.p0(i64 8, ptr nonnull %ref.tmp.i.i2914) #16
  %call1.i2930 = invoke noundef nonnull align 8 dereferenceable(8) ptr @_ZNSt3__113basic_ostreamIcNS_11char_traitsIcEEE3putEc(ptr noundef nonnull align 8 dereferenceable(8) %call1.i1701, i8 noundef signext %call.i6.i.i2922)
          to label %call1.i.noexc2929 unwind label %lpad404

call1.i.noexc2929:                                ; preds = %_ZNKSt3__19basic_iosIcNS_11char_traitsIcEEE5widenB7v170000Ec.exit.i2925
  %call2.i2931 = invoke noundef nonnull align 8 dereferenceable(8) ptr @_ZNSt3__113basic_ostreamIcNS_11char_traitsIcEEE5flushEv(ptr noundef nonnull align 8 dereferenceable(8) %call1.i1701)
          to label %invoke.cont419 unwind label %lpad404

invoke.cont419:                                   ; preds = %call1.i.noexc2929
  %call1.i1706 = invoke noundef nonnull align 8 dereferenceable(8) ptr @_ZNSt3__124__put_character_sequenceB7v170000IcNS_11char_traitsIcEEEERNS_13basic_ostreamIT_T0_EES7_PKS4_m(ptr noundef nonnull align 8 dereferenceable(8) %add.ptr406, ptr noundef nonnull @.str.49, i64 noundef 25)
          to label %invoke.cont422 unwind label %lpad404

invoke.cont422:                                   ; preds = %invoke.cont419
  call void @llvm.lifetime.start.p0(i64 24, ptr nonnull %ref.tmp424) #16
  %227 = load i64, ptr %__start_.i, align 8, !tbaa !38
  %add.i1709 = add i64 %227, %conv282.le
  %228 = load ptr, ptr %__begin_.i.i, align 8, !tbaa !42
  %div.i1711 = udiv i64 %add.i1709, 39
  %add.ptr.i1712 = getelementptr inbounds ptr, ptr %228, i64 %div.i1711
  %229 = load ptr, ptr %add.ptr.i1712, align 8, !tbaa !43
  %rem.i1713 = urem i64 %add.i1709, 39
  %add.ptr2.i1714 = getelementptr inbounds %"class.PP::Word", ptr %229, i64 %rem.i1713
  invoke void @_ZNSt3__112basic_stringIcNS_11char_traitsIcEENS_9allocatorIcEEEC1ERKS5_(ptr noundef nonnull align 8 dereferenceable(24) %ref.tmp424, ptr noundef nonnull align 8 dereferenceable(24) %add.ptr2.i1714)
          to label %invoke.cont429 unwind label %lpad428

invoke.cont429:                                   ; preds = %invoke.cont422
  %bf.load.i.i.i.i1717 = load i8, ptr %ref.tmp424, align 8
  %bf.clear.i.i.i.i1718 = and i8 %bf.load.i.i.i.i1717, 1
  %tobool.i.not.i.i.i1719 = icmp eq i8 %bf.clear.i.i.i.i1718, 0
  %__data_.i.i.i.i1720 = getelementptr inbounds %"struct.std::__1::basic_string<char>::__long", ptr %ref.tmp424, i64 0, i32 2
  %230 = load ptr, ptr %__data_.i.i.i.i1720, align 8
  %__data_.i4.i.i.i1721 = getelementptr inbounds %"struct.std::__1::basic_string<char>::__short", ptr %ref.tmp424, i64 0, i32 2
  %cond.i.i.i1722 = select i1 %tobool.i.not.i.i.i1719, ptr %__data_.i4.i.i.i1721, ptr %230
  %__size_.i.i.i1723 = getelementptr inbounds %"struct.std::__1::basic_string<char>::__long", ptr %ref.tmp424, i64 0, i32 1
  %231 = load i64, ptr %__size_.i.i.i1723, align 8
  %bf.lshr.i.i.i1724 = lshr i8 %bf.load.i.i.i.i1717, 1
  %conv.i.i.i1725 = zext i8 %bf.lshr.i.i.i1724 to i64
  %cond.i.i1726 = select i1 %tobool.i.not.i.i.i1719, i64 %conv.i.i.i1725, i64 %231
  %call2.i1727 = invoke noundef nonnull align 8 dereferenceable(8) ptr @_ZNSt3__124__put_character_sequenceB7v170000IcNS_11char_traitsIcEEEERNS_13basic_ostreamIT_T0_EES7_PKS4_m(ptr noundef nonnull align 8 dereferenceable(8) %call1.i1706, ptr noundef %cond.i.i.i1722, i64 noundef %cond.i.i1726)
          to label %invoke.cont431 unwind label %lpad430

invoke.cont431:                                   ; preds = %invoke.cont429
  %vtable.i2934 = load ptr, ptr %call2.i1727, align 8, !tbaa !36
  %vbase.offset.ptr.i2935 = getelementptr i8, ptr %vtable.i2934, i64 -24
  %vbase.offset.i2936 = load i64, ptr %vbase.offset.ptr.i2935, align 8
  %add.ptr.i2937 = getelementptr inbounds i8, ptr %call2.i1727, i64 %vbase.offset.i2936
  call void @llvm.lifetime.start.p0(i64 8, ptr nonnull %ref.tmp.i.i2933) #16
  invoke void @_ZNKSt3__18ios_base6getlocEv(ptr nonnull sret(%"class.std::__1::locale") align 8 %ref.tmp.i.i2933, ptr noundef nonnull align 8 dereferenceable(136) %add.ptr.i2937)
          to label %.noexc2945 unwind label %lpad430

.noexc2945:                                       ; preds = %invoke.cont431
  %call.i5.i.i2938 = invoke noundef ptr @_ZNKSt3__16locale9use_facetERNS0_2idE(ptr noundef nonnull align 8 dereferenceable(8) %ref.tmp.i.i2933, ptr noundef nonnull align 8 dereferenceable(12) @_ZNSt3__15ctypeIcE2idE)
          to label %invoke.cont.i.i2942 unwind label %lpad.i.i2943

invoke.cont.i.i2942:                              ; preds = %.noexc2945
  %vtable.i.i.i2939 = load ptr, ptr %call.i5.i.i2938, align 8, !tbaa !36
  %vfn.i.i.i2940 = getelementptr inbounds ptr, ptr %vtable.i.i.i2939, i64 7
  %232 = load ptr, ptr %vfn.i.i.i2940, align 8
  %call.i6.i.i2941 = invoke noundef signext i8 %232(ptr noundef nonnull align 8 dereferenceable(25) %call.i5.i.i2938, i8 noundef signext 10)
          to label %_ZNKSt3__19basic_iosIcNS_11char_traitsIcEEE5widenB7v170000Ec.exit.i2944 unwind label %lpad.i.i2943

lpad.i.i2943:                                     ; preds = %invoke.cont.i.i2942, %.noexc2945
  %233 = landingpad { ptr, i32 }
          cleanup
  call void @_ZNSt3__16localeD1Ev(ptr noundef nonnull align 8 dereferenceable(8) %ref.tmp.i.i2933) #16
  call void @llvm.lifetime.end.p0(i64 8, ptr nonnull %ref.tmp.i.i2933) #16
  br label %lpad430.body

_ZNKSt3__19basic_iosIcNS_11char_traitsIcEEE5widenB7v170000Ec.exit.i2944: ; preds = %invoke.cont.i.i2942
  call void @_ZNSt3__16localeD1Ev(ptr noundef nonnull align 8 dereferenceable(8) %ref.tmp.i.i2933) #16
  call void @llvm.lifetime.end.p0(i64 8, ptr nonnull %ref.tmp.i.i2933) #16
  %call1.i2948 = invoke noundef nonnull align 8 dereferenceable(8) ptr @_ZNSt3__113basic_ostreamIcNS_11char_traitsIcEEE3putEc(ptr noundef nonnull align 8 dereferenceable(8) %call2.i1727, i8 noundef signext %call.i6.i.i2941)
          to label %call1.i.noexc2947 unwind label %lpad430

call1.i.noexc2947:                                ; preds = %_ZNKSt3__19basic_iosIcNS_11char_traitsIcEEE5widenB7v170000Ec.exit.i2944
  %call2.i2949 = invoke noundef nonnull align 8 dereferenceable(8) ptr @_ZNSt3__113basic_ostreamIcNS_11char_traitsIcEEE5flushEv(ptr noundef nonnull align 8 dereferenceable(8) %call2.i1727)
          to label %invoke.cont433 unwind label %lpad430

invoke.cont433:                                   ; preds = %call1.i.noexc2947
  %bf.load.i.i1731 = load i8, ptr %ref.tmp424, align 8
  %bf.clear.i.i1732 = and i8 %bf.load.i.i1731, 1
  %tobool.i.not.i1733 = icmp eq i8 %bf.clear.i.i1732, 0
  br i1 %tobool.i.not.i1733, label %cleanup444, label %if.then.i1735

if.then.i1735:                                    ; preds = %invoke.cont433
  %234 = load ptr, ptr %__data_.i.i.i.i1720, align 8, !tbaa !47
  call void @_ZdlPv(ptr noundef %234) #17
  br label %cleanup444

lpad404:                                          ; preds = %call1.i.noexc2929, %_ZNKSt3__19basic_iosIcNS_11char_traitsIcEEE5widenB7v170000Ec.exit.i2925, %invoke.cont417, %call1.i.noexc2910, %_ZNKSt3__19basic_iosIcNS_11char_traitsIcEEE5widenB7v170000Ec.exit.i2906, %invoke.cont412, %call1.i.noexc2891, %_ZNKSt3__19basic_iosIcNS_11char_traitsIcEEE5widenB7v170000Ec.exit.i2888, %invoke.cont407, %invoke.cont419, %invoke.cont414, %invoke.cont409, %invoke.cont405, %if.then400
  %235 = landingpad { ptr, i32 }
          cleanup
  br label %ehcleanup648

lpad428:                                          ; preds = %invoke.cont422
  %236 = landingpad { ptr, i32 }
          cleanup
  br label %ehcleanup436

lpad430:                                          ; preds = %call1.i.noexc2947, %_ZNKSt3__19basic_iosIcNS_11char_traitsIcEEE5widenB7v170000Ec.exit.i2944, %invoke.cont431, %invoke.cont429
  %237 = landingpad { ptr, i32 }
          cleanup
  br label %lpad430.body

lpad430.body:                                     ; preds = %lpad.i.i2943, %lpad430
  %eh.lpad-body2946 = phi { ptr, i32 } [ %237, %lpad430 ], [ %233, %lpad.i.i2943 ]
  %bf.load.i.i1738 = load i8, ptr %ref.tmp424, align 8
  %bf.clear.i.i1739 = and i8 %bf.load.i.i1738, 1
  %tobool.i.not.i1740 = icmp eq i8 %bf.clear.i.i1739, 0
  br i1 %tobool.i.not.i1740, label %ehcleanup436, label %if.then.i1742

if.then.i1742:                                    ; preds = %lpad430.body
  %238 = load ptr, ptr %__data_.i.i.i.i1720, align 8, !tbaa !47
  call void @_ZdlPv(ptr noundef %238) #17
  br label %ehcleanup436

ehcleanup436:                                     ; preds = %if.then.i1742, %lpad430.body, %lpad428
  %.pn810 = phi { ptr, i32 } [ %236, %lpad428 ], [ %eh.lpad-body2946, %lpad430.body ], [ %eh.lpad-body2946, %if.then.i1742 ]
  call void @llvm.lifetime.end.p0(i64 24, ptr nonnull %ref.tmp424) #16
  br label %ehcleanup648

for.inc442:                                       ; preds = %_ZNSt3__112basic_stringIcNS_11char_traitsIcEENS_9allocatorIcEEED2Ev.exit1682
  %indvars.iv.next3134 = add nuw nsw i64 %indvars.iv3133, 1
  %239 = load i64, ptr %__size_.i.i, align 8, !tbaa !35
  %sext3159 = shl i64 %239, 32
  %240 = ashr exact i64 %sext3159, 32
  %cmp277.not = icmp slt i64 %indvars.iv.next3134, %240
  br i1 %cmp277.not, label %for.body279, label %for.end447, !llvm.loop !58

cleanup444:                                       ; preds = %if.then.i1735, %invoke.cont433
  call void @llvm.lifetime.end.p0(i64 24, ptr nonnull %ref.tmp424) #16
  store i32 2, ptr %ierr, align 4, !tbaa !32
  br label %cleanup647

for.end447:                                       ; preds = %for.inc442, %for.cond274.preheader
  call void @llvm.lifetime.start.p0(i64 24, ptr nonnull %ref.tmp448) #16
  call void @llvm.experimental.noalias.scope.decl(metadata !59)
  %241 = load i64, ptr %__size_.i.i.i, align 8, !tbaa !35, !noalias !59
  %conv.i1746 = trunc i64 %241 to i32
  %cmp.not.i1747 = icmp sgt i32 %conv.i1746, 1
  br i1 %cmp.not.i1747, label %if.end.i1757, label %if.then3.i.i.i1749

if.then3.i.i.i1749:                               ; preds = %for.end447
  store i8 0, ptr %ref.tmp448, align 8, !alias.scope !59
  %__data_.i.i.i.i1748 = getelementptr inbounds %"struct.std::__1::basic_string<char>::__short", ptr %ref.tmp448, i64 0, i32 2
  store i8 0, ptr %__data_.i.i.i.i1748, align 1, !tbaa !47, !alias.scope !59
  br label %invoke.cont450

if.end.i1757:                                     ; preds = %for.end447
  %242 = load i64, ptr %__start_.i.i, align 8, !tbaa !38, !noalias !59
  %add.i.i1751 = add i64 %242, 1
  %243 = load ptr, ptr %__begin_.i.i.i, align 8, !tbaa !42, !noalias !59
  %div.i.i1753 = udiv i64 %add.i.i1751, 39
  %add.ptr.i.i1754 = getelementptr inbounds ptr, ptr %243, i64 %div.i.i1753
  %244 = load ptr, ptr %add.ptr.i.i1754, align 8, !tbaa !43, !noalias !59
  %rem.i.i1755 = urem i64 %add.i.i1751, 39
  %add.ptr2.i.i1756 = getelementptr inbounds %"class.PP::Word", ptr %244, i64 %rem.i.i1755
  invoke void @_ZNSt3__112basic_stringIcNS_11char_traitsIcEENS_9allocatorIcEEEC1ERKS5_(ptr noundef nonnull align 8 dereferenceable(24) %ref.tmp448, ptr noundef nonnull align 8 dereferenceable(24) %add.ptr2.i.i1756)
          to label %invoke.cont450 unwind label %lpad449

invoke.cont450:                                   ; preds = %if.then3.i.i.i1749, %if.end.i1757
  %bf.load.i.i.i1760 = load i8, ptr %name, align 8
  %bf.clear.i.i.i1761 = and i8 %bf.load.i.i.i1760, 1
  %tobool.i.not.i.i1762 = icmp eq i8 %bf.clear.i.i.i1761, 0
  br i1 %tobool.i.not.i.i1762, label %_ZNSt3__112basic_stringIcNS_11char_traitsIcEENS_9allocatorIcEEED2Ev.exit1771, label %if.then.i.i1764

if.then.i.i1764:                                  ; preds = %invoke.cont450
  %__data_.i.i.i1763 = getelementptr inbounds %"class.PP::Restartblock", ptr %this, i64 0, i32 7, i32 0, i32 0, i32 0, i32 0, i32 0, i32 2
  %245 = load ptr, ptr %__data_.i.i.i1763, align 8, !tbaa !47
  call void @_ZdlPv(ptr noundef %245) #17
  br label %_ZNSt3__112basic_stringIcNS_11char_traitsIcEENS_9allocatorIcEEED2Ev.exit1771

_ZNSt3__112basic_stringIcNS_11char_traitsIcEENS_9allocatorIcEEED2Ev.exit1771: ; preds = %if.then.i.i1764, %invoke.cont450
  call void @llvm.memcpy.p0.p0.i64(ptr noundef nonnull align 8 dereferenceable(24) %name, ptr noundef nonnull align 8 dereferenceable(24) %ref.tmp448, i64 24, i1 false), !tbaa.struct !62
  call void @llvm.lifetime.end.p0(i64 24, ptr nonnull %ref.tmp448) #16
  %__size_.i.i1772 = getelementptr inbounds %"class.std::__1::deque.2", ptr %bnames_on_dump, i64 0, i32 2
  %246 = load i64, ptr %__size_.i.i1772, align 8, !tbaa !35
  %conv457 = trunc i64 %246 to i32
  %cmp4583072 = icmp sgt i32 %conv457, 0
  br i1 %cmp4583072, label %for.body460.lr.ph, label %cleanup520

for.body460.lr.ph:                                ; preds = %_ZNSt3__112basic_stringIcNS_11char_traitsIcEENS_9allocatorIcEEED2Ev.exit1771
  %__start_.i1773 = getelementptr inbounds %"class.std::__1::deque.2", ptr %bnames_on_dump, i64 0, i32 1
  %247 = load i64, ptr %__start_.i1773, align 8, !tbaa !56
  %__begin_.i.i1775 = getelementptr inbounds %"struct.std::__1::__split_buffer.3", ptr %bnames_on_dump, i64 0, i32 1
  %248 = load ptr, ptr %__begin_.i.i1775, align 8, !tbaa !55
  %bf.load.i.i.i1780 = load i8, ptr %name, align 8
  %bf.clear.i.i.i1781 = and i8 %bf.load.i.i.i1780, 1
  %tobool.i.not.i.i1782 = icmp eq i8 %bf.clear.i.i.i1781, 0
  %__size_.i.i.i1783 = getelementptr inbounds %"class.PP::Restartblock", ptr %this, i64 0, i32 7, i32 0, i32 0, i32 0, i32 0, i32 0, i32 1
  %249 = load i64, ptr %__size_.i.i.i1783, align 8
  %bf.lshr.i.i.i1784 = lshr i8 %bf.load.i.i.i1780, 1
  %conv.i.i.i1785 = zext i8 %bf.lshr.i.i.i1784 to i64
  %cond.i.i1786 = select i1 %tobool.i.not.i.i1782, i64 %conv.i.i.i1785, i64 %249
  %__data_.i.i.i.i1788 = getelementptr inbounds %"class.PP::Restartblock", ptr %this, i64 0, i32 7, i32 0, i32 0, i32 0, i32 0, i32 0, i32 2
  %250 = load ptr, ptr %__data_.i.i.i.i1788, align 8
  %__data_.i4.i.i.i1789 = getelementptr inbounds i8, ptr %this, i64 297
  %cond.i.i.i1790 = select i1 %tobool.i.not.i.i1782, ptr %__data_.i4.i.i.i1789, ptr %250
  %cmp9.not40.i = icmp eq i64 %cond.i.i1786, 0
  %wide.trip.count3139 = and i64 %246, 4294967295
  br label %for.body460

lpad449:                                          ; preds = %if.end.i1757
  %251 = landingpad { ptr, i32 }
          cleanup
  call void @llvm.lifetime.end.p0(i64 24, ptr nonnull %ref.tmp448) #16
  br label %ehcleanup648

for.body460:                                      ; preds = %for.body460.lr.ph, %for.inc518
  %indvars.iv3136 = phi i64 [ 0, %for.body460.lr.ph ], [ %indvars.iv.next3137, %for.inc518 ]
  %add.i1774 = add i64 %247, %indvars.iv3136
  %div.i1776 = udiv i64 %add.i1774, 170
  %add.ptr.i1777 = getelementptr inbounds ptr, ptr %248, i64 %div.i1776
  %252 = load ptr, ptr %add.ptr.i1777, align 8, !tbaa !43
  %rem.i1778 = urem i64 %add.i1774, 170
  %add.ptr2.i1779 = getelementptr inbounds %"class.std::__1::basic_string", ptr %252, i64 %rem.i1778
  %bf.load.i.i27.i = load i8, ptr %add.ptr2.i1779, align 8
  %bf.clear.i.i28.i = and i8 %bf.load.i.i27.i, 1
  %tobool.i.not.i29.i = icmp eq i8 %bf.clear.i.i28.i, 0
  %__size_.i.i30.i = getelementptr inbounds %"struct.std::__1::basic_string<char>::__long", ptr %add.ptr2.i1779, i64 0, i32 1
  %253 = load i64, ptr %__size_.i.i30.i, align 8
  %bf.lshr.i.i31.i = lshr i8 %bf.load.i.i27.i, 1
  %conv.i.i32.i = zext i8 %bf.lshr.i.i31.i to i64
  %cond.i33.i = select i1 %tobool.i.not.i29.i, i64 %conv.i.i32.i, i64 %253
  %cmp.not.i1787 = icmp eq i64 %cond.i.i1786, %cond.i33.i
  br i1 %cmp.not.i1787, label %if.end.i1791, label %for.inc518

if.end.i1791:                                     ; preds = %for.body460
  %__data_.i.i.i37.i = getelementptr inbounds %"struct.std::__1::basic_string<char>::__long", ptr %add.ptr2.i1779, i64 0, i32 2
  %254 = load ptr, ptr %__data_.i.i.i37.i, align 8
  %__data_.i4.i.i38.i = getelementptr inbounds %"struct.std::__1::basic_string<char>::__short", ptr %add.ptr2.i1779, i64 0, i32 2
  %cond.i.i39.i = select i1 %tobool.i.not.i29.i, ptr %__data_.i4.i.i38.i, ptr %254
  br i1 %tobool.i.not.i.i1782, label %for.cond.preheader.i, label %if.then5.i

for.cond.preheader.i:                             ; preds = %if.end.i1791
  br i1 %cmp9.not40.i, label %if.then465, label %for.body.i

if.then5.i:                                       ; preds = %if.end.i1791
  br i1 %cmp9.not40.i, label %if.then465, label %_ZNSt3__1eqB7v170000INS_9allocatorIcEEEEbRKNS_12basic_stringIcNS_11char_traitsIcEET_EES9_.exit

for.body.i:                                       ; preds = %for.cond.preheader.i, %for.inc.i
  %__rp.043.i = phi ptr [ %incdec.ptr14.i, %for.inc.i ], [ %cond.i.i39.i, %for.cond.preheader.i ]
  %__lp.042.i = phi ptr [ %incdec.ptr.i, %for.inc.i ], [ %__data_.i4.i.i.i1789, %for.cond.preheader.i ]
  %__lhs_sz.041.i = phi i64 [ %dec.i, %for.inc.i ], [ %conv.i.i.i1785, %for.cond.preheader.i ]
  %255 = load i8, ptr %__lp.042.i, align 1, !tbaa !47
  %256 = load i8, ptr %__rp.043.i, align 1, !tbaa !47
  %cmp11.not.i = icmp eq i8 %255, %256
  br i1 %cmp11.not.i, label %for.inc.i, label %for.inc518

for.inc.i:                                        ; preds = %for.body.i
  %dec.i = add i64 %__lhs_sz.041.i, -1
  %incdec.ptr.i = getelementptr inbounds i8, ptr %__lp.042.i, i64 1
  %incdec.ptr14.i = getelementptr inbounds i8, ptr %__rp.043.i, i64 1
  %cmp9.not.i = icmp eq i64 %dec.i, 0
  br i1 %cmp9.not.i, label %if.then465, label %for.body.i, !llvm.loop !63

_ZNSt3__1eqB7v170000INS_9allocatorIcEEEEbRKNS_12basic_stringIcNS_11char_traitsIcEET_EES9_.exit: ; preds = %if.then5.i
  %bcmp.i = call i32 @bcmp(ptr %cond.i.i.i1790, ptr %cond.i.i39.i, i64 %cond.i.i1786)
  %257 = icmp eq i32 %bcmp.i, 0
  br i1 %257, label %if.then465, label %for.inc518

if.then465:                                       ; preds = %for.cond.preheader.i, %if.then5.i, %_ZNSt3__1eqB7v170000INS_9allocatorIcEEEEbRKNS_12basic_stringIcNS_11char_traitsIcEET_EES9_.exit, %for.inc.i
  %conv4623004 = and i64 %indvars.iv3136, 4294967295
  store i32 0, ptr %active, align 8, !tbaa !5
  %__start_.i1793 = getelementptr inbounds %"class.std::__1::deque.27", ptr %baflags_on_dump, i64 0, i32 1
  %258 = load i64, ptr %__start_.i1793, align 8, !tbaa !64
  %add.i1794 = add i64 %258, %conv4623004
  %__begin_.i.i1795 = getelementptr inbounds %"struct.std::__1::__split_buffer.28", ptr %baflags_on_dump, i64 0, i32 1
  %259 = load ptr, ptr %__begin_.i.i1795, align 8, !tbaa !65
  %div4.i = lshr i64 %add.i1794, 12
  %add.ptr.i1796 = getelementptr inbounds ptr, ptr %259, i64 %div4.i
  %260 = load ptr, ptr %add.ptr.i1796, align 8, !tbaa !43
  %rem.i1797 = and i64 %add.i1794, 4095
  %add.ptr2.i1798 = getelementptr inbounds i8, ptr %260, i64 %rem.i1797
  %261 = load i8, ptr %add.ptr2.i1798, align 1, !tbaa !33, !range !66, !noundef !67
  %tobool469.not = icmp eq i8 %261, 0
  br i1 %tobool469.not, label %if.end472, label %if.then470

if.then470:                                       ; preds = %if.then465
  store i32 1, ptr %active, align 8, !tbaa !5
  br label %if.end472

if.end472:                                        ; preds = %if.then470, %if.then465
  %262 = and i64 %indvars.iv3136, 4294967295
  %cmp4743074.not = icmp eq i64 %262, 0
  %__start_.i1806.phi.trans.insert = getelementptr inbounds %"class.std::__1::deque.49", ptr %rbsatprb_on_dump, i64 0, i32 1
  %.pre3155 = load i64, ptr %__start_.i1806.phi.trans.insert, align 8, !tbaa !68
  %__begin_.i.i1808.phi.trans.insert = getelementptr inbounds %"struct.std::__1::__split_buffer.50", ptr %rbsatprb_on_dump, i64 0, i32 1
  %.pre3156 = load ptr, ptr %__begin_.i.i1808.phi.trans.insert, align 8, !tbaa !74
  br i1 %cmp4743074.not, label %for.cond485.preheader, label %for.body476.preheader

for.body476.preheader:                            ; preds = %if.end472
  %xtraiter = and i64 %indvars.iv3136, 1
  %263 = icmp eq i64 %indvars.iv3136, 1
  br i1 %263, label %for.cond485.preheader.loopexit.unr-lcssa, label %for.body476.preheader.new

for.body476.preheader.new:                        ; preds = %for.body476.preheader
  %unroll_iter = and i64 %indvars.iv3136, 9223372036854775806
  br label %for.body476

for.cond485.preheader.loopexit.unr-lcssa:         ; preds = %for.body476, %for.body476.preheader
  %add479.lcssa.ph = phi i32 [ undef, %for.body476.preheader ], [ %add479.1, %for.body476 ]
  %indvars.iv3141.unr = phi i64 [ 0, %for.body476.preheader ], [ %indvars.iv.next3142.1, %for.body476 ]
  %satdex.03075.unr = phi i32 [ 0, %for.body476.preheader ], [ %add479.1, %for.body476 ]
  %lcmp.mod.not = icmp eq i64 %xtraiter, 0
  br i1 %lcmp.mod.not, label %for.cond485.preheader, label %for.body476.epil

for.body476.epil:                                 ; preds = %for.cond485.preheader.loopexit.unr-lcssa
  %add.i1800.epil = add i64 %.pre3155, %indvars.iv3141.unr
  %div4.i1802.epil = lshr i64 %add.i1800.epil, 10
  %add.ptr.i1803.epil = getelementptr inbounds ptr, ptr %.pre3156, i64 %div4.i1802.epil
  %264 = load ptr, ptr %add.ptr.i1803.epil, align 8, !tbaa !43
  %rem.i1804.epil = and i64 %add.i1800.epil, 1023
  %add.ptr2.i1805.epil = getelementptr inbounds i32, ptr %264, i64 %rem.i1804.epil
  %265 = load i32, ptr %add.ptr2.i1805.epil, align 4, !tbaa !32
  %add479.epil = add nsw i32 %265, %satdex.03075.unr
  br label %for.cond485.preheader

for.cond485.preheader:                            ; preds = %for.body476.epil, %for.cond485.preheader.loopexit.unr-lcssa, %if.end472
  %satdex.0.lcssa = phi i32 [ 0, %if.end472 ], [ %add479.lcssa.ph, %for.cond485.preheader.loopexit.unr-lcssa ], [ %add479.epil, %for.body476.epil ]
  %__start_.i1806 = getelementptr inbounds %"class.std::__1::deque.49", ptr %rbsatprb_on_dump, i64 0, i32 1
  %__begin_.i.i1808 = getelementptr inbounds %"struct.std::__1::__split_buffer.50", ptr %rbsatprb_on_dump, i64 0, i32 1
  %add.i18073078 = add i64 %.pre3155, %conv4623004
  %div4.i18093079 = lshr i64 %add.i18073078, 10
  %add.ptr.i18103080 = getelementptr inbounds ptr, ptr %.pre3156, i64 %div4.i18093079
  %266 = load ptr, ptr %add.ptr.i18103080, align 8, !tbaa !43
  %rem.i18113081 = and i64 %add.i18073078, 1023
  %add.ptr2.i18123082 = getelementptr inbounds i32, ptr %266, i64 %rem.i18113081
  %267 = load i32, ptr %add.ptr2.i18123082, align 4, !tbaa !32
  %cmp4893084 = icmp sgt i32 %267, 0
  br i1 %cmp4893084, label %for.body491.lr.ph, label %cleanup520

for.body491.lr.ph:                                ; preds = %for.cond485.preheader
  %__data_.i.i.i1820 = getelementptr inbounds %"struct.std::__1::basic_string<char>::__short", ptr %s, i64 0, i32 2
  %cmp.i24.i.i1829 = icmp ugt ptr %__data_.i.i.i1820, @.str.33
  %add.ptr.i.i.i1830 = getelementptr inbounds %"struct.std::__1::basic_string<char>::__short", ptr %s, i64 0, i32 2, i64 5
  %cmp1.i.i.i1831 = icmp ule ptr %add.ptr.i.i.i1830, @.str.33
  %268 = or i1 %cmp.i24.i.i1829, %cmp1.i.i.i1831
  call void @llvm.assume(i1 %268)
  %__start_.i1836 = getelementptr inbounds %"class.std::__1::deque.27", ptr %rbsat_on_dump, i64 0, i32 1
