; ModuleID = '/local/mnt2/workspace2/mnadeem/llvm/llvm-test-suite/MultiSource/Benchmarks/DOE-ProxyApps-C++/CLAMR/Whenthen.cc'
source_filename = "/local/mnt2/workspace2/mnadeem/llvm/llvm-test-suite/MultiSource/Benchmarks/DOE-ProxyApps-C++/CLAMR/Whenthen.cc"
target datalayout = "e-m:e-p270:32:32-p271:32:32-p272:64:64-i64:64-f80:128-n8:16:32:64-S128"
target triple = "x86_64-unknown-linux-gnu"

%"class.std::__1::locale::id" = type <{ %"struct.std::__1::once_flag", i32, [4 x i8] }>
%"struct.std::__1::once_flag" = type { i64 }
%"class.PP::Whenthen" = type { %"class.std::__1::deque", %"class.std::__1::deque", %"class.std::__1::deque", %"class.std::__1::deque", %"class.std::__1::deque.2", %"class.std::__1::deque.27", %"class.std::__1::deque.40", i8, i8, i32 }
%"class.std::__1::deque" = type { %"struct.std::__1::__split_buffer", i64, %"class.std::__1::__compressed_pair.22" }
%"struct.std::__1::__split_buffer" = type { ptr, ptr, ptr, %"class.std::__1::__compressed_pair.16" }
%"class.std::__1::__compressed_pair.16" = type { %"struct.std::__1::__compressed_pair_elem.17" }
%"struct.std::__1::__compressed_pair_elem.17" = type { ptr }
%"class.std::__1::__compressed_pair.22" = type { %"struct.std::__1::__compressed_pair_elem.11" }
%"struct.std::__1::__compressed_pair_elem.11" = type { i64 }
%"class.std::__1::deque.2" = type { %"struct.std::__1::__split_buffer.3", i64, %"class.std::__1::__compressed_pair.10" }
%"struct.std::__1::__split_buffer.3" = type { ptr, ptr, ptr, %"class.std::__1::__compressed_pair.4" }
%"class.std::__1::__compressed_pair.4" = type { %"struct.std::__1::__compressed_pair_elem.5" }
%"struct.std::__1::__compressed_pair_elem.5" = type { ptr }
%"class.std::__1::__compressed_pair.10" = type { %"struct.std::__1::__compressed_pair_elem.11" }
%"class.std::__1::deque.27" = type { %"struct.std::__1::__split_buffer.28", i64, %"class.std::__1::__compressed_pair.35" }
%"struct.std::__1::__split_buffer.28" = type { ptr, ptr, ptr, %"class.std::__1::__compressed_pair.29" }
%"class.std::__1::__compressed_pair.29" = type { %"struct.std::__1::__compressed_pair_elem.30" }
%"struct.std::__1::__compressed_pair_elem.30" = type { ptr }
%"class.std::__1::__compressed_pair.35" = type { %"struct.std::__1::__compressed_pair_elem.11" }
%"class.std::__1::deque.40" = type { %"struct.std::__1::__split_buffer.41", i64, %"class.std::__1::__compressed_pair.57" }
%"struct.std::__1::__split_buffer.41" = type { ptr, ptr, ptr, %"class.std::__1::__compressed_pair.51" }
%"class.std::__1::__compressed_pair.51" = type { %"struct.std::__1::__compressed_pair_elem.52" }
%"struct.std::__1::__compressed_pair_elem.52" = type { ptr }
%"class.std::__1::__compressed_pair.57" = type { %"struct.std::__1::__compressed_pair_elem.11" }
%"class.std::__1::locale" = type { ptr }
%"class.std::__1::basic_string" = type { %"class.std::__1::__compressed_pair" }
%"class.std::__1::__compressed_pair" = type { %"struct.std::__1::__compressed_pair_elem" }
%"struct.std::__1::__compressed_pair_elem" = type { %"struct.std::__1::basic_string<char>::__rep" }
%"struct.std::__1::basic_string<char>::__rep" = type { %union.anon }
%union.anon = type { %"struct.std::__1::basic_string<char>::__long" }
%"struct.std::__1::basic_string<char>::__long" = type { %struct.anon, i64, ptr }
%struct.anon = type { i64 }
%"class.PP::Cmd" = type { i32, i32, %"class.std::__1::basic_string", ptr, %"class.std::__1::basic_string", ptr, ptr, %"class.std::__1::basic_string", %"class.std::__1::basic_string", %"class.std::__1::deque", %"class.std::__1::basic_string", %"class.std::__1::basic_string", %"class.std::__1::vector", %"class.std::__1::vector", %"class.std::__1::vector.45", %"class.std::__1::vector.45" }
%"class.std::__1::vector" = type { ptr, ptr, %"class.std::__1::__compressed_pair.43" }
%"class.std::__1::__compressed_pair.43" = type { %"struct.std::__1::__compressed_pair_elem.44" }
%"struct.std::__1::__compressed_pair_elem.44" = type { ptr }
%"class.std::__1::vector.45" = type { ptr, i64, %"class.std::__1::__compressed_pair.46" }
%"class.std::__1::__compressed_pair.46" = type { %"struct.std::__1::__compressed_pair_elem.11" }
%"class.PP::Word" = type { %"class.std::__1::basic_string", i32, i8, i8, i32, i32, %"class.std::__1::basic_string", i32, i32, %"class.std::__1::basic_string", ptr }
%"struct.std::__1::basic_string<char>::__short" = type { %struct.anon.0, [0 x i8], [23 x i8] }
%struct.anon.0 = type { i8 }
%"class.PP::Parser_math" = type { i8 }
%"struct.std::__1::pair.130" = type { %"class.std::__1::__deque_iterator", %"class.std::__1::__deque_iterator" }
%"class.std::__1::__deque_iterator" = type { ptr, ptr }
%"struct.std::__1::__overload.84" = type { i8 }
%"struct.std::__1::__overload.85" = type { i8 }
%"class.std::__1::basic_ostream<char>::sentry" = type { i8, ptr }
%"class.std::__1::ios_base" = type { ptr, i32, i64, i64, i32, i32, ptr, ptr, ptr, ptr, i64, i64, ptr, i64, i64, ptr, i64, i64 }
%"class.std::__1::basic_ios" = type <{ %"class.std::__1::ios_base", ptr, i32, [4 x i8] }>
%"struct.std::__1::__exception_guard_exceptions.121" = type <{ %"class.std::__1::_AllocatorDestroyRangeReverse", i8, [7 x i8] }>
%"class.std::__1::_AllocatorDestroyRangeReverse" = type { ptr, ptr, ptr }
%"struct.std::__1::__exception_guard_exceptions" = type <{ %"class.std::__1::vector<std::__1::string>::__destroy_vector", i8, [7 x i8] }>
%"class.std::__1::vector<std::__1::string>::__destroy_vector" = type { ptr }
%"class.std::__1::__bit_iterator.125" = type <{ ptr, i32, [4 x i8] }>

$_ZNSt3__15dequeIN2PP3CmdENS_9allocatorIS2_EEED2B7v170000Ev = comdat any

$_ZNSt3__15dequeIbNS_9allocatorIbEEED2B7v170000Ev = comdat any

$_ZNSt3__15dequeINS_12basic_stringIcNS_11char_traitsIcEENS_9allocatorIcEEEENS4_IS6_EEED2B7v170000Ev = comdat any

$_ZNSt3__15dequeIN2PP4WordENS_9allocatorIS2_EEED2B7v170000Ev = comdat any

$_ZNSt3__15dequeIN2PP4WordENS_9allocatorIS2_EEE5eraseENS_16__deque_iteratorIS2_PKS2_RS7_PKS8_lLl39EEESC_ = comdat any

$_ZNSt3__15dequeIN2PP4WordENS_9allocatorIS2_EEE6insertENS_16__deque_iteratorIS2_PKS2_RS7_PKS8_lLl39EEES9_ = comdat any

$__clang_call_terminate = comdat any

$_ZNSt3__120__throw_length_errorB7v170000EPKc = comdat any

$_ZNSt12length_errorC2B7v170000EPKc = comdat any

$_ZSt28__throw_bad_array_new_lengthB7v170000v = comdat any

$_ZNSt3__114__split_bufferIPN2PP4WordENS_9allocatorIS3_EEED2Ev = comdat any

$_ZN2PP3CmdD2Ev = comdat any

$_ZNSt3__16vectorINS_12basic_stringIcNS_11char_traitsIcEENS_9allocatorIcEEEENS4_IS6_EEED2B7v170000Ev = comdat any

$_ZNSt3__124__put_character_sequenceB7v170000IcNS_11char_traitsIcEEEERNS_13basic_ostreamIT_T0_EES7_PKS4_m = comdat any

$_ZNSt3__116__pad_and_outputB7v170000IcNS_11char_traitsIcEEEENS_19ostreambuf_iteratorIT_T0_EES6_PKS4_S8_S8_RNS_8ios_baseES4_ = comdat any

$_ZNSt3__15dequeINS_12basic_stringIcNS_11char_traitsIcEENS_9allocatorIcEEEENS4_IS6_EEE19__add_back_capacityEv = comdat any

$_ZNSt3__114__split_bufferIPNS_12basic_stringIcNS_11char_traitsIcEENS_9allocatorIcEEEENS4_IS7_EEE9push_backEOS7_ = comdat any

$_ZNSt3__114__split_bufferIPNS_12basic_stringIcNS_11char_traitsIcEENS_9allocatorIcEEEENS4_IS7_EEE10push_frontEOS7_ = comdat any

$_ZNSt3__15dequeIbNS_9allocatorIbEEE19__add_back_capacityEv = comdat any

$_ZNSt3__114__split_bufferIPbNS_9allocatorIS1_EEE9push_backEOS1_ = comdat any

$_ZNSt3__114__split_bufferIPbNS_9allocatorIS1_EEE10push_frontEOS1_ = comdat any

$_ZNSt3__15dequeIN2PP4WordENS_9allocatorIS2_EEE19__add_back_capacityEv = comdat any

$_ZNSt3__114__split_bufferIPN2PP4WordENS_9allocatorIS3_EEE9push_backEOS3_ = comdat any

$_ZNSt3__114__split_bufferIPN2PP4WordENS_9allocatorIS3_EEE10push_frontEOS3_ = comdat any

$_ZNSt3__15dequeIN2PP3CmdENS_9allocatorIS2_EEE19__add_back_capacityEv = comdat any

$_ZNSt3__114__split_bufferIPN2PP3CmdENS_9allocatorIS3_EEE9push_backEOS3_ = comdat any

$_ZNSt3__114__split_bufferIPN2PP3CmdENS_9allocatorIS3_EEE10push_frontEOS3_ = comdat any

$_ZN2PP3CmdC2ERKS0_ = comdat any

$_ZNSt3__16vectorINS_12basic_stringIcNS_11char_traitsIcEENS_9allocatorIcEEEENS4_IS6_EEEC2ERKS8_ = comdat any

$_ZNSt3__15dequeIN2PP4WordENS_9allocatorIS2_EEE8__appendINS_16__deque_iteratorIS2_PKS2_RS8_PKS9_lLl39EEEEEvT_SE_PNS_9enable_ifIXsr27__is_cpp17_forward_iteratorISE_EE5valueEvE4typeE = comdat any

$_ZNSt3__15dequeIN2PP4WordENS_9allocatorIS2_EEE19__add_back_capacityEm = comdat any

$_ZNSt3__128__exception_guard_exceptionsINS_6vectorINS_12basic_stringIcNS_11char_traitsIcEENS_9allocatorIcEEEENS5_IS7_EEE16__destroy_vectorEED2B7v170000Ev = comdat any

$_ZNKSt3__16vectorINS_12basic_stringIcNS_11char_traitsIcEENS_9allocatorIcEEEENS4_IS6_EEE20__throw_length_errorB7v170000Ev = comdat any

$_ZNSt3__128__exception_guard_exceptionsINS_29_AllocatorDestroyRangeReverseINS_9allocatorINS_12basic_stringIcNS_11char_traitsIcEENS2_IcEEEEEEPS7_EEED2B7v170000Ev = comdat any

$_ZNSt3__16vectorIbNS_9allocatorIbEEE18__construct_at_endINS_14__bit_iteratorIS3_Lb1ELm0EEEEENS_9enable_ifIXsr27__is_cpp17_forward_iteratorIT_EE5valueEvE4typeES8_S8_ = comdat any

$_ZNKSt3__16vectorIbNS_9allocatorIbEEE20__throw_length_errorB7v170000Ev = comdat any

$_ZNSt3__116__copy_unalignedB7v170000INS_6vectorIbNS_9allocatorIbEEEELb1EEENS_14__bit_iteratorIT_Lb0ELi0EEENS5_IS6_XT0_ELi0EEES8_S7_ = comdat any

$_ZNKSt3__120__move_backward_loopINS_17_ClassicAlgPolicyEEclB7v170000INS_16__deque_iteratorIN2PP4WordEPS6_RS6_PS7_lLl39EEESA_Li0EEENS_4pairIT_T0_EESC_SC_SD_ = comdat any

$_ZNKSt3__111__move_loopINS_17_ClassicAlgPolicyEEclB7v170000INS_16__deque_iteratorIN2PP4WordEPS6_RS6_PS7_lLl39EEESA_Li0EEENS_4pairIT_T0_EESC_SC_SD_ = comdat any

$_ZNSt3__15dequeIN2PP4WordENS_9allocatorIS2_EEE20__add_front_capacityEv = comdat any

$_ZNSt3__15dequeIN2PP4WordENS_9allocatorIS2_EEE16__move_and_checkENS_16__deque_iteratorIS2_PS2_RS2_PS7_lLl39EEESA_SA_RPKS2_ = comdat any

$_ZNSt3__15dequeIN2PP4WordENS_9allocatorIS2_EEE25__move_backward_and_checkENS_16__deque_iteratorIS2_PS2_RS2_PS7_lLl39EEESA_SA_RPKS2_ = comdat any

$_ZNSt3__114__split_bufferIPN2PP4WordENS_9allocatorIS3_EEE10push_frontERKS3_ = comdat any

@.str = private unnamed_addr constant [59 x i8] c"A when command line must have at least 7 words on it (the \00", align 1
@.str.1 = private unnamed_addr constant [53 x i8] c"opening and closing parenthses each count as a word)\00", align 1
@.str.2 = private unnamed_addr constant [28 x i8] c"This when command only has \00", align 1
@.str.3 = private unnamed_addr constant [14 x i8] c" words on it.\00", align 1
@.str.4 = private unnamed_addr constant [44 x i8] c"Expected something like (this has 7 words):\00", align 1
@.str.5 = private unnamed_addr constant [28 x i8] c"    when (time .gt. 5) then\00", align 1
@.str.6 = private unnamed_addr constant [55 x i8] c"Or perhaps a single line when like (this has 9 words):\00", align 1
@.str.7 = private unnamed_addr constant [39 x i8] c"    when (time .gt. 5) shortmodcyc = 5\00", align 1
@.str.9 = private unnamed_addr constant [57 x i8] c"Expected an open parentheses following the when keyword.\00", align 1
@.str.10 = private unnamed_addr constant [15 x i8] c"Instead found \00", align 1
@.str.11 = private unnamed_addr constant [29 x i8] c" following the when keyword.\00", align 1
@.str.12 = private unnamed_addr constant [43 x i8] c"The when command should be something like:\00", align 1
@.str.13 = private unnamed_addr constant [36 x i8] c"Or perhaps a single line when like:\00", align 1
@.str.14 = private unnamed_addr constant [5 x i8] c"then\00", align 1
@.str.15 = private unnamed_addr constant [51 x i8] c"Found a then keyword embedded in the when command.\00", align 1
@.str.16 = private unnamed_addr constant [67 x i8] c"If a then keyword is present it must be the last word on the line.\00", align 1
@.str.18 = private unnamed_addr constant [54 x i8] c"Expected a close parentheses following the condition.\00", align 1
@.str.19 = private unnamed_addr constant [34 x i8] c"Did not find a close parentheses.\00", align 1
@.str.20 = private unnamed_addr constant [52 x i8] c"Wrong number of words in the when...then condition.\00", align 1
@.str.21 = private unnamed_addr constant [42 x i8] c"The number of words in this condition is \00", align 1
@.str.22 = private unnamed_addr constant [51 x i8] c"The number of words + 1 should be a multiple of 4.\00", align 1
@.str.23 = private unnamed_addr constant [40 x i8] c"The condition should be something like:\00", align 1
@.str.24 = private unnamed_addr constant [16 x i8] c"    time .gt. 5\00", align 1
@.str.25 = private unnamed_addr constant [45 x i8] c"This has 3 words and 3+1 is a multiple of 4.\00", align 1
@.str.26 = private unnamed_addr constant [26 x i8] c"Or the following is valid\00", align 1
@.str.27 = private unnamed_addr constant [37 x i8] c"    time .gt. 5 .and. ncycle .ge. 10\00", align 1
@.str.28 = private unnamed_addr constant [45 x i8] c"This has 7 words and 7+1 is a multiple of 4.\00", align 1
@.str.29 = private unnamed_addr constant [5 x i8] c"none\00", align 1
@.str.30 = private unnamed_addr constant [6 x i8] c"false\00", align 1
@.str.31 = private unnamed_addr constant [7 x i8] c".hglt.\00", align 1
@.str.32 = private unnamed_addr constant [7 x i8] c".hgle.\00", align 1
@.str.33 = private unnamed_addr constant [7 x i8] c".hgeq.\00", align 1
@.str.34 = private unnamed_addr constant [7 x i8] c".hgne.\00", align 1
@.str.35 = private unnamed_addr constant [7 x i8] c".hggt.\00", align 1
@.str.36 = private unnamed_addr constant [7 x i8] c".hgge.\00", align 1
@.str.37 = private unnamed_addr constant [5 x i8] c".lt.\00", align 1
@.str.38 = private unnamed_addr constant [5 x i8] c".le.\00", align 1
@.str.39 = private unnamed_addr constant [5 x i8] c".eq.\00", align 1
@.str.40 = private unnamed_addr constant [5 x i8] c".ne.\00", align 1
@.str.41 = private unnamed_addr constant [5 x i8] c".gt.\00", align 1
@.str.42 = private unnamed_addr constant [5 x i8] c".ge.\00", align 1
@.str.43 = private unnamed_addr constant [30 x i8] c"Invalid when...then relation.\00", align 1
@.str.44 = private unnamed_addr constant [45 x i8] c"Expected  .lt., .le., .eq., .ne., .gt., .ge.\00", align 1
@.str.45 = private unnamed_addr constant [61 x i8] c"Also could be .hglt., .hgle., .hgeq., .hgne., .hggt., .hgge.\00", align 1
@.str.46 = private unnamed_addr constant [26 x i8] c"Instead found relation:  \00", align 1
@.str.47 = private unnamed_addr constant [5 x i8] c"true\00", align 1
@.str.48 = private unnamed_addr constant [10 x i8] c".andthen.\00", align 1
@.str.50 = private unnamed_addr constant [11 x i8] c"relational\00", align 1
@.str.51 = private unnamed_addr constant [8 x i8] c"logical\00", align 1
@.str.52 = private unnamed_addr constant [66 x i8] c"When...then condition did not evaluate to a single boolean value.\00", align 1
@.str.53 = private unnamed_addr constant [30 x i8] c"Fix the when...then condition\00", align 1
@.str.54 = private unnamed_addr constant [7 x i8] c"hasgot\00", align 1
@.str.55 = private unnamed_addr constant [9 x i8] c"        \00", align 1
@.str.56 = private unnamed_addr constant [2 x i8] c" \00", align 1
@_ZTISt12length_error = external constant ptr
@_ZTVSt12length_error = external unnamed_addr constant { [5 x ptr] }, align 8
@_ZTISt20bad_array_new_length = external constant ptr
@_ZNSt3__15ctypeIcE2idE = external global %"class.std::__1::locale::id", align 8
@.str.58 = private unnamed_addr constant [7 x i8] c"vector\00", align 1

@_ZN2PP8WhenthenC1Ev = dso_local unnamed_addr alias void (ptr), ptr @_ZN2PP8WhenthenC2Ev
@_ZN2PP8WhenthenC1ERiRNS_3CmdERbS4_bRNSt3__118basic_stringstreamIcNS5_11char_traitsIcEENS5_9allocatorIcEEEES1_ = dso_local unnamed_addr alias void (ptr, ptr, ptr, ptr, ptr, i1, ptr, ptr), ptr @_ZN2PP8WhenthenC2ERiRNS_3CmdERbS4_bRNSt3__118basic_stringstreamIcNS5_11char_traitsIcEENS5_9allocatorIcEEEES1_

; Function Attrs: mustprogress nofree nosync nounwind willreturn memory(argmem: write) uwtable
define dso_local void @_ZN2PP8WhenthenC2Ev(ptr nocapture noundef nonnull writeonly align 8 dereferenceable(344) %this) unnamed_addr #0 align 2 personality ptr @__gxx_personality_v0 {
entry:
  %seqdex = getelementptr inbounds %"class.PP::Whenthen", ptr %this, i64 0, i32 9
  tail call void @llvm.memset.p0.i64(ptr noundef nonnull align 8 dereferenceable(337) %this, i8 0, i64 337, i1 false)
  store i32 -1, ptr %seqdex, align 4, !tbaa !5
  %ever_flag = getelementptr inbounds %"class.PP::Whenthen", ptr %this, i64 0, i32 8
  store i8 0, ptr %ever_flag, align 1, !tbaa !34
  ret void
}

; Function Attrs: uwtable
define dso_local void @_ZN2PP8WhenthenC2ERiRNS_3CmdERbS4_bRNSt3__118basic_stringstreamIcNS5_11char_traitsIcEENS5_9allocatorIcEEEES1_(ptr noundef nonnull align 8 dereferenceable(344) %this, ptr nocapture noundef nonnull align 4 dereferenceable(4) %nwhen, ptr noundef nonnull align 8 dereferenceable(320) %cmdi, ptr nocapture noundef nonnull writeonly align 1 dereferenceable(1) %skipwhen, ptr nocapture noundef nonnull writeonly align 1 dereferenceable(1) %single_line_when, i1 noundef zeroext %eflag, ptr noundef nonnull align 8 dereferenceable(128) %serr, ptr noundef nonnull align 4 dereferenceable(4) %ierr) unnamed_addr #1 align 2 personality ptr @__gxx_personality_v0 {
entry:
  %ref.tmp.i.i2711 = alloca %"class.std::__1::locale", align 8
  %ref.tmp.i.i2692 = alloca %"class.std::__1::locale", align 8
  %ref.tmp.i.i2673 = alloca %"class.std::__1::locale", align 8
  %ref.tmp.i.i2655 = alloca %"class.std::__1::locale", align 8
  %ref.tmp.i.i2636 = alloca %"class.std::__1::locale", align 8
  %ref.tmp.i.i2617 = alloca %"class.std::__1::locale", align 8
  %ref.tmp.i.i2598 = alloca %"class.std::__1::locale", align 8
  %ref.tmp.i.i2579 = alloca %"class.std::__1::locale", align 8
  %ref.tmp.i.i2560 = alloca %"class.std::__1::locale", align 8
  %ref.tmp.i.i2541 = alloca %"class.std::__1::locale", align 8
  %ref.tmp.i.i2522 = alloca %"class.std::__1::locale", align 8
  %ref.tmp.i.i2503 = alloca %"class.std::__1::locale", align 8
  %ref.tmp.i.i2485 = alloca %"class.std::__1::locale", align 8
  %ref.tmp.i.i2466 = alloca %"class.std::__1::locale", align 8
  %ref.tmp.i.i2447 = alloca %"class.std::__1::locale", align 8
  %ref.tmp.i.i2428 = alloca %"class.std::__1::locale", align 8
  %ref.tmp.i.i2409 = alloca %"class.std::__1::locale", align 8
  %ref.tmp.i.i2390 = alloca %"class.std::__1::locale", align 8
  %ref.tmp.i.i2372 = alloca %"class.std::__1::locale", align 8
  %ref.tmp.i.i2353 = alloca %"class.std::__1::locale", align 8
  %ref.tmp.i.i2334 = alloca %"class.std::__1::locale", align 8
  %ref.tmp.i.i2315 = alloca %"class.std::__1::locale", align 8
  %ref.tmp.i.i2296 = alloca %"class.std::__1::locale", align 8
  %ref.tmp.i.i2277 = alloca %"class.std::__1::locale", align 8
  %ref.tmp.i.i2259 = alloca %"class.std::__1::locale", align 8
  %ref.tmp.i.i2240 = alloca %"class.std::__1::locale", align 8
  %ref.tmp.i.i2221 = alloca %"class.std::__1::locale", align 8
  %ref.tmp.i.i2202 = alloca %"class.std::__1::locale", align 8
  %ref.tmp.i.i2183 = alloca %"class.std::__1::locale", align 8
  %ref.tmp.i.i2164 = alloca %"class.std::__1::locale", align 8
  %ref.tmp.i.i2146 = alloca %"class.std::__1::locale", align 8
  %ref.tmp.i.i2127 = alloca %"class.std::__1::locale", align 8
  %ref.tmp.i.i2108 = alloca %"class.std::__1::locale", align 8
  %ref.tmp.i.i2089 = alloca %"class.std::__1::locale", align 8
  %ref.tmp.i.i2070 = alloca %"class.std::__1::locale", align 8
  %ref.tmp.i.i2051 = alloca %"class.std::__1::locale", align 8
  %ref.tmp.i.i2032 = alloca %"class.std::__1::locale", align 8
  %ref.tmp.i.i = alloca %"class.std::__1::locale", align 8
  %p1 = alloca %"class.std::__1::basic_string", align 8
  %t1 = alloca %"class.std::__1::basic_string", align 8
  %pi = alloca %"class.std::__1::basic_string", align 8
  %agg.tmp = alloca %"class.std::__1::basic_string", align 8
  %ref.tmp = alloca %"class.std::__1::basic_string", align 8
  %ref.tmp281 = alloca %"class.std::__1::basic_string", align 8
  %ref.tmp291 = alloca %"class.std::__1::basic_string", align 8
  %ref.tmp301 = alloca %"class.std::__1::basic_string", align 8
  %ref.tmp311 = alloca %"class.std::__1::basic_string", align 8
  %ref.tmp321 = alloca %"class.std::__1::basic_string", align 8
  %ref.tmp331 = alloca %"class.std::__1::basic_string", align 8
  %ref.tmp341 = alloca %"class.std::__1::basic_string", align 8
  %ref.tmp351 = alloca %"class.std::__1::basic_string", align 8
  %ref.tmp361 = alloca %"class.std::__1::basic_string", align 8
  %ref.tmp371 = alloca %"class.std::__1::basic_string", align 8
  %ref.tmp381 = alloca %"class.std::__1::basic_string", align 8
  %ref.tmp391 = alloca %"class.std::__1::basic_string", align 8
  %ref.tmp426 = alloca %"class.std::__1::basic_string", align 8
  %ref.tmp458 = alloca %"class.std::__1::basic_string", align 8
  %ref.tmp473 = alloca %"class.std::__1::basic_string", align 8
  %ref.tmp487 = alloca %"class.std::__1::basic_string", align 8
  %ref.tmp501 = alloca %"class.std::__1::basic_string", align 8
  %ref.tmp515 = alloca %"class.std::__1::basic_string", align 8
  %ref.tmp529 = alloca %"class.std::__1::basic_string", align 8
  %ref.tmp556 = alloca %"class.std::__1::basic_string", align 8
  %frombool = zext i1 %eflag to i8
  %relation = getelementptr inbounds %"class.PP::Whenthen", ptr %this, i64 0, i32 1
  %value = getelementptr inbounds %"class.PP::Whenthen", ptr %this, i64 0, i32 2
  %logop = getelementptr inbounds %"class.PP::Whenthen", ptr %this, i64 0, i32 3
  %satisfied = getelementptr inbounds %"class.PP::Whenthen", ptr %this, i64 0, i32 4
  %has_got = getelementptr inbounds %"class.PP::Whenthen", ptr %this, i64 0, i32 5
  %seqdex = getelementptr inbounds %"class.PP::Whenthen", ptr %this, i64 0, i32 9
  tail call void @llvm.memset.p0.i64(ptr noundef nonnull align 8 dereferenceable(337) %this, i8 0, i64 337, i1 false)
  store i32 -1, ptr %seqdex, align 4, !tbaa !5
  %ever_flag = getelementptr inbounds %"class.PP::Whenthen", ptr %this, i64 0, i32 8
  store i8 %frombool, ptr %ever_flag, align 1, !tbaa !34
  %0 = load i32, ptr %nwhen, align 4, !tbaa !35
  %add = add nsw i32 %0, 1
  store i32 %add, ptr %nwhen, align 4, !tbaa !35
  store i8 1, ptr %skipwhen, align 1, !tbaa !36
  store i8 0, ptr %single_line_when, align 1, !tbaa !36
  %__size_.i.i.i = getelementptr inbounds %"class.PP::Cmd", ptr %cmdi, i64 0, i32 9, i32 2
  %1 = load i64, ptr %__size_.i.i.i, align 8, !tbaa !37
  %conv.i = trunc i64 %1 to i32
  %cmp = icmp slt i32 %conv.i, 7
  br i1 %cmp, label %if.then, label %if.end.i

if.then:                                          ; preds = %entry
  invoke void @_ZN2PP3Cmd11fatal_errorEiRNSt3__118basic_stringstreamIcNS1_11char_traitsIcEENS1_9allocatorIcEEEERi(ptr noundef nonnull align 8 dereferenceable(320) %cmdi, i32 noundef 0, ptr noundef nonnull align 8 dereferenceable(128) %serr, ptr noundef nonnull align 4 dereferenceable(4) %ierr)
          to label %invoke.cont3 unwind label %lpad

invoke.cont3:                                     ; preds = %if.then
  %add.ptr = getelementptr inbounds i8, ptr %serr, i64 16
  %call1.i742 = invoke noundef nonnull align 8 dereferenceable(8) ptr @_ZNSt3__124__put_character_sequenceB7v170000IcNS_11char_traitsIcEEEERNS_13basic_ostreamIT_T0_EES7_PKS4_m(ptr noundef nonnull align 8 dereferenceable(8) %add.ptr, ptr noundef nonnull @.str, i64 noundef 58)
          to label %invoke.cont4 unwind label %lpad

invoke.cont4:                                     ; preds = %invoke.cont3
  %vtable.i = load ptr, ptr %call1.i742, align 8, !tbaa !38
  %vbase.offset.ptr.i = getelementptr i8, ptr %vtable.i, i64 -24
  %vbase.offset.i = load i64, ptr %vbase.offset.ptr.i, align 8
  %add.ptr.i2027 = getelementptr inbounds i8, ptr %call1.i742, i64 %vbase.offset.i
  call void @llvm.lifetime.start.p0(i64 8, ptr nonnull %ref.tmp.i.i) #23
  invoke void @_ZNKSt3__18ios_base6getlocEv(ptr nonnull sret(%"class.std::__1::locale") align 8 %ref.tmp.i.i, ptr noundef nonnull align 8 dereferenceable(136) %add.ptr.i2027)
          to label %.noexc2029 unwind label %lpad

.noexc2029:                                       ; preds = %invoke.cont4
  %call.i5.i.i = invoke noundef ptr @_ZNKSt3__16locale9use_facetERNS0_2idE(ptr noundef nonnull align 8 dereferenceable(8) %ref.tmp.i.i, ptr noundef nonnull align 8 dereferenceable(12) @_ZNSt3__15ctypeIcE2idE)
          to label %invoke.cont.i.i2028 unwind label %lpad.i.i

invoke.cont.i.i2028:                              ; preds = %.noexc2029
  %vtable.i.i.i = load ptr, ptr %call.i5.i.i, align 8, !tbaa !38
  %vfn.i.i.i = getelementptr inbounds ptr, ptr %vtable.i.i.i, i64 7
  %2 = load ptr, ptr %vfn.i.i.i, align 8
  %call.i6.i.i = invoke noundef signext i8 %2(ptr noundef nonnull align 8 dereferenceable(25) %call.i5.i.i, i8 noundef signext 10)
          to label %_ZNKSt3__19basic_iosIcNS_11char_traitsIcEEE5widenB7v170000Ec.exit.i unwind label %lpad.i.i

lpad.i.i:                                         ; preds = %invoke.cont.i.i2028, %.noexc2029
  %3 = landingpad { ptr, i32 }
          cleanup
  call void @_ZNSt3__16localeD1Ev(ptr noundef nonnull align 8 dereferenceable(8) %ref.tmp.i.i) #23
  call void @llvm.lifetime.end.p0(i64 8, ptr nonnull %ref.tmp.i.i) #23
  br label %ehcleanup577

_ZNKSt3__19basic_iosIcNS_11char_traitsIcEEE5widenB7v170000Ec.exit.i: ; preds = %invoke.cont.i.i2028
  call void @_ZNSt3__16localeD1Ev(ptr noundef nonnull align 8 dereferenceable(8) %ref.tmp.i.i) #23
  call void @llvm.lifetime.end.p0(i64 8, ptr nonnull %ref.tmp.i.i) #23
  %call1.i2030 = invoke noundef nonnull align 8 dereferenceable(8) ptr @_ZNSt3__113basic_ostreamIcNS_11char_traitsIcEEE3putEc(ptr noundef nonnull align 8 dereferenceable(8) %call1.i742, i8 noundef signext %call.i6.i.i)
          to label %call1.i.noexc unwind label %lpad

call1.i.noexc:                                    ; preds = %_ZNKSt3__19basic_iosIcNS_11char_traitsIcEEE5widenB7v170000Ec.exit.i
  %call2.i2031 = invoke noundef nonnull align 8 dereferenceable(8) ptr @_ZNSt3__113basic_ostreamIcNS_11char_traitsIcEEE5flushEv(ptr noundef nonnull align 8 dereferenceable(8) %call1.i742)
          to label %invoke.cont6 unwind label %lpad

invoke.cont6:                                     ; preds = %call1.i.noexc
  %call1.i745 = invoke noundef nonnull align 8 dereferenceable(8) ptr @_ZNSt3__124__put_character_sequenceB7v170000IcNS_11char_traitsIcEEEERNS_13basic_ostreamIT_T0_EES7_PKS4_m(ptr noundef nonnull align 8 dereferenceable(8) %call1.i742, ptr noundef nonnull @.str.1, i64 noundef 52)
          to label %invoke.cont8 unwind label %lpad

invoke.cont8:                                     ; preds = %invoke.cont6
  %vtable.i2033 = load ptr, ptr %call1.i745, align 8, !tbaa !38
  %vbase.offset.ptr.i2034 = getelementptr i8, ptr %vtable.i2033, i64 -24
  %vbase.offset.i2035 = load i64, ptr %vbase.offset.ptr.i2034, align 8
  %add.ptr.i2036 = getelementptr inbounds i8, ptr %call1.i745, i64 %vbase.offset.i2035
  call void @llvm.lifetime.start.p0(i64 8, ptr nonnull %ref.tmp.i.i2032) #23
  invoke void @_ZNKSt3__18ios_base6getlocEv(ptr nonnull sret(%"class.std::__1::locale") align 8 %ref.tmp.i.i2032, ptr noundef nonnull align 8 dereferenceable(136) %add.ptr.i2036)
          to label %.noexc2044 unwind label %lpad

.noexc2044:                                       ; preds = %invoke.cont8
  %call.i5.i.i2037 = invoke noundef ptr @_ZNKSt3__16locale9use_facetERNS0_2idE(ptr noundef nonnull align 8 dereferenceable(8) %ref.tmp.i.i2032, ptr noundef nonnull align 8 dereferenceable(12) @_ZNSt3__15ctypeIcE2idE)
          to label %invoke.cont.i.i2041 unwind label %lpad.i.i2042

invoke.cont.i.i2041:                              ; preds = %.noexc2044
  %vtable.i.i.i2038 = load ptr, ptr %call.i5.i.i2037, align 8, !tbaa !38
  %vfn.i.i.i2039 = getelementptr inbounds ptr, ptr %vtable.i.i.i2038, i64 7
  %4 = load ptr, ptr %vfn.i.i.i2039, align 8
  %call.i6.i.i2040 = invoke noundef signext i8 %4(ptr noundef nonnull align 8 dereferenceable(25) %call.i5.i.i2037, i8 noundef signext 10)
          to label %_ZNKSt3__19basic_iosIcNS_11char_traitsIcEEE5widenB7v170000Ec.exit.i2043 unwind label %lpad.i.i2042

lpad.i.i2042:                                     ; preds = %invoke.cont.i.i2041, %.noexc2044
  %5 = landingpad { ptr, i32 }
          cleanup
  call void @_ZNSt3__16localeD1Ev(ptr noundef nonnull align 8 dereferenceable(8) %ref.tmp.i.i2032) #23
  call void @llvm.lifetime.end.p0(i64 8, ptr nonnull %ref.tmp.i.i2032) #23
  br label %ehcleanup577

_ZNKSt3__19basic_iosIcNS_11char_traitsIcEEE5widenB7v170000Ec.exit.i2043: ; preds = %invoke.cont.i.i2041
  call void @_ZNSt3__16localeD1Ev(ptr noundef nonnull align 8 dereferenceable(8) %ref.tmp.i.i2032) #23
  call void @llvm.lifetime.end.p0(i64 8, ptr nonnull %ref.tmp.i.i2032) #23
  %call1.i2048 = invoke noundef nonnull align 8 dereferenceable(8) ptr @_ZNSt3__113basic_ostreamIcNS_11char_traitsIcEEE3putEc(ptr noundef nonnull align 8 dereferenceable(8) %call1.i745, i8 noundef signext %call.i6.i.i2040)
          to label %call1.i.noexc2047 unwind label %lpad

call1.i.noexc2047:                                ; preds = %_ZNKSt3__19basic_iosIcNS_11char_traitsIcEEE5widenB7v170000Ec.exit.i2043
  %call2.i2049 = invoke noundef nonnull align 8 dereferenceable(8) ptr @_ZNSt3__113basic_ostreamIcNS_11char_traitsIcEEE5flushEv(ptr noundef nonnull align 8 dereferenceable(8) %call1.i745)
          to label %invoke.cont10 unwind label %lpad

invoke.cont10:                                    ; preds = %call1.i.noexc2047
  %call1.i750 = invoke noundef nonnull align 8 dereferenceable(8) ptr @_ZNSt3__124__put_character_sequenceB7v170000IcNS_11char_traitsIcEEEERNS_13basic_ostreamIT_T0_EES7_PKS4_m(ptr noundef nonnull align 8 dereferenceable(8) %add.ptr, ptr noundef nonnull @.str.2, i64 noundef 27)
          to label %invoke.cont13 unwind label %lpad

invoke.cont13:                                    ; preds = %invoke.cont10
  %call16 = invoke noundef nonnull align 8 dereferenceable(8) ptr @_ZNSt3__113basic_ostreamIcNS_11char_traitsIcEEElsEi(ptr noundef nonnull align 8 dereferenceable(8) %call1.i750, i32 noundef %conv.i)
          to label %invoke.cont15 unwind label %lpad

invoke.cont15:                                    ; preds = %invoke.cont13
  %call1.i753 = invoke noundef nonnull align 8 dereferenceable(8) ptr @_ZNSt3__124__put_character_sequenceB7v170000IcNS_11char_traitsIcEEEERNS_13basic_ostreamIT_T0_EES7_PKS4_m(ptr noundef nonnull align 8 dereferenceable(8) %call16, ptr noundef nonnull @.str.3, i64 noundef 13)
          to label %invoke.cont17 unwind label %lpad

invoke.cont17:                                    ; preds = %invoke.cont15
  %vtable.i2052 = load ptr, ptr %call1.i753, align 8, !tbaa !38
  %vbase.offset.ptr.i2053 = getelementptr i8, ptr %vtable.i2052, i64 -24
  %vbase.offset.i2054 = load i64, ptr %vbase.offset.ptr.i2053, align 8
  %add.ptr.i2055 = getelementptr inbounds i8, ptr %call1.i753, i64 %vbase.offset.i2054
  call void @llvm.lifetime.start.p0(i64 8, ptr nonnull %ref.tmp.i.i2051) #23
  invoke void @_ZNKSt3__18ios_base6getlocEv(ptr nonnull sret(%"class.std::__1::locale") align 8 %ref.tmp.i.i2051, ptr noundef nonnull align 8 dereferenceable(136) %add.ptr.i2055)
          to label %.noexc2063 unwind label %lpad

.noexc2063:                                       ; preds = %invoke.cont17
  %call.i5.i.i2056 = invoke noundef ptr @_ZNKSt3__16locale9use_facetERNS0_2idE(ptr noundef nonnull align 8 dereferenceable(8) %ref.tmp.i.i2051, ptr noundef nonnull align 8 dereferenceable(12) @_ZNSt3__15ctypeIcE2idE)
          to label %invoke.cont.i.i2060 unwind label %lpad.i.i2061

invoke.cont.i.i2060:                              ; preds = %.noexc2063
  %vtable.i.i.i2057 = load ptr, ptr %call.i5.i.i2056, align 8, !tbaa !38
  %vfn.i.i.i2058 = getelementptr inbounds ptr, ptr %vtable.i.i.i2057, i64 7
  %6 = load ptr, ptr %vfn.i.i.i2058, align 8
  %call.i6.i.i2059 = invoke noundef signext i8 %6(ptr noundef nonnull align 8 dereferenceable(25) %call.i5.i.i2056, i8 noundef signext 10)
          to label %_ZNKSt3__19basic_iosIcNS_11char_traitsIcEEE5widenB7v170000Ec.exit.i2062 unwind label %lpad.i.i2061

lpad.i.i2061:                                     ; preds = %invoke.cont.i.i2060, %.noexc2063
  %7 = landingpad { ptr, i32 }
          cleanup
  call void @_ZNSt3__16localeD1Ev(ptr noundef nonnull align 8 dereferenceable(8) %ref.tmp.i.i2051) #23
  call void @llvm.lifetime.end.p0(i64 8, ptr nonnull %ref.tmp.i.i2051) #23
  br label %ehcleanup577

_ZNKSt3__19basic_iosIcNS_11char_traitsIcEEE5widenB7v170000Ec.exit.i2062: ; preds = %invoke.cont.i.i2060
  call void @_ZNSt3__16localeD1Ev(ptr noundef nonnull align 8 dereferenceable(8) %ref.tmp.i.i2051) #23
  call void @llvm.lifetime.end.p0(i64 8, ptr nonnull %ref.tmp.i.i2051) #23
  %call1.i2067 = invoke noundef nonnull align 8 dereferenceable(8) ptr @_ZNSt3__113basic_ostreamIcNS_11char_traitsIcEEE3putEc(ptr noundef nonnull align 8 dereferenceable(8) %call1.i753, i8 noundef signext %call.i6.i.i2059)
          to label %call1.i.noexc2066 unwind label %lpad

call1.i.noexc2066:                                ; preds = %_ZNKSt3__19basic_iosIcNS_11char_traitsIcEEE5widenB7v170000Ec.exit.i2062
  %call2.i2068 = invoke noundef nonnull align 8 dereferenceable(8) ptr @_ZNSt3__113basic_ostreamIcNS_11char_traitsIcEEE5flushEv(ptr noundef nonnull align 8 dereferenceable(8) %call1.i753)
          to label %invoke.cont19 unwind label %lpad

invoke.cont19:                                    ; preds = %call1.i.noexc2066
  %call1.i758 = invoke noundef nonnull align 8 dereferenceable(8) ptr @_ZNSt3__124__put_character_sequenceB7v170000IcNS_11char_traitsIcEEEERNS_13basic_ostreamIT_T0_EES7_PKS4_m(ptr noundef nonnull align 8 dereferenceable(8) %add.ptr, ptr noundef nonnull @.str.4, i64 noundef 43)
          to label %invoke.cont22 unwind label %lpad

invoke.cont22:                                    ; preds = %invoke.cont19
  %vtable.i2071 = load ptr, ptr %call1.i758, align 8, !tbaa !38
  %vbase.offset.ptr.i2072 = getelementptr i8, ptr %vtable.i2071, i64 -24
  %vbase.offset.i2073 = load i64, ptr %vbase.offset.ptr.i2072, align 8
  %add.ptr.i2074 = getelementptr inbounds i8, ptr %call1.i758, i64 %vbase.offset.i2073
  call void @llvm.lifetime.start.p0(i64 8, ptr nonnull %ref.tmp.i.i2070) #23
  invoke void @_ZNKSt3__18ios_base6getlocEv(ptr nonnull sret(%"class.std::__1::locale") align 8 %ref.tmp.i.i2070, ptr noundef nonnull align 8 dereferenceable(136) %add.ptr.i2074)
          to label %.noexc2082 unwind label %lpad

.noexc2082:                                       ; preds = %invoke.cont22
  %call.i5.i.i2075 = invoke noundef ptr @_ZNKSt3__16locale9use_facetERNS0_2idE(ptr noundef nonnull align 8 dereferenceable(8) %ref.tmp.i.i2070, ptr noundef nonnull align 8 dereferenceable(12) @_ZNSt3__15ctypeIcE2idE)
          to label %invoke.cont.i.i2079 unwind label %lpad.i.i2080

invoke.cont.i.i2079:                              ; preds = %.noexc2082
  %vtable.i.i.i2076 = load ptr, ptr %call.i5.i.i2075, align 8, !tbaa !38
  %vfn.i.i.i2077 = getelementptr inbounds ptr, ptr %vtable.i.i.i2076, i64 7
  %8 = load ptr, ptr %vfn.i.i.i2077, align 8
  %call.i6.i.i2078 = invoke noundef signext i8 %8(ptr noundef nonnull align 8 dereferenceable(25) %call.i5.i.i2075, i8 noundef signext 10)
          to label %_ZNKSt3__19basic_iosIcNS_11char_traitsIcEEE5widenB7v170000Ec.exit.i2081 unwind label %lpad.i.i2080

lpad.i.i2080:                                     ; preds = %invoke.cont.i.i2079, %.noexc2082
  %9 = landingpad { ptr, i32 }
          cleanup
  call void @_ZNSt3__16localeD1Ev(ptr noundef nonnull align 8 dereferenceable(8) %ref.tmp.i.i2070) #23
  call void @llvm.lifetime.end.p0(i64 8, ptr nonnull %ref.tmp.i.i2070) #23
  br label %ehcleanup577

_ZNKSt3__19basic_iosIcNS_11char_traitsIcEEE5widenB7v170000Ec.exit.i2081: ; preds = %invoke.cont.i.i2079
  call void @_ZNSt3__16localeD1Ev(ptr noundef nonnull align 8 dereferenceable(8) %ref.tmp.i.i2070) #23
  call void @llvm.lifetime.end.p0(i64 8, ptr nonnull %ref.tmp.i.i2070) #23
  %call1.i2086 = invoke noundef nonnull align 8 dereferenceable(8) ptr @_ZNSt3__113basic_ostreamIcNS_11char_traitsIcEEE3putEc(ptr noundef nonnull align 8 dereferenceable(8) %call1.i758, i8 noundef signext %call.i6.i.i2078)
          to label %call1.i.noexc2085 unwind label %lpad

call1.i.noexc2085:                                ; preds = %_ZNKSt3__19basic_iosIcNS_11char_traitsIcEEE5widenB7v170000Ec.exit.i2081
  %call2.i2087 = invoke noundef nonnull align 8 dereferenceable(8) ptr @_ZNSt3__113basic_ostreamIcNS_11char_traitsIcEEE5flushEv(ptr noundef nonnull align 8 dereferenceable(8) %call1.i758)
          to label %invoke.cont24 unwind label %lpad

invoke.cont24:                                    ; preds = %call1.i.noexc2085
  %call1.i763 = invoke noundef nonnull align 8 dereferenceable(8) ptr @_ZNSt3__124__put_character_sequenceB7v170000IcNS_11char_traitsIcEEEERNS_13basic_ostreamIT_T0_EES7_PKS4_m(ptr noundef nonnull align 8 dereferenceable(8) %add.ptr, ptr noundef nonnull @.str.5, i64 noundef 27)
          to label %invoke.cont27 unwind label %lpad

invoke.cont27:                                    ; preds = %invoke.cont24
  %vtable.i2090 = load ptr, ptr %call1.i763, align 8, !tbaa !38
  %vbase.offset.ptr.i2091 = getelementptr i8, ptr %vtable.i2090, i64 -24
  %vbase.offset.i2092 = load i64, ptr %vbase.offset.ptr.i2091, align 8
  %add.ptr.i2093 = getelementptr inbounds i8, ptr %call1.i763, i64 %vbase.offset.i2092
  call void @llvm.lifetime.start.p0(i64 8, ptr nonnull %ref.tmp.i.i2089) #23
  invoke void @_ZNKSt3__18ios_base6getlocEv(ptr nonnull sret(%"class.std::__1::locale") align 8 %ref.tmp.i.i2089, ptr noundef nonnull align 8 dereferenceable(136) %add.ptr.i2093)
          to label %.noexc2101 unwind label %lpad

.noexc2101:                                       ; preds = %invoke.cont27
  %call.i5.i.i2094 = invoke noundef ptr @_ZNKSt3__16locale9use_facetERNS0_2idE(ptr noundef nonnull align 8 dereferenceable(8) %ref.tmp.i.i2089, ptr noundef nonnull align 8 dereferenceable(12) @_ZNSt3__15ctypeIcE2idE)
          to label %invoke.cont.i.i2098 unwind label %lpad.i.i2099

invoke.cont.i.i2098:                              ; preds = %.noexc2101
  %vtable.i.i.i2095 = load ptr, ptr %call.i5.i.i2094, align 8, !tbaa !38
  %vfn.i.i.i2096 = getelementptr inbounds ptr, ptr %vtable.i.i.i2095, i64 7
  %10 = load ptr, ptr %vfn.i.i.i2096, align 8
  %call.i6.i.i2097 = invoke noundef signext i8 %10(ptr noundef nonnull align 8 dereferenceable(25) %call.i5.i.i2094, i8 noundef signext 10)
          to label %_ZNKSt3__19basic_iosIcNS_11char_traitsIcEEE5widenB7v170000Ec.exit.i2100 unwind label %lpad.i.i2099

lpad.i.i2099:                                     ; preds = %invoke.cont.i.i2098, %.noexc2101
  %11 = landingpad { ptr, i32 }
          cleanup
  call void @_ZNSt3__16localeD1Ev(ptr noundef nonnull align 8 dereferenceable(8) %ref.tmp.i.i2089) #23
  call void @llvm.lifetime.end.p0(i64 8, ptr nonnull %ref.tmp.i.i2089) #23
  br label %ehcleanup577

_ZNKSt3__19basic_iosIcNS_11char_traitsIcEEE5widenB7v170000Ec.exit.i2100: ; preds = %invoke.cont.i.i2098
  call void @_ZNSt3__16localeD1Ev(ptr noundef nonnull align 8 dereferenceable(8) %ref.tmp.i.i2089) #23
  call void @llvm.lifetime.end.p0(i64 8, ptr nonnull %ref.tmp.i.i2089) #23
  %call1.i2105 = invoke noundef nonnull align 8 dereferenceable(8) ptr @_ZNSt3__113basic_ostreamIcNS_11char_traitsIcEEE3putEc(ptr noundef nonnull align 8 dereferenceable(8) %call1.i763, i8 noundef signext %call.i6.i.i2097)
          to label %call1.i.noexc2104 unwind label %lpad

call1.i.noexc2104:                                ; preds = %_ZNKSt3__19basic_iosIcNS_11char_traitsIcEEE5widenB7v170000Ec.exit.i2100
  %call2.i2106 = invoke noundef nonnull align 8 dereferenceable(8) ptr @_ZNSt3__113basic_ostreamIcNS_11char_traitsIcEEE5flushEv(ptr noundef nonnull align 8 dereferenceable(8) %call1.i763)
          to label %invoke.cont29 unwind label %lpad

invoke.cont29:                                    ; preds = %call1.i.noexc2104
  %call1.i768 = invoke noundef nonnull align 8 dereferenceable(8) ptr @_ZNSt3__124__put_character_sequenceB7v170000IcNS_11char_traitsIcEEEERNS_13basic_ostreamIT_T0_EES7_PKS4_m(ptr noundef nonnull align 8 dereferenceable(8) %add.ptr, ptr noundef nonnull @.str.6, i64 noundef 54)
          to label %invoke.cont32 unwind label %lpad

invoke.cont32:                                    ; preds = %invoke.cont29
  %vtable.i2109 = load ptr, ptr %call1.i768, align 8, !tbaa !38
  %vbase.offset.ptr.i2110 = getelementptr i8, ptr %vtable.i2109, i64 -24
  %vbase.offset.i2111 = load i64, ptr %vbase.offset.ptr.i2110, align 8
  %add.ptr.i2112 = getelementptr inbounds i8, ptr %call1.i768, i64 %vbase.offset.i2111
  call void @llvm.lifetime.start.p0(i64 8, ptr nonnull %ref.tmp.i.i2108) #23
  invoke void @_ZNKSt3__18ios_base6getlocEv(ptr nonnull sret(%"class.std::__1::locale") align 8 %ref.tmp.i.i2108, ptr noundef nonnull align 8 dereferenceable(136) %add.ptr.i2112)
          to label %.noexc2120 unwind label %lpad

.noexc2120:                                       ; preds = %invoke.cont32
  %call.i5.i.i2113 = invoke noundef ptr @_ZNKSt3__16locale9use_facetERNS0_2idE(ptr noundef nonnull align 8 dereferenceable(8) %ref.tmp.i.i2108, ptr noundef nonnull align 8 dereferenceable(12) @_ZNSt3__15ctypeIcE2idE)
          to label %invoke.cont.i.i2117 unwind label %lpad.i.i2118

invoke.cont.i.i2117:                              ; preds = %.noexc2120
  %vtable.i.i.i2114 = load ptr, ptr %call.i5.i.i2113, align 8, !tbaa !38
  %vfn.i.i.i2115 = getelementptr inbounds ptr, ptr %vtable.i.i.i2114, i64 7
  %12 = load ptr, ptr %vfn.i.i.i2115, align 8
  %call.i6.i.i2116 = invoke noundef signext i8 %12(ptr noundef nonnull align 8 dereferenceable(25) %call.i5.i.i2113, i8 noundef signext 10)
          to label %_ZNKSt3__19basic_iosIcNS_11char_traitsIcEEE5widenB7v170000Ec.exit.i2119 unwind label %lpad.i.i2118

lpad.i.i2118:                                     ; preds = %invoke.cont.i.i2117, %.noexc2120
  %13 = landingpad { ptr, i32 }
          cleanup
  call void @_ZNSt3__16localeD1Ev(ptr noundef nonnull align 8 dereferenceable(8) %ref.tmp.i.i2108) #23
  call void @llvm.lifetime.end.p0(i64 8, ptr nonnull %ref.tmp.i.i2108) #23
  br label %ehcleanup577

_ZNKSt3__19basic_iosIcNS_11char_traitsIcEEE5widenB7v170000Ec.exit.i2119: ; preds = %invoke.cont.i.i2117
  call void @_ZNSt3__16localeD1Ev(ptr noundef nonnull align 8 dereferenceable(8) %ref.tmp.i.i2108) #23
  call void @llvm.lifetime.end.p0(i64 8, ptr nonnull %ref.tmp.i.i2108) #23
  %call1.i2124 = invoke noundef nonnull align 8 dereferenceable(8) ptr @_ZNSt3__113basic_ostreamIcNS_11char_traitsIcEEE3putEc(ptr noundef nonnull align 8 dereferenceable(8) %call1.i768, i8 noundef signext %call.i6.i.i2116)
          to label %call1.i.noexc2123 unwind label %lpad

call1.i.noexc2123:                                ; preds = %_ZNKSt3__19basic_iosIcNS_11char_traitsIcEEE5widenB7v170000Ec.exit.i2119
  %call2.i2125 = invoke noundef nonnull align 8 dereferenceable(8) ptr @_ZNSt3__113basic_ostreamIcNS_11char_traitsIcEEE5flushEv(ptr noundef nonnull align 8 dereferenceable(8) %call1.i768)
          to label %invoke.cont34 unwind label %lpad

invoke.cont34:                                    ; preds = %call1.i.noexc2123
  %call1.i773 = invoke noundef nonnull align 8 dereferenceable(8) ptr @_ZNSt3__124__put_character_sequenceB7v170000IcNS_11char_traitsIcEEEERNS_13basic_ostreamIT_T0_EES7_PKS4_m(ptr noundef nonnull align 8 dereferenceable(8) %add.ptr, ptr noundef nonnull @.str.7, i64 noundef 38)
          to label %invoke.cont37 unwind label %lpad

invoke.cont37:                                    ; preds = %invoke.cont34
  %vtable.i2128 = load ptr, ptr %call1.i773, align 8, !tbaa !38
  %vbase.offset.ptr.i2129 = getelementptr i8, ptr %vtable.i2128, i64 -24
  %vbase.offset.i2130 = load i64, ptr %vbase.offset.ptr.i2129, align 8
  %add.ptr.i2131 = getelementptr inbounds i8, ptr %call1.i773, i64 %vbase.offset.i2130
  call void @llvm.lifetime.start.p0(i64 8, ptr nonnull %ref.tmp.i.i2127) #23
  invoke void @_ZNKSt3__18ios_base6getlocEv(ptr nonnull sret(%"class.std::__1::locale") align 8 %ref.tmp.i.i2127, ptr noundef nonnull align 8 dereferenceable(136) %add.ptr.i2131)
          to label %.noexc2139 unwind label %lpad

.noexc2139:                                       ; preds = %invoke.cont37
  %call.i5.i.i2132 = invoke noundef ptr @_ZNKSt3__16locale9use_facetERNS0_2idE(ptr noundef nonnull align 8 dereferenceable(8) %ref.tmp.i.i2127, ptr noundef nonnull align 8 dereferenceable(12) @_ZNSt3__15ctypeIcE2idE)
          to label %invoke.cont.i.i2136 unwind label %lpad.i.i2137

invoke.cont.i.i2136:                              ; preds = %.noexc2139
  %vtable.i.i.i2133 = load ptr, ptr %call.i5.i.i2132, align 8, !tbaa !38
  %vfn.i.i.i2134 = getelementptr inbounds ptr, ptr %vtable.i.i.i2133, i64 7
  %14 = load ptr, ptr %vfn.i.i.i2134, align 8
  %call.i6.i.i2135 = invoke noundef signext i8 %14(ptr noundef nonnull align 8 dereferenceable(25) %call.i5.i.i2132, i8 noundef signext 10)
          to label %_ZNKSt3__19basic_iosIcNS_11char_traitsIcEEE5widenB7v170000Ec.exit.i2138 unwind label %lpad.i.i2137

lpad.i.i2137:                                     ; preds = %invoke.cont.i.i2136, %.noexc2139
  %15 = landingpad { ptr, i32 }
          cleanup
  call void @_ZNSt3__16localeD1Ev(ptr noundef nonnull align 8 dereferenceable(8) %ref.tmp.i.i2127) #23
  call void @llvm.lifetime.end.p0(i64 8, ptr nonnull %ref.tmp.i.i2127) #23
  br label %ehcleanup577

_ZNKSt3__19basic_iosIcNS_11char_traitsIcEEE5widenB7v170000Ec.exit.i2138: ; preds = %invoke.cont.i.i2136
  call void @_ZNSt3__16localeD1Ev(ptr noundef nonnull align 8 dereferenceable(8) %ref.tmp.i.i2127) #23
  call void @llvm.lifetime.end.p0(i64 8, ptr nonnull %ref.tmp.i.i2127) #23
  %call1.i2143 = invoke noundef nonnull align 8 dereferenceable(8) ptr @_ZNSt3__113basic_ostreamIcNS_11char_traitsIcEEE3putEc(ptr noundef nonnull align 8 dereferenceable(8) %call1.i773, i8 noundef signext %call.i6.i.i2135)
          to label %call1.i.noexc2142 unwind label %lpad

call1.i.noexc2142:                                ; preds = %_ZNKSt3__19basic_iosIcNS_11char_traitsIcEEE5widenB7v170000Ec.exit.i2138
  %call2.i2144 = invoke noundef nonnull align 8 dereferenceable(8) ptr @_ZNSt3__113basic_ostreamIcNS_11char_traitsIcEEE5flushEv(ptr noundef nonnull align 8 dereferenceable(8) %call1.i773)
          to label %invoke.cont39 unwind label %lpad

invoke.cont39:                                    ; preds = %call1.i.noexc2142
  store i32 2, ptr %ierr, align 4, !tbaa !35
  br label %cleanup574

lpad:                                             ; preds = %call1.i.noexc2142, %_ZNKSt3__19basic_iosIcNS_11char_traitsIcEEE5widenB7v170000Ec.exit.i2138, %invoke.cont37, %call1.i.noexc2123, %_ZNKSt3__19basic_iosIcNS_11char_traitsIcEEE5widenB7v170000Ec.exit.i2119, %invoke.cont32, %call1.i.noexc2104, %_ZNKSt3__19basic_iosIcNS_11char_traitsIcEEE5widenB7v170000Ec.exit.i2100, %invoke.cont27, %call1.i.noexc2085, %_ZNKSt3__19basic_iosIcNS_11char_traitsIcEEE5widenB7v170000Ec.exit.i2081, %invoke.cont22, %call1.i.noexc2066, %_ZNKSt3__19basic_iosIcNS_11char_traitsIcEEE5widenB7v170000Ec.exit.i2062, %invoke.cont17, %call1.i.noexc2047, %_ZNKSt3__19basic_iosIcNS_11char_traitsIcEEE5widenB7v170000Ec.exit.i2043, %invoke.cont8, %call1.i.noexc, %_ZNKSt3__19basic_iosIcNS_11char_traitsIcEEE5widenB7v170000Ec.exit.i, %invoke.cont4, %invoke.cont34, %invoke.cont29, %invoke.cont24, %invoke.cont19, %invoke.cont15, %invoke.cont10, %invoke.cont6, %invoke.cont3, %invoke.cont13, %if.then
  %16 = landingpad { ptr, i32 }
          cleanup
  br label %ehcleanup577

if.end.i:                                         ; preds = %entry
  call void @llvm.lifetime.start.p0(i64 24, ptr nonnull %p1) #23
  %__start_.i.i = getelementptr inbounds %"class.PP::Cmd", ptr %cmdi, i64 0, i32 9, i32 1
  %17 = load i64, ptr %__start_.i.i, align 8, !tbaa !40, !noalias !41
  %add.i.i = add i64 %17, 1
  %__begin_.i.i.i = getelementptr inbounds %"class.PP::Cmd", ptr %cmdi, i64 0, i32 9, i32 0, i32 1
  %18 = load ptr, ptr %__begin_.i.i.i, align 8, !tbaa !44, !noalias !41
  %div.i.i = udiv i64 %add.i.i, 39
  %add.ptr.i.i = getelementptr inbounds ptr, ptr %18, i64 %div.i.i
  %19 = load ptr, ptr %add.ptr.i.i, align 8, !tbaa !45, !noalias !41
  %rem.i.i = urem i64 %add.i.i, 39
  %add.ptr2.i.i = getelementptr inbounds %"class.PP::Word", ptr %19, i64 %rem.i.i
  invoke void @_ZNSt3__112basic_stringIcNS_11char_traitsIcEENS_9allocatorIcEEEC1ERKS5_(ptr noundef nonnull align 8 dereferenceable(24) %p1, ptr noundef nonnull align 8 dereferenceable(24) %add.ptr2.i.i)
          to label %invoke.cont42 unwind label %lpad41

invoke.cont42:                                    ; preds = %if.end.i
  %bf.load.i.i.i.i = load i8, ptr %p1, align 8
  %bf.clear.i.i.i.i = and i8 %bf.load.i.i.i.i, 1
  %tobool.i.not.i.i.i = icmp eq i8 %bf.clear.i.i.i.i, 0
  %__size_.i.i.i.i = getelementptr inbounds %"struct.std::__1::basic_string<char>::__long", ptr %p1, i64 0, i32 1
  %20 = load i64, ptr %__size_.i.i.i.i, align 8
  %bf.lshr.i.i.i.i = lshr i8 %bf.load.i.i.i.i, 1
  %conv.i.i.i.i = zext i8 %bf.lshr.i.i.i.i to i64
  %cond.i.i.i = select i1 %tobool.i.not.i.i.i, i64 %conv.i.i.i.i, i64 %20
  %cmp2.not.i.i = icmp eq i64 %cond.i.i.i, 1
  br i1 %cmp2.not.i.i, label %_ZNSt3__111char_traitsIcE7compareEPKcS3_m.exit.i.i.i, label %if.then44

_ZNSt3__111char_traitsIcE7compareEPKcS3_m.exit.i.i.i: ; preds = %invoke.cont42
  %__data_.i4.i.i.i.i.i = getelementptr inbounds %"struct.std::__1::basic_string<char>::__short", ptr %p1, i64 0, i32 2
  %__data_.i.i.i.i.i.i = getelementptr inbounds %"struct.std::__1::basic_string<char>::__long", ptr %p1, i64 0, i32 2
  %21 = load ptr, ptr %__data_.i.i.i.i.i.i, align 8
  %cond.i.i.i.i.i = select i1 %tobool.i.not.i.i.i, ptr %__data_.i4.i.i.i.i.i, ptr %21
  %lhsc2753 = load i8, ptr %cond.i.i.i.i.i, align 1
  %cmp9.i.i.i = icmp eq i8 %lhsc2753, 40
  br i1 %cmp9.i.i.i, label %for.body.lr.ph, label %if.then44

for.body.lr.ph:                                   ; preds = %_ZNSt3__111char_traitsIcE7compareEPKcS3_m.exit.i.i.i
  %sub = add nsw i32 %conv.i, -1
  %__data_.i.i.i.i822 = getelementptr inbounds %"struct.std::__1::basic_string<char>::__short", ptr %t1, i64 0, i32 2
  %__size_.i.i.i835 = getelementptr inbounds %"struct.std::__1::basic_string<char>::__long", ptr %t1, i64 0, i32 1
  %__data_.i.i.i.i.i = getelementptr inbounds %"struct.std::__1::basic_string<char>::__long", ptr %t1, i64 0, i32 2
  %wide.trip.count = zext i32 %sub to i64
  br label %for.body

if.then44:                                        ; preds = %_ZNSt3__111char_traitsIcE7compareEPKcS3_m.exit.i.i.i, %invoke.cont42
  invoke void @_ZN2PP3Cmd11fatal_errorEiRNSt3__118basic_stringstreamIcNS1_11char_traitsIcEENS1_9allocatorIcEEEERi(ptr noundef nonnull align 8 dereferenceable(320) %cmdi, i32 noundef 1, ptr noundef nonnull align 8 dereferenceable(128) %serr, ptr noundef nonnull align 4 dereferenceable(4) %ierr)
          to label %invoke.cont46 unwind label %lpad45

invoke.cont46:                                    ; preds = %if.then44
  %add.ptr47 = getelementptr inbounds i8, ptr %serr, i64 16
  %call1.i780 = invoke noundef nonnull align 8 dereferenceable(8) ptr @_ZNSt3__124__put_character_sequenceB7v170000IcNS_11char_traitsIcEEEERNS_13basic_ostreamIT_T0_EES7_PKS4_m(ptr noundef nonnull align 8 dereferenceable(8) %add.ptr47, ptr noundef nonnull @.str.9, i64 noundef 56)
          to label %invoke.cont48 unwind label %lpad45

invoke.cont48:                                    ; preds = %invoke.cont46
  %vtable.i2147 = load ptr, ptr %call1.i780, align 8, !tbaa !38
  %vbase.offset.ptr.i2148 = getelementptr i8, ptr %vtable.i2147, i64 -24
  %vbase.offset.i2149 = load i64, ptr %vbase.offset.ptr.i2148, align 8
  %add.ptr.i2150 = getelementptr inbounds i8, ptr %call1.i780, i64 %vbase.offset.i2149
  call void @llvm.lifetime.start.p0(i64 8, ptr nonnull %ref.tmp.i.i2146) #23
  invoke void @_ZNKSt3__18ios_base6getlocEv(ptr nonnull sret(%"class.std::__1::locale") align 8 %ref.tmp.i.i2146, ptr noundef nonnull align 8 dereferenceable(136) %add.ptr.i2150)
          to label %.noexc2158 unwind label %lpad45

.noexc2158:                                       ; preds = %invoke.cont48
  %call.i5.i.i2151 = invoke noundef ptr @_ZNKSt3__16locale9use_facetERNS0_2idE(ptr noundef nonnull align 8 dereferenceable(8) %ref.tmp.i.i2146, ptr noundef nonnull align 8 dereferenceable(12) @_ZNSt3__15ctypeIcE2idE)
          to label %invoke.cont.i.i2155 unwind label %lpad.i.i2156

invoke.cont.i.i2155:                              ; preds = %.noexc2158
  %vtable.i.i.i2152 = load ptr, ptr %call.i5.i.i2151, align 8, !tbaa !38
  %vfn.i.i.i2153 = getelementptr inbounds ptr, ptr %vtable.i.i.i2152, i64 7
  %22 = load ptr, ptr %vfn.i.i.i2153, align 8
  %call.i6.i.i2154 = invoke noundef signext i8 %22(ptr noundef nonnull align 8 dereferenceable(25) %call.i5.i.i2151, i8 noundef signext 10)
          to label %_ZNKSt3__19basic_iosIcNS_11char_traitsIcEEE5widenB7v170000Ec.exit.i2157 unwind label %lpad.i.i2156

lpad.i.i2156:                                     ; preds = %invoke.cont.i.i2155, %.noexc2158
  %23 = landingpad { ptr, i32 }
          cleanup
  call void @_ZNSt3__16localeD1Ev(ptr noundef nonnull align 8 dereferenceable(8) %ref.tmp.i.i2146) #23
  call void @llvm.lifetime.end.p0(i64 8, ptr nonnull %ref.tmp.i.i2146) #23
  br label %ehcleanup571

_ZNKSt3__19basic_iosIcNS_11char_traitsIcEEE5widenB7v170000Ec.exit.i2157: ; preds = %invoke.cont.i.i2155
  call void @_ZNSt3__16localeD1Ev(ptr noundef nonnull align 8 dereferenceable(8) %ref.tmp.i.i2146) #23
  call void @llvm.lifetime.end.p0(i64 8, ptr nonnull %ref.tmp.i.i2146) #23
  %call1.i2161 = invoke noundef nonnull align 8 dereferenceable(8) ptr @_ZNSt3__113basic_ostreamIcNS_11char_traitsIcEEE3putEc(ptr noundef nonnull align 8 dereferenceable(8) %call1.i780, i8 noundef signext %call.i6.i.i2154)
          to label %call1.i.noexc2160 unwind label %lpad45

call1.i.noexc2160:                                ; preds = %_ZNKSt3__19basic_iosIcNS_11char_traitsIcEEE5widenB7v170000Ec.exit.i2157
  %call2.i2162 = invoke noundef nonnull align 8 dereferenceable(8) ptr @_ZNSt3__113basic_ostreamIcNS_11char_traitsIcEEE5flushEv(ptr noundef nonnull align 8 dereferenceable(8) %call1.i780)
          to label %invoke.cont50 unwind label %lpad45

invoke.cont50:                                    ; preds = %call1.i.noexc2160
  %call1.i785 = invoke noundef nonnull align 8 dereferenceable(8) ptr @_ZNSt3__124__put_character_sequenceB7v170000IcNS_11char_traitsIcEEEERNS_13basic_ostreamIT_T0_EES7_PKS4_m(ptr noundef nonnull align 8 dereferenceable(8) %add.ptr47, ptr noundef nonnull @.str.10, i64 noundef 14)
          to label %invoke.cont53 unwind label %lpad45

invoke.cont53:                                    ; preds = %invoke.cont50
  %bf.load.i.i.i.i787 = load i8, ptr %p1, align 8
  %bf.clear.i.i.i.i788 = and i8 %bf.load.i.i.i.i787, 1
  %tobool.i.not.i.i.i789 = icmp eq i8 %bf.clear.i.i.i.i788, 0
  %__data_.i.i.i.i790 = getelementptr inbounds %"struct.std::__1::basic_string<char>::__long", ptr %p1, i64 0, i32 2
  %24 = load ptr, ptr %__data_.i.i.i.i790, align 8
  %__data_.i4.i.i.i = getelementptr inbounds %"struct.std::__1::basic_string<char>::__short", ptr %p1, i64 0, i32 2
  %cond.i.i.i791 = select i1 %tobool.i.not.i.i.i789, ptr %__data_.i4.i.i.i, ptr %24
  %25 = load i64, ptr %__size_.i.i.i.i, align 8
  %bf.lshr.i.i.i = lshr i8 %bf.load.i.i.i.i787, 1
  %conv.i.i.i = zext i8 %bf.lshr.i.i.i to i64
  %cond.i.i = select i1 %tobool.i.not.i.i.i789, i64 %conv.i.i.i, i64 %25
  %call2.i793 = invoke noundef nonnull align 8 dereferenceable(8) ptr @_ZNSt3__124__put_character_sequenceB7v170000IcNS_11char_traitsIcEEEERNS_13basic_ostreamIT_T0_EES7_PKS4_m(ptr noundef nonnull align 8 dereferenceable(8) %call1.i785, ptr noundef %cond.i.i.i791, i64 noundef %cond.i.i)
          to label %invoke.cont55 unwind label %lpad45

invoke.cont55:                                    ; preds = %invoke.cont53
  %call1.i795 = invoke noundef nonnull align 8 dereferenceable(8) ptr @_ZNSt3__124__put_character_sequenceB7v170000IcNS_11char_traitsIcEEEERNS_13basic_ostreamIT_T0_EES7_PKS4_m(ptr noundef nonnull align 8 dereferenceable(8) %call2.i793, ptr noundef nonnull @.str.11, i64 noundef 28)
          to label %invoke.cont57 unwind label %lpad45

invoke.cont57:                                    ; preds = %invoke.cont55
  %vtable.i2165 = load ptr, ptr %call1.i795, align 8, !tbaa !38
  %vbase.offset.ptr.i2166 = getelementptr i8, ptr %vtable.i2165, i64 -24
  %vbase.offset.i2167 = load i64, ptr %vbase.offset.ptr.i2166, align 8
  %add.ptr.i2168 = getelementptr inbounds i8, ptr %call1.i795, i64 %vbase.offset.i2167
  call void @llvm.lifetime.start.p0(i64 8, ptr nonnull %ref.tmp.i.i2164) #23
  invoke void @_ZNKSt3__18ios_base6getlocEv(ptr nonnull sret(%"class.std::__1::locale") align 8 %ref.tmp.i.i2164, ptr noundef nonnull align 8 dereferenceable(136) %add.ptr.i2168)
          to label %.noexc2176 unwind label %lpad45

.noexc2176:                                       ; preds = %invoke.cont57
  %call.i5.i.i2169 = invoke noundef ptr @_ZNKSt3__16locale9use_facetERNS0_2idE(ptr noundef nonnull align 8 dereferenceable(8) %ref.tmp.i.i2164, ptr noundef nonnull align 8 dereferenceable(12) @_ZNSt3__15ctypeIcE2idE)
          to label %invoke.cont.i.i2173 unwind label %lpad.i.i2174

invoke.cont.i.i2173:                              ; preds = %.noexc2176
  %vtable.i.i.i2170 = load ptr, ptr %call.i5.i.i2169, align 8, !tbaa !38
  %vfn.i.i.i2171 = getelementptr inbounds ptr, ptr %vtable.i.i.i2170, i64 7
  %26 = load ptr, ptr %vfn.i.i.i2171, align 8
  %call.i6.i.i2172 = invoke noundef signext i8 %26(ptr noundef nonnull align 8 dereferenceable(25) %call.i5.i.i2169, i8 noundef signext 10)
          to label %_ZNKSt3__19basic_iosIcNS_11char_traitsIcEEE5widenB7v170000Ec.exit.i2175 unwind label %lpad.i.i2174

lpad.i.i2174:                                     ; preds = %invoke.cont.i.i2173, %.noexc2176
  %27 = landingpad { ptr, i32 }
          cleanup
  call void @_ZNSt3__16localeD1Ev(ptr noundef nonnull align 8 dereferenceable(8) %ref.tmp.i.i2164) #23
  call void @llvm.lifetime.end.p0(i64 8, ptr nonnull %ref.tmp.i.i2164) #23
  br label %ehcleanup571

_ZNKSt3__19basic_iosIcNS_11char_traitsIcEEE5widenB7v170000Ec.exit.i2175: ; preds = %invoke.cont.i.i2173
  call void @_ZNSt3__16localeD1Ev(ptr noundef nonnull align 8 dereferenceable(8) %ref.tmp.i.i2164) #23
  call void @llvm.lifetime.end.p0(i64 8, ptr nonnull %ref.tmp.i.i2164) #23
  %call1.i2180 = invoke noundef nonnull align 8 dereferenceable(8) ptr @_ZNSt3__113basic_ostreamIcNS_11char_traitsIcEEE3putEc(ptr noundef nonnull align 8 dereferenceable(8) %call1.i795, i8 noundef signext %call.i6.i.i2172)
          to label %call1.i.noexc2179 unwind label %lpad45

call1.i.noexc2179:                                ; preds = %_ZNKSt3__19basic_iosIcNS_11char_traitsIcEEE5widenB7v170000Ec.exit.i2175
  %call2.i2181 = invoke noundef nonnull align 8 dereferenceable(8) ptr @_ZNSt3__113basic_ostreamIcNS_11char_traitsIcEEE5flushEv(ptr noundef nonnull align 8 dereferenceable(8) %call1.i795)
          to label %invoke.cont59 unwind label %lpad45

invoke.cont59:                                    ; preds = %call1.i.noexc2179
  %call1.i800 = invoke noundef nonnull align 8 dereferenceable(8) ptr @_ZNSt3__124__put_character_sequenceB7v170000IcNS_11char_traitsIcEEEERNS_13basic_ostreamIT_T0_EES7_PKS4_m(ptr noundef nonnull align 8 dereferenceable(8) %add.ptr47, ptr noundef nonnull @.str.12, i64 noundef 42)
          to label %invoke.cont62 unwind label %lpad45

invoke.cont62:                                    ; preds = %invoke.cont59
  %vtable.i2184 = load ptr, ptr %call1.i800, align 8, !tbaa !38
  %vbase.offset.ptr.i2185 = getelementptr i8, ptr %vtable.i2184, i64 -24
  %vbase.offset.i2186 = load i64, ptr %vbase.offset.ptr.i2185, align 8
  %add.ptr.i2187 = getelementptr inbounds i8, ptr %call1.i800, i64 %vbase.offset.i2186
  call void @llvm.lifetime.start.p0(i64 8, ptr nonnull %ref.tmp.i.i2183) #23
  invoke void @_ZNKSt3__18ios_base6getlocEv(ptr nonnull sret(%"class.std::__1::locale") align 8 %ref.tmp.i.i2183, ptr noundef nonnull align 8 dereferenceable(136) %add.ptr.i2187)
          to label %.noexc2195 unwind label %lpad45

.noexc2195:                                       ; preds = %invoke.cont62
  %call.i5.i.i2188 = invoke noundef ptr @_ZNKSt3__16locale9use_facetERNS0_2idE(ptr noundef nonnull align 8 dereferenceable(8) %ref.tmp.i.i2183, ptr noundef nonnull align 8 dereferenceable(12) @_ZNSt3__15ctypeIcE2idE)
          to label %invoke.cont.i.i2192 unwind label %lpad.i.i2193

invoke.cont.i.i2192:                              ; preds = %.noexc2195
  %vtable.i.i.i2189 = load ptr, ptr %call.i5.i.i2188, align 8, !tbaa !38
  %vfn.i.i.i2190 = getelementptr inbounds ptr, ptr %vtable.i.i.i2189, i64 7
  %28 = load ptr, ptr %vfn.i.i.i2190, align 8
  %call.i6.i.i2191 = invoke noundef signext i8 %28(ptr noundef nonnull align 8 dereferenceable(25) %call.i5.i.i2188, i8 noundef signext 10)
          to label %_ZNKSt3__19basic_iosIcNS_11char_traitsIcEEE5widenB7v170000Ec.exit.i2194 unwind label %lpad.i.i2193

lpad.i.i2193:                                     ; preds = %invoke.cont.i.i2192, %.noexc2195
  %29 = landingpad { ptr, i32 }
          cleanup
  call void @_ZNSt3__16localeD1Ev(ptr noundef nonnull align 8 dereferenceable(8) %ref.tmp.i.i2183) #23
  call void @llvm.lifetime.end.p0(i64 8, ptr nonnull %ref.tmp.i.i2183) #23
  br label %ehcleanup571

_ZNKSt3__19basic_iosIcNS_11char_traitsIcEEE5widenB7v170000Ec.exit.i2194: ; preds = %invoke.cont.i.i2192
  call void @_ZNSt3__16localeD1Ev(ptr noundef nonnull align 8 dereferenceable(8) %ref.tmp.i.i2183) #23
  call void @llvm.lifetime.end.p0(i64 8, ptr nonnull %ref.tmp.i.i2183) #23
  %call1.i2199 = invoke noundef nonnull align 8 dereferenceable(8) ptr @_ZNSt3__113basic_ostreamIcNS_11char_traitsIcEEE3putEc(ptr noundef nonnull align 8 dereferenceable(8) %call1.i800, i8 noundef signext %call.i6.i.i2191)
          to label %call1.i.noexc2198 unwind label %lpad45

call1.i.noexc2198:                                ; preds = %_ZNKSt3__19basic_iosIcNS_11char_traitsIcEEE5widenB7v170000Ec.exit.i2194
  %call2.i2200 = invoke noundef nonnull align 8 dereferenceable(8) ptr @_ZNSt3__113basic_ostreamIcNS_11char_traitsIcEEE5flushEv(ptr noundef nonnull align 8 dereferenceable(8) %call1.i800)
          to label %invoke.cont64 unwind label %lpad45

invoke.cont64:                                    ; preds = %call1.i.noexc2198
  %call1.i805 = invoke noundef nonnull align 8 dereferenceable(8) ptr @_ZNSt3__124__put_character_sequenceB7v170000IcNS_11char_traitsIcEEEERNS_13basic_ostreamIT_T0_EES7_PKS4_m(ptr noundef nonnull align 8 dereferenceable(8) %add.ptr47, ptr noundef nonnull @.str.5, i64 noundef 27)
          to label %invoke.cont67 unwind label %lpad45

invoke.cont67:                                    ; preds = %invoke.cont64
  %vtable.i2203 = load ptr, ptr %call1.i805, align 8, !tbaa !38
  %vbase.offset.ptr.i2204 = getelementptr i8, ptr %vtable.i2203, i64 -24
  %vbase.offset.i2205 = load i64, ptr %vbase.offset.ptr.i2204, align 8
  %add.ptr.i2206 = getelementptr inbounds i8, ptr %call1.i805, i64 %vbase.offset.i2205
  call void @llvm.lifetime.start.p0(i64 8, ptr nonnull %ref.tmp.i.i2202) #23
  invoke void @_ZNKSt3__18ios_base6getlocEv(ptr nonnull sret(%"class.std::__1::locale") align 8 %ref.tmp.i.i2202, ptr noundef nonnull align 8 dereferenceable(136) %add.ptr.i2206)
          to label %.noexc2214 unwind label %lpad45

.noexc2214:                                       ; preds = %invoke.cont67
  %call.i5.i.i2207 = invoke noundef ptr @_ZNKSt3__16locale9use_facetERNS0_2idE(ptr noundef nonnull align 8 dereferenceable(8) %ref.tmp.i.i2202, ptr noundef nonnull align 8 dereferenceable(12) @_ZNSt3__15ctypeIcE2idE)
          to label %invoke.cont.i.i2211 unwind label %lpad.i.i2212

invoke.cont.i.i2211:                              ; preds = %.noexc2214
  %vtable.i.i.i2208 = load ptr, ptr %call.i5.i.i2207, align 8, !tbaa !38
  %vfn.i.i.i2209 = getelementptr inbounds ptr, ptr %vtable.i.i.i2208, i64 7
  %30 = load ptr, ptr %vfn.i.i.i2209, align 8
  %call.i6.i.i2210 = invoke noundef signext i8 %30(ptr noundef nonnull align 8 dereferenceable(25) %call.i5.i.i2207, i8 noundef signext 10)
          to label %_ZNKSt3__19basic_iosIcNS_11char_traitsIcEEE5widenB7v170000Ec.exit.i2213 unwind label %lpad.i.i2212

lpad.i.i2212:                                     ; preds = %invoke.cont.i.i2211, %.noexc2214
  %31 = landingpad { ptr, i32 }
          cleanup
  call void @_ZNSt3__16localeD1Ev(ptr noundef nonnull align 8 dereferenceable(8) %ref.tmp.i.i2202) #23
  call void @llvm.lifetime.end.p0(i64 8, ptr nonnull %ref.tmp.i.i2202) #23
  br label %ehcleanup571

_ZNKSt3__19basic_iosIcNS_11char_traitsIcEEE5widenB7v170000Ec.exit.i2213: ; preds = %invoke.cont.i.i2211
  call void @_ZNSt3__16localeD1Ev(ptr noundef nonnull align 8 dereferenceable(8) %ref.tmp.i.i2202) #23
  call void @llvm.lifetime.end.p0(i64 8, ptr nonnull %ref.tmp.i.i2202) #23
  %call1.i2218 = invoke noundef nonnull align 8 dereferenceable(8) ptr @_ZNSt3__113basic_ostreamIcNS_11char_traitsIcEEE3putEc(ptr noundef nonnull align 8 dereferenceable(8) %call1.i805, i8 noundef signext %call.i6.i.i2210)
          to label %call1.i.noexc2217 unwind label %lpad45

call1.i.noexc2217:                                ; preds = %_ZNKSt3__19basic_iosIcNS_11char_traitsIcEEE5widenB7v170000Ec.exit.i2213
  %call2.i2219 = invoke noundef nonnull align 8 dereferenceable(8) ptr @_ZNSt3__113basic_ostreamIcNS_11char_traitsIcEEE5flushEv(ptr noundef nonnull align 8 dereferenceable(8) %call1.i805)
          to label %invoke.cont69 unwind label %lpad45

invoke.cont69:                                    ; preds = %call1.i.noexc2217
  %call1.i810 = invoke noundef nonnull align 8 dereferenceable(8) ptr @_ZNSt3__124__put_character_sequenceB7v170000IcNS_11char_traitsIcEEEERNS_13basic_ostreamIT_T0_EES7_PKS4_m(ptr noundef nonnull align 8 dereferenceable(8) %add.ptr47, ptr noundef nonnull @.str.13, i64 noundef 35)
          to label %invoke.cont72 unwind label %lpad45

invoke.cont72:                                    ; preds = %invoke.cont69
  %vtable.i2222 = load ptr, ptr %call1.i810, align 8, !tbaa !38
  %vbase.offset.ptr.i2223 = getelementptr i8, ptr %vtable.i2222, i64 -24
  %vbase.offset.i2224 = load i64, ptr %vbase.offset.ptr.i2223, align 8
  %add.ptr.i2225 = getelementptr inbounds i8, ptr %call1.i810, i64 %vbase.offset.i2224
  call void @llvm.lifetime.start.p0(i64 8, ptr nonnull %ref.tmp.i.i2221) #23
  invoke void @_ZNKSt3__18ios_base6getlocEv(ptr nonnull sret(%"class.std::__1::locale") align 8 %ref.tmp.i.i2221, ptr noundef nonnull align 8 dereferenceable(136) %add.ptr.i2225)
          to label %.noexc2233 unwind label %lpad45

.noexc2233:                                       ; preds = %invoke.cont72
  %call.i5.i.i2226 = invoke noundef ptr @_ZNKSt3__16locale9use_facetERNS0_2idE(ptr noundef nonnull align 8 dereferenceable(8) %ref.tmp.i.i2221, ptr noundef nonnull align 8 dereferenceable(12) @_ZNSt3__15ctypeIcE2idE)
          to label %invoke.cont.i.i2230 unwind label %lpad.i.i2231

invoke.cont.i.i2230:                              ; preds = %.noexc2233
  %vtable.i.i.i2227 = load ptr, ptr %call.i5.i.i2226, align 8, !tbaa !38
  %vfn.i.i.i2228 = getelementptr inbounds ptr, ptr %vtable.i.i.i2227, i64 7
  %32 = load ptr, ptr %vfn.i.i.i2228, align 8
  %call.i6.i.i2229 = invoke noundef signext i8 %32(ptr noundef nonnull align 8 dereferenceable(25) %call.i5.i.i2226, i8 noundef signext 10)
          to label %_ZNKSt3__19basic_iosIcNS_11char_traitsIcEEE5widenB7v170000Ec.exit.i2232 unwind label %lpad.i.i2231

lpad.i.i2231:                                     ; preds = %invoke.cont.i.i2230, %.noexc2233
  %33 = landingpad { ptr, i32 }
          cleanup
  call void @_ZNSt3__16localeD1Ev(ptr noundef nonnull align 8 dereferenceable(8) %ref.tmp.i.i2221) #23
  call void @llvm.lifetime.end.p0(i64 8, ptr nonnull %ref.tmp.i.i2221) #23
  br label %ehcleanup571

_ZNKSt3__19basic_iosIcNS_11char_traitsIcEEE5widenB7v170000Ec.exit.i2232: ; preds = %invoke.cont.i.i2230
  call void @_ZNSt3__16localeD1Ev(ptr noundef nonnull align 8 dereferenceable(8) %ref.tmp.i.i2221) #23
  call void @llvm.lifetime.end.p0(i64 8, ptr nonnull %ref.tmp.i.i2221) #23
  %call1.i2237 = invoke noundef nonnull align 8 dereferenceable(8) ptr @_ZNSt3__113basic_ostreamIcNS_11char_traitsIcEEE3putEc(ptr noundef nonnull align 8 dereferenceable(8) %call1.i810, i8 noundef signext %call.i6.i.i2229)
          to label %call1.i.noexc2236 unwind label %lpad45

call1.i.noexc2236:                                ; preds = %_ZNKSt3__19basic_iosIcNS_11char_traitsIcEEE5widenB7v170000Ec.exit.i2232
  %call2.i2238 = invoke noundef nonnull align 8 dereferenceable(8) ptr @_ZNSt3__113basic_ostreamIcNS_11char_traitsIcEEE5flushEv(ptr noundef nonnull align 8 dereferenceable(8) %call1.i810)
          to label %invoke.cont74 unwind label %lpad45

invoke.cont74:                                    ; preds = %call1.i.noexc2236
  %call1.i815 = invoke noundef nonnull align 8 dereferenceable(8) ptr @_ZNSt3__124__put_character_sequenceB7v170000IcNS_11char_traitsIcEEEERNS_13basic_ostreamIT_T0_EES7_PKS4_m(ptr noundef nonnull align 8 dereferenceable(8) %add.ptr47, ptr noundef nonnull @.str.7, i64 noundef 38)
          to label %invoke.cont77 unwind label %lpad45

invoke.cont77:                                    ; preds = %invoke.cont74
  %vtable.i2241 = load ptr, ptr %call1.i815, align 8, !tbaa !38
  %vbase.offset.ptr.i2242 = getelementptr i8, ptr %vtable.i2241, i64 -24
  %vbase.offset.i2243 = load i64, ptr %vbase.offset.ptr.i2242, align 8
  %add.ptr.i2244 = getelementptr inbounds i8, ptr %call1.i815, i64 %vbase.offset.i2243
  call void @llvm.lifetime.start.p0(i64 8, ptr nonnull %ref.tmp.i.i2240) #23
  invoke void @_ZNKSt3__18ios_base6getlocEv(ptr nonnull sret(%"class.std::__1::locale") align 8 %ref.tmp.i.i2240, ptr noundef nonnull align 8 dereferenceable(136) %add.ptr.i2244)
          to label %.noexc2252 unwind label %lpad45

.noexc2252:                                       ; preds = %invoke.cont77
  %call.i5.i.i2245 = invoke noundef ptr @_ZNKSt3__16locale9use_facetERNS0_2idE(ptr noundef nonnull align 8 dereferenceable(8) %ref.tmp.i.i2240, ptr noundef nonnull align 8 dereferenceable(12) @_ZNSt3__15ctypeIcE2idE)
          to label %invoke.cont.i.i2249 unwind label %lpad.i.i2250

invoke.cont.i.i2249:                              ; preds = %.noexc2252
  %vtable.i.i.i2246 = load ptr, ptr %call.i5.i.i2245, align 8, !tbaa !38
  %vfn.i.i.i2247 = getelementptr inbounds ptr, ptr %vtable.i.i.i2246, i64 7
  %34 = load ptr, ptr %vfn.i.i.i2247, align 8
  %call.i6.i.i2248 = invoke noundef signext i8 %34(ptr noundef nonnull align 8 dereferenceable(25) %call.i5.i.i2245, i8 noundef signext 10)
          to label %_ZNKSt3__19basic_iosIcNS_11char_traitsIcEEE5widenB7v170000Ec.exit.i2251 unwind label %lpad.i.i2250

lpad.i.i2250:                                     ; preds = %invoke.cont.i.i2249, %.noexc2252
  %35 = landingpad { ptr, i32 }
          cleanup
  call void @_ZNSt3__16localeD1Ev(ptr noundef nonnull align 8 dereferenceable(8) %ref.tmp.i.i2240) #23
  call void @llvm.lifetime.end.p0(i64 8, ptr nonnull %ref.tmp.i.i2240) #23
  br label %ehcleanup571

_ZNKSt3__19basic_iosIcNS_11char_traitsIcEEE5widenB7v170000Ec.exit.i2251: ; preds = %invoke.cont.i.i2249
  call void @_ZNSt3__16localeD1Ev(ptr noundef nonnull align 8 dereferenceable(8) %ref.tmp.i.i2240) #23
  call void @llvm.lifetime.end.p0(i64 8, ptr nonnull %ref.tmp.i.i2240) #23
  %call1.i2256 = invoke noundef nonnull align 8 dereferenceable(8) ptr @_ZNSt3__113basic_ostreamIcNS_11char_traitsIcEEE3putEc(ptr noundef nonnull align 8 dereferenceable(8) %call1.i815, i8 noundef signext %call.i6.i.i2248)
          to label %call1.i.noexc2255 unwind label %lpad45

call1.i.noexc2255:                                ; preds = %_ZNKSt3__19basic_iosIcNS_11char_traitsIcEEE5widenB7v170000Ec.exit.i2251
  %call2.i2257 = invoke noundef nonnull align 8 dereferenceable(8) ptr @_ZNSt3__113basic_ostreamIcNS_11char_traitsIcEEE5flushEv(ptr noundef nonnull align 8 dereferenceable(8) %call1.i815)
          to label %invoke.cont79 unwind label %lpad45

invoke.cont79:                                    ; preds = %call1.i.noexc2255
  store i32 2, ptr %ierr, align 4, !tbaa !35
  br label %cleanup570

lpad41:                                           ; preds = %if.end.i
  %36 = landingpad { ptr, i32 }
          cleanup
  br label %ehcleanup573

lpad45:                                           ; preds = %call1.i.noexc2255, %_ZNKSt3__19basic_iosIcNS_11char_traitsIcEEE5widenB7v170000Ec.exit.i2251, %invoke.cont77, %call1.i.noexc2236, %_ZNKSt3__19basic_iosIcNS_11char_traitsIcEEE5widenB7v170000Ec.exit.i2232, %invoke.cont72, %call1.i.noexc2217, %_ZNKSt3__19basic_iosIcNS_11char_traitsIcEEE5widenB7v170000Ec.exit.i2213, %invoke.cont67, %call1.i.noexc2198, %_ZNKSt3__19basic_iosIcNS_11char_traitsIcEEE5widenB7v170000Ec.exit.i2194, %invoke.cont62, %call1.i.noexc2179, %_ZNKSt3__19basic_iosIcNS_11char_traitsIcEEE5widenB7v170000Ec.exit.i2175, %invoke.cont57, %call1.i.noexc2160, %_ZNKSt3__19basic_iosIcNS_11char_traitsIcEEE5widenB7v170000Ec.exit.i2157, %invoke.cont48, %invoke.cont74, %invoke.cont69, %invoke.cont64, %invoke.cont59, %invoke.cont55, %invoke.cont53, %invoke.cont50, %invoke.cont46, %if.then44
  %37 = landingpad { ptr, i32 }
          cleanup
  br label %ehcleanup571

for.body128.lr.ph:                                ; preds = %for.inc
  %__data_.i.i.i.i889 = getelementptr inbounds %"struct.std::__1::basic_string<char>::__short", ptr %pi, i64 0, i32 2
  %__size_.i.i.i906 = getelementptr inbounds %"struct.std::__1::basic_string<char>::__long", ptr %pi, i64 0, i32 1
  %__data_.i.i.i.i.i915 = getelementptr inbounds %"struct.std::__1::basic_string<char>::__long", ptr %pi, i64 0, i32 2
  %wide.trip.count2878 = and i64 %1, 4294967295
  br label %for.body128

for.body:                                         ; preds = %for.body.lr.ph, %for.inc
  %indvars.iv = phi i64 [ 1, %for.body.lr.ph ], [ %indvars.iv.next, %for.inc ]
  call void @llvm.lifetime.start.p0(i64 24, ptr nonnull %t1) #23
  call void @llvm.experimental.noalias.scope.decl(metadata !46)
  %38 = load i64, ptr %__size_.i.i.i, align 8, !tbaa !37, !noalias !46
  %sext2892 = shl i64 %38, 32
  %39 = ashr exact i64 %sext2892, 32
  %cmp.not.i821 = icmp slt i64 %indvars.iv, %39
  br i1 %cmp.not.i821, label %if.end.i831, label %if.then3.i.i.i823

if.then3.i.i.i823:                                ; preds = %for.body
  store i8 0, ptr %t1, align 8, !alias.scope !46
  store i8 0, ptr %__data_.i.i.i.i822, align 1, !tbaa !49, !alias.scope !46
  br label %invoke.cont84

if.end.i831:                                      ; preds = %for.body
  %40 = load i64, ptr %__start_.i.i, align 8, !tbaa !40, !noalias !46
  %add.i.i825 = add i64 %40, %indvars.iv
  %41 = load ptr, ptr %__begin_.i.i.i, align 8, !tbaa !44, !noalias !46
  %div.i.i827 = udiv i64 %add.i.i825, 39
  %add.ptr.i.i828 = getelementptr inbounds ptr, ptr %41, i64 %div.i.i827
  %42 = load ptr, ptr %add.ptr.i.i828, align 8, !tbaa !45, !noalias !46
  %rem.i.i829 = urem i64 %add.i.i825, 39
  %add.ptr2.i.i830 = getelementptr inbounds %"class.PP::Word", ptr %42, i64 %rem.i.i829
  invoke void @_ZNSt3__112basic_stringIcNS_11char_traitsIcEENS_9allocatorIcEEEC1ERKS5_(ptr noundef nonnull align 8 dereferenceable(24) %t1, ptr noundef nonnull align 8 dereferenceable(24) %add.ptr2.i.i830)
          to label %if.end.i831.invoke.cont84_crit_edge unwind label %lpad83

if.end.i831.invoke.cont84_crit_edge:              ; preds = %if.end.i831
  %bf.load.i.i.i.pre = load i8, ptr %t1, align 8
  br label %invoke.cont84

invoke.cont84:                                    ; preds = %if.end.i831.invoke.cont84_crit_edge, %if.then3.i.i.i823
  %bf.load.i.i.i = phi i8 [ %bf.load.i.i.i.pre, %if.end.i831.invoke.cont84_crit_edge ], [ 0, %if.then3.i.i.i823 ]
  %bf.clear.i.i.i = and i8 %bf.load.i.i.i, 1
  %tobool.i.not.i.i = icmp eq i8 %bf.clear.i.i.i, 0
  %43 = load i64, ptr %__size_.i.i.i835, align 8
  %bf.lshr.i.i.i836 = lshr i8 %bf.load.i.i.i, 1
  %conv.i.i.i837 = zext i8 %bf.lshr.i.i.i836 to i64
  %cond.i.i838 = select i1 %tobool.i.not.i.i, i64 %conv.i.i.i837, i64 %43
  %cmp2.not.i = icmp eq i64 %cond.i.i838, 4
  br i1 %cmp2.not.i, label %_ZNSt3__111char_traitsIcE7compareEPKcS3_m.exit.i.i, label %for.inc.critedge

_ZNSt3__111char_traitsIcE7compareEPKcS3_m.exit.i.i: ; preds = %invoke.cont84
  %44 = load ptr, ptr %__data_.i.i.i.i.i, align 8
  %cond.i.i.i.i = select i1 %tobool.i.not.i.i, ptr %__data_.i.i.i.i822, ptr %44
  %bcmp2752 = call i32 @bcmp(ptr noundef nonnull dereferenceable(4) %cond.i.i.i.i, ptr noundef nonnull dereferenceable(4) @.str.14, i64 4)
  %cmp9.i.i = icmp eq i32 %bcmp2752, 0
  br i1 %cmp9.i.i, label %if.then86, label %for.inc.critedge

if.then86:                                        ; preds = %_ZNSt3__111char_traitsIcE7compareEPKcS3_m.exit.i.i
  %45 = trunc i64 %indvars.iv to i32
  invoke void @_ZN2PP3Cmd11fatal_errorEiRNSt3__118basic_stringstreamIcNS1_11char_traitsIcEENS1_9allocatorIcEEEERi(ptr noundef nonnull align 8 dereferenceable(320) %cmdi, i32 noundef %45, ptr noundef nonnull align 8 dereferenceable(128) %serr, ptr noundef nonnull align 4 dereferenceable(4) %ierr)
          to label %invoke.cont88 unwind label %lpad87

invoke.cont88:                                    ; preds = %if.then86
  %add.ptr89 = getelementptr inbounds i8, ptr %serr, i64 16
  %call1.i842 = invoke noundef nonnull align 8 dereferenceable(8) ptr @_ZNSt3__124__put_character_sequenceB7v170000IcNS_11char_traitsIcEEEERNS_13basic_ostreamIT_T0_EES7_PKS4_m(ptr noundef nonnull align 8 dereferenceable(8) %add.ptr89, ptr noundef nonnull @.str.15, i64 noundef 50)
          to label %invoke.cont90 unwind label %lpad87

invoke.cont90:                                    ; preds = %invoke.cont88
  %vtable.i2260 = load ptr, ptr %call1.i842, align 8, !tbaa !38
  %vbase.offset.ptr.i2261 = getelementptr i8, ptr %vtable.i2260, i64 -24
  %vbase.offset.i2262 = load i64, ptr %vbase.offset.ptr.i2261, align 8
  %add.ptr.i2263 = getelementptr inbounds i8, ptr %call1.i842, i64 %vbase.offset.i2262
  call void @llvm.lifetime.start.p0(i64 8, ptr nonnull %ref.tmp.i.i2259) #23
  invoke void @_ZNKSt3__18ios_base6getlocEv(ptr nonnull sret(%"class.std::__1::locale") align 8 %ref.tmp.i.i2259, ptr noundef nonnull align 8 dereferenceable(136) %add.ptr.i2263)
          to label %.noexc2271 unwind label %lpad87

.noexc2271:                                       ; preds = %invoke.cont90
  %call.i5.i.i2264 = invoke noundef ptr @_ZNKSt3__16locale9use_facetERNS0_2idE(ptr noundef nonnull align 8 dereferenceable(8) %ref.tmp.i.i2259, ptr noundef nonnull align 8 dereferenceable(12) @_ZNSt3__15ctypeIcE2idE)
          to label %invoke.cont.i.i2268 unwind label %lpad.i.i2269

invoke.cont.i.i2268:                              ; preds = %.noexc2271
  %vtable.i.i.i2265 = load ptr, ptr %call.i5.i.i2264, align 8, !tbaa !38
  %vfn.i.i.i2266 = getelementptr inbounds ptr, ptr %vtable.i.i.i2265, i64 7
  %46 = load ptr, ptr %vfn.i.i.i2266, align 8
  %call.i6.i.i2267 = invoke noundef signext i8 %46(ptr noundef nonnull align 8 dereferenceable(25) %call.i5.i.i2264, i8 noundef signext 10)
          to label %_ZNKSt3__19basic_iosIcNS_11char_traitsIcEEE5widenB7v170000Ec.exit.i2270 unwind label %lpad.i.i2269

lpad.i.i2269:                                     ; preds = %invoke.cont.i.i2268, %.noexc2271
  %47 = landingpad { ptr, i32 }
          cleanup
  call void @_ZNSt3__16localeD1Ev(ptr noundef nonnull align 8 dereferenceable(8) %ref.tmp.i.i2259) #23
  call void @llvm.lifetime.end.p0(i64 8, ptr nonnull %ref.tmp.i.i2259) #23
  br label %lpad87.body

_ZNKSt3__19basic_iosIcNS_11char_traitsIcEEE5widenB7v170000Ec.exit.i2270: ; preds = %invoke.cont.i.i2268
  call void @_ZNSt3__16localeD1Ev(ptr noundef nonnull align 8 dereferenceable(8) %ref.tmp.i.i2259) #23
  call void @llvm.lifetime.end.p0(i64 8, ptr nonnull %ref.tmp.i.i2259) #23
  %call1.i2274 = invoke noundef nonnull align 8 dereferenceable(8) ptr @_ZNSt3__113basic_ostreamIcNS_11char_traitsIcEEE3putEc(ptr noundef nonnull align 8 dereferenceable(8) %call1.i842, i8 noundef signext %call.i6.i.i2267)
          to label %call1.i.noexc2273 unwind label %lpad87

call1.i.noexc2273:                                ; preds = %_ZNKSt3__19basic_iosIcNS_11char_traitsIcEEE5widenB7v170000Ec.exit.i2270
  %call2.i2275 = invoke noundef nonnull align 8 dereferenceable(8) ptr @_ZNSt3__113basic_ostreamIcNS_11char_traitsIcEEE5flushEv(ptr noundef nonnull align 8 dereferenceable(8) %call1.i842)
          to label %invoke.cont92 unwind label %lpad87

invoke.cont92:                                    ; preds = %call1.i.noexc2273
  %call1.i847 = invoke noundef nonnull align 8 dereferenceable(8) ptr @_ZNSt3__124__put_character_sequenceB7v170000IcNS_11char_traitsIcEEEERNS_13basic_ostreamIT_T0_EES7_PKS4_m(ptr noundef nonnull align 8 dereferenceable(8) %add.ptr89, ptr noundef nonnull @.str.16, i64 noundef 66)
          to label %invoke.cont95 unwind label %lpad87

invoke.cont95:                                    ; preds = %invoke.cont92
  %vtable.i2278 = load ptr, ptr %call1.i847, align 8, !tbaa !38
  %vbase.offset.ptr.i2279 = getelementptr i8, ptr %vtable.i2278, i64 -24
  %vbase.offset.i2280 = load i64, ptr %vbase.offset.ptr.i2279, align 8
  %add.ptr.i2281 = getelementptr inbounds i8, ptr %call1.i847, i64 %vbase.offset.i2280
  call void @llvm.lifetime.start.p0(i64 8, ptr nonnull %ref.tmp.i.i2277) #23
  invoke void @_ZNKSt3__18ios_base6getlocEv(ptr nonnull sret(%"class.std::__1::locale") align 8 %ref.tmp.i.i2277, ptr noundef nonnull align 8 dereferenceable(136) %add.ptr.i2281)
          to label %.noexc2289 unwind label %lpad87

.noexc2289:                                       ; preds = %invoke.cont95
  %call.i5.i.i2282 = invoke noundef ptr @_ZNKSt3__16locale9use_facetERNS0_2idE(ptr noundef nonnull align 8 dereferenceable(8) %ref.tmp.i.i2277, ptr noundef nonnull align 8 dereferenceable(12) @_ZNSt3__15ctypeIcE2idE)
          to label %invoke.cont.i.i2286 unwind label %lpad.i.i2287

invoke.cont.i.i2286:                              ; preds = %.noexc2289
  %vtable.i.i.i2283 = load ptr, ptr %call.i5.i.i2282, align 8, !tbaa !38
  %vfn.i.i.i2284 = getelementptr inbounds ptr, ptr %vtable.i.i.i2283, i64 7
  %48 = load ptr, ptr %vfn.i.i.i2284, align 8
  %call.i6.i.i2285 = invoke noundef signext i8 %48(ptr noundef nonnull align 8 dereferenceable(25) %call.i5.i.i2282, i8 noundef signext 10)
          to label %_ZNKSt3__19basic_iosIcNS_11char_traitsIcEEE5widenB7v170000Ec.exit.i2288 unwind label %lpad.i.i2287

lpad.i.i2287:                                     ; preds = %invoke.cont.i.i2286, %.noexc2289
  %49 = landingpad { ptr, i32 }
          cleanup
  call void @_ZNSt3__16localeD1Ev(ptr noundef nonnull align 8 dereferenceable(8) %ref.tmp.i.i2277) #23
  call void @llvm.lifetime.end.p0(i64 8, ptr nonnull %ref.tmp.i.i2277) #23
  br label %lpad87.body

_ZNKSt3__19basic_iosIcNS_11char_traitsIcEEE5widenB7v170000Ec.exit.i2288: ; preds = %invoke.cont.i.i2286
  call void @_ZNSt3__16localeD1Ev(ptr noundef nonnull align 8 dereferenceable(8) %ref.tmp.i.i2277) #23
  call void @llvm.lifetime.end.p0(i64 8, ptr nonnull %ref.tmp.i.i2277) #23
  %call1.i2293 = invoke noundef nonnull align 8 dereferenceable(8) ptr @_ZNSt3__113basic_ostreamIcNS_11char_traitsIcEEE3putEc(ptr noundef nonnull align 8 dereferenceable(8) %call1.i847, i8 noundef signext %call.i6.i.i2285)
          to label %call1.i.noexc2292 unwind label %lpad87

call1.i.noexc2292:                                ; preds = %_ZNKSt3__19basic_iosIcNS_11char_traitsIcEEE5widenB7v170000Ec.exit.i2288
  %call2.i2294 = invoke noundef nonnull align 8 dereferenceable(8) ptr @_ZNSt3__113basic_ostreamIcNS_11char_traitsIcEEE5flushEv(ptr noundef nonnull align 8 dereferenceable(8) %call1.i847)
          to label %invoke.cont97 unwind label %lpad87

invoke.cont97:                                    ; preds = %call1.i.noexc2292
  %call1.i852 = invoke noundef nonnull align 8 dereferenceable(8) ptr @_ZNSt3__124__put_character_sequenceB7v170000IcNS_11char_traitsIcEEEERNS_13basic_ostreamIT_T0_EES7_PKS4_m(ptr noundef nonnull align 8 dereferenceable(8) %add.ptr89, ptr noundef nonnull @.str.12, i64 noundef 42)
          to label %invoke.cont100 unwind label %lpad87

invoke.cont100:                                   ; preds = %invoke.cont97
  %vtable.i2297 = load ptr, ptr %call1.i852, align 8, !tbaa !38
  %vbase.offset.ptr.i2298 = getelementptr i8, ptr %vtable.i2297, i64 -24
  %vbase.offset.i2299 = load i64, ptr %vbase.offset.ptr.i2298, align 8
  %add.ptr.i2300 = getelementptr inbounds i8, ptr %call1.i852, i64 %vbase.offset.i2299
  call void @llvm.lifetime.start.p0(i64 8, ptr nonnull %ref.tmp.i.i2296) #23
  invoke void @_ZNKSt3__18ios_base6getlocEv(ptr nonnull sret(%"class.std::__1::locale") align 8 %ref.tmp.i.i2296, ptr noundef nonnull align 8 dereferenceable(136) %add.ptr.i2300)
          to label %.noexc2308 unwind label %lpad87

.noexc2308:                                       ; preds = %invoke.cont100
  %call.i5.i.i2301 = invoke noundef ptr @_ZNKSt3__16locale9use_facetERNS0_2idE(ptr noundef nonnull align 8 dereferenceable(8) %ref.tmp.i.i2296, ptr noundef nonnull align 8 dereferenceable(12) @_ZNSt3__15ctypeIcE2idE)
          to label %invoke.cont.i.i2305 unwind label %lpad.i.i2306

invoke.cont.i.i2305:                              ; preds = %.noexc2308
  %vtable.i.i.i2302 = load ptr, ptr %call.i5.i.i2301, align 8, !tbaa !38
  %vfn.i.i.i2303 = getelementptr inbounds ptr, ptr %vtable.i.i.i2302, i64 7
  %50 = load ptr, ptr %vfn.i.i.i2303, align 8
  %call.i6.i.i2304 = invoke noundef signext i8 %50(ptr noundef nonnull align 8 dereferenceable(25) %call.i5.i.i2301, i8 noundef signext 10)
          to label %_ZNKSt3__19basic_iosIcNS_11char_traitsIcEEE5widenB7v170000Ec.exit.i2307 unwind label %lpad.i.i2306

lpad.i.i2306:                                     ; preds = %invoke.cont.i.i2305, %.noexc2308
  %51 = landingpad { ptr, i32 }
          cleanup
  call void @_ZNSt3__16localeD1Ev(ptr noundef nonnull align 8 dereferenceable(8) %ref.tmp.i.i2296) #23
  call void @llvm.lifetime.end.p0(i64 8, ptr nonnull %ref.tmp.i.i2296) #23
  br label %lpad87.body

_ZNKSt3__19basic_iosIcNS_11char_traitsIcEEE5widenB7v170000Ec.exit.i2307: ; preds = %invoke.cont.i.i2305
  call void @_ZNSt3__16localeD1Ev(ptr noundef nonnull align 8 dereferenceable(8) %ref.tmp.i.i2296) #23
  call void @llvm.lifetime.end.p0(i64 8, ptr nonnull %ref.tmp.i.i2296) #23
  %call1.i2312 = invoke noundef nonnull align 8 dereferenceable(8) ptr @_ZNSt3__113basic_ostreamIcNS_11char_traitsIcEEE3putEc(ptr noundef nonnull align 8 dereferenceable(8) %call1.i852, i8 noundef signext %call.i6.i.i2304)
          to label %call1.i.noexc2311 unwind label %lpad87

call1.i.noexc2311:                                ; preds = %_ZNKSt3__19basic_iosIcNS_11char_traitsIcEEE5widenB7v170000Ec.exit.i2307
  %call2.i2313 = invoke noundef nonnull align 8 dereferenceable(8) ptr @_ZNSt3__113basic_ostreamIcNS_11char_traitsIcEEE5flushEv(ptr noundef nonnull align 8 dereferenceable(8) %call1.i852)
          to label %invoke.cont102 unwind label %lpad87

invoke.cont102:                                   ; preds = %call1.i.noexc2311
  %call1.i857 = invoke noundef nonnull align 8 dereferenceable(8) ptr @_ZNSt3__124__put_character_sequenceB7v170000IcNS_11char_traitsIcEEEERNS_13basic_ostreamIT_T0_EES7_PKS4_m(ptr noundef nonnull align 8 dereferenceable(8) %add.ptr89, ptr noundef nonnull @.str.5, i64 noundef 27)
          to label %invoke.cont105 unwind label %lpad87

invoke.cont105:                                   ; preds = %invoke.cont102
  %vtable.i2316 = load ptr, ptr %call1.i857, align 8, !tbaa !38
  %vbase.offset.ptr.i2317 = getelementptr i8, ptr %vtable.i2316, i64 -24
  %vbase.offset.i2318 = load i64, ptr %vbase.offset.ptr.i2317, align 8
  %add.ptr.i2319 = getelementptr inbounds i8, ptr %call1.i857, i64 %vbase.offset.i2318
  call void @llvm.lifetime.start.p0(i64 8, ptr nonnull %ref.tmp.i.i2315) #23
  invoke void @_ZNKSt3__18ios_base6getlocEv(ptr nonnull sret(%"class.std::__1::locale") align 8 %ref.tmp.i.i2315, ptr noundef nonnull align 8 dereferenceable(136) %add.ptr.i2319)
          to label %.noexc2327 unwind label %lpad87

.noexc2327:                                       ; preds = %invoke.cont105
  %call.i5.i.i2320 = invoke noundef ptr @_ZNKSt3__16locale9use_facetERNS0_2idE(ptr noundef nonnull align 8 dereferenceable(8) %ref.tmp.i.i2315, ptr noundef nonnull align 8 dereferenceable(12) @_ZNSt3__15ctypeIcE2idE)
          to label %invoke.cont.i.i2324 unwind label %lpad.i.i2325

invoke.cont.i.i2324:                              ; preds = %.noexc2327
  %vtable.i.i.i2321 = load ptr, ptr %call.i5.i.i2320, align 8, !tbaa !38
  %vfn.i.i.i2322 = getelementptr inbounds ptr, ptr %vtable.i.i.i2321, i64 7
  %52 = load ptr, ptr %vfn.i.i.i2322, align 8
  %call.i6.i.i2323 = invoke noundef signext i8 %52(ptr noundef nonnull align 8 dereferenceable(25) %call.i5.i.i2320, i8 noundef signext 10)
          to label %_ZNKSt3__19basic_iosIcNS_11char_traitsIcEEE5widenB7v170000Ec.exit.i2326 unwind label %lpad.i.i2325

lpad.i.i2325:                                     ; preds = %invoke.cont.i.i2324, %.noexc2327
  %53 = landingpad { ptr, i32 }
          cleanup
  call void @_ZNSt3__16localeD1Ev(ptr noundef nonnull align 8 dereferenceable(8) %ref.tmp.i.i2315) #23
  call void @llvm.lifetime.end.p0(i64 8, ptr nonnull %ref.tmp.i.i2315) #23
  br label %lpad87.body

_ZNKSt3__19basic_iosIcNS_11char_traitsIcEEE5widenB7v170000Ec.exit.i2326: ; preds = %invoke.cont.i.i2324
  call void @_ZNSt3__16localeD1Ev(ptr noundef nonnull align 8 dereferenceable(8) %ref.tmp.i.i2315) #23
  call void @llvm.lifetime.end.p0(i64 8, ptr nonnull %ref.tmp.i.i2315) #23
  %call1.i2331 = invoke noundef nonnull align 8 dereferenceable(8) ptr @_ZNSt3__113basic_ostreamIcNS_11char_traitsIcEEE3putEc(ptr noundef nonnull align 8 dereferenceable(8) %call1.i857, i8 noundef signext %call.i6.i.i2323)
          to label %call1.i.noexc2330 unwind label %lpad87

call1.i.noexc2330:                                ; preds = %_ZNKSt3__19basic_iosIcNS_11char_traitsIcEEE5widenB7v170000Ec.exit.i2326
  %call2.i2332 = invoke noundef nonnull align 8 dereferenceable(8) ptr @_ZNSt3__113basic_ostreamIcNS_11char_traitsIcEEE5flushEv(ptr noundef nonnull align 8 dereferenceable(8) %call1.i857)
          to label %invoke.cont107 unwind label %lpad87

invoke.cont107:                                   ; preds = %call1.i.noexc2330
  %call1.i862 = invoke noundef nonnull align 8 dereferenceable(8) ptr @_ZNSt3__124__put_character_sequenceB7v170000IcNS_11char_traitsIcEEEERNS_13basic_ostreamIT_T0_EES7_PKS4_m(ptr noundef nonnull align 8 dereferenceable(8) %add.ptr89, ptr noundef nonnull @.str.13, i64 noundef 35)
          to label %invoke.cont110 unwind label %lpad87

invoke.cont110:                                   ; preds = %invoke.cont107
  %vtable.i2335 = load ptr, ptr %call1.i862, align 8, !tbaa !38
  %vbase.offset.ptr.i2336 = getelementptr i8, ptr %vtable.i2335, i64 -24
  %vbase.offset.i2337 = load i64, ptr %vbase.offset.ptr.i2336, align 8
  %add.ptr.i2338 = getelementptr inbounds i8, ptr %call1.i862, i64 %vbase.offset.i2337
  call void @llvm.lifetime.start.p0(i64 8, ptr nonnull %ref.tmp.i.i2334) #23
  invoke void @_ZNKSt3__18ios_base6getlocEv(ptr nonnull sret(%"class.std::__1::locale") align 8 %ref.tmp.i.i2334, ptr noundef nonnull align 8 dereferenceable(136) %add.ptr.i2338)
          to label %.noexc2346 unwind label %lpad87

.noexc2346:                                       ; preds = %invoke.cont110
  %call.i5.i.i2339 = invoke noundef ptr @_ZNKSt3__16locale9use_facetERNS0_2idE(ptr noundef nonnull align 8 dereferenceable(8) %ref.tmp.i.i2334, ptr noundef nonnull align 8 dereferenceable(12) @_ZNSt3__15ctypeIcE2idE)
          to label %invoke.cont.i.i2343 unwind label %lpad.i.i2344

invoke.cont.i.i2343:                              ; preds = %.noexc2346
  %vtable.i.i.i2340 = load ptr, ptr %call.i5.i.i2339, align 8, !tbaa !38
  %vfn.i.i.i2341 = getelementptr inbounds ptr, ptr %vtable.i.i.i2340, i64 7
  %54 = load ptr, ptr %vfn.i.i.i2341, align 8
  %call.i6.i.i2342 = invoke noundef signext i8 %54(ptr noundef nonnull align 8 dereferenceable(25) %call.i5.i.i2339, i8 noundef signext 10)
          to label %_ZNKSt3__19basic_iosIcNS_11char_traitsIcEEE5widenB7v170000Ec.exit.i2345 unwind label %lpad.i.i2344

lpad.i.i2344:                                     ; preds = %invoke.cont.i.i2343, %.noexc2346
  %55 = landingpad { ptr, i32 }
          cleanup
  call void @_ZNSt3__16localeD1Ev(ptr noundef nonnull align 8 dereferenceable(8) %ref.tmp.i.i2334) #23
  call void @llvm.lifetime.end.p0(i64 8, ptr nonnull %ref.tmp.i.i2334) #23
  br label %lpad87.body

_ZNKSt3__19basic_iosIcNS_11char_traitsIcEEE5widenB7v170000Ec.exit.i2345: ; preds = %invoke.cont.i.i2343
  call void @_ZNSt3__16localeD1Ev(ptr noundef nonnull align 8 dereferenceable(8) %ref.tmp.i.i2334) #23
  call void @llvm.lifetime.end.p0(i64 8, ptr nonnull %ref.tmp.i.i2334) #23
  %call1.i2350 = invoke noundef nonnull align 8 dereferenceable(8) ptr @_ZNSt3__113basic_ostreamIcNS_11char_traitsIcEEE3putEc(ptr noundef nonnull align 8 dereferenceable(8) %call1.i862, i8 noundef signext %call.i6.i.i2342)
          to label %call1.i.noexc2349 unwind label %lpad87

call1.i.noexc2349:                                ; preds = %_ZNKSt3__19basic_iosIcNS_11char_traitsIcEEE5widenB7v170000Ec.exit.i2345
  %call2.i2351 = invoke noundef nonnull align 8 dereferenceable(8) ptr @_ZNSt3__113basic_ostreamIcNS_11char_traitsIcEEE5flushEv(ptr noundef nonnull align 8 dereferenceable(8) %call1.i862)
          to label %invoke.cont112 unwind label %lpad87

invoke.cont112:                                   ; preds = %call1.i.noexc2349
  %call1.i867 = invoke noundef nonnull align 8 dereferenceable(8) ptr @_ZNSt3__124__put_character_sequenceB7v170000IcNS_11char_traitsIcEEEERNS_13basic_ostreamIT_T0_EES7_PKS4_m(ptr noundef nonnull align 8 dereferenceable(8) %add.ptr89, ptr noundef nonnull @.str.7, i64 noundef 38)
          to label %invoke.cont115 unwind label %lpad87

invoke.cont115:                                   ; preds = %invoke.cont112
  %vtable.i2354 = load ptr, ptr %call1.i867, align 8, !tbaa !38
  %vbase.offset.ptr.i2355 = getelementptr i8, ptr %vtable.i2354, i64 -24
  %vbase.offset.i2356 = load i64, ptr %vbase.offset.ptr.i2355, align 8
  %add.ptr.i2357 = getelementptr inbounds i8, ptr %call1.i867, i64 %vbase.offset.i2356
  call void @llvm.lifetime.start.p0(i64 8, ptr nonnull %ref.tmp.i.i2353) #23
  invoke void @_ZNKSt3__18ios_base6getlocEv(ptr nonnull sret(%"class.std::__1::locale") align 8 %ref.tmp.i.i2353, ptr noundef nonnull align 8 dereferenceable(136) %add.ptr.i2357)
          to label %.noexc2365 unwind label %lpad87

.noexc2365:                                       ; preds = %invoke.cont115
  %call.i5.i.i2358 = invoke noundef ptr @_ZNKSt3__16locale9use_facetERNS0_2idE(ptr noundef nonnull align 8 dereferenceable(8) %ref.tmp.i.i2353, ptr noundef nonnull align 8 dereferenceable(12) @_ZNSt3__15ctypeIcE2idE)
          to label %invoke.cont.i.i2362 unwind label %lpad.i.i2363

invoke.cont.i.i2362:                              ; preds = %.noexc2365
  %vtable.i.i.i2359 = load ptr, ptr %call.i5.i.i2358, align 8, !tbaa !38
  %vfn.i.i.i2360 = getelementptr inbounds ptr, ptr %vtable.i.i.i2359, i64 7
  %56 = load ptr, ptr %vfn.i.i.i2360, align 8
  %call.i6.i.i2361 = invoke noundef signext i8 %56(ptr noundef nonnull align 8 dereferenceable(25) %call.i5.i.i2358, i8 noundef signext 10)
          to label %_ZNKSt3__19basic_iosIcNS_11char_traitsIcEEE5widenB7v170000Ec.exit.i2364 unwind label %lpad.i.i2363

lpad.i.i2363:                                     ; preds = %invoke.cont.i.i2362, %.noexc2365
  %57 = landingpad { ptr, i32 }
          cleanup
  call void @_ZNSt3__16localeD1Ev(ptr noundef nonnull align 8 dereferenceable(8) %ref.tmp.i.i2353) #23
  call void @llvm.lifetime.end.p0(i64 8, ptr nonnull %ref.tmp.i.i2353) #23
  br label %lpad87.body

_ZNKSt3__19basic_iosIcNS_11char_traitsIcEEE5widenB7v170000Ec.exit.i2364: ; preds = %invoke.cont.i.i2362
  call void @_ZNSt3__16localeD1Ev(ptr noundef nonnull align 8 dereferenceable(8) %ref.tmp.i.i2353) #23
  call void @llvm.lifetime.end.p0(i64 8, ptr nonnull %ref.tmp.i.i2353) #23
  %call1.i2369 = invoke noundef nonnull align 8 dereferenceable(8) ptr @_ZNSt3__113basic_ostreamIcNS_11char_traitsIcEEE3putEc(ptr noundef nonnull align 8 dereferenceable(8) %call1.i867, i8 noundef signext %call.i6.i.i2361)
          to label %call1.i.noexc2368 unwind label %lpad87

call1.i.noexc2368:                                ; preds = %_ZNKSt3__19basic_iosIcNS_11char_traitsIcEEE5widenB7v170000Ec.exit.i2364
  %call2.i2370 = invoke noundef nonnull align 8 dereferenceable(8) ptr @_ZNSt3__113basic_ostreamIcNS_11char_traitsIcEEE5flushEv(ptr noundef nonnull align 8 dereferenceable(8) %call1.i867)
          to label %invoke.cont117 unwind label %lpad87

invoke.cont117:                                   ; preds = %call1.i.noexc2368
  store i32 2, ptr %ierr, align 4, !tbaa !35
  %bf.load.i.i = load i8, ptr %t1, align 8
  %bf.clear.i.i = and i8 %bf.load.i.i, 1
  %tobool.i.not.i = icmp eq i8 %bf.clear.i.i, 0
  br i1 %tobool.i.not.i, label %cleanup121, label %if.then.i

if.then.i:                                        ; preds = %invoke.cont117
  %58 = load ptr, ptr %__data_.i.i.i.i.i, align 8, !tbaa !49
  call void @_ZdlPv(ptr noundef %58) #24
  br label %cleanup121

lpad83:                                           ; preds = %if.end.i831
  %59 = landingpad { ptr, i32 }
          cleanup
  br label %ehcleanup

lpad87:                                           ; preds = %call1.i.noexc2368, %_ZNKSt3__19basic_iosIcNS_11char_traitsIcEEE5widenB7v170000Ec.exit.i2364, %invoke.cont115, %call1.i.noexc2349, %_ZNKSt3__19basic_iosIcNS_11char_traitsIcEEE5widenB7v170000Ec.exit.i2345, %invoke.cont110, %call1.i.noexc2330, %_ZNKSt3__19basic_iosIcNS_11char_traitsIcEEE5widenB7v170000Ec.exit.i2326, %invoke.cont105, %call1.i.noexc2311, %_ZNKSt3__19basic_iosIcNS_11char_traitsIcEEE5widenB7v170000Ec.exit.i2307, %invoke.cont100, %call1.i.noexc2292, %_ZNKSt3__19basic_iosIcNS_11char_traitsIcEEE5widenB7v170000Ec.exit.i2288, %invoke.cont95, %call1.i.noexc2273, %_ZNKSt3__19basic_iosIcNS_11char_traitsIcEEE5widenB7v170000Ec.exit.i2270, %invoke.cont90, %invoke.cont112, %invoke.cont107, %invoke.cont102, %invoke.cont97, %invoke.cont92, %invoke.cont88, %if.then86
  %60 = landingpad { ptr, i32 }
          cleanup
  br label %lpad87.body

lpad87.body:                                      ; preds = %lpad.i.i2287, %lpad.i.i2325, %lpad87, %lpad.i.i2363, %lpad.i.i2344, %lpad.i.i2306, %lpad.i.i2269
  %eh.lpad-body2272 = phi { ptr, i32 } [ %47, %lpad.i.i2269 ], [ %49, %lpad.i.i2287 ], [ %51, %lpad.i.i2306 ], [ %53, %lpad.i.i2325 ], [ %55, %lpad.i.i2344 ], [ %60, %lpad87 ], [ %57, %lpad.i.i2363 ]
  %bf.load.i.i872 = load i8, ptr %t1, align 8
  %bf.clear.i.i873 = and i8 %bf.load.i.i872, 1
  %tobool.i.not.i874 = icmp eq i8 %bf.clear.i.i873, 0
  br i1 %tobool.i.not.i874, label %ehcleanup, label %if.then.i876

if.then.i876:                                     ; preds = %lpad87.body
  %61 = load ptr, ptr %__data_.i.i.i.i.i, align 8, !tbaa !49
  call void @_ZdlPv(ptr noundef %61) #24
  br label %ehcleanup

for.inc.critedge:                                 ; preds = %invoke.cont84, %_ZNSt3__111char_traitsIcE7compareEPKcS3_m.exit.i.i
  br i1 %tobool.i.not.i.i, label %for.inc, label %if.then.i883

if.then.i883:                                     ; preds = %for.inc.critedge
  %62 = load ptr, ptr %__data_.i.i.i.i.i, align 8, !tbaa !49
  call void @_ZdlPv(ptr noundef %62) #24
  br label %for.inc

for.inc:                                          ; preds = %if.then.i883, %for.inc.critedge
  call void @llvm.lifetime.end.p0(i64 24, ptr nonnull %t1) #23
  %indvars.iv.next = add nuw nsw i64 %indvars.iv, 1
  %exitcond.not = icmp eq i64 %indvars.iv.next, %wide.trip.count
  br i1 %exitcond.not, label %for.body128.lr.ph, label %for.body, !llvm.loop !50

ehcleanup:                                        ; preds = %if.then.i876, %lpad87.body, %lpad83
  %.pn725 = phi { ptr, i32 } [ %59, %lpad83 ], [ %eh.lpad-body2272, %lpad87.body ], [ %eh.lpad-body2272, %if.then.i876 ]
  call void @llvm.lifetime.end.p0(i64 24, ptr nonnull %t1) #23
  br label %ehcleanup571

cleanup121:                                       ; preds = %if.then.i, %invoke.cont117
  call void @llvm.lifetime.end.p0(i64 24, ptr nonnull %t1) #23
  br label %cleanup570

for.body128:                                      ; preds = %_ZNSt3__112basic_stringIcNS_11char_traitsIcEENS_9allocatorIcEEED2Ev.exit958, %for.body128.lr.ph
  %indvars.iv2875 = phi i64 [ 2, %for.body128.lr.ph ], [ %indvars.iv.next2876, %_ZNSt3__112basic_stringIcNS_11char_traitsIcEENS_9allocatorIcEEED2Ev.exit958 ]
  %close_paren_dex.02828 = phi i32 [ -1, %for.body128.lr.ph ], [ %close_paren_dex.1, %_ZNSt3__112basic_stringIcNS_11char_traitsIcEENS_9allocatorIcEEED2Ev.exit958 ]
  call void @llvm.lifetime.start.p0(i64 24, ptr nonnull %pi) #23
  call void @llvm.experimental.noalias.scope.decl(metadata !52)
  %63 = load i64, ptr %__size_.i.i.i, align 8, !tbaa !37, !noalias !52
  %sext2891 = shl i64 %63, 32
  %64 = ashr exact i64 %sext2891, 32
  %cmp.not.i888 = icmp slt i64 %indvars.iv2875, %64
  br i1 %cmp.not.i888, label %if.end.i899, label %if.then3.i.i.i890

if.then3.i.i.i890:                                ; preds = %for.body128
  store i8 0, ptr %pi, align 8, !alias.scope !52
  store i8 0, ptr %__data_.i.i.i.i889, align 1, !tbaa !49, !alias.scope !52
  br label %invoke.cont130

if.end.i899:                                      ; preds = %for.body128
  %65 = load i64, ptr %__start_.i.i, align 8, !tbaa !40, !noalias !52
  %add.i.i893 = add i64 %65, %indvars.iv2875
  %66 = load ptr, ptr %__begin_.i.i.i, align 8, !tbaa !44, !noalias !52
  %div.i.i895 = udiv i64 %add.i.i893, 39
  %add.ptr.i.i896 = getelementptr inbounds ptr, ptr %66, i64 %div.i.i895
  %67 = load ptr, ptr %add.ptr.i.i896, align 8, !tbaa !45, !noalias !52
  %rem.i.i897 = urem i64 %add.i.i893, 39
  %add.ptr2.i.i898 = getelementptr inbounds %"class.PP::Word", ptr %67, i64 %rem.i.i897
  invoke void @_ZNSt3__112basic_stringIcNS_11char_traitsIcEENS_9allocatorIcEEEC1ERKS5_(ptr noundef nonnull align 8 dereferenceable(24) %pi, ptr noundef nonnull align 8 dereferenceable(24) %add.ptr2.i.i898)
          to label %if.end.i899.invoke.cont130_crit_edge unwind label %lpad129

if.end.i899.invoke.cont130_crit_edge:             ; preds = %if.end.i899
  %bf.load.i.i.i903.pre = load i8, ptr %pi, align 8
  br label %invoke.cont130

invoke.cont130:                                   ; preds = %if.end.i899.invoke.cont130_crit_edge, %if.then3.i.i.i890
  %bf.load.i.i.i903 = phi i8 [ %bf.load.i.i.i903.pre, %if.end.i899.invoke.cont130_crit_edge ], [ 0, %if.then3.i.i.i890 ]
  %bf.clear.i.i.i904 = and i8 %bf.load.i.i.i903, 1
  %tobool.i.not.i.i905 = icmp eq i8 %bf.clear.i.i.i904, 0
  %68 = load i64, ptr %__size_.i.i.i906, align 8
  %bf.lshr.i.i.i907 = lshr i8 %bf.load.i.i.i903, 1
  %conv.i.i.i908 = zext i8 %bf.lshr.i.i.i907 to i64
  %cond.i.i909 = select i1 %tobool.i.not.i.i905, i64 %conv.i.i.i908, i64 %68
  switch i64 %cond.i.i909, label %_ZNSt3__1eqB7v170000IcNS_11char_traitsIcEENS_9allocatorIcEEEEbRKNS_12basic_stringIT_T0_T1_EEPKS6_.exit951.thread2750 [
    i64 4, label %_ZNSt3__111char_traitsIcE7compareEPKcS3_m.exit.i.i919
    i64 1, label %_ZNSt3__111char_traitsIcE7compareEPKcS3_m.exit.i.i944
  ]

_ZNSt3__111char_traitsIcE7compareEPKcS3_m.exit.i.i919: ; preds = %invoke.cont130
  %69 = load ptr, ptr %__data_.i.i.i.i.i915, align 8
  %cond.i.i.i.i916 = select i1 %tobool.i.not.i.i905, ptr %__data_.i.i.i.i889, ptr %69
  %bcmp = call i32 @bcmp(ptr noundef nonnull dereferenceable(4) %cond.i.i.i.i916, ptr noundef nonnull dereferenceable(4) @.str.14, i64 4)
  %cmp9.i.i918 = icmp eq i32 %bcmp, 0
  br i1 %cmp9.i.i918, label %cleanup137, label %_ZNSt3__1eqB7v170000IcNS_11char_traitsIcEENS_9allocatorIcEEEEbRKNS_12basic_stringIT_T0_T1_EEPKS6_.exit951.thread2750

lpad129:                                          ; preds = %if.end.i899
  %70 = landingpad { ptr, i32 }
          cleanup
  call void @llvm.lifetime.end.p0(i64 24, ptr nonnull %pi) #23
  br label %ehcleanup571

_ZNSt3__111char_traitsIcE7compareEPKcS3_m.exit.i.i944: ; preds = %invoke.cont130
  %.pre = load ptr, ptr %__data_.i.i.i.i.i915, align 8
  %.pre2889 = select i1 %tobool.i.not.i.i905, ptr %__data_.i.i.i.i889, ptr %.pre
  %lhsc = load i8, ptr %.pre2889, align 1
  %cmp9.i.i943 = icmp eq i8 %lhsc, 41
  %71 = trunc i64 %indvars.iv2875 to i32
  br i1 %cmp9.i.i943, label %cleanup137, label %_ZNSt3__1eqB7v170000IcNS_11char_traitsIcEENS_9allocatorIcEEEEbRKNS_12basic_stringIT_T0_T1_EEPKS6_.exit951.thread2750

_ZNSt3__1eqB7v170000IcNS_11char_traitsIcEENS_9allocatorIcEEEEbRKNS_12basic_stringIT_T0_T1_EEPKS6_.exit951.thread2750: ; preds = %_ZNSt3__111char_traitsIcE7compareEPKcS3_m.exit.i.i919, %invoke.cont130, %_ZNSt3__111char_traitsIcE7compareEPKcS3_m.exit.i.i944
  br label %cleanup137

cleanup137:                                       ; preds = %_ZNSt3__111char_traitsIcE7compareEPKcS3_m.exit.i.i919, %_ZNSt3__1eqB7v170000IcNS_11char_traitsIcEENS_9allocatorIcEEEEbRKNS_12basic_stringIT_T0_T1_EEPKS6_.exit951.thread2750, %_ZNSt3__111char_traitsIcE7compareEPKcS3_m.exit.i.i944
  %cond588 = phi i1 [ false, %_ZNSt3__1eqB7v170000IcNS_11char_traitsIcEENS_9allocatorIcEEEEbRKNS_12basic_stringIT_T0_T1_EEPKS6_.exit951.thread2750 ], [ true, %_ZNSt3__111char_traitsIcE7compareEPKcS3_m.exit.i.i944 ], [ true, %_ZNSt3__111char_traitsIcE7compareEPKcS3_m.exit.i.i919 ]
  %close_paren_dex.1 = phi i32 [ %close_paren_dex.02828, %_ZNSt3__1eqB7v170000IcNS_11char_traitsIcEENS_9allocatorIcEEEEbRKNS_12basic_stringIT_T0_T1_EEPKS6_.exit951.thread2750 ], [ %71, %_ZNSt3__111char_traitsIcE7compareEPKcS3_m.exit.i.i944 ], [ %close_paren_dex.02828, %_ZNSt3__111char_traitsIcE7compareEPKcS3_m.exit.i.i919 ]
  br i1 %tobool.i.not.i.i905, label %_ZNSt3__112basic_stringIcNS_11char_traitsIcEENS_9allocatorIcEEED2Ev.exit958, label %if.then.i956

if.then.i956:                                     ; preds = %cleanup137
  %72 = load ptr, ptr %__data_.i.i.i.i.i915, align 8, !tbaa !49
  call void @_ZdlPv(ptr noundef %72) #24
  br label %_ZNSt3__112basic_stringIcNS_11char_traitsIcEENS_9allocatorIcEEED2Ev.exit958

_ZNSt3__112basic_stringIcNS_11char_traitsIcEENS_9allocatorIcEEED2Ev.exit958: ; preds = %cleanup137, %if.then.i956
  call void @llvm.lifetime.end.p0(i64 24, ptr nonnull %pi) #23
  %indvars.iv.next2876 = add nuw nsw i64 %indvars.iv2875, 1
  %exitcond2879.not = icmp eq i64 %indvars.iv.next2876, %wide.trip.count2878
  %or.cond = select i1 %cond588, i1 true, i1 %exitcond2879.not
  br i1 %or.cond, label %cleanup144, label %for.body128, !llvm.loop !55

cleanup144:                                       ; preds = %_ZNSt3__112basic_stringIcNS_11char_traitsIcEENS_9allocatorIcEEED2Ev.exit958
  %cmp147 = icmp eq i32 %close_paren_dex.1, -1
  br i1 %cmp147, label %if.then148, label %if.end181

if.then148:                                       ; preds = %cleanup144
  invoke void @_ZN2PP3Cmd11fatal_errorEiRNSt3__118basic_stringstreamIcNS1_11char_traitsIcEENS1_9allocatorIcEEEERi(ptr noundef nonnull align 8 dereferenceable(320) %cmdi, i32 noundef 0, ptr noundef nonnull align 8 dereferenceable(128) %serr, ptr noundef nonnull align 4 dereferenceable(4) %ierr)
          to label %invoke.cont150 unwind label %lpad149

invoke.cont150:                                   ; preds = %if.then148
  %add.ptr151 = getelementptr inbounds i8, ptr %serr, i64 16
  %call1.i960 = invoke noundef nonnull align 8 dereferenceable(8) ptr @_ZNSt3__124__put_character_sequenceB7v170000IcNS_11char_traitsIcEEEERNS_13basic_ostreamIT_T0_EES7_PKS4_m(ptr noundef nonnull align 8 dereferenceable(8) %add.ptr151, ptr noundef nonnull @.str.18, i64 noundef 53)
          to label %invoke.cont152 unwind label %lpad149

invoke.cont152:                                   ; preds = %invoke.cont150
  %vtable.i2373 = load ptr, ptr %call1.i960, align 8, !tbaa !38
  %vbase.offset.ptr.i2374 = getelementptr i8, ptr %vtable.i2373, i64 -24
  %vbase.offset.i2375 = load i64, ptr %vbase.offset.ptr.i2374, align 8
  %add.ptr.i2376 = getelementptr inbounds i8, ptr %call1.i960, i64 %vbase.offset.i2375
  call void @llvm.lifetime.start.p0(i64 8, ptr nonnull %ref.tmp.i.i2372) #23
  invoke void @_ZNKSt3__18ios_base6getlocEv(ptr nonnull sret(%"class.std::__1::locale") align 8 %ref.tmp.i.i2372, ptr noundef nonnull align 8 dereferenceable(136) %add.ptr.i2376)
          to label %.noexc2384 unwind label %lpad149

.noexc2384:                                       ; preds = %invoke.cont152
  %call.i5.i.i2377 = invoke noundef ptr @_ZNKSt3__16locale9use_facetERNS0_2idE(ptr noundef nonnull align 8 dereferenceable(8) %ref.tmp.i.i2372, ptr noundef nonnull align 8 dereferenceable(12) @_ZNSt3__15ctypeIcE2idE)
          to label %invoke.cont.i.i2381 unwind label %lpad.i.i2382

invoke.cont.i.i2381:                              ; preds = %.noexc2384
  %vtable.i.i.i2378 = load ptr, ptr %call.i5.i.i2377, align 8, !tbaa !38
  %vfn.i.i.i2379 = getelementptr inbounds ptr, ptr %vtable.i.i.i2378, i64 7
  %73 = load ptr, ptr %vfn.i.i.i2379, align 8
  %call.i6.i.i2380 = invoke noundef signext i8 %73(ptr noundef nonnull align 8 dereferenceable(25) %call.i5.i.i2377, i8 noundef signext 10)
          to label %_ZNKSt3__19basic_iosIcNS_11char_traitsIcEEE5widenB7v170000Ec.exit.i2383 unwind label %lpad.i.i2382

lpad.i.i2382:                                     ; preds = %invoke.cont.i.i2381, %.noexc2384
  %74 = landingpad { ptr, i32 }
          cleanup
  call void @_ZNSt3__16localeD1Ev(ptr noundef nonnull align 8 dereferenceable(8) %ref.tmp.i.i2372) #23
  call void @llvm.lifetime.end.p0(i64 8, ptr nonnull %ref.tmp.i.i2372) #23
  br label %ehcleanup571

_ZNKSt3__19basic_iosIcNS_11char_traitsIcEEE5widenB7v170000Ec.exit.i2383: ; preds = %invoke.cont.i.i2381
  call void @_ZNSt3__16localeD1Ev(ptr noundef nonnull align 8 dereferenceable(8) %ref.tmp.i.i2372) #23
  call void @llvm.lifetime.end.p0(i64 8, ptr nonnull %ref.tmp.i.i2372) #23
  %call1.i2387 = invoke noundef nonnull align 8 dereferenceable(8) ptr @_ZNSt3__113basic_ostreamIcNS_11char_traitsIcEEE3putEc(ptr noundef nonnull align 8 dereferenceable(8) %call1.i960, i8 noundef signext %call.i6.i.i2380)
          to label %call1.i.noexc2386 unwind label %lpad149

call1.i.noexc2386:                                ; preds = %_ZNKSt3__19basic_iosIcNS_11char_traitsIcEEE5widenB7v170000Ec.exit.i2383
  %call2.i2388 = invoke noundef nonnull align 8 dereferenceable(8) ptr @_ZNSt3__113basic_ostreamIcNS_11char_traitsIcEEE5flushEv(ptr noundef nonnull align 8 dereferenceable(8) %call1.i960)
          to label %invoke.cont154 unwind label %lpad149

invoke.cont154:                                   ; preds = %call1.i.noexc2386
  %call1.i965 = invoke noundef nonnull align 8 dereferenceable(8) ptr @_ZNSt3__124__put_character_sequenceB7v170000IcNS_11char_traitsIcEEEERNS_13basic_ostreamIT_T0_EES7_PKS4_m(ptr noundef nonnull align 8 dereferenceable(8) %add.ptr151, ptr noundef nonnull @.str.19, i64 noundef 33)
          to label %invoke.cont157 unwind label %lpad149

invoke.cont157:                                   ; preds = %invoke.cont154
  %vtable.i2391 = load ptr, ptr %call1.i965, align 8, !tbaa !38
  %vbase.offset.ptr.i2392 = getelementptr i8, ptr %vtable.i2391, i64 -24
  %vbase.offset.i2393 = load i64, ptr %vbase.offset.ptr.i2392, align 8
  %add.ptr.i2394 = getelementptr inbounds i8, ptr %call1.i965, i64 %vbase.offset.i2393
  call void @llvm.lifetime.start.p0(i64 8, ptr nonnull %ref.tmp.i.i2390) #23
  invoke void @_ZNKSt3__18ios_base6getlocEv(ptr nonnull sret(%"class.std::__1::locale") align 8 %ref.tmp.i.i2390, ptr noundef nonnull align 8 dereferenceable(136) %add.ptr.i2394)
          to label %.noexc2402 unwind label %lpad149

.noexc2402:                                       ; preds = %invoke.cont157
  %call.i5.i.i2395 = invoke noundef ptr @_ZNKSt3__16locale9use_facetERNS0_2idE(ptr noundef nonnull align 8 dereferenceable(8) %ref.tmp.i.i2390, ptr noundef nonnull align 8 dereferenceable(12) @_ZNSt3__15ctypeIcE2idE)
          to label %invoke.cont.i.i2399 unwind label %lpad.i.i2400

invoke.cont.i.i2399:                              ; preds = %.noexc2402
  %vtable.i.i.i2396 = load ptr, ptr %call.i5.i.i2395, align 8, !tbaa !38
  %vfn.i.i.i2397 = getelementptr inbounds ptr, ptr %vtable.i.i.i2396, i64 7
  %75 = load ptr, ptr %vfn.i.i.i2397, align 8
  %call.i6.i.i2398 = invoke noundef signext i8 %75(ptr noundef nonnull align 8 dereferenceable(25) %call.i5.i.i2395, i8 noundef signext 10)
          to label %_ZNKSt3__19basic_iosIcNS_11char_traitsIcEEE5widenB7v170000Ec.exit.i2401 unwind label %lpad.i.i2400

lpad.i.i2400:                                     ; preds = %invoke.cont.i.i2399, %.noexc2402
  %76 = landingpad { ptr, i32 }
          cleanup
  call void @_ZNSt3__16localeD1Ev(ptr noundef nonnull align 8 dereferenceable(8) %ref.tmp.i.i2390) #23
  call void @llvm.lifetime.end.p0(i64 8, ptr nonnull %ref.tmp.i.i2390) #23
  br label %ehcleanup571

_ZNKSt3__19basic_iosIcNS_11char_traitsIcEEE5widenB7v170000Ec.exit.i2401: ; preds = %invoke.cont.i.i2399
  call void @_ZNSt3__16localeD1Ev(ptr noundef nonnull align 8 dereferenceable(8) %ref.tmp.i.i2390) #23
  call void @llvm.lifetime.end.p0(i64 8, ptr nonnull %ref.tmp.i.i2390) #23
  %call1.i2406 = invoke noundef nonnull align 8 dereferenceable(8) ptr @_ZNSt3__113basic_ostreamIcNS_11char_traitsIcEEE3putEc(ptr noundef nonnull align 8 dereferenceable(8) %call1.i965, i8 noundef signext %call.i6.i.i2398)
          to label %call1.i.noexc2405 unwind label %lpad149

call1.i.noexc2405:                                ; preds = %_ZNKSt3__19basic_iosIcNS_11char_traitsIcEEE5widenB7v170000Ec.exit.i2401
  %call2.i2407 = invoke noundef nonnull align 8 dereferenceable(8) ptr @_ZNSt3__113basic_ostreamIcNS_11char_traitsIcEEE5flushEv(ptr noundef nonnull align 8 dereferenceable(8) %call1.i965)
          to label %invoke.cont159 unwind label %lpad149

invoke.cont159:                                   ; preds = %call1.i.noexc2405
  %call1.i970 = invoke noundef nonnull align 8 dereferenceable(8) ptr @_ZNSt3__124__put_character_sequenceB7v170000IcNS_11char_traitsIcEEEERNS_13basic_ostreamIT_T0_EES7_PKS4_m(ptr noundef nonnull align 8 dereferenceable(8) %add.ptr151, ptr noundef nonnull @.str.12, i64 noundef 42)
          to label %invoke.cont162 unwind label %lpad149

invoke.cont162:                                   ; preds = %invoke.cont159
  %vtable.i2410 = load ptr, ptr %call1.i970, align 8, !tbaa !38
  %vbase.offset.ptr.i2411 = getelementptr i8, ptr %vtable.i2410, i64 -24
  %vbase.offset.i2412 = load i64, ptr %vbase.offset.ptr.i2411, align 8
  %add.ptr.i2413 = getelementptr inbounds i8, ptr %call1.i970, i64 %vbase.offset.i2412
  call void @llvm.lifetime.start.p0(i64 8, ptr nonnull %ref.tmp.i.i2409) #23
  invoke void @_ZNKSt3__18ios_base6getlocEv(ptr nonnull sret(%"class.std::__1::locale") align 8 %ref.tmp.i.i2409, ptr noundef nonnull align 8 dereferenceable(136) %add.ptr.i2413)
          to label %.noexc2421 unwind label %lpad149

.noexc2421:                                       ; preds = %invoke.cont162
  %call.i5.i.i2414 = invoke noundef ptr @_ZNKSt3__16locale9use_facetERNS0_2idE(ptr noundef nonnull align 8 dereferenceable(8) %ref.tmp.i.i2409, ptr noundef nonnull align 8 dereferenceable(12) @_ZNSt3__15ctypeIcE2idE)
          to label %invoke.cont.i.i2418 unwind label %lpad.i.i2419

invoke.cont.i.i2418:                              ; preds = %.noexc2421
  %vtable.i.i.i2415 = load ptr, ptr %call.i5.i.i2414, align 8, !tbaa !38
  %vfn.i.i.i2416 = getelementptr inbounds ptr, ptr %vtable.i.i.i2415, i64 7
  %77 = load ptr, ptr %vfn.i.i.i2416, align 8
  %call.i6.i.i2417 = invoke noundef signext i8 %77(ptr noundef nonnull align 8 dereferenceable(25) %call.i5.i.i2414, i8 noundef signext 10)
          to label %_ZNKSt3__19basic_iosIcNS_11char_traitsIcEEE5widenB7v170000Ec.exit.i2420 unwind label %lpad.i.i2419

lpad.i.i2419:                                     ; preds = %invoke.cont.i.i2418, %.noexc2421
  %78 = landingpad { ptr, i32 }
          cleanup
  call void @_ZNSt3__16localeD1Ev(ptr noundef nonnull align 8 dereferenceable(8) %ref.tmp.i.i2409) #23
  call void @llvm.lifetime.end.p0(i64 8, ptr nonnull %ref.tmp.i.i2409) #23
  br label %ehcleanup571

_ZNKSt3__19basic_iosIcNS_11char_traitsIcEEE5widenB7v170000Ec.exit.i2420: ; preds = %invoke.cont.i.i2418
  call void @_ZNSt3__16localeD1Ev(ptr noundef nonnull align 8 dereferenceable(8) %ref.tmp.i.i2409) #23
  call void @llvm.lifetime.end.p0(i64 8, ptr nonnull %ref.tmp.i.i2409) #23
  %call1.i2425 = invoke noundef nonnull align 8 dereferenceable(8) ptr @_ZNSt3__113basic_ostreamIcNS_11char_traitsIcEEE3putEc(ptr noundef nonnull align 8 dereferenceable(8) %call1.i970, i8 noundef signext %call.i6.i.i2417)
          to label %call1.i.noexc2424 unwind label %lpad149

call1.i.noexc2424:                                ; preds = %_ZNKSt3__19basic_iosIcNS_11char_traitsIcEEE5widenB7v170000Ec.exit.i2420
  %call2.i2426 = invoke noundef nonnull align 8 dereferenceable(8) ptr @_ZNSt3__113basic_ostreamIcNS_11char_traitsIcEEE5flushEv(ptr noundef nonnull align 8 dereferenceable(8) %call1.i970)
          to label %invoke.cont164 unwind label %lpad149

invoke.cont164:                                   ; preds = %call1.i.noexc2424
  %call1.i975 = invoke noundef nonnull align 8 dereferenceable(8) ptr @_ZNSt3__124__put_character_sequenceB7v170000IcNS_11char_traitsIcEEEERNS_13basic_ostreamIT_T0_EES7_PKS4_m(ptr noundef nonnull align 8 dereferenceable(8) %add.ptr151, ptr noundef nonnull @.str.5, i64 noundef 27)
          to label %invoke.cont167 unwind label %lpad149

invoke.cont167:                                   ; preds = %invoke.cont164
  %vtable.i2429 = load ptr, ptr %call1.i975, align 8, !tbaa !38
  %vbase.offset.ptr.i2430 = getelementptr i8, ptr %vtable.i2429, i64 -24
  %vbase.offset.i2431 = load i64, ptr %vbase.offset.ptr.i2430, align 8
  %add.ptr.i2432 = getelementptr inbounds i8, ptr %call1.i975, i64 %vbase.offset.i2431
  call void @llvm.lifetime.start.p0(i64 8, ptr nonnull %ref.tmp.i.i2428) #23
  invoke void @_ZNKSt3__18ios_base6getlocEv(ptr nonnull sret(%"class.std::__1::locale") align 8 %ref.tmp.i.i2428, ptr noundef nonnull align 8 dereferenceable(136) %add.ptr.i2432)
          to label %.noexc2440 unwind label %lpad149

.noexc2440:                                       ; preds = %invoke.cont167
  %call.i5.i.i2433 = invoke noundef ptr @_ZNKSt3__16locale9use_facetERNS0_2idE(ptr noundef nonnull align 8 dereferenceable(8) %ref.tmp.i.i2428, ptr noundef nonnull align 8 dereferenceable(12) @_ZNSt3__15ctypeIcE2idE)
          to label %invoke.cont.i.i2437 unwind label %lpad.i.i2438

invoke.cont.i.i2437:                              ; preds = %.noexc2440
  %vtable.i.i.i2434 = load ptr, ptr %call.i5.i.i2433, align 8, !tbaa !38
  %vfn.i.i.i2435 = getelementptr inbounds ptr, ptr %vtable.i.i.i2434, i64 7
  %79 = load ptr, ptr %vfn.i.i.i2435, align 8
  %call.i6.i.i2436 = invoke noundef signext i8 %79(ptr noundef nonnull align 8 dereferenceable(25) %call.i5.i.i2433, i8 noundef signext 10)
          to label %_ZNKSt3__19basic_iosIcNS_11char_traitsIcEEE5widenB7v170000Ec.exit.i2439 unwind label %lpad.i.i2438

lpad.i.i2438:                                     ; preds = %invoke.cont.i.i2437, %.noexc2440
  %80 = landingpad { ptr, i32 }
          cleanup
  call void @_ZNSt3__16localeD1Ev(ptr noundef nonnull align 8 dereferenceable(8) %ref.tmp.i.i2428) #23
  call void @llvm.lifetime.end.p0(i64 8, ptr nonnull %ref.tmp.i.i2428) #23
  br label %ehcleanup571

_ZNKSt3__19basic_iosIcNS_11char_traitsIcEEE5widenB7v170000Ec.exit.i2439: ; preds = %invoke.cont.i.i2437
  call void @_ZNSt3__16localeD1Ev(ptr noundef nonnull align 8 dereferenceable(8) %ref.tmp.i.i2428) #23
  call void @llvm.lifetime.end.p0(i64 8, ptr nonnull %ref.tmp.i.i2428) #23
  %call1.i2444 = invoke noundef nonnull align 8 dereferenceable(8) ptr @_ZNSt3__113basic_ostreamIcNS_11char_traitsIcEEE3putEc(ptr noundef nonnull align 8 dereferenceable(8) %call1.i975, i8 noundef signext %call.i6.i.i2436)
          to label %call1.i.noexc2443 unwind label %lpad149

call1.i.noexc2443:                                ; preds = %_ZNKSt3__19basic_iosIcNS_11char_traitsIcEEE5widenB7v170000Ec.exit.i2439
  %call2.i2445 = invoke noundef nonnull align 8 dereferenceable(8) ptr @_ZNSt3__113basic_ostreamIcNS_11char_traitsIcEEE5flushEv(ptr noundef nonnull align 8 dereferenceable(8) %call1.i975)
          to label %invoke.cont169 unwind label %lpad149

invoke.cont169:                                   ; preds = %call1.i.noexc2443
  %call1.i980 = invoke noundef nonnull align 8 dereferenceable(8) ptr @_ZNSt3__124__put_character_sequenceB7v170000IcNS_11char_traitsIcEEEERNS_13basic_ostreamIT_T0_EES7_PKS4_m(ptr noundef nonnull align 8 dereferenceable(8) %add.ptr151, ptr noundef nonnull @.str.13, i64 noundef 35)
          to label %invoke.cont172 unwind label %lpad149

invoke.cont172:                                   ; preds = %invoke.cont169
  %vtable.i2448 = load ptr, ptr %call1.i980, align 8, !tbaa !38
  %vbase.offset.ptr.i2449 = getelementptr i8, ptr %vtable.i2448, i64 -24
  %vbase.offset.i2450 = load i64, ptr %vbase.offset.ptr.i2449, align 8
  %add.ptr.i2451 = getelementptr inbounds i8, ptr %call1.i980, i64 %vbase.offset.i2450
  call void @llvm.lifetime.start.p0(i64 8, ptr nonnull %ref.tmp.i.i2447) #23
  invoke void @_ZNKSt3__18ios_base6getlocEv(ptr nonnull sret(%"class.std::__1::locale") align 8 %ref.tmp.i.i2447, ptr noundef nonnull align 8 dereferenceable(136) %add.ptr.i2451)
          to label %.noexc2459 unwind label %lpad149

.noexc2459:                                       ; preds = %invoke.cont172
  %call.i5.i.i2452 = invoke noundef ptr @_ZNKSt3__16locale9use_facetERNS0_2idE(ptr noundef nonnull align 8 dereferenceable(8) %ref.tmp.i.i2447, ptr noundef nonnull align 8 dereferenceable(12) @_ZNSt3__15ctypeIcE2idE)
          to label %invoke.cont.i.i2456 unwind label %lpad.i.i2457

invoke.cont.i.i2456:                              ; preds = %.noexc2459
  %vtable.i.i.i2453 = load ptr, ptr %call.i5.i.i2452, align 8, !tbaa !38
  %vfn.i.i.i2454 = getelementptr inbounds ptr, ptr %vtable.i.i.i2453, i64 7
  %81 = load ptr, ptr %vfn.i.i.i2454, align 8
  %call.i6.i.i2455 = invoke noundef signext i8 %81(ptr noundef nonnull align 8 dereferenceable(25) %call.i5.i.i2452, i8 noundef signext 10)
          to label %_ZNKSt3__19basic_iosIcNS_11char_traitsIcEEE5widenB7v170000Ec.exit.i2458 unwind label %lpad.i.i2457

lpad.i.i2457:                                     ; preds = %invoke.cont.i.i2456, %.noexc2459
  %82 = landingpad { ptr, i32 }
          cleanup
  call void @_ZNSt3__16localeD1Ev(ptr noundef nonnull align 8 dereferenceable(8) %ref.tmp.i.i2447) #23
  call void @llvm.lifetime.end.p0(i64 8, ptr nonnull %ref.tmp.i.i2447) #23
  br label %ehcleanup571

_ZNKSt3__19basic_iosIcNS_11char_traitsIcEEE5widenB7v170000Ec.exit.i2458: ; preds = %invoke.cont.i.i2456
  call void @_ZNSt3__16localeD1Ev(ptr noundef nonnull align 8 dereferenceable(8) %ref.tmp.i.i2447) #23
  call void @llvm.lifetime.end.p0(i64 8, ptr nonnull %ref.tmp.i.i2447) #23
  %call1.i2463 = invoke noundef nonnull align 8 dereferenceable(8) ptr @_ZNSt3__113basic_ostreamIcNS_11char_traitsIcEEE3putEc(ptr noundef nonnull align 8 dereferenceable(8) %call1.i980, i8 noundef signext %call.i6.i.i2455)
          to label %call1.i.noexc2462 unwind label %lpad149

call1.i.noexc2462:                                ; preds = %_ZNKSt3__19basic_iosIcNS_11char_traitsIcEEE5widenB7v170000Ec.exit.i2458
  %call2.i2464 = invoke noundef nonnull align 8 dereferenceable(8) ptr @_ZNSt3__113basic_ostreamIcNS_11char_traitsIcEEE5flushEv(ptr noundef nonnull align 8 dereferenceable(8) %call1.i980)
          to label %invoke.cont174 unwind label %lpad149

invoke.cont174:                                   ; preds = %call1.i.noexc2462
  %call1.i985 = invoke noundef nonnull align 8 dereferenceable(8) ptr @_ZNSt3__124__put_character_sequenceB7v170000IcNS_11char_traitsIcEEEERNS_13basic_ostreamIT_T0_EES7_PKS4_m(ptr noundef nonnull align 8 dereferenceable(8) %add.ptr151, ptr noundef nonnull @.str.7, i64 noundef 38)
          to label %invoke.cont177 unwind label %lpad149

invoke.cont177:                                   ; preds = %invoke.cont174
  %vtable.i2467 = load ptr, ptr %call1.i985, align 8, !tbaa !38
  %vbase.offset.ptr.i2468 = getelementptr i8, ptr %vtable.i2467, i64 -24
  %vbase.offset.i2469 = load i64, ptr %vbase.offset.ptr.i2468, align 8
  %add.ptr.i2470 = getelementptr inbounds i8, ptr %call1.i985, i64 %vbase.offset.i2469
  call void @llvm.lifetime.start.p0(i64 8, ptr nonnull %ref.tmp.i.i2466) #23
  invoke void @_ZNKSt3__18ios_base6getlocEv(ptr nonnull sret(%"class.std::__1::locale") align 8 %ref.tmp.i.i2466, ptr noundef nonnull align 8 dereferenceable(136) %add.ptr.i2470)
          to label %.noexc2478 unwind label %lpad149

.noexc2478:                                       ; preds = %invoke.cont177
  %call.i5.i.i2471 = invoke noundef ptr @_ZNKSt3__16locale9use_facetERNS0_2idE(ptr noundef nonnull align 8 dereferenceable(8) %ref.tmp.i.i2466, ptr noundef nonnull align 8 dereferenceable(12) @_ZNSt3__15ctypeIcE2idE)
          to label %invoke.cont.i.i2475 unwind label %lpad.i.i2476

invoke.cont.i.i2475:                              ; preds = %.noexc2478
  %vtable.i.i.i2472 = load ptr, ptr %call.i5.i.i2471, align 8, !tbaa !38
  %vfn.i.i.i2473 = getelementptr inbounds ptr, ptr %vtable.i.i.i2472, i64 7
  %83 = load ptr, ptr %vfn.i.i.i2473, align 8
  %call.i6.i.i2474 = invoke noundef signext i8 %83(ptr noundef nonnull align 8 dereferenceable(25) %call.i5.i.i2471, i8 noundef signext 10)
          to label %_ZNKSt3__19basic_iosIcNS_11char_traitsIcEEE5widenB7v170000Ec.exit.i2477 unwind label %lpad.i.i2476

lpad.i.i2476:                                     ; preds = %invoke.cont.i.i2475, %.noexc2478
  %84 = landingpad { ptr, i32 }
          cleanup
  call void @_ZNSt3__16localeD1Ev(ptr noundef nonnull align 8 dereferenceable(8) %ref.tmp.i.i2466) #23
  call void @llvm.lifetime.end.p0(i64 8, ptr nonnull %ref.tmp.i.i2466) #23
  br label %ehcleanup571

_ZNKSt3__19basic_iosIcNS_11char_traitsIcEEE5widenB7v170000Ec.exit.i2477: ; preds = %invoke.cont.i.i2475
  call void @_ZNSt3__16localeD1Ev(ptr noundef nonnull align 8 dereferenceable(8) %ref.tmp.i.i2466) #23
  call void @llvm.lifetime.end.p0(i64 8, ptr nonnull %ref.tmp.i.i2466) #23
  %call1.i2482 = invoke noundef nonnull align 8 dereferenceable(8) ptr @_ZNSt3__113basic_ostreamIcNS_11char_traitsIcEEE3putEc(ptr noundef nonnull align 8 dereferenceable(8) %call1.i985, i8 noundef signext %call.i6.i.i2474)
          to label %call1.i.noexc2481 unwind label %lpad149

call1.i.noexc2481:                                ; preds = %_ZNKSt3__19basic_iosIcNS_11char_traitsIcEEE5widenB7v170000Ec.exit.i2477
  %call2.i2483 = invoke noundef nonnull align 8 dereferenceable(8) ptr @_ZNSt3__113basic_ostreamIcNS_11char_traitsIcEEE5flushEv(ptr noundef nonnull align 8 dereferenceable(8) %call1.i985)
          to label %invoke.cont179 unwind label %lpad149

invoke.cont179:                                   ; preds = %call1.i.noexc2481
  store i32 2, ptr %ierr, align 4, !tbaa !35
  br label %cleanup570

lpad149:                                          ; preds = %call1.i.noexc2481, %_ZNKSt3__19basic_iosIcNS_11char_traitsIcEEE5widenB7v170000Ec.exit.i2477, %invoke.cont177, %call1.i.noexc2462, %_ZNKSt3__19basic_iosIcNS_11char_traitsIcEEE5widenB7v170000Ec.exit.i2458, %invoke.cont172, %call1.i.noexc2443, %_ZNKSt3__19basic_iosIcNS_11char_traitsIcEEE5widenB7v170000Ec.exit.i2439, %invoke.cont167, %call1.i.noexc2424, %_ZNKSt3__19basic_iosIcNS_11char_traitsIcEEE5widenB7v170000Ec.exit.i2420, %invoke.cont162, %call1.i.noexc2405, %_ZNKSt3__19basic_iosIcNS_11char_traitsIcEEE5widenB7v170000Ec.exit.i2401, %invoke.cont157, %call1.i.noexc2386, %_ZNKSt3__19basic_iosIcNS_11char_traitsIcEEE5widenB7v170000Ec.exit.i2383, %invoke.cont152, %invoke.cont174, %invoke.cont169, %invoke.cont164, %invoke.cont159, %invoke.cont154, %invoke.cont150, %if.then148
  %85 = landingpad { ptr, i32 }
          cleanup
  br label %ehcleanup571

if.end181:                                        ; preds = %cleanup144
  %sub182 = add nsw i32 %close_paren_dex.1, -2
  %add183 = add i32 %close_paren_dex.1, 3
  %86 = and i32 %add183, 3
  %cmp184.not = icmp eq i32 %86, 0
  br i1 %cmp184.not, label %for.cond237.preheader, label %if.then185

for.cond237.preheader:                            ; preds = %if.end181
  %cmp2382832 = icmp sgt i32 %close_paren_dex.1, 2
  br i1 %cmp2382832, label %for.body240.lr.ph, label %for.cond275.preheader

for.body240.lr.ph:                                ; preds = %for.cond237.preheader
  %__data_.i.i.i = getelementptr inbounds %"struct.std::__1::basic_string<char>::__short", ptr %agg.tmp, i64 0, i32 2
  %cmp.i24.i.i = icmp ugt ptr %__data_.i.i.i, @.str.29
  %add.ptr.i.i.i = getelementptr inbounds %"struct.std::__1::basic_string<char>::__short", ptr %agg.tmp, i64 0, i32 2, i64 4
  %cmp1.i.i.i = icmp ule ptr %add.ptr.i.i.i, @.str.29
  %87 = or i1 %cmp.i24.i.i, %cmp1.i.i.i
  %__data_.i.i1045 = getelementptr inbounds %"struct.std::__1::basic_string<char>::__long", ptr %agg.tmp, i64 0, i32 2
  %__data_.i.i.i1063 = getelementptr inbounds %"struct.std::__1::basic_string<char>::__short", ptr %ref.tmp, i64 0, i32 2
  %cmp.i24.i.i1072 = icmp ugt ptr %__data_.i.i.i1063, @.str.30
  %add.ptr.i.i.i1073 = getelementptr inbounds %"struct.std::__1::basic_string<char>::__short", ptr %ref.tmp, i64 0, i32 2, i64 5
  %cmp1.i.i.i1074 = icmp ule ptr %add.ptr.i.i.i1073, @.str.30
  %88 = or i1 %cmp.i24.i.i1072, %cmp1.i.i.i1074
  %__end_.i.i.i.i = getelementptr inbounds %"class.PP::Whenthen", ptr %this, i64 0, i32 4, i32 0, i32 2
  %__begin_.i.i.i.i = getelementptr inbounds %"class.PP::Whenthen", ptr %this, i64 0, i32 4, i32 0, i32 1
  %__start_.i.i1082 = getelementptr inbounds %"class.PP::Whenthen", ptr %this, i64 0, i32 4, i32 1
  %__size_.i.i.i.i1083 = getelementptr inbounds %"class.PP::Whenthen", ptr %this, i64 0, i32 4, i32 2
  br label %for.body240

if.then185:                                       ; preds = %if.end181
  invoke void @_ZN2PP3Cmd11fatal_errorEiRNSt3__118basic_stringstreamIcNS1_11char_traitsIcEENS1_9allocatorIcEEEERi(ptr noundef nonnull align 8 dereferenceable(320) %cmdi, i32 noundef 0, ptr noundef nonnull align 8 dereferenceable(128) %serr, ptr noundef nonnull align 4 dereferenceable(4) %ierr)
          to label %invoke.cont187 unwind label %lpad186

invoke.cont187:                                   ; preds = %if.then185
  %add.ptr188 = getelementptr inbounds i8, ptr %serr, i64 16
  %call1.i990 = invoke noundef nonnull align 8 dereferenceable(8) ptr @_ZNSt3__124__put_character_sequenceB7v170000IcNS_11char_traitsIcEEEERNS_13basic_ostreamIT_T0_EES7_PKS4_m(ptr noundef nonnull align 8 dereferenceable(8) %add.ptr188, ptr noundef nonnull @.str.20, i64 noundef 51)
          to label %invoke.cont189 unwind label %lpad186

invoke.cont189:                                   ; preds = %invoke.cont187
  %vtable.i2486 = load ptr, ptr %call1.i990, align 8, !tbaa !38
  %vbase.offset.ptr.i2487 = getelementptr i8, ptr %vtable.i2486, i64 -24
  %vbase.offset.i2488 = load i64, ptr %vbase.offset.ptr.i2487, align 8
  %add.ptr.i2489 = getelementptr inbounds i8, ptr %call1.i990, i64 %vbase.offset.i2488
  call void @llvm.lifetime.start.p0(i64 8, ptr nonnull %ref.tmp.i.i2485) #23
  invoke void @_ZNKSt3__18ios_base6getlocEv(ptr nonnull sret(%"class.std::__1::locale") align 8 %ref.tmp.i.i2485, ptr noundef nonnull align 8 dereferenceable(136) %add.ptr.i2489)
          to label %.noexc2497 unwind label %lpad186

.noexc2497:                                       ; preds = %invoke.cont189
  %call.i5.i.i2490 = invoke noundef ptr @_ZNKSt3__16locale9use_facetERNS0_2idE(ptr noundef nonnull align 8 dereferenceable(8) %ref.tmp.i.i2485, ptr noundef nonnull align 8 dereferenceable(12) @_ZNSt3__15ctypeIcE2idE)
          to label %invoke.cont.i.i2494 unwind label %lpad.i.i2495

invoke.cont.i.i2494:                              ; preds = %.noexc2497
  %vtable.i.i.i2491 = load ptr, ptr %call.i5.i.i2490, align 8, !tbaa !38
  %vfn.i.i.i2492 = getelementptr inbounds ptr, ptr %vtable.i.i.i2491, i64 7
  %89 = load ptr, ptr %vfn.i.i.i2492, align 8
  %call.i6.i.i2493 = invoke noundef signext i8 %89(ptr noundef nonnull align 8 dereferenceable(25) %call.i5.i.i2490, i8 noundef signext 10)
          to label %_ZNKSt3__19basic_iosIcNS_11char_traitsIcEEE5widenB7v170000Ec.exit.i2496 unwind label %lpad.i.i2495

lpad.i.i2495:                                     ; preds = %invoke.cont.i.i2494, %.noexc2497
  %90 = landingpad { ptr, i32 }
          cleanup
  call void @_ZNSt3__16localeD1Ev(ptr noundef nonnull align 8 dereferenceable(8) %ref.tmp.i.i2485) #23
  call void @llvm.lifetime.end.p0(i64 8, ptr nonnull %ref.tmp.i.i2485) #23
  br label %ehcleanup571

_ZNKSt3__19basic_iosIcNS_11char_traitsIcEEE5widenB7v170000Ec.exit.i2496: ; preds = %invoke.cont.i.i2494
  call void @_ZNSt3__16localeD1Ev(ptr noundef nonnull align 8 dereferenceable(8) %ref.tmp.i.i2485) #23
  call void @llvm.lifetime.end.p0(i64 8, ptr nonnull %ref.tmp.i.i2485) #23
  %call1.i2500 = invoke noundef nonnull align 8 dereferenceable(8) ptr @_ZNSt3__113basic_ostreamIcNS_11char_traitsIcEEE3putEc(ptr noundef nonnull align 8 dereferenceable(8) %call1.i990, i8 noundef signext %call.i6.i.i2493)
          to label %call1.i.noexc2499 unwind label %lpad186

call1.i.noexc2499:                                ; preds = %_ZNKSt3__19basic_iosIcNS_11char_traitsIcEEE5widenB7v170000Ec.exit.i2496
  %call2.i2501 = invoke noundef nonnull align 8 dereferenceable(8) ptr @_ZNSt3__113basic_ostreamIcNS_11char_traitsIcEEE5flushEv(ptr noundef nonnull align 8 dereferenceable(8) %call1.i990)
          to label %invoke.cont191 unwind label %lpad186

invoke.cont191:                                   ; preds = %call1.i.noexc2499
  %call1.i995 = invoke noundef nonnull align 8 dereferenceable(8) ptr @_ZNSt3__124__put_character_sequenceB7v170000IcNS_11char_traitsIcEEEERNS_13basic_ostreamIT_T0_EES7_PKS4_m(ptr noundef nonnull align 8 dereferenceable(8) %add.ptr188, ptr noundef nonnull @.str.21, i64 noundef 41)
          to label %invoke.cont194 unwind label %lpad186

invoke.cont194:                                   ; preds = %invoke.cont191
  %call197 = invoke noundef nonnull align 8 dereferenceable(8) ptr @_ZNSt3__113basic_ostreamIcNS_11char_traitsIcEEElsEi(ptr noundef nonnull align 8 dereferenceable(8) %call1.i995, i32 noundef %sub182)
          to label %invoke.cont196 unwind label %lpad186

invoke.cont196:                                   ; preds = %invoke.cont194
  %vtable.i2504 = load ptr, ptr %call197, align 8, !tbaa !38
  %vbase.offset.ptr.i2505 = getelementptr i8, ptr %vtable.i2504, i64 -24
  %vbase.offset.i2506 = load i64, ptr %vbase.offset.ptr.i2505, align 8
  %add.ptr.i2507 = getelementptr inbounds i8, ptr %call197, i64 %vbase.offset.i2506
  call void @llvm.lifetime.start.p0(i64 8, ptr nonnull %ref.tmp.i.i2503) #23
  invoke void @_ZNKSt3__18ios_base6getlocEv(ptr nonnull sret(%"class.std::__1::locale") align 8 %ref.tmp.i.i2503, ptr noundef nonnull align 8 dereferenceable(136) %add.ptr.i2507)
          to label %.noexc2515 unwind label %lpad186

.noexc2515:                                       ; preds = %invoke.cont196
  %call.i5.i.i2508 = invoke noundef ptr @_ZNKSt3__16locale9use_facetERNS0_2idE(ptr noundef nonnull align 8 dereferenceable(8) %ref.tmp.i.i2503, ptr noundef nonnull align 8 dereferenceable(12) @_ZNSt3__15ctypeIcE2idE)
          to label %invoke.cont.i.i2512 unwind label %lpad.i.i2513

invoke.cont.i.i2512:                              ; preds = %.noexc2515
  %vtable.i.i.i2509 = load ptr, ptr %call.i5.i.i2508, align 8, !tbaa !38
  %vfn.i.i.i2510 = getelementptr inbounds ptr, ptr %vtable.i.i.i2509, i64 7
  %91 = load ptr, ptr %vfn.i.i.i2510, align 8
  %call.i6.i.i2511 = invoke noundef signext i8 %91(ptr noundef nonnull align 8 dereferenceable(25) %call.i5.i.i2508, i8 noundef signext 10)
          to label %_ZNKSt3__19basic_iosIcNS_11char_traitsIcEEE5widenB7v170000Ec.exit.i2514 unwind label %lpad.i.i2513

lpad.i.i2513:                                     ; preds = %invoke.cont.i.i2512, %.noexc2515
  %92 = landingpad { ptr, i32 }
          cleanup
  call void @_ZNSt3__16localeD1Ev(ptr noundef nonnull align 8 dereferenceable(8) %ref.tmp.i.i2503) #23
  call void @llvm.lifetime.end.p0(i64 8, ptr nonnull %ref.tmp.i.i2503) #23
  br label %ehcleanup571

_ZNKSt3__19basic_iosIcNS_11char_traitsIcEEE5widenB7v170000Ec.exit.i2514: ; preds = %invoke.cont.i.i2512
  call void @_ZNSt3__16localeD1Ev(ptr noundef nonnull align 8 dereferenceable(8) %ref.tmp.i.i2503) #23
  call void @llvm.lifetime.end.p0(i64 8, ptr nonnull %ref.tmp.i.i2503) #23
  %call1.i2519 = invoke noundef nonnull align 8 dereferenceable(8) ptr @_ZNSt3__113basic_ostreamIcNS_11char_traitsIcEEE3putEc(ptr noundef nonnull align 8 dereferenceable(8) %call197, i8 noundef signext %call.i6.i.i2511)
          to label %call1.i.noexc2518 unwind label %lpad186

call1.i.noexc2518:                                ; preds = %_ZNKSt3__19basic_iosIcNS_11char_traitsIcEEE5widenB7v170000Ec.exit.i2514
  %call2.i2520 = invoke noundef nonnull align 8 dereferenceable(8) ptr @_ZNSt3__113basic_ostreamIcNS_11char_traitsIcEEE5flushEv(ptr noundef nonnull align 8 dereferenceable(8) %call197)
          to label %invoke.cont198 unwind label %lpad186

invoke.cont198:                                   ; preds = %call1.i.noexc2518
  %call1.i1000 = invoke noundef nonnull align 8 dereferenceable(8) ptr @_ZNSt3__124__put_character_sequenceB7v170000IcNS_11char_traitsIcEEEERNS_13basic_ostreamIT_T0_EES7_PKS4_m(ptr noundef nonnull align 8 dereferenceable(8) %add.ptr188, ptr noundef nonnull @.str.22, i64 noundef 50)
          to label %invoke.cont201 unwind label %lpad186

invoke.cont201:                                   ; preds = %invoke.cont198
  %vtable.i2523 = load ptr, ptr %call1.i1000, align 8, !tbaa !38
  %vbase.offset.ptr.i2524 = getelementptr i8, ptr %vtable.i2523, i64 -24
  %vbase.offset.i2525 = load i64, ptr %vbase.offset.ptr.i2524, align 8
  %add.ptr.i2526 = getelementptr inbounds i8, ptr %call1.i1000, i64 %vbase.offset.i2525
  call void @llvm.lifetime.start.p0(i64 8, ptr nonnull %ref.tmp.i.i2522) #23
  invoke void @_ZNKSt3__18ios_base6getlocEv(ptr nonnull sret(%"class.std::__1::locale") align 8 %ref.tmp.i.i2522, ptr noundef nonnull align 8 dereferenceable(136) %add.ptr.i2526)
          to label %.noexc2534 unwind label %lpad186

.noexc2534:                                       ; preds = %invoke.cont201
  %call.i5.i.i2527 = invoke noundef ptr @_ZNKSt3__16locale9use_facetERNS0_2idE(ptr noundef nonnull align 8 dereferenceable(8) %ref.tmp.i.i2522, ptr noundef nonnull align 8 dereferenceable(12) @_ZNSt3__15ctypeIcE2idE)
          to label %invoke.cont.i.i2531 unwind label %lpad.i.i2532

invoke.cont.i.i2531:                              ; preds = %.noexc2534
  %vtable.i.i.i2528 = load ptr, ptr %call.i5.i.i2527, align 8, !tbaa !38
  %vfn.i.i.i2529 = getelementptr inbounds ptr, ptr %vtable.i.i.i2528, i64 7
  %93 = load ptr, ptr %vfn.i.i.i2529, align 8
  %call.i6.i.i2530 = invoke noundef signext i8 %93(ptr noundef nonnull align 8 dereferenceable(25) %call.i5.i.i2527, i8 noundef signext 10)
          to label %_ZNKSt3__19basic_iosIcNS_11char_traitsIcEEE5widenB7v170000Ec.exit.i2533 unwind label %lpad.i.i2532

lpad.i.i2532:                                     ; preds = %invoke.cont.i.i2531, %.noexc2534
  %94 = landingpad { ptr, i32 }
          cleanup
  call void @_ZNSt3__16localeD1Ev(ptr noundef nonnull align 8 dereferenceable(8) %ref.tmp.i.i2522) #23
  call void @llvm.lifetime.end.p0(i64 8, ptr nonnull %ref.tmp.i.i2522) #23
  br label %ehcleanup571

_ZNKSt3__19basic_iosIcNS_11char_traitsIcEEE5widenB7v170000Ec.exit.i2533: ; preds = %invoke.cont.i.i2531
  call void @_ZNSt3__16localeD1Ev(ptr noundef nonnull align 8 dereferenceable(8) %ref.tmp.i.i2522) #23
  call void @llvm.lifetime.end.p0(i64 8, ptr nonnull %ref.tmp.i.i2522) #23
  %call1.i2538 = invoke noundef nonnull align 8 dereferenceable(8) ptr @_ZNSt3__113basic_ostreamIcNS_11char_traitsIcEEE3putEc(ptr noundef nonnull align 8 dereferenceable(8) %call1.i1000, i8 noundef signext %call.i6.i.i2530)
          to label %call1.i.noexc2537 unwind label %lpad186

call1.i.noexc2537:                                ; preds = %_ZNKSt3__19basic_iosIcNS_11char_traitsIcEEE5widenB7v170000Ec.exit.i2533
  %call2.i2539 = invoke noundef nonnull align 8 dereferenceable(8) ptr @_ZNSt3__113basic_ostreamIcNS_11char_traitsIcEEE5flushEv(ptr noundef nonnull align 8 dereferenceable(8) %call1.i1000)
          to label %invoke.cont203 unwind label %lpad186

invoke.cont203:                                   ; preds = %call1.i.noexc2537
  %call1.i1005 = invoke noundef nonnull align 8 dereferenceable(8) ptr @_ZNSt3__124__put_character_sequenceB7v170000IcNS_11char_traitsIcEEEERNS_13basic_ostreamIT_T0_EES7_PKS4_m(ptr noundef nonnull align 8 dereferenceable(8) %add.ptr188, ptr noundef nonnull @.str.23, i64 noundef 39)
          to label %invoke.cont206 unwind label %lpad186

invoke.cont206:                                   ; preds = %invoke.cont203
  %vtable.i2542 = load ptr, ptr %call1.i1005, align 8, !tbaa !38
  %vbase.offset.ptr.i2543 = getelementptr i8, ptr %vtable.i2542, i64 -24
  %vbase.offset.i2544 = load i64, ptr %vbase.offset.ptr.i2543, align 8
  %add.ptr.i2545 = getelementptr inbounds i8, ptr %call1.i1005, i64 %vbase.offset.i2544
  call void @llvm.lifetime.start.p0(i64 8, ptr nonnull %ref.tmp.i.i2541) #23
  invoke void @_ZNKSt3__18ios_base6getlocEv(ptr nonnull sret(%"class.std::__1::locale") align 8 %ref.tmp.i.i2541, ptr noundef nonnull align 8 dereferenceable(136) %add.ptr.i2545)
          to label %.noexc2553 unwind label %lpad186

.noexc2553:                                       ; preds = %invoke.cont206
  %call.i5.i.i2546 = invoke noundef ptr @_ZNKSt3__16locale9use_facetERNS0_2idE(ptr noundef nonnull align 8 dereferenceable(8) %ref.tmp.i.i2541, ptr noundef nonnull align 8 dereferenceable(12) @_ZNSt3__15ctypeIcE2idE)
          to label %invoke.cont.i.i2550 unwind label %lpad.i.i2551

invoke.cont.i.i2550:                              ; preds = %.noexc2553
  %vtable.i.i.i2547 = load ptr, ptr %call.i5.i.i2546, align 8, !tbaa !38
  %vfn.i.i.i2548 = getelementptr inbounds ptr, ptr %vtable.i.i.i2547, i64 7
  %95 = load ptr, ptr %vfn.i.i.i2548, align 8
  %call.i6.i.i2549 = invoke noundef signext i8 %95(ptr noundef nonnull align 8 dereferenceable(25) %call.i5.i.i2546, i8 noundef signext 10)
          to label %_ZNKSt3__19basic_iosIcNS_11char_traitsIcEEE5widenB7v170000Ec.exit.i2552 unwind label %lpad.i.i2551

lpad.i.i2551:                                     ; preds = %invoke.cont.i.i2550, %.noexc2553
  %96 = landingpad { ptr, i32 }
          cleanup
  call void @_ZNSt3__16localeD1Ev(ptr noundef nonnull align 8 dereferenceable(8) %ref.tmp.i.i2541) #23
  call void @llvm.lifetime.end.p0(i64 8, ptr nonnull %ref.tmp.i.i2541) #23
  br label %ehcleanup571

_ZNKSt3__19basic_iosIcNS_11char_traitsIcEEE5widenB7v170000Ec.exit.i2552: ; preds = %invoke.cont.i.i2550
  call void @_ZNSt3__16localeD1Ev(ptr noundef nonnull align 8 dereferenceable(8) %ref.tmp.i.i2541) #23
  call void @llvm.lifetime.end.p0(i64 8, ptr nonnull %ref.tmp.i.i2541) #23
  %call1.i2557 = invoke noundef nonnull align 8 dereferenceable(8) ptr @_ZNSt3__113basic_ostreamIcNS_11char_traitsIcEEE3putEc(ptr noundef nonnull align 8 dereferenceable(8) %call1.i1005, i8 noundef signext %call.i6.i.i2549)
          to label %call1.i.noexc2556 unwind label %lpad186

call1.i.noexc2556:                                ; preds = %_ZNKSt3__19basic_iosIcNS_11char_traitsIcEEE5widenB7v170000Ec.exit.i2552
  %call2.i2558 = invoke noundef nonnull align 8 dereferenceable(8) ptr @_ZNSt3__113basic_ostreamIcNS_11char_traitsIcEEE5flushEv(ptr noundef nonnull align 8 dereferenceable(8) %call1.i1005)
          to label %invoke.cont208 unwind label %lpad186

invoke.cont208:                                   ; preds = %call1.i.noexc2556
  %call1.i1010 = invoke noundef nonnull align 8 dereferenceable(8) ptr @_ZNSt3__124__put_character_sequenceB7v170000IcNS_11char_traitsIcEEEERNS_13basic_ostreamIT_T0_EES7_PKS4_m(ptr noundef nonnull align 8 dereferenceable(8) %add.ptr188, ptr noundef nonnull @.str.24, i64 noundef 15)
          to label %invoke.cont211 unwind label %lpad186

invoke.cont211:                                   ; preds = %invoke.cont208
  %vtable.i2561 = load ptr, ptr %call1.i1010, align 8, !tbaa !38
  %vbase.offset.ptr.i2562 = getelementptr i8, ptr %vtable.i2561, i64 -24
  %vbase.offset.i2563 = load i64, ptr %vbase.offset.ptr.i2562, align 8
  %add.ptr.i2564 = getelementptr inbounds i8, ptr %call1.i1010, i64 %vbase.offset.i2563
  call void @llvm.lifetime.start.p0(i64 8, ptr nonnull %ref.tmp.i.i2560) #23
  invoke void @_ZNKSt3__18ios_base6getlocEv(ptr nonnull sret(%"class.std::__1::locale") align 8 %ref.tmp.i.i2560, ptr noundef nonnull align 8 dereferenceable(136) %add.ptr.i2564)
          to label %.noexc2572 unwind label %lpad186

.noexc2572:                                       ; preds = %invoke.cont211
  %call.i5.i.i2565 = invoke noundef ptr @_ZNKSt3__16locale9use_facetERNS0_2idE(ptr noundef nonnull align 8 dereferenceable(8) %ref.tmp.i.i2560, ptr noundef nonnull align 8 dereferenceable(12) @_ZNSt3__15ctypeIcE2idE)
          to label %invoke.cont.i.i2569 unwind label %lpad.i.i2570

invoke.cont.i.i2569:                              ; preds = %.noexc2572
  %vtable.i.i.i2566 = load ptr, ptr %call.i5.i.i2565, align 8, !tbaa !38
  %vfn.i.i.i2567 = getelementptr inbounds ptr, ptr %vtable.i.i.i2566, i64 7
  %97 = load ptr, ptr %vfn.i.i.i2567, align 8
  %call.i6.i.i2568 = invoke noundef signext i8 %97(ptr noundef nonnull align 8 dereferenceable(25) %call.i5.i.i2565, i8 noundef signext 10)
          to label %_ZNKSt3__19basic_iosIcNS_11char_traitsIcEEE5widenB7v170000Ec.exit.i2571 unwind label %lpad.i.i2570

lpad.i.i2570:                                     ; preds = %invoke.cont.i.i2569, %.noexc2572
  %98 = landingpad { ptr, i32 }
          cleanup
  call void @_ZNSt3__16localeD1Ev(ptr noundef nonnull align 8 dereferenceable(8) %ref.tmp.i.i2560) #23
  call void @llvm.lifetime.end.p0(i64 8, ptr nonnull %ref.tmp.i.i2560) #23
  br label %ehcleanup571

_ZNKSt3__19basic_iosIcNS_11char_traitsIcEEE5widenB7v170000Ec.exit.i2571: ; preds = %invoke.cont.i.i2569
  call void @_ZNSt3__16localeD1Ev(ptr noundef nonnull align 8 dereferenceable(8) %ref.tmp.i.i2560) #23
  call void @llvm.lifetime.end.p0(i64 8, ptr nonnull %ref.tmp.i.i2560) #23
  %call1.i2576 = invoke noundef nonnull align 8 dereferenceable(8) ptr @_ZNSt3__113basic_ostreamIcNS_11char_traitsIcEEE3putEc(ptr noundef nonnull align 8 dereferenceable(8) %call1.i1010, i8 noundef signext %call.i6.i.i2568)
          to label %call1.i.noexc2575 unwind label %lpad186

call1.i.noexc2575:                                ; preds = %_ZNKSt3__19basic_iosIcNS_11char_traitsIcEEE5widenB7v170000Ec.exit.i2571
  %call2.i2577 = invoke noundef nonnull align 8 dereferenceable(8) ptr @_ZNSt3__113basic_ostreamIcNS_11char_traitsIcEEE5flushEv(ptr noundef nonnull align 8 dereferenceable(8) %call1.i1010)
          to label %invoke.cont213 unwind label %lpad186

invoke.cont213:                                   ; preds = %call1.i.noexc2575
  %call1.i1015 = invoke noundef nonnull align 8 dereferenceable(8) ptr @_ZNSt3__124__put_character_sequenceB7v170000IcNS_11char_traitsIcEEEERNS_13basic_ostreamIT_T0_EES7_PKS4_m(ptr noundef nonnull align 8 dereferenceable(8) %add.ptr188, ptr noundef nonnull @.str.25, i64 noundef 44)
          to label %invoke.cont216 unwind label %lpad186

invoke.cont216:                                   ; preds = %invoke.cont213
  %vtable.i2580 = load ptr, ptr %call1.i1015, align 8, !tbaa !38
  %vbase.offset.ptr.i2581 = getelementptr i8, ptr %vtable.i2580, i64 -24
  %vbase.offset.i2582 = load i64, ptr %vbase.offset.ptr.i2581, align 8
  %add.ptr.i2583 = getelementptr inbounds i8, ptr %call1.i1015, i64 %vbase.offset.i2582
  call void @llvm.lifetime.start.p0(i64 8, ptr nonnull %ref.tmp.i.i2579) #23
  invoke void @_ZNKSt3__18ios_base6getlocEv(ptr nonnull sret(%"class.std::__1::locale") align 8 %ref.tmp.i.i2579, ptr noundef nonnull align 8 dereferenceable(136) %add.ptr.i2583)
          to label %.noexc2591 unwind label %lpad186

.noexc2591:                                       ; preds = %invoke.cont216
  %call.i5.i.i2584 = invoke noundef ptr @_ZNKSt3__16locale9use_facetERNS0_2idE(ptr noundef nonnull align 8 dereferenceable(8) %ref.tmp.i.i2579, ptr noundef nonnull align 8 dereferenceable(12) @_ZNSt3__15ctypeIcE2idE)
          to label %invoke.cont.i.i2588 unwind label %lpad.i.i2589

invoke.cont.i.i2588:                              ; preds = %.noexc2591
  %vtable.i.i.i2585 = load ptr, ptr %call.i5.i.i2584, align 8, !tbaa !38
  %vfn.i.i.i2586 = getelementptr inbounds ptr, ptr %vtable.i.i.i2585, i64 7
  %99 = load ptr, ptr %vfn.i.i.i2586, align 8
  %call.i6.i.i2587 = invoke noundef signext i8 %99(ptr noundef nonnull align 8 dereferenceable(25) %call.i5.i.i2584, i8 noundef signext 10)
          to label %_ZNKSt3__19basic_iosIcNS_11char_traitsIcEEE5widenB7v170000Ec.exit.i2590 unwind label %lpad.i.i2589

lpad.i.i2589:                                     ; preds = %invoke.cont.i.i2588, %.noexc2591
  %100 = landingpad { ptr, i32 }
          cleanup
  call void @_ZNSt3__16localeD1Ev(ptr noundef nonnull align 8 dereferenceable(8) %ref.tmp.i.i2579) #23
  call void @llvm.lifetime.end.p0(i64 8, ptr nonnull %ref.tmp.i.i2579) #23
  br label %ehcleanup571

_ZNKSt3__19basic_iosIcNS_11char_traitsIcEEE5widenB7v170000Ec.exit.i2590: ; preds = %invoke.cont.i.i2588
  call void @_ZNSt3__16localeD1Ev(ptr noundef nonnull align 8 dereferenceable(8) %ref.tmp.i.i2579) #23
  call void @llvm.lifetime.end.p0(i64 8, ptr nonnull %ref.tmp.i.i2579) #23
  %call1.i2595 = invoke noundef nonnull align 8 dereferenceable(8) ptr @_ZNSt3__113basic_ostreamIcNS_11char_traitsIcEEE3putEc(ptr noundef nonnull align 8 dereferenceable(8) %call1.i1015, i8 noundef signext %call.i6.i.i2587)
          to label %call1.i.noexc2594 unwind label %lpad186

call1.i.noexc2594:                                ; preds = %_ZNKSt3__19basic_iosIcNS_11char_traitsIcEEE5widenB7v170000Ec.exit.i2590
  %call2.i2596 = invoke noundef nonnull align 8 dereferenceable(8) ptr @_ZNSt3__113basic_ostreamIcNS_11char_traitsIcEEE5flushEv(ptr noundef nonnull align 8 dereferenceable(8) %call1.i1015)
          to label %invoke.cont218 unwind label %lpad186

invoke.cont218:                                   ; preds = %call1.i.noexc2594
  %call1.i1020 = invoke noundef nonnull align 8 dereferenceable(8) ptr @_ZNSt3__124__put_character_sequenceB7v170000IcNS_11char_traitsIcEEEERNS_13basic_ostreamIT_T0_EES7_PKS4_m(ptr noundef nonnull align 8 dereferenceable(8) %add.ptr188, ptr noundef nonnull @.str.26, i64 noundef 25)
          to label %invoke.cont221 unwind label %lpad186

invoke.cont221:                                   ; preds = %invoke.cont218
  %vtable.i2599 = load ptr, ptr %call1.i1020, align 8, !tbaa !38
  %vbase.offset.ptr.i2600 = getelementptr i8, ptr %vtable.i2599, i64 -24
  %vbase.offset.i2601 = load i64, ptr %vbase.offset.ptr.i2600, align 8
  %add.ptr.i2602 = getelementptr inbounds i8, ptr %call1.i1020, i64 %vbase.offset.i2601
  call void @llvm.lifetime.start.p0(i64 8, ptr nonnull %ref.tmp.i.i2598) #23
  invoke void @_ZNKSt3__18ios_base6getlocEv(ptr nonnull sret(%"class.std::__1::locale") align 8 %ref.tmp.i.i2598, ptr noundef nonnull align 8 dereferenceable(136) %add.ptr.i2602)
          to label %.noexc2610 unwind label %lpad186

.noexc2610:                                       ; preds = %invoke.cont221
  %call.i5.i.i2603 = invoke noundef ptr @_ZNKSt3__16locale9use_facetERNS0_2idE(ptr noundef nonnull align 8 dereferenceable(8) %ref.tmp.i.i2598, ptr noundef nonnull align 8 dereferenceable(12) @_ZNSt3__15ctypeIcE2idE)
          to label %invoke.cont.i.i2607 unwind label %lpad.i.i2608

invoke.cont.i.i2607:                              ; preds = %.noexc2610
  %vtable.i.i.i2604 = load ptr, ptr %call.i5.i.i2603, align 8, !tbaa !38
  %vfn.i.i.i2605 = getelementptr inbounds ptr, ptr %vtable.i.i.i2604, i64 7
  %101 = load ptr, ptr %vfn.i.i.i2605, align 8
  %call.i6.i.i2606 = invoke noundef signext i8 %101(ptr noundef nonnull align 8 dereferenceable(25) %call.i5.i.i2603, i8 noundef signext 10)
          to label %_ZNKSt3__19basic_iosIcNS_11char_traitsIcEEE5widenB7v170000Ec.exit.i2609 unwind label %lpad.i.i2608

lpad.i.i2608:                                     ; preds = %invoke.cont.i.i2607, %.noexc2610
  %102 = landingpad { ptr, i32 }
          cleanup
  call void @_ZNSt3__16localeD1Ev(ptr noundef nonnull align 8 dereferenceable(8) %ref.tmp.i.i2598) #23
  call void @llvm.lifetime.end.p0(i64 8, ptr nonnull %ref.tmp.i.i2598) #23
  br label %ehcleanup571

_ZNKSt3__19basic_iosIcNS_11char_traitsIcEEE5widenB7v170000Ec.exit.i2609: ; preds = %invoke.cont.i.i2607
  call void @_ZNSt3__16localeD1Ev(ptr noundef nonnull align 8 dereferenceable(8) %ref.tmp.i.i2598) #23
  call void @llvm.lifetime.end.p0(i64 8, ptr nonnull %ref.tmp.i.i2598) #23
  %call1.i2614 = invoke noundef nonnull align 8 dereferenceable(8) ptr @_ZNSt3__113basic_ostreamIcNS_11char_traitsIcEEE3putEc(ptr noundef nonnull align 8 dereferenceable(8) %call1.i1020, i8 noundef signext %call.i6.i.i2606)
          to label %call1.i.noexc2613 unwind label %lpad186

call1.i.noexc2613:                                ; preds = %_ZNKSt3__19basic_iosIcNS_11char_traitsIcEEE5widenB7v170000Ec.exit.i2609
  %call2.i2615 = invoke noundef nonnull align 8 dereferenceable(8) ptr @_ZNSt3__113basic_ostreamIcNS_11char_traitsIcEEE5flushEv(ptr noundef nonnull align 8 dereferenceable(8) %call1.i1020)
          to label %invoke.cont223 unwind label %lpad186

invoke.cont223:                                   ; preds = %call1.i.noexc2613
  %call1.i1025 = invoke noundef nonnull align 8 dereferenceable(8) ptr @_ZNSt3__124__put_character_sequenceB7v170000IcNS_11char_traitsIcEEEERNS_13basic_ostreamIT_T0_EES7_PKS4_m(ptr noundef nonnull align 8 dereferenceable(8) %add.ptr188, ptr noundef nonnull @.str.27, i64 noundef 36)
          to label %invoke.cont226 unwind label %lpad186

invoke.cont226:                                   ; preds = %invoke.cont223
  %vtable.i2618 = load ptr, ptr %call1.i1025, align 8, !tbaa !38
  %vbase.offset.ptr.i2619 = getelementptr i8, ptr %vtable.i2618, i64 -24
  %vbase.offset.i2620 = load i64, ptr %vbase.offset.ptr.i2619, align 8
  %add.ptr.i2621 = getelementptr inbounds i8, ptr %call1.i1025, i64 %vbase.offset.i2620
  call void @llvm.lifetime.start.p0(i64 8, ptr nonnull %ref.tmp.i.i2617) #23
  invoke void @_ZNKSt3__18ios_base6getlocEv(ptr nonnull sret(%"class.std::__1::locale") align 8 %ref.tmp.i.i2617, ptr noundef nonnull align 8 dereferenceable(136) %add.ptr.i2621)
          to label %.noexc2629 unwind label %lpad186

.noexc2629:                                       ; preds = %invoke.cont226
  %call.i5.i.i2622 = invoke noundef ptr @_ZNKSt3__16locale9use_facetERNS0_2idE(ptr noundef nonnull align 8 dereferenceable(8) %ref.tmp.i.i2617, ptr noundef nonnull align 8 dereferenceable(12) @_ZNSt3__15ctypeIcE2idE)
          to label %invoke.cont.i.i2626 unwind label %lpad.i.i2627

invoke.cont.i.i2626:                              ; preds = %.noexc2629
  %vtable.i.i.i2623 = load ptr, ptr %call.i5.i.i2622, align 8, !tbaa !38
  %vfn.i.i.i2624 = getelementptr inbounds ptr, ptr %vtable.i.i.i2623, i64 7
  %103 = load ptr, ptr %vfn.i.i.i2624, align 8
  %call.i6.i.i2625 = invoke noundef signext i8 %103(ptr noundef nonnull align 8 dereferenceable(25) %call.i5.i.i2622, i8 noundef signext 10)
          to label %_ZNKSt3__19basic_iosIcNS_11char_traitsIcEEE5widenB7v170000Ec.exit.i2628 unwind label %lpad.i.i2627

lpad.i.i2627:                                     ; preds = %invoke.cont.i.i2626, %.noexc2629
  %104 = landingpad { ptr, i32 }
          cleanup
  call void @_ZNSt3__16localeD1Ev(ptr noundef nonnull align 8 dereferenceable(8) %ref.tmp.i.i2617) #23
  call void @llvm.lifetime.end.p0(i64 8, ptr nonnull %ref.tmp.i.i2617) #23
  br label %ehcleanup571

_ZNKSt3__19basic_iosIcNS_11char_traitsIcEEE5widenB7v170000Ec.exit.i2628: ; preds = %invoke.cont.i.i2626
  call void @_ZNSt3__16localeD1Ev(ptr noundef nonnull align 8 dereferenceable(8) %ref.tmp.i.i2617) #23
  call void @llvm.lifetime.end.p0(i64 8, ptr nonnull %ref.tmp.i.i2617) #23
  %call1.i2633 = invoke noundef nonnull align 8 dereferenceable(8) ptr @_ZNSt3__113basic_ostreamIcNS_11char_traitsIcEEE3putEc(ptr noundef nonnull align 8 dereferenceable(8) %call1.i1025, i8 noundef signext %call.i6.i.i2625)
          to label %call1.i.noexc2632 unwind label %lpad186

call1.i.noexc2632:                                ; preds = %_ZNKSt3__19basic_iosIcNS_11char_traitsIcEEE5widenB7v170000Ec.exit.i2628
  %call2.i2634 = invoke noundef nonnull align 8 dereferenceable(8) ptr @_ZNSt3__113basic_ostreamIcNS_11char_traitsIcEEE5flushEv(ptr noundef nonnull align 8 dereferenceable(8) %call1.i1025)
          to label %invoke.cont228 unwind label %lpad186

invoke.cont228:                                   ; preds = %call1.i.noexc2632
  %call1.i1030 = invoke noundef nonnull align 8 dereferenceable(8) ptr @_ZNSt3__124__put_character_sequenceB7v170000IcNS_11char_traitsIcEEEERNS_13basic_ostreamIT_T0_EES7_PKS4_m(ptr noundef nonnull align 8 dereferenceable(8) %add.ptr188, ptr noundef nonnull @.str.28, i64 noundef 44)
          to label %invoke.cont231 unwind label %lpad186

invoke.cont231:                                   ; preds = %invoke.cont228
  %vtable.i2637 = load ptr, ptr %call1.i1030, align 8, !tbaa !38
  %vbase.offset.ptr.i2638 = getelementptr i8, ptr %vtable.i2637, i64 -24
  %vbase.offset.i2639 = load i64, ptr %vbase.offset.ptr.i2638, align 8
  %add.ptr.i2640 = getelementptr inbounds i8, ptr %call1.i1030, i64 %vbase.offset.i2639
  call void @llvm.lifetime.start.p0(i64 8, ptr nonnull %ref.tmp.i.i2636) #23
  invoke void @_ZNKSt3__18ios_base6getlocEv(ptr nonnull sret(%"class.std::__1::locale") align 8 %ref.tmp.i.i2636, ptr noundef nonnull align 8 dereferenceable(136) %add.ptr.i2640)
          to label %.noexc2648 unwind label %lpad186

.noexc2648:                                       ; preds = %invoke.cont231
  %call.i5.i.i2641 = invoke noundef ptr @_ZNKSt3__16locale9use_facetERNS0_2idE(ptr noundef nonnull align 8 dereferenceable(8) %ref.tmp.i.i2636, ptr noundef nonnull align 8 dereferenceable(12) @_ZNSt3__15ctypeIcE2idE)
          to label %invoke.cont.i.i2645 unwind label %lpad.i.i2646

invoke.cont.i.i2645:                              ; preds = %.noexc2648
  %vtable.i.i.i2642 = load ptr, ptr %call.i5.i.i2641, align 8, !tbaa !38
  %vfn.i.i.i2643 = getelementptr inbounds ptr, ptr %vtable.i.i.i2642, i64 7
  %105 = load ptr, ptr %vfn.i.i.i2643, align 8
  %call.i6.i.i2644 = invoke noundef signext i8 %105(ptr noundef nonnull align 8 dereferenceable(25) %call.i5.i.i2641, i8 noundef signext 10)
          to label %_ZNKSt3__19basic_iosIcNS_11char_traitsIcEEE5widenB7v170000Ec.exit.i2647 unwind label %lpad.i.i2646

lpad.i.i2646:                                     ; preds = %invoke.cont.i.i2645, %.noexc2648
  %106 = landingpad { ptr, i32 }
          cleanup
  call void @_ZNSt3__16localeD1Ev(ptr noundef nonnull align 8 dereferenceable(8) %ref.tmp.i.i2636) #23
  call void @llvm.lifetime.end.p0(i64 8, ptr nonnull %ref.tmp.i.i2636) #23
  br label %ehcleanup571

_ZNKSt3__19basic_iosIcNS_11char_traitsIcEEE5widenB7v170000Ec.exit.i2647: ; preds = %invoke.cont.i.i2645
  call void @_ZNSt3__16localeD1Ev(ptr noundef nonnull align 8 dereferenceable(8) %ref.tmp.i.i2636) #23
  call void @llvm.lifetime.end.p0(i64 8, ptr nonnull %ref.tmp.i.i2636) #23
  %call1.i2652 = invoke noundef nonnull align 8 dereferenceable(8) ptr @_ZNSt3__113basic_ostreamIcNS_11char_traitsIcEEE3putEc(ptr noundef nonnull align 8 dereferenceable(8) %call1.i1030, i8 noundef signext %call.i6.i.i2644)
          to label %call1.i.noexc2651 unwind label %lpad186

call1.i.noexc2651:                                ; preds = %_ZNKSt3__19basic_iosIcNS_11char_traitsIcEEE5widenB7v170000Ec.exit.i2647
  %call2.i2653 = invoke noundef nonnull align 8 dereferenceable(8) ptr @_ZNSt3__113basic_ostreamIcNS_11char_traitsIcEEE5flushEv(ptr noundef nonnull align 8 dereferenceable(8) %call1.i1030)
          to label %invoke.cont233 unwind label %lpad186

invoke.cont233:                                   ; preds = %call1.i.noexc2651
  store i32 2, ptr %ierr, align 4, !tbaa !35
  br label %cleanup570

lpad186:                                          ; preds = %call1.i.noexc2651, %_ZNKSt3__19basic_iosIcNS_11char_traitsIcEEE5widenB7v170000Ec.exit.i2647, %invoke.cont231, %call1.i.noexc2632, %_ZNKSt3__19basic_iosIcNS_11char_traitsIcEEE5widenB7v170000Ec.exit.i2628, %invoke.cont226, %call1.i.noexc2613, %_ZNKSt3__19basic_iosIcNS_11char_traitsIcEEE5widenB7v170000Ec.exit.i2609, %invoke.cont221, %call1.i.noexc2594, %_ZNKSt3__19basic_iosIcNS_11char_traitsIcEEE5widenB7v170000Ec.exit.i2590, %invoke.cont216, %call1.i.noexc2575, %_ZNKSt3__19basic_iosIcNS_11char_traitsIcEEE5widenB7v170000Ec.exit.i2571, %invoke.cont211, %call1.i.noexc2556, %_ZNKSt3__19basic_iosIcNS_11char_traitsIcEEE5widenB7v170000Ec.exit.i2552, %invoke.cont206, %call1.i.noexc2537, %_ZNKSt3__19basic_iosIcNS_11char_traitsIcEEE5widenB7v170000Ec.exit.i2533, %invoke.cont201, %call1.i.noexc2518, %_ZNKSt3__19basic_iosIcNS_11char_traitsIcEEE5widenB7v170000Ec.exit.i2514, %invoke.cont196, %call1.i.noexc2499, %_ZNKSt3__19basic_iosIcNS_11char_traitsIcEEE5widenB7v170000Ec.exit.i2496, %invoke.cont189, %invoke.cont228, %invoke.cont223, %invoke.cont218, %invoke.cont213, %invoke.cont208, %invoke.cont203, %invoke.cont198, %invoke.cont191, %invoke.cont187, %invoke.cont563, %if.then562, %invoke.cont194, %if.then185
  %107 = landingpad { ptr, i32 }
          cleanup
  br label %ehcleanup571

for.cond275.preheader:                            ; preds = %invoke.cont267, %for.cond237.preheader
  %__size_.i.i = getelementptr inbounds %"class.std::__1::deque", ptr %this, i64 0, i32 2
  %108 = load i64, ptr %__size_.i.i, align 8, !tbaa !37
  %conv2834 = trunc i64 %108 to i32
  %cmp278.not2835 = icmp sgt i32 %conv2834, 0
  br i1 %cmp278.not2835, label %for.body280.lr.ph, label %for.cond.cleanup456

for.body280.lr.ph:                                ; preds = %for.cond275.preheader
  %__start_.i = getelementptr inbounds %"class.PP::Whenthen", ptr %this, i64 0, i32 1, i32 1
  %__begin_.i.i = getelementptr inbounds %"class.PP::Whenthen", ptr %this, i64 0, i32 1, i32 0, i32 1
  %__size_.i.i.i1109 = getelementptr inbounds %"struct.std::__1::basic_string<char>::__long", ptr %ref.tmp281, i64 0, i32 1
  %__data_.i4.i.i.i.i1117 = getelementptr inbounds %"struct.std::__1::basic_string<char>::__short", ptr %ref.tmp281, i64 0, i32 2
  %__data_.i.i.i.i.i1118 = getelementptr inbounds %"struct.std::__1::basic_string<char>::__long", ptr %ref.tmp281, i64 0, i32 2
  %__size_.i.i.i1150 = getelementptr inbounds %"struct.std::__1::basic_string<char>::__long", ptr %ref.tmp291, i64 0, i32 1
  %__data_.i4.i.i.i.i1158 = getelementptr inbounds %"struct.std::__1::basic_string<char>::__short", ptr %ref.tmp291, i64 0, i32 2
  %__data_.i.i.i.i.i1159 = getelementptr inbounds %"struct.std::__1::basic_string<char>::__long", ptr %ref.tmp291, i64 0, i32 2
  %__size_.i.i.i1191 = getelementptr inbounds %"struct.std::__1::basic_string<char>::__long", ptr %ref.tmp301, i64 0, i32 1
  %__data_.i4.i.i.i.i1199 = getelementptr inbounds %"struct.std::__1::basic_string<char>::__short", ptr %ref.tmp301, i64 0, i32 2
  %__data_.i.i.i.i.i1200 = getelementptr inbounds %"struct.std::__1::basic_string<char>::__long", ptr %ref.tmp301, i64 0, i32 2
  %__size_.i.i.i1232 = getelementptr inbounds %"struct.std::__1::basic_string<char>::__long", ptr %ref.tmp311, i64 0, i32 1
  %__data_.i4.i.i.i.i1240 = getelementptr inbounds %"struct.std::__1::basic_string<char>::__short", ptr %ref.tmp311, i64 0, i32 2
  %__data_.i.i.i.i.i1241 = getelementptr inbounds %"struct.std::__1::basic_string<char>::__long", ptr %ref.tmp311, i64 0, i32 2
  %__size_.i.i.i1273 = getelementptr inbounds %"struct.std::__1::basic_string<char>::__long", ptr %ref.tmp321, i64 0, i32 1
  %__data_.i4.i.i.i.i1281 = getelementptr inbounds %"struct.std::__1::basic_string<char>::__short", ptr %ref.tmp321, i64 0, i32 2
  %__data_.i.i.i.i.i1282 = getelementptr inbounds %"struct.std::__1::basic_string<char>::__long", ptr %ref.tmp321, i64 0, i32 2
  %__size_.i.i.i1314 = getelementptr inbounds %"struct.std::__1::basic_string<char>::__long", ptr %ref.tmp331, i64 0, i32 1
  %__data_.i4.i.i.i.i1322 = getelementptr inbounds %"struct.std::__1::basic_string<char>::__short", ptr %ref.tmp331, i64 0, i32 2
  %__data_.i.i.i.i.i1323 = getelementptr inbounds %"struct.std::__1::basic_string<char>::__long", ptr %ref.tmp331, i64 0, i32 2
  %__size_.i.i.i1355 = getelementptr inbounds %"struct.std::__1::basic_string<char>::__long", ptr %ref.tmp341, i64 0, i32 1
  %__data_.i4.i.i.i.i1363 = getelementptr inbounds %"struct.std::__1::basic_string<char>::__short", ptr %ref.tmp341, i64 0, i32 2
  %__data_.i.i.i.i.i1364 = getelementptr inbounds %"struct.std::__1::basic_string<char>::__long", ptr %ref.tmp341, i64 0, i32 2
  %__size_.i.i.i1396 = getelementptr inbounds %"struct.std::__1::basic_string<char>::__long", ptr %ref.tmp351, i64 0, i32 1
  %__data_.i4.i.i.i.i1404 = getelementptr inbounds %"struct.std::__1::basic_string<char>::__short", ptr %ref.tmp351, i64 0, i32 2
  %__data_.i.i.i.i.i1405 = getelementptr inbounds %"struct.std::__1::basic_string<char>::__long", ptr %ref.tmp351, i64 0, i32 2
  %__size_.i.i.i1437 = getelementptr inbounds %"struct.std::__1::basic_string<char>::__long", ptr %ref.tmp361, i64 0, i32 1
  %__data_.i4.i.i.i.i1445 = getelementptr inbounds %"struct.std::__1::basic_string<char>::__short", ptr %ref.tmp361, i64 0, i32 2
  %__data_.i.i.i.i.i1446 = getelementptr inbounds %"struct.std::__1::basic_string<char>::__long", ptr %ref.tmp361, i64 0, i32 2
  %__size_.i.i.i1478 = getelementptr inbounds %"struct.std::__1::basic_string<char>::__long", ptr %ref.tmp371, i64 0, i32 1
  %__data_.i4.i.i.i.i1486 = getelementptr inbounds %"struct.std::__1::basic_string<char>::__short", ptr %ref.tmp371, i64 0, i32 2
  %__data_.i.i.i.i.i1487 = getelementptr inbounds %"struct.std::__1::basic_string<char>::__long", ptr %ref.tmp371, i64 0, i32 2
  %__size_.i.i.i1519 = getelementptr inbounds %"struct.std::__1::basic_string<char>::__long", ptr %ref.tmp381, i64 0, i32 1
  %__data_.i4.i.i.i.i1527 = getelementptr inbounds %"struct.std::__1::basic_string<char>::__short", ptr %ref.tmp381, i64 0, i32 2
  %__data_.i.i.i.i.i1528 = getelementptr inbounds %"struct.std::__1::basic_string<char>::__long", ptr %ref.tmp381, i64 0, i32 2
  %__size_.i.i.i1560 = getelementptr inbounds %"struct.std::__1::basic_string<char>::__long", ptr %ref.tmp391, i64 0, i32 1
  %__data_.i4.i.i.i.i1568 = getelementptr inbounds %"struct.std::__1::basic_string<char>::__short", ptr %ref.tmp391, i64 0, i32 2
  %__data_.i.i.i.i.i1569 = getelementptr inbounds %"struct.std::__1::basic_string<char>::__long", ptr %ref.tmp391, i64 0, i32 2
  br label %for.body280

for.body240:                                      ; preds = %for.body240.lr.ph, %invoke.cont267
  %i236.02833 = phi i32 [ 2, %for.body240.lr.ph ], [ %add271, %invoke.cont267 ]
  invoke void @_ZN2PP8Whenthen8add_wordERNS_3CmdEiRNSt3__15dequeINS_4WordENS3_9allocatorIS5_EEEE(ptr nonnull align 8 poison, ptr noundef nonnull align 8 dereferenceable(320) %cmdi, i32 noundef %i236.02833, ptr noundef nonnull align 8 dereferenceable(48) %this)
          to label %invoke.cont243 unwind label %lpad242

invoke.cont243:                                   ; preds = %for.body240
  %add244 = or i32 %i236.02833, 1
  invoke void @_ZN2PP8Whenthen8add_wordERNS_3CmdEiRNSt3__15dequeINS_4WordENS3_9allocatorIS5_EEEE(ptr nonnull align 8 poison, ptr noundef nonnull align 8 dereferenceable(320) %cmdi, i32 noundef %add244, ptr noundef nonnull align 8 dereferenceable(48) %relation)
          to label %invoke.cont246 unwind label %lpad242

invoke.cont246:                                   ; preds = %invoke.cont243
  %add247 = add nuw nsw i32 %i236.02833, 2
  invoke void @_ZN2PP8Whenthen8add_wordERNS_3CmdEiRNSt3__15dequeINS_4WordENS3_9allocatorIS5_EEEE(ptr nonnull align 8 poison, ptr noundef nonnull align 8 dereferenceable(320) %cmdi, i32 noundef %add247, ptr noundef nonnull align 8 dereferenceable(48) %value)
          to label %invoke.cont249 unwind label %lpad242

invoke.cont249:                                   ; preds = %invoke.cont246
  %add250 = add nuw nsw i32 %i236.02833, 3
  %cmp251 = icmp slt i32 %add250, %close_paren_dex.1
  br i1 %cmp251, label %if.then252, label %if.then3.i.i

if.then252:                                       ; preds = %invoke.cont249
  invoke void @_ZN2PP8Whenthen8add_wordERNS_3CmdEiRNSt3__15dequeINS_4WordENS3_9allocatorIS5_EEEE(ptr nonnull align 8 poison, ptr noundef nonnull align 8 dereferenceable(320) %cmdi, i32 noundef %add250, ptr noundef nonnull align 8 dereferenceable(48) %logop)
          to label %if.end262 unwind label %lpad242

lpad242:                                          ; preds = %if.then252, %invoke.cont246, %invoke.cont243, %for.body240
  %109 = landingpad { ptr, i32 }
          cleanup
  br label %ehcleanup571

if.then3.i.i:                                     ; preds = %invoke.cont249
  store i8 8, ptr %agg.tmp, align 8
  call void @llvm.assume(i1 %87)
  store i32 1701736302, ptr %__data_.i.i.i, align 1
  store i8 0, ptr %add.ptr.i.i.i, align 1, !tbaa !49
  invoke void @_ZN2PP8Whenthen8add_wordERNS_3CmdEiRNSt3__15dequeINS_4WordENS3_9allocatorIS5_EEEENS3_12basic_stringIcNS3_11char_traitsIcEENS6_IcEEEE(ptr nonnull align 8 poison, ptr noundef nonnull align 8 dereferenceable(320) %cmdi, i32 noundef %add250, ptr noundef nonnull align 8 dereferenceable(48) %logop, ptr noundef nonnull %agg.tmp)
          to label %invoke.cont260 unwind label %lpad259

invoke.cont260:                                   ; preds = %if.then3.i.i
  %bf.load.i.i1042 = load i8, ptr %agg.tmp, align 8
  %bf.clear.i.i1043 = and i8 %bf.load.i.i1042, 1
  %tobool.i.not.i1044 = icmp eq i8 %bf.clear.i.i1043, 0
  br i1 %tobool.i.not.i1044, label %if.end262, label %if.then.i1046

if.then.i1046:                                    ; preds = %invoke.cont260
  %110 = load ptr, ptr %__data_.i.i1045, align 8, !tbaa !49
  call void @_ZdlPv(ptr noundef %110) #24
  br label %if.end262

lpad259:                                          ; preds = %if.then3.i.i
  %111 = landingpad { ptr, i32 }
          cleanup
  %bf.load.i.i1049 = load i8, ptr %agg.tmp, align 8
  %bf.clear.i.i1050 = and i8 %bf.load.i.i1049, 1
  %tobool.i.not.i1051 = icmp eq i8 %bf.clear.i.i1050, 0
  br i1 %tobool.i.not.i1051, label %ehcleanup571, label %if.then.i1053

if.then.i1053:                                    ; preds = %lpad259
  %112 = load ptr, ptr %__data_.i.i1045, align 8, !tbaa !49
  call void @_ZdlPv(ptr noundef %112) #24
  br label %ehcleanup571

if.end262:                                        ; preds = %if.then.i1046, %invoke.cont260, %if.then252
  call void @llvm.lifetime.start.p0(i64 24, ptr nonnull %ref.tmp) #23
  store i8 10, ptr %ref.tmp, align 8
  call void @llvm.assume(i1 %88)
  call void @llvm.memcpy.p0.p0.i64(ptr noundef nonnull align 1 dereferenceable(5) %__data_.i.i.i1063, ptr noundef nonnull align 1 dereferenceable(5) @.str.30, i64 5, i1 false)
  store i8 0, ptr %add.ptr.i.i.i1073, align 2, !tbaa !49
  %113 = load ptr, ptr %__end_.i.i.i.i, align 8, !tbaa !56
  %114 = load ptr, ptr %__begin_.i.i.i.i, align 8, !tbaa !57
  %sub.ptr.lhs.cast.i.i.i.i = ptrtoint ptr %113 to i64
  %sub.ptr.rhs.cast.i.i.i.i = ptrtoint ptr %114 to i64
  %sub.ptr.sub.i.i.i.i = sub i64 %sub.ptr.lhs.cast.i.i.i.i, %sub.ptr.rhs.cast.i.i.i.i
  %sub.ptr.div.i.i.i.i = ashr exact i64 %sub.ptr.sub.i.i.i.i, 3
  %cmp.i.i.i1079 = icmp eq ptr %113, %114
  %mul.i.i.i = mul i64 %sub.ptr.div.i.i.i.i, 170
  %sub.i.i.i1080 = add i64 %mul.i.i.i, -1
  %cond.i.i.i1081 = select i1 %cmp.i.i.i1079, i64 0, i64 %sub.i.i.i1080
  %115 = load i64, ptr %__start_.i.i1082, align 8, !tbaa !58
  %116 = load i64, ptr %__size_.i.i.i.i1083, align 8, !tbaa !37
  %117 = add i64 %116, %115
  %cmp.i = icmp eq i64 %cond.i.i.i1081, %117
  br i1 %cmp.i, label %if.then.i1084, label %invoke.cont267

if.then.i1084:                                    ; preds = %if.end262
  invoke void @_ZNSt3__15dequeINS_12basic_stringIcNS_11char_traitsIcEENS_9allocatorIcEEEENS4_IS6_EEE19__add_back_capacityEv(ptr noundef nonnull align 8 dereferenceable(48) %satisfied)
          to label %.noexc1089 unwind label %lpad266

.noexc1089:                                       ; preds = %if.then.i1084
  %.pre.i = load i64, ptr %__size_.i.i.i.i1083, align 8, !tbaa !37
  %.pre10.i = load i64, ptr %__start_.i.i1082, align 8, !tbaa !58
  %.pre11.i = load ptr, ptr %__begin_.i.i.i.i, align 8, !tbaa !57
  %.pre12.i = load ptr, ptr %__end_.i.i.i.i, align 8, !tbaa !56
  %.pre13.i = add i64 %.pre10.i, %.pre.i
  br label %invoke.cont267

invoke.cont267:                                   ; preds = %.noexc1089, %if.end262
  %add.i.pre-phi.i = phi i64 [ %.pre13.i, %.noexc1089 ], [ %117, %if.end262 ]
  %118 = phi ptr [ %.pre12.i, %.noexc1089 ], [ %113, %if.end262 ]
  %119 = phi ptr [ %.pre11.i, %.noexc1089 ], [ %114, %if.end262 ]
  %div.i.i1085 = udiv i64 %add.i.pre-phi.i, 170
  %add.ptr.i.i1086 = getelementptr inbounds ptr, ptr %119, i64 %div.i.i1085
  %cmp.i.i8.i = icmp ne ptr %118, %119
  call void @llvm.assume(i1 %cmp.i.i8.i)
  %120 = load ptr, ptr %add.ptr.i.i1086, align 8, !tbaa !45
  %rem.i.i1087 = urem i64 %add.i.pre-phi.i, 170
  %add.ptr5.i.i = getelementptr inbounds %"class.std::__1::basic_string", ptr %120, i64 %rem.i.i1087
  call void @llvm.memcpy.p0.p0.i64(ptr noundef nonnull align 8 dereferenceable(24) %add.ptr5.i.i, ptr noundef nonnull align 8 dereferenceable(24) %ref.tmp, i64 24, i1 false)
  %121 = load i64, ptr %__size_.i.i.i.i1083, align 8, !tbaa !37
  %inc.i = add i64 %121, 1
  store i64 %inc.i, ptr %__size_.i.i.i.i1083, align 8, !tbaa !37
  call void @llvm.lifetime.end.p0(i64 24, ptr nonnull %ref.tmp) #23
  %add271 = add nuw nsw i32 %i236.02833, 4
  %cmp238 = icmp slt i32 %add271, %close_paren_dex.1
  br i1 %cmp238, label %for.body240, label %for.cond275.preheader, !llvm.loop !59

lpad266:                                          ; preds = %if.then.i1084
  %122 = landingpad { ptr, i32 }
          cleanup
  %bf.load.i.i1097 = load i8, ptr %ref.tmp, align 8
  %bf.clear.i.i1098 = and i8 %bf.load.i.i1097, 1
  %tobool.i.not.i1099 = icmp eq i8 %bf.clear.i.i1098, 0
  br i1 %tobool.i.not.i1099, label %ehcleanup269, label %if.then.i1101

if.then.i1101:                                    ; preds = %lpad266
  %__data_.i.i1100 = getelementptr inbounds %"struct.std::__1::basic_string<char>::__long", ptr %ref.tmp, i64 0, i32 2
  %123 = load ptr, ptr %__data_.i.i1100, align 8, !tbaa !49
  call void @_ZdlPv(ptr noundef %123) #24
  br label %ehcleanup269

ehcleanup269:                                     ; preds = %if.then.i1101, %lpad266
  call void @llvm.lifetime.end.p0(i64 24, ptr nonnull %ref.tmp) #23
  br label %ehcleanup571

for.cond451.preheader:                            ; preds = %for.inc444
  %conv = trunc i64 %239 to i32
  %cmp4552838 = icmp sgt i32 %conv, 0
  br i1 %cmp4552838, label %for.body457.lr.ph, label %for.cond.cleanup456

for.body457.lr.ph:                                ; preds = %for.cond451.preheader
  %__start_.i1667 = getelementptr inbounds %"class.PP::Whenthen", ptr %this, i64 0, i32 1, i32 1
  %__begin_.i.i1669 = getelementptr inbounds %"class.PP::Whenthen", ptr %this, i64 0, i32 1, i32 0, i32 1
  %__size_.i.i.i1680 = getelementptr inbounds %"struct.std::__1::basic_string<char>::__long", ptr %ref.tmp458, i64 0, i32 1
  %__data_.i4.i.i.i.i1688 = getelementptr inbounds %"struct.std::__1::basic_string<char>::__short", ptr %ref.tmp458, i64 0, i32 2
  %__data_.i.i.i.i.i1689 = getelementptr inbounds %"struct.std::__1::basic_string<char>::__long", ptr %ref.tmp458, i64 0, i32 2
  %__size_.i.i.i1728 = getelementptr inbounds %"struct.std::__1::basic_string<char>::__long", ptr %ref.tmp473, i64 0, i32 1
  %__data_.i4.i.i.i.i1736 = getelementptr inbounds %"struct.std::__1::basic_string<char>::__short", ptr %ref.tmp473, i64 0, i32 2
  %__data_.i.i.i.i.i1737 = getelementptr inbounds %"struct.std::__1::basic_string<char>::__long", ptr %ref.tmp473, i64 0, i32 2
  %__size_.i.i.i1776 = getelementptr inbounds %"struct.std::__1::basic_string<char>::__long", ptr %ref.tmp487, i64 0, i32 1
  %__data_.i4.i.i.i.i1784 = getelementptr inbounds %"struct.std::__1::basic_string<char>::__short", ptr %ref.tmp487, i64 0, i32 2
  %__data_.i.i.i.i.i1785 = getelementptr inbounds %"struct.std::__1::basic_string<char>::__long", ptr %ref.tmp487, i64 0, i32 2
  %__size_.i.i.i1824 = getelementptr inbounds %"struct.std::__1::basic_string<char>::__long", ptr %ref.tmp501, i64 0, i32 1
  %__data_.i4.i.i.i.i1832 = getelementptr inbounds %"struct.std::__1::basic_string<char>::__short", ptr %ref.tmp501, i64 0, i32 2
  %__data_.i.i.i.i.i1833 = getelementptr inbounds %"struct.std::__1::basic_string<char>::__long", ptr %ref.tmp501, i64 0, i32 2
  %__size_.i.i.i1872 = getelementptr inbounds %"struct.std::__1::basic_string<char>::__long", ptr %ref.tmp515, i64 0, i32 1
  %__data_.i4.i.i.i.i1880 = getelementptr inbounds %"struct.std::__1::basic_string<char>::__short", ptr %ref.tmp515, i64 0, i32 2
  %__data_.i.i.i.i.i1881 = getelementptr inbounds %"struct.std::__1::basic_string<char>::__long", ptr %ref.tmp515, i64 0, i32 2
  %__size_.i.i.i1920 = getelementptr inbounds %"struct.std::__1::basic_string<char>::__long", ptr %ref.tmp529, i64 0, i32 1
  %__data_.i4.i.i.i.i1928 = getelementptr inbounds %"struct.std::__1::basic_string<char>::__short", ptr %ref.tmp529, i64 0, i32 2
  %__data_.i.i.i.i.i1929 = getelementptr inbounds %"struct.std::__1::basic_string<char>::__long", ptr %ref.tmp529, i64 0, i32 2
  %__end_.i.i.i.i1955 = getelementptr inbounds %"class.PP::Whenthen", ptr %this, i64 0, i32 5, i32 0, i32 2
  %__begin_.i.i.i.i1956 = getelementptr inbounds %"class.PP::Whenthen", ptr %this, i64 0, i32 5, i32 0, i32 1
  %__start_.i.i1964 = getelementptr inbounds %"class.PP::Whenthen", ptr %this, i64 0, i32 5, i32 1
  %__size_.i.i.i.i1965 = getelementptr inbounds %"class.PP::Whenthen", ptr %this, i64 0, i32 5, i32 2
  br label %for.body457

for.body280:                                      ; preds = %for.body280.lr.ph, %for.inc444
  %indvars.iv2880 = phi i64 [ 0, %for.body280.lr.ph ], [ %indvars.iv.next2881, %for.inc444 ]
  call void @llvm.lifetime.start.p0(i64 24, ptr nonnull %ref.tmp281) #23
  %124 = load i64, ptr %__start_.i, align 8, !tbaa !40
  %add.i = add i64 %124, %indvars.iv2880
  %125 = load ptr, ptr %__begin_.i.i, align 8, !tbaa !44
  %div.i = udiv i64 %add.i, 39
  %add.ptr.i = getelementptr inbounds ptr, ptr %125, i64 %div.i
  %126 = load ptr, ptr %add.ptr.i, align 8, !tbaa !45
  %rem.i = urem i64 %add.i, 39
  %add.ptr2.i = getelementptr inbounds %"class.PP::Word", ptr %126, i64 %rem.i
  invoke void @_ZNSt3__112basic_stringIcNS_11char_traitsIcEENS_9allocatorIcEEEC1ERKS5_(ptr noundef nonnull align 8 dereferenceable(24) %ref.tmp281, ptr noundef nonnull align 8 dereferenceable(24) %add.ptr2.i)
          to label %invoke.cont286 unwind label %lpad285

invoke.cont286:                                   ; preds = %for.body280
  %bf.load.i.i.i1106 = load i8, ptr %ref.tmp281, align 8
  %bf.clear.i.i.i1107 = and i8 %bf.load.i.i.i1106, 1
  %tobool.i.not.i.i1108 = icmp eq i8 %bf.clear.i.i.i1107, 0
  %127 = load i64, ptr %__size_.i.i.i1109, align 8
  %bf.lshr.i.i.i1110 = lshr i8 %bf.load.i.i.i1106, 1
  %conv.i.i.i1111 = zext i8 %bf.lshr.i.i.i1110 to i64
  %cond.i.i1112 = select i1 %tobool.i.not.i.i1108, i64 %conv.i.i.i1111, i64 %127
  %cmp2.not.i1113 = icmp eq i64 %cond.i.i1112, 6
  br i1 %cmp2.not.i1113, label %_ZNSt3__111char_traitsIcE7compareEPKcS3_m.exit.i.i1122, label %_ZNSt3__1eqB7v170000IcNS_11char_traitsIcEENS_9allocatorIcEEEEbRKNS_12basic_stringIT_T0_T1_EEPKS6_.exit1129

_ZNSt3__111char_traitsIcE7compareEPKcS3_m.exit.i.i1122: ; preds = %invoke.cont286
  %128 = load ptr, ptr %__data_.i.i.i.i.i1118, align 8
  %cond.i.i.i.i1119 = select i1 %tobool.i.not.i.i1108, ptr %__data_.i4.i.i.i.i1117, ptr %128
  %bcmp2858 = call i32 @bcmp(ptr noundef nonnull dereferenceable(6) %cond.i.i.i.i1119, ptr noundef nonnull dereferenceable(6) @.str.31, i64 6)
  %cmp4.i1125 = icmp eq i32 %bcmp2858, 0
  br label %_ZNSt3__1eqB7v170000IcNS_11char_traitsIcEENS_9allocatorIcEEEEbRKNS_12basic_stringIT_T0_T1_EEPKS6_.exit1129

_ZNSt3__1eqB7v170000IcNS_11char_traitsIcEENS_9allocatorIcEEEEbRKNS_12basic_stringIT_T0_T1_EEPKS6_.exit1129: ; preds = %invoke.cont286, %_ZNSt3__111char_traitsIcE7compareEPKcS3_m.exit.i.i1122
  %retval.0.i1127 = phi i1 [ %cmp4.i1125, %_ZNSt3__111char_traitsIcE7compareEPKcS3_m.exit.i.i1122 ], [ false, %invoke.cont286 ]
  br i1 %tobool.i.not.i.i1108, label %_ZNSt3__112basic_stringIcNS_11char_traitsIcEENS_9allocatorIcEEED2Ev.exit1136, label %if.then.i1134

if.then.i1134:                                    ; preds = %_ZNSt3__1eqB7v170000IcNS_11char_traitsIcEENS_9allocatorIcEEEEbRKNS_12basic_stringIT_T0_T1_EEPKS6_.exit1129
  %129 = load ptr, ptr %__data_.i.i.i.i.i1118, align 8, !tbaa !49
  call void @_ZdlPv(ptr noundef %129) #24
  br label %_ZNSt3__112basic_stringIcNS_11char_traitsIcEENS_9allocatorIcEEED2Ev.exit1136

_ZNSt3__112basic_stringIcNS_11char_traitsIcEENS_9allocatorIcEEED2Ev.exit1136: ; preds = %_ZNSt3__1eqB7v170000IcNS_11char_traitsIcEENS_9allocatorIcEEEEbRKNS_12basic_stringIT_T0_T1_EEPKS6_.exit1129, %if.then.i1134
  call void @llvm.lifetime.end.p0(i64 24, ptr nonnull %ref.tmp281) #23
  call void @llvm.lifetime.start.p0(i64 24, ptr nonnull %ref.tmp291) #23
  %130 = load i64, ptr %__start_.i, align 8, !tbaa !40
  %add.i1138 = add i64 %130, %indvars.iv2880
  %131 = load ptr, ptr %__begin_.i.i, align 8, !tbaa !44
  %div.i1140 = udiv i64 %add.i1138, 39
  %add.ptr.i1141 = getelementptr inbounds ptr, ptr %131, i64 %div.i1140
  %132 = load ptr, ptr %add.ptr.i1141, align 8, !tbaa !45
  %rem.i1142 = urem i64 %add.i1138, 39
  %add.ptr2.i1143 = getelementptr inbounds %"class.PP::Word", ptr %132, i64 %rem.i1142
  invoke void @_ZNSt3__112basic_stringIcNS_11char_traitsIcEENS_9allocatorIcEEEC1ERKS5_(ptr noundef nonnull align 8 dereferenceable(24) %ref.tmp291, ptr noundef nonnull align 8 dereferenceable(24) %add.ptr2.i1143)
          to label %invoke.cont296 unwind label %lpad295

lpad285:                                          ; preds = %for.body280
  %133 = landingpad { ptr, i32 }
          cleanup
  call void @llvm.lifetime.end.p0(i64 24, ptr nonnull %ref.tmp281) #23
  br label %ehcleanup571

invoke.cont296:                                   ; preds = %_ZNSt3__112basic_stringIcNS_11char_traitsIcEENS_9allocatorIcEEED2Ev.exit1136
  %bf.load.i.i.i1147 = load i8, ptr %ref.tmp291, align 8
  %bf.clear.i.i.i1148 = and i8 %bf.load.i.i.i1147, 1
  %tobool.i.not.i.i1149 = icmp eq i8 %bf.clear.i.i.i1148, 0
  %134 = load i64, ptr %__size_.i.i.i1150, align 8
  %bf.lshr.i.i.i1151 = lshr i8 %bf.load.i.i.i1147, 1
  %conv.i.i.i1152 = zext i8 %bf.lshr.i.i.i1151 to i64
  %cond.i.i1153 = select i1 %tobool.i.not.i.i1149, i64 %conv.i.i.i1152, i64 %134
  %cmp2.not.i1154 = icmp eq i64 %cond.i.i1153, 6
  br i1 %cmp2.not.i1154, label %_ZNSt3__111char_traitsIcE7compareEPKcS3_m.exit.i.i1163, label %_ZNSt3__1eqB7v170000IcNS_11char_traitsIcEENS_9allocatorIcEEEEbRKNS_12basic_stringIT_T0_T1_EEPKS6_.exit1170

_ZNSt3__111char_traitsIcE7compareEPKcS3_m.exit.i.i1163: ; preds = %invoke.cont296
  %135 = load ptr, ptr %__data_.i.i.i.i.i1159, align 8
  %cond.i.i.i.i1160 = select i1 %tobool.i.not.i.i1149, ptr %__data_.i4.i.i.i.i1158, ptr %135
  %bcmp2857 = call i32 @bcmp(ptr noundef nonnull dereferenceable(6) %cond.i.i.i.i1160, ptr noundef nonnull dereferenceable(6) @.str.32, i64 6)
  %cmp4.i1166 = icmp eq i32 %bcmp2857, 0
  br label %_ZNSt3__1eqB7v170000IcNS_11char_traitsIcEENS_9allocatorIcEEEEbRKNS_12basic_stringIT_T0_T1_EEPKS6_.exit1170

_ZNSt3__1eqB7v170000IcNS_11char_traitsIcEENS_9allocatorIcEEEEbRKNS_12basic_stringIT_T0_T1_EEPKS6_.exit1170: ; preds = %invoke.cont296, %_ZNSt3__111char_traitsIcE7compareEPKcS3_m.exit.i.i1163
  %retval.0.i1168 = phi i1 [ %cmp4.i1166, %_ZNSt3__111char_traitsIcE7compareEPKcS3_m.exit.i.i1163 ], [ false, %invoke.cont296 ]
  br i1 %tobool.i.not.i.i1149, label %_ZNSt3__112basic_stringIcNS_11char_traitsIcEENS_9allocatorIcEEED2Ev.exit1177, label %if.then.i1175

if.then.i1175:                                    ; preds = %_ZNSt3__1eqB7v170000IcNS_11char_traitsIcEENS_9allocatorIcEEEEbRKNS_12basic_stringIT_T0_T1_EEPKS6_.exit1170
  %136 = load ptr, ptr %__data_.i.i.i.i.i1159, align 8, !tbaa !49
  call void @_ZdlPv(ptr noundef %136) #24
  br label %_ZNSt3__112basic_stringIcNS_11char_traitsIcEENS_9allocatorIcEEED2Ev.exit1177

_ZNSt3__112basic_stringIcNS_11char_traitsIcEENS_9allocatorIcEEED2Ev.exit1177: ; preds = %_ZNSt3__1eqB7v170000IcNS_11char_traitsIcEENS_9allocatorIcEEEEbRKNS_12basic_stringIT_T0_T1_EEPKS6_.exit1170, %if.then.i1175
  call void @llvm.lifetime.end.p0(i64 24, ptr nonnull %ref.tmp291) #23
  call void @llvm.lifetime.start.p0(i64 24, ptr nonnull %ref.tmp301) #23
  %137 = load i64, ptr %__start_.i, align 8, !tbaa !40
  %add.i1179 = add i64 %137, %indvars.iv2880
  %138 = load ptr, ptr %__begin_.i.i, align 8, !tbaa !44
  %div.i1181 = udiv i64 %add.i1179, 39
  %add.ptr.i1182 = getelementptr inbounds ptr, ptr %138, i64 %div.i1181
  %139 = load ptr, ptr %add.ptr.i1182, align 8, !tbaa !45
  %rem.i1183 = urem i64 %add.i1179, 39
  %add.ptr2.i1184 = getelementptr inbounds %"class.PP::Word", ptr %139, i64 %rem.i1183
  invoke void @_ZNSt3__112basic_stringIcNS_11char_traitsIcEENS_9allocatorIcEEEC1ERKS5_(ptr noundef nonnull align 8 dereferenceable(24) %ref.tmp301, ptr noundef nonnull align 8 dereferenceable(24) %add.ptr2.i1184)
          to label %invoke.cont306 unwind label %lpad305

lpad295:                                          ; preds = %_ZNSt3__112basic_stringIcNS_11char_traitsIcEENS_9allocatorIcEEED2Ev.exit1136
  %140 = landingpad { ptr, i32 }
          cleanup
  call void @llvm.lifetime.end.p0(i64 24, ptr nonnull %ref.tmp291) #23
  br label %ehcleanup571

invoke.cont306:                                   ; preds = %_ZNSt3__112basic_stringIcNS_11char_traitsIcEENS_9allocatorIcEEED2Ev.exit1177
  %bf.load.i.i.i1188 = load i8, ptr %ref.tmp301, align 8
  %bf.clear.i.i.i1189 = and i8 %bf.load.i.i.i1188, 1
  %tobool.i.not.i.i1190 = icmp eq i8 %bf.clear.i.i.i1189, 0
  %141 = load i64, ptr %__size_.i.i.i1191, align 8
  %bf.lshr.i.i.i1192 = lshr i8 %bf.load.i.i.i1188, 1
  %conv.i.i.i1193 = zext i8 %bf.lshr.i.i.i1192 to i64
  %cond.i.i1194 = select i1 %tobool.i.not.i.i1190, i64 %conv.i.i.i1193, i64 %141
  %cmp2.not.i1195 = icmp eq i64 %cond.i.i1194, 6
  br i1 %cmp2.not.i1195, label %_ZNSt3__111char_traitsIcE7compareEPKcS3_m.exit.i.i1204, label %_ZNSt3__1eqB7v170000IcNS_11char_traitsIcEENS_9allocatorIcEEEEbRKNS_12basic_stringIT_T0_T1_EEPKS6_.exit1211

_ZNSt3__111char_traitsIcE7compareEPKcS3_m.exit.i.i1204: ; preds = %invoke.cont306
  %142 = load ptr, ptr %__data_.i.i.i.i.i1200, align 8
  %cond.i.i.i.i1201 = select i1 %tobool.i.not.i.i1190, ptr %__data_.i4.i.i.i.i1199, ptr %142
  %bcmp2856 = call i32 @bcmp(ptr noundef nonnull dereferenceable(6) %cond.i.i.i.i1201, ptr noundef nonnull dereferenceable(6) @.str.33, i64 6)
  %cmp4.i1207 = icmp eq i32 %bcmp2856, 0
  br label %_ZNSt3__1eqB7v170000IcNS_11char_traitsIcEENS_9allocatorIcEEEEbRKNS_12basic_stringIT_T0_T1_EEPKS6_.exit1211

_ZNSt3__1eqB7v170000IcNS_11char_traitsIcEENS_9allocatorIcEEEEbRKNS_12basic_stringIT_T0_T1_EEPKS6_.exit1211: ; preds = %invoke.cont306, %_ZNSt3__111char_traitsIcE7compareEPKcS3_m.exit.i.i1204
  %retval.0.i1209 = phi i1 [ %cmp4.i1207, %_ZNSt3__111char_traitsIcE7compareEPKcS3_m.exit.i.i1204 ], [ false, %invoke.cont306 ]
  br i1 %tobool.i.not.i.i1190, label %_ZNSt3__112basic_stringIcNS_11char_traitsIcEENS_9allocatorIcEEED2Ev.exit1218, label %if.then.i1216

if.then.i1216:                                    ; preds = %_ZNSt3__1eqB7v170000IcNS_11char_traitsIcEENS_9allocatorIcEEEEbRKNS_12basic_stringIT_T0_T1_EEPKS6_.exit1211
  %143 = load ptr, ptr %__data_.i.i.i.i.i1200, align 8, !tbaa !49
  call void @_ZdlPv(ptr noundef %143) #24
  br label %_ZNSt3__112basic_stringIcNS_11char_traitsIcEENS_9allocatorIcEEED2Ev.exit1218

_ZNSt3__112basic_stringIcNS_11char_traitsIcEENS_9allocatorIcEEED2Ev.exit1218: ; preds = %_ZNSt3__1eqB7v170000IcNS_11char_traitsIcEENS_9allocatorIcEEEEbRKNS_12basic_stringIT_T0_T1_EEPKS6_.exit1211, %if.then.i1216
  call void @llvm.lifetime.end.p0(i64 24, ptr nonnull %ref.tmp301) #23
  call void @llvm.lifetime.start.p0(i64 24, ptr nonnull %ref.tmp311) #23
  %144 = load i64, ptr %__start_.i, align 8, !tbaa !40
  %add.i1220 = add i64 %144, %indvars.iv2880
  %145 = load ptr, ptr %__begin_.i.i, align 8, !tbaa !44
  %div.i1222 = udiv i64 %add.i1220, 39
  %add.ptr.i1223 = getelementptr inbounds ptr, ptr %145, i64 %div.i1222
  %146 = load ptr, ptr %add.ptr.i1223, align 8, !tbaa !45
  %rem.i1224 = urem i64 %add.i1220, 39
  %add.ptr2.i1225 = getelementptr inbounds %"class.PP::Word", ptr %146, i64 %rem.i1224
  invoke void @_ZNSt3__112basic_stringIcNS_11char_traitsIcEENS_9allocatorIcEEEC1ERKS5_(ptr noundef nonnull align 8 dereferenceable(24) %ref.tmp311, ptr noundef nonnull align 8 dereferenceable(24) %add.ptr2.i1225)
          to label %invoke.cont316 unwind label %lpad315

lpad305:                                          ; preds = %_ZNSt3__112basic_stringIcNS_11char_traitsIcEENS_9allocatorIcEEED2Ev.exit1177
  %147 = landingpad { ptr, i32 }
          cleanup
  call void @llvm.lifetime.end.p0(i64 24, ptr nonnull %ref.tmp301) #23
  br label %ehcleanup571

invoke.cont316:                                   ; preds = %_ZNSt3__112basic_stringIcNS_11char_traitsIcEENS_9allocatorIcEEED2Ev.exit1218
  %bf.load.i.i.i1229 = load i8, ptr %ref.tmp311, align 8
  %bf.clear.i.i.i1230 = and i8 %bf.load.i.i.i1229, 1
  %tobool.i.not.i.i1231 = icmp eq i8 %bf.clear.i.i.i1230, 0
  %148 = load i64, ptr %__size_.i.i.i1232, align 8
  %bf.lshr.i.i.i1233 = lshr i8 %bf.load.i.i.i1229, 1
  %conv.i.i.i1234 = zext i8 %bf.lshr.i.i.i1233 to i64
  %cond.i.i1235 = select i1 %tobool.i.not.i.i1231, i64 %conv.i.i.i1234, i64 %148
  %cmp2.not.i1236 = icmp eq i64 %cond.i.i1235, 6
  br i1 %cmp2.not.i1236, label %_ZNSt3__111char_traitsIcE7compareEPKcS3_m.exit.i.i1245, label %_ZNSt3__1eqB7v170000IcNS_11char_traitsIcEENS_9allocatorIcEEEEbRKNS_12basic_stringIT_T0_T1_EEPKS6_.exit1252

_ZNSt3__111char_traitsIcE7compareEPKcS3_m.exit.i.i1245: ; preds = %invoke.cont316
  %149 = load ptr, ptr %__data_.i.i.i.i.i1241, align 8
  %cond.i.i.i.i1242 = select i1 %tobool.i.not.i.i1231, ptr %__data_.i4.i.i.i.i1240, ptr %149
  %bcmp2855 = call i32 @bcmp(ptr noundef nonnull dereferenceable(6) %cond.i.i.i.i1242, ptr noundef nonnull dereferenceable(6) @.str.34, i64 6)
  %cmp4.i1248 = icmp eq i32 %bcmp2855, 0
  br label %_ZNSt3__1eqB7v170000IcNS_11char_traitsIcEENS_9allocatorIcEEEEbRKNS_12basic_stringIT_T0_T1_EEPKS6_.exit1252

_ZNSt3__1eqB7v170000IcNS_11char_traitsIcEENS_9allocatorIcEEEEbRKNS_12basic_stringIT_T0_T1_EEPKS6_.exit1252: ; preds = %invoke.cont316, %_ZNSt3__111char_traitsIcE7compareEPKcS3_m.exit.i.i1245
  %retval.0.i1250 = phi i1 [ %cmp4.i1248, %_ZNSt3__111char_traitsIcE7compareEPKcS3_m.exit.i.i1245 ], [ false, %invoke.cont316 ]
  br i1 %tobool.i.not.i.i1231, label %_ZNSt3__112basic_stringIcNS_11char_traitsIcEENS_9allocatorIcEEED2Ev.exit1259, label %if.then.i1257

if.then.i1257:                                    ; preds = %_ZNSt3__1eqB7v170000IcNS_11char_traitsIcEENS_9allocatorIcEEEEbRKNS_12basic_stringIT_T0_T1_EEPKS6_.exit1252
  %150 = load ptr, ptr %__data_.i.i.i.i.i1241, align 8, !tbaa !49
  call void @_ZdlPv(ptr noundef %150) #24
  br label %_ZNSt3__112basic_stringIcNS_11char_traitsIcEENS_9allocatorIcEEED2Ev.exit1259

_ZNSt3__112basic_stringIcNS_11char_traitsIcEENS_9allocatorIcEEED2Ev.exit1259: ; preds = %_ZNSt3__1eqB7v170000IcNS_11char_traitsIcEENS_9allocatorIcEEEEbRKNS_12basic_stringIT_T0_T1_EEPKS6_.exit1252, %if.then.i1257
  call void @llvm.lifetime.end.p0(i64 24, ptr nonnull %ref.tmp311) #23
  call void @llvm.lifetime.start.p0(i64 24, ptr nonnull %ref.tmp321) #23
  %151 = load i64, ptr %__start_.i, align 8, !tbaa !40
  %add.i1261 = add i64 %151, %indvars.iv2880
  %152 = load ptr, ptr %__begin_.i.i, align 8, !tbaa !44
  %div.i1263 = udiv i64 %add.i1261, 39
  %add.ptr.i1264 = getelementptr inbounds ptr, ptr %152, i64 %div.i1263
  %153 = load ptr, ptr %add.ptr.i1264, align 8, !tbaa !45
  %rem.i1265 = urem i64 %add.i1261, 39
  %add.ptr2.i1266 = getelementptr inbounds %"class.PP::Word", ptr %153, i64 %rem.i1265
  invoke void @_ZNSt3__112basic_stringIcNS_11char_traitsIcEENS_9allocatorIcEEEC1ERKS5_(ptr noundef nonnull align 8 dereferenceable(24) %ref.tmp321, ptr noundef nonnull align 8 dereferenceable(24) %add.ptr2.i1266)
          to label %invoke.cont326 unwind label %lpad325

lpad315:                                          ; preds = %_ZNSt3__112basic_stringIcNS_11char_traitsIcEENS_9allocatorIcEEED2Ev.exit1218
  %154 = landingpad { ptr, i32 }
          cleanup
  call void @llvm.lifetime.end.p0(i64 24, ptr nonnull %ref.tmp311) #23
  br label %ehcleanup571

invoke.cont326:                                   ; preds = %_ZNSt3__112basic_stringIcNS_11char_traitsIcEENS_9allocatorIcEEED2Ev.exit1259
  %bf.load.i.i.i1270 = load i8, ptr %ref.tmp321, align 8
  %bf.clear.i.i.i1271 = and i8 %bf.load.i.i.i1270, 1
  %tobool.i.not.i.i1272 = icmp eq i8 %bf.clear.i.i.i1271, 0
  %155 = load i64, ptr %__size_.i.i.i1273, align 8
  %bf.lshr.i.i.i1274 = lshr i8 %bf.load.i.i.i1270, 1
  %conv.i.i.i1275 = zext i8 %bf.lshr.i.i.i1274 to i64
  %cond.i.i1276 = select i1 %tobool.i.not.i.i1272, i64 %conv.i.i.i1275, i64 %155
  %cmp2.not.i1277 = icmp eq i64 %cond.i.i1276, 6
  br i1 %cmp2.not.i1277, label %_ZNSt3__111char_traitsIcE7compareEPKcS3_m.exit.i.i1286, label %_ZNSt3__1eqB7v170000IcNS_11char_traitsIcEENS_9allocatorIcEEEEbRKNS_12basic_stringIT_T0_T1_EEPKS6_.exit1293

_ZNSt3__111char_traitsIcE7compareEPKcS3_m.exit.i.i1286: ; preds = %invoke.cont326
  %156 = load ptr, ptr %__data_.i.i.i.i.i1282, align 8
  %cond.i.i.i.i1283 = select i1 %tobool.i.not.i.i1272, ptr %__data_.i4.i.i.i.i1281, ptr %156
  %bcmp2854 = call i32 @bcmp(ptr noundef nonnull dereferenceable(6) %cond.i.i.i.i1283, ptr noundef nonnull dereferenceable(6) @.str.35, i64 6)
  %cmp4.i1289 = icmp eq i32 %bcmp2854, 0
  br label %_ZNSt3__1eqB7v170000IcNS_11char_traitsIcEENS_9allocatorIcEEEEbRKNS_12basic_stringIT_T0_T1_EEPKS6_.exit1293

_ZNSt3__1eqB7v170000IcNS_11char_traitsIcEENS_9allocatorIcEEEEbRKNS_12basic_stringIT_T0_T1_EEPKS6_.exit1293: ; preds = %invoke.cont326, %_ZNSt3__111char_traitsIcE7compareEPKcS3_m.exit.i.i1286
  %retval.0.i1291 = phi i1 [ %cmp4.i1289, %_ZNSt3__111char_traitsIcE7compareEPKcS3_m.exit.i.i1286 ], [ false, %invoke.cont326 ]
  br i1 %tobool.i.not.i.i1272, label %_ZNSt3__112basic_stringIcNS_11char_traitsIcEENS_9allocatorIcEEED2Ev.exit1300, label %if.then.i1298

if.then.i1298:                                    ; preds = %_ZNSt3__1eqB7v170000IcNS_11char_traitsIcEENS_9allocatorIcEEEEbRKNS_12basic_stringIT_T0_T1_EEPKS6_.exit1293
  %157 = load ptr, ptr %__data_.i.i.i.i.i1282, align 8, !tbaa !49
  call void @_ZdlPv(ptr noundef %157) #24
  br label %_ZNSt3__112basic_stringIcNS_11char_traitsIcEENS_9allocatorIcEEED2Ev.exit1300

_ZNSt3__112basic_stringIcNS_11char_traitsIcEENS_9allocatorIcEEED2Ev.exit1300: ; preds = %_ZNSt3__1eqB7v170000IcNS_11char_traitsIcEENS_9allocatorIcEEEEbRKNS_12basic_stringIT_T0_T1_EEPKS6_.exit1293, %if.then.i1298
  call void @llvm.lifetime.end.p0(i64 24, ptr nonnull %ref.tmp321) #23
  call void @llvm.lifetime.start.p0(i64 24, ptr nonnull %ref.tmp331) #23
  %158 = load i64, ptr %__start_.i, align 8, !tbaa !40
  %add.i1302 = add i64 %158, %indvars.iv2880
  %159 = load ptr, ptr %__begin_.i.i, align 8, !tbaa !44
  %div.i1304 = udiv i64 %add.i1302, 39
  %add.ptr.i1305 = getelementptr inbounds ptr, ptr %159, i64 %div.i1304
  %160 = load ptr, ptr %add.ptr.i1305, align 8, !tbaa !45
  %rem.i1306 = urem i64 %add.i1302, 39
  %add.ptr2.i1307 = getelementptr inbounds %"class.PP::Word", ptr %160, i64 %rem.i1306
  invoke void @_ZNSt3__112basic_stringIcNS_11char_traitsIcEENS_9allocatorIcEEEC1ERKS5_(ptr noundef nonnull align 8 dereferenceable(24) %ref.tmp331, ptr noundef nonnull align 8 dereferenceable(24) %add.ptr2.i1307)
          to label %invoke.cont336 unwind label %lpad335

lpad325:                                          ; preds = %_ZNSt3__112basic_stringIcNS_11char_traitsIcEENS_9allocatorIcEEED2Ev.exit1259
  %161 = landingpad { ptr, i32 }
          cleanup
  call void @llvm.lifetime.end.p0(i64 24, ptr nonnull %ref.tmp321) #23
  br label %ehcleanup571

invoke.cont336:                                   ; preds = %_ZNSt3__112basic_stringIcNS_11char_traitsIcEENS_9allocatorIcEEED2Ev.exit1300
  %bf.load.i.i.i1311 = load i8, ptr %ref.tmp331, align 8
  %bf.clear.i.i.i1312 = and i8 %bf.load.i.i.i1311, 1
  %tobool.i.not.i.i1313 = icmp eq i8 %bf.clear.i.i.i1312, 0
  %162 = load i64, ptr %__size_.i.i.i1314, align 8
  %bf.lshr.i.i.i1315 = lshr i8 %bf.load.i.i.i1311, 1
  %conv.i.i.i1316 = zext i8 %bf.lshr.i.i.i1315 to i64
  %cond.i.i1317 = select i1 %tobool.i.not.i.i1313, i64 %conv.i.i.i1316, i64 %162
  %cmp2.not.i1318 = icmp eq i64 %cond.i.i1317, 6
  br i1 %cmp2.not.i1318, label %_ZNSt3__111char_traitsIcE7compareEPKcS3_m.exit.i.i1327, label %_ZNSt3__1eqB7v170000IcNS_11char_traitsIcEENS_9allocatorIcEEEEbRKNS_12basic_stringIT_T0_T1_EEPKS6_.exit1334

_ZNSt3__111char_traitsIcE7compareEPKcS3_m.exit.i.i1327: ; preds = %invoke.cont336
  %163 = load ptr, ptr %__data_.i.i.i.i.i1323, align 8
  %cond.i.i.i.i1324 = select i1 %tobool.i.not.i.i1313, ptr %__data_.i4.i.i.i.i1322, ptr %163
  %bcmp2853 = call i32 @bcmp(ptr noundef nonnull dereferenceable(6) %cond.i.i.i.i1324, ptr noundef nonnull dereferenceable(6) @.str.36, i64 6)
  %cmp4.i1330 = icmp eq i32 %bcmp2853, 0
  br label %_ZNSt3__1eqB7v170000IcNS_11char_traitsIcEENS_9allocatorIcEEEEbRKNS_12basic_stringIT_T0_T1_EEPKS6_.exit1334

_ZNSt3__1eqB7v170000IcNS_11char_traitsIcEENS_9allocatorIcEEEEbRKNS_12basic_stringIT_T0_T1_EEPKS6_.exit1334: ; preds = %invoke.cont336, %_ZNSt3__111char_traitsIcE7compareEPKcS3_m.exit.i.i1327
  %retval.0.i1332 = phi i1 [ %cmp4.i1330, %_ZNSt3__111char_traitsIcE7compareEPKcS3_m.exit.i.i1327 ], [ false, %invoke.cont336 ]
  br i1 %tobool.i.not.i.i1313, label %_ZNSt3__112basic_stringIcNS_11char_traitsIcEENS_9allocatorIcEEED2Ev.exit1341, label %if.then.i1339

if.then.i1339:                                    ; preds = %_ZNSt3__1eqB7v170000IcNS_11char_traitsIcEENS_9allocatorIcEEEEbRKNS_12basic_stringIT_T0_T1_EEPKS6_.exit1334
  %164 = load ptr, ptr %__data_.i.i.i.i.i1323, align 8, !tbaa !49
  call void @_ZdlPv(ptr noundef %164) #24
  br label %_ZNSt3__112basic_stringIcNS_11char_traitsIcEENS_9allocatorIcEEED2Ev.exit1341

_ZNSt3__112basic_stringIcNS_11char_traitsIcEENS_9allocatorIcEEED2Ev.exit1341: ; preds = %_ZNSt3__1eqB7v170000IcNS_11char_traitsIcEENS_9allocatorIcEEEEbRKNS_12basic_stringIT_T0_T1_EEPKS6_.exit1334, %if.then.i1339
  call void @llvm.lifetime.end.p0(i64 24, ptr nonnull %ref.tmp331) #23
  call void @llvm.lifetime.start.p0(i64 24, ptr nonnull %ref.tmp341) #23
  %165 = load i64, ptr %__start_.i, align 8, !tbaa !40
  %add.i1343 = add i64 %165, %indvars.iv2880
  %166 = load ptr, ptr %__begin_.i.i, align 8, !tbaa !44
  %div.i1345 = udiv i64 %add.i1343, 39
  %add.ptr.i1346 = getelementptr inbounds ptr, ptr %166, i64 %div.i1345
  %167 = load ptr, ptr %add.ptr.i1346, align 8, !tbaa !45
  %rem.i1347 = urem i64 %add.i1343, 39
  %add.ptr2.i1348 = getelementptr inbounds %"class.PP::Word", ptr %167, i64 %rem.i1347
  invoke void @_ZNSt3__112basic_stringIcNS_11char_traitsIcEENS_9allocatorIcEEEC1ERKS5_(ptr noundef nonnull align 8 dereferenceable(24) %ref.tmp341, ptr noundef nonnull align 8 dereferenceable(24) %add.ptr2.i1348)
          to label %invoke.cont346 unwind label %lpad345

lpad335:                                          ; preds = %_ZNSt3__112basic_stringIcNS_11char_traitsIcEENS_9allocatorIcEEED2Ev.exit1300
  %168 = landingpad { ptr, i32 }
          cleanup
  call void @llvm.lifetime.end.p0(i64 24, ptr nonnull %ref.tmp331) #23
  br label %ehcleanup571

invoke.cont346:                                   ; preds = %_ZNSt3__112basic_stringIcNS_11char_traitsIcEENS_9allocatorIcEEED2Ev.exit1341
  %bf.load.i.i.i1352 = load i8, ptr %ref.tmp341, align 8
  %bf.clear.i.i.i1353 = and i8 %bf.load.i.i.i1352, 1
  %tobool.i.not.i.i1354 = icmp eq i8 %bf.clear.i.i.i1353, 0
  %169 = load i64, ptr %__size_.i.i.i1355, align 8
  %bf.lshr.i.i.i1356 = lshr i8 %bf.load.i.i.i1352, 1
  %conv.i.i.i1357 = zext i8 %bf.lshr.i.i.i1356 to i64
  %cond.i.i1358 = select i1 %tobool.i.not.i.i1354, i64 %conv.i.i.i1357, i64 %169
  %cmp2.not.i1359 = icmp eq i64 %cond.i.i1358, 4
  br i1 %cmp2.not.i1359, label %_ZNSt3__111char_traitsIcE7compareEPKcS3_m.exit.i.i1368, label %_ZNSt3__1eqB7v170000IcNS_11char_traitsIcEENS_9allocatorIcEEEEbRKNS_12basic_stringIT_T0_T1_EEPKS6_.exit1375

_ZNSt3__111char_traitsIcE7compareEPKcS3_m.exit.i.i1368: ; preds = %invoke.cont346
  %170 = load ptr, ptr %__data_.i.i.i.i.i1364, align 8
  %cond.i.i.i.i1365 = select i1 %tobool.i.not.i.i1354, ptr %__data_.i4.i.i.i.i1363, ptr %170
  %bcmp2852 = call i32 @bcmp(ptr noundef nonnull dereferenceable(4) %cond.i.i.i.i1365, ptr noundef nonnull dereferenceable(4) @.str.37, i64 4)
  %cmp4.i1371 = icmp eq i32 %bcmp2852, 0
  br label %_ZNSt3__1eqB7v170000IcNS_11char_traitsIcEENS_9allocatorIcEEEEbRKNS_12basic_stringIT_T0_T1_EEPKS6_.exit1375

_ZNSt3__1eqB7v170000IcNS_11char_traitsIcEENS_9allocatorIcEEEEbRKNS_12basic_stringIT_T0_T1_EEPKS6_.exit1375: ; preds = %invoke.cont346, %_ZNSt3__111char_traitsIcE7compareEPKcS3_m.exit.i.i1368
  %retval.0.i1373 = phi i1 [ %cmp4.i1371, %_ZNSt3__111char_traitsIcE7compareEPKcS3_m.exit.i.i1368 ], [ false, %invoke.cont346 ]
  br i1 %tobool.i.not.i.i1354, label %_ZNSt3__112basic_stringIcNS_11char_traitsIcEENS_9allocatorIcEEED2Ev.exit1382, label %if.then.i1380

if.then.i1380:                                    ; preds = %_ZNSt3__1eqB7v170000IcNS_11char_traitsIcEENS_9allocatorIcEEEEbRKNS_12basic_stringIT_T0_T1_EEPKS6_.exit1375
  %171 = load ptr, ptr %__data_.i.i.i.i.i1364, align 8, !tbaa !49
  call void @_ZdlPv(ptr noundef %171) #24
  br label %_ZNSt3__112basic_stringIcNS_11char_traitsIcEENS_9allocatorIcEEED2Ev.exit1382

_ZNSt3__112basic_stringIcNS_11char_traitsIcEENS_9allocatorIcEEED2Ev.exit1382: ; preds = %_ZNSt3__1eqB7v170000IcNS_11char_traitsIcEENS_9allocatorIcEEEEbRKNS_12basic_stringIT_T0_T1_EEPKS6_.exit1375, %if.then.i1380
  call void @llvm.lifetime.end.p0(i64 24, ptr nonnull %ref.tmp341) #23
  call void @llvm.lifetime.start.p0(i64 24, ptr nonnull %ref.tmp351) #23
  %172 = load i64, ptr %__start_.i, align 8, !tbaa !40
  %add.i1384 = add i64 %172, %indvars.iv2880
  %173 = load ptr, ptr %__begin_.i.i, align 8, !tbaa !44
  %div.i1386 = udiv i64 %add.i1384, 39
  %add.ptr.i1387 = getelementptr inbounds ptr, ptr %173, i64 %div.i1386
  %174 = load ptr, ptr %add.ptr.i1387, align 8, !tbaa !45
  %rem.i1388 = urem i64 %add.i1384, 39
  %add.ptr2.i1389 = getelementptr inbounds %"class.PP::Word", ptr %174, i64 %rem.i1388
  invoke void @_ZNSt3__112basic_stringIcNS_11char_traitsIcEENS_9allocatorIcEEEC1ERKS5_(ptr noundef nonnull align 8 dereferenceable(24) %ref.tmp351, ptr noundef nonnull align 8 dereferenceable(24) %add.ptr2.i1389)
          to label %invoke.cont356 unwind label %lpad355

lpad345:                                          ; preds = %_ZNSt3__112basic_stringIcNS_11char_traitsIcEENS_9allocatorIcEEED2Ev.exit1341
  %175 = landingpad { ptr, i32 }
          cleanup
  call void @llvm.lifetime.end.p0(i64 24, ptr nonnull %ref.tmp341) #23
  br label %ehcleanup571

invoke.cont356:                                   ; preds = %_ZNSt3__112basic_stringIcNS_11char_traitsIcEENS_9allocatorIcEEED2Ev.exit1382
  %bf.load.i.i.i1393 = load i8, ptr %ref.tmp351, align 8
  %bf.clear.i.i.i1394 = and i8 %bf.load.i.i.i1393, 1
  %tobool.i.not.i.i1395 = icmp eq i8 %bf.clear.i.i.i1394, 0
  %176 = load i64, ptr %__size_.i.i.i1396, align 8
  %bf.lshr.i.i.i1397 = lshr i8 %bf.load.i.i.i1393, 1
  %conv.i.i.i1398 = zext i8 %bf.lshr.i.i.i1397 to i64
  %cond.i.i1399 = select i1 %tobool.i.not.i.i1395, i64 %conv.i.i.i1398, i64 %176
  %cmp2.not.i1400 = icmp eq i64 %cond.i.i1399, 4
  br i1 %cmp2.not.i1400, label %_ZNSt3__111char_traitsIcE7compareEPKcS3_m.exit.i.i1409, label %_ZNSt3__1eqB7v170000IcNS_11char_traitsIcEENS_9allocatorIcEEEEbRKNS_12basic_stringIT_T0_T1_EEPKS6_.exit1416

_ZNSt3__111char_traitsIcE7compareEPKcS3_m.exit.i.i1409: ; preds = %invoke.cont356
  %177 = load ptr, ptr %__data_.i.i.i.i.i1405, align 8
  %cond.i.i.i.i1406 = select i1 %tobool.i.not.i.i1395, ptr %__data_.i4.i.i.i.i1404, ptr %177
  %bcmp2851 = call i32 @bcmp(ptr noundef nonnull dereferenceable(4) %cond.i.i.i.i1406, ptr noundef nonnull dereferenceable(4) @.str.38, i64 4)
  %cmp4.i1412 = icmp eq i32 %bcmp2851, 0
  br label %_ZNSt3__1eqB7v170000IcNS_11char_traitsIcEENS_9allocatorIcEEEEbRKNS_12basic_stringIT_T0_T1_EEPKS6_.exit1416

_ZNSt3__1eqB7v170000IcNS_11char_traitsIcEENS_9allocatorIcEEEEbRKNS_12basic_stringIT_T0_T1_EEPKS6_.exit1416: ; preds = %invoke.cont356, %_ZNSt3__111char_traitsIcE7compareEPKcS3_m.exit.i.i1409
  %retval.0.i1414 = phi i1 [ %cmp4.i1412, %_ZNSt3__111char_traitsIcE7compareEPKcS3_m.exit.i.i1409 ], [ false, %invoke.cont356 ]
  br i1 %tobool.i.not.i.i1395, label %_ZNSt3__112basic_stringIcNS_11char_traitsIcEENS_9allocatorIcEEED2Ev.exit1423, label %if.then.i1421

if.then.i1421:                                    ; preds = %_ZNSt3__1eqB7v170000IcNS_11char_traitsIcEENS_9allocatorIcEEEEbRKNS_12basic_stringIT_T0_T1_EEPKS6_.exit1416
  %178 = load ptr, ptr %__data_.i.i.i.i.i1405, align 8, !tbaa !49
  call void @_ZdlPv(ptr noundef %178) #24
  br label %_ZNSt3__112basic_stringIcNS_11char_traitsIcEENS_9allocatorIcEEED2Ev.exit1423

_ZNSt3__112basic_stringIcNS_11char_traitsIcEENS_9allocatorIcEEED2Ev.exit1423: ; preds = %_ZNSt3__1eqB7v170000IcNS_11char_traitsIcEENS_9allocatorIcEEEEbRKNS_12basic_stringIT_T0_T1_EEPKS6_.exit1416, %if.then.i1421
  call void @llvm.lifetime.end.p0(i64 24, ptr nonnull %ref.tmp351) #23
  call void @llvm.lifetime.start.p0(i64 24, ptr nonnull %ref.tmp361) #23
  %179 = load i64, ptr %__start_.i, align 8, !tbaa !40
  %add.i1425 = add i64 %179, %indvars.iv2880
  %180 = load ptr, ptr %__begin_.i.i, align 8, !tbaa !44
  %div.i1427 = udiv i64 %add.i1425, 39
  %add.ptr.i1428 = getelementptr inbounds ptr, ptr %180, i64 %div.i1427
  %181 = load ptr, ptr %add.ptr.i1428, align 8, !tbaa !45
  %rem.i1429 = urem i64 %add.i1425, 39
  %add.ptr2.i1430 = getelementptr inbounds %"class.PP::Word", ptr %181, i64 %rem.i1429
  invoke void @_ZNSt3__112basic_stringIcNS_11char_traitsIcEENS_9allocatorIcEEEC1ERKS5_(ptr noundef nonnull align 8 dereferenceable(24) %ref.tmp361, ptr noundef nonnull align 8 dereferenceable(24) %add.ptr2.i1430)
          to label %invoke.cont366 unwind label %lpad365

lpad355:                                          ; preds = %_ZNSt3__112basic_stringIcNS_11char_traitsIcEENS_9allocatorIcEEED2Ev.exit1382
  %182 = landingpad { ptr, i32 }
          cleanup
  call void @llvm.lifetime.end.p0(i64 24, ptr nonnull %ref.tmp351) #23
  br label %ehcleanup571

invoke.cont366:                                   ; preds = %_ZNSt3__112basic_stringIcNS_11char_traitsIcEENS_9allocatorIcEEED2Ev.exit1423
  %bf.load.i.i.i1434 = load i8, ptr %ref.tmp361, align 8
  %bf.clear.i.i.i1435 = and i8 %bf.load.i.i.i1434, 1
  %tobool.i.not.i.i1436 = icmp eq i8 %bf.clear.i.i.i1435, 0
  %183 = load i64, ptr %__size_.i.i.i1437, align 8
  %bf.lshr.i.i.i1438 = lshr i8 %bf.load.i.i.i1434, 1
  %conv.i.i.i1439 = zext i8 %bf.lshr.i.i.i1438 to i64
  %cond.i.i1440 = select i1 %tobool.i.not.i.i1436, i64 %conv.i.i.i1439, i64 %183
  %cmp2.not.i1441 = icmp eq i64 %cond.i.i1440, 4
  br i1 %cmp2.not.i1441, label %_ZNSt3__111char_traitsIcE7compareEPKcS3_m.exit.i.i1450, label %_ZNSt3__1eqB7v170000IcNS_11char_traitsIcEENS_9allocatorIcEEEEbRKNS_12basic_stringIT_T0_T1_EEPKS6_.exit1457

_ZNSt3__111char_traitsIcE7compareEPKcS3_m.exit.i.i1450: ; preds = %invoke.cont366
  %184 = load ptr, ptr %__data_.i.i.i.i.i1446, align 8
  %cond.i.i.i.i1447 = select i1 %tobool.i.not.i.i1436, ptr %__data_.i4.i.i.i.i1445, ptr %184
  %bcmp2850 = call i32 @bcmp(ptr noundef nonnull dereferenceable(4) %cond.i.i.i.i1447, ptr noundef nonnull dereferenceable(4) @.str.39, i64 4)
  %cmp4.i1453 = icmp eq i32 %bcmp2850, 0
  br label %_ZNSt3__1eqB7v170000IcNS_11char_traitsIcEENS_9allocatorIcEEEEbRKNS_12basic_stringIT_T0_T1_EEPKS6_.exit1457

_ZNSt3__1eqB7v170000IcNS_11char_traitsIcEENS_9allocatorIcEEEEbRKNS_12basic_stringIT_T0_T1_EEPKS6_.exit1457: ; preds = %invoke.cont366, %_ZNSt3__111char_traitsIcE7compareEPKcS3_m.exit.i.i1450
  %retval.0.i1455 = phi i1 [ %cmp4.i1453, %_ZNSt3__111char_traitsIcE7compareEPKcS3_m.exit.i.i1450 ], [ false, %invoke.cont366 ]
  br i1 %tobool.i.not.i.i1436, label %_ZNSt3__112basic_stringIcNS_11char_traitsIcEENS_9allocatorIcEEED2Ev.exit1464, label %if.then.i1462

if.then.i1462:                                    ; preds = %_ZNSt3__1eqB7v170000IcNS_11char_traitsIcEENS_9allocatorIcEEEEbRKNS_12basic_stringIT_T0_T1_EEPKS6_.exit1457
  %185 = load ptr, ptr %__data_.i.i.i.i.i1446, align 8, !tbaa !49
  call void @_ZdlPv(ptr noundef %185) #24
  br label %_ZNSt3__112basic_stringIcNS_11char_traitsIcEENS_9allocatorIcEEED2Ev.exit1464

_ZNSt3__112basic_stringIcNS_11char_traitsIcEENS_9allocatorIcEEED2Ev.exit1464: ; preds = %_ZNSt3__1eqB7v170000IcNS_11char_traitsIcEENS_9allocatorIcEEEEbRKNS_12basic_stringIT_T0_T1_EEPKS6_.exit1457, %if.then.i1462
  call void @llvm.lifetime.end.p0(i64 24, ptr nonnull %ref.tmp361) #23
  call void @llvm.lifetime.start.p0(i64 24, ptr nonnull %ref.tmp371) #23
  %186 = load i64, ptr %__start_.i, align 8, !tbaa !40
  %add.i1466 = add i64 %186, %indvars.iv2880
  %187 = load ptr, ptr %__begin_.i.i, align 8, !tbaa !44
  %div.i1468 = udiv i64 %add.i1466, 39
  %add.ptr.i1469 = getelementptr inbounds ptr, ptr %187, i64 %div.i1468
  %188 = load ptr, ptr %add.ptr.i1469, align 8, !tbaa !45
  %rem.i1470 = urem i64 %add.i1466, 39
  %add.ptr2.i1471 = getelementptr inbounds %"class.PP::Word", ptr %188, i64 %rem.i1470
  invoke void @_ZNSt3__112basic_stringIcNS_11char_traitsIcEENS_9allocatorIcEEEC1ERKS5_(ptr noundef nonnull align 8 dereferenceable(24) %ref.tmp371, ptr noundef nonnull align 8 dereferenceable(24) %add.ptr2.i1471)
          to label %invoke.cont376 unwind label %lpad375

lpad365:                                          ; preds = %_ZNSt3__112basic_stringIcNS_11char_traitsIcEENS_9allocatorIcEEED2Ev.exit1423
  %189 = landingpad { ptr, i32 }
          cleanup
  call void @llvm.lifetime.end.p0(i64 24, ptr nonnull %ref.tmp361) #23
  br label %ehcleanup571

invoke.cont376:                                   ; preds = %_ZNSt3__112basic_stringIcNS_11char_traitsIcEENS_9allocatorIcEEED2Ev.exit1464
  %bf.load.i.i.i1475 = load i8, ptr %ref.tmp371, align 8
  %bf.clear.i.i.i1476 = and i8 %bf.load.i.i.i1475, 1
  %tobool.i.not.i.i1477 = icmp eq i8 %bf.clear.i.i.i1476, 0
  %190 = load i64, ptr %__size_.i.i.i1478, align 8
  %bf.lshr.i.i.i1479 = lshr i8 %bf.load.i.i.i1475, 1
  %conv.i.i.i1480 = zext i8 %bf.lshr.i.i.i1479 to i64
  %cond.i.i1481 = select i1 %tobool.i.not.i.i1477, i64 %conv.i.i.i1480, i64 %190
  %cmp2.not.i1482 = icmp eq i64 %cond.i.i1481, 4
  br i1 %cmp2.not.i1482, label %_ZNSt3__111char_traitsIcE7compareEPKcS3_m.exit.i.i1491, label %_ZNSt3__1eqB7v170000IcNS_11char_traitsIcEENS_9allocatorIcEEEEbRKNS_12basic_stringIT_T0_T1_EEPKS6_.exit1498

_ZNSt3__111char_traitsIcE7compareEPKcS3_m.exit.i.i1491: ; preds = %invoke.cont376
  %191 = load ptr, ptr %__data_.i.i.i.i.i1487, align 8
  %cond.i.i.i.i1488 = select i1 %tobool.i.not.i.i1477, ptr %__data_.i4.i.i.i.i1486, ptr %191
  %bcmp2849 = call i32 @bcmp(ptr noundef nonnull dereferenceable(4) %cond.i.i.i.i1488, ptr noundef nonnull dereferenceable(4) @.str.40, i64 4)
  %cmp4.i1494 = icmp eq i32 %bcmp2849, 0
  br label %_ZNSt3__1eqB7v170000IcNS_11char_traitsIcEENS_9allocatorIcEEEEbRKNS_12basic_stringIT_T0_T1_EEPKS6_.exit1498

_ZNSt3__1eqB7v170000IcNS_11char_traitsIcEENS_9allocatorIcEEEEbRKNS_12basic_stringIT_T0_T1_EEPKS6_.exit1498: ; preds = %invoke.cont376, %_ZNSt3__111char_traitsIcE7compareEPKcS3_m.exit.i.i1491
  %retval.0.i1496 = phi i1 [ %cmp4.i1494, %_ZNSt3__111char_traitsIcE7compareEPKcS3_m.exit.i.i1491 ], [ false, %invoke.cont376 ]
  br i1 %tobool.i.not.i.i1477, label %_ZNSt3__112basic_stringIcNS_11char_traitsIcEENS_9allocatorIcEEED2Ev.exit1505, label %if.then.i1503

if.then.i1503:                                    ; preds = %_ZNSt3__1eqB7v170000IcNS_11char_traitsIcEENS_9allocatorIcEEEEbRKNS_12basic_stringIT_T0_T1_EEPKS6_.exit1498
  %192 = load ptr, ptr %__data_.i.i.i.i.i1487, align 8, !tbaa !49
  call void @_ZdlPv(ptr noundef %192) #24
  br label %_ZNSt3__112basic_stringIcNS_11char_traitsIcEENS_9allocatorIcEEED2Ev.exit1505

_ZNSt3__112basic_stringIcNS_11char_traitsIcEENS_9allocatorIcEEED2Ev.exit1505: ; preds = %_ZNSt3__1eqB7v170000IcNS_11char_traitsIcEENS_9allocatorIcEEEEbRKNS_12basic_stringIT_T0_T1_EEPKS6_.exit1498, %if.then.i1503
  call void @llvm.lifetime.end.p0(i64 24, ptr nonnull %ref.tmp371) #23
  call void @llvm.lifetime.start.p0(i64 24, ptr nonnull %ref.tmp381) #23
  %193 = load i64, ptr %__start_.i, align 8, !tbaa !40
  %add.i1507 = add i64 %193, %indvars.iv2880
  %194 = load ptr, ptr %__begin_.i.i, align 8, !tbaa !44
  %div.i1509 = udiv i64 %add.i1507, 39
  %add.ptr.i1510 = getelementptr inbounds ptr, ptr %194, i64 %div.i1509
  %195 = load ptr, ptr %add.ptr.i1510, align 8, !tbaa !45
  %rem.i1511 = urem i64 %add.i1507, 39
  %add.ptr2.i1512 = getelementptr inbounds %"class.PP::Word", ptr %195, i64 %rem.i1511
  invoke void @_ZNSt3__112basic_stringIcNS_11char_traitsIcEENS_9allocatorIcEEEC1ERKS5_(ptr noundef nonnull align 8 dereferenceable(24) %ref.tmp381, ptr noundef nonnull align 8 dereferenceable(24) %add.ptr2.i1512)
          to label %invoke.cont386 unwind label %lpad385

lpad375:                                          ; preds = %_ZNSt3__112basic_stringIcNS_11char_traitsIcEENS_9allocatorIcEEED2Ev.exit1464
  %196 = landingpad { ptr, i32 }
          cleanup
  call void @llvm.lifetime.end.p0(i64 24, ptr nonnull %ref.tmp371) #23
  br label %ehcleanup571

invoke.cont386:                                   ; preds = %_ZNSt3__112basic_stringIcNS_11char_traitsIcEENS_9allocatorIcEEED2Ev.exit1505
  %bf.load.i.i.i1516 = load i8, ptr %ref.tmp381, align 8
  %bf.clear.i.i.i1517 = and i8 %bf.load.i.i.i1516, 1
  %tobool.i.not.i.i1518 = icmp eq i8 %bf.clear.i.i.i1517, 0
  %197 = load i64, ptr %__size_.i.i.i1519, align 8
  %bf.lshr.i.i.i1520 = lshr i8 %bf.load.i.i.i1516, 1
  %conv.i.i.i1521 = zext i8 %bf.lshr.i.i.i1520 to i64
  %cond.i.i1522 = select i1 %tobool.i.not.i.i1518, i64 %conv.i.i.i1521, i64 %197
  %cmp2.not.i1523 = icmp eq i64 %cond.i.i1522, 4
  br i1 %cmp2.not.i1523, label %_ZNSt3__111char_traitsIcE7compareEPKcS3_m.exit.i.i1532, label %_ZNSt3__1eqB7v170000IcNS_11char_traitsIcEENS_9allocatorIcEEEEbRKNS_12basic_stringIT_T0_T1_EEPKS6_.exit1539

_ZNSt3__111char_traitsIcE7compareEPKcS3_m.exit.i.i1532: ; preds = %invoke.cont386
  %198 = load ptr, ptr %__data_.i.i.i.i.i1528, align 8
  %cond.i.i.i.i1529 = select i1 %tobool.i.not.i.i1518, ptr %__data_.i4.i.i.i.i1527, ptr %198
  %bcmp2848 = call i32 @bcmp(ptr noundef nonnull dereferenceable(4) %cond.i.i.i.i1529, ptr noundef nonnull dereferenceable(4) @.str.41, i64 4)
  %cmp4.i1535 = icmp eq i32 %bcmp2848, 0
  br label %_ZNSt3__1eqB7v170000IcNS_11char_traitsIcEENS_9allocatorIcEEEEbRKNS_12basic_stringIT_T0_T1_EEPKS6_.exit1539

_ZNSt3__1eqB7v170000IcNS_11char_traitsIcEENS_9allocatorIcEEEEbRKNS_12basic_stringIT_T0_T1_EEPKS6_.exit1539: ; preds = %invoke.cont386, %_ZNSt3__111char_traitsIcE7compareEPKcS3_m.exit.i.i1532
  %retval.0.i1537 = phi i1 [ %cmp4.i1535, %_ZNSt3__111char_traitsIcE7compareEPKcS3_m.exit.i.i1532 ], [ false, %invoke.cont386 ]
  br i1 %tobool.i.not.i.i1518, label %_ZNSt3__112basic_stringIcNS_11char_traitsIcEENS_9allocatorIcEEED2Ev.exit1546, label %if.then.i1544

if.then.i1544:                                    ; preds = %_ZNSt3__1eqB7v170000IcNS_11char_traitsIcEENS_9allocatorIcEEEEbRKNS_12basic_stringIT_T0_T1_EEPKS6_.exit1539
  %199 = load ptr, ptr %__data_.i.i.i.i.i1528, align 8, !tbaa !49
  call void @_ZdlPv(ptr noundef %199) #24
  br label %_ZNSt3__112basic_stringIcNS_11char_traitsIcEENS_9allocatorIcEEED2Ev.exit1546

_ZNSt3__112basic_stringIcNS_11char_traitsIcEENS_9allocatorIcEEED2Ev.exit1546: ; preds = %_ZNSt3__1eqB7v170000IcNS_11char_traitsIcEENS_9allocatorIcEEEEbRKNS_12basic_stringIT_T0_T1_EEPKS6_.exit1539, %if.then.i1544
  call void @llvm.lifetime.end.p0(i64 24, ptr nonnull %ref.tmp381) #23
  call void @llvm.lifetime.start.p0(i64 24, ptr nonnull %ref.tmp391) #23
  %200 = load i64, ptr %__start_.i, align 8, !tbaa !40
  %add.i1548 = add i64 %200, %indvars.iv2880
  %201 = load ptr, ptr %__begin_.i.i, align 8, !tbaa !44
  %div.i1550 = udiv i64 %add.i1548, 39
  %add.ptr.i1551 = getelementptr inbounds ptr, ptr %201, i64 %div.i1550
  %202 = load ptr, ptr %add.ptr.i1551, align 8, !tbaa !45
  %rem.i1552 = urem i64 %add.i1548, 39
  %add.ptr2.i1553 = getelementptr inbounds %"class.PP::Word", ptr %202, i64 %rem.i1552
  invoke void @_ZNSt3__112basic_stringIcNS_11char_traitsIcEENS_9allocatorIcEEEC1ERKS5_(ptr noundef nonnull align 8 dereferenceable(24) %ref.tmp391, ptr noundef nonnull align 8 dereferenceable(24) %add.ptr2.i1553)
          to label %invoke.cont396 unwind label %lpad395

lpad385:                                          ; preds = %_ZNSt3__112basic_stringIcNS_11char_traitsIcEENS_9allocatorIcEEED2Ev.exit1505
  %203 = landingpad { ptr, i32 }
          cleanup
  call void @llvm.lifetime.end.p0(i64 24, ptr nonnull %ref.tmp381) #23
  br label %ehcleanup571

invoke.cont396:                                   ; preds = %_ZNSt3__112basic_stringIcNS_11char_traitsIcEENS_9allocatorIcEEED2Ev.exit1546
  %bf.load.i.i.i1557 = load i8, ptr %ref.tmp391, align 8
  %bf.clear.i.i.i1558 = and i8 %bf.load.i.i.i1557, 1
  %tobool.i.not.i.i1559 = icmp eq i8 %bf.clear.i.i.i1558, 0
  %204 = load i64, ptr %__size_.i.i.i1560, align 8
  %bf.lshr.i.i.i1561 = lshr i8 %bf.load.i.i.i1557, 1
  %conv.i.i.i1562 = zext i8 %bf.lshr.i.i.i1561 to i64
  %cond.i.i1563 = select i1 %tobool.i.not.i.i1559, i64 %conv.i.i.i1562, i64 %204
  %cmp2.not.i1564 = icmp eq i64 %cond.i.i1563, 4
  br i1 %cmp2.not.i1564, label %_ZNSt3__111char_traitsIcE7compareEPKcS3_m.exit.i.i1573, label %_ZNSt3__1eqB7v170000IcNS_11char_traitsIcEENS_9allocatorIcEEEEbRKNS_12basic_stringIT_T0_T1_EEPKS6_.exit1580

_ZNSt3__111char_traitsIcE7compareEPKcS3_m.exit.i.i1573: ; preds = %invoke.cont396
  %205 = load ptr, ptr %__data_.i.i.i.i.i1569, align 8
  %cond.i.i.i.i1570 = select i1 %tobool.i.not.i.i1559, ptr %__data_.i4.i.i.i.i1568, ptr %205
  %bcmp2847 = call i32 @bcmp(ptr noundef nonnull dereferenceable(4) %cond.i.i.i.i1570, ptr noundef nonnull dereferenceable(4) @.str.42, i64 4)
  %cmp4.i1576 = icmp eq i32 %bcmp2847, 0
  br label %_ZNSt3__1eqB7v170000IcNS_11char_traitsIcEENS_9allocatorIcEEEEbRKNS_12basic_stringIT_T0_T1_EEPKS6_.exit1580

_ZNSt3__1eqB7v170000IcNS_11char_traitsIcEENS_9allocatorIcEEEEbRKNS_12basic_stringIT_T0_T1_EEPKS6_.exit1580: ; preds = %invoke.cont396, %_ZNSt3__111char_traitsIcE7compareEPKcS3_m.exit.i.i1573
  %retval.0.i1578 = phi i1 [ %cmp4.i1576, %_ZNSt3__111char_traitsIcE7compareEPKcS3_m.exit.i.i1573 ], [ false, %invoke.cont396 ]
  br i1 %tobool.i.not.i.i1559, label %_ZNSt3__112basic_stringIcNS_11char_traitsIcEENS_9allocatorIcEEED2Ev.exit1587, label %if.then.i1585

if.then.i1585:                                    ; preds = %_ZNSt3__1eqB7v170000IcNS_11char_traitsIcEENS_9allocatorIcEEEEbRKNS_12basic_stringIT_T0_T1_EEPKS6_.exit1580
  %206 = load ptr, ptr %__data_.i.i.i.i.i1569, align 8, !tbaa !49
  call void @_ZdlPv(ptr noundef %206) #24
  br label %_ZNSt3__112basic_stringIcNS_11char_traitsIcEENS_9allocatorIcEEED2Ev.exit1587

_ZNSt3__112basic_stringIcNS_11char_traitsIcEENS_9allocatorIcEEED2Ev.exit1587: ; preds = %_ZNSt3__1eqB7v170000IcNS_11char_traitsIcEENS_9allocatorIcEEEEbRKNS_12basic_stringIT_T0_T1_EEPKS6_.exit1580, %if.then.i1585
  call void @llvm.lifetime.end.p0(i64 24, ptr nonnull %ref.tmp391) #23
  %207 = select i1 %retval.0.i1578, i1 true, i1 %retval.0.i1537
  %208 = select i1 %207, i1 true, i1 %retval.0.i1496
  %209 = select i1 %208, i1 true, i1 %retval.0.i1455
  %210 = select i1 %209, i1 true, i1 %retval.0.i1414
  %211 = select i1 %210, i1 true, i1 %retval.0.i1373
  %212 = select i1 %211, i1 true, i1 %retval.0.i1332
  %213 = select i1 %212, i1 true, i1 %retval.0.i1291
  %214 = select i1 %213, i1 true, i1 %retval.0.i1250
  %215 = select i1 %214, i1 true, i1 %retval.0.i1209
  %216 = select i1 %215, i1 true, i1 %retval.0.i1168
  %spec.select741 = select i1 %216, i1 true, i1 %retval.0.i1127
  br i1 %spec.select741, label %for.inc444, label %if.then402

lpad395:                                          ; preds = %_ZNSt3__112basic_stringIcNS_11char_traitsIcEENS_9allocatorIcEEED2Ev.exit1546
  %217 = landingpad { ptr, i32 }
          cleanup
  call void @llvm.lifetime.end.p0(i64 24, ptr nonnull %ref.tmp391) #23
  br label %ehcleanup571

if.then402:                                       ; preds = %_ZNSt3__112basic_stringIcNS_11char_traitsIcEENS_9allocatorIcEEED2Ev.exit1587
  %conv283.le = and i64 %indvars.iv2880, 4294967295
  %218 = load i64, ptr %__start_.i, align 8, !tbaa !40
  %add.i1589 = add i64 %218, %conv283.le
  %219 = load ptr, ptr %__begin_.i.i, align 8, !tbaa !44
  %div.i1591 = udiv i64 %add.i1589, 39
  %add.ptr.i1592 = getelementptr inbounds ptr, ptr %219, i64 %div.i1591
  %220 = load ptr, ptr %add.ptr.i1592, align 8, !tbaa !45
  %rem.i1593 = urem i64 %add.i1589, 39
  %add.ptr2.i1594 = getelementptr inbounds %"class.PP::Word", ptr %220, i64 %rem.i1593
  invoke void @_ZN2PP4Word11fatal_errorERNSt3__118basic_stringstreamIcNS1_11char_traitsIcEENS1_9allocatorIcEEEERi(ptr noundef nonnull align 8 dereferenceable(104) %add.ptr2.i1594, ptr noundef nonnull align 8 dereferenceable(128) %serr, ptr noundef nonnull align 4 dereferenceable(4) %ierr)
          to label %invoke.cont407 unwind label %lpad406

invoke.cont407:                                   ; preds = %if.then402
  %add.ptr408 = getelementptr inbounds i8, ptr %serr, i64 16
  %call1.i1596 = invoke noundef nonnull align 8 dereferenceable(8) ptr @_ZNSt3__124__put_character_sequenceB7v170000IcNS_11char_traitsIcEEEERNS_13basic_ostreamIT_T0_EES7_PKS4_m(ptr noundef nonnull align 8 dereferenceable(8) %add.ptr408, ptr noundef nonnull @.str.43, i64 noundef 29)
          to label %invoke.cont409 unwind label %lpad406

invoke.cont409:                                   ; preds = %invoke.cont407
  %vtable.i2656 = load ptr, ptr %call1.i1596, align 8, !tbaa !38
  %vbase.offset.ptr.i2657 = getelementptr i8, ptr %vtable.i2656, i64 -24
  %vbase.offset.i2658 = load i64, ptr %vbase.offset.ptr.i2657, align 8
  %add.ptr.i2659 = getelementptr inbounds i8, ptr %call1.i1596, i64 %vbase.offset.i2658
  call void @llvm.lifetime.start.p0(i64 8, ptr nonnull %ref.tmp.i.i2655) #23
  invoke void @_ZNKSt3__18ios_base6getlocEv(ptr nonnull sret(%"class.std::__1::locale") align 8 %ref.tmp.i.i2655, ptr noundef nonnull align 8 dereferenceable(136) %add.ptr.i2659)
          to label %.noexc2667 unwind label %lpad406

.noexc2667:                                       ; preds = %invoke.cont409
  %call.i5.i.i2660 = invoke noundef ptr @_ZNKSt3__16locale9use_facetERNS0_2idE(ptr noundef nonnull align 8 dereferenceable(8) %ref.tmp.i.i2655, ptr noundef nonnull align 8 dereferenceable(12) @_ZNSt3__15ctypeIcE2idE)
          to label %invoke.cont.i.i2664 unwind label %lpad.i.i2665

invoke.cont.i.i2664:                              ; preds = %.noexc2667
  %vtable.i.i.i2661 = load ptr, ptr %call.i5.i.i2660, align 8, !tbaa !38
  %vfn.i.i.i2662 = getelementptr inbounds ptr, ptr %vtable.i.i.i2661, i64 7
  %221 = load ptr, ptr %vfn.i.i.i2662, align 8
  %call.i6.i.i2663 = invoke noundef signext i8 %221(ptr noundef nonnull align 8 dereferenceable(25) %call.i5.i.i2660, i8 noundef signext 10)
          to label %_ZNKSt3__19basic_iosIcNS_11char_traitsIcEEE5widenB7v170000Ec.exit.i2666 unwind label %lpad.i.i2665

lpad.i.i2665:                                     ; preds = %invoke.cont.i.i2664, %.noexc2667
  %222 = landingpad { ptr, i32 }
          cleanup
  call void @_ZNSt3__16localeD1Ev(ptr noundef nonnull align 8 dereferenceable(8) %ref.tmp.i.i2655) #23
  call void @llvm.lifetime.end.p0(i64 8, ptr nonnull %ref.tmp.i.i2655) #23
  br label %ehcleanup571

_ZNKSt3__19basic_iosIcNS_11char_traitsIcEEE5widenB7v170000Ec.exit.i2666: ; preds = %invoke.cont.i.i2664
  call void @_ZNSt3__16localeD1Ev(ptr noundef nonnull align 8 dereferenceable(8) %ref.tmp.i.i2655) #23
  call void @llvm.lifetime.end.p0(i64 8, ptr nonnull %ref.tmp.i.i2655) #23
  %call1.i2670 = invoke noundef nonnull align 8 dereferenceable(8) ptr @_ZNSt3__113basic_ostreamIcNS_11char_traitsIcEEE3putEc(ptr noundef nonnull align 8 dereferenceable(8) %call1.i1596, i8 noundef signext %call.i6.i.i2663)
          to label %call1.i.noexc2669 unwind label %lpad406

call1.i.noexc2669:                                ; preds = %_ZNKSt3__19basic_iosIcNS_11char_traitsIcEEE5widenB7v170000Ec.exit.i2666
  %call2.i2671 = invoke noundef nonnull align 8 dereferenceable(8) ptr @_ZNSt3__113basic_ostreamIcNS_11char_traitsIcEEE5flushEv(ptr noundef nonnull align 8 dereferenceable(8) %call1.i1596)
          to label %invoke.cont411 unwind label %lpad406

invoke.cont411:                                   ; preds = %call1.i.noexc2669
  %call1.i1601 = invoke noundef nonnull align 8 dereferenceable(8) ptr @_ZNSt3__124__put_character_sequenceB7v170000IcNS_11char_traitsIcEEEERNS_13basic_ostreamIT_T0_EES7_PKS4_m(ptr noundef nonnull align 8 dereferenceable(8) %add.ptr408, ptr noundef nonnull @.str.44, i64 noundef 44)
          to label %invoke.cont414 unwind label %lpad406

invoke.cont414:                                   ; preds = %invoke.cont411
  %vtable.i2674 = load ptr, ptr %call1.i1601, align 8, !tbaa !38
  %vbase.offset.ptr.i2675 = getelementptr i8, ptr %vtable.i2674, i64 -24
  %vbase.offset.i2676 = load i64, ptr %vbase.offset.ptr.i2675, align 8
  %add.ptr.i2677 = getelementptr inbounds i8, ptr %call1.i1601, i64 %vbase.offset.i2676
  call void @llvm.lifetime.start.p0(i64 8, ptr nonnull %ref.tmp.i.i2673) #23
  invoke void @_ZNKSt3__18ios_base6getlocEv(ptr nonnull sret(%"class.std::__1::locale") align 8 %ref.tmp.i.i2673, ptr noundef nonnull align 8 dereferenceable(136) %add.ptr.i2677)
          to label %.noexc2685 unwind label %lpad406

.noexc2685:                                       ; preds = %invoke.cont414
  %call.i5.i.i2678 = invoke noundef ptr @_ZNKSt3__16locale9use_facetERNS0_2idE(ptr noundef nonnull align 8 dereferenceable(8) %ref.tmp.i.i2673, ptr noundef nonnull align 8 dereferenceable(12) @_ZNSt3__15ctypeIcE2idE)
          to label %invoke.cont.i.i2682 unwind label %lpad.i.i2683

invoke.cont.i.i2682:                              ; preds = %.noexc2685
  %vtable.i.i.i2679 = load ptr, ptr %call.i5.i.i2678, align 8, !tbaa !38
  %vfn.i.i.i2680 = getelementptr inbounds ptr, ptr %vtable.i.i.i2679, i64 7
  %223 = load ptr, ptr %vfn.i.i.i2680, align 8
  %call.i6.i.i2681 = invoke noundef signext i8 %223(ptr noundef nonnull align 8 dereferenceable(25) %call.i5.i.i2678, i8 noundef signext 10)
          to label %_ZNKSt3__19basic_iosIcNS_11char_traitsIcEEE5widenB7v170000Ec.exit.i2684 unwind label %lpad.i.i2683

lpad.i.i2683:                                     ; preds = %invoke.cont.i.i2682, %.noexc2685
  %224 = landingpad { ptr, i32 }
          cleanup
  call void @_ZNSt3__16localeD1Ev(ptr noundef nonnull align 8 dereferenceable(8) %ref.tmp.i.i2673) #23
  call void @llvm.lifetime.end.p0(i64 8, ptr nonnull %ref.tmp.i.i2673) #23
  br label %ehcleanup571

_ZNKSt3__19basic_iosIcNS_11char_traitsIcEEE5widenB7v170000Ec.exit.i2684: ; preds = %invoke.cont.i.i2682
  call void @_ZNSt3__16localeD1Ev(ptr noundef nonnull align 8 dereferenceable(8) %ref.tmp.i.i2673) #23
  call void @llvm.lifetime.end.p0(i64 8, ptr nonnull %ref.tmp.i.i2673) #23
  %call1.i2689 = invoke noundef nonnull align 8 dereferenceable(8) ptr @_ZNSt3__113basic_ostreamIcNS_11char_traitsIcEEE3putEc(ptr noundef nonnull align 8 dereferenceable(8) %call1.i1601, i8 noundef signext %call.i6.i.i2681)
          to label %call1.i.noexc2688 unwind label %lpad406

call1.i.noexc2688:                                ; preds = %_ZNKSt3__19basic_iosIcNS_11char_traitsIcEEE5widenB7v170000Ec.exit.i2684
  %call2.i2690 = invoke noundef nonnull align 8 dereferenceable(8) ptr @_ZNSt3__113basic_ostreamIcNS_11char_traitsIcEEE5flushEv(ptr noundef nonnull align 8 dereferenceable(8) %call1.i1601)
          to label %invoke.cont416 unwind label %lpad406

invoke.cont416:                                   ; preds = %call1.i.noexc2688
  %call1.i1606 = invoke noundef nonnull align 8 dereferenceable(8) ptr @_ZNSt3__124__put_character_sequenceB7v170000IcNS_11char_traitsIcEEEERNS_13basic_ostreamIT_T0_EES7_PKS4_m(ptr noundef nonnull align 8 dereferenceable(8) %add.ptr408, ptr noundef nonnull @.str.45, i64 noundef 60)
          to label %invoke.cont419 unwind label %lpad406

invoke.cont419:                                   ; preds = %invoke.cont416
  %vtable.i2693 = load ptr, ptr %call1.i1606, align 8, !tbaa !38
  %vbase.offset.ptr.i2694 = getelementptr i8, ptr %vtable.i2693, i64 -24
  %vbase.offset.i2695 = load i64, ptr %vbase.offset.ptr.i2694, align 8
  %add.ptr.i2696 = getelementptr inbounds i8, ptr %call1.i1606, i64 %vbase.offset.i2695
  call void @llvm.lifetime.start.p0(i64 8, ptr nonnull %ref.tmp.i.i2692) #23
  invoke void @_ZNKSt3__18ios_base6getlocEv(ptr nonnull sret(%"class.std::__1::locale") align 8 %ref.tmp.i.i2692, ptr noundef nonnull align 8 dereferenceable(136) %add.ptr.i2696)
          to label %.noexc2704 unwind label %lpad406

.noexc2704:                                       ; preds = %invoke.cont419
  %call.i5.i.i2697 = invoke noundef ptr @_ZNKSt3__16locale9use_facetERNS0_2idE(ptr noundef nonnull align 8 dereferenceable(8) %ref.tmp.i.i2692, ptr noundef nonnull align 8 dereferenceable(12) @_ZNSt3__15ctypeIcE2idE)
          to label %invoke.cont.i.i2701 unwind label %lpad.i.i2702

invoke.cont.i.i2701:                              ; preds = %.noexc2704
  %vtable.i.i.i2698 = load ptr, ptr %call.i5.i.i2697, align 8, !tbaa !38
  %vfn.i.i.i2699 = getelementptr inbounds ptr, ptr %vtable.i.i.i2698, i64 7
  %225 = load ptr, ptr %vfn.i.i.i2699, align 8
  %call.i6.i.i2700 = invoke noundef signext i8 %225(ptr noundef nonnull align 8 dereferenceable(25) %call.i5.i.i2697, i8 noundef signext 10)
          to label %_ZNKSt3__19basic_iosIcNS_11char_traitsIcEEE5widenB7v170000Ec.exit.i2703 unwind label %lpad.i.i2702

lpad.i.i2702:                                     ; preds = %invoke.cont.i.i2701, %.noexc2704
  %226 = landingpad { ptr, i32 }
          cleanup
  call void @_ZNSt3__16localeD1Ev(ptr noundef nonnull align 8 dereferenceable(8) %ref.tmp.i.i2692) #23
  call void @llvm.lifetime.end.p0(i64 8, ptr nonnull %ref.tmp.i.i2692) #23
  br label %ehcleanup571

_ZNKSt3__19basic_iosIcNS_11char_traitsIcEEE5widenB7v170000Ec.exit.i2703: ; preds = %invoke.cont.i.i2701
  call void @_ZNSt3__16localeD1Ev(ptr noundef nonnull align 8 dereferenceable(8) %ref.tmp.i.i2692) #23
  call void @llvm.lifetime.end.p0(i64 8, ptr nonnull %ref.tmp.i.i2692) #23
  %call1.i2708 = invoke noundef nonnull align 8 dereferenceable(8) ptr @_ZNSt3__113basic_ostreamIcNS_11char_traitsIcEEE3putEc(ptr noundef nonnull align 8 dereferenceable(8) %call1.i1606, i8 noundef signext %call.i6.i.i2700)
          to label %call1.i.noexc2707 unwind label %lpad406

call1.i.noexc2707:                                ; preds = %_ZNKSt3__19basic_iosIcNS_11char_traitsIcEEE5widenB7v170000Ec.exit.i2703
  %call2.i2709 = invoke noundef nonnull align 8 dereferenceable(8) ptr @_ZNSt3__113basic_ostreamIcNS_11char_traitsIcEEE5flushEv(ptr noundef nonnull align 8 dereferenceable(8) %call1.i1606)
          to label %invoke.cont421 unwind label %lpad406

invoke.cont421:                                   ; preds = %call1.i.noexc2707
  %call1.i1611 = invoke noundef nonnull align 8 dereferenceable(8) ptr @_ZNSt3__124__put_character_sequenceB7v170000IcNS_11char_traitsIcEEEERNS_13basic_ostreamIT_T0_EES7_PKS4_m(ptr noundef nonnull align 8 dereferenceable(8) %add.ptr408, ptr noundef nonnull @.str.46, i64 noundef 25)
          to label %invoke.cont424 unwind label %lpad406

invoke.cont424:                                   ; preds = %invoke.cont421
  call void @llvm.lifetime.start.p0(i64 24, ptr nonnull %ref.tmp426) #23
  %227 = load i64, ptr %__start_.i, align 8, !tbaa !40
  %add.i1614 = add i64 %227, %conv283.le
  %228 = load ptr, ptr %__begin_.i.i, align 8, !tbaa !44
  %div.i1616 = udiv i64 %add.i1614, 39
  %add.ptr.i1617 = getelementptr inbounds ptr, ptr %228, i64 %div.i1616
  %229 = load ptr, ptr %add.ptr.i1617, align 8, !tbaa !45
  %rem.i1618 = urem i64 %add.i1614, 39
  %add.ptr2.i1619 = getelementptr inbounds %"class.PP::Word", ptr %229, i64 %rem.i1618
  invoke void @_ZNSt3__112basic_stringIcNS_11char_traitsIcEENS_9allocatorIcEEEC1ERKS5_(ptr noundef nonnull align 8 dereferenceable(24) %ref.tmp426, ptr noundef nonnull align 8 dereferenceable(24) %add.ptr2.i1619)
          to label %invoke.cont431 unwind label %lpad430

invoke.cont431:                                   ; preds = %invoke.cont424
  %bf.load.i.i.i.i1622 = load i8, ptr %ref.tmp426, align 8
  %bf.clear.i.i.i.i1623 = and i8 %bf.load.i.i.i.i1622, 1
  %tobool.i.not.i.i.i1624 = icmp eq i8 %bf.clear.i.i.i.i1623, 0
  %__data_.i.i.i.i1625 = getelementptr inbounds %"struct.std::__1::basic_string<char>::__long", ptr %ref.tmp426, i64 0, i32 2
  %230 = load ptr, ptr %__data_.i.i.i.i1625, align 8
  %__data_.i4.i.i.i1626 = getelementptr inbounds %"struct.std::__1::basic_string<char>::__short", ptr %ref.tmp426, i64 0, i32 2
  %cond.i.i.i1627 = select i1 %tobool.i.not.i.i.i1624, ptr %__data_.i4.i.i.i1626, ptr %230
  %__size_.i.i.i1628 = getelementptr inbounds %"struct.std::__1::basic_string<char>::__long", ptr %ref.tmp426, i64 0, i32 1
  %231 = load i64, ptr %__size_.i.i.i1628, align 8
  %bf.lshr.i.i.i1629 = lshr i8 %bf.load.i.i.i.i1622, 1
  %conv.i.i.i1630 = zext i8 %bf.lshr.i.i.i1629 to i64
  %cond.i.i1631 = select i1 %tobool.i.not.i.i.i1624, i64 %conv.i.i.i1630, i64 %231
  %call2.i1632 = invoke noundef nonnull align 8 dereferenceable(8) ptr @_ZNSt3__124__put_character_sequenceB7v170000IcNS_11char_traitsIcEEEERNS_13basic_ostreamIT_T0_EES7_PKS4_m(ptr noundef nonnull align 8 dereferenceable(8) %call1.i1611, ptr noundef %cond.i.i.i1627, i64 noundef %cond.i.i1631)
          to label %invoke.cont433 unwind label %lpad432

invoke.cont433:                                   ; preds = %invoke.cont431
  %vtable.i2712 = load ptr, ptr %call2.i1632, align 8, !tbaa !38
  %vbase.offset.ptr.i2713 = getelementptr i8, ptr %vtable.i2712, i64 -24
  %vbase.offset.i2714 = load i64, ptr %vbase.offset.ptr.i2713, align 8
  %add.ptr.i2715 = getelementptr inbounds i8, ptr %call2.i1632, i64 %vbase.offset.i2714
  call void @llvm.lifetime.start.p0(i64 8, ptr nonnull %ref.tmp.i.i2711) #23
  invoke void @_ZNKSt3__18ios_base6getlocEv(ptr nonnull sret(%"class.std::__1::locale") align 8 %ref.tmp.i.i2711, ptr noundef nonnull align 8 dereferenceable(136) %add.ptr.i2715)
          to label %.noexc2723 unwind label %lpad432

.noexc2723:                                       ; preds = %invoke.cont433
  %call.i5.i.i2716 = invoke noundef ptr @_ZNKSt3__16locale9use_facetERNS0_2idE(ptr noundef nonnull align 8 dereferenceable(8) %ref.tmp.i.i2711, ptr noundef nonnull align 8 dereferenceable(12) @_ZNSt3__15ctypeIcE2idE)
          to label %invoke.cont.i.i2720 unwind label %lpad.i.i2721

invoke.cont.i.i2720:                              ; preds = %.noexc2723
  %vtable.i.i.i2717 = load ptr, ptr %call.i5.i.i2716, align 8, !tbaa !38
  %vfn.i.i.i2718 = getelementptr inbounds ptr, ptr %vtable.i.i.i2717, i64 7
  %232 = load ptr, ptr %vfn.i.i.i2718, align 8
  %call.i6.i.i2719 = invoke noundef signext i8 %232(ptr noundef nonnull align 8 dereferenceable(25) %call.i5.i.i2716, i8 noundef signext 10)
          to label %_ZNKSt3__19basic_iosIcNS_11char_traitsIcEEE5widenB7v170000Ec.exit.i2722 unwind label %lpad.i.i2721

lpad.i.i2721:                                     ; preds = %invoke.cont.i.i2720, %.noexc2723
  %233 = landingpad { ptr, i32 }
          cleanup
  call void @_ZNSt3__16localeD1Ev(ptr noundef nonnull align 8 dereferenceable(8) %ref.tmp.i.i2711) #23
  call void @llvm.lifetime.end.p0(i64 8, ptr nonnull %ref.tmp.i.i2711) #23
  br label %lpad432.body

_ZNKSt3__19basic_iosIcNS_11char_traitsIcEEE5widenB7v170000Ec.exit.i2722: ; preds = %invoke.cont.i.i2720
  call void @_ZNSt3__16localeD1Ev(ptr noundef nonnull align 8 dereferenceable(8) %ref.tmp.i.i2711) #23
  call void @llvm.lifetime.end.p0(i64 8, ptr nonnull %ref.tmp.i.i2711) #23
  %call1.i2726 = invoke noundef nonnull align 8 dereferenceable(8) ptr @_ZNSt3__113basic_ostreamIcNS_11char_traitsIcEEE3putEc(ptr noundef nonnull align 8 dereferenceable(8) %call2.i1632, i8 noundef signext %call.i6.i.i2719)
          to label %call1.i.noexc2725 unwind label %lpad432

call1.i.noexc2725:                                ; preds = %_ZNKSt3__19basic_iosIcNS_11char_traitsIcEEE5widenB7v170000Ec.exit.i2722
  %call2.i2727 = invoke noundef nonnull align 8 dereferenceable(8) ptr @_ZNSt3__113basic_ostreamIcNS_11char_traitsIcEEE5flushEv(ptr noundef nonnull align 8 dereferenceable(8) %call2.i1632)
          to label %invoke.cont435 unwind label %lpad432

invoke.cont435:                                   ; preds = %call1.i.noexc2725
  %bf.load.i.i1636 = load i8, ptr %ref.tmp426, align 8
  %bf.clear.i.i1637 = and i8 %bf.load.i.i1636, 1
  %tobool.i.not.i1638 = icmp eq i8 %bf.clear.i.i1637, 0
  br i1 %tobool.i.not.i1638, label %cleanup446, label %if.then.i1640

if.then.i1640:                                    ; preds = %invoke.cont435
  %234 = load ptr, ptr %__data_.i.i.i.i1625, align 8, !tbaa !49
  call void @_ZdlPv(ptr noundef %234) #24
  br label %cleanup446

lpad406:                                          ; preds = %call1.i.noexc2707, %_ZNKSt3__19basic_iosIcNS_11char_traitsIcEEE5widenB7v170000Ec.exit.i2703, %invoke.cont419, %call1.i.noexc2688, %_ZNKSt3__19basic_iosIcNS_11char_traitsIcEEE5widenB7v170000Ec.exit.i2684, %invoke.cont414, %call1.i.noexc2669, %_ZNKSt3__19basic_iosIcNS_11char_traitsIcEEE5widenB7v170000Ec.exit.i2666, %invoke.cont409, %invoke.cont421, %invoke.cont416, %invoke.cont411, %invoke.cont407, %if.then402
  %235 = landingpad { ptr, i32 }
          cleanup
  br label %ehcleanup571

lpad430:                                          ; preds = %invoke.cont424
  %236 = landingpad { ptr, i32 }
          cleanup
  br label %ehcleanup438

lpad432:                                          ; preds = %call1.i.noexc2725, %_ZNKSt3__19basic_iosIcNS_11char_traitsIcEEE5widenB7v170000Ec.exit.i2722, %invoke.cont433, %invoke.cont431
  %237 = landingpad { ptr, i32 }
          cleanup
  br label %lpad432.body

lpad432.body:                                     ; preds = %lpad.i.i2721, %lpad432
  %eh.lpad-body2724 = phi { ptr, i32 } [ %237, %lpad432 ], [ %233, %lpad.i.i2721 ]
  %bf.load.i.i1643 = load i8, ptr %ref.tmp426, align 8
  %bf.clear.i.i1644 = and i8 %bf.load.i.i1643, 1
  %tobool.i.not.i1645 = icmp eq i8 %bf.clear.i.i1644, 0
  br i1 %tobool.i.not.i1645, label %ehcleanup438, label %if.then.i1647

if.then.i1647:                                    ; preds = %lpad432.body
  %238 = load ptr, ptr %__data_.i.i.i.i1625, align 8, !tbaa !49
  call void @_ZdlPv(ptr noundef %238) #24
  br label %ehcleanup438

ehcleanup438:                                     ; preds = %if.then.i1647, %lpad432.body, %lpad430
  %.pn715 = phi { ptr, i32 } [ %236, %lpad430 ], [ %eh.lpad-body2724, %lpad432.body ], [ %eh.lpad-body2724, %if.then.i1647 ]
  call void @llvm.lifetime.end.p0(i64 24, ptr nonnull %ref.tmp426) #23
  br label %ehcleanup571

for.inc444:                                       ; preds = %_ZNSt3__112basic_stringIcNS_11char_traitsIcEENS_9allocatorIcEEED2Ev.exit1587
  %indvars.iv.next2881 = add nuw nsw i64 %indvars.iv2880, 1
  %239 = load i64, ptr %__size_.i.i, align 8, !tbaa !37
  %sext2890 = shl i64 %239, 32
  %240 = ashr exact i64 %sext2890, 32
  %cmp278.not = icmp slt i64 %indvars.iv.next2881, %240
  br i1 %cmp278.not, label %for.body280, label %for.cond451.preheader, !llvm.loop !60

cleanup446:                                       ; preds = %if.then.i1640, %invoke.cont435
  call void @llvm.lifetime.end.p0(i64 24, ptr nonnull %ref.tmp426) #23
  store i32 2, ptr %ierr, align 4, !tbaa !35
  br label %cleanup570

for.cond.cleanup456:                              ; preds = %invoke.cont549, %for.cond275.preheader, %for.cond451.preheader
  call void @llvm.lifetime.start.p0(i64 24, ptr nonnull %ref.tmp556) #23
  call void @llvm.experimental.noalias.scope.decl(metadata !61)
  %241 = load i64, ptr %__size_.i.i.i, align 8, !tbaa !37, !noalias !61
  %conv.i1652 = trunc i64 %241 to i32
  %cmp.not.i1653.not = icmp sgt i32 %conv.i, %conv.i1652
  br i1 %cmp.not.i1653.not, label %if.then3.i.i.i1655, label %if.end.i1664

if.then3.i.i.i1655:                               ; preds = %for.cond.cleanup456
  store i8 0, ptr %ref.tmp556, align 8, !alias.scope !61
  %__data_.i.i.i.i1654 = getelementptr inbounds %"struct.std::__1::basic_string<char>::__short", ptr %ref.tmp556, i64 0, i32 2
  store i8 0, ptr %__data_.i.i.i.i1654, align 1, !tbaa !49, !alias.scope !61
  br label %invoke.cont559

if.end.i1664:                                     ; preds = %for.cond.cleanup456
  %conv3.i1656 = sext i32 %sub to i64
  %242 = load i64, ptr %__start_.i.i, align 8, !tbaa !40, !noalias !61
  %add.i.i1658 = add i64 %242, %conv3.i1656
  %243 = load ptr, ptr %__begin_.i.i.i, align 8, !tbaa !44, !noalias !61
  %div.i.i1660 = udiv i64 %add.i.i1658, 39
  %add.ptr.i.i1661 = getelementptr inbounds ptr, ptr %243, i64 %div.i.i1660
  %244 = load ptr, ptr %add.ptr.i.i1661, align 8, !tbaa !45, !noalias !61
  %rem.i.i1662 = urem i64 %add.i.i1658, 39
  %add.ptr2.i.i1663 = getelementptr inbounds %"class.PP::Word", ptr %244, i64 %rem.i.i1662
  invoke void @_ZNSt3__112basic_stringIcNS_11char_traitsIcEENS_9allocatorIcEEEC1ERKS5_(ptr noundef nonnull align 8 dereferenceable(24) %ref.tmp556, ptr noundef nonnull align 8 dereferenceable(24) %add.ptr2.i.i1663)
          to label %if.end.i1664.invoke.cont559_crit_edge unwind label %lpad558

if.end.i1664.invoke.cont559_crit_edge:            ; preds = %if.end.i1664
  %bf.load.i.i.i.i1982.pre = load i8, ptr %ref.tmp556, align 8
  br label %invoke.cont559

for.body457:                                      ; preds = %for.body457.lr.ph, %invoke.cont549
  %indvars.iv2883 = phi i64 [ 0, %for.body457.lr.ph ], [ %indvars.iv.next2884, %invoke.cont549 ]
  call void @llvm.lifetime.start.p0(i64 24, ptr nonnull %ref.tmp458) #23
  %245 = load i64, ptr %__start_.i1667, align 8, !tbaa !40
  %add.i1668 = add i64 %245, %indvars.iv2883
  %246 = load ptr, ptr %__begin_.i.i1669, align 8, !tbaa !44
  %div.i1670 = udiv i64 %add.i1668, 39
  %add.ptr.i1671 = getelementptr inbounds ptr, ptr %246, i64 %div.i1670
  %247 = load ptr, ptr %add.ptr.i1671, align 8, !tbaa !45
  %rem.i1672 = urem i64 %add.i1668, 39
  %add.ptr2.i1673 = getelementptr inbounds %"class.PP::Word", ptr %247, i64 %rem.i1672
  invoke void @_ZNSt3__112basic_stringIcNS_11char_traitsIcEENS_9allocatorIcEEEC1ERKS5_(ptr noundef nonnull align 8 dereferenceable(24) %ref.tmp458, ptr noundef nonnull align 8 dereferenceable(24) %add.ptr2.i1673)
          to label %invoke.cont463 unwind label %lpad462

invoke.cont463:                                   ; preds = %for.body457
  %bf.load.i.i.i1677 = load i8, ptr %ref.tmp458, align 8
  %bf.clear.i.i.i1678 = and i8 %bf.load.i.i.i1677, 1
  %tobool.i.not.i.i1679 = icmp eq i8 %bf.clear.i.i.i1678, 0
  %248 = load i64, ptr %__size_.i.i.i1680, align 8
  %bf.lshr.i.i.i1681 = lshr i8 %bf.load.i.i.i1677, 1
  %conv.i.i.i1682 = zext i8 %bf.lshr.i.i.i1681 to i64
  %cond.i.i1683 = select i1 %tobool.i.not.i.i1679, i64 %conv.i.i.i1682, i64 %248
  %cmp2.not.i1684 = icmp eq i64 %cond.i.i1683, 6
  br i1 %cmp2.not.i1684, label %_ZNSt3__111char_traitsIcE7compareEPKcS3_m.exit.i.i1693, label %_ZNSt3__1eqB7v170000IcNS_11char_traitsIcEENS_9allocatorIcEEEEbRKNS_12basic_stringIT_T0_T1_EEPKS6_.exit1700

_ZNSt3__111char_traitsIcE7compareEPKcS3_m.exit.i.i1693: ; preds = %invoke.cont463
  %249 = load ptr, ptr %__data_.i.i.i.i.i1689, align 8
  %cond.i.i.i.i1690 = select i1 %tobool.i.not.i.i1679, ptr %__data_.i4.i.i.i.i1688, ptr %249
  %bcmp2846 = call i32 @bcmp(ptr noundef nonnull dereferenceable(6) %cond.i.i.i.i1690, ptr noundef nonnull dereferenceable(6) @.str.31, i64 6)
  %cmp4.i1696 = icmp eq i32 %bcmp2846, 0
  br label %_ZNSt3__1eqB7v170000IcNS_11char_traitsIcEENS_9allocatorIcEEEEbRKNS_12basic_stringIT_T0_T1_EEPKS6_.exit1700

_ZNSt3__1eqB7v170000IcNS_11char_traitsIcEENS_9allocatorIcEEEEbRKNS_12basic_stringIT_T0_T1_EEPKS6_.exit1700: ; preds = %invoke.cont463, %_ZNSt3__111char_traitsIcE7compareEPKcS3_m.exit.i.i1693
  %retval.0.i1698 = phi i1 [ %cmp4.i1696, %_ZNSt3__111char_traitsIcE7compareEPKcS3_m.exit.i.i1693 ], [ false, %invoke.cont463 ]
  br i1 %tobool.i.not.i.i1679, label %_ZNSt3__112basic_stringIcNS_11char_traitsIcEENS_9allocatorIcEEED2Ev.exit1707, label %if.then.i1705

if.then.i1705:                                    ; preds = %_ZNSt3__1eqB7v170000IcNS_11char_traitsIcEENS_9allocatorIcEEEEbRKNS_12basic_stringIT_T0_T1_EEPKS6_.exit1700
  %250 = load ptr, ptr %__data_.i.i.i.i.i1689, align 8, !tbaa !49
  call void @_ZdlPv(ptr noundef %250) #24
  br label %_ZNSt3__112basic_stringIcNS_11char_traitsIcEENS_9allocatorIcEEED2Ev.exit1707

_ZNSt3__112basic_stringIcNS_11char_traitsIcEENS_9allocatorIcEEED2Ev.exit1707: ; preds = %_ZNSt3__1eqB7v170000IcNS_11char_traitsIcEENS_9allocatorIcEEEEbRKNS_12basic_stringIT_T0_T1_EEPKS6_.exit1700, %if.then.i1705
  call void @llvm.lifetime.end.p0(i64 24, ptr nonnull %ref.tmp458) #23
  br i1 %retval.0.i1698, label %if.then537.invoke, label %if.else472

lpad462:                                          ; preds = %for.body457
  %251 = landingpad { ptr, i32 }
          cleanup
  call void @llvm.lifetime.end.p0(i64 24, ptr nonnull %ref.tmp458) #23
  br label %ehcleanup571

lpad470:                                          ; preds = %if.then537.invoke, %if.then.i1972
  %252 = landingpad { ptr, i32 }
          cleanup
  br label %ehcleanup571

if.else472:                                       ; preds = %_ZNSt3__112basic_stringIcNS_11char_traitsIcEENS_9allocatorIcEEED2Ev.exit1707
  call void @llvm.lifetime.start.p0(i64 24, ptr nonnull %ref.tmp473) #23
  %253 = load i64, ptr %__start_.i1667, align 8, !tbaa !40
  %add.i1716 = add i64 %253, %indvars.iv2883
  %254 = load ptr, ptr %__begin_.i.i1669, align 8, !tbaa !44
  %div.i1718 = udiv i64 %add.i1716, 39
  %add.ptr.i1719 = getelementptr inbounds ptr, ptr %254, i64 %div.i1718
  %255 = load ptr, ptr %add.ptr.i1719, align 8, !tbaa !45
  %rem.i1720 = urem i64 %add.i1716, 39
  %add.ptr2.i1721 = getelementptr inbounds %"class.PP::Word", ptr %255, i64 %rem.i1720
  invoke void @_ZNSt3__112basic_stringIcNS_11char_traitsIcEENS_9allocatorIcEEEC1ERKS5_(ptr noundef nonnull align 8 dereferenceable(24) %ref.tmp473, ptr noundef nonnull align 8 dereferenceable(24) %add.ptr2.i1721)
          to label %invoke.cont478 unwind label %lpad477

invoke.cont478:                                   ; preds = %if.else472
  %bf.load.i.i.i1725 = load i8, ptr %ref.tmp473, align 8
  %bf.clear.i.i.i1726 = and i8 %bf.load.i.i.i1725, 1
  %tobool.i.not.i.i1727 = icmp eq i8 %bf.clear.i.i.i1726, 0
  %256 = load i64, ptr %__size_.i.i.i1728, align 8
  %bf.lshr.i.i.i1729 = lshr i8 %bf.load.i.i.i1725, 1
  %conv.i.i.i1730 = zext i8 %bf.lshr.i.i.i1729 to i64
  %cond.i.i1731 = select i1 %tobool.i.not.i.i1727, i64 %conv.i.i.i1730, i64 %256
  %cmp2.not.i1732 = icmp eq i64 %cond.i.i1731, 6
  br i1 %cmp2.not.i1732, label %_ZNSt3__111char_traitsIcE7compareEPKcS3_m.exit.i.i1741, label %_ZNSt3__1eqB7v170000IcNS_11char_traitsIcEENS_9allocatorIcEEEEbRKNS_12basic_stringIT_T0_T1_EEPKS6_.exit1748

_ZNSt3__111char_traitsIcE7compareEPKcS3_m.exit.i.i1741: ; preds = %invoke.cont478
  %257 = load ptr, ptr %__data_.i.i.i.i.i1737, align 8
  %cond.i.i.i.i1738 = select i1 %tobool.i.not.i.i1727, ptr %__data_.i4.i.i.i.i1736, ptr %257
  %bcmp2845 = call i32 @bcmp(ptr noundef nonnull dereferenceable(6) %cond.i.i.i.i1738, ptr noundef nonnull dereferenceable(6) @.str.32, i64 6)
  %cmp4.i1744 = icmp eq i32 %bcmp2845, 0
  br label %_ZNSt3__1eqB7v170000IcNS_11char_traitsIcEENS_9allocatorIcEEEEbRKNS_12basic_stringIT_T0_T1_EEPKS6_.exit1748

_ZNSt3__1eqB7v170000IcNS_11char_traitsIcEENS_9allocatorIcEEEEbRKNS_12basic_stringIT_T0_T1_EEPKS6_.exit1748: ; preds = %invoke.cont478, %_ZNSt3__111char_traitsIcE7compareEPKcS3_m.exit.i.i1741
  %retval.0.i1746 = phi i1 [ %cmp4.i1744, %_ZNSt3__111char_traitsIcE7compareEPKcS3_m.exit.i.i1741 ], [ false, %invoke.cont478 ]
  br i1 %tobool.i.not.i.i1727, label %_ZNSt3__112basic_stringIcNS_11char_traitsIcEENS_9allocatorIcEEED2Ev.exit1755, label %if.then.i1753

if.then.i1753:                                    ; preds = %_ZNSt3__1eqB7v170000IcNS_11char_traitsIcEENS_9allocatorIcEEEEbRKNS_12basic_stringIT_T0_T1_EEPKS6_.exit1748
  %258 = load ptr, ptr %__data_.i.i.i.i.i1737, align 8, !tbaa !49
  call void @_ZdlPv(ptr noundef %258) #24
  br label %_ZNSt3__112basic_stringIcNS_11char_traitsIcEENS_9allocatorIcEEED2Ev.exit1755

