; ModuleID = '/local/mnt2/workspace2/mnadeem/llvm/llvm-test-suite/MultiSource/Benchmarks/DOE-ProxyApps-C++/CLAMR/state.cpp'
source_filename = "/local/mnt2/workspace2/mnadeem/llvm/llvm-test-suite/MultiSource/Benchmarks/DOE-ProxyApps-C++/CLAMR/state.cpp"
target datalayout = "e-m:e-p270:32:32-p271:32:32-p272:64:64-i64:64-f80:128-n8:16:32:64-S128"
target triple = "x86_64-unknown-linux-gnu"

%"class.std::__1::vector.22" = type { ptr, ptr, %"class.std::__1::__compressed_pair.23" }
%"class.std::__1::__compressed_pair.23" = type { %"struct.std::__1::__compressed_pair_elem.24" }
%"struct.std::__1::__compressed_pair_elem.24" = type { ptr }
%"class.std::__1::__tree" = type { ptr, %"class.std::__1::__compressed_pair", %"class.std::__1::__compressed_pair.1" }
%"class.std::__1::__compressed_pair" = type { %"struct.std::__1::__compressed_pair_elem" }
%"struct.std::__1::__compressed_pair_elem" = type { %"class.std::__1::__tree_end_node" }
%"class.std::__1::__tree_end_node" = type { ptr }
%"class.std::__1::__compressed_pair.1" = type { %"struct.std::__1::__compressed_pair_elem.2" }
%"struct.std::__1::__compressed_pair_elem.2" = type { i64 }
%class.MallocPlus = type { %"class.std::__1::map", %"class.std::__1::map.4" }
%"class.std::__1::map" = type { %"class.std::__1::__tree" }
%"class.std::__1::map.4" = type { %"class.std::__1::__tree.5" }
%"class.std::__1::__tree.5" = type { ptr, %"class.std::__1::__compressed_pair.6", %"class.std::__1::__compressed_pair.11" }
%"class.std::__1::__compressed_pair.6" = type { %"struct.std::__1::__compressed_pair_elem" }
%"class.std::__1::__compressed_pair.11" = type { %"struct.std::__1::__compressed_pair_elem.2" }
%class.State = type { %class.MallocPlus, %class.MallocPlus, ptr, ptr, ptr, ptr, [9 x double], [9 x i64] }
%class.Mesh = type { i32, %class.MallocPlus, %class.MallocPlus, [24 x double], [24 x i64], [4 x i32], [4 x i32], i8, i8, i32, i32, i32, i32, i32, ptr, ptr, float, double, i32, %"class.std::__1::vector", %"class.std::__1::vector", %"class.std::__1::vector", %"class.std::__1::vector", ptr, %struct.TKDTree, %"class.std::__1::vector", %"class.std::__1::vector", %"class.std::__1::vector", %"class.std::__1::vector", %"class.std::__1::vector", %"class.std::__1::vector", %"class.std::__1::vector", %"class.std::__1::vector", %"class.std::__1::vector.22", %"class.std::__1::vector.22", %"class.std::__1::vector.22", i32, i32, i32, i32, i32, i32, i32, i32, i32, i64, i64, i64, double, double, double, double, double, double, double, double, double, double, double, double, double, double, double, %"class.std::__1::vector", ptr, ptr, ptr, ptr, ptr, ptr, ptr, ptr, ptr, ptr, ptr, %"class.std::__1::vector.22", %"class.std::__1::vector.22", %"class.std::__1::vector.22", %"class.std::__1::vector.22", %"class.std::__1::vector.22", %"class.std::__1::vector.22", i32, i32, %"class.std::__1::vector", %"class.std::__1::vector", %"class.std::__1::vector", %"class.std::__1::vector", %"class.std::__1::vector", %"class.std::__1::vector", %"class.std::__1::vector", %"class.std::__1::vector", %"class.std::__1::vector", %"class.std::__1::vector", %"class.std::__1::vector", %"class.std::__1::vector", %"class.std::__1::vector", %"class.std::__1::vector", %"class.std::__1::vector", %"class.std::__1::vector", %"class.std::__1::vector", %"class.std::__1::vector", %"class.std::__1::vector", %"class.std::__1::vector", %"class.std::__1::vector", %"class.std::__1::vector", %"class.std::__1::vector", %"class.std::__1::vector", %"class.std::__1::vector", %"class.std::__1::vector", %"class.std::__1::vector", %"class.std::__1::vector", %"class.std::__1::vector", %"class.std::__1::vector" }
%struct.TKDTree = type { %struct.TBounds, i32, i32, ptr, i8, i32, ptr, ptr }
%struct.TBounds = type { %struct.TVector, %struct.TVector }
%struct.TVector = type { double, double }
%"class.std::__1::vector" = type { ptr, ptr, %"class.std::__1::__compressed_pair.16" }
%"class.std::__1::__compressed_pair.16" = type { %"struct.std::__1::__compressed_pair_elem.17" }
%"struct.std::__1::__compressed_pair_elem.17" = type { ptr }
%struct.timeval = type { i64, i64 }
%"class.std::__1::__tree_node" = type { %"class.std::__1::__tree_node_base.base", %"struct.std::__1::__value_type" }
%"class.std::__1::__tree_node_base.base" = type <{ %"class.std::__1::__tree_end_node", ptr, ptr, i8 }>
%"struct.std::__1::__value_type" = type { %"struct.std::__1::pair" }
%"struct.std::__1::pair" = type { %"class.std::__1::basic_string", ptr }
%"class.std::__1::basic_string" = type { %"class.std::__1::__compressed_pair.29" }
%"class.std::__1::__compressed_pair.29" = type { %"struct.std::__1::__compressed_pair_elem.30" }
%"struct.std::__1::__compressed_pair_elem.30" = type { %"struct.std::__1::basic_string<char>::__rep" }
%"struct.std::__1::basic_string<char>::__rep" = type { %union.anon }
%union.anon = type { %"struct.std::__1::basic_string<char>::__long" }
%"struct.std::__1::basic_string<char>::__long" = type { %struct.anon, i64, ptr }
%struct.anon = type { i64 }
%"class.std::__1::__tree_node_base" = type <{ %"class.std::__1::__tree_end_node", ptr, ptr, i8, [7 x i8] }>
%"struct.std::__1::basic_string<char>::__short" = type { %struct.anon.31, [0 x i8], [23 x i8] }
%struct.anon.31 = type { i8 }
%"class.std::__1::__tree_node.48" = type { %"class.std::__1::__tree_node_base.base", %"struct.std::__1::__value_type.49" }
%"struct.std::__1::__value_type.49" = type { %"struct.std::__1::pair.45" }
%"struct.std::__1::pair.45" = type { ptr, ptr }

$_ZNSt3__16vectorIdNS_9allocatorIdEEED2B7v170000Ev = comdat any

$_ZN10MallocPlusD2Ev = comdat any

$_ZNSt3__16__treeINS_12__value_typeINS_12basic_stringIcNS_11char_traitsIcEENS_9allocatorIcEEEEP24malloc_plus_memory_entryEENS_19__map_value_compareIS7_SA_NS_4lessIS7_EELb1EEENS5_ISA_EEE30__emplace_hint_unique_key_argsIS7_JRKNS_4pairIKS7_S9_EEEEENSI_INS_15__tree_iteratorISA_PNS_11__tree_nodeISA_PvEElEEbEENS_21__tree_const_iteratorISA_SR_lEERKT_DpOT0_ = comdat any

$_ZNSt3__16__treeINS_12__value_typeINS_12basic_stringIcNS_11char_traitsIcEENS_9allocatorIcEEEEP24malloc_plus_memory_entryEENS_19__map_value_compareIS7_SA_NS_4lessIS7_EELb1EEENS5_ISA_EEE12__find_equalIS7_EERPNS_16__tree_node_baseIPvEENS_21__tree_const_iteratorISA_PNS_11__tree_nodeISA_SJ_EElEERPNS_15__tree_end_nodeISL_EESM_RKT_ = comdat any

$_ZNSt3__16__treeINS_12__value_typeINS_12basic_stringIcNS_11char_traitsIcEENS_9allocatorIcEEEEP24malloc_plus_memory_entryEENS_19__map_value_compareIS7_SA_NS_4lessIS7_EELb1EEENS5_ISA_EEE12__find_equalIS7_EERPNS_16__tree_node_baseIPvEERPNS_15__tree_end_nodeISL_EERKT_ = comdat any

$_ZSt28__throw_bad_array_new_lengthB7v170000v = comdat any

$_ZNSt3__127__tree_balance_after_insertB7v170000IPNS_16__tree_node_baseIPvEEEEvT_S5_ = comdat any

$_ZNSt3__16__treeINS_12__value_typeINS_12basic_stringIcNS_11char_traitsIcEENS_9allocatorIcEEEEP24malloc_plus_memory_entryEENS_19__map_value_compareIS7_SA_NS_4lessIS7_EELb1EEENS5_ISA_EEE7destroyEPNS_11__tree_nodeISA_PvEE = comdat any

$_ZNSt3__13mapIPvP24malloc_plus_memory_entryNS_4lessIS1_EENS_9allocatorINS_4pairIKS1_S3_EEEEE6insertB7v170000INS_20__map_const_iteratorINS_21__tree_const_iteratorINS_12__value_typeIS1_S3_EEPNS_11__tree_nodeISG_S1_EElEEEEEEvT_SM_ = comdat any

$_ZNSt3__16__treeINS_12__value_typeIPvP24malloc_plus_memory_entryEENS_19__map_value_compareIS2_S5_NS_4lessIS2_EELb1EEENS_9allocatorIS5_EEE12__find_equalIS2_EERPNS_16__tree_node_baseIS2_EENS_21__tree_const_iteratorIS5_PNS_11__tree_nodeIS5_S2_EElEERPNS_15__tree_end_nodeISG_EESH_RKT_ = comdat any

$_ZNSt3__16__treeINS_12__value_typeIPvP24malloc_plus_memory_entryEENS_19__map_value_compareIS2_S5_NS_4lessIS2_EELb1EEENS_9allocatorIS5_EEE7destroyEPNS_11__tree_nodeIS5_S2_EE = comdat any

$_ZNSt3__16vectorIiNS_9allocatorIiEEE8__appendEm = comdat any

$_ZNKSt3__16vectorIiNS_9allocatorIiEEE20__throw_length_errorB7v170000Ev = comdat any

$_ZNSt3__120__throw_length_errorB7v170000EPKc = comdat any

$_ZNSt12length_errorC2B7v170000EPKc = comdat any

$_ZNSt3__16vectorIdNS_9allocatorIdEEE8__appendEm = comdat any

$_ZNKSt3__16vectorIdNS_9allocatorIdEEE20__throw_length_errorB7v170000Ev = comdat any

@save_ncells = dso_local local_unnamed_addr global i32 0, align 4
@.str = private unnamed_addr constant [2 x i8] c"H\00", align 1
@.str.1 = private unnamed_addr constant [2 x i8] c"U\00", align 1
@.str.2 = private unnamed_addr constant [2 x i8] c"V\00", align 1
@_ZZN5State31apply_boundary_conditions_localEvE4nlft = internal unnamed_addr global ptr null, align 8
@_ZZN5State31apply_boundary_conditions_localEvE4nrht = internal unnamed_addr global ptr null, align 8
@_ZZN5State31apply_boundary_conditions_localEvE4nbot = internal unnamed_addr global ptr null, align 8
@_ZZN5State31apply_boundary_conditions_localEvE4ntop = internal unnamed_addr global ptr null, align 8
@_ZZN5State31apply_boundary_conditions_ghostEvE4nlft = internal unnamed_addr global ptr null, align 8
@_ZZN5State31apply_boundary_conditions_ghostEvE4nrht = internal unnamed_addr global ptr null, align 8
@_ZZN5State31apply_boundary_conditions_ghostEvE4nbot = internal unnamed_addr global ptr null, align 8
@_ZZN5State31apply_boundary_conditions_ghostEvE4ntop = internal unnamed_addr global ptr null, align 8
@_ZZN5State12set_timestepEddE9mindeltaT = internal unnamed_addr global double 0.000000e+00, align 8
@_ZZN5State22calc_finite_differenceEdE5H_new = internal unnamed_addr global ptr null, align 8
@_ZZN5State22calc_finite_differenceEdE5U_new = internal unnamed_addr global ptr null, align 8
@_ZZN5State22calc_finite_differenceEdE5V_new = internal unnamed_addr global ptr null, align 8
@.str.3 = private unnamed_addr constant [6 x i8] c"H_new\00", align 1
@.str.4 = private unnamed_addr constant [6 x i8] c"U_new\00", align 1
@.str.5 = private unnamed_addr constant [6 x i8] c"V_new\00", align 1
@_ZZN5State32calc_finite_difference_via_facesEdE2Hx = internal global %"class.std::__1::vector.22" zeroinitializer, align 8
@_ZGVZN5State32calc_finite_difference_via_facesEdE2Hx = internal global i64 0, align 8
@__dso_handle = external hidden global i8
@_ZZN5State32calc_finite_difference_via_facesEdE2Ux = internal global %"class.std::__1::vector.22" zeroinitializer, align 8
@_ZGVZN5State32calc_finite_difference_via_facesEdE2Ux = internal global i64 0, align 8
@_ZZN5State32calc_finite_difference_via_facesEdE2Vx = internal global %"class.std::__1::vector.22" zeroinitializer, align 8
@_ZGVZN5State32calc_finite_difference_via_facesEdE2Vx = internal global i64 0, align 8
@_ZZN5State32calc_finite_difference_via_facesEdE2Hy = internal global %"class.std::__1::vector.22" zeroinitializer, align 8
@_ZGVZN5State32calc_finite_difference_via_facesEdE2Hy = internal global i64 0, align 8
@_ZZN5State32calc_finite_difference_via_facesEdE2Uy = internal global %"class.std::__1::vector.22" zeroinitializer, align 8
@_ZGVZN5State32calc_finite_difference_via_facesEdE2Uy = internal global i64 0, align 8
@_ZZN5State32calc_finite_difference_via_facesEdE2Vy = internal global %"class.std::__1::vector.22" zeroinitializer, align 8
@_ZGVZN5State32calc_finite_difference_via_facesEdE2Vy = internal global i64 0, align 8
@_ZZN5State32calc_finite_difference_via_facesEdE5H_new = internal unnamed_addr global ptr null, align 8
@_ZZN5State32calc_finite_difference_via_facesEdE5U_new = internal unnamed_addr global ptr null, align 8
@_ZZN5State32calc_finite_difference_via_facesEdE5V_new = internal unnamed_addr global ptr null, align 8
@.str.6 = private unnamed_addr constant [45 x i8] c"%s ic %d sym %d H[ic] %lf Hsym %lf diff %lf\0A\00", align 1
@.str.7 = private unnamed_addr constant [45 x i8] c"%s ic %d sym %d U[ic] %lf Usym %lf diff %lf\0A\00", align 1
@.str.8 = private unnamed_addr constant [45 x i8] c"%s ic %d sym %d V[ic] %lf Vsym %lf diff %lf\0A\00", align 1
@.str.9 = private unnamed_addr constant [4 x i8] c"CPU\00", align 1
@.str.10 = private unnamed_addr constant [4 x i8] c"GPU\00", align 1
@.str.11 = private unnamed_addr constant [11 x i8] c"          \00", align 1
@reltable._ZN5State12timer_outputE12state_timers17mesh_device_typesi = private unnamed_addr constant [2 x i32] [i32 trunc (i64 sub (i64 ptrtoint (ptr @.str.9 to i64), i64 ptrtoint (ptr @reltable._ZN5State12timer_outputE12state_timers17mesh_device_typesi to i64)) to i32), i32 trunc (i64 sub (i64 ptrtoint (ptr @.str.10 to i64), i64 ptrtoint (ptr @reltable._ZN5State12timer_outputE12state_timers17mesh_device_typesi to i64)) to i32)], align 4
@.str.12 = private unnamed_addr constant [19 x i8] c"%3s: %.*s%-30.30s\09\00", align 1
@reltable._ZN5State12timer_outputE12state_timers17mesh_device_typesi.61 = internal unnamed_addr constant [9 x i32] [i32 trunc (i64 sub (i64 ptrtoint (ptr @.str.49 to i64), i64 ptrtoint (ptr @reltable._ZN5State12timer_outputE12state_timers17mesh_device_typesi.61 to i64)) to i32), i32 trunc (i64 sub (i64 ptrtoint (ptr @.str.50 to i64), i64 ptrtoint (ptr @reltable._ZN5State12timer_outputE12state_timers17mesh_device_typesi.61 to i64)) to i32), i32 trunc (i64 sub (i64 ptrtoint (ptr @.str.51 to i64), i64 ptrtoint (ptr @reltable._ZN5State12timer_outputE12state_timers17mesh_device_typesi.61 to i64)) to i32), i32 trunc (i64 sub (i64 ptrtoint (ptr @.str.52 to i64), i64 ptrtoint (ptr @reltable._ZN5State12timer_outputE12state_timers17mesh_device_typesi.61 to i64)) to i32), i32 trunc (i64 sub (i64 ptrtoint (ptr @.str.53 to i64), i64 ptrtoint (ptr @reltable._ZN5State12timer_outputE12state_timers17mesh_device_typesi.61 to i64)) to i32), i32 trunc (i64 sub (i64 ptrtoint (ptr @.str.54 to i64), i64 ptrtoint (ptr @reltable._ZN5State12timer_outputE12state_timers17mesh_device_typesi.61 to i64)) to i32), i32 trunc (i64 sub (i64 ptrtoint (ptr @.str.55 to i64), i64 ptrtoint (ptr @reltable._ZN5State12timer_outputE12state_timers17mesh_device_typesi.61 to i64)) to i32), i32 trunc (i64 sub (i64 ptrtoint (ptr @.str.56 to i64), i64 ptrtoint (ptr @reltable._ZN5State12timer_outputE12state_timers17mesh_device_typesi.61 to i64)) to i32), i32 trunc (i64 sub (i64 ptrtoint (ptr @.str.57 to i64), i64 ptrtoint (ptr @reltable._ZN5State12timer_outputE12state_timers17mesh_device_typesi.61 to i64)) to i32)], align 4
@.str.13 = private unnamed_addr constant [2 x i8] c"s\00", align 1
@.str.14 = private unnamed_addr constant [45 x i8] c"DEBUG %s at cycle %d H & H_check %d %lf %lf\0A\00", align 1
@.str.15 = private unnamed_addr constant [45 x i8] c"DEBUG %s at cycle %d U & U_check %d %lf %lf\0A\00", align 1
@.str.16 = private unnamed_addr constant [45 x i8] c"DEBUG %s at cycle %d V & V_check %d %lf %lf\0A\00", align 1
@.str.18 = private unnamed_addr constant [7 x i8] c"out%1d\00", align 1
@.str.19 = private unnamed_addr constant [2 x i8] c"w\00", align 1
@.str.20 = private unnamed_addr constant [63 x i8] c"%d:   index global  i     j     lev   nlft  nrht  nbot  ntop \0A\00", align 1
@.str.21 = private unnamed_addr constant [50 x i8] c"%d: %6d  %6d %4d  %4d   %4d  %4d  %4d  %4d  %4d \0A\00", align 1
@.str.22 = private unnamed_addr constant [58 x i8] c"%d:  index     H        U         V      i     j     lev\0A\00", align 1
@.str.23 = private unnamed_addr constant [38 x i8] c"%d: %6d %lf %lf %lf %4d  %4d   %4d  \0A\00", align 1
@.str.24 = private unnamed_addr constant [15 x i8] c"state_int_vals\00", align 1
@.str.25 = private unnamed_addr constant [17 x i8] c"state_cpu_timers\00", align 1
@.str.26 = private unnamed_addr constant [17 x i8] c"state_gpu_timers\00", align 1
@.str.27 = private unnamed_addr constant [8 x i8] c"storage\00", align 1
@.str.28 = private unnamed_addr constant [84 x i8] c"CRUX version mismatch for state data, version on file is %d, version in code is %d\0A\00", align 1
@.str.31 = private unnamed_addr constant [18 x i8] c"       %-30s %lg\0A\00", align 1
@.str.32 = private unnamed_addr constant [12 x i8] c"iteration%d\00", align 1
@.str.33 = private unnamed_addr constant [38 x i8] c"Iteration = %d\09\09Simuation Time = %lf\0A\00", align 1
@.str.34 = private unnamed_addr constant [46 x i8] c"mesh->ncells = %lu\09\09mesh->ncells_ghost = %lu\0A\00", align 1
@.str.35 = private unnamed_addr constant [46 x i8] c"Initial Mass: %14.12lg\09\09Simulation Time: %lf\0A\00", align 1
@.str.36 = private unnamed_addr constant [50 x i8] c"Initial Mass: %14.12lg\09\09Iteration Mass: %14.12lg\0A\00", align 1
@.str.37 = private unnamed_addr constant [65 x i8] c"Mass Difference: %12.6lg\09\09Mass Difference Percentage: %12.6lg%%\0A\00", align 1
@.str.38 = private unnamed_addr constant [35 x i8] c"DEBUG in print_local ncycle is %d\0A\00", align 1
@.str.39 = private unnamed_addr constant [86 x i8] c"%d:  index     H        U         V      i     j     lev   nlft   nrht   nbot   ntop\0A\00", align 1
@.str.40 = private unnamed_addr constant [73 x i8] c"%d: %6d                              %4d  %4d   %4d  %4d  %4d  %4d  %4d\0A\00", align 1
@.str.41 = private unnamed_addr constant [56 x i8] c"%d: %6d %lf %lf %lf %4d  %4d   %4d  %4d  %4d  %4d  %4d\0A\00", align 1
@.str.42 = private unnamed_addr constant [36 x i8] c"%d: %6d %lf %lf %lf %4d  %4d   %4d\0A\00", align 1
@__const._ZN5State17print_failure_logEiddddb.filename = private unnamed_addr constant [12 x i8] c"failure.log\00", align 1
@.str.43 = private unnamed_addr constant [50 x i8] c"Failed because of nan for H_sum was equal to NAN\0A\00", align 1
@.str.44 = private unnamed_addr constant [66 x i8] c"Failed because mass difference is outside of accepted percentage\0A\00", align 1
@.str.45 = private unnamed_addr constant [15 x i8] c"rollback%d.log\00", align 1
@.str.46 = private unnamed_addr constant [56 x i8] c"Rolling back because of nan for H_sum was equal to NAN\0A\00", align 1
@.str.47 = private unnamed_addr constant [72 x i8] c"Rolling back because mass difference is outside of accepted percentage\0A\00", align 1
@.str.48 = private unnamed_addr constant [59 x i8] c"Rollback attempt %d of %d ---> Number of attempts left:%d\0A\00", align 1
@.str.49 = private unnamed_addr constant [22 x i8] c"state_timer_apply_BCs\00", align 1
@.str.50 = private unnamed_addr constant [25 x i8] c"state_timer_set_timestep\00", align 1
@.str.51 = private unnamed_addr constant [30 x i8] c"state_timer_finite_difference\00", align 1
@.str.52 = private unnamed_addr constant [29 x i8] c"state_timer_refine_potential\00", align 1
@.str.53 = private unnamed_addr constant [22 x i8] c"state_timer_calc_mpot\00", align 1
@.str.54 = private unnamed_addr constant [23 x i8] c"state_timer_rezone_all\00", align 1
@.str.55 = private unnamed_addr constant [21 x i8] c"state_timer_mass_sum\00", align 1
@.str.56 = private unnamed_addr constant [17 x i8] c"state_timer_read\00", align 1
@.str.57 = private unnamed_addr constant [18 x i8] c"state_timer_write\00", align 1
@_ZTISt20bad_array_new_length = external constant ptr
@.str.58 = private unnamed_addr constant [7 x i8] c"vector\00", align 1
@_ZTISt12length_error = external constant ptr
@_ZTVSt12length_error = external unnamed_addr constant { [5 x ptr] }, align 8
@str = private unnamed_addr constant [30 x i8] c" ---- State object info -----\00", align 1
@str.60 = private unnamed_addr constant [41 x i8] c"       === Restored state cpu timers ===\00", align 1

@_ZN5StateC1EP4Mesh = dso_local unnamed_addr alias void (ptr, ptr), ptr @_ZN5StateC2EP4Mesh

; Function Attrs: nofree nosync nounwind memory(argmem: write) uwtable
define dso_local void @_ZN5StateC2EP4Mesh(ptr noundef nonnull align 8 dereferenceable(272) %this, ptr noundef %mesh_in) unnamed_addr #0 align 2 personality ptr @__gxx_personality_v0 {
entry:
  %__pair1_.i.i.i = getelementptr inbounds %"class.std::__1::__tree", ptr %this, i64 0, i32 1
  tail call void @llvm.memset.p0.i64(ptr noundef nonnull align 8 dereferenceable(16) %__pair1_.i.i.i, i8 0, i64 16, i1 false)
  store ptr %__pair1_.i.i.i, ptr %this, align 8, !tbaa !5
  %memory_ptr_dict.i = getelementptr inbounds %class.MallocPlus, ptr %this, i64 0, i32 1
  %__pair1_.i.i2.i = getelementptr inbounds %class.MallocPlus, ptr %this, i64 0, i32 1, i32 0, i32 1
  tail call void @llvm.memset.p0.i64(ptr noundef nonnull align 8 dereferenceable(16) %__pair1_.i.i2.i, i8 0, i64 16, i1 false)
  store ptr %__pair1_.i.i2.i, ptr %memory_ptr_dict.i, align 8, !tbaa !5
  %gpu_state_memory = getelementptr inbounds %class.State, ptr %this, i64 0, i32 1
  %__pair1_.i.i.i16 = getelementptr inbounds %class.State, ptr %this, i64 0, i32 1, i32 0, i32 0, i32 1
  tail call void @llvm.memset.p0.i64(ptr noundef nonnull align 8 dereferenceable(16) %__pair1_.i.i.i16, i8 0, i64 16, i1 false)
  store ptr %__pair1_.i.i.i16, ptr %gpu_state_memory, align 8, !tbaa !5
  %memory_ptr_dict.i17 = getelementptr inbounds %class.State, ptr %this, i64 0, i32 1, i32 1
  %__pair1_.i.i2.i18 = getelementptr inbounds %class.State, ptr %this, i64 0, i32 1, i32 1, i32 0, i32 1
  tail call void @llvm.memset.p0.i64(ptr noundef nonnull align 8 dereferenceable(16) %__pair1_.i.i2.i18, i8 0, i64 16, i1 false)
  store ptr %__pair1_.i.i2.i18, ptr %memory_ptr_dict.i17, align 8, !tbaa !5
  %uglygep = getelementptr i8, ptr %this, i64 128
  %mesh = getelementptr inbounds %class.State, ptr %this, i64 0, i32 2
  tail call void @llvm.memset.p0.i64(ptr noundef nonnull align 8 dereferenceable(144) %uglygep, i8 0, i64 144, i1 false)
  store ptr %mesh_in, ptr %mesh, align 8, !tbaa !9
  ret void
}

; Function Attrs: mustprogress nocallback nofree nosync nounwind willreturn memory(argmem: readwrite)
declare void @llvm.lifetime.start.p0(i64 immarg, ptr nocapture) #1

; Function Attrs: mustprogress nocallback nofree nosync nounwind willreturn memory(argmem: readwrite)
declare void @llvm.lifetime.end.p0(i64 immarg, ptr nocapture) #1

; Function Attrs: mustprogress uwtable
define dso_local void @_ZN5State4initEi(ptr noundef nonnull align 8 dereferenceable(272) %this, i32 noundef %do_gpu_calc) local_unnamed_addr #2 align 2 {
entry:
  %mesh = getelementptr inbounds %class.State, ptr %this, i64 0, i32 2
  %0 = load ptr, ptr %mesh, align 8, !tbaa !9
  %ncells = getelementptr inbounds %class.Mesh, ptr %0, i64 0, i32 45
  %1 = load i64, ptr %ncells, align 8, !tbaa !24
  %call.i = tail call noundef ptr @_ZN10MallocPlus13memory_mallocEmmPKci(ptr noundef nonnull align 8 dereferenceable(48) %this, i64 noundef %1, i64 noundef 8, ptr noundef nonnull @.str, i32 noundef 16)
  %H.i = getelementptr inbounds %class.State, ptr %this, i64 0, i32 3
  store ptr %call.i, ptr %H.i, align 8, !tbaa !39
  %call3.i = tail call noundef ptr @_ZN10MallocPlus13memory_mallocEmmPKci(ptr noundef nonnull align 8 dereferenceable(48) %this, i64 noundef %1, i64 noundef 8, ptr noundef nonnull @.str.1, i32 noundef 16)
  %U.i = getelementptr inbounds %class.State, ptr %this, i64 0, i32 4
  store ptr %call3.i, ptr %U.i, align 8, !tbaa !40
  %call5.i = tail call noundef ptr @_ZN10MallocPlus13memory_mallocEmmPKci(ptr noundef nonnull align 8 dereferenceable(48) %this, i64 noundef %1, i64 noundef 8, ptr noundef nonnull @.str.2, i32 noundef 16)
  %V.i = getelementptr inbounds %class.State, ptr %this, i64 0, i32 5
  store ptr %call5.i, ptr %V.i, align 8, !tbaa !41
  ret void
}

; Function Attrs: mustprogress uwtable
define dso_local void @_ZN5State8allocateEm(ptr noundef nonnull align 8 dereferenceable(272) %this, i64 noundef %ncells) local_unnamed_addr #2 align 2 {
entry:
  %call = tail call noundef ptr @_ZN10MallocPlus13memory_mallocEmmPKci(ptr noundef nonnull align 8 dereferenceable(48) %this, i64 noundef %ncells, i64 noundef 8, ptr noundef nonnull @.str, i32 noundef 16)
  %H = getelementptr inbounds %class.State, ptr %this, i64 0, i32 3
  store ptr %call, ptr %H, align 8, !tbaa !39
  %call3 = tail call noundef ptr @_ZN10MallocPlus13memory_mallocEmmPKci(ptr noundef nonnull align 8 dereferenceable(48) %this, i64 noundef %ncells, i64 noundef 8, ptr noundef nonnull @.str.1, i32 noundef 16)
  %U = getelementptr inbounds %class.State, ptr %this, i64 0, i32 4
  store ptr %call3, ptr %U, align 8, !tbaa !40
  %call5 = tail call noundef ptr @_ZN10MallocPlus13memory_mallocEmmPKci(ptr noundef nonnull align 8 dereferenceable(48) %this, i64 noundef %ncells, i64 noundef 8, ptr noundef nonnull @.str.2, i32 noundef 16)
  %V = getelementptr inbounds %class.State, ptr %this, i64 0, i32 5
  store ptr %call5, ptr %V, align 8, !tbaa !41
  ret void
}

declare noundef ptr @_ZN10MallocPlus13memory_mallocEmmPKci(ptr noundef nonnull align 8 dereferenceable(48), i64 noundef, i64 noundef, ptr noundef, i32 noundef) local_unnamed_addr #3

; Function Attrs: mustprogress uwtable
define dso_local void @_ZN5State6resizeEm(ptr noundef nonnull align 8 dereferenceable(272) %this, i64 noundef %new_ncells) local_unnamed_addr #2 align 2 {
entry:
  %H = getelementptr inbounds %class.State, ptr %this, i64 0, i32 3
  %0 = load ptr, ptr %H, align 8, !tbaa !39
  %call = tail call noundef i64 @_ZN10MallocPlus15get_memory_sizeEPv(ptr noundef nonnull align 8 dereferenceable(48) %this, ptr noundef %0)
  %cmp = icmp ult i64 %call, %new_ncells
  br i1 %cmp, label %if.then, label %if.end

if.then:                                          ; preds = %entry
  tail call void @_ZN10MallocPlus18memory_realloc_allEm(ptr noundef nonnull align 8 dereferenceable(48) %this, i64 noundef %new_ncells)
  br label %if.end

if.end:                                           ; preds = %if.then, %entry
  ret void
}

declare noundef i64 @_ZN10MallocPlus15get_memory_sizeEPv(ptr noundef nonnull align 8 dereferenceable(48), ptr noundef) local_unnamed_addr #3

declare void @_ZN10MallocPlus18memory_realloc_allEm(ptr noundef nonnull align 8 dereferenceable(48), i64 noundef) local_unnamed_addr #3

; Function Attrs: mustprogress uwtable
define dso_local void @_ZN5State17memory_reset_ptrsEv(ptr noundef nonnull align 8 dereferenceable(272) %this) local_unnamed_addr #2 align 2 {
entry:
  %call = tail call noundef ptr @_ZN10MallocPlus14get_memory_ptrEPKc(ptr noundef nonnull align 8 dereferenceable(48) %this, ptr noundef nonnull @.str)
  %H = getelementptr inbounds %class.State, ptr %this, i64 0, i32 3
  store ptr %call, ptr %H, align 8, !tbaa !39
  %call3 = tail call noundef ptr @_ZN10MallocPlus14get_memory_ptrEPKc(ptr noundef nonnull align 8 dereferenceable(48) %this, ptr noundef nonnull @.str.1)
  %U = getelementptr inbounds %class.State, ptr %this, i64 0, i32 4
  store ptr %call3, ptr %U, align 8, !tbaa !40
  %call5 = tail call noundef ptr @_ZN10MallocPlus14get_memory_ptrEPKc(ptr noundef nonnull align 8 dereferenceable(48) %this, ptr noundef nonnull @.str.2)
  %V = getelementptr inbounds %class.State, ptr %this, i64 0, i32 5
  store ptr %call5, ptr %V, align 8, !tbaa !41
  ret void
}

declare noundef ptr @_ZN10MallocPlus14get_memory_ptrEPKc(ptr noundef nonnull align 8 dereferenceable(48), ptr noundef) local_unnamed_addr #3

; Function Attrs: mustprogress uwtable
define dso_local void @_ZN5State9terminateEv(ptr noundef nonnull align 8 dereferenceable(272) %this) local_unnamed_addr #2 align 2 {
entry:
  %H = getelementptr inbounds %class.State, ptr %this, i64 0, i32 3
  %0 = load ptr, ptr %H, align 8, !tbaa !39
  %call = tail call noundef ptr @_ZN10MallocPlus13memory_deleteEPv(ptr noundef nonnull align 8 dereferenceable(48) %this, ptr noundef %0)
  %U = getelementptr inbounds %class.State, ptr %this, i64 0, i32 4
  %1 = load ptr, ptr %U, align 8, !tbaa !40
  %call3 = tail call noundef ptr @_ZN10MallocPlus13memory_deleteEPv(ptr noundef nonnull align 8 dereferenceable(48) %this, ptr noundef %1)
  %V = getelementptr inbounds %class.State, ptr %this, i64 0, i32 5
  %2 = load ptr, ptr %V, align 8, !tbaa !41
  %call5 = tail call noundef ptr @_ZN10MallocPlus13memory_deleteEPv(ptr noundef nonnull align 8 dereferenceable(48) %this, ptr noundef %2)
  ret void
}

declare noundef ptr @_ZN10MallocPlus13memory_deleteEPv(ptr noundef nonnull align 8 dereferenceable(48), ptr noundef) local_unnamed_addr #3

; Function Attrs: mustprogress uwtable
define dso_local void @_ZN5State18add_boundary_cellsEv(ptr noundef nonnull align 8 dereferenceable(272) %this) local_unnamed_addr #2 align 2 personality ptr @__gxx_personality_v0 {
entry:
  %tstart_cpu = alloca %struct.timeval, align 8
  call void @llvm.lifetime.start.p0(i64 16, ptr nonnull %tstart_cpu) #28
  call void @cpu_timer_start(ptr noundef nonnull %tstart_cpu)
  %mesh = getelementptr inbounds %class.State, ptr %this, i64 0, i32 2
  %0 = load ptr, ptr %mesh, align 8, !tbaa !9
  %ncells2 = getelementptr inbounds %class.Mesh, ptr %0, i64 0, i32 45
  %index4 = getelementptr inbounds %class.Mesh, ptr %0, i64 0, i32 63
  %x6 = getelementptr inbounds %class.Mesh, ptr %0, i64 0, i32 75
  %dx8 = getelementptr inbounds %class.Mesh, ptr %0, i64 0, i32 76
  %y10 = getelementptr inbounds %class.Mesh, ptr %0, i64 0, i32 77
  %dy12 = getelementptr inbounds %class.Mesh, ptr %0, i64 0, i32 78
  %i14 = getelementptr inbounds %class.Mesh, ptr %0, i64 0, i32 64
  %1 = load ptr, ptr %i14, align 8, !tbaa !42
  %j16 = getelementptr inbounds %class.Mesh, ptr %0, i64 0, i32 65
  %2 = load ptr, ptr %j16, align 8, !tbaa !43
  %level18 = getelementptr inbounds %class.Mesh, ptr %0, i64 0, i32 67
  %3 = load ptr, ptr %level18, align 8, !tbaa !44
  %celltype20 = getelementptr inbounds %class.Mesh, ptr %0, i64 0, i32 68
  %4 = load ptr, ptr %celltype20, align 8, !tbaa !45
  %nlft22 = getelementptr inbounds %class.Mesh, ptr %0, i64 0, i32 69
  %5 = load ptr, ptr %nlft22, align 8, !tbaa !46
  %nrht24 = getelementptr inbounds %class.Mesh, ptr %0, i64 0, i32 70
  %6 = load ptr, ptr %nrht24, align 8, !tbaa !47
  %nbot26 = getelementptr inbounds %class.Mesh, ptr %0, i64 0, i32 71
  %7 = load ptr, ptr %nbot26, align 8, !tbaa !48
  %ntop28 = getelementptr inbounds %class.Mesh, ptr %0, i64 0, i32 72
  %8 = load ptr, ptr %ntop28, align 8, !tbaa !49
  %lev_ibegin30 = getelementptr inbounds %class.Mesh, ptr %0, i64 0, i32 26
  %lev_iend32 = getelementptr inbounds %class.Mesh, ptr %0, i64 0, i32 27
  %lev_jbegin34 = getelementptr inbounds %class.Mesh, ptr %0, i64 0, i32 28
  %lev_jend36 = getelementptr inbounds %class.Mesh, ptr %0, i64 0, i32 29
  %9 = load i64, ptr %ncells2, align 8, !tbaa !50
  %cmp1281.not = icmp eq i64 %9, 0
  br i1 %cmp1281.not, label %for.cond.cleanup, label %for.body.lr.ph

for.body.lr.ph:                                   ; preds = %entry
  %10 = load ptr, ptr %lev_ibegin30, align 8, !tbaa !51
  %11 = load ptr, ptr %lev_iend32, align 8, !tbaa !51
  %12 = load ptr, ptr %lev_jbegin34, align 8, !tbaa !51
  %13 = load ptr, ptr %lev_jend36, align 8, !tbaa !51
  br label %for.body

for.cond.cleanup:                                 ; preds = %for.body, %entry
  %icount.0.lcssa = phi i32 [ 0, %entry ], [ %icount.4, %for.body ]
  %14 = trunc i64 %9 to i32
  %conv73 = add i32 %icount.0.lcssa, %14
  %conv74 = sext i32 %conv73 to i64
  %H = getelementptr inbounds %class.State, ptr %this, i64 0, i32 3
  %15 = load ptr, ptr %H, align 8, !tbaa !39
  %call75 = call noundef ptr @_ZN10MallocPlus14memory_reallocEmPv(ptr noundef nonnull align 8 dereferenceable(48) %this, i64 noundef %conv74, ptr noundef %15)
  store ptr %call75, ptr %H, align 8, !tbaa !39
  %U = getelementptr inbounds %class.State, ptr %this, i64 0, i32 4
  %16 = load ptr, ptr %U, align 8, !tbaa !40
  %call79 = call noundef ptr @_ZN10MallocPlus14memory_reallocEmPv(ptr noundef nonnull align 8 dereferenceable(48) %this, i64 noundef %conv74, ptr noundef %16)
  store ptr %call79, ptr %U, align 8, !tbaa !40
  %V = getelementptr inbounds %class.State, ptr %this, i64 0, i32 5
  %17 = load ptr, ptr %V, align 8, !tbaa !41
  %call83 = call noundef ptr @_ZN10MallocPlus14memory_reallocEmPv(ptr noundef nonnull align 8 dereferenceable(48) %this, i64 noundef %conv74, ptr noundef %17)
  store ptr %call83, ptr %V, align 8, !tbaa !41
  %18 = load ptr, ptr %mesh, align 8, !tbaa !9
  %mesh_memory = getelementptr inbounds %class.Mesh, ptr %18, i64 0, i32 1
  %call87 = call noundef ptr @_ZN10MallocPlus14memory_reallocEmPv(ptr noundef nonnull align 8 dereferenceable(48) %mesh_memory, i64 noundef %conv74, ptr noundef %1)
  %19 = load ptr, ptr %mesh, align 8, !tbaa !9
  %i89 = getelementptr inbounds %class.Mesh, ptr %19, i64 0, i32 64
  store ptr %call87, ptr %i89, align 8, !tbaa !42
  %mesh_memory91 = getelementptr inbounds %class.Mesh, ptr %19, i64 0, i32 1
  %call93 = call noundef ptr @_ZN10MallocPlus14memory_reallocEmPv(ptr noundef nonnull align 8 dereferenceable(48) %mesh_memory91, i64 noundef %conv74, ptr noundef %2)
  %20 = load ptr, ptr %mesh, align 8, !tbaa !9
  %j95 = getelementptr inbounds %class.Mesh, ptr %20, i64 0, i32 65
  store ptr %call93, ptr %j95, align 8, !tbaa !43
  %mesh_memory97 = getelementptr inbounds %class.Mesh, ptr %20, i64 0, i32 1
  %call99 = call noundef ptr @_ZN10MallocPlus14memory_reallocEmPv(ptr noundef nonnull align 8 dereferenceable(48) %mesh_memory97, i64 noundef %conv74, ptr noundef %3)
  %21 = load ptr, ptr %mesh, align 8, !tbaa !9
  %level101 = getelementptr inbounds %class.Mesh, ptr %21, i64 0, i32 67
  store ptr %call99, ptr %level101, align 8, !tbaa !44
  %mesh_memory103 = getelementptr inbounds %class.Mesh, ptr %21, i64 0, i32 1
  %call105 = call noundef ptr @_ZN10MallocPlus14memory_reallocEmPv(ptr noundef nonnull align 8 dereferenceable(48) %mesh_memory103, i64 noundef %conv74, ptr noundef %4)
  %22 = load ptr, ptr %mesh, align 8, !tbaa !9
  %celltype107 = getelementptr inbounds %class.Mesh, ptr %22, i64 0, i32 68
  store ptr %call105, ptr %celltype107, align 8, !tbaa !45
  %mesh_memory109 = getelementptr inbounds %class.Mesh, ptr %22, i64 0, i32 1
  %call111 = call noundef ptr @_ZN10MallocPlus14memory_reallocEmPv(ptr noundef nonnull align 8 dereferenceable(48) %mesh_memory109, i64 noundef %conv74, ptr noundef %5)
  %23 = load ptr, ptr %mesh, align 8, !tbaa !9
  %nlft113 = getelementptr inbounds %class.Mesh, ptr %23, i64 0, i32 69
  store ptr %call111, ptr %nlft113, align 8, !tbaa !46
  %mesh_memory115 = getelementptr inbounds %class.Mesh, ptr %23, i64 0, i32 1
  %call117 = call noundef ptr @_ZN10MallocPlus14memory_reallocEmPv(ptr noundef nonnull align 8 dereferenceable(48) %mesh_memory115, i64 noundef %conv74, ptr noundef %6)
  %24 = load ptr, ptr %mesh, align 8, !tbaa !9
  %nrht119 = getelementptr inbounds %class.Mesh, ptr %24, i64 0, i32 70
  store ptr %call117, ptr %nrht119, align 8, !tbaa !47
  %mesh_memory121 = getelementptr inbounds %class.Mesh, ptr %24, i64 0, i32 1
  %call123 = call noundef ptr @_ZN10MallocPlus14memory_reallocEmPv(ptr noundef nonnull align 8 dereferenceable(48) %mesh_memory121, i64 noundef %conv74, ptr noundef %7)
  %25 = load ptr, ptr %mesh, align 8, !tbaa !9
  %nbot125 = getelementptr inbounds %class.Mesh, ptr %25, i64 0, i32 71
  store ptr %call123, ptr %nbot125, align 8, !tbaa !48
  %mesh_memory127 = getelementptr inbounds %class.Mesh, ptr %25, i64 0, i32 1
  %call129 = call noundef ptr @_ZN10MallocPlus14memory_reallocEmPv(ptr noundef nonnull align 8 dereferenceable(48) %mesh_memory127, i64 noundef %conv74, ptr noundef %8)
  %call1291315 = ptrtoint ptr %call129 to i64
  %26 = load ptr, ptr %mesh, align 8, !tbaa !9
  %ntop131 = getelementptr inbounds %class.Mesh, ptr %26, i64 0, i32 72
  store ptr %call129, ptr %ntop131, align 8, !tbaa !49
  %i133 = getelementptr inbounds %class.Mesh, ptr %26, i64 0, i32 64
  %27 = load ptr, ptr %i133, align 8, !tbaa !42
  %j135 = getelementptr inbounds %class.Mesh, ptr %26, i64 0, i32 65
  %28 = load ptr, ptr %j135, align 8, !tbaa !43
  %level137 = getelementptr inbounds %class.Mesh, ptr %26, i64 0, i32 67
  %29 = load ptr, ptr %level137, align 8, !tbaa !44
  %nlft141 = getelementptr inbounds %class.Mesh, ptr %26, i64 0, i32 69
  %30 = load ptr, ptr %nlft141, align 8, !tbaa !46
  %31 = ptrtoint ptr %30 to i64
  %nrht143 = getelementptr inbounds %class.Mesh, ptr %26, i64 0, i32 70
  %32 = load ptr, ptr %nrht143, align 8, !tbaa !47
  %33 = ptrtoint ptr %32 to i64
  %nbot145 = getelementptr inbounds %class.Mesh, ptr %26, i64 0, i32 71
  %34 = load ptr, ptr %nbot145, align 8, !tbaa !48
  %35 = ptrtoint ptr %34 to i64
  %__end_.i.i = getelementptr inbounds %class.Mesh, ptr %0, i64 0, i32 63, i32 1
  %36 = load ptr, ptr %__end_.i.i, align 8, !tbaa !52
  %37 = load ptr, ptr %index4, align 8, !tbaa !51
  %sub.ptr.lhs.cast.i.i = ptrtoint ptr %36 to i64
  %sub.ptr.rhs.cast.i.i = ptrtoint ptr %37 to i64
  %sub.ptr.sub.i.i = sub i64 %sub.ptr.lhs.cast.i.i, %sub.ptr.rhs.cast.i.i
  %sub.ptr.div.i.i = ashr exact i64 %sub.ptr.sub.i.i, 2
  %cmp.i = icmp ult i64 %sub.ptr.div.i.i, %conv74
  br i1 %cmp.i, label %if.then.i, label %if.else.i

if.then.i:                                        ; preds = %for.cond.cleanup
  %sub.i = sub nsw i64 %conv74, %sub.ptr.div.i.i
  call void @_ZNSt3__16vectorIiNS_9allocatorIiEEE8__appendEm(ptr noundef nonnull align 8 dereferenceable(24) %index4, i64 noundef %sub.i)
  br label %_ZNSt3__16vectorIiNS_9allocatorIiEEE6resizeEm.exit

if.else.i:                                        ; preds = %for.cond.cleanup
  %cmp2.i = icmp ugt i64 %sub.ptr.div.i.i, %conv74
  br i1 %cmp2.i, label %if.then3.i, label %_ZNSt3__16vectorIiNS_9allocatorIiEEE6resizeEm.exit

if.then3.i:                                       ; preds = %if.else.i
  %add.ptr.i = getelementptr inbounds i32, ptr %37, i64 %conv74
  store ptr %add.ptr.i, ptr %__end_.i.i, align 8, !tbaa !52
  br label %_ZNSt3__16vectorIiNS_9allocatorIiEEE6resizeEm.exit

_ZNSt3__16vectorIiNS_9allocatorIiEEE6resizeEm.exit: ; preds = %if.then.i, %if.else.i, %if.then3.i
  %__end_.i.i1171 = getelementptr inbounds %class.Mesh, ptr %0, i64 0, i32 75, i32 1
  %38 = load ptr, ptr %__end_.i.i1171, align 8, !tbaa !53
  %39 = load ptr, ptr %x6, align 8, !tbaa !54
  %sub.ptr.lhs.cast.i.i1172 = ptrtoint ptr %38 to i64
  %sub.ptr.rhs.cast.i.i1173 = ptrtoint ptr %39 to i64
  %sub.ptr.sub.i.i1174 = sub i64 %sub.ptr.lhs.cast.i.i1172, %sub.ptr.rhs.cast.i.i1173
  %sub.ptr.div.i.i1175 = ashr exact i64 %sub.ptr.sub.i.i1174, 3
  %cmp.i1176 = icmp ult i64 %sub.ptr.div.i.i1175, %conv74
  br i1 %cmp.i1176, label %if.then.i1178, label %if.else.i1180

if.then.i1178:                                    ; preds = %_ZNSt3__16vectorIiNS_9allocatorIiEEE6resizeEm.exit
  %sub.i1177 = sub nsw i64 %conv74, %sub.ptr.div.i.i1175
  call void @_ZNSt3__16vectorIdNS_9allocatorIdEEE8__appendEm(ptr noundef nonnull align 8 dereferenceable(24) %x6, i64 noundef %sub.i1177)
  br label %_ZNSt3__16vectorIdNS_9allocatorIdEEE6resizeEm.exit

if.else.i1180:                                    ; preds = %_ZNSt3__16vectorIiNS_9allocatorIiEEE6resizeEm.exit
  %cmp2.i1179 = icmp ugt i64 %sub.ptr.div.i.i1175, %conv74
  br i1 %cmp2.i1179, label %if.then3.i1182, label %_ZNSt3__16vectorIdNS_9allocatorIdEEE6resizeEm.exit

if.then3.i1182:                                   ; preds = %if.else.i1180
  %add.ptr.i1181 = getelementptr inbounds double, ptr %39, i64 %conv74
  store ptr %add.ptr.i1181, ptr %__end_.i.i1171, align 8, !tbaa !53
  br label %_ZNSt3__16vectorIdNS_9allocatorIdEEE6resizeEm.exit

_ZNSt3__16vectorIdNS_9allocatorIdEEE6resizeEm.exit: ; preds = %if.then.i1178, %if.else.i1180, %if.then3.i1182
  %__end_.i.i1183 = getelementptr inbounds %class.Mesh, ptr %0, i64 0, i32 76, i32 1
  %40 = load ptr, ptr %__end_.i.i1183, align 8, !tbaa !53
  %41 = load ptr, ptr %dx8, align 8, !tbaa !54
  %sub.ptr.lhs.cast.i.i1184 = ptrtoint ptr %40 to i64
  %sub.ptr.rhs.cast.i.i1185 = ptrtoint ptr %41 to i64
  %sub.ptr.sub.i.i1186 = sub i64 %sub.ptr.lhs.cast.i.i1184, %sub.ptr.rhs.cast.i.i1185
  %sub.ptr.div.i.i1187 = ashr exact i64 %sub.ptr.sub.i.i1186, 3
  %cmp.i1188 = icmp ult i64 %sub.ptr.div.i.i1187, %conv74
  br i1 %cmp.i1188, label %if.then.i1190, label %if.else.i1192

if.then.i1190:                                    ; preds = %_ZNSt3__16vectorIdNS_9allocatorIdEEE6resizeEm.exit
  %sub.i1189 = sub nsw i64 %conv74, %sub.ptr.div.i.i1187
  call void @_ZNSt3__16vectorIdNS_9allocatorIdEEE8__appendEm(ptr noundef nonnull align 8 dereferenceable(24) %dx8, i64 noundef %sub.i1189)
  br label %_ZNSt3__16vectorIdNS_9allocatorIdEEE6resizeEm.exit1195

if.else.i1192:                                    ; preds = %_ZNSt3__16vectorIdNS_9allocatorIdEEE6resizeEm.exit
  %cmp2.i1191 = icmp ugt i64 %sub.ptr.div.i.i1187, %conv74
  br i1 %cmp2.i1191, label %if.then3.i1194, label %_ZNSt3__16vectorIdNS_9allocatorIdEEE6resizeEm.exit1195

if.then3.i1194:                                   ; preds = %if.else.i1192
  %add.ptr.i1193 = getelementptr inbounds double, ptr %41, i64 %conv74
  store ptr %add.ptr.i1193, ptr %__end_.i.i1183, align 8, !tbaa !53
  br label %_ZNSt3__16vectorIdNS_9allocatorIdEEE6resizeEm.exit1195

_ZNSt3__16vectorIdNS_9allocatorIdEEE6resizeEm.exit1195: ; preds = %if.then.i1190, %if.else.i1192, %if.then3.i1194
  %__end_.i.i1196 = getelementptr inbounds %class.Mesh, ptr %0, i64 0, i32 77, i32 1
  %42 = load ptr, ptr %__end_.i.i1196, align 8, !tbaa !53
  %43 = load ptr, ptr %y10, align 8, !tbaa !54
  %sub.ptr.lhs.cast.i.i1197 = ptrtoint ptr %42 to i64
  %sub.ptr.rhs.cast.i.i1198 = ptrtoint ptr %43 to i64
  %sub.ptr.sub.i.i1199 = sub i64 %sub.ptr.lhs.cast.i.i1197, %sub.ptr.rhs.cast.i.i1198
  %sub.ptr.div.i.i1200 = ashr exact i64 %sub.ptr.sub.i.i1199, 3
  %cmp.i1201 = icmp ult i64 %sub.ptr.div.i.i1200, %conv74
  br i1 %cmp.i1201, label %if.then.i1203, label %if.else.i1205

if.then.i1203:                                    ; preds = %_ZNSt3__16vectorIdNS_9allocatorIdEEE6resizeEm.exit1195
  %sub.i1202 = sub nsw i64 %conv74, %sub.ptr.div.i.i1200
  call void @_ZNSt3__16vectorIdNS_9allocatorIdEEE8__appendEm(ptr noundef nonnull align 8 dereferenceable(24) %y10, i64 noundef %sub.i1202)
  br label %_ZNSt3__16vectorIdNS_9allocatorIdEEE6resizeEm.exit1208

if.else.i1205:                                    ; preds = %_ZNSt3__16vectorIdNS_9allocatorIdEEE6resizeEm.exit1195
  %cmp2.i1204 = icmp ugt i64 %sub.ptr.div.i.i1200, %conv74
  br i1 %cmp2.i1204, label %if.then3.i1207, label %_ZNSt3__16vectorIdNS_9allocatorIdEEE6resizeEm.exit1208

if.then3.i1207:                                   ; preds = %if.else.i1205
  %add.ptr.i1206 = getelementptr inbounds double, ptr %43, i64 %conv74
  store ptr %add.ptr.i1206, ptr %__end_.i.i1196, align 8, !tbaa !53
  br label %_ZNSt3__16vectorIdNS_9allocatorIdEEE6resizeEm.exit1208

_ZNSt3__16vectorIdNS_9allocatorIdEEE6resizeEm.exit1208: ; preds = %if.then.i1203, %if.else.i1205, %if.then3.i1207
  %__end_.i.i1209 = getelementptr inbounds %class.Mesh, ptr %0, i64 0, i32 78, i32 1
  %44 = load ptr, ptr %__end_.i.i1209, align 8, !tbaa !53
  %45 = load ptr, ptr %dy12, align 8, !tbaa !54
  %sub.ptr.lhs.cast.i.i1210 = ptrtoint ptr %44 to i64
  %sub.ptr.rhs.cast.i.i1211 = ptrtoint ptr %45 to i64
  %sub.ptr.sub.i.i1212 = sub i64 %sub.ptr.lhs.cast.i.i1210, %sub.ptr.rhs.cast.i.i1211
  %sub.ptr.div.i.i1213 = ashr exact i64 %sub.ptr.sub.i.i1212, 3
  %cmp.i1214 = icmp ult i64 %sub.ptr.div.i.i1213, %conv74
  br i1 %cmp.i1214, label %if.then.i1216, label %if.else.i1218

if.then.i1216:                                    ; preds = %_ZNSt3__16vectorIdNS_9allocatorIdEEE6resizeEm.exit1208
  %sub.i1215 = sub nsw i64 %conv74, %sub.ptr.div.i.i1213
  call void @_ZNSt3__16vectorIdNS_9allocatorIdEEE8__appendEm(ptr noundef nonnull align 8 dereferenceable(24) %dy12, i64 noundef %sub.i1215)
  br label %_ZNSt3__16vectorIdNS_9allocatorIdEEE6resizeEm.exit1221

if.else.i1218:                                    ; preds = %_ZNSt3__16vectorIdNS_9allocatorIdEEE6resizeEm.exit1208
  %cmp2.i1217 = icmp ugt i64 %sub.ptr.div.i.i1213, %conv74
  br i1 %cmp2.i1217, label %if.then3.i1220, label %_ZNSt3__16vectorIdNS_9allocatorIdEEE6resizeEm.exit1221

if.then3.i1220:                                   ; preds = %if.else.i1218
  %add.ptr.i1219 = getelementptr inbounds double, ptr %45, i64 %conv74
  store ptr %add.ptr.i1219, ptr %__end_.i.i1209, align 8, !tbaa !53
  br label %_ZNSt3__16vectorIdNS_9allocatorIdEEE6resizeEm.exit1221

_ZNSt3__16vectorIdNS_9allocatorIdEEE6resizeEm.exit1221: ; preds = %if.then.i1216, %if.else.i1218, %if.then3.i1220
  %46 = load i64, ptr %ncells2, align 8, !tbaa !50
  %conv153 = trunc i64 %46 to i32
  %cmp1551286 = icmp sgt i32 %conv73, %conv153
  br i1 %cmp1551286, label %for.body157.preheader, label %for.cond172.preheader

for.body157.preheader:                            ; preds = %_ZNSt3__16vectorIdNS_9allocatorIdEEE6resizeEm.exit1221
  %sext1313 = shl i64 %46, 32
  %47 = ashr exact i64 %sext1313, 32
  %48 = sub nsw i64 %conv74, %47
  %min.iters.check = icmp ult i64 %48, 40
  br i1 %min.iters.check, label %for.body157.preheader1324, label %vector.memcheck

vector.memcheck:                                  ; preds = %for.body157.preheader
  %49 = ashr exact i64 %sext1313, 30
  %50 = add i64 %49, %33
  %51 = add i64 %49, %31
  %52 = sub i64 %50, %51
  %diff.check = icmp ult i64 %52, 32
  %53 = add i64 %49, %35
  %54 = sub i64 %53, %51
  %diff.check1314 = icmp ult i64 %54, 32
  %conflict.rdx = or i1 %diff.check, %diff.check1314
  %55 = add i64 %49, %call1291315
  %56 = sub i64 %55, %51
  %diff.check1316 = icmp ult i64 %56, 32
  %conflict.rdx1317 = or i1 %conflict.rdx, %diff.check1316
  %57 = sub i64 %53, %50
  %diff.check1318 = icmp ult i64 %57, 32
  %conflict.rdx1319 = or i1 %conflict.rdx1317, %diff.check1318
  %58 = sub i64 %55, %50
  %diff.check1320 = icmp ult i64 %58, 32
  %conflict.rdx1321 = or i1 %conflict.rdx1319, %diff.check1320
  %59 = sub i64 %55, %53
  %diff.check1322 = icmp ult i64 %59, 32
  %conflict.rdx1323 = or i1 %conflict.rdx1321, %diff.check1322
  br i1 %conflict.rdx1323, label %for.body157.preheader1324, label %vector.ph

vector.ph:                                        ; preds = %vector.memcheck
  %n.vec = and i64 %48, -8
  %ind.end = add nsw i64 %47, %n.vec
  br label %vector.body

vector.body:                                      ; preds = %vector.body, %vector.ph
  %index = phi i64 [ 0, %vector.ph ], [ %index.next, %vector.body ]
  %offset.idx = add i64 %47, %index
  %60 = getelementptr inbounds i32, ptr %30, i64 %offset.idx
  store <4 x i32> <i32 -1, i32 -1, i32 -1, i32 -1>, ptr %60, align 4, !tbaa !55
  %61 = getelementptr inbounds i32, ptr %60, i64 4
  store <4 x i32> <i32 -1, i32 -1, i32 -1, i32 -1>, ptr %61, align 4, !tbaa !55
  %62 = getelementptr inbounds i32, ptr %32, i64 %offset.idx
  store <4 x i32> <i32 -1, i32 -1, i32 -1, i32 -1>, ptr %62, align 4, !tbaa !55
  %63 = getelementptr inbounds i32, ptr %62, i64 4
  store <4 x i32> <i32 -1, i32 -1, i32 -1, i32 -1>, ptr %63, align 4, !tbaa !55
  %64 = getelementptr inbounds i32, ptr %34, i64 %offset.idx
  store <4 x i32> <i32 -1, i32 -1, i32 -1, i32 -1>, ptr %64, align 4, !tbaa !55
  %65 = getelementptr inbounds i32, ptr %64, i64 4
  store <4 x i32> <i32 -1, i32 -1, i32 -1, i32 -1>, ptr %65, align 4, !tbaa !55
  %66 = getelementptr inbounds i32, ptr %call129, i64 %offset.idx
  store <4 x i32> <i32 -1, i32 -1, i32 -1, i32 -1>, ptr %66, align 4, !tbaa !55
  %67 = getelementptr inbounds i32, ptr %66, i64 4
  store <4 x i32> <i32 -1, i32 -1, i32 -1, i32 -1>, ptr %67, align 4, !tbaa !55
  %index.next = add nuw i64 %index, 8
  %68 = icmp eq i64 %index.next, %n.vec
  br i1 %68, label %middle.block, label %vector.body, !llvm.loop !56

middle.block:                                     ; preds = %vector.body
  %cmp.n = icmp eq i64 %48, %n.vec
  br i1 %cmp.n, label %for.cond172.preheader, label %for.body157.preheader1324

for.body157.preheader1324:                        ; preds = %vector.memcheck, %for.body157.preheader, %middle.block
  %indvars.iv.ph = phi i64 [ %47, %vector.memcheck ], [ %47, %for.body157.preheader ], [ %ind.end, %middle.block ]
  %69 = sub nsw i64 %conv74, %indvars.iv.ph
  %70 = xor i64 %indvars.iv.ph, -1
  %xtraiter = and i64 %69, 1
  %lcmp.mod.not = icmp eq i64 %xtraiter, 0
  br i1 %lcmp.mod.not, label %for.body157.prol.loopexit, label %for.body157.prol

for.body157.prol:                                 ; preds = %for.body157.preheader1324
  %arrayidx159.prol = getelementptr inbounds i32, ptr %30, i64 %indvars.iv.ph
  store i32 -1, ptr %arrayidx159.prol, align 4, !tbaa !55
  %arrayidx161.prol = getelementptr inbounds i32, ptr %32, i64 %indvars.iv.ph
  store i32 -1, ptr %arrayidx161.prol, align 4, !tbaa !55
  %arrayidx163.prol = getelementptr inbounds i32, ptr %34, i64 %indvars.iv.ph
  store i32 -1, ptr %arrayidx163.prol, align 4, !tbaa !55
  %arrayidx165.prol = getelementptr inbounds i32, ptr %call129, i64 %indvars.iv.ph
  store i32 -1, ptr %arrayidx165.prol, align 4, !tbaa !55
  %indvars.iv.next.prol = add nsw i64 %indvars.iv.ph, 1
  br label %for.body157.prol.loopexit

for.body157.prol.loopexit:                        ; preds = %for.body157.prol, %for.body157.preheader1324
  %indvars.iv.unr = phi i64 [ %indvars.iv.ph, %for.body157.preheader1324 ], [ %indvars.iv.next.prol, %for.body157.prol ]
  %71 = sub nsw i64 0, %conv74
  %72 = icmp eq i64 %70, %71
  br i1 %72, label %for.cond172.preheader, label %for.body157

for.body:                                         ; preds = %for.body.lr.ph, %for.body
  %conv1284 = phi i64 [ 0, %for.body.lr.ph ], [ %conv, %for.body ]
  %icount.01282 = phi i32 [ 0, %for.body.lr.ph ], [ %icount.4, %for.body ]
  %arrayidx = getelementptr inbounds i32, ptr %1, i64 %conv1284
  %73 = load i32, ptr %arrayidx, align 4, !tbaa !55
  %arrayidx38 = getelementptr inbounds i32, ptr %3, i64 %conv1284
  %74 = load i32, ptr %arrayidx38, align 4, !tbaa !55
  %conv39 = sext i32 %74 to i64
  %arrayidx.i = getelementptr inbounds i32, ptr %10, i64 %conv39
  %75 = load i32, ptr %arrayidx.i, align 4, !tbaa !55
  %cmp40 = icmp eq i32 %73, %75
  %inc = zext i1 %cmp40 to i32
  %spec.select = add nsw i32 %icount.01282, %inc
  %arrayidx.i1222 = getelementptr inbounds i32, ptr %11, i64 %conv39
  %76 = load i32, ptr %arrayidx.i1222, align 4, !tbaa !55
  %cmp47 = icmp eq i32 %73, %76
  %inc49 = zext i1 %cmp47 to i32
  %icount.2 = add nsw i32 %spec.select, %inc49
  %arrayidx52 = getelementptr inbounds i32, ptr %2, i64 %conv1284
  %77 = load i32, ptr %arrayidx52, align 4, !tbaa !55
  %arrayidx.i1223 = getelementptr inbounds i32, ptr %12, i64 %conv39
  %78 = load i32, ptr %arrayidx.i1223, align 4, !tbaa !55
  %cmp57 = icmp eq i32 %77, %78
  %inc59 = zext i1 %cmp57 to i32
  %icount.3 = add nsw i32 %icount.2, %inc59
  %arrayidx.i1224 = getelementptr inbounds i32, ptr %13, i64 %conv39
  %79 = load i32, ptr %arrayidx.i1224, align 4, !tbaa !55
  %cmp67 = icmp eq i32 %77, %79
  %inc69 = zext i1 %cmp67 to i32
  %icount.4 = add nsw i32 %icount.3, %inc69
  %inc71 = add nuw nsw i64 %conv1284, 1
  %conv = and i64 %inc71, 4294967295
  %cmp = icmp ugt i64 %9, %conv
  br i1 %cmp, label %for.body, label %for.cond.cleanup, !llvm.loop !60

for.cond172.preheader:                            ; preds = %for.body157.prol.loopexit, %for.body157, %middle.block, %_ZNSt3__16vectorIdNS_9allocatorIdEEE6resizeEm.exit1221
  %cmp1741288.not = icmp eq i64 %46, 0
  br i1 %cmp1741288.not, label %for.cond456.preheader, label %for.body176.lr.ph

for.body176.lr.ph:                                ; preds = %for.cond172.preheader
  %80 = load ptr, ptr %lev_ibegin30, align 8, !tbaa !51
  %81 = load ptr, ptr %H, align 8
  %82 = load ptr, ptr %U, align 8
  %83 = load ptr, ptr %V, align 8
  %84 = load ptr, ptr %lev_iend32, align 8, !tbaa !51
  %85 = load ptr, ptr %lev_jbegin34, align 8, !tbaa !51
  %86 = load ptr, ptr %lev_jend36, align 8, !tbaa !51
  br label %for.body176

for.body157:                                      ; preds = %for.body157.prol.loopexit, %for.body157
  %indvars.iv = phi i64 [ %indvars.iv.next.1, %for.body157 ], [ %indvars.iv.unr, %for.body157.prol.loopexit ]
  %arrayidx159 = getelementptr inbounds i32, ptr %30, i64 %indvars.iv
  store i32 -1, ptr %arrayidx159, align 4, !tbaa !55
  %arrayidx161 = getelementptr inbounds i32, ptr %32, i64 %indvars.iv
  store i32 -1, ptr %arrayidx161, align 4, !tbaa !55
  %arrayidx163 = getelementptr inbounds i32, ptr %34, i64 %indvars.iv
  store i32 -1, ptr %arrayidx163, align 4, !tbaa !55
  %arrayidx165 = getelementptr inbounds i32, ptr %call129, i64 %indvars.iv
  store i32 -1, ptr %arrayidx165, align 4, !tbaa !55
  %indvars.iv.next = add nsw i64 %indvars.iv, 1
  %arrayidx159.1 = getelementptr inbounds i32, ptr %30, i64 %indvars.iv.next
  store i32 -1, ptr %arrayidx159.1, align 4, !tbaa !55
  %arrayidx161.1 = getelementptr inbounds i32, ptr %32, i64 %indvars.iv.next
  store i32 -1, ptr %arrayidx161.1, align 4, !tbaa !55
  %arrayidx163.1 = getelementptr inbounds i32, ptr %34, i64 %indvars.iv.next
  store i32 -1, ptr %arrayidx163.1, align 4, !tbaa !55
  %arrayidx165.1 = getelementptr inbounds i32, ptr %call129, i64 %indvars.iv.next
  store i32 -1, ptr %arrayidx165.1, align 4, !tbaa !55
  %indvars.iv.next.1 = add nsw i64 %indvars.iv, 2
  %exitcond.not.1 = icmp eq i64 %indvars.iv.next.1, %conv74
  br i1 %exitcond.not.1, label %for.cond172.preheader, label %for.body157, !llvm.loop !61

for.cond456.preheader:                            ; preds = %for.inc451, %for.cond172.preheader
  br i1 %cmp1551286, label %for.body459.lr.ph, label %for.cond.cleanup458

for.body459.lr.ph:                                ; preds = %for.cond456.preheader
  %87 = load ptr, ptr %lev_ibegin30, align 8, !tbaa !51
  %88 = load ptr, ptr %lev_iend32, align 8, !tbaa !51
  %89 = load ptr, ptr %lev_jbegin34, align 8, !tbaa !51
  %90 = load ptr, ptr %lev_jend36, align 8, !tbaa !51
  %sext = shl i64 %46, 32
  %91 = ashr exact i64 %sext, 32
  br label %for.body459

for.body176:                                      ; preds = %for.body176.lr.ph, %for.inc451
  %conv1731291 = phi i64 [ 0, %for.body176.lr.ph ], [ %conv173, %for.inc451 ]
  %nc169.01289 = phi i32 [ %conv153, %for.body176.lr.ph ], [ %nc169.4, %for.inc451 ]
  %indvars1296 = trunc i64 %conv1731291 to i32
  %arrayidx178 = getelementptr inbounds i32, ptr %27, i64 %conv1731291
  %92 = load i32, ptr %arrayidx178, align 4, !tbaa !55
  %arrayidx180 = getelementptr inbounds i32, ptr %29, i64 %conv1731291
  %93 = load i32, ptr %arrayidx180, align 4, !tbaa !55
  %conv181 = sext i32 %93 to i64
  %arrayidx.i1225 = getelementptr inbounds i32, ptr %80, i64 %conv181
  %94 = load i32, ptr %arrayidx.i1225, align 4, !tbaa !55
  %cmp183 = icmp eq i32 %92, %94
  br i1 %cmp183, label %if.then184, label %if.end243

if.then184:                                       ; preds = %for.body176
  %arrayidx186 = getelementptr inbounds i32, ptr %30, i64 %conv1731291
  store i32 %nc169.01289, ptr %arrayidx186, align 4, !tbaa !55
  %idxprom187 = zext i32 %nc169.01289 to i64
  %arrayidx188 = getelementptr inbounds i32, ptr %30, i64 %idxprom187
  store i32 %nc169.01289, ptr %arrayidx188, align 4, !tbaa !55
  %arrayidx190 = getelementptr inbounds i32, ptr %32, i64 %idxprom187
  store i32 %indvars1296, ptr %arrayidx190, align 4, !tbaa !55
  %95 = load i32, ptr %arrayidx180, align 4, !tbaa !55
  %conv193 = sext i32 %95 to i64
  %arrayidx.i1226 = getelementptr inbounds i32, ptr %80, i64 %conv193
  %96 = load i32, ptr %arrayidx.i1226, align 4, !tbaa !55
  %sub = add nsw i32 %96, -1
  %arrayidx196 = getelementptr inbounds i32, ptr %27, i64 %idxprom187
  store i32 %sub, ptr %arrayidx196, align 4, !tbaa !55
  %arrayidx198 = getelementptr inbounds i32, ptr %28, i64 %conv1731291
  %97 = load i32, ptr %arrayidx198, align 4, !tbaa !55
  %arrayidx200 = getelementptr inbounds i32, ptr %28, i64 %idxprom187
  store i32 %97, ptr %arrayidx200, align 4, !tbaa !55
  %98 = load i32, ptr %arrayidx180, align 4, !tbaa !55
  %arrayidx204 = getelementptr inbounds i32, ptr %29, i64 %idxprom187
  store i32 %98, ptr %arrayidx204, align 4, !tbaa !55
  %99 = load ptr, ptr %dx8, align 8, !tbaa !54
  %arrayidx.i1227 = getelementptr inbounds double, ptr %99, i64 %conv1731291
  %100 = load double, ptr %arrayidx.i1227, align 8, !tbaa !62
  %arrayidx.i1228 = getelementptr inbounds double, ptr %99, i64 %idxprom187
  store double %100, ptr %arrayidx.i1228, align 8, !tbaa !62
  %101 = load ptr, ptr %dy12, align 8, !tbaa !54
  %arrayidx.i1229 = getelementptr inbounds double, ptr %101, i64 %conv1731291
  %102 = load double, ptr %arrayidx.i1229, align 8, !tbaa !62
  %arrayidx.i1230 = getelementptr inbounds double, ptr %101, i64 %idxprom187
  store double %102, ptr %arrayidx.i1230, align 8, !tbaa !62
  %103 = load ptr, ptr %x6, align 8, !tbaa !54
  %arrayidx.i1231 = getelementptr inbounds double, ptr %103, i64 %conv1731291
  %104 = load double, ptr %arrayidx.i1231, align 8, !tbaa !62
  %105 = load double, ptr %arrayidx.i1227, align 8, !tbaa !62
  %sub217 = fsub double %104, %105
  %arrayidx.i1233 = getelementptr inbounds double, ptr %103, i64 %idxprom187
  store double %sub217, ptr %arrayidx.i1233, align 8, !tbaa !62
  %106 = load ptr, ptr %y10, align 8, !tbaa !54
  %arrayidx.i1234 = getelementptr inbounds double, ptr %106, i64 %conv1731291
  %107 = load double, ptr %arrayidx.i1234, align 8, !tbaa !62
  %arrayidx.i1235 = getelementptr inbounds double, ptr %106, i64 %idxprom187
  store double %107, ptr %arrayidx.i1235, align 8, !tbaa !62
  %arrayidx226 = getelementptr inbounds double, ptr %81, i64 %conv1731291
  %108 = load double, ptr %arrayidx226, align 8, !tbaa !62
  %arrayidx229 = getelementptr inbounds double, ptr %81, i64 %idxprom187
  store double %108, ptr %arrayidx229, align 8, !tbaa !62
  %arrayidx232 = getelementptr inbounds double, ptr %82, i64 %conv1731291
  %109 = load double, ptr %arrayidx232, align 8, !tbaa !62
  %fneg = fneg double %109
  %arrayidx235 = getelementptr inbounds double, ptr %82, i64 %idxprom187
  store double %fneg, ptr %arrayidx235, align 8, !tbaa !62
  %arrayidx238 = getelementptr inbounds double, ptr %83, i64 %conv1731291
  %110 = load double, ptr %arrayidx238, align 8, !tbaa !62
  %arrayidx241 = getelementptr inbounds double, ptr %83, i64 %idxprom187
  store double %110, ptr %arrayidx241, align 8, !tbaa !62
  %inc242 = add i32 %nc169.01289, 1
  %.pre = load i32, ptr %arrayidx178, align 4, !tbaa !55
  %.pre1306 = load i32, ptr %arrayidx180, align 4, !tbaa !55
  %.pre1310 = sext i32 %.pre1306 to i64
  br label %if.end243

if.end243:                                        ; preds = %if.then184, %for.body176
  %conv248.pre-phi = phi i64 [ %.pre1310, %if.then184 ], [ %conv181, %for.body176 ]
  %111 = phi i32 [ %.pre, %if.then184 ], [ %92, %for.body176 ]
  %nc169.1 = phi i32 [ %inc242, %if.then184 ], [ %nc169.01289, %for.body176 ]
  %arrayidx.i1236 = getelementptr inbounds i32, ptr %84, i64 %conv248.pre-phi
  %112 = load i32, ptr %arrayidx.i1236, align 4, !tbaa !55
  %cmp250 = icmp eq i32 %111, %112
  br i1 %cmp250, label %if.then251, label %if.end312

if.then251:                                       ; preds = %if.end243
  %arrayidx253 = getelementptr inbounds i32, ptr %32, i64 %conv1731291
  store i32 %nc169.1, ptr %arrayidx253, align 4, !tbaa !55
  %idxprom254 = zext i32 %nc169.1 to i64
  %arrayidx255 = getelementptr inbounds i32, ptr %32, i64 %idxprom254
  store i32 %nc169.1, ptr %arrayidx255, align 4, !tbaa !55
  %arrayidx257 = getelementptr inbounds i32, ptr %30, i64 %idxprom254
  store i32 %indvars1296, ptr %arrayidx257, align 4, !tbaa !55
  %113 = load i32, ptr %arrayidx180, align 4, !tbaa !55
  %conv260 = sext i32 %113 to i64
  %arrayidx.i1237 = getelementptr inbounds i32, ptr %84, i64 %conv260
  %114 = load i32, ptr %arrayidx.i1237, align 4, !tbaa !55
  %add262 = add nsw i32 %114, 1
  %arrayidx264 = getelementptr inbounds i32, ptr %27, i64 %idxprom254
  store i32 %add262, ptr %arrayidx264, align 4, !tbaa !55
  %arrayidx266 = getelementptr inbounds i32, ptr %28, i64 %conv1731291
  %115 = load i32, ptr %arrayidx266, align 4, !tbaa !55
  %arrayidx268 = getelementptr inbounds i32, ptr %28, i64 %idxprom254
  store i32 %115, ptr %arrayidx268, align 4, !tbaa !55
  %116 = load i32, ptr %arrayidx180, align 4, !tbaa !55
  %arrayidx272 = getelementptr inbounds i32, ptr %29, i64 %idxprom254
  store i32 %116, ptr %arrayidx272, align 4, !tbaa !55
  %117 = load ptr, ptr %dx8, align 8, !tbaa !54
  %arrayidx.i1238 = getelementptr inbounds double, ptr %117, i64 %conv1731291
  %118 = load double, ptr %arrayidx.i1238, align 8, !tbaa !62
  %arrayidx.i1239 = getelementptr inbounds double, ptr %117, i64 %idxprom254
  store double %118, ptr %arrayidx.i1239, align 8, !tbaa !62
  %119 = load ptr, ptr %dy12, align 8, !tbaa !54
  %arrayidx.i1240 = getelementptr inbounds double, ptr %119, i64 %conv1731291
  %120 = load double, ptr %arrayidx.i1240, align 8, !tbaa !62
  %arrayidx.i1241 = getelementptr inbounds double, ptr %119, i64 %idxprom254
  store double %120, ptr %arrayidx.i1241, align 8, !tbaa !62
  %121 = load ptr, ptr %x6, align 8, !tbaa !54
  %arrayidx.i1242 = getelementptr inbounds double, ptr %121, i64 %conv1731291
  %122 = load double, ptr %arrayidx.i1242, align 8, !tbaa !62
  %123 = load double, ptr %arrayidx.i1238, align 8, !tbaa !62
  %add285 = fadd double %122, %123
  %arrayidx.i1244 = getelementptr inbounds double, ptr %121, i64 %idxprom254
  store double %add285, ptr %arrayidx.i1244, align 8, !tbaa !62
  %124 = load ptr, ptr %y10, align 8, !tbaa !54
  %arrayidx.i1245 = getelementptr inbounds double, ptr %124, i64 %conv1731291
  %125 = load double, ptr %arrayidx.i1245, align 8, !tbaa !62
  %arrayidx.i1246 = getelementptr inbounds double, ptr %124, i64 %idxprom254
  store double %125, ptr %arrayidx.i1246, align 8, !tbaa !62
  %arrayidx294 = getelementptr inbounds double, ptr %81, i64 %conv1731291
  %126 = load double, ptr %arrayidx294, align 8, !tbaa !62
  %arrayidx297 = getelementptr inbounds double, ptr %81, i64 %idxprom254
  store double %126, ptr %arrayidx297, align 8, !tbaa !62
  %arrayidx300 = getelementptr inbounds double, ptr %82, i64 %conv1731291
  %127 = load double, ptr %arrayidx300, align 8, !tbaa !62
  %fneg301 = fneg double %127
  %arrayidx304 = getelementptr inbounds double, ptr %82, i64 %idxprom254
  store double %fneg301, ptr %arrayidx304, align 8, !tbaa !62
  %arrayidx307 = getelementptr inbounds double, ptr %83, i64 %conv1731291
  %128 = load double, ptr %arrayidx307, align 8, !tbaa !62
  %arrayidx310 = getelementptr inbounds double, ptr %83, i64 %idxprom254
  store double %128, ptr %arrayidx310, align 8, !tbaa !62
  %inc311 = add i32 %nc169.1, 1
  %.pre1307 = load i32, ptr %arrayidx180, align 4, !tbaa !55
  %.pre1311 = sext i32 %.pre1307 to i64
  br label %if.end312

if.end312:                                        ; preds = %if.then251, %if.end243
  %conv317.pre-phi = phi i64 [ %.pre1311, %if.then251 ], [ %conv248.pre-phi, %if.end243 ]
  %nc169.2 = phi i32 [ %inc311, %if.then251 ], [ %nc169.1, %if.end243 ]
  %arrayidx314 = getelementptr inbounds i32, ptr %28, i64 %conv1731291
  %129 = load i32, ptr %arrayidx314, align 4, !tbaa !55
  %arrayidx.i1247 = getelementptr inbounds i32, ptr %85, i64 %conv317.pre-phi
  %130 = load i32, ptr %arrayidx.i1247, align 4, !tbaa !55
  %cmp319 = icmp eq i32 %129, %130
  br i1 %cmp319, label %if.then320, label %if.end381

if.then320:                                       ; preds = %if.end312
  %arrayidx322 = getelementptr inbounds i32, ptr %34, i64 %conv1731291
  store i32 %nc169.2, ptr %arrayidx322, align 4, !tbaa !55
  %idxprom323 = zext i32 %nc169.2 to i64
  %arrayidx324 = getelementptr inbounds i32, ptr %34, i64 %idxprom323
  store i32 %nc169.2, ptr %arrayidx324, align 4, !tbaa !55
  %arrayidx326 = getelementptr inbounds i32, ptr %call129, i64 %idxprom323
  store i32 %indvars1296, ptr %arrayidx326, align 4, !tbaa !55
  %131 = load i32, ptr %arrayidx178, align 4, !tbaa !55
  %arrayidx330 = getelementptr inbounds i32, ptr %27, i64 %idxprom323
  store i32 %131, ptr %arrayidx330, align 4, !tbaa !55
  %132 = load i32, ptr %arrayidx180, align 4, !tbaa !55
  %conv333 = sext i32 %132 to i64
  %arrayidx.i1248 = getelementptr inbounds i32, ptr %85, i64 %conv333
  %133 = load i32, ptr %arrayidx.i1248, align 4, !tbaa !55
  %sub335 = add nsw i32 %133, -1
  %arrayidx337 = getelementptr inbounds i32, ptr %28, i64 %idxprom323
  store i32 %sub335, ptr %arrayidx337, align 4, !tbaa !55
  %134 = load i32, ptr %arrayidx180, align 4, !tbaa !55
  %arrayidx341 = getelementptr inbounds i32, ptr %29, i64 %idxprom323
  store i32 %134, ptr %arrayidx341, align 4, !tbaa !55
  %135 = load ptr, ptr %dx8, align 8, !tbaa !54
  %arrayidx.i1249 = getelementptr inbounds double, ptr %135, i64 %conv1731291
  %136 = load double, ptr %arrayidx.i1249, align 8, !tbaa !62
  %arrayidx.i1250 = getelementptr inbounds double, ptr %135, i64 %idxprom323
  store double %136, ptr %arrayidx.i1250, align 8, !tbaa !62
  %137 = load ptr, ptr %dy12, align 8, !tbaa !54
  %arrayidx.i1251 = getelementptr inbounds double, ptr %137, i64 %conv1731291
  %138 = load double, ptr %arrayidx.i1251, align 8, !tbaa !62
  %arrayidx.i1252 = getelementptr inbounds double, ptr %137, i64 %idxprom323
  store double %138, ptr %arrayidx.i1252, align 8, !tbaa !62
  %139 = load ptr, ptr %x6, align 8, !tbaa !54
  %arrayidx.i1253 = getelementptr inbounds double, ptr %139, i64 %conv1731291
  %140 = load double, ptr %arrayidx.i1253, align 8, !tbaa !62
  %arrayidx.i1254 = getelementptr inbounds double, ptr %139, i64 %idxprom323
  store double %140, ptr %arrayidx.i1254, align 8, !tbaa !62
  %141 = load ptr, ptr %y10, align 8, !tbaa !54
  %arrayidx.i1255 = getelementptr inbounds double, ptr %141, i64 %conv1731291
  %142 = load double, ptr %arrayidx.i1255, align 8, !tbaa !62
  %143 = load double, ptr %arrayidx.i1251, align 8, !tbaa !62
  %sub358 = fsub double %142, %143
  %arrayidx.i1257 = getelementptr inbounds double, ptr %141, i64 %idxprom323
  store double %sub358, ptr %arrayidx.i1257, align 8, !tbaa !62
  %arrayidx363 = getelementptr inbounds double, ptr %81, i64 %conv1731291
  %144 = load double, ptr %arrayidx363, align 8, !tbaa !62
  %arrayidx366 = getelementptr inbounds double, ptr %81, i64 %idxprom323
  store double %144, ptr %arrayidx366, align 8, !tbaa !62
  %arrayidx369 = getelementptr inbounds double, ptr %82, i64 %conv1731291
  %145 = load double, ptr %arrayidx369, align 8, !tbaa !62
  %arrayidx372 = getelementptr inbounds double, ptr %82, i64 %idxprom323
  store double %145, ptr %arrayidx372, align 8, !tbaa !62
  %arrayidx375 = getelementptr inbounds double, ptr %83, i64 %conv1731291
  %146 = load double, ptr %arrayidx375, align 8, !tbaa !62
  %fneg376 = fneg double %146
  %arrayidx379 = getelementptr inbounds double, ptr %83, i64 %idxprom323
  store double %fneg376, ptr %arrayidx379, align 8, !tbaa !62
  %inc380 = add i32 %nc169.2, 1
  %.pre1308 = load i32, ptr %arrayidx314, align 4, !tbaa !55
  %.pre1309 = load i32, ptr %arrayidx180, align 4, !tbaa !55
  %.pre1312 = sext i32 %.pre1309 to i64
  br label %if.end381

if.end381:                                        ; preds = %if.then320, %if.end312
  %conv386.pre-phi = phi i64 [ %.pre1312, %if.then320 ], [ %conv317.pre-phi, %if.end312 ]
  %147 = phi i32 [ %.pre1308, %if.then320 ], [ %129, %if.end312 ]
  %nc169.3 = phi i32 [ %inc380, %if.then320 ], [ %nc169.2, %if.end312 ]
  %arrayidx.i1258 = getelementptr inbounds i32, ptr %86, i64 %conv386.pre-phi
  %148 = load i32, ptr %arrayidx.i1258, align 4, !tbaa !55
  %cmp388 = icmp eq i32 %147, %148
  br i1 %cmp388, label %if.then389, label %for.inc451

if.then389:                                       ; preds = %if.end381
  %arrayidx391 = getelementptr inbounds i32, ptr %call129, i64 %conv1731291
  store i32 %nc169.3, ptr %arrayidx391, align 4, !tbaa !55
  %idxprom392 = zext i32 %nc169.3 to i64
  %arrayidx393 = getelementptr inbounds i32, ptr %call129, i64 %idxprom392
  store i32 %nc169.3, ptr %arrayidx393, align 4, !tbaa !55
  %arrayidx395 = getelementptr inbounds i32, ptr %34, i64 %idxprom392
  store i32 %indvars1296, ptr %arrayidx395, align 4, !tbaa !55
  %149 = load i32, ptr %arrayidx178, align 4, !tbaa !55
  %arrayidx399 = getelementptr inbounds i32, ptr %27, i64 %idxprom392
  store i32 %149, ptr %arrayidx399, align 4, !tbaa !55
  %150 = load i32, ptr %arrayidx180, align 4, !tbaa !55
  %conv402 = sext i32 %150 to i64
  %arrayidx.i1259 = getelementptr inbounds i32, ptr %86, i64 %conv402
  %151 = load i32, ptr %arrayidx.i1259, align 4, !tbaa !55
  %add404 = add nsw i32 %151, 1
  %arrayidx406 = getelementptr inbounds i32, ptr %28, i64 %idxprom392
  store i32 %add404, ptr %arrayidx406, align 4, !tbaa !55
  %152 = load i32, ptr %arrayidx180, align 4, !tbaa !55
  %arrayidx410 = getelementptr inbounds i32, ptr %29, i64 %idxprom392
  store i32 %152, ptr %arrayidx410, align 4, !tbaa !55
  %153 = load ptr, ptr %dx8, align 8, !tbaa !54
  %arrayidx.i1260 = getelementptr inbounds double, ptr %153, i64 %conv1731291
  %154 = load double, ptr %arrayidx.i1260, align 8, !tbaa !62
  %arrayidx.i1261 = getelementptr inbounds double, ptr %153, i64 %idxprom392
  store double %154, ptr %arrayidx.i1261, align 8, !tbaa !62
  %155 = load ptr, ptr %dy12, align 8, !tbaa !54
  %arrayidx.i1262 = getelementptr inbounds double, ptr %155, i64 %conv1731291
  %156 = load double, ptr %arrayidx.i1262, align 8, !tbaa !62
  %arrayidx.i1263 = getelementptr inbounds double, ptr %155, i64 %idxprom392
  store double %156, ptr %arrayidx.i1263, align 8, !tbaa !62
  %157 = load ptr, ptr %x6, align 8, !tbaa !54
  %arrayidx.i1264 = getelementptr inbounds double, ptr %157, i64 %conv1731291
  %158 = load double, ptr %arrayidx.i1264, align 8, !tbaa !62
  %arrayidx.i1265 = getelementptr inbounds double, ptr %157, i64 %idxprom392
  store double %158, ptr %arrayidx.i1265, align 8, !tbaa !62
  %159 = load ptr, ptr %y10, align 8, !tbaa !54
  %arrayidx.i1266 = getelementptr inbounds double, ptr %159, i64 %conv1731291
  %160 = load double, ptr %arrayidx.i1266, align 8, !tbaa !62
  %161 = load double, ptr %arrayidx.i1262, align 8, !tbaa !62
  %add427 = fadd double %160, %161
  %arrayidx.i1268 = getelementptr inbounds double, ptr %159, i64 %idxprom392
  store double %add427, ptr %arrayidx.i1268, align 8, !tbaa !62
  %arrayidx432 = getelementptr inbounds double, ptr %81, i64 %conv1731291
  %162 = load double, ptr %arrayidx432, align 8, !tbaa !62
  %arrayidx435 = getelementptr inbounds double, ptr %81, i64 %idxprom392
  store double %162, ptr %arrayidx435, align 8, !tbaa !62
  %arrayidx438 = getelementptr inbounds double, ptr %82, i64 %conv1731291
  %163 = load double, ptr %arrayidx438, align 8, !tbaa !62
  %arrayidx441 = getelementptr inbounds double, ptr %82, i64 %idxprom392
  store double %163, ptr %arrayidx441, align 8, !tbaa !62
  %arrayidx444 = getelementptr inbounds double, ptr %83, i64 %conv1731291
  %164 = load double, ptr %arrayidx444, align 8, !tbaa !62
  %fneg445 = fneg double %164
  %arrayidx448 = getelementptr inbounds double, ptr %83, i64 %idxprom392
  store double %fneg445, ptr %arrayidx448, align 8, !tbaa !62
  %inc449 = add i32 %nc169.3, 1
  br label %for.inc451

for.inc451:                                       ; preds = %if.end381, %if.then389
  %nc169.4 = phi i32 [ %inc449, %if.then389 ], [ %nc169.3, %if.end381 ]
  %inc452 = add nuw nsw i64 %conv1731291, 1
  %conv173 = and i64 %inc452, 4294967295
  %cmp174 = icmp ugt i64 %46, %conv173
  br i1 %cmp174, label %for.body176, label %for.cond456.preheader, !llvm.loop !63

for.cond.cleanup458:                              ; preds = %for.inc723, %for.cond456.preheader
  store i32 %conv153, ptr @save_ncells, align 4, !tbaa !55
  store i64 %conv74, ptr %ncells2, align 8, !tbaa !50
  %agg.tmp.sroa.0.0.copyload = load i64, ptr %tstart_cpu, align 8, !tbaa.struct !64
  %agg.tmp.sroa.2.0.tstart_cpu.sroa_idx = getelementptr inbounds i8, ptr %tstart_cpu, i64 8
  %agg.tmp.sroa.2.0.copyload = load i64, ptr %agg.tmp.sroa.2.0.tstart_cpu.sroa_idx, align 8, !tbaa.struct !65
  %call728 = call double @cpu_timer_stop(i64 %agg.tmp.sroa.0.0.copyload, i64 %agg.tmp.sroa.2.0.copyload)
  %cpu_timers = getelementptr inbounds %class.State, ptr %this, i64 0, i32 6
  %165 = load double, ptr %cpu_timers, align 8, !tbaa !62
  %add730 = fadd double %call728, %165
  store double %add730, ptr %cpu_timers, align 8, !tbaa !62
  call void @llvm.lifetime.end.p0(i64 16, ptr nonnull %tstart_cpu) #28
  ret void

for.body459:                                      ; preds = %for.body459.lr.ph, %for.inc723
  %indvars.iv1297 = phi i64 [ %91, %for.body459.lr.ph ], [ %indvars.iv.next1298, %for.inc723 ]
  %arrayidx461 = getelementptr inbounds i32, ptr %27, i64 %indvars.iv1297
  %166 = load i32, ptr %arrayidx461, align 4, !tbaa !55
  %arrayidx463 = getelementptr inbounds i32, ptr %29, i64 %indvars.iv1297
  %167 = load i32, ptr %arrayidx463, align 4, !tbaa !55
  %conv464 = sext i32 %167 to i64
  %arrayidx.i1269 = getelementptr inbounds i32, ptr %87, i64 %conv464
  %168 = load i32, ptr %arrayidx.i1269, align 4, !tbaa !55
  %sub466 = add nsw i32 %168, -1
  %cmp467 = icmp eq i32 %166, %sub466
  br i1 %cmp467, label %if.then468, label %if.end508

if.then468:                                       ; preds = %for.body459
  %arrayidx470 = getelementptr inbounds i32, ptr %28, i64 %indvars.iv1297
  %169 = load i32, ptr %arrayidx470, align 4, !tbaa !55
  %170 = load ptr, ptr %lev_jbegin34, align 8, !tbaa !51
  %arrayidx.i1270 = getelementptr inbounds i32, ptr %170, i64 %conv464
  %171 = load i32, ptr %arrayidx.i1270, align 4, !tbaa !55
  %cmp475 = icmp eq i32 %169, %171
  br i1 %cmp475, label %if.then476, label %if.else

if.then476:                                       ; preds = %if.then468
  %172 = trunc i64 %indvars.iv1297 to i32
  br label %if.end487

if.else:                                          ; preds = %if.then468
  %arrayidx480 = getelementptr inbounds i32, ptr %32, i64 %indvars.iv1297
  %173 = load i32, ptr %arrayidx480, align 4, !tbaa !55
  %idxprom481 = sext i32 %173 to i64
  %arrayidx482 = getelementptr inbounds i32, ptr %34, i64 %idxprom481
  %174 = load i32, ptr %arrayidx482, align 4, !tbaa !55
  %idxprom483 = sext i32 %174 to i64
  %arrayidx484 = getelementptr inbounds i32, ptr %30, i64 %idxprom483
  %175 = load i32, ptr %arrayidx484, align 4, !tbaa !55
  br label %if.end487

if.end487:                                        ; preds = %if.else, %if.then476
  %.sink = phi i32 [ %172, %if.then476 ], [ %175, %if.else ]
  %176 = getelementptr inbounds i32, ptr %34, i64 %indvars.iv1297
  store i32 %.sink, ptr %176, align 4
  %177 = load i32, ptr %arrayidx470, align 4, !tbaa !55
  %178 = load i32, ptr %arrayidx463, align 4, !tbaa !55
  %conv492 = sext i32 %178 to i64
  %179 = load ptr, ptr %lev_jend36, align 8, !tbaa !51
  %arrayidx.i1271 = getelementptr inbounds i32, ptr %179, i64 %conv492
  %180 = load i32, ptr %arrayidx.i1271, align 4, !tbaa !55
  %cmp494 = icmp eq i32 %177, %180
  br i1 %cmp494, label %if.then495, label %if.else498

if.then495:                                       ; preds = %if.end487
  %arrayidx497 = getelementptr inbounds i32, ptr %call129, i64 %indvars.iv1297
  %181 = trunc i64 %indvars.iv1297 to i32
  store i32 %181, ptr %arrayidx497, align 4, !tbaa !55
  br label %if.end508

if.else498:                                       ; preds = %if.end487
  %arrayidx500 = getelementptr inbounds i32, ptr %32, i64 %indvars.iv1297
  %182 = load i32, ptr %arrayidx500, align 4, !tbaa !55
  %idxprom501 = sext i32 %182 to i64
  %arrayidx502 = getelementptr inbounds i32, ptr %call129, i64 %idxprom501
  %183 = load i32, ptr %arrayidx502, align 4, !tbaa !55
  %idxprom503 = sext i32 %183 to i64
  %arrayidx504 = getelementptr inbounds i32, ptr %30, i64 %idxprom503
  %184 = load i32, ptr %arrayidx504, align 4, !tbaa !55
  %arrayidx506 = getelementptr inbounds i32, ptr %call129, i64 %indvars.iv1297
  store i32 %184, ptr %arrayidx506, align 4, !tbaa !55
  br label %if.end508

if.end508:                                        ; preds = %if.then495, %if.else498, %for.body459
  %185 = load i32, ptr %arrayidx461, align 4, !tbaa !55
  %186 = load i32, ptr %arrayidx463, align 4, !tbaa !55
  %conv513 = sext i32 %186 to i64
  %arrayidx.i1272 = getelementptr inbounds i32, ptr %88, i64 %conv513
  %187 = load i32, ptr %arrayidx.i1272, align 4, !tbaa !55
  %add515 = add nsw i32 %187, 1
  %cmp516 = icmp eq i32 %185, %add515
  br i1 %cmp516, label %if.then517, label %if.end590

if.then517:                                       ; preds = %if.end508
  %arrayidx521 = getelementptr inbounds i32, ptr %30, i64 %indvars.iv1297
  %188 = load i32, ptr %arrayidx521, align 4, !tbaa !55
  %idxprom522 = sext i32 %188 to i64
  %arrayidx523 = getelementptr inbounds i32, ptr %34, i64 %idxprom522
  %189 = load i32, ptr %arrayidx523, align 4, !tbaa !55
  %idxprom524 = sext i32 %189 to i64
  %arrayidx525 = getelementptr inbounds i32, ptr %29, i64 %idxprom524
  %190 = load i32, ptr %arrayidx525, align 4, !tbaa !55
  %cmp526.not = icmp sgt i32 %186, %190
  br i1 %cmp526.not, label %if.else568, label %if.then527

if.then527:                                       ; preds = %if.then517
  %arrayidx529 = getelementptr inbounds i32, ptr %28, i64 %indvars.iv1297
  %191 = load i32, ptr %arrayidx529, align 4, !tbaa !55
  %192 = load ptr, ptr %lev_jbegin34, align 8, !tbaa !51
  %arrayidx.i1273 = getelementptr inbounds i32, ptr %192, i64 %conv513
  %193 = load i32, ptr %arrayidx.i1273, align 4, !tbaa !55
  %cmp534 = icmp eq i32 %191, %193
  br i1 %cmp534, label %if.then535, label %if.else538

if.then535:                                       ; preds = %if.then527
  %194 = trunc i64 %indvars.iv1297 to i32
  br label %if.end547

if.else538:                                       ; preds = %if.then527
  %arrayidx544 = getelementptr inbounds i32, ptr %32, i64 %idxprom524
  %195 = load i32, ptr %arrayidx544, align 4, !tbaa !55
  br label %if.end547

if.end547:                                        ; preds = %if.else538, %if.then535
  %.sink1303 = phi i32 [ %194, %if.then535 ], [ %195, %if.else538 ]
  %196 = getelementptr inbounds i32, ptr %34, i64 %indvars.iv1297
  store i32 %.sink1303, ptr %196, align 4
  %197 = load i32, ptr %arrayidx529, align 4, !tbaa !55
  %198 = load i32, ptr %arrayidx463, align 4, !tbaa !55
  %conv552 = sext i32 %198 to i64
  %199 = load ptr, ptr %lev_jend36, align 8, !tbaa !51
  %arrayidx.i1274 = getelementptr inbounds i32, ptr %199, i64 %conv552
  %200 = load i32, ptr %arrayidx.i1274, align 4, !tbaa !55
  %cmp554 = icmp eq i32 %197, %200
  br i1 %cmp554, label %if.then555, label %if.else558

if.then555:                                       ; preds = %if.end547
  %arrayidx557 = getelementptr inbounds i32, ptr %call129, i64 %indvars.iv1297
  %201 = trunc i64 %indvars.iv1297 to i32
  store i32 %201, ptr %arrayidx557, align 4, !tbaa !55
  br label %if.end590

if.else558:                                       ; preds = %if.end547
  %202 = load i32, ptr %arrayidx521, align 4, !tbaa !55
  %idxprom561 = sext i32 %202 to i64
  %arrayidx562 = getelementptr inbounds i32, ptr %call129, i64 %idxprom561
  %203 = load i32, ptr %arrayidx562, align 4, !tbaa !55
  %idxprom563 = sext i32 %203 to i64
  %arrayidx564 = getelementptr inbounds i32, ptr %32, i64 %idxprom563
  %204 = load i32, ptr %arrayidx564, align 4, !tbaa !55
  %arrayidx566 = getelementptr inbounds i32, ptr %call129, i64 %indvars.iv1297
  store i32 %204, ptr %arrayidx566, align 4, !tbaa !55
  br label %if.end590

if.else568:                                       ; preds = %if.then517
  %arrayidx574 = getelementptr inbounds i32, ptr %32, i64 %idxprom524
  %205 = load i32, ptr %arrayidx574, align 4, !tbaa !55
  %idxprom575 = sext i32 %205 to i64
  %arrayidx576 = getelementptr inbounds i32, ptr %32, i64 %idxprom575
  %206 = load i32, ptr %arrayidx576, align 4, !tbaa !55
  %arrayidx578 = getelementptr inbounds i32, ptr %34, i64 %indvars.iv1297
  store i32 %206, ptr %arrayidx578, align 4, !tbaa !55
  %207 = load i32, ptr %arrayidx521, align 4, !tbaa !55
  %idxprom581 = sext i32 %207 to i64
  %arrayidx582 = getelementptr inbounds i32, ptr %call129, i64 %idxprom581
  %208 = load i32, ptr %arrayidx582, align 4, !tbaa !55
  %idxprom583 = sext i32 %208 to i64
  %arrayidx584 = getelementptr inbounds i32, ptr %32, i64 %idxprom583
  %209 = load i32, ptr %arrayidx584, align 4, !tbaa !55
  %idxprom585 = sext i32 %209 to i64
  %arrayidx586 = getelementptr inbounds i32, ptr %32, i64 %idxprom585
  %210 = load i32, ptr %arrayidx586, align 4, !tbaa !55
  %arrayidx588 = getelementptr inbounds i32, ptr %call129, i64 %indvars.iv1297
  store i32 %210, ptr %arrayidx588, align 4, !tbaa !55
  br label %if.end590

if.end590:                                        ; preds = %if.else568, %if.else558, %if.then555, %if.end508
  %arrayidx592 = getelementptr inbounds i32, ptr %28, i64 %indvars.iv1297
  %211 = load i32, ptr %arrayidx592, align 4, !tbaa !55
  %212 = load i32, ptr %arrayidx463, align 4, !tbaa !55
  %conv595 = sext i32 %212 to i64
  %arrayidx.i1275 = getelementptr inbounds i32, ptr %89, i64 %conv595
  %213 = load i32, ptr %arrayidx.i1275, align 4, !tbaa !55
  %sub597 = add nsw i32 %213, -1
  %cmp598 = icmp eq i32 %211, %sub597
  br i1 %cmp598, label %if.then599, label %if.end640

if.then599:                                       ; preds = %if.end590
  %214 = load i32, ptr %arrayidx461, align 4, !tbaa !55
  %arrayidx.i1276 = getelementptr inbounds i32, ptr %87, i64 %conv595
  %215 = load i32, ptr %arrayidx.i1276, align 4, !tbaa !55
  %cmp606 = icmp eq i32 %214, %215
  br i1 %cmp606, label %if.then607, label %if.else610

if.then607:                                       ; preds = %if.then599
  %216 = trunc i64 %indvars.iv1297 to i32
  br label %if.end619

if.else610:                                       ; preds = %if.then599
  %arrayidx612 = getelementptr inbounds i32, ptr %call129, i64 %indvars.iv1297
  %217 = load i32, ptr %arrayidx612, align 4, !tbaa !55
  %idxprom613 = sext i32 %217 to i64
  %arrayidx614 = getelementptr inbounds i32, ptr %30, i64 %idxprom613
  %218 = load i32, ptr %arrayidx614, align 4, !tbaa !55
  %idxprom615 = sext i32 %218 to i64
  %arrayidx616 = getelementptr inbounds i32, ptr %34, i64 %idxprom615
  %219 = load i32, ptr %arrayidx616, align 4, !tbaa !55
  br label %if.end619

if.end619:                                        ; preds = %if.else610, %if.then607
  %.sink1304 = phi i32 [ %216, %if.then607 ], [ %219, %if.else610 ]
  %220 = getelementptr inbounds i32, ptr %30, i64 %indvars.iv1297
  store i32 %.sink1304, ptr %220, align 4
  %221 = load i32, ptr %arrayidx461, align 4, !tbaa !55
  %222 = load i32, ptr %arrayidx463, align 4, !tbaa !55
  %conv624 = sext i32 %222 to i64
  %arrayidx.i1277 = getelementptr inbounds i32, ptr %88, i64 %conv624
  %223 = load i32, ptr %arrayidx.i1277, align 4, !tbaa !55
  %cmp626 = icmp eq i32 %221, %223
  br i1 %cmp626, label %if.then627, label %if.else630

if.then627:                                       ; preds = %if.end619
  %arrayidx629 = getelementptr inbounds i32, ptr %32, i64 %indvars.iv1297
  %224 = trunc i64 %indvars.iv1297 to i32
  store i32 %224, ptr %arrayidx629, align 4, !tbaa !55
  br label %if.end640

if.else630:                                       ; preds = %if.end619
  %arrayidx632 = getelementptr inbounds i32, ptr %call129, i64 %indvars.iv1297
  %225 = load i32, ptr %arrayidx632, align 4, !tbaa !55
  %idxprom633 = sext i32 %225 to i64
  %arrayidx634 = getelementptr inbounds i32, ptr %32, i64 %idxprom633
  %226 = load i32, ptr %arrayidx634, align 4, !tbaa !55
  %idxprom635 = sext i32 %226 to i64
  %arrayidx636 = getelementptr inbounds i32, ptr %34, i64 %idxprom635
  %227 = load i32, ptr %arrayidx636, align 4, !tbaa !55
  %arrayidx638 = getelementptr inbounds i32, ptr %32, i64 %indvars.iv1297
  store i32 %227, ptr %arrayidx638, align 4, !tbaa !55
  br label %if.end640

if.end640:                                        ; preds = %if.then627, %if.else630, %if.end590
  %228 = load i32, ptr %arrayidx592, align 4, !tbaa !55
  %229 = load i32, ptr %arrayidx463, align 4, !tbaa !55
  %conv645 = sext i32 %229 to i64
  %arrayidx.i1278 = getelementptr inbounds i32, ptr %90, i64 %conv645
  %230 = load i32, ptr %arrayidx.i1278, align 4, !tbaa !55
  %add647 = add nsw i32 %230, 1
  %cmp648 = icmp eq i32 %228, %add647
  br i1 %cmp648, label %if.then649, label %for.inc723

if.then649:                                       ; preds = %if.end640
  %arrayidx653 = getelementptr inbounds i32, ptr %34, i64 %indvars.iv1297
  %231 = load i32, ptr %arrayidx653, align 4, !tbaa !55
  %idxprom654 = sext i32 %231 to i64
  %arrayidx655 = getelementptr inbounds i32, ptr %30, i64 %idxprom654
  %232 = load i32, ptr %arrayidx655, align 4, !tbaa !55
  %idxprom656 = sext i32 %232 to i64
  %arrayidx657 = getelementptr inbounds i32, ptr %29, i64 %idxprom656
  %233 = load i32, ptr %arrayidx657, align 4, !tbaa !55
  %cmp658.not = icmp sgt i32 %229, %233
  br i1 %cmp658.not, label %if.else700, label %if.then659

if.then659:                                       ; preds = %if.then649
  %234 = load i32, ptr %arrayidx461, align 4, !tbaa !55
  %arrayidx.i1279 = getelementptr inbounds i32, ptr %87, i64 %conv645
  %235 = load i32, ptr %arrayidx.i1279, align 4, !tbaa !55
  %cmp666 = icmp eq i32 %234, %235
  br i1 %cmp666, label %if.then667, label %if.else670

if.then667:                                       ; preds = %if.then659
  %236 = trunc i64 %indvars.iv1297 to i32
  br label %if.end679

if.else670:                                       ; preds = %if.then659
  %arrayidx676 = getelementptr inbounds i32, ptr %call129, i64 %idxprom656
  %237 = load i32, ptr %arrayidx676, align 4, !tbaa !55
  br label %if.end679

if.end679:                                        ; preds = %if.else670, %if.then667
  %.sink1305 = phi i32 [ %236, %if.then667 ], [ %237, %if.else670 ]
  %238 = getelementptr inbounds i32, ptr %30, i64 %indvars.iv1297
  store i32 %.sink1305, ptr %238, align 4
  %239 = load i32, ptr %arrayidx461, align 4, !tbaa !55
  %240 = load i32, ptr %arrayidx463, align 4, !tbaa !55
  %conv684 = sext i32 %240 to i64
  %arrayidx.i1280 = getelementptr inbounds i32, ptr %88, i64 %conv684
  %241 = load i32, ptr %arrayidx.i1280, align 4, !tbaa !55
  %cmp686 = icmp eq i32 %239, %241
  br i1 %cmp686, label %if.then687, label %if.else690

if.then687:                                       ; preds = %if.end679
  %arrayidx689 = getelementptr inbounds i32, ptr %32, i64 %indvars.iv1297
  %242 = trunc i64 %indvars.iv1297 to i32
  store i32 %242, ptr %arrayidx689, align 4, !tbaa !55
  br label %for.inc723

if.else690:                                       ; preds = %if.end679
  %243 = load i32, ptr %arrayidx653, align 4, !tbaa !55
  %idxprom693 = sext i32 %243 to i64
  %arrayidx694 = getelementptr inbounds i32, ptr %32, i64 %idxprom693
  %244 = load i32, ptr %arrayidx694, align 4, !tbaa !55
  %idxprom695 = sext i32 %244 to i64
  %arrayidx696 = getelementptr inbounds i32, ptr %call129, i64 %idxprom695
  %245 = load i32, ptr %arrayidx696, align 4, !tbaa !55
  %arrayidx698 = getelementptr inbounds i32, ptr %32, i64 %indvars.iv1297
  store i32 %245, ptr %arrayidx698, align 4, !tbaa !55
  br label %for.inc723

if.else700:                                       ; preds = %if.then649
  %arrayidx706 = getelementptr inbounds i32, ptr %call129, i64 %idxprom656
  %246 = load i32, ptr %arrayidx706, align 4, !tbaa !55
  %idxprom707 = sext i32 %246 to i64
  %arrayidx708 = getelementptr inbounds i32, ptr %call129, i64 %idxprom707
  %247 = load i32, ptr %arrayidx708, align 4, !tbaa !55
  %arrayidx710 = getelementptr inbounds i32, ptr %30, i64 %indvars.iv1297
  store i32 %247, ptr %arrayidx710, align 4, !tbaa !55
  %248 = load i32, ptr %arrayidx653, align 4, !tbaa !55
  %idxprom713 = sext i32 %248 to i64
  %arrayidx714 = getelementptr inbounds i32, ptr %32, i64 %idxprom713
  %249 = load i32, ptr %arrayidx714, align 4, !tbaa !55
  %idxprom715 = sext i32 %249 to i64
  %arrayidx716 = getelementptr inbounds i32, ptr %call129, i64 %idxprom715
  %250 = load i32, ptr %arrayidx716, align 4, !tbaa !55
  %idxprom717 = sext i32 %250 to i64
  %arrayidx718 = getelementptr inbounds i32, ptr %call129, i64 %idxprom717
  %251 = load i32, ptr %arrayidx718, align 4, !tbaa !55
  %arrayidx720 = getelementptr inbounds i32, ptr %32, i64 %indvars.iv1297
  store i32 %251, ptr %arrayidx720, align 4, !tbaa !55
  br label %for.inc723

for.inc723:                                       ; preds = %if.end640, %if.then687, %if.else690, %if.else700
  %indvars.iv.next1298 = add nsw i64 %indvars.iv1297, 1
  %exitcond1302.not = icmp eq i64 %indvars.iv.next1298, %conv74
  br i1 %exitcond1302.not, label %for.cond.cleanup458, label %for.body459, !llvm.loop !66
}

declare void @cpu_timer_start(ptr noundef) local_unnamed_addr #3

declare noundef ptr @_ZN10MallocPlus14memory_reallocEmPv(ptr noundef nonnull align 8 dereferenceable(48), i64 noundef, ptr noundef) local_unnamed_addr #3

declare double @cpu_timer_stop(i64, i64) local_unnamed_addr #3

; Function Attrs: mustprogress nocallback nofree nounwind willreturn memory(argmem: readwrite)
declare void @llvm.memcpy.p0.p0.i64(ptr noalias nocapture writeonly, ptr noalias nocapture readonly, i64, i1 immarg) #4

; Function Attrs: mustprogress uwtable
define dso_local void @_ZN5State31apply_boundary_conditions_localEv(ptr nocapture noundef nonnull readonly align 8 dereferenceable(272) %this) local_unnamed_addr #2 align 2 {
entry:
  %lowerBound = alloca i32, align 4
  %upperBound = alloca i32, align 4
  %mesh = getelementptr inbounds %class.State, ptr %this, i64 0, i32 2
  %0 = load ptr, ptr %mesh, align 8, !tbaa !9
  %ncells2 = getelementptr inbounds %class.Mesh, ptr %0, i64 0, i32 45
  %nlft = getelementptr inbounds %class.Mesh, ptr %0, i64 0, i32 69
  %1 = load ptr, ptr %nlft, align 8, !tbaa !46
  store ptr %1, ptr @_ZZN5State31apply_boundary_conditions_localEvE4nlft, align 8, !tbaa !5
  %nrht = getelementptr inbounds %class.Mesh, ptr %0, i64 0, i32 70
  %2 = load ptr, ptr %nrht, align 8, !tbaa !47
  store ptr %2, ptr @_ZZN5State31apply_boundary_conditions_localEvE4nrht, align 8, !tbaa !5
  %nbot = getelementptr inbounds %class.Mesh, ptr %0, i64 0, i32 71
  %3 = load ptr, ptr %nbot, align 8, !tbaa !48
  store ptr %3, ptr @_ZZN5State31apply_boundary_conditions_localEvE4nbot, align 8, !tbaa !5
  %ntop = getelementptr inbounds %class.Mesh, ptr %0, i64 0, i32 72
  %4 = load ptr, ptr %ntop, align 8, !tbaa !49
  store ptr %4, ptr @_ZZN5State31apply_boundary_conditions_localEvE4ntop, align 8, !tbaa !5
  call void @llvm.lifetime.start.p0(i64 4, ptr nonnull %lowerBound) #28
  call void @llvm.lifetime.start.p0(i64 4, ptr nonnull %upperBound) #28
  call void @_ZN4Mesh10get_boundsERiS0_(ptr noundef nonnull align 8 dereferenceable(2192) %0, ptr noundef nonnull align 4 dereferenceable(4) %lowerBound, ptr noundef nonnull align 4 dereferenceable(4) %upperBound)
  %5 = load i32, ptr %lowerBound, align 4, !tbaa !55
  %6 = load i32, ptr %upperBound, align 4, !tbaa !55
  %cmp182 = icmp ult i32 %5, %6
  br i1 %cmp182, label %for.body.lr.ph, label %for.cond.cleanup

for.body.lr.ph:                                   ; preds = %entry
  %7 = load ptr, ptr %mesh, align 8, !tbaa !9
  %i.i = getelementptr inbounds %class.Mesh, ptr %7, i64 0, i32 64
  %8 = load ptr, ptr %i.i, align 8, !tbaa !42
  %lev_ibegin.i = getelementptr inbounds %class.Mesh, ptr %7, i64 0, i32 26
  %level.i = getelementptr inbounds %class.Mesh, ptr %7, i64 0, i32 67
  %9 = load ptr, ptr %level.i, align 8, !tbaa !44
  %10 = load ptr, ptr %lev_ibegin.i, align 8, !tbaa !51
  %11 = load ptr, ptr @_ZZN5State31apply_boundary_conditions_localEvE4nrht, align 8
  %H = getelementptr inbounds %class.State, ptr %this, i64 0, i32 3
  %12 = load ptr, ptr %H, align 8
  %U = getelementptr inbounds %class.State, ptr %this, i64 0, i32 4
  %13 = load ptr, ptr %U, align 8
  %V = getelementptr inbounds %class.State, ptr %this, i64 0, i32 5
  %14 = load ptr, ptr %V, align 8
  %lev_iend.i = getelementptr inbounds %class.Mesh, ptr %7, i64 0, i32 27
  %15 = load ptr, ptr %lev_iend.i, align 8, !tbaa !51
  %16 = load ptr, ptr @_ZZN5State31apply_boundary_conditions_localEvE4nlft, align 8
  %j.i = getelementptr inbounds %class.Mesh, ptr %7, i64 0, i32 65
  %17 = load ptr, ptr %j.i, align 8, !tbaa !43
  %lev_jbegin.i = getelementptr inbounds %class.Mesh, ptr %7, i64 0, i32 28
  %18 = load ptr, ptr %lev_jbegin.i, align 8, !tbaa !51
  %19 = load ptr, ptr @_ZZN5State31apply_boundary_conditions_localEvE4ntop, align 8
  %lev_jend.i = getelementptr inbounds %class.Mesh, ptr %7, i64 0, i32 29
  %20 = load ptr, ptr %lev_jend.i, align 8, !tbaa !51
  %21 = load ptr, ptr @_ZZN5State31apply_boundary_conditions_localEvE4nbot, align 8
  br label %for.body

for.cond.cleanup:                                 ; preds = %for.inc, %entry
  call void @llvm.lifetime.end.p0(i64 4, ptr nonnull %upperBound) #28
  call void @llvm.lifetime.end.p0(i64 4, ptr nonnull %lowerBound) #28
  ret void

for.body:                                         ; preds = %for.body.lr.ph, %for.inc
  %ic.0183 = phi i32 [ %5, %for.body.lr.ph ], [ %inc, %for.inc ]
  %idxprom.i = sext i32 %ic.0183 to i64
  %arrayidx.i = getelementptr inbounds i32, ptr %8, i64 %idxprom.i
  %22 = load i32, ptr %arrayidx.i, align 4, !tbaa !55
  %arrayidx3.i = getelementptr inbounds i32, ptr %9, i64 %idxprom.i
  %23 = load i32, ptr %arrayidx3.i, align 4, !tbaa !55
  %conv.i = sext i32 %23 to i64
  %arrayidx.i.i = getelementptr inbounds i32, ptr %10, i64 %conv.i
  %24 = load i32, ptr %arrayidx.i.i, align 4, !tbaa !55
  %cmp.i.not = icmp slt i32 %22, %24
  br i1 %cmp.i.not, label %if.then, label %if.end26

if.then:                                          ; preds = %for.body
  %idxprom = zext i32 %ic.0183 to i64
  %arrayidx = getelementptr inbounds i32, ptr %11, i64 %idxprom
  %25 = load i32, ptr %arrayidx, align 4, !tbaa !55
  %26 = load i64, ptr %ncells2, align 8, !tbaa !50
  %conv = trunc i64 %26 to i32
  %cmp9 = icmp slt i32 %25, %conv
  br i1 %cmp9, label %if.then10, label %if.end26

if.then10:                                        ; preds = %if.then
  %idxprom11 = sext i32 %25 to i64
  %arrayidx12 = getelementptr inbounds double, ptr %12, i64 %idxprom11
  %27 = load double, ptr %arrayidx12, align 8, !tbaa !62
  %arrayidx15 = getelementptr inbounds double, ptr %12, i64 %idxprom
  store double %27, ptr %arrayidx15, align 8, !tbaa !62
  %arrayidx17 = getelementptr inbounds double, ptr %13, i64 %idxprom11
  %28 = load double, ptr %arrayidx17, align 8, !tbaa !62
  %fneg = fneg double %28
  %arrayidx20 = getelementptr inbounds double, ptr %13, i64 %idxprom
  store double %fneg, ptr %arrayidx20, align 8, !tbaa !62
  %arrayidx22 = getelementptr inbounds double, ptr %14, i64 %idxprom11
  %29 = load double, ptr %arrayidx22, align 8, !tbaa !62
  %arrayidx25 = getelementptr inbounds double, ptr %14, i64 %idxprom
  store double %29, ptr %arrayidx25, align 8, !tbaa !62
  br label %if.end26

if.end26:                                         ; preds = %if.then, %if.then10, %for.body
  %arrayidx.i.i162 = getelementptr inbounds i32, ptr %15, i64 %conv.i
  %30 = load i32, ptr %arrayidx.i.i162, align 4, !tbaa !55
  %cmp.i163.not = icmp sgt i32 %22, %30
  br i1 %cmp.i163.not, label %if.then30, label %if.end56

if.then30:                                        ; preds = %if.end26
  %idxprom31 = zext i32 %ic.0183 to i64
  %arrayidx32 = getelementptr inbounds i32, ptr %16, i64 %idxprom31
  %31 = load i32, ptr %arrayidx32, align 4, !tbaa !55
  %32 = load i64, ptr %ncells2, align 8, !tbaa !50
  %conv33 = trunc i64 %32 to i32
  %cmp34 = icmp slt i32 %31, %conv33
  br i1 %cmp34, label %if.then35, label %if.end56

if.then35:                                        ; preds = %if.then30
  %idxprom37 = sext i32 %31 to i64
  %arrayidx38 = getelementptr inbounds double, ptr %12, i64 %idxprom37
  %33 = load double, ptr %arrayidx38, align 8, !tbaa !62
  %arrayidx41 = getelementptr inbounds double, ptr %12, i64 %idxprom31
  store double %33, ptr %arrayidx41, align 8, !tbaa !62
  %arrayidx44 = getelementptr inbounds double, ptr %13, i64 %idxprom37
  %34 = load double, ptr %arrayidx44, align 8, !tbaa !62
  %fneg45 = fneg double %34
  %arrayidx48 = getelementptr inbounds double, ptr %13, i64 %idxprom31
  store double %fneg45, ptr %arrayidx48, align 8, !tbaa !62
  %arrayidx51 = getelementptr inbounds double, ptr %14, i64 %idxprom37
  %35 = load double, ptr %arrayidx51, align 8, !tbaa !62
  %arrayidx54 = getelementptr inbounds double, ptr %14, i64 %idxprom31
  store double %35, ptr %arrayidx54, align 8, !tbaa !62
  br label %if.end56

if.end56:                                         ; preds = %if.then30, %if.then35, %if.end26
  %arrayidx.i166 = getelementptr inbounds i32, ptr %17, i64 %idxprom.i
  %36 = load i32, ptr %arrayidx.i166, align 4, !tbaa !55
  %arrayidx.i.i170 = getelementptr inbounds i32, ptr %18, i64 %conv.i
  %37 = load i32, ptr %arrayidx.i.i170, align 4, !tbaa !55
  %cmp.i171.not = icmp slt i32 %36, %37
  br i1 %cmp.i171.not, label %if.then60, label %if.end86

if.then60:                                        ; preds = %if.end56
  %idxprom61 = zext i32 %ic.0183 to i64
  %arrayidx62 = getelementptr inbounds i32, ptr %19, i64 %idxprom61
  %38 = load i32, ptr %arrayidx62, align 4, !tbaa !55
  %39 = load i64, ptr %ncells2, align 8, !tbaa !50
  %conv63 = trunc i64 %39 to i32
  %cmp64 = icmp slt i32 %38, %conv63
  br i1 %cmp64, label %if.then65, label %if.end86

if.then65:                                        ; preds = %if.then60
  %idxprom67 = sext i32 %38 to i64
  %arrayidx68 = getelementptr inbounds double, ptr %12, i64 %idxprom67
  %40 = load double, ptr %arrayidx68, align 8, !tbaa !62
  %arrayidx71 = getelementptr inbounds double, ptr %12, i64 %idxprom61
  store double %40, ptr %arrayidx71, align 8, !tbaa !62
  %arrayidx74 = getelementptr inbounds double, ptr %13, i64 %idxprom67
  %41 = load double, ptr %arrayidx74, align 8, !tbaa !62
  %arrayidx77 = getelementptr inbounds double, ptr %13, i64 %idxprom61
  store double %41, ptr %arrayidx77, align 8, !tbaa !62
  %arrayidx80 = getelementptr inbounds double, ptr %14, i64 %idxprom67
  %42 = load double, ptr %arrayidx80, align 8, !tbaa !62
  %fneg81 = fneg double %42
  %arrayidx84 = getelementptr inbounds double, ptr %14, i64 %idxprom61
  store double %fneg81, ptr %arrayidx84, align 8, !tbaa !62
  br label %if.end86

if.end86:                                         ; preds = %if.then60, %if.then65, %if.end56
  %arrayidx.i.i179 = getelementptr inbounds i32, ptr %20, i64 %conv.i
  %43 = load i32, ptr %arrayidx.i.i179, align 4, !tbaa !55
  %cmp.i180.not = icmp sgt i32 %36, %43
  br i1 %cmp.i180.not, label %if.then90, label %for.inc

if.then90:                                        ; preds = %if.end86
  %idxprom91 = zext i32 %ic.0183 to i64
  %arrayidx92 = getelementptr inbounds i32, ptr %21, i64 %idxprom91
  %44 = load i32, ptr %arrayidx92, align 4, !tbaa !55
  %45 = load i64, ptr %ncells2, align 8, !tbaa !50
  %conv93 = trunc i64 %45 to i32
  %cmp94 = icmp slt i32 %44, %conv93
  br i1 %cmp94, label %if.then95, label %for.inc

if.then95:                                        ; preds = %if.then90
  %idxprom97 = sext i32 %44 to i64
  %arrayidx98 = getelementptr inbounds double, ptr %12, i64 %idxprom97
  %46 = load double, ptr %arrayidx98, align 8, !tbaa !62
  %arrayidx101 = getelementptr inbounds double, ptr %12, i64 %idxprom91
  store double %46, ptr %arrayidx101, align 8, !tbaa !62
  %arrayidx104 = getelementptr inbounds double, ptr %13, i64 %idxprom97
  %47 = load double, ptr %arrayidx104, align 8, !tbaa !62
  %arrayidx107 = getelementptr inbounds double, ptr %13, i64 %idxprom91
  store double %47, ptr %arrayidx107, align 8, !tbaa !62
  %arrayidx110 = getelementptr inbounds double, ptr %14, i64 %idxprom97
  %48 = load double, ptr %arrayidx110, align 8, !tbaa !62
  %fneg111 = fneg double %48
  %arrayidx114 = getelementptr inbounds double, ptr %14, i64 %idxprom91
  store double %fneg111, ptr %arrayidx114, align 8, !tbaa !62
  br label %for.inc

for.inc:                                          ; preds = %if.then90, %if.then95, %if.end86
  %inc = add nuw i32 %ic.0183, 1
  %exitcond.not = icmp eq i32 %inc, %6
  br i1 %exitcond.not, label %for.cond.cleanup, label %for.body, !llvm.loop !67
}

declare void @_ZN4Mesh10get_boundsERiS0_(ptr noundef nonnull align 8 dereferenceable(2192), ptr noundef nonnull align 4 dereferenceable(4), ptr noundef nonnull align 4 dereferenceable(4)) local_unnamed_addr #3

; Function Attrs: mustprogress uwtable
define dso_local void @_ZN5State31apply_boundary_conditions_ghostEv(ptr nocapture noundef nonnull readonly align 8 dereferenceable(272) %this) local_unnamed_addr #2 align 2 {
entry:
  %lowerBound = alloca i32, align 4
  %upperBound = alloca i32, align 4
  %mesh = getelementptr inbounds %class.State, ptr %this, i64 0, i32 2
  %0 = load ptr, ptr %mesh, align 8, !tbaa !9
  %ncells2 = getelementptr inbounds %class.Mesh, ptr %0, i64 0, i32 45
  %nlft = getelementptr inbounds %class.Mesh, ptr %0, i64 0, i32 69
  %1 = load ptr, ptr %nlft, align 8, !tbaa !46
  store ptr %1, ptr @_ZZN5State31apply_boundary_conditions_ghostEvE4nlft, align 8, !tbaa !5
  %nrht = getelementptr inbounds %class.Mesh, ptr %0, i64 0, i32 70
  %2 = load ptr, ptr %nrht, align 8, !tbaa !47
  store ptr %2, ptr @_ZZN5State31apply_boundary_conditions_ghostEvE4nrht, align 8, !tbaa !5
  %nbot = getelementptr inbounds %class.Mesh, ptr %0, i64 0, i32 71
  %3 = load ptr, ptr %nbot, align 8, !tbaa !48
  store ptr %3, ptr @_ZZN5State31apply_boundary_conditions_ghostEvE4nbot, align 8, !tbaa !5
  %ntop = getelementptr inbounds %class.Mesh, ptr %0, i64 0, i32 72
  %4 = load ptr, ptr %ntop, align 8, !tbaa !49
  store ptr %4, ptr @_ZZN5State31apply_boundary_conditions_ghostEvE4ntop, align 8, !tbaa !5
  call void @llvm.lifetime.start.p0(i64 4, ptr nonnull %lowerBound) #28
  call void @llvm.lifetime.start.p0(i64 4, ptr nonnull %upperBound) #28
  call void @_ZN4Mesh10get_boundsERiS0_(ptr noundef nonnull align 8 dereferenceable(2192) %0, ptr noundef nonnull align 4 dereferenceable(4) %lowerBound, ptr noundef nonnull align 4 dereferenceable(4) %upperBound)
  %5 = load i32, ptr %lowerBound, align 4, !tbaa !55
  %6 = load i32, ptr %upperBound, align 4, !tbaa !55
  %cmp182 = icmp ult i32 %5, %6
  br i1 %cmp182, label %for.body.lr.ph, label %for.cond.cleanup

for.body.lr.ph:                                   ; preds = %entry
  %7 = load ptr, ptr %mesh, align 8, !tbaa !9
  %i.i = getelementptr inbounds %class.Mesh, ptr %7, i64 0, i32 64
  %8 = load ptr, ptr %i.i, align 8, !tbaa !42
  %lev_ibegin.i = getelementptr inbounds %class.Mesh, ptr %7, i64 0, i32 26
  %level.i = getelementptr inbounds %class.Mesh, ptr %7, i64 0, i32 67
  %9 = load ptr, ptr %level.i, align 8, !tbaa !44
  %10 = load ptr, ptr %lev_ibegin.i, align 8, !tbaa !51
  %11 = load ptr, ptr @_ZZN5State31apply_boundary_conditions_ghostEvE4nrht, align 8
  %H = getelementptr inbounds %class.State, ptr %this, i64 0, i32 3
  %12 = load ptr, ptr %H, align 8
  %U = getelementptr inbounds %class.State, ptr %this, i64 0, i32 4
  %13 = load ptr, ptr %U, align 8
  %V = getelementptr inbounds %class.State, ptr %this, i64 0, i32 5
  %14 = load ptr, ptr %V, align 8
  %lev_iend.i = getelementptr inbounds %class.Mesh, ptr %7, i64 0, i32 27
  %15 = load ptr, ptr %lev_iend.i, align 8, !tbaa !51
  %16 = load ptr, ptr @_ZZN5State31apply_boundary_conditions_ghostEvE4nlft, align 8
  %j.i = getelementptr inbounds %class.Mesh, ptr %7, i64 0, i32 65
  %17 = load ptr, ptr %j.i, align 8, !tbaa !43
  %lev_jbegin.i = getelementptr inbounds %class.Mesh, ptr %7, i64 0, i32 28
  %18 = load ptr, ptr %lev_jbegin.i, align 8, !tbaa !51
  %19 = load ptr, ptr @_ZZN5State31apply_boundary_conditions_ghostEvE4ntop, align 8
  %lev_jend.i = getelementptr inbounds %class.Mesh, ptr %7, i64 0, i32 29
  %20 = load ptr, ptr %lev_jend.i, align 8, !tbaa !51
  %21 = load ptr, ptr @_ZZN5State31apply_boundary_conditions_ghostEvE4nbot, align 8
  br label %for.body

for.cond.cleanup:                                 ; preds = %for.inc, %entry
  call void @llvm.lifetime.end.p0(i64 4, ptr nonnull %upperBound) #28
  call void @llvm.lifetime.end.p0(i64 4, ptr nonnull %lowerBound) #28
  ret void

for.body:                                         ; preds = %for.body.lr.ph, %for.inc
  %ic.0183 = phi i32 [ %5, %for.body.lr.ph ], [ %inc, %for.inc ]
  %idxprom.i = sext i32 %ic.0183 to i64
  %arrayidx.i = getelementptr inbounds i32, ptr %8, i64 %idxprom.i
  %22 = load i32, ptr %arrayidx.i, align 4, !tbaa !55
  %arrayidx3.i = getelementptr inbounds i32, ptr %9, i64 %idxprom.i
  %23 = load i32, ptr %arrayidx3.i, align 4, !tbaa !55
  %conv.i = sext i32 %23 to i64
  %arrayidx.i.i = getelementptr inbounds i32, ptr %10, i64 %conv.i
  %24 = load i32, ptr %arrayidx.i.i, align 4, !tbaa !55
  %cmp.i.not = icmp slt i32 %22, %24
  br i1 %cmp.i.not, label %if.then, label %if.end26

if.then:                                          ; preds = %for.body
  %idxprom = zext i32 %ic.0183 to i64
  %arrayidx = getelementptr inbounds i32, ptr %11, i64 %idxprom
  %25 = load i32, ptr %arrayidx, align 4, !tbaa !55
  %26 = load i64, ptr %ncells2, align 8, !tbaa !50
  %conv = trunc i64 %26 to i32
  %cmp9.not = icmp slt i32 %25, %conv
  br i1 %cmp9.not, label %if.end26, label %if.then10

if.then10:                                        ; preds = %if.then
  %idxprom11 = sext i32 %25 to i64
  %arrayidx12 = getelementptr inbounds double, ptr %12, i64 %idxprom11
  %27 = load double, ptr %arrayidx12, align 8, !tbaa !62
  %arrayidx15 = getelementptr inbounds double, ptr %12, i64 %idxprom
  store double %27, ptr %arrayidx15, align 8, !tbaa !62
  %arrayidx17 = getelementptr inbounds double, ptr %13, i64 %idxprom11
  %28 = load double, ptr %arrayidx17, align 8, !tbaa !62
  %fneg = fneg double %28
  %arrayidx20 = getelementptr inbounds double, ptr %13, i64 %idxprom
  store double %fneg, ptr %arrayidx20, align 8, !tbaa !62
  %arrayidx22 = getelementptr inbounds double, ptr %14, i64 %idxprom11
  %29 = load double, ptr %arrayidx22, align 8, !tbaa !62
  %arrayidx25 = getelementptr inbounds double, ptr %14, i64 %idxprom
  store double %29, ptr %arrayidx25, align 8, !tbaa !62
  br label %if.end26

if.end26:                                         ; preds = %if.then, %if.then10, %for.body
  %arrayidx.i.i162 = getelementptr inbounds i32, ptr %15, i64 %conv.i
  %30 = load i32, ptr %arrayidx.i.i162, align 4, !tbaa !55
  %cmp.i163.not = icmp sgt i32 %22, %30
  br i1 %cmp.i163.not, label %if.then30, label %if.end56

if.then30:                                        ; preds = %if.end26
  %idxprom31 = zext i32 %ic.0183 to i64
  %arrayidx32 = getelementptr inbounds i32, ptr %16, i64 %idxprom31
  %31 = load i32, ptr %arrayidx32, align 4, !tbaa !55
  %32 = load i64, ptr %ncells2, align 8, !tbaa !50
  %conv33 = trunc i64 %32 to i32
  %cmp34.not = icmp slt i32 %31, %conv33
  br i1 %cmp34.not, label %if.end56, label %if.then35

if.then35:                                        ; preds = %if.then30
  %idxprom37 = sext i32 %31 to i64
  %arrayidx38 = getelementptr inbounds double, ptr %12, i64 %idxprom37
  %33 = load double, ptr %arrayidx38, align 8, !tbaa !62
  %arrayidx41 = getelementptr inbounds double, ptr %12, i64 %idxprom31
  store double %33, ptr %arrayidx41, align 8, !tbaa !62
  %arrayidx44 = getelementptr inbounds double, ptr %13, i64 %idxprom37
  %34 = load double, ptr %arrayidx44, align 8, !tbaa !62
  %fneg45 = fneg double %34
  %arrayidx48 = getelementptr inbounds double, ptr %13, i64 %idxprom31
  store double %fneg45, ptr %arrayidx48, align 8, !tbaa !62
  %arrayidx51 = getelementptr inbounds double, ptr %14, i64 %idxprom37
  %35 = load double, ptr %arrayidx51, align 8, !tbaa !62
  %arrayidx54 = getelementptr inbounds double, ptr %14, i64 %idxprom31
  store double %35, ptr %arrayidx54, align 8, !tbaa !62
  br label %if.end56

if.end56:                                         ; preds = %if.then30, %if.then35, %if.end26
  %arrayidx.i166 = getelementptr inbounds i32, ptr %17, i64 %idxprom.i
  %36 = load i32, ptr %arrayidx.i166, align 4, !tbaa !55
  %arrayidx.i.i170 = getelementptr inbounds i32, ptr %18, i64 %conv.i
  %37 = load i32, ptr %arrayidx.i.i170, align 4, !tbaa !55
  %cmp.i171.not = icmp slt i32 %36, %37
  br i1 %cmp.i171.not, label %if.then60, label %if.end86

if.then60:                                        ; preds = %if.end56
  %idxprom61 = zext i32 %ic.0183 to i64
  %arrayidx62 = getelementptr inbounds i32, ptr %19, i64 %idxprom61
  %38 = load i32, ptr %arrayidx62, align 4, !tbaa !55
  %39 = load i64, ptr %ncells2, align 8, !tbaa !50
  %conv63 = trunc i64 %39 to i32
  %cmp64.not = icmp slt i32 %38, %conv63
  br i1 %cmp64.not, label %if.end86, label %if.then65

if.then65:                                        ; preds = %if.then60
  %idxprom67 = sext i32 %38 to i64
  %arrayidx68 = getelementptr inbounds double, ptr %12, i64 %idxprom67
  %40 = load double, ptr %arrayidx68, align 8, !tbaa !62
  %arrayidx71 = getelementptr inbounds double, ptr %12, i64 %idxprom61
  store double %40, ptr %arrayidx71, align 8, !tbaa !62
  %arrayidx74 = getelementptr inbounds double, ptr %13, i64 %idxprom67
  %41 = load double, ptr %arrayidx74, align 8, !tbaa !62
  %arrayidx77 = getelementptr inbounds double, ptr %13, i64 %idxprom61
  store double %41, ptr %arrayidx77, align 8, !tbaa !62
  %arrayidx80 = getelementptr inbounds double, ptr %14, i64 %idxprom67
  %42 = load double, ptr %arrayidx80, align 8, !tbaa !62
  %fneg81 = fneg double %42
  %arrayidx84 = getelementptr inbounds double, ptr %14, i64 %idxprom61
  store double %fneg81, ptr %arrayidx84, align 8, !tbaa !62
  br label %if.end86

if.end86:                                         ; preds = %if.then60, %if.then65, %if.end56
  %arrayidx.i.i179 = getelementptr inbounds i32, ptr %20, i64 %conv.i
  %43 = load i32, ptr %arrayidx.i.i179, align 4, !tbaa !55
  %cmp.i180.not = icmp sgt i32 %36, %43
  br i1 %cmp.i180.not, label %if.then90, label %for.inc

if.then90:                                        ; preds = %if.end86
  %idxprom91 = zext i32 %ic.0183 to i64
  %arrayidx92 = getelementptr inbounds i32, ptr %21, i64 %idxprom91
  %44 = load i32, ptr %arrayidx92, align 4, !tbaa !55
  %45 = load i64, ptr %ncells2, align 8, !tbaa !50
  %conv93 = trunc i64 %45 to i32
  %cmp94.not = icmp slt i32 %44, %conv93
  br i1 %cmp94.not, label %for.inc, label %if.then95

if.then95:                                        ; preds = %if.then90
  %idxprom97 = sext i32 %44 to i64
  %arrayidx98 = getelementptr inbounds double, ptr %12, i64 %idxprom97
  %46 = load double, ptr %arrayidx98, align 8, !tbaa !62
  %arrayidx101 = getelementptr inbounds double, ptr %12, i64 %idxprom91
  store double %46, ptr %arrayidx101, align 8, !tbaa !62
  %arrayidx104 = getelementptr inbounds double, ptr %13, i64 %idxprom97
  %47 = load double, ptr %arrayidx104, align 8, !tbaa !62
  %arrayidx107 = getelementptr inbounds double, ptr %13, i64 %idxprom91
  store double %47, ptr %arrayidx107, align 8, !tbaa !62
  %arrayidx110 = getelementptr inbounds double, ptr %14, i64 %idxprom97
  %48 = load double, ptr %arrayidx110, align 8, !tbaa !62
  %fneg111 = fneg double %48
  %arrayidx114 = getelementptr inbounds double, ptr %14, i64 %idxprom91
  store double %fneg111, ptr %arrayidx114, align 8, !tbaa !62
  br label %for.inc

for.inc:                                          ; preds = %if.then90, %if.then95, %if.end86
  %inc = add nuw i32 %ic.0183, 1
  %exitcond.not = icmp eq i32 %inc, %6
  br i1 %exitcond.not, label %for.cond.cleanup, label %for.body, !llvm.loop !68
}

; Function Attrs: mustprogress uwtable
define dso_local void @_ZN5State25apply_boundary_conditionsEv(ptr nocapture noundef nonnull readonly align 8 dereferenceable(272) %this) local_unnamed_addr #2 align 2 {
entry:
  %lowerBound = alloca i32, align 4
  %upperBound = alloca i32, align 4
  %mesh = getelementptr inbounds %class.State, ptr %this, i64 0, i32 2
  %0 = load ptr, ptr %mesh, align 8, !tbaa !9
  %nlft4 = getelementptr inbounds %class.Mesh, ptr %0, i64 0, i32 69
  %1 = load ptr, ptr %nlft4, align 8, !tbaa !46
  %nrht6 = getelementptr inbounds %class.Mesh, ptr %0, i64 0, i32 70
  %2 = load ptr, ptr %nrht6, align 8, !tbaa !47
  %nbot8 = getelementptr inbounds %class.Mesh, ptr %0, i64 0, i32 71
  %3 = load ptr, ptr %nbot8, align 8, !tbaa !48
  %ntop10 = getelementptr inbounds %class.Mesh, ptr %0, i64 0, i32 72
  %4 = load ptr, ptr %ntop10, align 8, !tbaa !49
  call void @llvm.lifetime.start.p0(i64 4, ptr nonnull %lowerBound) #28
  call void @llvm.lifetime.start.p0(i64 4, ptr nonnull %upperBound) #28
  call void @_ZN4Mesh10get_boundsERiS0_(ptr noundef nonnull align 8 dereferenceable(2192) %0, ptr noundef nonnull align 4 dereferenceable(4) %lowerBound, ptr noundef nonnull align 4 dereferenceable(4) %upperBound)
  %5 = load i32, ptr %lowerBound, align 4, !tbaa !55
  %6 = load i32, ptr %upperBound, align 4, !tbaa !55
  %cmp161 = icmp ult i32 %5, %6
  br i1 %cmp161, label %for.body.lr.ph, label %for.cond.cleanup

for.body.lr.ph:                                   ; preds = %entry
  %7 = load ptr, ptr %mesh, align 8, !tbaa !9
  %i.i = getelementptr inbounds %class.Mesh, ptr %7, i64 0, i32 64
  %8 = load ptr, ptr %i.i, align 8, !tbaa !42
  %lev_ibegin.i = getelementptr inbounds %class.Mesh, ptr %7, i64 0, i32 26
  %level.i = getelementptr inbounds %class.Mesh, ptr %7, i64 0, i32 67
  %9 = load ptr, ptr %level.i, align 8, !tbaa !44
  %10 = load ptr, ptr %lev_ibegin.i, align 8, !tbaa !51
  %H = getelementptr inbounds %class.State, ptr %this, i64 0, i32 3
  %11 = load ptr, ptr %H, align 8
  %U = getelementptr inbounds %class.State, ptr %this, i64 0, i32 4
  %12 = load ptr, ptr %U, align 8
  %V = getelementptr inbounds %class.State, ptr %this, i64 0, i32 5
  %13 = load ptr, ptr %V, align 8
  %lev_iend.i = getelementptr inbounds %class.Mesh, ptr %7, i64 0, i32 27
  %14 = load ptr, ptr %lev_iend.i, align 8, !tbaa !51
  %j.i = getelementptr inbounds %class.Mesh, ptr %7, i64 0, i32 65
  %15 = load ptr, ptr %j.i, align 8, !tbaa !43
  %lev_jbegin.i = getelementptr inbounds %class.Mesh, ptr %7, i64 0, i32 28
  %16 = load ptr, ptr %lev_jbegin.i, align 8, !tbaa !51
  %lev_jend.i = getelementptr inbounds %class.Mesh, ptr %7, i64 0, i32 29
  %17 = load ptr, ptr %lev_jend.i, align 8, !tbaa !51
  br label %for.body

for.cond.cleanup:                                 ; preds = %for.inc, %entry
  call void @llvm.lifetime.end.p0(i64 4, ptr nonnull %upperBound) #28
  call void @llvm.lifetime.end.p0(i64 4, ptr nonnull %lowerBound) #28
  ret void

for.body:                                         ; preds = %for.body.lr.ph, %for.inc
  %ic.0162 = phi i32 [ %5, %for.body.lr.ph ], [ %inc, %for.inc ]
  %idxprom.i = sext i32 %ic.0162 to i64
  %arrayidx.i = getelementptr inbounds i32, ptr %8, i64 %idxprom.i
  %18 = load i32, ptr %arrayidx.i, align 4, !tbaa !55
  %arrayidx3.i = getelementptr inbounds i32, ptr %9, i64 %idxprom.i
  %19 = load i32, ptr %arrayidx3.i, align 4, !tbaa !55
  %conv.i = sext i32 %19 to i64
  %arrayidx.i.i = getelementptr inbounds i32, ptr %10, i64 %conv.i
  %20 = load i32, ptr %arrayidx.i.i, align 4, !tbaa !55
  %cmp.i.not = icmp slt i32 %18, %20
  br i1 %cmp.i.not, label %if.then, label %if.end

if.then:                                          ; preds = %for.body
  %idxprom = zext i32 %ic.0162 to i64
  %arrayidx = getelementptr inbounds i32, ptr %2, i64 %idxprom
  %21 = load i32, ptr %arrayidx, align 4, !tbaa !55
  %idxprom13 = sext i32 %21 to i64
  %arrayidx14 = getelementptr inbounds double, ptr %11, i64 %idxprom13
  %22 = load double, ptr %arrayidx14, align 8, !tbaa !62
  %arrayidx17 = getelementptr inbounds double, ptr %11, i64 %idxprom
  store double %22, ptr %arrayidx17, align 8, !tbaa !62
  %arrayidx19 = getelementptr inbounds double, ptr %12, i64 %idxprom13
  %23 = load double, ptr %arrayidx19, align 8, !tbaa !62
  %fneg = fneg double %23
  %arrayidx22 = getelementptr inbounds double, ptr %12, i64 %idxprom
  store double %fneg, ptr %arrayidx22, align 8, !tbaa !62
  %arrayidx24 = getelementptr inbounds double, ptr %13, i64 %idxprom13
  %24 = load double, ptr %arrayidx24, align 8, !tbaa !62
  %arrayidx27 = getelementptr inbounds double, ptr %13, i64 %idxprom
  store double %24, ptr %arrayidx27, align 8, !tbaa !62
  br label %if.end

if.end:                                           ; preds = %if.then, %for.body
  %arrayidx.i.i141 = getelementptr inbounds i32, ptr %14, i64 %conv.i
  %25 = load i32, ptr %arrayidx.i.i141, align 4, !tbaa !55
  %cmp.i142.not = icmp sgt i32 %18, %25
  br i1 %cmp.i142.not, label %if.then31, label %if.end53

if.then31:                                        ; preds = %if.end
  %idxprom32 = zext i32 %ic.0162 to i64
  %arrayidx33 = getelementptr inbounds i32, ptr %1, i64 %idxprom32
  %26 = load i32, ptr %arrayidx33, align 4, !tbaa !55
  %idxprom35 = sext i32 %26 to i64
  %arrayidx36 = getelementptr inbounds double, ptr %11, i64 %idxprom35
  %27 = load double, ptr %arrayidx36, align 8, !tbaa !62
  %arrayidx39 = getelementptr inbounds double, ptr %11, i64 %idxprom32
  store double %27, ptr %arrayidx39, align 8, !tbaa !62
  %arrayidx42 = getelementptr inbounds double, ptr %12, i64 %idxprom35
  %28 = load double, ptr %arrayidx42, align 8, !tbaa !62
  %fneg43 = fneg double %28
  %arrayidx46 = getelementptr inbounds double, ptr %12, i64 %idxprom32
  store double %fneg43, ptr %arrayidx46, align 8, !tbaa !62
  %arrayidx49 = getelementptr inbounds double, ptr %13, i64 %idxprom35
  %29 = load double, ptr %arrayidx49, align 8, !tbaa !62
  %arrayidx52 = getelementptr inbounds double, ptr %13, i64 %idxprom32
  store double %29, ptr %arrayidx52, align 8, !tbaa !62
  br label %if.end53

if.end53:                                         ; preds = %if.then31, %if.end
  %arrayidx.i145 = getelementptr inbounds i32, ptr %15, i64 %idxprom.i
  %30 = load i32, ptr %arrayidx.i145, align 4, !tbaa !55
  %arrayidx.i.i149 = getelementptr inbounds i32, ptr %16, i64 %conv.i
  %31 = load i32, ptr %arrayidx.i.i149, align 4, !tbaa !55
  %cmp.i150.not = icmp slt i32 %30, %31
  br i1 %cmp.i150.not, label %if.then57, label %if.end79

if.then57:                                        ; preds = %if.end53
  %idxprom58 = zext i32 %ic.0162 to i64
  %arrayidx59 = getelementptr inbounds i32, ptr %4, i64 %idxprom58
  %32 = load i32, ptr %arrayidx59, align 4, !tbaa !55
  %idxprom61 = sext i32 %32 to i64
  %arrayidx62 = getelementptr inbounds double, ptr %11, i64 %idxprom61
  %33 = load double, ptr %arrayidx62, align 8, !tbaa !62
  %arrayidx65 = getelementptr inbounds double, ptr %11, i64 %idxprom58
  store double %33, ptr %arrayidx65, align 8, !tbaa !62
  %arrayidx68 = getelementptr inbounds double, ptr %12, i64 %idxprom61
  %34 = load double, ptr %arrayidx68, align 8, !tbaa !62
  %arrayidx71 = getelementptr inbounds double, ptr %12, i64 %idxprom58
  store double %34, ptr %arrayidx71, align 8, !tbaa !62
  %arrayidx74 = getelementptr inbounds double, ptr %13, i64 %idxprom61
  %35 = load double, ptr %arrayidx74, align 8, !tbaa !62
  %fneg75 = fneg double %35
  %arrayidx78 = getelementptr inbounds double, ptr %13, i64 %idxprom58
  store double %fneg75, ptr %arrayidx78, align 8, !tbaa !62
  br label %if.end79

if.end79:                                         ; preds = %if.then57, %if.end53
  %arrayidx.i.i158 = getelementptr inbounds i32, ptr %17, i64 %conv.i
  %36 = load i32, ptr %arrayidx.i.i158, align 4, !tbaa !55
  %cmp.i159.not = icmp sgt i32 %30, %36
  br i1 %cmp.i159.not, label %if.then83, label %for.inc

if.then83:                                        ; preds = %if.end79
  %idxprom84 = zext i32 %ic.0162 to i64
  %arrayidx85 = getelementptr inbounds i32, ptr %3, i64 %idxprom84
  %37 = load i32, ptr %arrayidx85, align 4, !tbaa !55
  %idxprom87 = sext i32 %37 to i64
  %arrayidx88 = getelementptr inbounds double, ptr %11, i64 %idxprom87
  %38 = load double, ptr %arrayidx88, align 8, !tbaa !62
  %arrayidx91 = getelementptr inbounds double, ptr %11, i64 %idxprom84
  store double %38, ptr %arrayidx91, align 8, !tbaa !62
  %arrayidx94 = getelementptr inbounds double, ptr %12, i64 %idxprom87
  %39 = load double, ptr %arrayidx94, align 8, !tbaa !62
  %arrayidx97 = getelementptr inbounds double, ptr %12, i64 %idxprom84
  store double %39, ptr %arrayidx97, align 8, !tbaa !62
  %arrayidx100 = getelementptr inbounds double, ptr %13, i64 %idxprom87
  %40 = load double, ptr %arrayidx100, align 8, !tbaa !62
  %fneg101 = fneg double %40
  %arrayidx104 = getelementptr inbounds double, ptr %13, i64 %idxprom84
  store double %fneg101, ptr %arrayidx104, align 8, !tbaa !62
  br label %for.inc

for.inc:                                          ; preds = %if.end79, %if.then83
  %inc = add nuw i32 %ic.0162, 1
  %exitcond.not = icmp eq i32 %inc, %6
  br i1 %exitcond.not, label %for.cond.cleanup, label %for.body, !llvm.loop !69
}

; Function Attrs: mustprogress uwtable
define dso_local void @_ZN5State21remove_boundary_cellsEv(ptr noundef nonnull align 8 dereferenceable(272) %this) local_unnamed_addr #2 align 2 personality ptr @__gxx_personality_v0 {
entry:
  %lowerBound = alloca i32, align 4
  %upperBound = alloca i32, align 4
  %mesh = getelementptr inbounds %class.State, ptr %this, i64 0, i32 2
  %0 = load ptr, ptr %mesh, align 8, !tbaa !9
  %have_boundary = getelementptr inbounds %class.Mesh, ptr %0, i64 0, i32 37
  %1 = load i32, ptr %have_boundary, align 4, !tbaa !70
  %tobool.not = icmp eq i32 %1, 0
  br i1 %tobool.not, label %if.then, label %if.end153

if.then:                                          ; preds = %entry
  %ncells3 = getelementptr inbounds %class.Mesh, ptr %0, i64 0, i32 45
  %2 = load i32, ptr @save_ncells, align 4, !tbaa !55
  %conv = sext i32 %2 to i64
  store i64 %conv, ptr %ncells3, align 8, !tbaa !50
  %H = getelementptr inbounds %class.State, ptr %this, i64 0, i32 3
  %3 = load ptr, ptr %H, align 8, !tbaa !39
  %call = tail call noundef ptr @_ZN10MallocPlus14memory_reallocEmPv(ptr noundef nonnull align 8 dereferenceable(48) %this, i64 noundef %conv, ptr noundef %3)
  store ptr %call, ptr %H, align 8, !tbaa !39
  %4 = load i32, ptr @save_ncells, align 4, !tbaa !55
  %conv7 = sext i32 %4 to i64
  %U = getelementptr inbounds %class.State, ptr %this, i64 0, i32 4
  %5 = load ptr, ptr %U, align 8, !tbaa !40
  %call8 = tail call noundef ptr @_ZN10MallocPlus14memory_reallocEmPv(ptr noundef nonnull align 8 dereferenceable(48) %this, i64 noundef %conv7, ptr noundef %5)
  store ptr %call8, ptr %U, align 8, !tbaa !40
  %6 = load i32, ptr @save_ncells, align 4, !tbaa !55
  %conv11 = sext i32 %6 to i64
  %V = getelementptr inbounds %class.State, ptr %this, i64 0, i32 5
  %7 = load ptr, ptr %V, align 8, !tbaa !41
  %call12 = tail call noundef ptr @_ZN10MallocPlus14memory_reallocEmPv(ptr noundef nonnull align 8 dereferenceable(48) %this, i64 noundef %conv11, ptr noundef %7)
  store ptr %call12, ptr %V, align 8, !tbaa !41
  %8 = load ptr, ptr %mesh, align 8, !tbaa !9
  %mesh_memory = getelementptr inbounds %class.Mesh, ptr %8, i64 0, i32 1
  %9 = load i32, ptr @save_ncells, align 4, !tbaa !55
  %conv15 = sext i32 %9 to i64
  %i = getelementptr inbounds %class.Mesh, ptr %8, i64 0, i32 64
  %10 = load ptr, ptr %i, align 8, !tbaa !42
  %call17 = tail call noundef ptr @_ZN10MallocPlus14memory_reallocEmPv(ptr noundef nonnull align 8 dereferenceable(48) %mesh_memory, i64 noundef %conv15, ptr noundef %10)
  %11 = load ptr, ptr %mesh, align 8, !tbaa !9
  %i19 = getelementptr inbounds %class.Mesh, ptr %11, i64 0, i32 64
  store ptr %call17, ptr %i19, align 8, !tbaa !42
  %mesh_memory21 = getelementptr inbounds %class.Mesh, ptr %11, i64 0, i32 1
  %12 = load i32, ptr @save_ncells, align 4, !tbaa !55
  %conv22 = sext i32 %12 to i64
  %j = getelementptr inbounds %class.Mesh, ptr %11, i64 0, i32 65
  %13 = load ptr, ptr %j, align 8, !tbaa !43
  %call24 = tail call noundef ptr @_ZN10MallocPlus14memory_reallocEmPv(ptr noundef nonnull align 8 dereferenceable(48) %mesh_memory21, i64 noundef %conv22, ptr noundef %13)
  %14 = load ptr, ptr %mesh, align 8, !tbaa !9
  %j26 = getelementptr inbounds %class.Mesh, ptr %14, i64 0, i32 65
  store ptr %call24, ptr %j26, align 8, !tbaa !43
  %mesh_memory28 = getelementptr inbounds %class.Mesh, ptr %14, i64 0, i32 1
  %15 = load i32, ptr @save_ncells, align 4, !tbaa !55
  %conv29 = sext i32 %15 to i64
  %level = getelementptr inbounds %class.Mesh, ptr %14, i64 0, i32 67
  %16 = load ptr, ptr %level, align 8, !tbaa !44
  %call31 = tail call noundef ptr @_ZN10MallocPlus14memory_reallocEmPv(ptr noundef nonnull align 8 dereferenceable(48) %mesh_memory28, i64 noundef %conv29, ptr noundef %16)
  %17 = load ptr, ptr %mesh, align 8, !tbaa !9
  %level33 = getelementptr inbounds %class.Mesh, ptr %17, i64 0, i32 67
  store ptr %call31, ptr %level33, align 8, !tbaa !44
  %mesh_memory35 = getelementptr inbounds %class.Mesh, ptr %17, i64 0, i32 1
  %18 = load i32, ptr @save_ncells, align 4, !tbaa !55
  %conv36 = sext i32 %18 to i64
  %celltype = getelementptr inbounds %class.Mesh, ptr %17, i64 0, i32 68
  %19 = load ptr, ptr %celltype, align 8, !tbaa !45
  %call38 = tail call noundef ptr @_ZN10MallocPlus14memory_reallocEmPv(ptr noundef nonnull align 8 dereferenceable(48) %mesh_memory35, i64 noundef %conv36, ptr noundef %19)
  %20 = load ptr, ptr %mesh, align 8, !tbaa !9
  %celltype40 = getelementptr inbounds %class.Mesh, ptr %20, i64 0, i32 68
  store ptr %call38, ptr %celltype40, align 8, !tbaa !45
  %mesh_memory42 = getelementptr inbounds %class.Mesh, ptr %20, i64 0, i32 1
  %21 = load i32, ptr @save_ncells, align 4, !tbaa !55
  %conv43 = sext i32 %21 to i64
  %nlft = getelementptr inbounds %class.Mesh, ptr %20, i64 0, i32 69
  %22 = load ptr, ptr %nlft, align 8, !tbaa !46
  %call45 = tail call noundef ptr @_ZN10MallocPlus14memory_reallocEmPv(ptr noundef nonnull align 8 dereferenceable(48) %mesh_memory42, i64 noundef %conv43, ptr noundef %22)
  %23 = load ptr, ptr %mesh, align 8, !tbaa !9
  %nlft47 = getelementptr inbounds %class.Mesh, ptr %23, i64 0, i32 69
  store ptr %call45, ptr %nlft47, align 8, !tbaa !46
  %mesh_memory49 = getelementptr inbounds %class.Mesh, ptr %23, i64 0, i32 1
  %24 = load i32, ptr @save_ncells, align 4, !tbaa !55
  %conv50 = sext i32 %24 to i64
  %nrht = getelementptr inbounds %class.Mesh, ptr %23, i64 0, i32 70
  %25 = load ptr, ptr %nrht, align 8, !tbaa !47
  %call52 = tail call noundef ptr @_ZN10MallocPlus14memory_reallocEmPv(ptr noundef nonnull align 8 dereferenceable(48) %mesh_memory49, i64 noundef %conv50, ptr noundef %25)
  %26 = load ptr, ptr %mesh, align 8, !tbaa !9
  %nrht54 = getelementptr inbounds %class.Mesh, ptr %26, i64 0, i32 70
  store ptr %call52, ptr %nrht54, align 8, !tbaa !47
  %mesh_memory56 = getelementptr inbounds %class.Mesh, ptr %26, i64 0, i32 1
  %27 = load i32, ptr @save_ncells, align 4, !tbaa !55
  %conv57 = sext i32 %27 to i64
  %nbot = getelementptr inbounds %class.Mesh, ptr %26, i64 0, i32 71
  %28 = load ptr, ptr %nbot, align 8, !tbaa !48
  %call59 = tail call noundef ptr @_ZN10MallocPlus14memory_reallocEmPv(ptr noundef nonnull align 8 dereferenceable(48) %mesh_memory56, i64 noundef %conv57, ptr noundef %28)
  %29 = load ptr, ptr %mesh, align 8, !tbaa !9
  %nbot61 = getelementptr inbounds %class.Mesh, ptr %29, i64 0, i32 71
  store ptr %call59, ptr %nbot61, align 8, !tbaa !48
  %mesh_memory63 = getelementptr inbounds %class.Mesh, ptr %29, i64 0, i32 1
  %30 = load i32, ptr @save_ncells, align 4, !tbaa !55
  %conv64 = sext i32 %30 to i64
  %ntop = getelementptr inbounds %class.Mesh, ptr %29, i64 0, i32 72
  %31 = load ptr, ptr %ntop, align 8, !tbaa !49
  %call66 = tail call noundef ptr @_ZN10MallocPlus14memory_reallocEmPv(ptr noundef nonnull align 8 dereferenceable(48) %mesh_memory63, i64 noundef %conv64, ptr noundef %31)
  %32 = load ptr, ptr %mesh, align 8, !tbaa !9
  %ntop68 = getelementptr inbounds %class.Mesh, ptr %32, i64 0, i32 72
  store ptr %call66, ptr %ntop68, align 8, !tbaa !49
  %index = getelementptr inbounds %class.Mesh, ptr %32, i64 0, i32 63
  %33 = load i32, ptr @save_ncells, align 4, !tbaa !55
  %conv70 = sext i32 %33 to i64
  %__end_.i.i = getelementptr inbounds %class.Mesh, ptr %32, i64 0, i32 63, i32 1
  %34 = load ptr, ptr %__end_.i.i, align 8, !tbaa !52
  %35 = load ptr, ptr %index, align 8, !tbaa !51
  %sub.ptr.lhs.cast.i.i = ptrtoint ptr %34 to i64
  %sub.ptr.rhs.cast.i.i = ptrtoint ptr %35 to i64
  %sub.ptr.sub.i.i = sub i64 %sub.ptr.lhs.cast.i.i, %sub.ptr.rhs.cast.i.i
  %sub.ptr.div.i.i = ashr exact i64 %sub.ptr.sub.i.i, 2
  %cmp.i = icmp ult i64 %sub.ptr.div.i.i, %conv70
  br i1 %cmp.i, label %if.then.i, label %if.else.i

if.then.i:                                        ; preds = %if.then
  %sub.i = sub nsw i64 %conv70, %sub.ptr.div.i.i
  tail call void @_ZNSt3__16vectorIiNS_9allocatorIiEEE8__appendEm(ptr noundef nonnull align 8 dereferenceable(24) %index, i64 noundef %sub.i)
  %.pre = load ptr, ptr %mesh, align 8, !tbaa !9
  %.pre228 = load i32, ptr @save_ncells, align 4, !tbaa !55
  %.pre244 = sext i32 %.pre228 to i64
  br label %_ZNSt3__16vectorIiNS_9allocatorIiEEE6resizeEm.exit

if.else.i:                                        ; preds = %if.then
  %cmp2.i = icmp ugt i64 %sub.ptr.div.i.i, %conv70
  br i1 %cmp2.i, label %if.then3.i, label %_ZNSt3__16vectorIiNS_9allocatorIiEEE6resizeEm.exit

if.then3.i:                                       ; preds = %if.else.i
  %add.ptr.i = getelementptr inbounds i32, ptr %35, i64 %conv70
  store ptr %add.ptr.i, ptr %__end_.i.i, align 8, !tbaa !52
  br label %_ZNSt3__16vectorIiNS_9allocatorIiEEE6resizeEm.exit

_ZNSt3__16vectorIiNS_9allocatorIiEEE6resizeEm.exit: ; preds = %if.then.i, %if.else.i, %if.then3.i
  %conv72.pre-phi = phi i64 [ %.pre244, %if.then.i ], [ %conv70, %if.else.i ], [ %conv70, %if.then3.i ]
  %36 = phi ptr [ %.pre, %if.then.i ], [ %32, %if.else.i ], [ %32, %if.then3.i ]
  %x = getelementptr inbounds %class.Mesh, ptr %36, i64 0, i32 75
  %__end_.i.i171 = getelementptr inbounds %class.Mesh, ptr %36, i64 0, i32 75, i32 1
  %37 = load ptr, ptr %__end_.i.i171, align 8, !tbaa !53
  %38 = load ptr, ptr %x, align 8, !tbaa !54
  %sub.ptr.lhs.cast.i.i172 = ptrtoint ptr %37 to i64
  %sub.ptr.rhs.cast.i.i173 = ptrtoint ptr %38 to i64
  %sub.ptr.sub.i.i174 = sub i64 %sub.ptr.lhs.cast.i.i172, %sub.ptr.rhs.cast.i.i173
  %sub.ptr.div.i.i175 = ashr exact i64 %sub.ptr.sub.i.i174, 3
  %cmp.i176 = icmp ugt i64 %conv72.pre-phi, %sub.ptr.div.i.i175
  br i1 %cmp.i176, label %if.then.i178, label %if.else.i180

if.then.i178:                                     ; preds = %_ZNSt3__16vectorIiNS_9allocatorIiEEE6resizeEm.exit
  %sub.i177 = sub nsw i64 %conv72.pre-phi, %sub.ptr.div.i.i175
  tail call void @_ZNSt3__16vectorIdNS_9allocatorIdEEE8__appendEm(ptr noundef nonnull align 8 dereferenceable(24) %x, i64 noundef %sub.i177)
  %.pre229 = load ptr, ptr %mesh, align 8, !tbaa !9
  %.pre230 = load i32, ptr @save_ncells, align 4, !tbaa !55
  %.pre245 = sext i32 %.pre230 to i64
  br label %_ZNSt3__16vectorIdNS_9allocatorIdEEE6resizeEm.exit

if.else.i180:                                     ; preds = %_ZNSt3__16vectorIiNS_9allocatorIiEEE6resizeEm.exit
  %cmp2.i179 = icmp ult i64 %conv72.pre-phi, %sub.ptr.div.i.i175
  br i1 %cmp2.i179, label %if.then3.i182, label %_ZNSt3__16vectorIdNS_9allocatorIdEEE6resizeEm.exit

if.then3.i182:                                    ; preds = %if.else.i180
  %add.ptr.i181 = getelementptr inbounds double, ptr %38, i64 %conv72.pre-phi
  store ptr %add.ptr.i181, ptr %__end_.i.i171, align 8, !tbaa !53
  br label %_ZNSt3__16vectorIdNS_9allocatorIdEEE6resizeEm.exit

_ZNSt3__16vectorIdNS_9allocatorIdEEE6resizeEm.exit: ; preds = %if.then.i178, %if.else.i180, %if.then3.i182
  %conv74.pre-phi = phi i64 [ %.pre245, %if.then.i178 ], [ %conv72.pre-phi, %if.else.i180 ], [ %conv72.pre-phi, %if.then3.i182 ]
  %39 = phi ptr [ %.pre229, %if.then.i178 ], [ %36, %if.else.i180 ], [ %36, %if.then3.i182 ]
  %dx = getelementptr inbounds %class.Mesh, ptr %39, i64 0, i32 76
  %__end_.i.i183 = getelementptr inbounds %class.Mesh, ptr %39, i64 0, i32 76, i32 1
  %40 = load ptr, ptr %__end_.i.i183, align 8, !tbaa !53
  %41 = load ptr, ptr %dx, align 8, !tbaa !54
  %sub.ptr.lhs.cast.i.i184 = ptrtoint ptr %40 to i64
  %sub.ptr.rhs.cast.i.i185 = ptrtoint ptr %41 to i64
  %sub.ptr.sub.i.i186 = sub i64 %sub.ptr.lhs.cast.i.i184, %sub.ptr.rhs.cast.i.i185
  %sub.ptr.div.i.i187 = ashr exact i64 %sub.ptr.sub.i.i186, 3
  %cmp.i188 = icmp ugt i64 %conv74.pre-phi, %sub.ptr.div.i.i187
  br i1 %cmp.i188, label %if.then.i190, label %if.else.i192

if.then.i190:                                     ; preds = %_ZNSt3__16vectorIdNS_9allocatorIdEEE6resizeEm.exit
  %sub.i189 = sub nsw i64 %conv74.pre-phi, %sub.ptr.div.i.i187
  tail call void @_ZNSt3__16vectorIdNS_9allocatorIdEEE8__appendEm(ptr noundef nonnull align 8 dereferenceable(24) %dx, i64 noundef %sub.i189)
  %.pre231 = load ptr, ptr %mesh, align 8, !tbaa !9
  %.pre232 = load i32, ptr @save_ncells, align 4, !tbaa !55
  %.pre246 = sext i32 %.pre232 to i64
  br label %_ZNSt3__16vectorIdNS_9allocatorIdEEE6resizeEm.exit195

if.else.i192:                                     ; preds = %_ZNSt3__16vectorIdNS_9allocatorIdEEE6resizeEm.exit
  %cmp2.i191 = icmp ult i64 %conv74.pre-phi, %sub.ptr.div.i.i187
  br i1 %cmp2.i191, label %if.then3.i194, label %_ZNSt3__16vectorIdNS_9allocatorIdEEE6resizeEm.exit195

if.then3.i194:                                    ; preds = %if.else.i192
  %add.ptr.i193 = getelementptr inbounds double, ptr %41, i64 %conv74.pre-phi
  store ptr %add.ptr.i193, ptr %__end_.i.i183, align 8, !tbaa !53
  br label %_ZNSt3__16vectorIdNS_9allocatorIdEEE6resizeEm.exit195

_ZNSt3__16vectorIdNS_9allocatorIdEEE6resizeEm.exit195: ; preds = %if.then.i190, %if.else.i192, %if.then3.i194
  %conv76.pre-phi = phi i64 [ %.pre246, %if.then.i190 ], [ %conv74.pre-phi, %if.else.i192 ], [ %conv74.pre-phi, %if.then3.i194 ]
  %42 = phi ptr [ %.pre231, %if.then.i190 ], [ %39, %if.else.i192 ], [ %39, %if.then3.i194 ]
  %y = getelementptr inbounds %class.Mesh, ptr %42, i64 0, i32 77
  %__end_.i.i196 = getelementptr inbounds %class.Mesh, ptr %42, i64 0, i32 77, i32 1
  %43 = load ptr, ptr %__end_.i.i196, align 8, !tbaa !53
  %44 = load ptr, ptr %y, align 8, !tbaa !54
  %sub.ptr.lhs.cast.i.i197 = ptrtoint ptr %43 to i64
  %sub.ptr.rhs.cast.i.i198 = ptrtoint ptr %44 to i64
  %sub.ptr.sub.i.i199 = sub i64 %sub.ptr.lhs.cast.i.i197, %sub.ptr.rhs.cast.i.i198
  %sub.ptr.div.i.i200 = ashr exact i64 %sub.ptr.sub.i.i199, 3
  %cmp.i201 = icmp ugt i64 %conv76.pre-phi, %sub.ptr.div.i.i200
  br i1 %cmp.i201, label %if.then.i203, label %if.else.i205

if.then.i203:                                     ; preds = %_ZNSt3__16vectorIdNS_9allocatorIdEEE6resizeEm.exit195
  %sub.i202 = sub nsw i64 %conv76.pre-phi, %sub.ptr.div.i.i200
  tail call void @_ZNSt3__16vectorIdNS_9allocatorIdEEE8__appendEm(ptr noundef nonnull align 8 dereferenceable(24) %y, i64 noundef %sub.i202)
  %.pre233 = load ptr, ptr %mesh, align 8, !tbaa !9
  %.pre234 = load i32, ptr @save_ncells, align 4, !tbaa !55
  %.pre247 = sext i32 %.pre234 to i64
  br label %_ZNSt3__16vectorIdNS_9allocatorIdEEE6resizeEm.exit208

if.else.i205:                                     ; preds = %_ZNSt3__16vectorIdNS_9allocatorIdEEE6resizeEm.exit195
  %cmp2.i204 = icmp ult i64 %conv76.pre-phi, %sub.ptr.div.i.i200
  br i1 %cmp2.i204, label %if.then3.i207, label %_ZNSt3__16vectorIdNS_9allocatorIdEEE6resizeEm.exit208

if.then3.i207:                                    ; preds = %if.else.i205
  %add.ptr.i206 = getelementptr inbounds double, ptr %44, i64 %conv76.pre-phi
  store ptr %add.ptr.i206, ptr %__end_.i.i196, align 8, !tbaa !53
  br label %_ZNSt3__16vectorIdNS_9allocatorIdEEE6resizeEm.exit208

_ZNSt3__16vectorIdNS_9allocatorIdEEE6resizeEm.exit208: ; preds = %if.then.i203, %if.else.i205, %if.then3.i207
  %conv78.pre-phi = phi i64 [ %.pre247, %if.then.i203 ], [ %conv76.pre-phi, %if.else.i205 ], [ %conv76.pre-phi, %if.then3.i207 ]
  %45 = phi ptr [ %.pre233, %if.then.i203 ], [ %42, %if.else.i205 ], [ %42, %if.then3.i207 ]
  %dy = getelementptr inbounds %class.Mesh, ptr %45, i64 0, i32 78
  %__end_.i.i209 = getelementptr inbounds %class.Mesh, ptr %45, i64 0, i32 78, i32 1
  %46 = load ptr, ptr %__end_.i.i209, align 8, !tbaa !53
  %47 = load ptr, ptr %dy, align 8, !tbaa !54
  %sub.ptr.lhs.cast.i.i210 = ptrtoint ptr %46 to i64
  %sub.ptr.rhs.cast.i.i211 = ptrtoint ptr %47 to i64
  %sub.ptr.sub.i.i212 = sub i64 %sub.ptr.lhs.cast.i.i210, %sub.ptr.rhs.cast.i.i211
  %sub.ptr.div.i.i213 = ashr exact i64 %sub.ptr.sub.i.i212, 3
  %cmp.i214 = icmp ugt i64 %conv78.pre-phi, %sub.ptr.div.i.i213
  br i1 %cmp.i214, label %if.then.i216, label %if.else.i218

if.then.i216:                                     ; preds = %_ZNSt3__16vectorIdNS_9allocatorIdEEE6resizeEm.exit208
  %sub.i215 = sub nsw i64 %conv78.pre-phi, %sub.ptr.div.i.i213
  tail call void @_ZNSt3__16vectorIdNS_9allocatorIdEEE8__appendEm(ptr noundef nonnull align 8 dereferenceable(24) %dy, i64 noundef %sub.i215)
  %.pre235 = load ptr, ptr %mesh, align 8, !tbaa !9
  br label %_ZNSt3__16vectorIdNS_9allocatorIdEEE6resizeEm.exit221

if.else.i218:                                     ; preds = %_ZNSt3__16vectorIdNS_9allocatorIdEEE6resizeEm.exit208
  %cmp2.i217 = icmp ult i64 %conv78.pre-phi, %sub.ptr.div.i.i213
  br i1 %cmp2.i217, label %if.then3.i220, label %_ZNSt3__16vectorIdNS_9allocatorIdEEE6resizeEm.exit221

if.then3.i220:                                    ; preds = %if.else.i218
  %add.ptr.i219 = getelementptr inbounds double, ptr %47, i64 %conv78.pre-phi
  store ptr %add.ptr.i219, ptr %__end_.i.i209, align 8, !tbaa !53
  br label %_ZNSt3__16vectorIdNS_9allocatorIdEEE6resizeEm.exit221

_ZNSt3__16vectorIdNS_9allocatorIdEEE6resizeEm.exit221: ; preds = %if.then.i216, %if.else.i218, %if.then3.i220
  %48 = phi ptr [ %.pre235, %if.then.i216 ], [ %45, %if.else.i218 ], [ %45, %if.then3.i220 ]
  %ncells81 = getelementptr inbounds %class.Mesh, ptr %48, i64 0, i32 45
  %49 = load i64, ptr %ncells81, align 8, !tbaa !24
  %conv82 = trunc i64 %49 to i32
  tail call void @_ZN4Mesh10set_boundsEi(ptr noundef nonnull align 8 dereferenceable(2192) %48, i32 noundef %conv82)
  call void @llvm.lifetime.start.p0(i64 4, ptr nonnull %lowerBound) #28
  call void @llvm.lifetime.start.p0(i64 4, ptr nonnull %upperBound) #28
  %50 = load ptr, ptr %mesh, align 8, !tbaa !9
  call void @_ZN4Mesh10get_boundsERiS0_(ptr noundef nonnull align 8 dereferenceable(2192) %50, ptr noundef nonnull align 4 dereferenceable(4) %lowerBound, ptr noundef nonnull align 4 dereferenceable(4) %upperBound)
  %51 = load i32, ptr %lowerBound, align 4, !tbaa !55
  %52 = load i32, ptr %upperBound, align 4, !tbaa !55
  %cmp225 = icmp ult i32 %51, %52
  br i1 %cmp225, label %for.body.lr.ph, label %for.cond.cleanup

for.body.lr.ph:                                   ; preds = %_ZNSt3__16vectorIdNS_9allocatorIdEEE6resizeEm.exit221
  %53 = load ptr, ptr %mesh, align 8, !tbaa !9
  %i85 = getelementptr inbounds %class.Mesh, ptr %53, i64 0, i32 64
  %54 = load ptr, ptr %i85, align 8, !tbaa !42
  %lev_ibegin = getelementptr inbounds %class.Mesh, ptr %53, i64 0, i32 26
  %level88 = getelementptr inbounds %class.Mesh, ptr %53, i64 0, i32 67
  %55 = load ptr, ptr %level88, align 8, !tbaa !44
  %56 = load ptr, ptr %lev_ibegin, align 8, !tbaa !51
  %nlft96 = getelementptr inbounds %class.Mesh, ptr %53, i64 0, i32 69
  %lev_iend = getelementptr inbounds %class.Mesh, ptr %53, i64 0, i32 27
  %57 = load ptr, ptr %lev_iend, align 8, !tbaa !51
  %nrht113 = getelementptr inbounds %class.Mesh, ptr %53, i64 0, i32 70
  %j118 = getelementptr inbounds %class.Mesh, ptr %53, i64 0, i32 65
  %58 = load ptr, ptr %j118, align 8, !tbaa !43
  %lev_jbegin = getelementptr inbounds %class.Mesh, ptr %53, i64 0, i32 28
  %59 = load ptr, ptr %lev_jbegin, align 8, !tbaa !51
  %nbot131 = getelementptr inbounds %class.Mesh, ptr %53, i64 0, i32 71
  %lev_jend = getelementptr inbounds %class.Mesh, ptr %53, i64 0, i32 29
  %60 = load ptr, ptr %lev_jend, align 8, !tbaa !51
  %ntop149 = getelementptr inbounds %class.Mesh, ptr %53, i64 0, i32 72
  %61 = zext i32 %51 to i64
  br label %for.body

for.cond.cleanup:                                 ; preds = %for.inc, %_ZNSt3__16vectorIdNS_9allocatorIdEEE6resizeEm.exit221
  call void @llvm.lifetime.end.p0(i64 4, ptr nonnull %upperBound) #28
  call void @llvm.lifetime.end.p0(i64 4, ptr nonnull %lowerBound) #28
  br label %if.end153

for.body:                                         ; preds = %for.body.lr.ph, %for.inc
  %indvars.iv = phi i64 [ %61, %for.body.lr.ph ], [ %indvars.iv.next, %for.inc ]
  %arrayidx = getelementptr inbounds i32, ptr %54, i64 %indvars.iv
  %62 = load i32, ptr %arrayidx, align 4, !tbaa !55
  %arrayidx90 = getelementptr inbounds i32, ptr %55, i64 %indvars.iv
  %63 = load i32, ptr %arrayidx90, align 4, !tbaa !55
  %conv91 = sext i32 %63 to i64
  %arrayidx.i = getelementptr inbounds i32, ptr %56, i64 %conv91
  %64 = load i32, ptr %arrayidx.i, align 4, !tbaa !55
  %cmp93 = icmp eq i32 %62, %64
  br i1 %cmp93, label %if.then94, label %if.end

if.then94:                                        ; preds = %for.body
  %65 = load ptr, ptr %nlft96, align 8, !tbaa !46
  %arrayidx98 = getelementptr inbounds i32, ptr %65, i64 %indvars.iv
  %66 = trunc i64 %indvars.iv to i32
  store i32 %66, ptr %arrayidx98, align 4, !tbaa !55
  %.pre236 = load i32, ptr %arrayidx, align 4, !tbaa !55
  %.pre237 = load i32, ptr %arrayidx90, align 4, !tbaa !55
  %.pre241 = sext i32 %.pre237 to i64
  br label %if.end

if.end:                                           ; preds = %if.then94, %for.body
  %conv108.pre-phi = phi i64 [ %.pre241, %if.then94 ], [ %conv91, %for.body ]
  %67 = phi i32 [ %.pre236, %if.then94 ], [ %62, %for.body ]
  %arrayidx.i222 = getelementptr inbounds i32, ptr %57, i64 %conv108.pre-phi
  %68 = load i32, ptr %arrayidx.i222, align 4, !tbaa !55
  %cmp110 = icmp eq i32 %67, %68
  br i1 %cmp110, label %if.then111, label %if.end116

if.then111:                                       ; preds = %if.end
  %69 = load ptr, ptr %nrht113, align 8, !tbaa !47
  %arrayidx115 = getelementptr inbounds i32, ptr %69, i64 %indvars.iv
  %70 = trunc i64 %indvars.iv to i32
  store i32 %70, ptr %arrayidx115, align 4, !tbaa !55
  %.pre238 = load i32, ptr %arrayidx90, align 4, !tbaa !55
  %.pre242 = sext i32 %.pre238 to i64
  br label %if.end116

if.end116:                                        ; preds = %if.then111, %if.end
  %conv126.pre-phi = phi i64 [ %.pre242, %if.then111 ], [ %conv108.pre-phi, %if.end ]
  %arrayidx120 = getelementptr inbounds i32, ptr %58, i64 %indvars.iv
  %71 = load i32, ptr %arrayidx120, align 4, !tbaa !55
  %arrayidx.i223 = getelementptr inbounds i32, ptr %59, i64 %conv126.pre-phi
  %72 = load i32, ptr %arrayidx.i223, align 4, !tbaa !55
  %cmp128 = icmp eq i32 %71, %72
  br i1 %cmp128, label %if.then129, label %if.end134

if.then129:                                       ; preds = %if.end116
  %73 = load ptr, ptr %nbot131, align 8, !tbaa !48
  %arrayidx133 = getelementptr inbounds i32, ptr %73, i64 %indvars.iv
  %74 = trunc i64 %indvars.iv to i32
  store i32 %74, ptr %arrayidx133, align 4, !tbaa !55
  %.pre239 = load i32, ptr %arrayidx120, align 4, !tbaa !55
  %.pre240 = load i32, ptr %arrayidx90, align 4, !tbaa !55
  %.pre243 = sext i32 %.pre240 to i64
  br label %if.end134

if.end134:                                        ; preds = %if.then129, %if.end116
  %conv144.pre-phi = phi i64 [ %.pre243, %if.then129 ], [ %conv126.pre-phi, %if.end116 ]
  %75 = phi i32 [ %.pre239, %if.then129 ], [ %71, %if.end116 ]
  %arrayidx.i224 = getelementptr inbounds i32, ptr %60, i64 %conv144.pre-phi
  %76 = load i32, ptr %arrayidx.i224, align 4, !tbaa !55
  %cmp146 = icmp eq i32 %75, %76
  br i1 %cmp146, label %if.then147, label %for.inc

if.then147:                                       ; preds = %if.end134
  %77 = load ptr, ptr %ntop149, align 8, !tbaa !49
  %arrayidx151 = getelementptr inbounds i32, ptr %77, i64 %indvars.iv
  %78 = trunc i64 %indvars.iv to i32
  store i32 %78, ptr %arrayidx151, align 4, !tbaa !55
  br label %for.inc

for.inc:                                          ; preds = %if.end134, %if.then147
  %indvars.iv.next = add nuw nsw i64 %indvars.iv, 1
  %79 = load i32, ptr %upperBound, align 4, !tbaa !55
  %80 = zext i32 %79 to i64
  %cmp = icmp ult i64 %indvars.iv.next, %80
  br i1 %cmp, label %for.body, label %for.cond.cleanup, !llvm.loop !71

if.end153:                                        ; preds = %for.cond.cleanup, %entry
  ret void
}

declare void @_ZN4Mesh10set_boundsEi(ptr noundef nonnull align 8 dereferenceable(2192), i32 noundef) local_unnamed_addr #3

; Function Attrs: mustprogress uwtable
define dso_local noundef double @_ZN5State12set_timestepEdd(ptr nocapture noundef nonnull align 8 dereferenceable(272) %this, double noundef %g, double noundef %sigma) local_unnamed_addr #2 align 2 {
entry:
  %tstart_cpu = alloca %struct.timeval, align 8
  %lowerBounds = alloca i32, align 4
  %upperBounds = alloca i32, align 4
  call void @llvm.lifetime.start.p0(i64 16, ptr nonnull %tstart_cpu) #28
  call void @cpu_timer_start(ptr noundef nonnull %tstart_cpu)
  call void @llvm.lifetime.start.p0(i64 4, ptr nonnull %lowerBounds) #28
  call void @llvm.lifetime.start.p0(i64 4, ptr nonnull %upperBounds) #28
  %mesh = getelementptr inbounds %class.State, ptr %this, i64 0, i32 2
  %0 = load ptr, ptr %mesh, align 8, !tbaa !9
  %ncells = getelementptr inbounds %class.Mesh, ptr %0, i64 0, i32 45
  %1 = load i64, ptr %ncells, align 8, !tbaa !24
  %conv = trunc i64 %1 to i32
  call void @_ZN4Mesh10set_boundsEi(ptr noundef nonnull align 8 dereferenceable(2192) %0, i32 noundef %conv)
  %2 = load ptr, ptr %mesh, align 8, !tbaa !9
  call void @_ZN4Mesh10get_boundsERiS0_(ptr noundef nonnull align 8 dereferenceable(2192) %2, ptr noundef nonnull align 4 dereferenceable(4) %lowerBounds, ptr noundef nonnull align 4 dereferenceable(4) %upperBounds)
  store double 1.000000e+03, ptr @_ZZN5State12set_timestepEddE9mindeltaT, align 8, !tbaa !62
  %3 = load i32, ptr %lowerBounds, align 4, !tbaa !55
  %4 = load i32, ptr %upperBounds, align 4, !tbaa !55
  %cmp46 = icmp slt i32 %3, %4
  br i1 %cmp46, label %for.body.lr.ph, label %if.end30

for.body.lr.ph:                                   ; preds = %entry
  %H = getelementptr inbounds %class.State, ptr %this, i64 0, i32 3
  %U = getelementptr inbounds %class.State, ptr %this, i64 0, i32 4
  %V = getelementptr inbounds %class.State, ptr %this, i64 0, i32 5
  %5 = sext i32 %3 to i64
  %.pre = load ptr, ptr %mesh, align 8, !tbaa !9
  br label %for.body

for.cond.cleanup:                                 ; preds = %for.inc
  %.pre51 = load double, ptr @_ZZN5State12set_timestepEddE9mindeltaT, align 8, !tbaa !62
  %cmp28 = fcmp olt double %mymindeltaT.2, %.pre51
  br i1 %cmp28, label %if.then29, label %if.end30

for.body:                                         ; preds = %for.body.lr.ph, %for.inc
  %6 = phi i32 [ %4, %for.body.lr.ph ], [ %33, %for.inc ]
  %7 = phi ptr [ %.pre, %for.body.lr.ph ], [ %34, %for.inc ]
  %indvars.iv = phi i64 [ %5, %for.body.lr.ph ], [ %indvars.iv.next, %for.inc ]
  %mymindeltaT.048 = phi double [ 1.000000e+03, %for.body.lr.ph ], [ %mymindeltaT.2, %for.inc ]
  %celltype = getelementptr inbounds %class.Mesh, ptr %7, i64 0, i32 68
  %8 = load ptr, ptr %celltype, align 8, !tbaa !45
  %arrayidx = getelementptr inbounds i32, ptr %8, i64 %indvars.iv
  %9 = load i32, ptr %arrayidx, align 4, !tbaa !55
  %cmp5 = icmp eq i32 %9, 1
  br i1 %cmp5, label %if.then, label %for.inc

if.then:                                          ; preds = %for.body
  %level = getelementptr inbounds %class.Mesh, ptr %7, i64 0, i32 67
  %10 = load ptr, ptr %level, align 8, !tbaa !44
  %arrayidx8 = getelementptr inbounds i32, ptr %10, i64 %indvars.iv
  %11 = load i32, ptr %arrayidx8, align 4, !tbaa !55
  %12 = load ptr, ptr %H, align 8, !tbaa !39
  %arrayidx10 = getelementptr inbounds double, ptr %12, i64 %indvars.iv
  %13 = load double, ptr %arrayidx10, align 8, !tbaa !62
  %mul = fmul double %13, %g
  %call = call double @sqrt(double noundef %mul) #28
  %14 = load ptr, ptr %U, align 8, !tbaa !40
  %arrayidx12 = getelementptr inbounds double, ptr %14, i64 %indvars.iv
  %15 = load ptr, ptr %mesh, align 8, !tbaa !9
  %lev_deltax = getelementptr inbounds %class.Mesh, ptr %15, i64 0, i32 33
  %conv14 = sext i32 %11 to i64
  %16 = load ptr, ptr %lev_deltax, align 8, !tbaa !54
  %arrayidx.i = getelementptr inbounds double, ptr %16, i64 %conv14
  %17 = load ptr, ptr %V, align 8, !tbaa !41
  %arrayidx17 = getelementptr inbounds double, ptr %17, i64 %indvars.iv
  %lev_deltay = getelementptr inbounds %class.Mesh, ptr %15, i64 0, i32 34
  %18 = load ptr, ptr %lev_deltay, align 8, !tbaa !54
  %arrayidx.i45 = getelementptr inbounds double, ptr %18, i64 %conv14
  %19 = load double, ptr %arrayidx12, align 8, !tbaa !62
  %20 = load double, ptr %arrayidx.i, align 8, !tbaa !62
  %21 = load double, ptr %arrayidx17, align 8, !tbaa !62
  %22 = insertelement <2 x double> poison, double %19, i64 0
  %23 = insertelement <2 x double> %22, double %21, i64 1
  %24 = call <2 x double> @llvm.fabs.v2f64(<2 x double> %23)
  %25 = insertelement <2 x double> poison, double %call, i64 0
  %26 = shufflevector <2 x double> %25, <2 x double> poison, <2 x i32> zeroinitializer
  %27 = fadd <2 x double> %26, %24
  %28 = load double, ptr %arrayidx.i45, align 8, !tbaa !62
  %29 = insertelement <2 x double> poison, double %20, i64 0
  %30 = insertelement <2 x double> %29, double %28, i64 1
  %31 = fdiv <2 x double> %27, %30
  %shift = shufflevector <2 x double> %31, <2 x double> poison, <2 x i32> <i32 1, i32 undef>
  %32 = fadd <2 x double> %31, %shift
  %add23 = extractelement <2 x double> %32, i64 0
  %div24 = fdiv double %sigma, %add23
  %cmp25 = fcmp olt double %div24, %mymindeltaT.048
  %mymindeltaT.1 = select i1 %cmp25, double %div24, double %mymindeltaT.048
  %.pre50 = load i32, ptr %upperBounds, align 4, !tbaa !55
  br label %for.inc

for.inc:                                          ; preds = %for.body, %if.then
  %33 = phi i32 [ %.pre50, %if.then ], [ %6, %for.body ]
  %34 = phi ptr [ %15, %if.then ], [ %7, %for.body ]
  %mymindeltaT.2 = phi double [ %mymindeltaT.1, %if.then ], [ %mymindeltaT.048, %for.body ]
  %indvars.iv.next = add nsw i64 %indvars.iv, 1
  %35 = sext i32 %33 to i64
  %cmp = icmp slt i64 %indvars.iv.next, %35
  br i1 %cmp, label %for.body, label %for.cond.cleanup, !llvm.loop !72

if.then29:                                        ; preds = %for.cond.cleanup
  store double %mymindeltaT.2, ptr @_ZZN5State12set_timestepEddE9mindeltaT, align 8, !tbaa !62
  br label %if.end30

if.end30:                                         ; preds = %entry, %if.then29, %for.cond.cleanup
  %36 = phi double [ %mymindeltaT.2, %if.then29 ], [ %.pre51, %for.cond.cleanup ], [ 1.000000e+03, %entry ]
  %agg.tmp.sroa.0.0.copyload = load i64, ptr %tstart_cpu, align 8, !tbaa.struct !64
  %agg.tmp.sroa.2.0.tstart_cpu.sroa_idx = getelementptr inbounds i8, ptr %tstart_cpu, i64 8
  %agg.tmp.sroa.2.0.copyload = load i64, ptr %agg.tmp.sroa.2.0.tstart_cpu.sroa_idx, align 8, !tbaa.struct !65
  %call31 = call double @cpu_timer_stop(i64 %agg.tmp.sroa.0.0.copyload, i64 %agg.tmp.sroa.2.0.copyload)
  %arrayidx32 = getelementptr inbounds %class.State, ptr %this, i64 0, i32 6, i64 1
  %37 = load double, ptr %arrayidx32, align 8, !tbaa !62
  %add33 = fadd double %call31, %37
  store double %add33, ptr %arrayidx32, align 8, !tbaa !62
  call void @llvm.lifetime.end.p0(i64 4, ptr nonnull %upperBounds) #28
  call void @llvm.lifetime.end.p0(i64 4, ptr nonnull %lowerBounds) #28
  call void @llvm.lifetime.end.p0(i64 16, ptr nonnull %tstart_cpu) #28
  ret double %36
}

; Function Attrs: mustprogress nofree nounwind willreturn memory(write)
declare double @sqrt(double noundef) local_unnamed_addr #5

; Function Attrs: mustprogress nocallback nofree nosync nounwind speculatable willreturn memory(none)
declare double @llvm.fabs.f64(double) #6

; Function Attrs: uwtable
define dso_local void @_ZN5State11fill_circleEddd(ptr nocapture noundef nonnull readonly align 8 dereferenceable(272) %this, double noundef %circ_radius, double noundef %fill_value, double noundef %background) local_unnamed_addr #7 align 2 personality ptr @__gxx_personality_v0 {
entry:
  %nez = alloca i32, align 4
  %ind = alloca %"class.std::__1::vector", align 8
  %weight = alloca %"class.std::__1::vector.22", align 8
  %mesh = getelementptr inbounds %class.State, ptr %this, i64 0, i32 2
  %0 = load ptr, ptr %mesh, align 8, !tbaa !9
  %ncells2 = getelementptr inbounds %class.Mesh, ptr %0, i64 0, i32 45
  %x4 = getelementptr inbounds %class.Mesh, ptr %0, i64 0, i32 75
  %dx6 = getelementptr inbounds %class.Mesh, ptr %0, i64 0, i32 76
  %y8 = getelementptr inbounds %class.Mesh, ptr %0, i64 0, i32 77
  %dy10 = getelementptr inbounds %class.Mesh, ptr %0, i64 0, i32 78
  %1 = load i64, ptr %ncells2, align 8, !tbaa !50
  %cmp128.not = icmp eq i64 %1, 0
  br i1 %cmp128.not, label %for.cond.cleanup, label %for.body.lr.ph

for.body.lr.ph:                                   ; preds = %entry
  %H = getelementptr inbounds %class.State, ptr %this, i64 0, i32 3
  %2 = load ptr, ptr %H, align 8, !tbaa !39
  %V = getelementptr inbounds %class.State, ptr %this, i64 0, i32 5
  %3 = load ptr, ptr %V, align 8, !tbaa !41
  %U = getelementptr inbounds %class.State, ptr %this, i64 0, i32 4
  %4 = load ptr, ptr %U, align 8, !tbaa !40
  br label %for.body

for.cond.cleanup:                                 ; preds = %for.body, %entry
  tail call void @_ZN4Mesh12kdtree_setupEv(ptr noundef nonnull align 8 dereferenceable(2192) %0)
  call void @llvm.lifetime.start.p0(i64 4, ptr nonnull %nez) #28
  call void @llvm.lifetime.start.p0(i64 24, ptr nonnull %ind) #28
  %5 = load i64, ptr %ncells2, align 8, !tbaa !50
  %__end_.i = getelementptr inbounds %"class.std::__1::vector", ptr %ind, i64 0, i32 1
  %cmp.not.i = icmp eq i64 %5, 0
  call void @llvm.memset.p0.i64(ptr noundef nonnull align 8 dereferenceable(24) %ind, i8 0, i64 24, i1 false)
  br i1 %cmp.not.i, label %_ZNSt3__16vectorIiNS_9allocatorIiEEEC2Em.exit.thread, label %if.then.i

_ZNSt3__16vectorIiNS_9allocatorIiEEEC2Em.exit.thread: ; preds = %for.cond.cleanup
  call void @llvm.lifetime.start.p0(i64 24, ptr nonnull %weight) #28
  %__end_.i96124 = getelementptr inbounds %"class.std::__1::vector.22", ptr %weight, i64 0, i32 1
  br label %invoke.cont

if.then.i:                                        ; preds = %for.cond.cleanup
  %cmp.i.i = icmp ugt i64 %5, 4611686018427387903
  br i1 %cmp.i.i, label %if.then.i.i, label %_ZNSt3__119__allocate_at_leastB7v170000INS_9allocatorIiEEEENS_19__allocation_resultINS_16allocator_traitsIT_E7pointerEEERS5_m.exit.i.i

if.then.i.i:                                      ; preds = %if.then.i
  invoke void @_ZNKSt3__16vectorIiNS_9allocatorIiEEE20__throw_length_errorB7v170000Ev(ptr noundef nonnull align 8 dereferenceable(24) %ind) #29
          to label %.noexc.i unwind label %if.then.i9.i

.noexc.i:                                         ; preds = %if.then.i.i
  unreachable

_ZNSt3__119__allocate_at_leastB7v170000INS_9allocatorIiEEEENS_19__allocation_resultINS_16allocator_traitsIT_E7pointerEEERS5_m.exit.i.i: ; preds = %if.then.i
  %mul.i.i.i.i = shl nuw i64 %5, 2
  %call.i5.i.i.i.i8.i = invoke noalias noundef nonnull ptr @_Znwm(i64 noundef %mul.i.i.i.i) #30
          to label %_ZNSt3__16vectorIiNS_9allocatorIiEEEC2Em.exit unwind label %if.then.i9.i

if.then.i9.i:                                     ; preds = %_ZNSt3__119__allocate_at_leastB7v170000INS_9allocatorIiEEEENS_19__allocation_resultINS_16allocator_traitsIT_E7pointerEEERS5_m.exit.i.i, %if.then.i.i
  %6 = landingpad { ptr, i32 }
          cleanup
  %7 = load ptr, ptr %ind, align 8, !tbaa !51
  %cmp.not.i.i.i = icmp eq ptr %7, null
  br i1 %cmp.not.i.i.i, label %common.resume, label %if.then.i.i.i

if.then.i.i.i:                                    ; preds = %if.then.i9.i
  store ptr %7, ptr %__end_.i, align 8, !tbaa !52
  call void @_ZdlPv(ptr noundef nonnull %7) #31
  br label %common.resume

common.resume:                                    ; preds = %if.then.i9.i, %if.then.i.i.i, %_ZNSt3__16vectorIiNS_9allocatorIiEEED2B7v170000Ev.exit123
  %common.resume.op = phi { ptr, i32 } [ %.pn146, %_ZNSt3__16vectorIiNS_9allocatorIiEEED2B7v170000Ev.exit123 ], [ %6, %if.then.i.i.i ], [ %6, %if.then.i9.i ]
  resume { ptr, i32 } %common.resume.op

_ZNSt3__16vectorIiNS_9allocatorIiEEEC2Em.exit:    ; preds = %_ZNSt3__119__allocate_at_leastB7v170000INS_9allocatorIiEEEENS_19__allocation_resultINS_16allocator_traitsIT_E7pointerEEERS5_m.exit.i.i
  tail call void @llvm.memset.p0.i64(ptr nonnull align 4 %call.i5.i.i.i.i8.i, i8 0, i64 %mul.i.i.i.i, i1 false), !tbaa !55
  %.pr = load i64, ptr %ncells2, align 8, !tbaa !50
  call void @llvm.lifetime.start.p0(i64 24, ptr nonnull %weight) #28
  %__end_.i96 = getelementptr inbounds %"class.std::__1::vector.22", ptr %weight, i64 0, i32 1
  %__end_cap_.i97 = getelementptr inbounds %"class.std::__1::vector.22", ptr %weight, i64 0, i32 2
  %cmp.not.i98 = icmp eq i64 %.pr, 0
  call void @llvm.memset.p0.i64(ptr noundef nonnull align 8 dereferenceable(24) %weight, i8 0, i64 24, i1 false)
  br i1 %cmp.not.i98, label %invoke.cont, label %if.then.i100

if.then.i100:                                     ; preds = %_ZNSt3__16vectorIiNS_9allocatorIiEEEC2Em.exit
  %cmp.i.i99 = icmp ugt i64 %.pr, 2305843009213693951
  br i1 %cmp.i.i99, label %if.then.i.i101, label %_ZNSt3__119__allocate_at_leastB7v170000INS_9allocatorIdEEEENS_19__allocation_resultINS_16allocator_traitsIT_E7pointerEEERS5_m.exit.i.i

if.then.i.i101:                                   ; preds = %if.then.i100
  invoke void @_ZNKSt3__16vectorIdNS_9allocatorIdEEE20__throw_length_errorB7v170000Ev(ptr noundef nonnull align 8 dereferenceable(24) %weight) #29
          to label %.noexc.i102 unwind label %if.then.i9.i108

.noexc.i102:                                      ; preds = %if.then.i.i101
  unreachable

_ZNSt3__119__allocate_at_leastB7v170000INS_9allocatorIdEEEENS_19__allocation_resultINS_16allocator_traitsIT_E7pointerEEERS5_m.exit.i.i: ; preds = %if.then.i100
  %mul.i.i.i.i103 = shl nuw i64 %.pr, 3
  %call.i5.i.i.i.i8.i104 = invoke noalias noundef nonnull ptr @_Znwm(i64 noundef %mul.i.i.i.i103) #30
          to label %_ZNSt3__16vectorIdNS_9allocatorIdEEE18__construct_at_endEm.exit.i unwind label %if.then.i9.i108

_ZNSt3__16vectorIdNS_9allocatorIdEEE18__construct_at_endEm.exit.i: ; preds = %_ZNSt3__119__allocate_at_leastB7v170000INS_9allocatorIdEEEENS_19__allocation_resultINS_16allocator_traitsIT_E7pointerEEERS5_m.exit.i.i
  store ptr %call.i5.i.i.i.i8.i104, ptr %weight, align 8, !tbaa !54
  %add.ptr.i.i105 = getelementptr inbounds double, ptr %call.i5.i.i.i.i8.i104, i64 %.pr
  store ptr %add.ptr.i.i105, ptr %__end_cap_.i97, align 8, !tbaa !5
  tail call void @llvm.memset.p0.i64(ptr nonnull align 8 %call.i5.i.i.i.i8.i104, i8 0, i64 %mul.i.i.i.i103, i1 false), !tbaa !62
  %.pre = load i64, ptr %ncells2, align 8, !tbaa !50
  %8 = trunc i64 %.pre to i32
  br label %invoke.cont

if.then.i9.i108:                                  ; preds = %_ZNSt3__119__allocate_at_leastB7v170000INS_9allocatorIdEEEENS_19__allocation_resultINS_16allocator_traitsIT_E7pointerEEERS5_m.exit.i.i, %if.then.i.i101
  %9 = landingpad { ptr, i32 }
          cleanup
  %10 = load ptr, ptr %weight, align 8, !tbaa !54
  %cmp.not.i.i.i107 = icmp eq ptr %10, null
  br i1 %cmp.not.i.i.i107, label %ehcleanup.thread, label %if.then.i.i.i109

if.then.i.i.i109:                                 ; preds = %if.then.i9.i108
  store ptr %10, ptr %__end_.i96, align 8, !tbaa !53
  call void @_ZdlPv(ptr noundef nonnull %10) #31
  br label %ehcleanup.thread

for.body:                                         ; preds = %for.body.lr.ph, %for.body
  %conv130 = phi i64 [ 0, %for.body.lr.ph ], [ %conv, %for.body ]
  %arrayidx = getelementptr inbounds double, ptr %2, i64 %conv130
  store double %background, ptr %arrayidx, align 8, !tbaa !62
  %arrayidx12 = getelementptr inbounds double, ptr %3, i64 %conv130
  store double 0.000000e+00, ptr %arrayidx12, align 8, !tbaa !62
  %arrayidx14 = getelementptr inbounds double, ptr %4, i64 %conv130
  store double 0.000000e+00, ptr %arrayidx14, align 8, !tbaa !62
  %inc = add nuw nsw i64 %conv130, 1
  %conv = and i64 %inc, 4294967295
  %cmp = icmp ugt i64 %1, %conv
  br i1 %cmp, label %for.body, label %for.cond.cleanup, !llvm.loop !73

invoke.cont:                                      ; preds = %_ZNSt3__16vectorIdNS_9allocatorIdEEE18__construct_at_endEm.exit.i, %_ZNSt3__16vectorIiNS_9allocatorIiEEEC2Em.exit, %_ZNSt3__16vectorIiNS_9allocatorIiEEEC2Em.exit.thread
  %11 = phi ptr [ null, %_ZNSt3__16vectorIiNS_9allocatorIiEEEC2Em.exit.thread ], [ null, %_ZNSt3__16vectorIiNS_9allocatorIiEEEC2Em.exit ], [ %call.i5.i.i.i.i8.i104, %_ZNSt3__16vectorIdNS_9allocatorIdEEE18__construct_at_endEm.exit.i ]
  %conv17 = phi i32 [ 0, %_ZNSt3__16vectorIiNS_9allocatorIiEEEC2Em.exit.thread ], [ 0, %_ZNSt3__16vectorIiNS_9allocatorIiEEEC2Em.exit ], [ %8, %_ZNSt3__16vectorIdNS_9allocatorIdEEE18__construct_at_endEm.exit.i ]
  %12 = phi ptr [ null, %_ZNSt3__16vectorIiNS_9allocatorIiEEEC2Em.exit.thread ], [ %call.i5.i.i.i.i8.i, %_ZNSt3__16vectorIiNS_9allocatorIiEEEC2Em.exit ], [ %call.i5.i.i.i.i8.i, %_ZNSt3__16vectorIdNS_9allocatorIdEEE18__construct_at_endEm.exit.i ]
  %__end_.i96127 = phi ptr [ %__end_.i96124, %_ZNSt3__16vectorIiNS_9allocatorIiEEEC2Em.exit.thread ], [ %__end_.i96, %_ZNSt3__16vectorIiNS_9allocatorIiEEEC2Em.exit ], [ %__end_.i96, %_ZNSt3__16vectorIdNS_9allocatorIdEEE18__construct_at_endEm.exit.i ]
  %13 = load ptr, ptr %mesh, align 8, !tbaa !9
  %tree = getelementptr inbounds %class.Mesh, ptr %13, i64 0, i32 24
  %14 = load ptr, ptr %x4, align 8, !tbaa !54
  %15 = load ptr, ptr %dx6, align 8, !tbaa !54
  %16 = load ptr, ptr %y8, align 8, !tbaa !54
  %17 = load ptr, ptr %dy10, align 8, !tbaa !54
  invoke void @KDTree_QueryCircleInterior_Double(ptr noundef nonnull %tree, ptr noundef nonnull %nez, ptr noundef nonnull %12, double noundef %circ_radius, i32 noundef %conv17, ptr noundef nonnull %14, ptr noundef nonnull %15, ptr noundef nonnull %16, ptr noundef nonnull %17)
          to label %for.cond25.preheader unwind label %lpad22

for.cond25.preheader:                             ; preds = %invoke.cont
  %18 = load i32, ptr %nez, align 4, !tbaa !55
  %cmp26131 = icmp sgt i32 %18, 0
  br i1 %cmp26131, label %for.body28.lr.ph, label %for.cond.cleanup27

for.body28.lr.ph:                                 ; preds = %for.cond25.preheader
  %H29 = getelementptr inbounds %class.State, ptr %this, i64 0, i32 3
  %19 = load ptr, ptr %H29, align 8, !tbaa !39
  %wide.trip.count = zext i32 %18 to i64
  %xtraiter = and i64 %wide.trip.count, 3
  %20 = icmp ult i32 %18, 4
  br i1 %20, label %for.cond.cleanup27.loopexit.unr-lcssa, label %for.body28.lr.ph.new

for.body28.lr.ph.new:                             ; preds = %for.body28.lr.ph
  %unroll_iter = and i64 %wide.trip.count, 4294967292
  br label %for.body28

for.cond.cleanup27.loopexit.unr-lcssa:            ; preds = %for.body28, %for.body28.lr.ph
  %indvars.iv.unr = phi i64 [ 0, %for.body28.lr.ph ], [ %indvars.iv.next.3, %for.body28 ]
  %lcmp.mod.not = icmp eq i64 %xtraiter, 0
  br i1 %lcmp.mod.not, label %for.cond.cleanup27, label %for.body28.epil

for.body28.epil:                                  ; preds = %for.cond.cleanup27.loopexit.unr-lcssa, %for.body28.epil
  %indvars.iv.epil = phi i64 [ %indvars.iv.next.epil, %for.body28.epil ], [ %indvars.iv.unr, %for.cond.cleanup27.loopexit.unr-lcssa ]
  %epil.iter = phi i64 [ %epil.iter.next, %for.body28.epil ], [ 0, %for.cond.cleanup27.loopexit.unr-lcssa ]
  %arrayidx.i.epil = getelementptr inbounds i32, ptr %12, i64 %indvars.iv.epil
  %21 = load i32, ptr %arrayidx.i.epil, align 4, !tbaa !55
  %idxprom32.epil = sext i32 %21 to i64
  %arrayidx33.epil = getelementptr inbounds double, ptr %19, i64 %idxprom32.epil
  store double %fill_value, ptr %arrayidx33.epil, align 8, !tbaa !62
  %indvars.iv.next.epil = add nuw nsw i64 %indvars.iv.epil, 1
  %epil.iter.next = add i64 %epil.iter, 1
  %epil.iter.cmp.not = icmp eq i64 %epil.iter.next, %xtraiter
  br i1 %epil.iter.cmp.not, label %for.cond.cleanup27, label %for.body28.epil, !llvm.loop !74

for.cond.cleanup27:                               ; preds = %for.cond.cleanup27.loopexit.unr-lcssa, %for.body28.epil, %for.cond25.preheader
  %22 = load ptr, ptr %mesh, align 8, !tbaa !9
  %tree38 = getelementptr inbounds %class.Mesh, ptr %22, i64 0, i32 24
  %23 = load i64, ptr %ncells2, align 8, !tbaa !50
  %conv41 = trunc i64 %23 to i32
  %24 = load ptr, ptr %x4, align 8, !tbaa !54
  %25 = load ptr, ptr %dx6, align 8, !tbaa !54
  %26 = load ptr, ptr %y8, align 8, !tbaa !54
  %27 = load ptr, ptr %dy10, align 8, !tbaa !54
  invoke void @KDTree_QueryCircleIntersectWeighted_Double(ptr noundef nonnull %tree38, ptr noundef nonnull %nez, ptr noundef nonnull %12, ptr noundef nonnull %11, double noundef %circ_radius, i32 noundef %conv41, ptr noundef nonnull %24, ptr noundef nonnull %25, ptr noundef nonnull %26, ptr noundef nonnull %27)
          to label %for.cond48.preheader unwind label %lpad22

for.cond48.preheader:                             ; preds = %for.cond.cleanup27
  %28 = load i32, ptr %nez, align 4, !tbaa !55
  %cmp49133 = icmp sgt i32 %28, 0
  br i1 %cmp49133, label %for.body51.lr.ph, label %for.cond.cleanup50

for.body51.lr.ph:                                 ; preds = %for.cond48.preheader
  %sub = fsub double %fill_value, %background
  %H54 = getelementptr inbounds %class.State, ptr %this, i64 0, i32 3
  %29 = load ptr, ptr %H54, align 8, !tbaa !39
  %wide.trip.count141 = zext i32 %28 to i64
  %xtraiter147 = and i64 %wide.trip.count141, 1
  %30 = icmp eq i32 %28, 1
  br i1 %30, label %for.cond.cleanup50.loopexit.unr-lcssa, label %for.body51.lr.ph.new

for.body51.lr.ph.new:                             ; preds = %for.body51.lr.ph
  %unroll_iter150 = and i64 %wide.trip.count141, 4294967294
  br label %for.body51

lpad22:                                           ; preds = %for.cond.cleanup50, %for.cond.cleanup27, %invoke.cont
  %31 = landingpad { ptr, i32 }
          cleanup
  %cmp.not.i.i = icmp eq ptr %11, null
  br i1 %cmp.not.i.i, label %ehcleanup, label %if.then.i.i110

if.then.i.i110:                                   ; preds = %lpad22
  store ptr %11, ptr %__end_.i96127, align 8, !tbaa !53
  call void @_ZdlPv(ptr noundef nonnull %11) #31
  br label %ehcleanup

for.body28:                                       ; preds = %for.body28, %for.body28.lr.ph.new
  %indvars.iv = phi i64 [ 0, %for.body28.lr.ph.new ], [ %indvars.iv.next.3, %for.body28 ]
  %niter = phi i64 [ 0, %for.body28.lr.ph.new ], [ %niter.next.3, %for.body28 ]
  %arrayidx.i = getelementptr inbounds i32, ptr %12, i64 %indvars.iv
  %32 = load i32, ptr %arrayidx.i, align 4, !tbaa !55
  %idxprom32 = sext i32 %32 to i64
  %arrayidx33 = getelementptr inbounds double, ptr %19, i64 %idxprom32
  store double %fill_value, ptr %arrayidx33, align 8, !tbaa !62
  %indvars.iv.next = or i64 %indvars.iv, 1
  %arrayidx.i.1 = getelementptr inbounds i32, ptr %12, i64 %indvars.iv.next
  %33 = load i32, ptr %arrayidx.i.1, align 4, !tbaa !55
  %idxprom32.1 = sext i32 %33 to i64
  %arrayidx33.1 = getelementptr inbounds double, ptr %19, i64 %idxprom32.1
  store double %fill_value, ptr %arrayidx33.1, align 8, !tbaa !62
  %indvars.iv.next.1 = or i64 %indvars.iv, 2
  %arrayidx.i.2 = getelementptr inbounds i32, ptr %12, i64 %indvars.iv.next.1
  %34 = load i32, ptr %arrayidx.i.2, align 4, !tbaa !55
  %idxprom32.2 = sext i32 %34 to i64
  %arrayidx33.2 = getelementptr inbounds double, ptr %19, i64 %idxprom32.2
  store double %fill_value, ptr %arrayidx33.2, align 8, !tbaa !62
  %indvars.iv.next.2 = or i64 %indvars.iv, 3
  %arrayidx.i.3 = getelementptr inbounds i32, ptr %12, i64 %indvars.iv.next.2
  %35 = load i32, ptr %arrayidx.i.3, align 4, !tbaa !55
  %idxprom32.3 = sext i32 %35 to i64
  %arrayidx33.3 = getelementptr inbounds double, ptr %19, i64 %idxprom32.3
  store double %fill_value, ptr %arrayidx33.3, align 8, !tbaa !62
  %indvars.iv.next.3 = add nuw nsw i64 %indvars.iv, 4
  %niter.next.3 = add i64 %niter, 4
  %niter.ncmp.3 = icmp eq i64 %niter.next.3, %unroll_iter
  br i1 %niter.ncmp.3, label %for.cond.cleanup27.loopexit.unr-lcssa, label %for.body28, !llvm.loop !76

for.cond.cleanup50.loopexit.unr-lcssa:            ; preds = %for.body51, %for.body51.lr.ph
  %indvars.iv137.unr = phi i64 [ 0, %for.body51.lr.ph ], [ %indvars.iv.next138.1, %for.body51 ]
  %lcmp.mod149.not = icmp eq i64 %xtraiter147, 0
  br i1 %lcmp.mod149.not, label %for.cond.cleanup50, label %for.body51.epil

for.body51.epil:                                  ; preds = %for.cond.cleanup50.loopexit.unr-lcssa
  %arrayidx.i111.epil = getelementptr inbounds double, ptr %11, i64 %indvars.iv137.unr
  %36 = load double, ptr %arrayidx.i111.epil, align 8, !tbaa !62
  %mul.epil = fmul double %sub, %36
  %add.epil = fadd double %mul.epil, %background
  %arrayidx.i112.epil = getelementptr inbounds i32, ptr %12, i64 %indvars.iv137.unr
  %37 = load i32, ptr %arrayidx.i112.epil, align 4, !tbaa !55
  %idxprom57.epil = sext i32 %37 to i64
  %arrayidx58.epil = getelementptr inbounds double, ptr %29, i64 %idxprom57.epil
  store double %add.epil, ptr %arrayidx58.epil, align 8, !tbaa !62
  br label %for.cond.cleanup50

for.cond.cleanup50:                               ; preds = %for.body51.epil, %for.cond.cleanup50.loopexit.unr-lcssa, %for.cond48.preheader
  %38 = load ptr, ptr %mesh, align 8, !tbaa !9
  %tree63 = getelementptr inbounds %class.Mesh, ptr %38, i64 0, i32 24
  invoke void @KDTree_Destroy(ptr noundef nonnull %tree63)
          to label %invoke.cont64 unwind label %lpad22

for.body51:                                       ; preds = %for.body51, %for.body51.lr.ph.new
  %indvars.iv137 = phi i64 [ 0, %for.body51.lr.ph.new ], [ %indvars.iv.next138.1, %for.body51 ]
  %niter151 = phi i64 [ 0, %for.body51.lr.ph.new ], [ %niter151.next.1, %for.body51 ]
  %arrayidx.i111 = getelementptr inbounds double, ptr %11, i64 %indvars.iv137
  %39 = load double, ptr %arrayidx.i111, align 8, !tbaa !62
  %mul = fmul double %sub, %39
  %add = fadd double %mul, %background
  %arrayidx.i112 = getelementptr inbounds i32, ptr %12, i64 %indvars.iv137
  %40 = load i32, ptr %arrayidx.i112, align 4, !tbaa !55
  %idxprom57 = sext i32 %40 to i64
  %arrayidx58 = getelementptr inbounds double, ptr %29, i64 %idxprom57
  store double %add, ptr %arrayidx58, align 8, !tbaa !62
  %indvars.iv.next138 = or i64 %indvars.iv137, 1
  %arrayidx.i111.1 = getelementptr inbounds double, ptr %11, i64 %indvars.iv.next138
  %41 = load double, ptr %arrayidx.i111.1, align 8, !tbaa !62
  %mul.1 = fmul double %sub, %41
  %add.1 = fadd double %mul.1, %background
  %arrayidx.i112.1 = getelementptr inbounds i32, ptr %12, i64 %indvars.iv.next138
  %42 = load i32, ptr %arrayidx.i112.1, align 4, !tbaa !55
  %idxprom57.1 = sext i32 %42 to i64
  %arrayidx58.1 = getelementptr inbounds double, ptr %29, i64 %idxprom57.1
  store double %add.1, ptr %arrayidx58.1, align 8, !tbaa !62
  %indvars.iv.next138.1 = add nuw nsw i64 %indvars.iv137, 2
  %niter151.next.1 = add i64 %niter151, 2
  %niter151.ncmp.1 = icmp eq i64 %niter151.next.1, %unroll_iter150
  br i1 %niter151.ncmp.1, label %for.cond.cleanup50.loopexit.unr-lcssa, label %for.body51, !llvm.loop !77

invoke.cont64:                                    ; preds = %for.cond.cleanup50
  %cmp.not.i.i113 = icmp eq ptr %11, null
  br i1 %cmp.not.i.i113, label %_ZNSt3__16vectorIdNS_9allocatorIdEEED2B7v170000Ev.exit116, label %if.then.i.i115

if.then.i.i115:                                   ; preds = %invoke.cont64
  store ptr %11, ptr %__end_.i96127, align 8, !tbaa !53
  call void @_ZdlPv(ptr noundef nonnull %11) #31
  br label %_ZNSt3__16vectorIdNS_9allocatorIdEEED2B7v170000Ev.exit116

_ZNSt3__16vectorIdNS_9allocatorIdEEED2B7v170000Ev.exit116: ; preds = %invoke.cont64, %if.then.i.i115
  call void @llvm.lifetime.end.p0(i64 24, ptr nonnull %weight) #28
  %cmp.not.i.i117 = icmp eq ptr %12, null
  br i1 %cmp.not.i.i117, label %_ZNSt3__16vectorIiNS_9allocatorIiEEED2B7v170000Ev.exit, label %if.then.i.i119

if.then.i.i119:                                   ; preds = %_ZNSt3__16vectorIdNS_9allocatorIdEEED2B7v170000Ev.exit116
  call void @_ZdlPv(ptr noundef nonnull %12) #31
  br label %_ZNSt3__16vectorIiNS_9allocatorIiEEED2B7v170000Ev.exit

_ZNSt3__16vectorIiNS_9allocatorIiEEED2B7v170000Ev.exit: ; preds = %_ZNSt3__16vectorIdNS_9allocatorIdEEED2B7v170000Ev.exit116, %if.then.i.i119
  call void @llvm.lifetime.end.p0(i64 24, ptr nonnull %ind) #28
  call void @llvm.lifetime.end.p0(i64 4, ptr nonnull %nez) #28
  ret void

ehcleanup.thread:                                 ; preds = %if.then.i.i.i109, %if.then.i9.i108
  call void @llvm.lifetime.end.p0(i64 24, ptr nonnull %weight) #28
  br label %if.then.i.i122

ehcleanup:                                        ; preds = %if.then.i.i110, %lpad22
  call void @llvm.lifetime.end.p0(i64 24, ptr nonnull %weight) #28
  %cmp.not.i.i120 = icmp eq ptr %12, null
  br i1 %cmp.not.i.i120, label %_ZNSt3__16vectorIiNS_9allocatorIiEEED2B7v170000Ev.exit123, label %if.then.i.i122

if.then.i.i122:                                   ; preds = %ehcleanup.thread, %ehcleanup
  %.pn145 = phi { ptr, i32 } [ %9, %ehcleanup.thread ], [ %31, %ehcleanup ]
  %43 = phi ptr [ %call.i5.i.i.i.i8.i, %ehcleanup.thread ], [ %12, %ehcleanup ]
  call void @_ZdlPv(ptr noundef nonnull %43) #31
  br label %_ZNSt3__16vectorIiNS_9allocatorIiEEED2B7v170000Ev.exit123

_ZNSt3__16vectorIiNS_9allocatorIiEEED2B7v170000Ev.exit123: ; preds = %ehcleanup, %if.then.i.i122
  %.pn146 = phi { ptr, i32 } [ %31, %ehcleanup ], [ %.pn145, %if.then.i.i122 ]
  call void @llvm.lifetime.end.p0(i64 24, ptr nonnull %ind) #28
  call void @llvm.lifetime.end.p0(i64 4, ptr nonnull %nez) #28
  br label %common.resume
}

declare void @_ZN4Mesh12kdtree_setupEv(ptr noundef nonnull align 8 dereferenceable(2192)) local_unnamed_addr #3

declare i32 @__gxx_personality_v0(...)

declare void @KDTree_QueryCircleInterior_Double(ptr noundef, ptr noundef, ptr noundef, double noundef, i32 noundef, ptr noundef, ptr noundef, ptr noundef, ptr noundef) local_unnamed_addr #3

declare void @KDTree_QueryCircleIntersectWeighted_Double(ptr noundef, ptr noundef, ptr noundef, ptr noundef, double noundef, i32 noundef, ptr noundef, ptr noundef, ptr noundef, ptr noundef) local_unnamed_addr #3

declare void @KDTree_Destroy(ptr noundef) local_unnamed_addr #3

; Function Attrs: nounwind uwtable
define linkonce_odr hidden void @_ZNSt3__16vectorIdNS_9allocatorIdEEED2B7v170000Ev(ptr noundef nonnull align 8 dereferenceable(24) %this) unnamed_addr #8 comdat align 2 personality ptr @__gxx_personality_v0 {
entry:
  %0 = load ptr, ptr %this, align 8, !tbaa !54
  %cmp.not.i = icmp eq ptr %0, null
  br i1 %cmp.not.i, label %invoke.cont2, label %if.then.i

if.then.i:                                        ; preds = %entry
  %__end_.i.i.i = getelementptr inbounds %"class.std::__1::vector.22", ptr %this, i64 0, i32 1
  store ptr %0, ptr %__end_.i.i.i, align 8, !tbaa !53
  tail call void @_ZdlPv(ptr noundef nonnull %0) #31
  br label %invoke.cont2

invoke.cont2:                                     ; preds = %if.then.i, %entry
  ret void
}

; Function Attrs: mustprogress uwtable
define dso_local void @_ZN5State13state_reorderENSt3__16vectorIiNS0_9allocatorIiEEEE(ptr noundef nonnull align 8 dereferenceable(272) %this, ptr nocapture noundef readonly %iorder) local_unnamed_addr #2 align 2 {
entry:
  %H = getelementptr inbounds %class.State, ptr %this, i64 0, i32 3
  %0 = load ptr, ptr %H, align 8, !tbaa !39
  %1 = load ptr, ptr %iorder, align 8, !tbaa !51
  %call2 = tail call noundef ptr @_ZN10MallocPlus14memory_reorderEPdPi(ptr noundef nonnull align 8 dereferenceable(48) %this, ptr noundef %0, ptr noundef nonnull %1)
  store ptr %call2, ptr %H, align 8, !tbaa !39
  %U = getelementptr inbounds %class.State, ptr %this, i64 0, i32 4
  %2 = load ptr, ptr %U, align 8, !tbaa !40
  %3 = load ptr, ptr %iorder, align 8, !tbaa !51
  %call6 = tail call noundef ptr @_ZN10MallocPlus14memory_reorderEPdPi(ptr noundef nonnull align 8 dereferenceable(48) %this, ptr noundef %2, ptr noundef nonnull %3)
  store ptr %call6, ptr %U, align 8, !tbaa !40
  %V = getelementptr inbounds %class.State, ptr %this, i64 0, i32 5
  %4 = load ptr, ptr %V, align 8, !tbaa !41
  %5 = load ptr, ptr %iorder, align 8, !tbaa !51
  %call10 = tail call noundef ptr @_ZN10MallocPlus14memory_reorderEPdPi(ptr noundef nonnull align 8 dereferenceable(48) %this, ptr noundef %4, ptr noundef nonnull %5)
  store ptr %call10, ptr %V, align 8, !tbaa !41
  ret void
}

declare noundef ptr @_ZN10MallocPlus14memory_reorderEPdPi(ptr noundef nonnull align 8 dereferenceable(48), ptr noundef, ptr noundef) local_unnamed_addr #3

; Function Attrs: uwtable
define dso_local void @_ZN5State10rezone_allEiiNSt3__16vectorIiNS0_9allocatorIiEEEE(ptr noundef nonnull align 8 dereferenceable(272) %this, i32 noundef %icount, i32 noundef %jcount, ptr nocapture noundef readonly %mpot) local_unnamed_addr #7 align 2 personality ptr @__gxx_personality_v0 {
entry:
  %tstart_cpu = alloca %struct.timeval, align 8
  %agg.tmp = alloca %"class.std::__1::vector", align 8
  call void @llvm.lifetime.start.p0(i64 16, ptr nonnull %tstart_cpu) #28
  call void @cpu_timer_start(ptr noundef nonnull %tstart_cpu)
  %mesh = getelementptr inbounds %class.State, ptr %this, i64 0, i32 2
  %0 = load ptr, ptr %mesh, align 8, !tbaa !9
  %__end_.i = getelementptr inbounds %"class.std::__1::vector", ptr %agg.tmp, i64 0, i32 1
  %__end_cap_.i = getelementptr inbounds %"class.std::__1::vector", ptr %agg.tmp, i64 0, i32 2
  %__end_.i.i = getelementptr inbounds %"class.std::__1::vector", ptr %mpot, i64 0, i32 1
  call void @llvm.memset.p0.i64(ptr noundef nonnull align 8 dereferenceable(24) %agg.tmp, i8 0, i64 24, i1 false)
  %1 = load ptr, ptr %__end_.i.i, align 8, !tbaa !52
  %2 = load ptr, ptr %mpot, align 8, !tbaa !51
  %sub.ptr.lhs.cast.i.i = ptrtoint ptr %1 to i64
  %sub.ptr.rhs.cast.i.i = ptrtoint ptr %2 to i64
  %sub.ptr.sub.i.i = sub i64 %sub.ptr.lhs.cast.i.i, %sub.ptr.rhs.cast.i.i
  %sub.ptr.div.i.i = ashr exact i64 %sub.ptr.sub.i.i, 2
  %cmp.not.i = icmp eq ptr %1, %2
  br i1 %cmp.not.i, label %_ZNSt3__16vectorIiNS_9allocatorIiEEEC2ERKS3_.exit, label %if.then.i

if.then.i:                                        ; preds = %entry
  %cmp.i.i = icmp slt i64 %sub.ptr.sub.i.i, 0
  br i1 %cmp.i.i, label %if.then.i.i, label %_ZNSt3__119__allocate_at_leastB7v170000INS_9allocatorIiEEEENS_19__allocation_resultINS_16allocator_traitsIT_E7pointerEEERS5_m.exit.i.i

if.then.i.i:                                      ; preds = %if.then.i
  invoke void @_ZNKSt3__16vectorIiNS_9allocatorIiEEE20__throw_length_errorB7v170000Ev(ptr noundef nonnull align 8 dereferenceable(24) %agg.tmp) #29
          to label %.noexc.i unwind label %if.then.i16.i

.noexc.i:                                         ; preds = %if.then.i.i
  unreachable

_ZNSt3__119__allocate_at_leastB7v170000INS_9allocatorIiEEEENS_19__allocation_resultINS_16allocator_traitsIT_E7pointerEEERS5_m.exit.i.i: ; preds = %if.then.i
  %call.i5.i.i.i.i14.i = invoke noalias noundef nonnull ptr @_Znwm(i64 noundef %sub.ptr.sub.i.i) #30
          to label %invoke.cont.i unwind label %if.then.i16.i

invoke.cont.i:                                    ; preds = %_ZNSt3__119__allocate_at_leastB7v170000INS_9allocatorIiEEEENS_19__allocation_resultINS_16allocator_traitsIT_E7pointerEEERS5_m.exit.i.i
  store ptr %call.i5.i.i.i.i14.i, ptr %agg.tmp, align 8, !tbaa !51
  %add.ptr.i.i = getelementptr inbounds i32, ptr %call.i5.i.i.i.i14.i, i64 %sub.ptr.div.i.i
  store ptr %add.ptr.i.i, ptr %__end_cap_.i, align 8, !tbaa !5
  %3 = add i64 %sub.ptr.lhs.cast.i.i, -4
  %4 = sub i64 %3, %sub.ptr.rhs.cast.i.i
  %5 = lshr i64 %4, 2
  %6 = add nuw nsw i64 %5, 1
  %min.iters.check = icmp ult i64 %4, 28
  %call.i5.i.i.i.i14.i9 = ptrtoint ptr %call.i5.i.i.i.i14.i to i64
  %7 = sub i64 %call.i5.i.i.i.i14.i9, %sub.ptr.rhs.cast.i.i
  %diff.check = icmp ult i64 %7, 32
  %or.cond = or i1 %min.iters.check, %diff.check
  br i1 %or.cond, label %invoke.cont.i.i.i.preheader, label %vector.ph

vector.ph:                                        ; preds = %invoke.cont.i
  %n.vec = and i64 %6, -8
  %8 = shl i64 %n.vec, 2
  %ind.end = getelementptr i8, ptr %2, i64 %8
  %9 = shl i64 %n.vec, 2
  %ind.end10 = getelementptr i8, ptr %call.i5.i.i.i.i14.i, i64 %9
  br label %vector.body

vector.body:                                      ; preds = %vector.body, %vector.ph
  %index = phi i64 [ 0, %vector.ph ], [ %index.next, %vector.body ]
  %10 = shl i64 %index, 2
  %next.gep = getelementptr i8, ptr %2, i64 %10
  %11 = shl i64 %index, 2
  %next.gep13 = getelementptr i8, ptr %call.i5.i.i.i.i14.i, i64 %11
  %wide.load = load <4 x i32>, ptr %next.gep, align 4, !tbaa !55
  %12 = getelementptr i32, ptr %next.gep, i64 4
  %wide.load15 = load <4 x i32>, ptr %12, align 4, !tbaa !55
  store <4 x i32> %wide.load, ptr %next.gep13, align 4, !tbaa !55
  %13 = getelementptr i32, ptr %next.gep13, i64 4
  store <4 x i32> %wide.load15, ptr %13, align 4, !tbaa !55
  %index.next = add nuw i64 %index, 8
  %14 = icmp eq i64 %index.next, %n.vec
  br i1 %14, label %middle.block, label %vector.body, !llvm.loop !78

middle.block:                                     ; preds = %vector.body
  %cmp.n = icmp eq i64 %6, %n.vec
  br i1 %cmp.n, label %_ZNSt3__16vectorIiNS_9allocatorIiEEE18__construct_at_endIPiLi0EEEvT_S6_m.exit.i, label %invoke.cont.i.i.i.preheader

invoke.cont.i.i.i.preheader:                      ; preds = %invoke.cont.i, %middle.block
  %__first1.addr.011.i.i.i.ph = phi ptr [ %2, %invoke.cont.i ], [ %ind.end, %middle.block ]
  %__first2.addr.010.i.i.i.ph = phi ptr [ %call.i5.i.i.i.i14.i, %invoke.cont.i ], [ %ind.end10, %middle.block ]
  br label %invoke.cont.i.i.i

invoke.cont.i.i.i:                                ; preds = %invoke.cont.i.i.i.preheader, %invoke.cont.i.i.i
  %__first1.addr.011.i.i.i = phi ptr [ %incdec.ptr.i.i.i, %invoke.cont.i.i.i ], [ %__first1.addr.011.i.i.i.ph, %invoke.cont.i.i.i.preheader ]
  %__first2.addr.010.i.i.i = phi ptr [ %incdec.ptr1.i.i.i, %invoke.cont.i.i.i ], [ %__first2.addr.010.i.i.i.ph, %invoke.cont.i.i.i.preheader ]
  %15 = load i32, ptr %__first1.addr.011.i.i.i, align 4, !tbaa !55
  store i32 %15, ptr %__first2.addr.010.i.i.i, align 4, !tbaa !55
  %incdec.ptr.i.i.i = getelementptr inbounds i32, ptr %__first1.addr.011.i.i.i, i64 1
  %incdec.ptr1.i.i.i = getelementptr inbounds i32, ptr %__first2.addr.010.i.i.i, i64 1
  %cmp.not.i.i.i = icmp eq ptr %incdec.ptr.i.i.i, %1
  br i1 %cmp.not.i.i.i, label %_ZNSt3__16vectorIiNS_9allocatorIiEEE18__construct_at_endIPiLi0EEEvT_S6_m.exit.i, label %invoke.cont.i.i.i, !llvm.loop !79

_ZNSt3__16vectorIiNS_9allocatorIiEEE18__construct_at_endIPiLi0EEEvT_S6_m.exit.i: ; preds = %invoke.cont.i.i.i, %middle.block
  %incdec.ptr1.i.i.i.lcssa = phi ptr [ %ind.end10, %middle.block ], [ %incdec.ptr1.i.i.i, %invoke.cont.i.i.i ]
  store ptr %incdec.ptr1.i.i.i.lcssa, ptr %__end_.i, align 8, !tbaa !52
  br label %_ZNSt3__16vectorIiNS_9allocatorIiEEEC2ERKS3_.exit

if.then.i16.i:                                    ; preds = %_ZNSt3__119__allocate_at_leastB7v170000INS_9allocatorIiEEEENS_19__allocation_resultINS_16allocator_traitsIT_E7pointerEEERS5_m.exit.i.i, %if.then.i.i
  %16 = landingpad { ptr, i32 }
          cleanup
  %17 = load ptr, ptr %agg.tmp, align 8, !tbaa !51
  %cmp.not.i.i15.i = icmp eq ptr %17, null
  br i1 %cmp.not.i.i15.i, label %common.resume, label %if.then.i.i.i

if.then.i.i.i:                                    ; preds = %if.then.i16.i
  store ptr %17, ptr %__end_.i, align 8, !tbaa !52
  call void @_ZdlPv(ptr noundef nonnull %17) #31
  br label %common.resume

common.resume:                                    ; preds = %if.then.i16.i, %if.then.i.i.i, %_ZNSt3__16vectorIiNS_9allocatorIiEEED2B7v170000Ev.exit8
  %common.resume.op = phi { ptr, i32 } [ %20, %_ZNSt3__16vectorIiNS_9allocatorIiEEED2B7v170000Ev.exit8 ], [ %16, %if.then.i.i.i ], [ %16, %if.then.i16.i ]
  resume { ptr, i32 } %common.resume.op

_ZNSt3__16vectorIiNS_9allocatorIiEEEC2ERKS3_.exit: ; preds = %entry, %_ZNSt3__16vectorIiNS_9allocatorIiEEE18__construct_at_endIPiLi0EEEvT_S6_m.exit.i
  invoke void @_ZN4Mesh10rezone_allEiiNSt3__16vectorIiNS0_9allocatorIiEEEEiR10MallocPlus(ptr noundef nonnull align 8 dereferenceable(2192) %0, i32 noundef %icount, i32 noundef %jcount, ptr noundef nonnull %agg.tmp, i32 noundef 1, ptr noundef nonnull align 8 dereferenceable(48) %this)
          to label %invoke.cont unwind label %lpad

invoke.cont:                                      ; preds = %_ZNSt3__16vectorIiNS_9allocatorIiEEEC2ERKS3_.exit
  %18 = load ptr, ptr %agg.tmp, align 8, !tbaa !51
  %cmp.not.i.i = icmp eq ptr %18, null
  br i1 %cmp.not.i.i, label %_ZNSt3__16vectorIiNS_9allocatorIiEEED2B7v170000Ev.exit, label %if.then.i.i4

if.then.i.i4:                                     ; preds = %invoke.cont
  store ptr %18, ptr %__end_.i, align 8, !tbaa !52
  call void @_ZdlPv(ptr noundef nonnull %18) #31
  br label %_ZNSt3__16vectorIiNS_9allocatorIiEEED2B7v170000Ev.exit

_ZNSt3__16vectorIiNS_9allocatorIiEEED2B7v170000Ev.exit: ; preds = %invoke.cont, %if.then.i.i4
  %call.i = call noundef ptr @_ZN10MallocPlus14get_memory_ptrEPKc(ptr noundef nonnull align 8 dereferenceable(48) %this, ptr noundef nonnull @.str)
  %H.i = getelementptr inbounds %class.State, ptr %this, i64 0, i32 3
  store ptr %call.i, ptr %H.i, align 8, !tbaa !39
  %call3.i = call noundef ptr @_ZN10MallocPlus14get_memory_ptrEPKc(ptr noundef nonnull align 8 dereferenceable(48) %this, ptr noundef nonnull @.str.1)
  %U.i = getelementptr inbounds %class.State, ptr %this, i64 0, i32 4
  store ptr %call3.i, ptr %U.i, align 8, !tbaa !40
  %call5.i = call noundef ptr @_ZN10MallocPlus14get_memory_ptrEPKc(ptr noundef nonnull align 8 dereferenceable(48) %this, ptr noundef nonnull @.str.2)
  %V.i = getelementptr inbounds %class.State, ptr %this, i64 0, i32 5
  store ptr %call5.i, ptr %V.i, align 8, !tbaa !41
  %agg.tmp2.sroa.0.0.copyload = load i64, ptr %tstart_cpu, align 8, !tbaa.struct !64
  %agg.tmp2.sroa.2.0.tstart_cpu.sroa_idx = getelementptr inbounds i8, ptr %tstart_cpu, i64 8
  %agg.tmp2.sroa.2.0.copyload = load i64, ptr %agg.tmp2.sroa.2.0.tstart_cpu.sroa_idx, align 8, !tbaa.struct !65
  %call = call double @cpu_timer_stop(i64 %agg.tmp2.sroa.0.0.copyload, i64 %agg.tmp2.sroa.2.0.copyload)
  %arrayidx = getelementptr inbounds %class.State, ptr %this, i64 0, i32 6, i64 5
  %19 = load double, ptr %arrayidx, align 8, !tbaa !62
  %add = fadd double %call, %19
  store double %add, ptr %arrayidx, align 8, !tbaa !62
  call void @llvm.lifetime.end.p0(i64 16, ptr nonnull %tstart_cpu) #28
  ret void

lpad:                                             ; preds = %_ZNSt3__16vectorIiNS_9allocatorIiEEEC2ERKS3_.exit
  %20 = landingpad { ptr, i32 }
          cleanup
  %21 = load ptr, ptr %agg.tmp, align 8, !tbaa !51
  %cmp.not.i.i5 = icmp eq ptr %21, null
  br i1 %cmp.not.i.i5, label %_ZNSt3__16vectorIiNS_9allocatorIiEEED2B7v170000Ev.exit8, label %if.then.i.i7

if.then.i.i7:                                     ; preds = %lpad
  store ptr %21, ptr %__end_.i, align 8, !tbaa !52
  call void @_ZdlPv(ptr noundef nonnull %21) #31
  br label %_ZNSt3__16vectorIiNS_9allocatorIiEEED2B7v170000Ev.exit8

_ZNSt3__16vectorIiNS_9allocatorIiEEED2B7v170000Ev.exit8: ; preds = %lpad, %if.then.i.i7
  call void @llvm.lifetime.end.p0(i64 16, ptr nonnull %tstart_cpu) #28
  br label %common.resume
}

declare void @_ZN4Mesh10rezone_allEiiNSt3__16vectorIiNS0_9allocatorIiEEEEiR10MallocPlus(ptr noundef nonnull align 8 dereferenceable(2192), i32 noundef, i32 noundef, ptr noundef, i32 noundef, ptr noundef nonnull align 8 dereferenceable(48)) local_unnamed_addr #3

; Function Attrs: mustprogress uwtable
define dso_local void @_ZN5State22calc_finite_differenceEd(ptr noundef nonnull align 8 dereferenceable(272) %this, double noundef %deltaT) local_unnamed_addr #2 align 2 {
entry:
  %tstart_cpu = alloca %struct.timeval, align 8
  %lowerBound = alloca i32, align 4
  %upperBound = alloca i32, align 4
  call void @llvm.lifetime.start.p0(i64 16, ptr nonnull %tstart_cpu) #28
  call void @cpu_timer_start(ptr noundef nonnull %tstart_cpu)
  %mesh = getelementptr inbounds %class.State, ptr %this, i64 0, i32 2
  %0 = load ptr, ptr %mesh, align 8, !tbaa !9
  %ncells2 = getelementptr inbounds %class.Mesh, ptr %0, i64 0, i32 45
  %1 = load i64, ptr %ncells2, align 8, !tbaa !24
  %ncells_ghost4 = getelementptr inbounds %class.Mesh, ptr %0, i64 0, i32 47
  %2 = load i64, ptr %ncells_ghost4, align 8, !tbaa !50
  %cmp = icmp ult i64 %2, %1
  br i1 %cmp, label %if.then, label %if.end

if.then:                                          ; preds = %entry
  store i64 %1, ptr %ncells_ghost4, align 8, !tbaa !50
  br label %if.end

if.end:                                           ; preds = %if.then, %entry
  call void @_ZN5State25apply_boundary_conditionsEv(ptr noundef nonnull align 8 dereferenceable(272) %this)
  %3 = load ptr, ptr %mesh, align 8, !tbaa !9
  %nlft6 = getelementptr inbounds %class.Mesh, ptr %3, i64 0, i32 69
  %4 = load ptr, ptr %nlft6, align 8, !tbaa !46
  %nrht8 = getelementptr inbounds %class.Mesh, ptr %3, i64 0, i32 70
  %5 = load ptr, ptr %nrht8, align 8, !tbaa !47
  %nbot10 = getelementptr inbounds %class.Mesh, ptr %3, i64 0, i32 71
  %6 = load ptr, ptr %nbot10, align 8, !tbaa !48
  %ntop12 = getelementptr inbounds %class.Mesh, ptr %3, i64 0, i32 72
  %7 = load ptr, ptr %ntop12, align 8, !tbaa !49
  %level14 = getelementptr inbounds %class.Mesh, ptr %3, i64 0, i32 67
  %8 = load ptr, ptr %level14, align 8, !tbaa !44
  %lev_deltax16 = getelementptr inbounds %class.Mesh, ptr %3, i64 0, i32 33
  %lev_deltay18 = getelementptr inbounds %class.Mesh, ptr %3, i64 0, i32 34
  %9 = load i64, ptr %ncells_ghost4, align 8, !tbaa !50
  %call = call noundef ptr @_ZN10MallocPlus13memory_mallocEmmPKci(ptr noundef nonnull align 8 dereferenceable(48) %this, i64 noundef %9, i64 noundef 8, ptr noundef nonnull @.str.3, i32 noundef 16)
  store ptr %call, ptr @_ZZN5State22calc_finite_differenceEdE5H_new, align 8, !tbaa !5
  %10 = load i64, ptr %ncells_ghost4, align 8, !tbaa !50
  %call20 = call noundef ptr @_ZN10MallocPlus13memory_mallocEmmPKci(ptr noundef nonnull align 8 dereferenceable(48) %this, i64 noundef %10, i64 noundef 8, ptr noundef nonnull @.str.4, i32 noundef 16)
  store ptr %call20, ptr @_ZZN5State22calc_finite_differenceEdE5U_new, align 8, !tbaa !5
  %11 = load i64, ptr %ncells_ghost4, align 8, !tbaa !50
  %call22 = call noundef ptr @_ZN10MallocPlus13memory_mallocEmmPKci(ptr noundef nonnull align 8 dereferenceable(48) %this, i64 noundef %11, i64 noundef 8, ptr noundef nonnull @.str.5, i32 noundef 16)
  store ptr %call22, ptr @_ZZN5State22calc_finite_differenceEdE5V_new, align 8, !tbaa !5
  call void @llvm.lifetime.start.p0(i64 4, ptr nonnull %lowerBound) #28
  call void @llvm.lifetime.start.p0(i64 4, ptr nonnull %upperBound) #28
  %12 = load ptr, ptr %mesh, align 8, !tbaa !9
  call void @_ZN4Mesh10get_boundsERiS0_(ptr noundef nonnull align 8 dereferenceable(2192) %12, ptr noundef nonnull align 4 dereferenceable(4) %lowerBound, ptr noundef nonnull align 4 dereferenceable(4) %upperBound)
  %13 = load i32, ptr %lowerBound, align 4, !tbaa !55
  %14 = load i32, ptr %upperBound, align 4, !tbaa !55
  %cmp243044 = icmp slt i32 %13, %14
  br i1 %cmp243044, label %for.body.lr.ph, label %if.end.for.cond.cleanup_crit_edge

if.end.for.cond.cleanup_crit_edge:                ; preds = %if.end
  %.pre = load ptr, ptr @_ZZN5State22calc_finite_differenceEdE5H_new, align 8, !tbaa !5
  br label %for.cond.cleanup

for.body.lr.ph:                                   ; preds = %if.end
  %H = getelementptr inbounds %class.State, ptr %this, i64 0, i32 3
  %U = getelementptr inbounds %class.State, ptr %this, i64 0, i32 4
  %V = getelementptr inbounds %class.State, ptr %this, i64 0, i32 5
  %mul3.i = fmul double %deltaT, 5.000000e-01
  %15 = sext i32 %13 to i64
  %16 = insertelement <2 x double> poison, double %mul3.i, i64 0
  %17 = shufflevector <2 x double> %16, <2 x double> poison, <2 x i32> zeroinitializer
  br label %for.body

for.cond.cleanup:                                 ; preds = %if.end1014, %if.end.for.cond.cleanup_crit_edge
  %18 = phi ptr [ %.pre, %if.end.for.cond.cleanup_crit_edge ], [ %535, %if.end1014 ]
  %H1033 = getelementptr inbounds %class.State, ptr %this, i64 0, i32 3
  %19 = load ptr, ptr %H1033, align 8, !tbaa !39
  %call1034 = call noundef ptr @_ZN10MallocPlus14memory_replaceEPvS0_(ptr noundef nonnull align 8 dereferenceable(48) %this, ptr noundef %19, ptr noundef %18)
  store ptr %call1034, ptr %H1033, align 8, !tbaa !39
  %U1037 = getelementptr inbounds %class.State, ptr %this, i64 0, i32 4
  %20 = load ptr, ptr %U1037, align 8, !tbaa !40
  %21 = load ptr, ptr @_ZZN5State22calc_finite_differenceEdE5U_new, align 8, !tbaa !5
  %call1038 = call noundef ptr @_ZN10MallocPlus14memory_replaceEPvS0_(ptr noundef nonnull align 8 dereferenceable(48) %this, ptr noundef %20, ptr noundef %21)
  store ptr %call1038, ptr %U1037, align 8, !tbaa !40
  %V1041 = getelementptr inbounds %class.State, ptr %this, i64 0, i32 5
  %22 = load ptr, ptr %V1041, align 8, !tbaa !41
  %23 = load ptr, ptr @_ZZN5State22calc_finite_differenceEdE5V_new, align 8, !tbaa !5
  %call1042 = call noundef ptr @_ZN10MallocPlus14memory_replaceEPvS0_(ptr noundef nonnull align 8 dereferenceable(48) %this, ptr noundef %22, ptr noundef %23)
  store ptr %call1042, ptr %V1041, align 8, !tbaa !41
  %agg.tmp.sroa.0.0.copyload = load i64, ptr %tstart_cpu, align 8, !tbaa.struct !64
  %agg.tmp.sroa.2.0.tstart_cpu.sroa_idx = getelementptr inbounds i8, ptr %tstart_cpu, i64 8
  %agg.tmp.sroa.2.0.copyload = load i64, ptr %agg.tmp.sroa.2.0.tstart_cpu.sroa_idx, align 8, !tbaa.struct !65
  %call1044 = call double @cpu_timer_stop(i64 %agg.tmp.sroa.0.0.copyload, i64 %agg.tmp.sroa.2.0.copyload)
  %arrayidx1045 = getelementptr inbounds %class.State, ptr %this, i64 0, i32 6, i64 2
  %24 = load double, ptr %arrayidx1045, align 8, !tbaa !62
  %add1046 = fadd double %call1044, %24
  store double %add1046, ptr %arrayidx1045, align 8, !tbaa !62
  call void @llvm.lifetime.end.p0(i64 4, ptr nonnull %upperBound) #28
  call void @llvm.lifetime.end.p0(i64 4, ptr nonnull %lowerBound) #28
  call void @llvm.lifetime.end.p0(i64 16, ptr nonnull %tstart_cpu) #28
  ret void

for.body:                                         ; preds = %for.body.lr.ph, %if.end1014
  %indvars.iv = phi i64 [ %15, %for.body.lr.ph ], [ %indvars.iv.next, %if.end1014 ]
  %arrayidx = getelementptr inbounds i32, ptr %8, i64 %indvars.iv
  %25 = load i32, ptr %arrayidx, align 4, !tbaa !55
  %arrayidx26 = getelementptr inbounds i32, ptr %4, i64 %indvars.iv
  %26 = load i32, ptr %arrayidx26, align 4, !tbaa !55
  %arrayidx28 = getelementptr inbounds i32, ptr %5, i64 %indvars.iv
  %27 = load i32, ptr %arrayidx28, align 4, !tbaa !55
  %arrayidx30 = getelementptr inbounds i32, ptr %7, i64 %indvars.iv
  %28 = load i32, ptr %arrayidx30, align 4, !tbaa !55
  %arrayidx32 = getelementptr inbounds i32, ptr %6, i64 %indvars.iv
  %29 = load i32, ptr %arrayidx32, align 4, !tbaa !55
  %30 = load ptr, ptr %H, align 8, !tbaa !39
  %arrayidx34 = getelementptr inbounds double, ptr %30, i64 %indvars.iv
  %31 = load ptr, ptr %U, align 8, !tbaa !40
  %arrayidx36 = getelementptr inbounds double, ptr %31, i64 %indvars.iv
  %32 = load ptr, ptr %V, align 8, !tbaa !41
  %arrayidx38 = getelementptr inbounds double, ptr %32, i64 %indvars.iv
  %33 = load double, ptr %arrayidx36, align 8, !tbaa !62
  %34 = load double, ptr %arrayidx34, align 8, !tbaa !62
  %35 = load double, ptr %arrayidx38, align 8, !tbaa !62
  %idxprom39 = sext i32 %26 to i64
  %arrayidx40 = getelementptr inbounds i32, ptr %4, i64 %idxprom39
  %36 = load i32, ptr %arrayidx40, align 4, !tbaa !55
  %arrayidx43 = getelementptr inbounds double, ptr %30, i64 %idxprom39
  %arrayidx46 = getelementptr inbounds double, ptr %31, i64 %idxprom39
  %37 = load double, ptr %arrayidx43, align 8, !tbaa !62
  %38 = load double, ptr %arrayidx46, align 8, !tbaa !62
  %arrayidx49 = getelementptr inbounds double, ptr %32, i64 %idxprom39
  %39 = load double, ptr %arrayidx49, align 8, !tbaa !62
  %idxprom50 = sext i32 %27 to i64
  %arrayidx51 = getelementptr inbounds i32, ptr %5, i64 %idxprom50
  %40 = load i32, ptr %arrayidx51, align 4, !tbaa !55
  %arrayidx54 = getelementptr inbounds double, ptr %30, i64 %idxprom50
  %41 = load double, ptr %arrayidx54, align 8, !tbaa !62
  %arrayidx57 = getelementptr inbounds double, ptr %31, i64 %idxprom50
  %42 = load double, ptr %arrayidx57, align 8, !tbaa !62
  %arrayidx60 = getelementptr inbounds double, ptr %32, i64 %idxprom50
  %43 = load double, ptr %arrayidx60, align 8, !tbaa !62
  %idxprom61 = sext i32 %28 to i64
  %arrayidx62 = getelementptr inbounds i32, ptr %7, i64 %idxprom61
  %44 = load i32, ptr %arrayidx62, align 4, !tbaa !55
  %arrayidx65 = getelementptr inbounds double, ptr %30, i64 %idxprom61
  %45 = load double, ptr %arrayidx65, align 8, !tbaa !62
  %arrayidx68 = getelementptr inbounds double, ptr %31, i64 %idxprom61
  %46 = load double, ptr %arrayidx68, align 8, !tbaa !62
  %arrayidx71 = getelementptr inbounds double, ptr %32, i64 %idxprom61
  %47 = load double, ptr %arrayidx71, align 8, !tbaa !62
  %idxprom72 = sext i32 %29 to i64
  %arrayidx73 = getelementptr inbounds i32, ptr %6, i64 %idxprom72
  %48 = load i32, ptr %arrayidx73, align 4, !tbaa !55
  %arrayidx76 = getelementptr inbounds double, ptr %30, i64 %idxprom72
  %49 = load double, ptr %arrayidx76, align 8, !tbaa !62
  %arrayidx79 = getelementptr inbounds double, ptr %31, i64 %idxprom72
  %50 = load double, ptr %arrayidx79, align 8, !tbaa !62
  %arrayidx82 = getelementptr inbounds double, ptr %32, i64 %idxprom72
  %51 = load double, ptr %arrayidx82, align 8, !tbaa !62
  %arrayidx84 = getelementptr inbounds i32, ptr %7, i64 %idxprom39
  %52 = load i32, ptr %arrayidx84, align 4, !tbaa !55
  %arrayidx86 = getelementptr inbounds i32, ptr %7, i64 %idxprom50
  %53 = load i32, ptr %arrayidx86, align 4, !tbaa !55
  %arrayidx88 = getelementptr inbounds i32, ptr %5, i64 %idxprom61
  %54 = load i32, ptr %arrayidx88, align 4, !tbaa !55
  %arrayidx90 = getelementptr inbounds i32, ptr %5, i64 %idxprom72
  %55 = load i32, ptr %arrayidx90, align 4, !tbaa !55
  %idxprom92 = sext i32 %36 to i64
  %arrayidx93 = getelementptr inbounds double, ptr %30, i64 %idxprom92
  %56 = load double, ptr %arrayidx93, align 8, !tbaa !62
  %arrayidx96 = getelementptr inbounds double, ptr %31, i64 %idxprom92
  %57 = load double, ptr %arrayidx96, align 8, !tbaa !62
  %idxprom98 = sext i32 %40 to i64
  %arrayidx99 = getelementptr inbounds double, ptr %30, i64 %idxprom98
  %58 = load double, ptr %arrayidx99, align 8, !tbaa !62
  %arrayidx102 = getelementptr inbounds double, ptr %31, i64 %idxprom98
  %59 = load double, ptr %arrayidx102, align 8, !tbaa !62
  %idxprom104 = sext i32 %44 to i64
  %arrayidx105 = getelementptr inbounds double, ptr %30, i64 %idxprom104
  %60 = load double, ptr %arrayidx105, align 8, !tbaa !62
  %arrayidx108 = getelementptr inbounds double, ptr %32, i64 %idxprom104
  %61 = load double, ptr %arrayidx108, align 8, !tbaa !62
  %idxprom110 = sext i32 %48 to i64
  %arrayidx111 = getelementptr inbounds double, ptr %30, i64 %idxprom110
  %62 = load double, ptr %arrayidx111, align 8, !tbaa !62
  %arrayidx114 = getelementptr inbounds double, ptr %32, i64 %idxprom110
  %63 = load double, ptr %arrayidx114, align 8, !tbaa !62
  %conv = sext i32 %25 to i64
  %64 = load ptr, ptr %lev_deltax16, align 8, !tbaa !54
  %arrayidx.i = getelementptr inbounds double, ptr %64, i64 %conv
  %65 = load ptr, ptr %lev_deltay18, align 8, !tbaa !54
  %arrayidx.i2017 = getelementptr inbounds double, ptr %65, i64 %conv
  %66 = load double, ptr %arrayidx.i2017, align 8, !tbaa !62
  %arrayidx119 = getelementptr inbounds i32, ptr %8, i64 %idxprom39
  %67 = load i32, ptr %arrayidx119, align 4, !tbaa !55
  %conv120 = sext i32 %67 to i64
  %arrayidx.i2018 = getelementptr inbounds double, ptr %64, i64 %conv120
  %68 = load double, ptr %arrayidx.i2018, align 8, !tbaa !62
  %arrayidx123 = getelementptr inbounds i32, ptr %8, i64 %idxprom50
  %69 = load i32, ptr %arrayidx123, align 4, !tbaa !55
  %conv124 = sext i32 %69 to i64
  %arrayidx.i2019 = getelementptr inbounds double, ptr %64, i64 %conv124
  %70 = load double, ptr %arrayidx.i2019, align 8, !tbaa !62
  %arrayidx127 = getelementptr inbounds i32, ptr %8, i64 %idxprom61
  %71 = load i32, ptr %arrayidx127, align 4, !tbaa !55
  %conv128 = sext i32 %71 to i64
  %arrayidx.i2020 = getelementptr inbounds double, ptr %65, i64 %conv128
  %72 = load double, ptr %arrayidx.i, align 8, !tbaa !62
  %73 = load double, ptr %arrayidx.i2020, align 8, !tbaa !62
  %arrayidx131 = getelementptr inbounds i32, ptr %8, i64 %idxprom72
  %74 = load i32, ptr %arrayidx131, align 4, !tbaa !55
  %conv132 = sext i32 %74 to i64
  %arrayidx.i2021 = getelementptr inbounds double, ptr %65, i64 %conv132
  %75 = load double, ptr %arrayidx.i2021, align 8, !tbaa !62
  %cmp136 = icmp slt i32 %25, %67
  br i1 %cmp136, label %if.then137, label %if.end161

if.then137:                                       ; preds = %for.body
  %idxprom141 = sext i32 %52 to i64
  %arrayidx142 = getelementptr inbounds double, ptr %30, i64 %idxprom141
  %arrayidx147 = getelementptr inbounds double, ptr %31, i64 %idxprom141
  %76 = load double, ptr %arrayidx142, align 8, !tbaa !62
  %77 = load double, ptr %arrayidx147, align 8, !tbaa !62
  %arrayidx152 = getelementptr inbounds double, ptr %32, i64 %idxprom141
  %78 = load double, ptr %arrayidx152, align 8, !tbaa !62
  %arrayidx154 = getelementptr inbounds i32, ptr %4, i64 %idxprom141
  %79 = load i32, ptr %arrayidx154, align 4, !tbaa !55
  %idxprom156 = sext i32 %79 to i64
  %arrayidx157 = getelementptr inbounds double, ptr %30, i64 %idxprom156
  %80 = load double, ptr %arrayidx157, align 8, !tbaa !62
  %arrayidx160 = getelementptr inbounds double, ptr %31, i64 %idxprom156
  %81 = load double, ptr %arrayidx160, align 8, !tbaa !62
  %82 = insertelement <2 x double> poison, double %76, i64 0
  %83 = insertelement <2 x double> %82, double %77, i64 1
  br label %if.end161

if.end161:                                        ; preds = %if.then137, %for.body
  %Ull2.0 = phi double [ %81, %if.then137 ], [ 0.000000e+00, %for.body ]
  %Hll2.0 = phi double [ %80, %if.then137 ], [ 0.000000e+00, %for.body ]
  %Vlt.0 = phi double [ %78, %if.then137 ], [ 0.000000e+00, %for.body ]
  %nltl.0 = phi i32 [ %79, %if.then137 ], [ 0, %for.body ]
  %84 = phi <2 x double> [ %83, %if.then137 ], [ zeroinitializer, %for.body ]
  %cmp164 = icmp slt i32 %25, %69
  br i1 %cmp164, label %if.then165, label %if.end189

if.then165:                                       ; preds = %if.end161
  %idxprom169 = sext i32 %53 to i64
  %arrayidx170 = getelementptr inbounds double, ptr %30, i64 %idxprom169
  %arrayidx175 = getelementptr inbounds double, ptr %31, i64 %idxprom169
  %85 = load double, ptr %arrayidx170, align 8, !tbaa !62
  %86 = load double, ptr %arrayidx175, align 8, !tbaa !62
  %arrayidx180 = getelementptr inbounds double, ptr %32, i64 %idxprom169
  %87 = load double, ptr %arrayidx180, align 8, !tbaa !62
  %arrayidx182 = getelementptr inbounds i32, ptr %5, i64 %idxprom169
  %88 = load i32, ptr %arrayidx182, align 4, !tbaa !55
  %idxprom184 = sext i32 %88 to i64
  %arrayidx185 = getelementptr inbounds double, ptr %30, i64 %idxprom184
  %89 = load double, ptr %arrayidx185, align 8, !tbaa !62
  %arrayidx188 = getelementptr inbounds double, ptr %31, i64 %idxprom184
  %90 = load double, ptr %arrayidx188, align 8, !tbaa !62
  %91 = insertelement <2 x double> poison, double %85, i64 0
  %92 = insertelement <2 x double> %91, double %86, i64 1
  br label %if.end189

if.end189:                                        ; preds = %if.then165, %if.end161
  %nrtr.0 = phi i32 [ %88, %if.then165 ], [ 0, %if.end161 ]
  %Vrt.0 = phi double [ %87, %if.then165 ], [ 0.000000e+00, %if.end161 ]
  %Hrr2.0 = phi double [ %89, %if.then165 ], [ 0.000000e+00, %if.end161 ]
  %Urr2.0 = phi double [ %90, %if.then165 ], [ 0.000000e+00, %if.end161 ]
  %93 = phi <2 x double> [ %92, %if.then165 ], [ zeroinitializer, %if.end161 ]
  %cmp192 = icmp slt i32 %25, %74
  br i1 %cmp192, label %if.then193, label %if.end217

if.then193:                                       ; preds = %if.end189
  %idxprom197 = sext i32 %55 to i64
  %arrayidx198 = getelementptr inbounds double, ptr %30, i64 %idxprom197
  %arrayidx203 = getelementptr inbounds double, ptr %31, i64 %idxprom197
  %94 = load double, ptr %arrayidx203, align 8, !tbaa !62
  %arrayidx208 = getelementptr inbounds double, ptr %32, i64 %idxprom197
  %95 = load double, ptr %arrayidx198, align 8, !tbaa !62
  %96 = load double, ptr %arrayidx208, align 8, !tbaa !62
  %arrayidx210 = getelementptr inbounds i32, ptr %6, i64 %idxprom197
  %97 = load i32, ptr %arrayidx210, align 4, !tbaa !55
  %idxprom212 = sext i32 %97 to i64
  %arrayidx213 = getelementptr inbounds double, ptr %30, i64 %idxprom212
  %98 = load double, ptr %arrayidx213, align 8, !tbaa !62
  %arrayidx216 = getelementptr inbounds double, ptr %32, i64 %idxprom212
  %99 = load double, ptr %arrayidx216, align 8, !tbaa !62
  %100 = insertelement <2 x double> poison, double %95, i64 0
  %101 = insertelement <2 x double> %100, double %96, i64 1
  br label %if.end217

if.end217:                                        ; preds = %if.then193, %if.end189
  %nbrb.0 = phi i32 [ %97, %if.then193 ], [ 0, %if.end189 ]
  %Ubr.0 = phi double [ %94, %if.then193 ], [ 0.000000e+00, %if.end189 ]
  %Hbb2.0 = phi double [ %98, %if.then193 ], [ 0.000000e+00, %if.end189 ]
  %Vbb2.0 = phi double [ %99, %if.then193 ], [ 0.000000e+00, %if.end189 ]
  %102 = phi <2 x double> [ %101, %if.then193 ], [ zeroinitializer, %if.end189 ]
  %cmp220 = icmp slt i32 %25, %71
  br i1 %cmp220, label %if.then221, label %if.end245

if.then221:                                       ; preds = %if.end217
  %idxprom225 = sext i32 %54 to i64
  %arrayidx226 = getelementptr inbounds double, ptr %30, i64 %idxprom225
  %arrayidx231 = getelementptr inbounds double, ptr %31, i64 %idxprom225
  %103 = load double, ptr %arrayidx231, align 8, !tbaa !62
  %arrayidx236 = getelementptr inbounds double, ptr %32, i64 %idxprom225
  %104 = load double, ptr %arrayidx226, align 8, !tbaa !62
  %105 = load double, ptr %arrayidx236, align 8, !tbaa !62
  %arrayidx238 = getelementptr inbounds i32, ptr %7, i64 %idxprom225
  %106 = load i32, ptr %arrayidx238, align 4, !tbaa !55
  %idxprom240 = sext i32 %106 to i64
  %arrayidx241 = getelementptr inbounds double, ptr %30, i64 %idxprom240
  %107 = load double, ptr %arrayidx241, align 8, !tbaa !62
  %arrayidx244 = getelementptr inbounds double, ptr %32, i64 %idxprom240
  %108 = load double, ptr %arrayidx244, align 8, !tbaa !62
  %109 = insertelement <2 x double> poison, double %104, i64 0
  %110 = insertelement <2 x double> %109, double %105, i64 1
  br label %if.end245

if.end245:                                        ; preds = %if.then221, %if.end217
  %ntrt.0 = phi i32 [ %106, %if.then221 ], [ 0, %if.end217 ]
  %Utr.0 = phi double [ %103, %if.then221 ], [ 0.000000e+00, %if.end217 ]
  %Htt2.0 = phi double [ %107, %if.then221 ], [ 0.000000e+00, %if.end217 ]
  %Vtt2.0 = phi double [ %108, %if.then221 ], [ 0.000000e+00, %if.end217 ]
  %111 = phi <2 x double> [ %110, %if.then221 ], [ zeroinitializer, %if.end217 ]
  %mul246 = fmul double %68, %68
  %112 = insertelement <2 x double> poison, double %72, i64 0
  %113 = insertelement <2 x double> %112, double %73, i64 1
  %114 = fmul <2 x double> %113, %113
  %115 = insertelement <2 x double> poison, double %34, i64 0
  %116 = insertelement <2 x double> %115, double %33, i64 1
  %117 = insertelement <2 x double> poison, double %68, i64 0
  %118 = shufflevector <2 x double> %117, <2 x double> poison, <2 x i32> zeroinitializer
  %119 = fmul <2 x double> %116, %118
  %120 = insertelement <2 x double> poison, double %37, i64 0
  %121 = insertelement <2 x double> %120, double %38, i64 1
  %122 = shufflevector <2 x double> %112, <2 x double> poison, <2 x i32> zeroinitializer
  %123 = fmul <2 x double> %121, %122
  %div6.i = fdiv double %68, %72
  %cmp.i.i.i.i = fcmp olt double %div6.i, 1.000000e+00
  %.sroa.speculated46.i = select i1 %cmp.i.i.i.i, double %div6.i, double 1.000000e+00
  %div11.i = fdiv double %72, %68
  %cmp.i.i.i38.i = fcmp olt double %div11.i, 1.000000e+00
  %.sroa.speculated45.i = select i1 %cmp.i.i.i38.i, double %div11.i, double 1.000000e+00
  %124 = extractelement <2 x double> %114, i64 0
  %div16.i = fdiv double %mul246, %124
  %cmp.i.i.i40.i = fcmp olt double %div16.i, 5.000000e-01
  %.sroa.speculated44.i = select i1 %cmp.i.i.i40.i, double %div16.i, double 5.000000e-01
  %mul18.i = fmul double %124, %.sroa.speculated44.i
  %div21.i = fdiv double %124, %mul246
  %cmp.i.i.i42.i = fcmp olt double %div21.i, 5.000000e-01
  %.sroa.speculated.i = select i1 %cmp.i.i.i42.i, double %div21.i, double 5.000000e-01
  %mul23.i = fmul double %mul246, %.sroa.speculated.i
  %mul249 = fmul double %38, %38
  %div = fdiv double %mul249, %37
  %mul250 = fmul double %37, %37
  %mul251 = fmul double %mul250, 4.900000e+00
  %add = fadd double %mul251, %div
  %mul252 = fmul double %33, %33
  %div253 = fdiv double %mul252, %34
  %mul254 = fmul double %34, %34
  %mul255 = fmul double %mul254, 4.900000e+00
  %add256 = fadd double %mul255, %div253
  %mul260 = fmul double %38, %39
  %div261 = fdiv double %mul260, %37
  %mul262 = fmul double %33, %35
  %div263 = fdiv double %mul262, %34
  %mul4.i2057 = fmul double %div263, %72
  %125 = insertelement <2 x double> %112, double %mul18.i, i64 1
  %126 = insertelement <2 x double> %117, double %mul23.i, i64 1
  %127 = fadd <2 x double> %125, %126
  %128 = insertelement <2 x double> poison, double %35, i64 0
  %129 = insertelement <2 x double> %128, double %mul4.i2057, i64 1
  %130 = insertelement <2 x double> %117, double %.sroa.speculated46.i, i64 1
  %131 = fmul <2 x double> %129, %130
  %mul8.i2062 = fmul double %div261, %68
  %132 = insertelement <2 x double> poison, double %39, i64 0
  %133 = insertelement <2 x double> %132, double %mul8.i2062, i64 1
  %134 = insertelement <2 x double> %112, double %.sroa.speculated45.i, i64 1
  %135 = fmul <2 x double> %133, %134
  %136 = fadd <2 x double> %131, %135
  %137 = fsub <2 x double> %131, %135
  %138 = shufflevector <2 x double> %136, <2 x double> %137, <2 x i32> <i32 0, i32 3>
  %139 = fdiv <2 x double> %138, %127
  %140 = extractelement <2 x double> %139, i64 1
  %mul26.i2078 = fmul double %mul3.i, %140
  %141 = extractelement <2 x double> %139, i64 0
  %sub27.i2079 = fsub double %141, %mul26.i2078
  %mul268 = fmul double %70, %70
  %mul.i2080 = fmul double %41, %72
  %142 = insertelement <2 x double> poison, double %70, i64 0
  %143 = shufflevector <2 x double> %142, <2 x double> poison, <2 x i32> zeroinitializer
  %144 = fmul <2 x double> %116, %143
  %145 = extractelement <2 x double> %144, i64 0
  %add.i2082 = fadd double %mul.i2080, %145
  %mul4.i2086 = fmul double %42, %70
  %div6.i2087 = fdiv double %72, %70
  %cmp.i.i.i.i2088 = fcmp olt double %div6.i2087, 1.000000e+00
  %.sroa.speculated46.i2089 = select i1 %cmp.i.i.i.i2088, double %div6.i2087, double 1.000000e+00
  %mul7.i2090 = fmul double %mul4.i2086, %.sroa.speculated46.i2089
  %div11.i2092 = fdiv double %70, %72
  %cmp.i.i.i38.i2093 = fcmp olt double %div11.i2092, 1.000000e+00
  %.sroa.speculated45.i2094 = select i1 %cmp.i.i.i38.i2093, double %div11.i2092, double 1.000000e+00
  %div16.i2097 = fdiv double %124, %mul268
  %cmp.i.i.i40.i2098 = fcmp olt double %div16.i2097, 5.000000e-01
  %.sroa.speculated44.i2099 = select i1 %cmp.i.i.i40.i2098, double %div16.i2097, double 5.000000e-01
  %mul18.i2100 = fmul double %mul268, %.sroa.speculated44.i2099
  %div21.i2101 = fdiv double %mul268, %124
  %cmp.i.i.i42.i2102 = fcmp olt double %div21.i2101, 5.000000e-01
  %.sroa.speculated.i2103 = select i1 %cmp.i.i.i42.i2102, double %div21.i2101, double 5.000000e-01
  %mul23.i2104 = fmul double %124, %.sroa.speculated.i2103
  %mul275 = fmul double %42, %42
  %div276 = fdiv double %mul275, %41
  %mul277 = fmul double %41, %41
  %mul278 = fmul double %mul277, 4.900000e+00
  %add279 = fadd double %mul278, %div276
  %mul.i2109 = fmul double %42, %72
  %146 = extractelement <2 x double> %144, i64 1
  %add.i2111 = fadd double %mul.i2109, %146
  %mul4.i2115 = fmul double %add279, %70
  %mul7.i2119 = fmul double %mul4.i2115, %.sroa.speculated46.i2089
  %147 = insertelement <2 x double> poison, double %33, i64 0
  %148 = insertelement <2 x double> %147, double %add256, i64 1
  %149 = fmul <2 x double> %148, %122
  %150 = insertelement <2 x double> poison, double %.sroa.speculated46.i, i64 0
  %151 = shufflevector <2 x double> %150, <2 x double> poison, <2 x i32> zeroinitializer
  %152 = fmul <2 x double> %149, %151
  %153 = insertelement <2 x double> poison, double %.sroa.speculated45.i2094, i64 0
  %154 = shufflevector <2 x double> %153, <2 x double> poison, <2 x i32> zeroinitializer
  %155 = fmul <2 x double> %149, %154
  %156 = extractelement <2 x double> %155, i64 0
  %sub.i2096 = fsub double %mul7.i2090, %156
  %157 = extractelement <2 x double> %155, i64 1
  %sub.i2125 = fsub double %mul7.i2119, %157
  %mul285 = fmul double %42, %43
  %div286 = fdiv double %mul285, %41
  %mul.i2138 = fmul double %43, %72
  %mul4.i2144 = fmul double %div286, %70
  %mul7.i2148 = fmul double %mul4.i2144, %.sroa.speculated46.i2089
  %158 = insertelement <2 x double> %112, double %mul18.i2100, i64 1
  %159 = insertelement <2 x double> %142, double %mul23.i2104, i64 1
  %160 = fadd <2 x double> %158, %159
  %161 = extractelement <2 x double> %160, i64 0
  %div.i2084 = fdiv double %add.i2082, %161
  %div.i2113 = fdiv double %add.i2111, %161
  %162 = extractelement <2 x double> %160, i64 1
  %div25.i2106 = fdiv double %sub.i2096, %162
  %mul26.i2107 = fmul double %mul3.i, %div25.i2106
  %sub27.i2108 = fsub double %div.i2084, %mul26.i2107
  %div25.i2135 = fdiv double %sub.i2125, %162
  %mul26.i2136 = fmul double %mul3.i, %div25.i2135
  %163 = insertelement <2 x double> %142, double %.sroa.speculated45.i2094, i64 1
  %164 = fmul <2 x double> %129, %163
  %165 = extractelement <2 x double> %164, i64 0
  %add.i2140 = fadd double %mul.i2138, %165
  %div.i2142 = fdiv double %add.i2140, %161
  %166 = extractelement <2 x double> %164, i64 1
  %sub.i2154 = fsub double %mul7.i2148, %166
  %div25.i2164 = fdiv double %sub.i2154, %162
  %mul26.i2165 = fmul double %mul3.i, %div25.i2164
  %sub27.i2166 = fsub double %div.i2142, %mul26.i2165
  %mul290 = fmul double %75, %75
  %mul291 = fmul double %66, %66
  %167 = insertelement <2 x double> %115, double %35, i64 1
  %168 = insertelement <2 x double> poison, double %75, i64 0
  %169 = shufflevector <2 x double> %168, <2 x double> poison, <2 x i32> zeroinitializer
  %170 = fmul <2 x double> %167, %169
  %mul1.i2168 = fmul double %49, %66
  %171 = extractelement <2 x double> %170, i64 0
  %add.i2169 = fadd double %mul1.i2168, %171
  %add2.i2170 = fadd double %66, %75
  %div.i2171 = fdiv double %add.i2169, %add2.i2170
  %mul4.i2173 = fmul double %35, %66
  %div6.i2174 = fdiv double %75, %66
  %cmp.i.i.i.i2175 = fcmp olt double %div6.i2174, 1.000000e+00
  %.sroa.speculated46.i2176 = select i1 %cmp.i.i.i.i2175, double %div6.i2174, double 1.000000e+00
  %mul7.i2177 = fmul double %mul4.i2173, %.sroa.speculated46.i2176
  %mul8.i2178 = fmul double %51, %75
  %div11.i2179 = fdiv double %66, %75
  %cmp.i.i.i38.i2180 = fcmp olt double %div11.i2179, 1.000000e+00
  %.sroa.speculated45.i2181 = select i1 %cmp.i.i.i38.i2180, double %div11.i2179, double 1.000000e+00
  %mul13.i2182 = fmul double %mul8.i2178, %.sroa.speculated45.i2181
  %sub.i2183 = fsub double %mul7.i2177, %mul13.i2182
  %div16.i2184 = fdiv double %mul290, %mul291
  %cmp.i.i.i40.i2185 = fcmp olt double %div16.i2184, 5.000000e-01
  %.sroa.speculated44.i2186 = select i1 %cmp.i.i.i40.i2185, double %div16.i2184, double 5.000000e-01
  %mul18.i2187 = fmul double %mul291, %.sroa.speculated44.i2186
  %div21.i2188 = fdiv double %mul291, %mul290
  %cmp.i.i.i42.i2189 = fcmp olt double %div21.i2188, 5.000000e-01
  %.sroa.speculated.i2190 = select i1 %cmp.i.i.i42.i2189, double %div21.i2188, double 5.000000e-01
  %mul23.i2191 = fmul double %mul290, %.sroa.speculated.i2190
  %add24.i2192 = fadd double %mul18.i2187, %mul23.i2191
  %div25.i2193 = fdiv double %sub.i2183, %add24.i2192
  %mul26.i2194 = fmul double %mul3.i, %div25.i2193
  %sub27.i2195 = fsub double %div.i2171, %mul26.i2194
  %mul293 = fmul double %50, %51
  %div294 = fdiv double %mul293, %49
  %mul.i2196 = fmul double %33, %75
  %mul1.i2197 = fmul double %50, %66
  %add.i2198 = fadd double %mul1.i2197, %mul.i2196
  %div.i2200 = fdiv double %add.i2198, %add2.i2170
  %mul4.i2202 = fmul double %div263, %66
  %mul7.i2206 = fmul double %mul4.i2202, %.sroa.speculated46.i2176
  %mul8.i2207 = fmul double %div294, %75
  %mul13.i2211 = fmul double %mul8.i2207, %.sroa.speculated45.i2181
  %sub.i2212 = fsub double %mul7.i2206, %mul13.i2211
  %div25.i2222 = fdiv double %sub.i2212, %add24.i2192
  %mul26.i2223 = fmul double %mul3.i, %div25.i2222
  %sub27.i2224 = fsub double %div.i2200, %mul26.i2223
  %mul300 = fmul double %51, %51
  %div301 = fdiv double %mul300, %49
  %mul302 = fmul double %49, %49
  %mul303 = fmul double %mul302, 4.900000e+00
  %add304 = fadd double %mul303, %div301
  %mul305 = fmul double %35, %35
  %div306 = fdiv double %mul305, %34
  %add309 = fadd double %mul255, %div306
  %mul1.i2226 = fmul double %51, %66
  %172 = extractelement <2 x double> %170, i64 1
  %add.i2227 = fadd double %mul1.i2226, %172
  %div.i2229 = fdiv double %add.i2227, %add2.i2170
  %mul4.i2231 = fmul double %add309, %66
  %mul7.i2235 = fmul double %mul4.i2231, %.sroa.speculated46.i2176
  %mul8.i2236 = fmul double %add304, %75
  %mul13.i2240 = fmul double %mul8.i2236, %.sroa.speculated45.i2181
  %sub.i2241 = fsub double %mul7.i2235, %mul13.i2240
  %div25.i2251 = fdiv double %sub.i2241, %add24.i2192
  %mul26.i2252 = fmul double %mul3.i, %div25.i2251
  %mul.i2254 = fmul double %45, %66
  %173 = insertelement <2 x double> poison, double %73, i64 0
  %174 = shufflevector <2 x double> %173, <2 x double> poison, <2 x i32> zeroinitializer
  %175 = fmul <2 x double> %167, %174
  %176 = extractelement <2 x double> %175, i64 0
  %add.i2256 = fadd double %mul.i2254, %176
  %add2.i2257 = fadd double %66, %73
  %div.i2258 = fdiv double %add.i2256, %add2.i2257
  %mul4.i2260 = fmul double %47, %73
  %div6.i2261 = fdiv double %66, %73
  %cmp.i.i.i.i2262 = fcmp olt double %div6.i2261, 1.000000e+00
  %.sroa.speculated46.i2263 = select i1 %cmp.i.i.i.i2262, double %div6.i2261, double 1.000000e+00
  %mul7.i2264 = fmul double %mul4.i2260, %.sroa.speculated46.i2263
  %div11.i2266 = fdiv double %73, %66
  %cmp.i.i.i38.i2267 = fcmp olt double %div11.i2266, 1.000000e+00
  %.sroa.speculated45.i2268 = select i1 %cmp.i.i.i38.i2267, double %div11.i2266, double 1.000000e+00
  %mul13.i2269 = fmul double %mul4.i2173, %.sroa.speculated45.i2268
  %sub.i2270 = fsub double %mul7.i2264, %mul13.i2269
  %177 = extractelement <2 x double> %114, i64 1
  %div16.i2271 = fdiv double %mul291, %177
  %cmp.i.i.i40.i2272 = fcmp olt double %div16.i2271, 5.000000e-01
  %.sroa.speculated44.i2273 = select i1 %cmp.i.i.i40.i2272, double %div16.i2271, double 5.000000e-01
  %mul18.i2274 = fmul double %177, %.sroa.speculated44.i2273
  %div21.i2275 = fdiv double %177, %mul291
  %cmp.i.i.i42.i2276 = fcmp olt double %div21.i2275, 5.000000e-01
  %.sroa.speculated.i2277 = select i1 %cmp.i.i.i42.i2276, double %div21.i2275, double 5.000000e-01
  %mul23.i2278 = fmul double %mul291, %.sroa.speculated.i2277
  %add24.i2279 = fadd double %mul18.i2274, %mul23.i2278
  %div25.i2280 = fdiv double %sub.i2270, %add24.i2279
  %mul26.i2281 = fmul double %mul3.i, %div25.i2280
  %sub27.i2282 = fsub double %div.i2258, %mul26.i2281
  %mul318 = fmul double %46, %47
  %div319 = fdiv double %mul318, %45
  %mul.i2283 = fmul double %46, %66
  %mul1.i2284 = fmul double %33, %73
  %add.i2285 = fadd double %mul.i2283, %mul1.i2284
  %div.i2287 = fdiv double %add.i2285, %add2.i2257
  %mul4.i2289 = fmul double %div319, %73
  %mul7.i2293 = fmul double %mul4.i2289, %.sroa.speculated46.i2263
  %mul13.i2298 = fmul double %mul4.i2202, %.sroa.speculated45.i2268
  %sub.i2299 = fsub double %mul7.i2293, %mul13.i2298
  %div25.i2309 = fdiv double %sub.i2299, %add24.i2279
  %mul26.i2310 = fmul double %mul3.i, %div25.i2309
  %sub27.i2311 = fsub double %div.i2287, %mul26.i2310
  %mul328 = fmul double %47, %47
  %div329 = fdiv double %mul328, %45
  %mul330 = fmul double %45, %45
  %mul331 = fmul double %mul330, 4.900000e+00
  %add332 = fadd double %mul331, %div329
  %mul.i2312 = fmul double %47, %66
  %178 = extractelement <2 x double> %175, i64 1
  %add.i2314 = fadd double %mul.i2312, %178
  %div.i2316 = fdiv double %add.i2314, %add2.i2257
  %mul4.i2318 = fmul double %add332, %73
  %mul7.i2322 = fmul double %mul4.i2318, %.sroa.speculated46.i2263
  %mul13.i2327 = fmul double %mul4.i2231, %.sroa.speculated45.i2268
  %sub.i2328 = fsub double %mul7.i2322, %mul13.i2327
  %div25.i2338 = fdiv double %sub.i2328, %add24.i2279
  %mul26.i2339 = fmul double %mul3.i, %div25.i2338
  %179 = fadd <2 x double> %123, %119
  %180 = insertelement <2 x double> poison, double %38, i64 0
  %181 = insertelement <2 x double> %180, double %add, i64 1
  %182 = fmul <2 x double> %181, %118
  %183 = insertelement <2 x double> poison, double %.sroa.speculated45.i, i64 0
  %184 = shufflevector <2 x double> %183, <2 x double> poison, <2 x i32> zeroinitializer
  %185 = fmul <2 x double> %182, %184
  %186 = shufflevector <2 x double> %127, <2 x double> poison, <2 x i32> zeroinitializer
  %187 = fdiv <2 x double> %179, %186
  %188 = fsub <2 x double> %152, %185
  %189 = shufflevector <2 x double> %127, <2 x double> poison, <2 x i32> <i32 1, i32 1>
  %190 = fdiv <2 x double> %188, %189
  %191 = fmul <2 x double> %17, %190
  %192 = fsub <2 x double> %187, %191
  %193 = extractelement <2 x double> %192, i64 0
  %194 = fmul <2 x double> %192, %192
  %mul338 = extractelement <2 x double> %194, i64 0
  %mul339 = fmul double %mul338, 4.900000e+00
  %195 = extractelement <2 x double> %192, i64 1
  %mul336 = fmul double %195, %195
  %div337 = fdiv double %mul336, %193
  %add340 = fadd double %div337, %mul339
  %mul341 = fmul double %195, %sub27.i2079
  %div342 = fdiv double %mul341, %193
  %mul345 = fmul double %sub27.i2108, %sub27.i2108
  %mul346 = fmul double %mul345, 4.900000e+00
  %sub27.i2137 = fsub double %div.i2113, %mul26.i2136
  %mul343 = fmul double %sub27.i2137, %sub27.i2137
  %div344 = fdiv double %mul343, %sub27.i2108
  %add347 = fadd double %div344, %mul346
  %mul348 = fmul double %sub27.i2137, %sub27.i2166
  %div349 = fdiv double %mul348, %sub27.i2108
  %sub27.i2253 = fsub double %div.i2229, %mul26.i2252
  %mul350 = fmul double %sub27.i2253, %sub27.i2224
  %div351 = fdiv double %mul350, %sub27.i2195
  %mul352 = fmul double %sub27.i2253, %sub27.i2253
  %div353 = fdiv double %mul352, %sub27.i2195
  %mul354 = fmul double %sub27.i2195, %sub27.i2195
  %mul355 = fmul double %mul354, 4.900000e+00
  %add356 = fadd double %div353, %mul355
  %sub27.i2340 = fsub double %div.i2316, %mul26.i2339
  %mul357 = fmul double %sub27.i2340, %sub27.i2311
  %div358 = fdiv double %mul357, %sub27.i2282
  %mul359 = fmul double %sub27.i2340, %sub27.i2340
  %div360 = fdiv double %mul359, %sub27.i2282
  %mul361 = fmul double %sub27.i2282, %sub27.i2282
  %mul362 = fmul double %mul361, 4.900000e+00
  %add363 = fadd double %div360, %mul362
  %196 = shufflevector <2 x double> %192, <2 x double> poison, <2 x i32> <i32 1, i32 undef>
  %197 = insertelement <2 x double> %196, double %add340, i64 1
  br i1 %cmp136, label %if.then367, label %if.end404

if.then367:                                       ; preds = %if.end245
  %198 = fmul <2 x double> %122, %84
  %199 = extractelement <2 x double> %84, i64 1
  %mul371 = fmul double %199, %199
  %200 = extractelement <2 x double> %84, i64 0
  %div372 = fdiv double %mul371, %200
  %201 = fmul <2 x double> %84, %84
  %mul373 = extractelement <2 x double> %201, i64 0
  %mul374 = fmul double %mul373, 4.900000e+00
  %add375 = fadd double %div372, %mul374
  %202 = fadd <2 x double> %119, %198
  %203 = fdiv <2 x double> %202, %186
  %204 = shufflevector <2 x double> %84, <2 x double> poison, <2 x i32> <i32 1, i32 undef>
  %205 = insertelement <2 x double> %204, double %add375, i64 1
  %206 = fmul <2 x double> %118, %205
  %207 = fmul <2 x double> %184, %206
  %208 = fsub <2 x double> %152, %207
  %209 = fdiv <2 x double> %208, %189
  %210 = fmul <2 x double> %17, %209
  %211 = fsub <2 x double> %203, %210
  %mul384 = fmul double %Vlt.0, %199
  %div385 = fdiv double %mul384, %200
  %mul8.i2410 = fmul double %68, %div385
  %212 = insertelement <2 x double> poison, double %Vlt.0, i64 0
  %213 = insertelement <2 x double> %212, double %mul8.i2410, i64 1
  %214 = fmul <2 x double> %134, %213
  %215 = fadd <2 x double> %131, %214
  %216 = fsub <2 x double> %131, %214
  %217 = shufflevector <2 x double> %215, <2 x double> %216, <2 x i32> <i32 0, i32 3>
  %218 = fdiv <2 x double> %217, %127
  %219 = extractelement <2 x double> %218, i64 1
  %mul26.i2426 = fmul double %mul3.i, %219
  %220 = extractelement <2 x double> %218, i64 0
  %sub27.i2427 = fsub double %220, %mul26.i2426
  %221 = extractelement <2 x double> %211, i64 1
  %mul393 = fmul double %221, %221
  %222 = extractelement <2 x double> %211, i64 0
  %div394 = fdiv double %mul393, %222
  %223 = fmul <2 x double> %211, %211
  %mul395 = extractelement <2 x double> %223, i64 0
  %mul396 = fmul double %mul395, 4.900000e+00
  %add397 = fadd double %mul396, %div394
  %224 = insertelement <2 x double> poison, double %221, i64 0
  %225 = insertelement <2 x double> %224, double %add397, i64 1
  %226 = fadd <2 x double> %197, %225
  %227 = fmul <2 x double> %226, <double 5.000000e-01, double 5.000000e-01>
  %mul400 = fmul double %sub27.i2427, %221
  %div401 = fdiv double %mul400, %222
  %add402 = fadd double %div342, %div401
  %mul403 = fmul double %add402, 5.000000e-01
  br label %if.end404

if.end404:                                        ; preds = %if.then367, %if.end245
  %Vxfluxminus.0 = phi double [ %mul403, %if.then367 ], [ %div342, %if.end245 ]
  %228 = phi <2 x double> [ %211, %if.then367 ], [ zeroinitializer, %if.end245 ]
  %229 = phi <2 x double> [ %227, %if.then367 ], [ %197, %if.end245 ]
  %230 = insertelement <2 x double> poison, double %sub27.i2137, i64 0
  %231 = insertelement <2 x double> %230, double %add347, i64 1
  br i1 %cmp164, label %if.then408, label %if.end445

if.then408:                                       ; preds = %if.end404
  %232 = fmul <2 x double> %122, %93
  %233 = extractelement <2 x double> %93, i64 1
  %mul417 = fmul double %233, %233
  %234 = extractelement <2 x double> %93, i64 0
  %div418 = fdiv double %mul417, %234
  %235 = fmul <2 x double> %93, %93
  %mul419 = extractelement <2 x double> %235, i64 0
  %mul420 = fmul double %mul419, 4.900000e+00
  %add421 = fadd double %mul420, %div418
  %236 = fadd <2 x double> %144, %232
  %237 = shufflevector <2 x double> %160, <2 x double> poison, <2 x i32> zeroinitializer
  %238 = fdiv <2 x double> %236, %237
  %239 = shufflevector <2 x double> %93, <2 x double> poison, <2 x i32> <i32 1, i32 undef>
  %240 = insertelement <2 x double> %239, double %add421, i64 1
  %241 = fmul <2 x double> %143, %240
  %242 = insertelement <2 x double> poison, double %.sroa.speculated46.i2089, i64 0
  %243 = shufflevector <2 x double> %242, <2 x double> poison, <2 x i32> zeroinitializer
  %244 = fmul <2 x double> %243, %241
  %245 = fsub <2 x double> %244, %155
  %246 = shufflevector <2 x double> %160, <2 x double> poison, <2 x i32> <i32 1, i32 1>
  %247 = fdiv <2 x double> %245, %246
  %248 = fmul <2 x double> %17, %247
  %249 = fsub <2 x double> %238, %248
  %mul427 = fmul double %233, %Vrt.0
  %div428 = fdiv double %mul427, %234
  %mul4.i2492 = fmul double %70, %div428
  %250 = insertelement <2 x double> %112, double %.sroa.speculated46.i2089, i64 1
  %251 = insertelement <2 x double> poison, double %Vrt.0, i64 0
  %252 = insertelement <2 x double> %251, double %mul4.i2492, i64 1
  %253 = fmul <2 x double> %250, %252
  %254 = fadd <2 x double> %253, %164
  %255 = fsub <2 x double> %253, %164
  %256 = shufflevector <2 x double> %254, <2 x double> %255, <2 x i32> <i32 0, i32 3>
  %257 = fdiv <2 x double> %256, %160
  %258 = extractelement <2 x double> %257, i64 1
  %mul26.i2513 = fmul double %mul3.i, %258
  %259 = extractelement <2 x double> %257, i64 0
  %sub27.i2514 = fsub double %259, %mul26.i2513
  %260 = extractelement <2 x double> %249, i64 1
  %mul434 = fmul double %260, %260
  %261 = extractelement <2 x double> %249, i64 0
  %div435 = fdiv double %mul434, %261
  %262 = fmul <2 x double> %249, %249
  %mul436 = extractelement <2 x double> %262, i64 0
  %mul437 = fmul double %mul436, 4.900000e+00
  %add438 = fadd double %mul437, %div435
  %263 = insertelement <2 x double> poison, double %260, i64 0
  %264 = insertelement <2 x double> %263, double %add438, i64 1
  %265 = fadd <2 x double> %231, %264
  %266 = fmul <2 x double> %265, <double 5.000000e-01, double 5.000000e-01>
  %mul441 = fmul double %260, %sub27.i2514
  %div442 = fdiv double %mul441, %261
  %add443 = fadd double %div349, %div442
  %mul444 = fmul double %add443, 5.000000e-01
  br label %if.end445

if.end445:                                        ; preds = %if.then408, %if.end404
  %Vxfluxplus.0 = phi double [ %mul444, %if.then408 ], [ %div349, %if.end404 ]
  %267 = phi <2 x double> [ %249, %if.then408 ], [ zeroinitializer, %if.end404 ]
  %268 = phi <2 x double> [ %266, %if.then408 ], [ %231, %if.end404 ]
  %269 = insertelement <2 x double> poison, double %sub27.i2253, i64 0
  %270 = insertelement <2 x double> %269, double %div351, i64 1
  br i1 %cmp192, label %if.then449, label %if.end486

if.then449:                                       ; preds = %if.end445
  %271 = fmul <2 x double> %122, %102
  %272 = insertelement <2 x double> %128, double %add309, i64 1
  %273 = fmul <2 x double> %272, %122
  %274 = insertelement <4 x double> poison, double %124, i64 0
  %275 = insertelement <4 x double> %274, double %mul290, i64 1
  %276 = insertelement <4 x double> %275, double %72, i64 2
  %277 = insertelement <4 x double> %276, double %75, i64 3
  %278 = insertelement <4 x double> poison, double %mul290, i64 0
  %279 = insertelement <4 x double> %278, double %124, i64 1
  %280 = insertelement <4 x double> %279, double %75, i64 2
  %281 = insertelement <4 x double> %280, double %72, i64 3
  %282 = fdiv <4 x double> %277, %281
  %283 = fcmp olt <4 x double> %282, <double 5.000000e-01, double 5.000000e-01, double 1.000000e+00, double 1.000000e+00>
  %284 = extractelement <4 x i1> %283, i64 3
  %285 = extractelement <4 x double> %282, i64 3
  %.sroa.speculated46.i2524 = select i1 %284, double %285, double 1.000000e+00
  %286 = extractelement <4 x i1> %283, i64 2
  %287 = extractelement <4 x double> %282, i64 2
  %.sroa.speculated45.i2529 = select i1 %286, double %287, double 1.000000e+00
  %288 = extractelement <4 x i1> %283, i64 1
  %289 = extractelement <4 x double> %282, i64 1
  %.sroa.speculated44.i2534 = select i1 %288, double %289, double 5.000000e-01
  %mul18.i2535 = fmul double %124, %.sroa.speculated44.i2534
  %290 = extractelement <4 x i1> %283, i64 0
  %291 = extractelement <4 x double> %282, i64 0
  %.sroa.speculated.i2538 = select i1 %290, double %291, double 5.000000e-01
  %mul23.i2539 = fmul double %mul290, %.sroa.speculated.i2538
  %292 = extractelement <2 x double> %102, i64 1
  %mul453 = fmul double %Ubr.0, %292
  %293 = extractelement <2 x double> %102, i64 0
  %div454 = fdiv double %mul453, %293
  %mul8.i2555 = fmul double %75, %div454
  %mul13.i2559 = fmul double %.sroa.speculated45.i2529, %mul8.i2555
  %294 = insertelement <2 x double> %112, double %mul18.i2535, i64 1
  %295 = insertelement <2 x double> %168, double %mul23.i2539, i64 1
  %296 = fadd <2 x double> %294, %295
  %297 = insertelement <2 x double> %112, double %mul4.i2057, i64 1
  %298 = insertelement <2 x double> poison, double %Ubr.0, i64 0
  %299 = insertelement <2 x double> %298, double %.sroa.speculated46.i2524, i64 1
  %300 = fmul <2 x double> %297, %299
  %301 = insertelement <2 x double> poison, double %mul.i2196, i64 0
  %302 = insertelement <2 x double> %301, double %mul13.i2559, i64 1
  %303 = fadd <2 x double> %300, %302
  %304 = fsub <2 x double> %300, %302
  %305 = shufflevector <2 x double> %303, <2 x double> %304, <2 x i32> <i32 0, i32 3>
  %306 = fdiv <2 x double> %305, %296
  %307 = extractelement <2 x double> %306, i64 1
  %mul26.i2571 = fmul double %mul3.i, %307
  %308 = extractelement <2 x double> %306, i64 0
  %sub27.i2572 = fsub double %308, %mul26.i2571
  %mul460 = fmul double %292, %292
  %div461 = fdiv double %mul460, %293
  %309 = fmul <2 x double> %102, %102
  %mul462 = extractelement <2 x double> %309, i64 0
  %mul463 = fmul double %mul462, 4.900000e+00
  %add464 = fadd double %mul463, %div461
  %310 = fadd <2 x double> %170, %271
  %311 = shufflevector <2 x double> %296, <2 x double> poison, <2 x i32> zeroinitializer
  %312 = fdiv <2 x double> %310, %311
  %313 = insertelement <2 x double> poison, double %.sroa.speculated46.i2524, i64 0
  %314 = shufflevector <2 x double> %313, <2 x double> poison, <2 x i32> zeroinitializer
  %315 = fmul <2 x double> %273, %314
  %316 = shufflevector <2 x double> %102, <2 x double> poison, <2 x i32> <i32 1, i32 undef>
  %317 = insertelement <2 x double> %316, double %add464, i64 1
  %318 = fmul <2 x double> %169, %317
  %319 = insertelement <2 x double> poison, double %.sroa.speculated45.i2529, i64 0
  %320 = shufflevector <2 x double> %319, <2 x double> poison, <2 x i32> zeroinitializer
  %321 = fmul <2 x double> %320, %318
  %322 = fsub <2 x double> %315, %321
  %323 = shufflevector <2 x double> %296, <2 x double> poison, <2 x i32> <i32 1, i32 1>
  %324 = fdiv <2 x double> %322, %323
  %325 = fmul <2 x double> %17, %324
  %326 = fsub <2 x double> %312, %325
  %327 = extractelement <2 x double> %326, i64 1
  %mul475 = fmul double %sub27.i2572, %327
  %328 = extractelement <2 x double> %326, i64 0
  %div476 = fdiv double %mul475, %328
  %329 = insertelement <2 x double> poison, double %327, i64 0
  %330 = insertelement <2 x double> %329, double %div476, i64 1
  %331 = fadd <2 x double> %270, %330
  %332 = fmul <2 x double> %331, <double 5.000000e-01, double 5.000000e-01>
  %mul479 = fmul double %327, %327
  %div480 = fdiv double %mul479, %328
  %333 = fmul <2 x double> %326, %326
  %mul481 = extractelement <2 x double> %333, i64 0
  %mul482 = fmul double %mul481, 4.900000e+00
  %add483 = fadd double %mul482, %div480
  %add484 = fadd double %add356, %add483
  %mul485 = fmul double %add484, 5.000000e-01
  br label %if.end486

if.end486:                                        ; preds = %if.then449, %if.end445
  %Vyfluxminus.0 = phi double [ %mul485, %if.then449 ], [ %add356, %if.end445 ]
  %334 = phi <2 x double> [ %326, %if.then449 ], [ zeroinitializer, %if.end445 ]
  %335 = phi <2 x double> [ %332, %if.then449 ], [ %270, %if.end445 ]
  %336 = insertelement <2 x double> poison, double %sub27.i2340, i64 0
  %337 = insertelement <2 x double> %336, double %div358, i64 1
  br i1 %cmp220, label %if.then490, label %if.end527

if.then490:                                       ; preds = %if.end486
  %338 = fmul <2 x double> %122, %111
  %339 = shufflevector <2 x double> %114, <2 x double> poison, <4 x i32> <i32 1, i32 0, i32 undef, i32 undef>
  %340 = insertelement <4 x double> %339, double %73, i64 2
  %341 = insertelement <4 x double> %340, double %72, i64 3
  %342 = shufflevector <2 x double> %114, <2 x double> poison, <4 x i32> <i32 0, i32 1, i32 undef, i32 undef>
  %343 = insertelement <4 x double> %342, double %72, i64 2
  %344 = insertelement <4 x double> %343, double %73, i64 3
  %345 = fdiv <4 x double> %341, %344
  %346 = insertelement <2 x double> %128, double %add309, i64 1
  %347 = fmul <2 x double> %346, %122
  %348 = fcmp olt <4 x double> %345, <double 5.000000e-01, double 5.000000e-01, double 1.000000e+00, double 1.000000e+00>
  %349 = extractelement <4 x i1> %348, i64 3
  %350 = extractelement <4 x double> %345, i64 3
  %.sroa.speculated46.i2611 = select i1 %349, double %350, double 1.000000e+00
  %351 = extractelement <4 x i1> %348, i64 2
  %352 = extractelement <4 x double> %345, i64 2
  %.sroa.speculated45.i2616 = select i1 %351, double %352, double 1.000000e+00
  %353 = extractelement <4 x i1> %348, i64 1
  %354 = extractelement <4 x double> %345, i64 1
  %.sroa.speculated44.i2621 = select i1 %353, double %354, double 5.000000e-01
  %mul18.i2622 = fmul double %177, %.sroa.speculated44.i2621
  %355 = extractelement <4 x i1> %348, i64 0
  %356 = extractelement <4 x double> %345, i64 0
  %.sroa.speculated.i2625 = select i1 %355, double %356, double 5.000000e-01
  %mul23.i2626 = fmul double %124, %.sroa.speculated.i2625
  %357 = extractelement <2 x double> %111, i64 1
  %mul496 = fmul double %Utr.0, %357
  %358 = extractelement <2 x double> %111, i64 0
  %div497 = fdiv double %mul496, %358
  %mul4.i2637 = fmul double %73, %div497
  %mul13.i2646 = fmul double %mul4.i2057, %.sroa.speculated45.i2616
  %359 = insertelement <2 x double> %112, double %mul18.i2622, i64 1
  %360 = insertelement <2 x double> %173, double %mul23.i2626, i64 1
  %361 = fadd <2 x double> %359, %360
  %362 = insertelement <2 x double> %112, double %.sroa.speculated46.i2611, i64 1
  %363 = insertelement <2 x double> poison, double %Utr.0, i64 0
  %364 = insertelement <2 x double> %363, double %mul4.i2637, i64 1
  %365 = fmul <2 x double> %362, %364
  %366 = insertelement <2 x double> poison, double %mul1.i2284, i64 0
  %367 = insertelement <2 x double> %366, double %mul13.i2646, i64 1
  %368 = fadd <2 x double> %365, %367
  %369 = fsub <2 x double> %365, %367
  %370 = shufflevector <2 x double> %368, <2 x double> %369, <2 x i32> <i32 0, i32 3>
  %371 = fdiv <2 x double> %370, %361
  %372 = extractelement <2 x double> %371, i64 1
  %mul26.i2658 = fmul double %mul3.i, %372
  %373 = extractelement <2 x double> %371, i64 0
  %sub27.i2659 = fsub double %373, %mul26.i2658
  %mul506 = fmul double %357, %357
  %div507 = fdiv double %mul506, %358
  %374 = fmul <2 x double> %111, %111
  %mul508 = extractelement <2 x double> %374, i64 0
  %mul509 = fmul double %mul508, 4.900000e+00
  %add510 = fadd double %mul509, %div507
  %375 = fadd <2 x double> %175, %338
  %376 = shufflevector <2 x double> %361, <2 x double> poison, <2 x i32> zeroinitializer
  %377 = fdiv <2 x double> %375, %376
  %378 = shufflevector <2 x double> %111, <2 x double> poison, <2 x i32> <i32 1, i32 undef>
  %379 = insertelement <2 x double> %378, double %add510, i64 1
  %380 = fmul <2 x double> %174, %379
  %381 = insertelement <2 x double> poison, double %.sroa.speculated46.i2611, i64 0
  %382 = shufflevector <2 x double> %381, <2 x double> poison, <2 x i32> zeroinitializer
  %383 = fmul <2 x double> %382, %380
  %384 = insertelement <2 x double> poison, double %.sroa.speculated45.i2616, i64 0
  %385 = shufflevector <2 x double> %384, <2 x double> poison, <2 x i32> zeroinitializer
  %386 = fmul <2 x double> %347, %385
  %387 = fsub <2 x double> %383, %386
  %388 = shufflevector <2 x double> %361, <2 x double> poison, <2 x i32> <i32 1, i32 1>
  %389 = fdiv <2 x double> %387, %388
  %390 = fmul <2 x double> %17, %389
  %391 = fsub <2 x double> %377, %390
  %392 = extractelement <2 x double> %391, i64 1
  %mul516 = fmul double %sub27.i2659, %392
  %393 = extractelement <2 x double> %391, i64 0
  %div517 = fdiv double %mul516, %393
  %394 = insertelement <2 x double> poison, double %392, i64 0
  %395 = insertelement <2 x double> %394, double %div517, i64 1
  %396 = fadd <2 x double> %337, %395
  %397 = fmul <2 x double> %396, <double 5.000000e-01, double 5.000000e-01>
  %mul520 = fmul double %392, %392
  %div521 = fdiv double %mul520, %393
  %398 = fmul <2 x double> %391, %391
  %mul522 = extractelement <2 x double> %398, i64 0
  %mul523 = fmul double %mul522, 4.900000e+00
  %add524 = fadd double %mul523, %div521
  %add525 = fadd double %add363, %add524
  %mul526 = fmul double %add525, 5.000000e-01
  br label %if.end527

if.end527:                                        ; preds = %if.then490, %if.end486
  %Vyfluxplus.0 = phi double [ %mul526, %if.then490 ], [ %add363, %if.end486 ]
  %399 = phi <2 x double> [ %391, %if.then490 ], [ zeroinitializer, %if.end486 ]
  %400 = phi <2 x double> [ %397, %if.then490 ], [ %337, %if.end486 ]
  %arrayidx531 = getelementptr inbounds i32, ptr %8, i64 %idxprom92
  %401 = load i32, ptr %arrayidx531, align 4, !tbaa !55
  %cmp532 = icmp slt i32 %67, %401
  br i1 %cmp532, label %if.then533, label %if.end548

if.then533:                                       ; preds = %if.end527
  %arrayidx536 = getelementptr inbounds i32, ptr %7, i64 %idxprom92
  %402 = load i32, ptr %arrayidx536, align 4, !tbaa !55
  %idxprom537 = sext i32 %402 to i64
  %arrayidx538 = getelementptr inbounds double, ptr %30, i64 %idxprom537
  %403 = load double, ptr %arrayidx538, align 8, !tbaa !62
  %add539 = fadd double %56, %403
  %mul540 = fmul double %add539, 5.000000e-01
  %arrayidx545 = getelementptr inbounds double, ptr %31, i64 %idxprom537
  %404 = load double, ptr %arrayidx545, align 8, !tbaa !62
  %add546 = fadd double %57, %404
  %mul547 = fmul double %add546, 5.000000e-01
  br label %if.end548

if.end548:                                        ; preds = %if.then533, %if.end527
  %Ull.0 = phi double [ %mul547, %if.then533 ], [ %57, %if.end527 ]
  %Hll.0 = phi double [ %mul540, %if.then533 ], [ %56, %if.end527 ]
  %405 = extractelement <2 x double> %93, i64 0
  %add553 = fadd double %41, %405
  %mul554 = fmul double %add553, 5.000000e-01
  %406 = extractelement <2 x double> %93, i64 1
  %add555 = fadd double %42, %406
  %mul556 = fmul double %add555, 5.000000e-01
  %Hr2.0 = select i1 %cmp164, double %mul554, double %41
  %Ur2.0 = select i1 %cmp164, double %mul556, double %42
  %407 = extractelement <2 x double> %127, i64 0
  %mul559 = fmul double %407, 5.000000e-01
  %div560 = fdiv double %195, %193
  %408 = call double @llvm.fabs.f64(double %div560)
  %mul561 = fmul double %193, 9.800000e+00
  %call562 = call double @sqrt(double noundef %mul561) #28
  %add563 = fadd double %408, %call562
  %sub = fsub double %34, %37
  %sub564 = fsub double %37, %Hll.0
  %sub565 = fsub double %Hr2.0, %34
  %mul.i2689 = fmul double %add563, 5.000000e-01
  %mul1.i2690 = fmul double %mul.i2689, %deltaT
  %div.i2691 = fdiv double %mul1.i2690, %mul559
  %sub.i2692 = fsub double 1.000000e+00, %div.i2691
  %mul2.i = fmul double %div.i2691, %sub.i2692
  %mul3.i2693 = fmul double %sub, %sub
  %cmp.i.i.i.i2694 = fcmp olt double %mul3.i2693, 1.000000e-30
  %.sroa.speculated35.i = select i1 %cmp.i.i.i.i2694, double 1.000000e-30, double %mul3.i2693
  %div5.i = fdiv double 1.000000e+00, %.sroa.speculated35.i
  %mul6.i = fmul double %sub, %sub565
  %mul7.i2695 = fmul double %div5.i, %mul6.i
  %mul8.i2696 = fmul double %sub, %sub564
  %mul9.i = fmul double %div5.i, %mul8.i2696
  %mul10.i = fmul double %mul2.i, 5.000000e-01
  %cmp.i.i.i24.i = fcmp olt double %mul7.i2695, 1.000000e+00
  %.sroa.speculated33.i = select i1 %cmp.i.i.i24.i, double %mul7.i2695, double 1.000000e+00
  %cmp.i.i.i26.i = fcmp olt double %mul9.i, %.sroa.speculated33.i
  %.sroa.speculated30.i = select i1 %cmp.i.i.i26.i, double %mul9.i, double %.sroa.speculated33.i
  %cmp.i.i.i28.i = fcmp olt double %.sroa.speculated30.i, 0.000000e+00
  %.sroa.speculated.i2697 = select i1 %cmp.i.i.i28.i, double 0.000000e+00, double %.sroa.speculated30.i
  %sub16.i = fsub double 1.000000e+00, %.sroa.speculated.i2697
  %mul17.i = fmul double %mul10.i, %sub16.i
  %mul568 = fmul double %sub, %mul17.i
  %409 = load i32, ptr %arrayidx119, align 4, !tbaa !55
  %cmp571 = icmp slt i32 %25, %409
  br i1 %cmp571, label %if.then572, label %if.end602

if.then572:                                       ; preds = %if.end548
  %idxprom573 = sext i32 %52 to i64
  %arrayidx574 = getelementptr inbounds i32, ptr %8, i64 %idxprom573
  %410 = load i32, ptr %arrayidx574, align 4, !tbaa !55
  %idxprom575 = sext i32 %nltl.0 to i64
  %arrayidx576 = getelementptr inbounds i32, ptr %8, i64 %idxprom575
  %411 = load i32, ptr %arrayidx576, align 4, !tbaa !55
  %cmp577 = icmp slt i32 %410, %411
  br i1 %cmp577, label %if.then578, label %if.end586

if.then578:                                       ; preds = %if.then572
  %412 = load ptr, ptr %H, align 8, !tbaa !39
  %arrayidx581 = getelementptr inbounds i32, ptr %7, i64 %idxprom575
  %413 = load i32, ptr %arrayidx581, align 4, !tbaa !55
  %idxprom582 = sext i32 %413 to i64
  %arrayidx583 = getelementptr inbounds double, ptr %412, i64 %idxprom582
  %414 = load double, ptr %arrayidx583, align 8, !tbaa !62
  %add584 = fadd double %Hll2.0, %414
  %mul585 = fmul double %add584, 5.000000e-01
  br label %if.end586

if.end586:                                        ; preds = %if.then578, %if.then572
  %Hll2.1 = phi double [ %mul585, %if.then578 ], [ %Hll2.0, %if.then572 ]
  %415 = extractelement <2 x double> %228, i64 0
  %416 = extractelement <2 x double> %228, i64 1
  %div589 = fdiv double %416, %415
  %417 = call double @llvm.fabs.f64(double %div589)
  %mul590 = fmul double %415, 9.800000e+00
  %call591 = call double @sqrt(double noundef %mul590) #28
  %add592 = fadd double %417, %call591
  %418 = extractelement <2 x double> %84, i64 0
  %sub593 = fsub double %34, %418
  %sub594 = fsub double %418, %Hll2.1
  %mul.i2698 = fmul double %add592, 5.000000e-01
  %mul1.i2699 = fmul double %mul.i2698, %deltaT
  %div.i2700 = fdiv double %mul1.i2699, %mul559
  %sub.i2701 = fsub double 1.000000e+00, %div.i2700
  %mul2.i2702 = fmul double %div.i2700, %sub.i2701
  %mul3.i2703 = fmul double %sub593, %sub593
  %cmp.i.i.i.i2704 = fcmp olt double %mul3.i2703, 1.000000e-30
  %.sroa.speculated35.i2705 = select i1 %cmp.i.i.i.i2704, double 1.000000e-30, double %mul3.i2703
  %div5.i2706 = fdiv double 1.000000e+00, %.sroa.speculated35.i2705
  %mul6.i2707 = fmul double %sub593, %sub565
  %mul7.i2708 = fmul double %div5.i2706, %mul6.i2707
  %mul8.i2709 = fmul double %sub593, %sub594
  %mul9.i2710 = fmul double %div5.i2706, %mul8.i2709
  %mul10.i2711 = fmul double %mul2.i2702, 5.000000e-01
  %cmp.i.i.i24.i2712 = fcmp olt double %mul7.i2708, 1.000000e+00
  %.sroa.speculated33.i2713 = select i1 %cmp.i.i.i24.i2712, double %mul7.i2708, double 1.000000e+00
  %cmp.i.i.i26.i2714 = fcmp olt double %mul9.i2710, %.sroa.speculated33.i2713
  %.sroa.speculated30.i2715 = select i1 %cmp.i.i.i26.i2714, double %mul9.i2710, double %.sroa.speculated33.i2713
  %cmp.i.i.i28.i2716 = fcmp olt double %.sroa.speculated30.i2715, 0.000000e+00
  %.sroa.speculated.i2717 = select i1 %cmp.i.i.i28.i2716, double 0.000000e+00, double %.sroa.speculated30.i2715
  %sub16.i2718 = fsub double 1.000000e+00, %.sroa.speculated.i2717
  %mul17.i2719 = fmul double %mul10.i2711, %sub16.i2718
  %mul598 = fmul double %sub593, %mul17.i2719
  %add599 = fadd double %mul568, %mul598
  %mul600 = fmul double %add599, 5.000000e-01
  %mul601 = fmul double %mul600, 5.000000e-01
  br label %if.end602

if.end602:                                        ; preds = %if.end586, %if.end548
  %wminusx_H.0 = phi double [ %mul601, %if.end586 ], [ %mul568, %if.end548 ]
  %419 = load i32, ptr %arrayidx123, align 4, !tbaa !55
  %arrayidx606 = getelementptr inbounds i32, ptr %8, i64 %idxprom98
  %420 = load i32, ptr %arrayidx606, align 4, !tbaa !55
  %cmp607 = icmp slt i32 %419, %420
  br i1 %cmp607, label %if.then608, label %if.end623

if.then608:                                       ; preds = %if.end602
  %421 = load ptr, ptr %H, align 8, !tbaa !39
  %arrayidx611 = getelementptr inbounds i32, ptr %7, i64 %idxprom98
  %422 = load i32, ptr %arrayidx611, align 4, !tbaa !55
  %idxprom612 = sext i32 %422 to i64
  %arrayidx613 = getelementptr inbounds double, ptr %421, i64 %idxprom612
  %423 = load double, ptr %arrayidx613, align 8, !tbaa !62
  %add614 = fadd double %58, %423
  %mul615 = fmul double %add614, 5.000000e-01
  %424 = load ptr, ptr %U, align 8, !tbaa !40
  %arrayidx620 = getelementptr inbounds double, ptr %424, i64 %idxprom612
  %425 = load double, ptr %arrayidx620, align 8, !tbaa !62
  %add621 = fadd double %59, %425
  %mul622 = fmul double %add621, 5.000000e-01
  br label %if.end623

if.end623:                                        ; preds = %if.then608, %if.end602
  %Urr.0 = phi double [ %mul622, %if.then608 ], [ %59, %if.end602 ]
  %Hrr.0 = phi double [ %mul615, %if.then608 ], [ %58, %if.end602 ]
  %426 = load i32, ptr %arrayidx119, align 4, !tbaa !55
  %cmp626 = icmp slt i32 %25, %426
  %427 = extractelement <2 x double> %84, i64 0
  %add628 = fadd double %37, %427
  %mul629 = fmul double %add628, 5.000000e-01
  %428 = extractelement <2 x double> %84, i64 1
  %add630 = fadd double %38, %428
  %mul631 = fmul double %add630, 5.000000e-01
  %Hl2.0 = select i1 %cmp626, double %mul629, double %37
  %Ul2.0 = select i1 %cmp626, double %mul631, double %38
  %mul634 = fmul double %161, 5.000000e-01
  %div635 = fdiv double %sub27.i2137, %sub27.i2108
  %429 = call double @llvm.fabs.f64(double %div635)
  %mul636 = fmul double %sub27.i2108, 9.800000e+00
  %call637 = call double @sqrt(double noundef %mul636) #28
  %add638 = fadd double %429, %call637
  %sub639 = fsub double %41, %34
  %sub640 = fsub double %34, %Hl2.0
  %sub641 = fsub double %Hrr.0, %41
  %mul.i2720 = fmul double %add638, 5.000000e-01
  %mul1.i2721 = fmul double %mul.i2720, %deltaT
  %div.i2722 = fdiv double %mul1.i2721, %mul634
  %sub.i2723 = fsub double 1.000000e+00, %div.i2722
  %mul2.i2724 = fmul double %div.i2722, %sub.i2723
  %mul3.i2725 = fmul double %sub639, %sub639
  %cmp.i.i.i.i2726 = fcmp olt double %mul3.i2725, 1.000000e-30
  %.sroa.speculated35.i2727 = select i1 %cmp.i.i.i.i2726, double 1.000000e-30, double %mul3.i2725
  %div5.i2728 = fdiv double 1.000000e+00, %.sroa.speculated35.i2727
  %mul6.i2729 = fmul double %sub639, %sub641
  %mul7.i2730 = fmul double %div5.i2728, %mul6.i2729
  %mul8.i2731 = fmul double %sub639, %sub640
  %mul9.i2732 = fmul double %div5.i2728, %mul8.i2731
  %mul10.i2733 = fmul double %mul2.i2724, 5.000000e-01
  %cmp.i.i.i24.i2734 = fcmp olt double %mul7.i2730, 1.000000e+00
  %.sroa.speculated33.i2735 = select i1 %cmp.i.i.i24.i2734, double %mul7.i2730, double 1.000000e+00
